Certificate:
    Data:
        Version: 3 (0x2)
        Serial Number:
            8d:2b:b7:22:48:d9:48:7a:29:22:6f:ce:c3:f0:be:3f
    Signature Algorithm: sha1WithRSAEncryption
        Issuer: C=US, ST=UT, L=Salt Lake City, O=The USERTRUST Network, OU=http://www.usertrust.com, CN=UTN-USERFirst-Object
        Validity
            Not Before: Mar  8 00:00:00 2011 GMT
            Not After : Mar  7 23:59:59 2014 GMT
        Subject: C=US/postalCode=27609, ST=NC, L=Raleigh/street=Suite 320/street=4700 Six Forks Rd, O=Elsinore Technologies, Inc., CN=Elsinore Technologies, Inc.
        Subject Public Key Info:
            Public Key Algorithm: rsaEncryption
                Public-Key: (2048 bit)
                Modulus:
                    00:ab:f9:ad:4e:15:d0:08:c4:35:8c:fc:b3:21:56:
                    dd:f0:b5:37:6d:34:1e:8b:a8:51:a2:4b:26:d8:df:
                    01:f5:78:03:0c:7e:5c:72:ee:24:a3:09:ae:8a:a5:
                    11:fc:d0:c0:7a:25:0d:00:f8:4c:97:3e:3e:34:83:
                    f1:71:26:76:df:77:3a:2b:76:c5:ed:b7:74:e4:34:
                    45:ff:b2:63:6c:5c:a7:ea:41:5a:97:5d:1b:5a:4b:
                    52:2c:00:81:bc:7b:69:18:c3:d1:df:c3:82:b1:32:
                    b7:49:5b:d3:db:0e:c6:94:7f:3b:d4:ab:73:6d:02:
                    6f:86:1d:83:68:23:05:8f:68:2d:dd:e8:75:50:03:
                    10:03:7b:49:ce:64:b3:d5:8e:8e:e0:c2:08:1c:34:
                    49:ce:5d:8c:7e:b0:ec:21:07:b9:5d:65:c7:07:4d:
                    eb:22:29:d6:0d:97:63:aa:2c:24:f1:b8:fe:0f:5c:
                    d9:c1:08:ca:5a:13:83:42:34:ff:17:d2:11:1d:5f:
                    af:dd:8e:f0:d2:92:64:da:87:fa:16:2e:33:9f:a2:
                    bc:a7:f9:4d:9c:00:15:a8:25:39:70:17:b8:4e:27:
                    e5:30:1f:89:ec:a0:02:cc:ac:e1:80:e1:97:37:21:
                    04:7c:97:bd:0d:bc:3f:35:a8:a0:ae:76:dc:b0:3a:
                    15:45
                Exponent: 65537 (0x10001)
        X509v3 extensions:
            X509v3 Authority Key Identifier: 
                keyid:DA:ED:64:74:14:9C:14:3C:AB:DD:99:A9:BD:5B:28:4D:8B:3C:C9:D8

            X509v3 Subject Key Identifier: 
                77:51:5E:51:91:E4:7B:75:25:9E:7D:E6:31:6F:BD:1B:E3:29:6A:09
            X509v3 Key Usage: critical
                Digital Signature
            X509v3 Basic Constraints: critical
                CA:FALSE
            X509v3 Extended Key Usage: 
                Code Signing
            Netscape Cert Type: 
                Object Signing
            X509v3 Certificate Policies: 
                Policy: 1.3.6.1.4.1.6449.1.2.1.3.2
                  CPS: https://secure.comodo.net/CPS

            X509v3 CRL Distribution Points: 

                Full Name:
                  URI:http://crl.usertrust.com/UTN-USERFirst-Object.crl

            Authority Information Access: 
                OCSP - URI:http://ocsp.comodoca.com

            X509v3 Subject Alternative Name: 
                email:sales@screenconnect.com
    Signature Algorithm: sha1WithRSAEncryption
         91:d0:dc:ff:be:9a:d8:59:42:2e:36:d8:44:bf:f0:ba:9c:18:
         61:bd:71:eb:a7:70:e2:33:1d:fc:cd:c2:c0:9e:3d:57:85:54:
         9b:e7:8c:73:84:ba:7c:ff:34:fc:85:f1:18:b0:94:a7:a4:48:
         c3:c7:79:b3:c9:b4:72:75:dc:57:d7:4d:f6:67:ee:74:38:7d:
         99:9c:80:6f:53:da:7b:9b:b4:0d:ed:08:99:cd:61:ee:dd:a5:
         52:8d:74:bd:d5:7b:38:22:7d:2e:01:32:ae:83:f2:17:de:ba:
         c6:3c:37:c1:f5:cb:f0:ec:15:c1:90:99:2c:c2:b0:5e:00:c8:
         90:3a:41:2e:25:51:07:b3:81:3c:d8:1d:c0:6a:12:9b:f3:d7:
         69:a6:1c:e7:25:84:88:53:b2:a6:1e:5c:ec:5d:04:a8:32:ac:
         ff:bf:bd:e0:e7:5d:8e:24:2c:4c:57:4a:c3:c9:bb:15:f5:7c:
         d0:d5:5e:85:85:f6:19:b6:f8:d6:ac:6a:f7:e3:70:5d:81:43:
         aa:8b:09:17:6b:57:92:f7:18:51:95:ad:5c:99:89:45:66:84:
         1e:73:54:32:34:9d:1d:b1:e3:b6:54:be:a5:13:e7:51:5f:4b:
         03:6b:10:24:a6:db:1f:8d:15:c3:3f:f1:8d:6d:fe:b3:17:b8:
         ee:f1:15:4c
-----BEGIN CERTIFICATE-----
MIIFTDCCBDSgAwIBAgIRAI0rtyJI2Uh6KSJvzsPwvj8wDQYJKoZIhvcNAQEFBQAw
gZUxCzAJBgNVBAYTAlVTMQswCQYDVQQIEwJVVDEXMBUGA1UEBxMOU2FsdCBMYWtl
IENpdHkxHjAcBgNVBAoTFVRoZSBVU0VSVFJVU1QgTmV0d29yazEhMB8GA1UECxMY
aHR0cDovL3d3dy51c2VydHJ1c3QuY29tMR0wGwYDVQQDExRVVE4tVVNFUkZpcnN0
LU9iamVjdDAeFw0xMTAzMDgwMDAwMDBaFw0xNDAzMDcyMzU5NTlaMIG4MQswCQYD
VQQGEwJVUzEOMAwGA1UEEQwFMjc2MDkxCzAJBgNVBAgMAk5DMRAwDgYDVQQHDAdS
YWxlaWdoMRIwEAYDVQQJDAlTdWl0ZSAzMjAxGjAYBgNVBAkMETQ3MDAgU2l4IEZv
cmtzIFJkMSQwIgYDVQQKDBtFbHNpbm9yZSBUZWNobm9sb2dpZXMsIEluYy4xJDAi
BgNVBAMMG0Vsc2lub3JlIFRlY2hub2xvZ2llcywgSW5jLjCCASIwDQYJKoZIhvcN
AQEBBQADggEPADCCAQoCggEBAKv5rU4V0AjENYz8syFW3fC1N200HouoUaJLJtjf
AfV4Awx+XHLuJKMJroqlEfzQwHolDQD4TJc+PjSD8XEmdt93Oit2xe23dOQ0Rf+y
Y2xcp+pBWpddG1pLUiwAgbx7aRjD0d/DgrEyt0lb09sOxpR/O9Src20Cb4Ydg2gj
BY9oLd3odVADEAN7Sc5ks9WOjuDCCBw0Sc5djH6w7CEHuV1lxwdN6yIp1g2XY6os
JPG4/g9c2cEIyloTg0I0/xfSER1fr92O8NKSZNqH+hYuM5+ivKf5TZwAFaglOXAX
uE4n5TAfieygAsys4YDhlzchBHyXvQ28PzWooK523LA6FUUCAwEAAaOCAXAwggFs
MB8GA1UdIwQYMBaAFNrtZHQUnBQ8q92Zqb1bKE2LPMnYMB0GA1UdDgQWBBR3UV5R
keR7dSWefeYxb70b4ylqCTAOBgNVHQ8BAf8EBAMCB4AwDAYDVR0TAQH/BAIwADAT
BgNVHSUEDDAKBggrBgEFBQcDAzARBglghkgBhvhCAQEEBAMCBBAwRgYDVR0gBD8w
PTA7BgwrBgEEAbIxAQIBAwIwKzApBggrBgEFBQcCARYdaHR0cHM6Ly9zZWN1cmUu
Y29tb2RvLm5ldC9DUFMwQgYDVR0fBDswOTA3oDWgM4YxaHR0cDovL2NybC51c2Vy
dHJ1c3QuY29tL1VUTi1VU0VSRmlyc3QtT2JqZWN0LmNybDA0BggrBgEFBQcBAQQo
MCYwJAYIKwYBBQUHMAGGGGh0dHA6Ly9vY3NwLmNvbW9kb2NhLmNvbTAiBgNVHREE
GzAZgRdzYWxlc0BzY3JlZW5jb25uZWN0LmNvbTANBgkqhkiG9w0BAQUFAAOCAQEA
kdDc/76a2FlCLjbYRL/wupwYYb1x66dw4jMd/M3CwJ49V4VUm+eMc4S6fP80/IXx
GLCUp6RIw8d5s8m0cnXcV9dN9mfudDh9mZyAb1Pae5u0De0Imc1h7t2lUo10vdV7
OCJ9LgEyroPyF966xjw3wfXL8OwVwZCZLMKwXgDIkDpBLiVRB7OBPNgdwGoSm/PX
aaYc5yWEiFOyph5c7F0EqDKs/7+94OddjiQsTFdKw8m7FfV80NVehYX2Gbb41qxq
9+NwXYFDqosJF2tXkvcYUZWtXJmJRWaEHnNUMjSdHbHjtlS+pRPnUV9LA2sQJKbb
H40Vwz/xjW3+sxe47vEVTA==
-----END CERTIFICATE-----

