Certificate:
    Data:
        Version: 3 (0x2)
        Serial Number:
            78:22:43:a1:53:df:28:0a:1f:fa:e1:5c:d0:28:4c:86
    Signature Algorithm: sha256WithRSAEncryption
        Issuer: C=IL, O=StartCom Ltd., OU=Secure Digital Certificate Signing, CN=StartCom Certification Authority
        Validity
            Not Before: Dec 16 01:00:05 2015 GMT
            Not After : Dec 16 01:00:05 2030 GMT
        Subject: C=IL, O=StartCom Ltd., OU=StartCom Certification Authority, CN=StartCom Class 3 Object CA
        Subject Public Key Info:
            Public Key Algorithm: rsaEncryption
                Public-Key: (2048 bit)
                Modulus:
                    00:d8:6c:25:36:14:64:5c:79:cd:61:98:02:9f:05:
                    95:51:bc:c8:40:66:ca:57:57:32:93:65:a0:55:bb:
                    c2:7a:df:af:fe:e5:55:28:32:67:e6:63:2f:c2:ef:
                    65:c0:c1:e6:77:ed:4d:a4:a5:bd:de:4c:08:e2:56:
                    f5:69:4c:20:24:64:b0:b4:bf:da:fa:39:6f:f0:6c:
                    3a:32:2c:e4:0f:63:f0:54:ad:d1:f6:ab:e2:6b:44:
                    d1:d9:6e:e6:64:37:fb:a8:5b:9f:6b:60:8d:6f:a6:
                    e9:a9:2c:a8:3c:a6:b0:02:00:01:6f:cd:14:a0:ac:
                    ca:b0:e5:a8:d3:9a:ba:35:e4:7e:67:69:6d:ed:24:
                    79:9a:8a:7c:30:f0:ec:3a:07:67:28:0f:f5:ee:8a:
                    68:39:f4:a5:cb:a1:7a:26:0d:6b:e4:fe:72:a9:6b:
                    57:c4:f0:de:c6:66:cc:fc:b1:bf:f8:ad:48:28:91:
                    dc:6f:b2:a3:d2:ca:0d:9c:15:15:f4:63:fe:da:40:
                    26:11:40:a1:d1:c4:c3:d4:b0:9d:ad:85:45:89:69:
                    03:54:d9:83:dd:d0:48:40:de:bb:a1:e3:4d:1f:40:
                    24:f1:c0:e0:8e:12:46:1b:08:2f:92:ee:19:65:61:
                    bb:14:f5:85:7d:a9:2e:62:92:2f:69:8f:00:25:77:
                    7a:d7
                Exponent: 65537 (0x10001)
        X509v3 extensions:
            X509v3 Key Usage: critical
                Certificate Sign, CRL Sign
            X509v3 Extended Key Usage: 
                Code Signing, 1.3.6.1.4.1.311.61.1.1
            X509v3 Basic Constraints: critical
                CA:TRUE, pathlen:0
            X509v3 CRL Distribution Points: 

                Full Name:
                  URI:http://crl.startssl.com/sfsca.crl

            Authority Information Access: 
                OCSP - URI:http://ocsp.startssl.com
                CA Issuers - URI:http://aia.startssl.com/certs/ca.crt

            X509v3 Subject Key Identifier: 
                66:7A:9E:CD:9C:73:86:6A:69:A0:AE:FA:8C:BB:18:8F:08:EC:D5:04
            X509v3 Authority Key Identifier: 
                keyid:4E:0B:EF:1A:A4:40:5B:A5:17:69:87:30:CA:34:68:43:D0:41:AE:F2

            X509v3 Certificate Policies: 
                Policy: X509v3 Any Policy
                  CPS: http://www.startssl.com/policy

    Signature Algorithm: sha256WithRSAEncryption
         0b:1f:77:f0:a4:b6:e6:92:05:f5:47:f1:74:73:a5:60:1a:b7:
         a1:98:ae:ba:80:99:f1:b8:96:d4:fa:23:e9:ca:63:05:82:08:
         00:af:94:cc:21:39:53:d5:51:98:68:01:c0:e0:f6:53:be:58:
         11:98:bd:d9:ae:11:e7:9f:ef:d3:23:4d:cc:67:2b:78:5e:5b:
         95:9b:4a:a3:bb:4c:34:47:e1:29:79:46:47:c9:c5:d3:28:ae:
         75:1b:c2:63:bd:f9:fd:bb:51:a7:b2:02:93:40:53:5e:7a:9d:
         69:f9:fe:34:2e:f4:1a:8b:6c:0b:42:00:89:e1:27:2f:a8:85:
         0a:e7:ed:85:26:f4:b8:c8:d3:ae:81:97:a3:37:2c:38:e5:db:
         97:53:25:ae:90:16:a1:1b:67:d0:15:c5:ba:c9:9b:af:8c:71:
         e1:ee:a7:c0:8b:60:f2:bf:5c:3a:15:e2:5e:1c:d3:ff:b4:f8:
         58:75:02:ba:6d:12:83:33:ff:c4:0c:5c:97:63:ff:b1:11:66:
         81:44:40:c3:23:c0:f6:1c:95:6f:27:ca:74:00:86:50:6a:d3:
         cd:06:21:7b:01:d8:8f:49:95:41:63:08:57:06:bf:67:ec:dc:
         0e:ac:59:2a:01:1b:c7:99:e7:2b:75:0d:61:23:04:8c:52:d2:
         2e:bc:7b:51:50:92:a2:9f:a2:78:74:95:83:9e:f3:b7:96:59:
         ca:ae:11:d8:9e:9b:b8:4a:0c:c2:e8:39:36:28:66:e9:a6:76:
         da:c4:ff:31:e2:b2:5d:8d:69:24:8a:5b:58:7d:8b:af:d2:8c:
         bc:52:31:0f:1d:90:2f:96:a8:46:9a:77:36:ab:99:2f:55:cd:
         0d:b5:78:03:e4:88:a9:13:cc:72:6d:7a:c8:f6:77:79:b8:4a:
         cf:85:1e:1e:4a:f8:2e:47:2e:5a:36:eb:2e:17:ff:db:75:c0:
         7d:94:68:4c:33:75:76:43:22:d1:80:00:57:87:7e:13:c1:f0:
         55:4a:f2:eb:9f:04:e1:a8:2d:3a:b7:ae:a7:89:7c:b1:a8:0f:
         fd:f2:26:9d:f0:f7:40:1d:f4:a4:c9:10:4c:30:dc:64:d0:b5:
         52:11:37:c9:fc:5b:55:26:be:89:bd:63:df:42:04:71:7a:4f:
         8b:f2:ce:ac:c3:f6:db:e0:9a:fa:2e:70:82:42:36:82:86:80:
         c5:ae:7d:02:7a:f4:60:0e:ca:1d:30:96:db:14:f4:e8:4c:99:
         3c:b2:03:8e:2b:50:f7:99:63:80:84:b2:f5:1b:be:b9:0c:3f:
         34:ca:dc:d7:fd:a3:8e:5c:0e:70:7e:94:13:4f:32:1b:ff:a4:
         8f:5c:75:f5:9c:a4:58:c9
-----BEGIN CERTIFICATE-----
MIIF5DCCA8ygAwIBAgIQeCJDoVPfKAof+uFc0ChMhjANBgkqhkiG9w0BAQsFADB9
MQswCQYDVQQGEwJJTDEWMBQGA1UEChMNU3RhcnRDb20gTHRkLjErMCkGA1UECxMi
U2VjdXJlIERpZ2l0YWwgQ2VydGlmaWNhdGUgU2lnbmluZzEpMCcGA1UEAxMgU3Rh
cnRDb20gQ2VydGlmaWNhdGlvbiBBdXRob3JpdHkwHhcNMTUxMjE2MDEwMDA1WhcN
MzAxMjE2MDEwMDA1WjB1MQswCQYDVQQGEwJJTDEWMBQGA1UEChMNU3RhcnRDb20g
THRkLjEpMCcGA1UECxMgU3RhcnRDb20gQ2VydGlmaWNhdGlvbiBBdXRob3JpdHkx
IzAhBgNVBAMTGlN0YXJ0Q29tIENsYXNzIDMgT2JqZWN0IENBMIIBIjANBgkqhkiG
9w0BAQEFAAOCAQ8AMIIBCgKCAQEA2GwlNhRkXHnNYZgCnwWVUbzIQGbKV1cyk2Wg
VbvCet+v/uVVKDJn5mMvwu9lwMHmd+1NpKW93kwI4lb1aUwgJGSwtL/a+jlv8Gw6
MizkD2PwVK3R9qvia0TR2W7mZDf7qFufa2CNb6bpqSyoPKawAgABb80UoKzKsOWo
05q6NeR+Z2lt7SR5mop8MPDsOgdnKA/17opoOfSly6F6Jg1r5P5yqWtXxPDexmbM
/LG/+K1IKJHcb7Kj0soNnBUV9GP+2kAmEUCh0cTD1LCdrYVFiWkDVNmD3dBIQN67
oeNNH0Ak8cDgjhJGGwgvku4ZZWG7FPWFfakuYpIvaY8AJXd61wIDAQABo4IBZjCC
AWIwDgYDVR0PAQH/BAQDAgEGMB8GA1UdJQQYMBYGCCsGAQUFBwMDBgorBgEEAYI3
PQEBMBIGA1UdEwEB/wQIMAYBAf8CAQAwMgYDVR0fBCswKTAnoCWgI4YhaHR0cDov
L2NybC5zdGFydHNzbC5jb20vc2ZzY2EuY3JsMGYGCCsGAQUFBwEBBFowWDAkBggr
BgEFBQcwAYYYaHR0cDovL29jc3Auc3RhcnRzc2wuY29tMDAGCCsGAQUFBzAChiRo
dHRwOi8vYWlhLnN0YXJ0c3NsLmNvbS9jZXJ0cy9jYS5jcnQwHQYDVR0OBBYEFGZ6
ns2cc4ZqaaCu+oy7GI8I7NUEMB8GA1UdIwQYMBaAFE4L7xqkQFulF2mHMMo0aEPQ
Qa7yMD8GA1UdIAQ4MDYwNAYEVR0gADAsMCoGCCsGAQUFBwIBFh5odHRwOi8vd3d3
LnN0YXJ0c3NsLmNvbS9wb2xpY3kwDQYJKoZIhvcNAQELBQADggIBAAsfd/CktuaS
BfVH8XRzpWAat6GYrrqAmfG4ltT6I+nKYwWCCACvlMwhOVPVUZhoAcDg9lO+WBGY
vdmuEeef79MjTcxnK3heW5WbSqO7TDRH4Sl5RkfJxdMornUbwmO9+f27UaeyApNA
U156nWn5/jQu9BqLbAtCAInhJy+ohQrn7YUm9LjI066Bl6M3LDjl25dTJa6QFqEb
Z9AVxbrJm6+MceHup8CLYPK/XDoV4l4c0/+0+Fh1ArptEoMz/8QMXJdj/7ERZoFE
QMMjwPYclW8nynQAhlBq080GIXsB2I9JlUFjCFcGv2fs3A6sWSoBG8eZ5yt1DWEj
BIxS0i68e1FQkqKfonh0lYOe87eWWcquEdiem7hKDMLoOTYoZummdtrE/zHisl2N
aSSKW1h9i6/SjLxSMQ8dkC+WqEaadzarmS9VzQ21eAPkiKkTzHJtesj2d3m4Ss+F
Hh5K+C5HLlo26y4X/9t1wH2UaEwzdXZDItGAAFeHfhPB8FVK8uufBOGoLTq3rqeJ
fLGoD/3yJp3w90Ad9KTJEEww3GTQtVIRN8n8W1Umvom9Y99CBHF6T4vyzqzD9tvg
mvoucIJCNoKGgMWufQJ69GAOyh0wltsU9OhMmTyyA44rUPeZY4CEsvUbvrkMPzTK
3Nf9o45cDnB+lBNPMhv/pI9cdfWcpFjJ
-----END CERTIFICATE-----

Certificate:
    Data:
        Version: 3 (0x2)
        Serial Number:
            59:3c:79:cc:8c:be:eb:62:4c:f5:dc:e8:91:ff:c2:3a
    Signature Algorithm: sha256WithRSAEncryption
        Issuer: C=IL, O=StartCom Ltd., OU=StartCom Certification Authority, CN=StartCom Class 3 Object CA
        Validity
            Not Before: Jan 26 06:09:50 2016 GMT
            Not After : Jan 26 06:09:50 2019 GMT
        Subject: C=US, ST=Delaware, L=Wilmington, O=imPcRemote LLC, CN=imPcRemote LLC
        Subject Public Key Info:
            Public Key Algorithm: rsaEncryption
                Public-Key: (4096 bit)
                Modulus:
                    00:ae:db:cc:6b:75:83:2d:4a:1c:bd:11:36:99:76:
                    c5:5f:d0:33:0b:c3:64:22:b2:90:19:9e:67:83:4e:
                    dd:c1:01:7e:a1:7e:f4:44:b5:01:78:6b:0e:23:c6:
                    c6:84:c2:78:a4:1b:6f:45:17:e3:1a:be:81:20:3b:
                    8b:4a:8b:d0:40:aa:81:59:17:d0:75:cf:a8:1a:0a:
                    16:05:2c:8a:84:33:d2:53:e3:a4:0e:f6:ba:be:c3:
                    81:a0:d9:4c:d8:20:7d:48:a1:5c:fc:28:10:3e:c7:
                    1d:79:4a:06:34:aa:1a:99:1f:88:f4:99:52:d7:36:
                    ba:11:22:37:62:e7:c6:4a:e7:39:0f:05:2a:60:90:
                    07:7e:8d:e6:41:38:e2:cd:6c:5c:f5:a9:34:e2:b3:
                    70:5a:f8:ab:93:f7:40:ab:f4:83:24:a8:e7:16:36:
                    52:c1:10:00:25:b3:fc:d5:1a:7f:0c:22:cb:43:a2:
                    54:78:7a:f4:ea:e8:7f:6f:d4:e5:ce:8a:98:2f:8b:
                    67:4a:c3:72:bd:fb:2d:b6:bf:d0:f4:bb:d4:9e:35:
                    e0:4f:c0:00:ab:21:8d:e9:d2:77:c7:e3:b8:1c:d1:
                    f8:26:13:92:d2:03:4a:18:88:64:c5:d4:7b:ef:7e:
                    ad:37:bb:47:7f:8d:99:0a:4b:8f:78:e4:48:25:33:
                    36:e9:48:36:17:52:2e:76:93:0f:d2:59:97:e2:ff:
                    d9:39:d7:3e:9b:b1:67:b8:0b:f9:e4:28:ac:c2:62:
                    a8:13:88:4d:24:12:d3:c1:a0:b5:2c:15:8e:b7:99:
                    ee:10:1f:90:f5:74:66:8b:4f:d4:93:e3:fc:94:da:
                    82:0f:53:14:25:ae:33:32:8d:1d:b7:2b:6b:85:2f:
                    da:f9:70:0f:27:3f:7b:e7:15:92:4e:4a:b5:24:38:
                    7e:18:85:06:bc:f7:3e:c9:cb:6f:ff:8d:c0:b7:8f:
                    09:78:ed:d3:51:7c:f5:81:2c:96:ee:15:fd:69:54:
                    b5:80:ce:44:05:02:10:54:31:b5:d4:0b:99:b9:a0:
                    14:e1:99:f2:8e:40:d1:92:68:96:e1:99:24:5f:48:
                    21:1a:21:c1:f6:89:6c:10:b5:ce:1a:ff:f7:ad:9d:
                    f4:5d:8f:7a:46:0a:fc:de:62:16:cf:f0:6f:db:03:
                    fb:c5:6a:15:cc:ff:4d:59:9d:f4:3c:48:da:f8:f8:
                    ee:1d:e1:0d:9d:fe:40:d6:13:6d:29:8d:0f:4a:9d:
                    4e:d0:be:2b:fc:03:76:0c:fa:bf:0f:12:dd:44:1b:
                    56:9d:0a:ba:1d:ec:47:b1:30:79:c3:25:e4:6a:80:
                    3f:ec:1a:73:e2:4a:f7:9d:1b:50:b5:e4:d3:67:07:
                    40:98:1d
                Exponent: 65537 (0x10001)
        X509v3 extensions:
            X509v3 Key Usage: critical
                Digital Signature
            X509v3 Extended Key Usage: 
                Code Signing, 1.3.6.1.4.1.311.61.1.1
            X509v3 Basic Constraints: 
                CA:FALSE
            X509v3 Subject Key Identifier: 
                19:47:28:F0:13:B3:6B:60:F3:CB:13:D4:67:E3:33:09:FA:47:6B:54
            X509v3 Authority Key Identifier: 
                keyid:66:7A:9E:CD:9C:73:86:6A:69:A0:AE:FA:8C:BB:18:8F:08:EC:D5:04

            Authority Information Access: 
                OCSP - URI:http://ocsp.startssl.com
                CA Issuers - URI:http://aia.startssl.com/certs/sca.code3.crt

            X509v3 CRL Distribution Points: 

                Full Name:
                  URI:http://crl.startssl.com/sca-code3.crl

            X509v3 Issuer Alternative Name: 
                URI:http://www.startssl.com/
            X509v3 Certificate Policies: 
                Policy: 2.23.140.1.4.1
                Policy: 1.3.6.1.4.1.23223.1.2.4
                  CPS: http://www.startssl.com/policy

    Signature Algorithm: sha256WithRSAEncryption
         15:59:df:33:b4:2d:4e:18:7b:e3:8a:55:1a:b3:6b:ea:a1:94:
         2c:cb:fd:51:07:ab:3e:b5:f5:8f:2e:30:db:8e:7d:98:39:6b:
         0d:27:58:35:78:9e:aa:3e:ec:8c:6b:9c:1a:be:8f:da:4c:2b:
         ba:80:12:ea:8b:30:81:6a:91:49:34:bf:6c:4f:eb:d1:5e:47:
         f6:e2:ad:cf:73:e2:9f:4d:b8:b8:b7:e1:42:40:52:01:15:dd:
         41:4c:03:01:6e:78:14:d6:a6:9a:b3:37:c0:20:59:20:86:d3:
         d0:29:28:85:c2:33:bf:8d:f6:d7:5d:3b:f7:8d:23:a1:e1:41:
         54:37:43:29:2d:84:4c:09:42:e0:7f:67:97:e9:a6:1a:7e:67:
         c3:51:1f:d6:5c:34:9b:fc:7e:97:cf:a9:e9:da:eb:fa:53:1e:
         d6:b7:ae:8c:28:01:29:1c:1f:5f:7f:4c:09:c0:3d:21:e9:c6:
         07:88:5a:44:f8:5f:98:b2:20:bd:75:6f:c4:7b:23:43:f7:11:
         37:62:92:49:20:f3:60:a7:56:66:cc:3d:3b:74:f7:bd:42:62:
         41:db:b8:17:b8:e5:a2:49:eb:1a:66:56:a9:d5:b7:11:99:87:
         e3:76:b4:f1:c0:26:57:ee:e8:ef:8f:e4:4c:fd:38:c1:fe:66:
         6e:b4:3f:a9
-----BEGIN CERTIFICATE-----
MIIGBjCCBO6gAwIBAgIQWTx5zIy+62JM9dzokf/COjANBgkqhkiG9w0BAQsFADB1
MQswCQYDVQQGEwJJTDEWMBQGA1UEChMNU3RhcnRDb20gTHRkLjEpMCcGA1UECxMg
U3RhcnRDb20gQ2VydGlmaWNhdGlvbiBBdXRob3JpdHkxIzAhBgNVBAMTGlN0YXJ0
Q29tIENsYXNzIDMgT2JqZWN0IENBMB4XDTE2MDEyNjA2MDk1MFoXDTE5MDEyNjA2
MDk1MFowZzELMAkGA1UEBhMCVVMxETAPBgNVBAgMCERlbGF3YXJlMRMwEQYDVQQH
DApXaWxtaW5ndG9uMRcwFQYDVQQKDA5pbVBjUmVtb3RlIExMQzEXMBUGA1UEAwwO
aW1QY1JlbW90ZSBMTEMwggIiMA0GCSqGSIb3DQEBAQUAA4ICDwAwggIKAoICAQCu
28xrdYMtShy9ETaZdsVf0DMLw2QispAZnmeDTt3BAX6hfvREtQF4aw4jxsaEwnik
G29FF+MavoEgO4tKi9BAqoFZF9B1z6gaChYFLIqEM9JT46QO9rq+w4Gg2UzYIH1I
oVz8KBA+xx15SgY0qhqZH4j0mVLXNroRIjdi58ZK5zkPBSpgkAd+jeZBOOLNbFz1
qTTis3Ba+KuT90Cr9IMkqOcWNlLBEAAls/zVGn8MIstDolR4evTq6H9v1OXOipgv
i2dKw3K9+y22v9D0u9SeNeBPwACrIY3p0nfH47gc0fgmE5LSA0oYiGTF1Hvvfq03
u0d/jZkKS4945EglMzbpSDYXUi52kw/SWZfi/9k51z6bsWe4C/nkKKzCYqgTiE0k
EtPBoLUsFY63me4QH5D1dGaLT9ST4/yU2oIPUxQlrjMyjR23K2uFL9r5cA8nP3vn
FZJOSrUkOH4YhQa89z7Jy2//jcC3jwl47dNRfPWBLJbuFf1pVLWAzkQFAhBUMbXU
C5m5oBThmfKOQNGSaJbhmSRfSCEaIcH2iWwQtc4a//etnfRdj3pGCvzeYhbP8G/b
A/vFahXM/01ZnfQ8SNr4+O4d4Q2d/kDWE20pjQ9KnU7Qviv8A3YM+r8PEt1EG1ad
Crod7EexMHnDJeRqgD/sGnPiSvedG1C15NNnB0CYHQIDAQABo4IBnjCCAZowDgYD
VR0PAQH/BAQDAgeAMB8GA1UdJQQYMBYGCCsGAQUFBwMDBgorBgEEAYI3PQEBMAkG
A1UdEwQCMAAwHQYDVR0OBBYEFBlHKPATs2tg88sT1GfjMwn6R2tUMB8GA1UdIwQY
MBaAFGZ6ns2cc4ZqaaCu+oy7GI8I7NUEMG0GCCsGAQUFBwEBBGEwXzAkBggrBgEF
BQcwAYYYaHR0cDovL29jc3Auc3RhcnRzc2wuY29tMDcGCCsGAQUFBzAChitodHRw
Oi8vYWlhLnN0YXJ0c3NsLmNvbS9jZXJ0cy9zY2EuY29kZTMuY3J0MDYGA1UdHwQv
MC0wK6ApoCeGJWh0dHA6Ly9jcmwuc3RhcnRzc2wuY29tL3NjYS1jb2RlMy5jcmww
IwYDVR0SBBwwGoYYaHR0cDovL3d3dy5zdGFydHNzbC5jb20vMFAGA1UdIARJMEcw
CAYGZ4EMAQQBMDsGCysGAQQBgbU3AQIEMCwwKgYIKwYBBQUHAgEWHmh0dHA6Ly93
d3cuc3RhcnRzc2wuY29tL3BvbGljeTANBgkqhkiG9w0BAQsFAAOCAQEAFVnfM7Qt
Thh744pVGrNr6qGULMv9UQerPrX1jy4w2459mDlrDSdYNXieqj7sjGucGr6P2kwr
uoAS6oswgWqRSTS/bE/r0V5H9uKtz3Pin024uLfhQkBSARXdQUwDAW54FNammrM3
wCBZIIbT0CkohcIzv4321107940joeFBVDdDKS2ETAlC4H9nl+mmGn5nw1Ef1lw0
m/x+l8+p6drr+lMe1reujCgBKRwfX39MCcA9IenGB4haRPhfmLIgvXVvxHsjQ/cR
N2KSSSDzYKdWZsw9O3T3vUJiQdu4F7jloknrGmZWqdW3EZmH43a08cAmV+7o74/k
TP04wf5mbrQ/qQ==
-----END CERTIFICATE-----

