Certificate:
    Data:
        Version: 3 (0x2)
        Serial Number: 1 (0x1)
    Signature Algorithm: sha1WithRSAEncryption
        Issuer: CN=Ninite Payload
        Validity
            Not Before: Jul 17 17:44:45 2014 GMT
            Not After : Jul 18 17:44:45 2014 GMT
        Subject: CN=Ninite Payload
        Subject Public Key Info:
            Public Key Algorithm: rsaEncryption
                Public-Key: (384 bit)
                Modulus:
                    00:92:82:c7:ca:17:d0:58:d3:ba:d5:0e:12:52:55:
                    07:c4:b9:79:bc:b9:e8:94:bd:07:fa:cf:74:1f:19:
                    66:58:7a:d8:ef:04:c1:f9:2e:82:52:d7:67:98:d7:
                    9b:01:aa:b9
                Exponent: 65537 (0x10001)
        X509v3 extensions:
            Netscape Comment: 
                >>key_begin|d9aeaedbf9950ae0f25cd45f2a04b7bdc54406fd|key_end<<XXXXXXXXXXXXXXXXXXXXXXXXXXXXXXXXXXXXXXXXXXXXXXXXXXXXXXXXXXXXXXXXXXXXXXXXXXXXXXXXXXXXXXXXXXXXXXXXXXXXXXXXXXXXXXXXXXXXXXXXXXXXXXXXXXXXXXXXXXXXXXXXXXXXXXXXXXXXXXXXXXXXXXXXXXXXXXXXXXXXXXXXXXXXXXXXXX
    Signature Algorithm: sha1WithRSAEncryption
         35:f4:06:86:7e:8c:07:26:14:e1:4c:ad:00:a7:5d:a4:a3:6b:
         12:8b:8f:f3:e0:78:af:3a:7f:e9:35:3d:df:cf:59:2d:8d:18:
         a2:1d:cb:99:a6:8b:18:a7:ef:53:68:5d
-----BEGIN CERTIFICATE-----
MIICIDCCAdqgAwIBAgIBATANBgkqhkiG9w0BAQUFADAZMRcwFQYDVQQDEw5OaW5p
dGUgUGF5bG9hZDAeFw0xNDA3MTcxNzQ0NDVaFw0xNDA3MTgxNzQ0NDVaMBkxFzAV
BgNVBAMTDk5pbml0ZSBQYXlsb2FkMEwwDQYJKoZIhvcNAQEBBQADOwAwOAIxAJKC
x8oX0FjTutUOElJVB8S5eby56JS9B/rPdB8ZZlh62O8EwfkuglLXZ5jXmwGquQID
AQABo4IBGzCCARcwggETBglghkgBhvhCAQ0EggEEFoIBAD4+a2V5X2JlZ2lufGQ5
YWVhZWRiZjk5NTBhZTBmMjVjZDQ1ZjJhMDRiN2JkYzU0NDA2ZmR8a2V5X2VuZDw8
WFhYWFhYWFhYWFhYWFhYWFhYWFhYWFhYWFhYWFhYWFhYWFhYWFhYWFhYWFhYWFhY
WFhYWFhYWFhYWFhYWFhYWFhYWFhYWFhYWFhYWFhYWFhYWFhYWFhYWFhYWFhYWFhY
WFhYWFhYWFhYWFhYWFhYWFhYWFhYWFhYWFhYWFhYWFhYWFhYWFhYWFhYWFhYWFhY
WFhYWFhYWFhYWFhYWFhYWFhYWFhYWFhYWFhYWFhYWFhYWFhYWFhYWFhYWFhYWFhY
WFgwDQYJKoZIhvcNAQEFBQADMQA19AaGfowHJhThTK0Ap12ko2sSi4/z4HivOn/p
NT3fz1ktjRiiHcuZposYp+9TaF0=
-----END CERTIFICATE-----

Certificate:
    Data:
        Version: 3 (0x2)
        Serial Number:
            7e:93:eb:fb:7c:c6:4e:59:ea:4b:9a:77:d4:06:fc:3b
    Signature Algorithm: sha1WithRSAEncryption
        Issuer: C=ZA, ST=Western Cape, L=Durbanville, O=Thawte, OU=Thawte Certification, CN=Thawte Timestamping CA
        Validity
            Not Before: Dec 21 00:00:00 2012 GMT
            Not After : Dec 30 23:59:59 2020 GMT
        Subject: C=US, O=Symantec Corporation, CN=Symantec Time Stamping Services CA - G2
        Subject Public Key Info:
            Public Key Algorithm: rsaEncryption
                Public-Key: (2048 bit)
                Modulus:
                    00:b1:ac:b3:49:54:4b:97:1c:12:0a:d8:25:79:91:
                    22:57:2a:6f:dc:b8:26:c4:43:73:6b:c2:bf:2e:50:
                    5a:fb:14:c2:76:8e:43:01:25:43:b4:a1:e2:45:f4:
                    e8:b7:7b:c3:74:cc:22:d7:b4:94:00:02:f7:4d:ed:
                    bf:b4:b7:44:24:6b:cd:5f:45:3b:d1:44:ce:43:12:
                    73:17:82:8b:69:b4:2b:cb:99:1e:ac:72:1b:26:4d:
                    71:1f:b1:31:dd:fb:51:61:02:53:a6:aa:f5:49:2c:
                    05:78:45:a5:2f:89:ce:e7:99:e7:fe:8c:e2:57:3f:
                    3d:c6:92:dc:4a:f8:7b:33:e4:79:0a:fb:f0:75:88:
                    41:9c:ff:c5:03:51:99:aa:d7:6c:9f:93:69:87:65:
                    29:83:85:c2:60:14:c4:c8:c9:3b:14:da:c0:81:f0:
                    1f:0d:74:de:92:22:ab:ca:f7:fb:74:7c:27:e6:f7:
                    4a:1b:7f:a7:c3:9e:2d:ae:8a:ea:a6:e6:aa:27:16:
                    7d:61:f7:98:71:11:bc:e2:50:a1:4b:e5:5d:fa:e5:
                    0e:a7:2c:9f:aa:65:20:d3:d8:96:e8:c8:7c:a5:4e:
                    48:44:ff:19:e2:44:07:92:0b:d7:68:84:80:5d:6a:
                    78:64:45:cd:60:46:7e:54:c1:13:7c:c5:79:f1:c9:
                    c1:71
                Exponent: 65537 (0x10001)
        X509v3 extensions:
            X509v3 Subject Key Identifier: 
                5F:9A:F5:6E:5C:CC:CC:74:9A:D4:DD:7D:EF:3F:DB:EC:4C:80:2E:DD
            Authority Information Access: 
                OCSP - URI:http://ocsp.thawte.com

            X509v3 Basic Constraints: critical
                CA:TRUE, pathlen:0
            X509v3 CRL Distribution Points: 

                Full Name:
                  URI:http://crl.thawte.com/ThawteTimestampingCA.crl

            X509v3 Extended Key Usage: 
                Time Stamping
            X509v3 Key Usage: critical
                Certificate Sign, CRL Sign
            X509v3 Subject Alternative Name: 
                DirName:/CN=TimeStamp-2048-1
    Signature Algorithm: sha1WithRSAEncryption
         03:09:9b:8f:79:ef:7f:59:30:aa:ef:68:b5:fa:e3:09:1d:bb:
         4f:82:06:5d:37:5f:a6:52:9f:16:8d:ea:1c:92:09:44:6e:f5:
         6d:eb:58:7c:30:e8:f9:69:8d:23:73:0b:12:6f:47:a9:ae:39:
         11:f8:2a:b1:9b:b0:1a:c3:8e:eb:59:96:00:ad:ce:0c:4d:b2:
         d0:31:a6:08:5c:2a:7a:fc:e2:7a:1d:57:4c:a8:65:18:e9:79:
         40:62:25:96:6e:c7:c7:37:6a:83:21:08:8e:41:ea:dd:d9:57:
         3f:1d:77:49:87:2a:16:06:5e:a6:38:6a:22:12:a3:51:19:83:
         7e:b6
-----BEGIN CERTIFICATE-----
MIID7jCCA1egAwIBAgIQfpPr+3zGTlnqS5p31Ab8OzANBgkqhkiG9w0BAQUFADCB
izELMAkGA1UEBhMCWkExFTATBgNVBAgTDFdlc3Rlcm4gQ2FwZTEUMBIGA1UEBxML
RHVyYmFudmlsbGUxDzANBgNVBAoTBlRoYXd0ZTEdMBsGA1UECxMUVGhhd3RlIENl
cnRpZmljYXRpb24xHzAdBgNVBAMTFlRoYXd0ZSBUaW1lc3RhbXBpbmcgQ0EwHhcN
MTIxMjIxMDAwMDAwWhcNMjAxMjMwMjM1OTU5WjBeMQswCQYDVQQGEwJVUzEdMBsG
A1UEChMUU3ltYW50ZWMgQ29ycG9yYXRpb24xMDAuBgNVBAMTJ1N5bWFudGVjIFRp
bWUgU3RhbXBpbmcgU2VydmljZXMgQ0EgLSBHMjCCASIwDQYJKoZIhvcNAQEBBQAD
ggEPADCCAQoCggEBALGss0lUS5ccEgrYJXmRIlcqb9y4JsRDc2vCvy5QWvsUwnaO
QwElQ7Sh4kX06Ld7w3TMIte0lAAC903tv7S3RCRrzV9FO9FEzkMScxeCi2m0K8uZ
HqxyGyZNcR+xMd37UWECU6aq9UksBXhFpS+JzueZ5/6M4lc/PcaS3Er4ezPkeQr7
8HWIQZz/xQNRmarXbJ+TaYdlKYOFwmAUxMjJOxTawIHwHw103pIiq8r3+3R8J+b3
Sht/p8OeLa6K6qbmqicWfWH3mHERvOJQoUvlXfrlDqcsn6plINPYlujIfKVOSET/
GeJEB5IL12iEgF1qeGRFzWBGflTBE3zFefHJwXECAwEAAaOB+jCB9zAdBgNVHQ4E
FgQUX5r1blzMzHSa1N197z/b7EyALt0wMgYIKwYBBQUHAQEEJjAkMCIGCCsGAQUF
BzABhhZodHRwOi8vb2NzcC50aGF3dGUuY29tMBIGA1UdEwEB/wQIMAYBAf8CAQAw
PwYDVR0fBDgwNjA0oDKgMIYuaHR0cDovL2NybC50aGF3dGUuY29tL1RoYXd0ZVRp
bWVzdGFtcGluZ0NBLmNybDATBgNVHSUEDDAKBggrBgEFBQcDCDAOBgNVHQ8BAf8E
BAMCAQYwKAYDVR0RBCEwH6QdMBsxGTAXBgNVBAMTEFRpbWVTdGFtcC0yMDQ4LTEw
DQYJKoZIhvcNAQEFBQADgYEAAwmbj3nvf1kwqu9otfrjCR27T4IGXTdfplKfFo3q
HJIJRG71betYfDDo+WmNI3MLEm9Hqa45EfgqsZuwGsOO61mWAK3ODE2y0DGmCFwq
evzieh1XTKhlGOl5QGIllm7HxzdqgyEIjkHq3dlXPx13SYcqFgZepjhqIhKjURmD
frY=
-----END CERTIFICATE-----

Certificate:
    Data:
        Version: 3 (0x2)
        Serial Number:
            47:c3:0f:fe:fc:22:bb:28:0f:96:fe:a7:52:51
    Signature Algorithm: sha1WithRSAEncryption
        Issuer: C=BE, O=GlobalSign nv-sa, OU=Root CA, CN=GlobalSign Root CA
        Validity
            Not Before: Mar 16 00:00:00 2016 GMT
            Not After : Mar 16 00:00:00 2024 GMT
        Subject: C=BE, O=GlobalSign nv-sa, CN=GlobalSign CodeSigning CA - G3
        Subject Public Key Info:
            Public Key Algorithm: rsaEncryption
                Public-Key: (2048 bit)
                Modulus:
                    00:c6:a0:35:88:53:57:8b:f0:ec:ac:86:40:64:9b:
                    7e:4e:a7:4d:2a:4b:cf:30:4e:53:0b:80:87:f3:fc:
                    0d:1d:cd:5e:e2:aa:11:b8:cb:cc:19:8e:99:e2:13:
                    4b:be:76:5d:9f:91:47:57:5c:4d:aa:07:2d:45:55:
                    ee:a6:37:f4:b0:50:aa:36:36:25:3a:29:60:77:3e:
                    b1:71:f3:a4:44:e8:31:4a:a0:71:76:11:26:10:c5:
                    ab:87:ec:b0:59:09:8d:bc:32:ff:47:b3:77:02:52:
                    31:fe:bc:f8:67:5b:f1:7e:28:bc:82:c7:e9:fa:94:
                    de:68:ab:45:1c:a2:8b:b5:01:c6:ed:cb:85:d5:35:
                    b5:b7:18:13:ae:47:5f:6e:52:02:47:72:4a:6a:e7:
                    36:cf:5a:e2:44:ed:f1:d0:b6:08:3b:f7:49:ec:ff:
                    b7:39:3d:b9:92:ec:71:8f:39:c7:ed:88:53:48:85:
                    58:4b:3e:12:b9:00:48:41:56:bc:a3:52:3a:64:2c:
                    ae:3a:0c:29:a4:30:f7:c6:64:50:bd:fc:57:d0:1d:
                    05:0c:7b:cc:bc:43:6e:65:24:50:72:3f:b5:f3:e7:
                    e6:55:e1:49:78:b7:43:43:4a:a7:d8:1c:8e:c0:d2:
                    9b:dd:d3:d7:cc:b4:51:86:5f:31:c9:2c:34:66:38:
                    72:5b
                Exponent: 65537 (0x10001)
        X509v3 extensions:
            X509v3 Key Usage: critical
                Certificate Sign, CRL Sign
            X509v3 Extended Key Usage: 
                Code Signing, OCSP Signing
            X509v3 Basic Constraints: critical
                CA:TRUE, pathlen:0
            X509v3 Subject Key Identifier: 
                B3:D3:E6:D5:71:56:7D:39:58:B3:78:D2:2B:B8:F7:A1:1F:FD:4B:9B
            X509v3 Authority Key Identifier: 
                keyid:60:7B:66:1A:45:0D:97:CA:89:50:2F:7D:04:CD:34:A8:FF:FC:FD:4B

            Authority Information Access: 
                OCSP - URI:http://ocsp.globalsign.com/rootr1

            X509v3 CRL Distribution Points: 

                Full Name:
                  URI:http://crl.globalsign.com/root.crl

            X509v3 Certificate Policies: 
                Policy: 1.3.6.1.4.1.4146.1.50
                Policy: 1.3.6.1.4.1.4146.1.95
                  CPS: https://www.globalsign.com/repository/

    Signature Algorithm: sha1WithRSAEncryption
         3b:41:bb:c8:4f:56:11:82:b7:19:e3:d9:6d:c1:85:ae:9e:69:
         0e:c8:43:26:23:4b:8d:44:c8:e8:7d:5f:07:0e:53:41:d5:63:
         44:4a:89:0b:b8:74:ac:7d:b5:78:79:2f:84:26:e2:d7:f7:ba:
         d1:ae:2d:fd:69:cf:fa:7c:64:dc:24:16:2a:4a:da:c0:97:a9:
         bb:d5:dd:88:e7:a1:92:9a:0a:a5:f6:f7:ba:ce:85:d6:e4:e3:
         d4:55:de:ed:dc:3e:21:1f:1b:c8:77:88:cf:fc:65:fb:05:b4:
         8f:12:a6:30:d3:0d:66:98:2f:6c:2e:6f:85:18:7c:8f:f5:f6:
         fb:b1:ab:10:e1:83:27:08:85:b0:73:21:ba:5d:2c:ba:83:30:
         b7:39:84:dd:5d:b6:7f:d2:8b:b4:55:53:4c:42:a2:bc:4a:6c:
         78:39:5b:63:1c:a3:78:27:bf:be:34:83:6b:6d:7b:1e:60:fb:
         c2:9b:0d:88:ac:8c:72:54:6b:dc:3b:88:ba:81:52:5e:68:97:
         83:b8:ce:7f:a3:cd:f9:ea:2f:26:76:fa:cd:0b:06:ac:43:44:
         49:7b:f6:4c:94:42:b2:ab:cf:d5:42:d5:19:42:69:6e:61:86:
         64:c7:b3:7d:07:8b:db:e5:76:7b:6e:5f:65:a9:16:90:a2:ce:
         e4:ae:64:92
-----BEGIN CERTIFICATE-----
MIIEiDCCA3CgAwIBAgIOR8MP/vwiuygPlv6nUlEwDQYJKoZIhvcNAQEFBQAwVzEL
MAkGA1UEBhMCQkUxGTAXBgNVBAoTEEdsb2JhbFNpZ24gbnYtc2ExEDAOBgNVBAsT
B1Jvb3QgQ0ExGzAZBgNVBAMTEkdsb2JhbFNpZ24gUm9vdCBDQTAeFw0xNjAzMTYw
MDAwMDBaFw0yNDAzMTYwMDAwMDBaMFExCzAJBgNVBAYTAkJFMRkwFwYDVQQKExBH
bG9iYWxTaWduIG52LXNhMScwJQYDVQQDEx5HbG9iYWxTaWduIENvZGVTaWduaW5n
IENBIC0gRzMwggEiMA0GCSqGSIb3DQEBAQUAA4IBDwAwggEKAoIBAQDGoDWIU1eL
8OyshkBkm35Op00qS88wTlMLgIfz/A0dzV7iqhG4y8wZjpniE0u+dl2fkUdXXE2q
By1FVe6mN/SwUKo2NiU6KWB3PrFx86RE6DFKoHF2ESYQxauH7LBZCY28Mv9Hs3cC
UjH+vPhnW/F+KLyCx+n6lN5oq0Ucoou1Acbty4XVNbW3GBOuR19uUgJHckpq5zbP
WuJE7fHQtgg790ns/7c5PbmS7HGPOcftiFNIhVhLPhK5AEhBVryjUjpkLK46DCmk
MPfGZFC9/FfQHQUMe8y8Q25lJFByP7Xz5+ZV4Ul4t0NDSqfYHI7A0pvd09fMtFGG
XzHJLDRmOHJbAgMBAAGjggFWMIIBUjAOBgNVHQ8BAf8EBAMCAQYwHQYDVR0lBBYw
FAYIKwYBBQUHAwMGCCsGAQUFBwMJMBIGA1UdEwEB/wQIMAYBAf8CAQAwHQYDVR0O
BBYEFLPT5tVxVn05WLN40iu496Ef/UubMB8GA1UdIwQYMBaAFGB7ZhpFDZfKiVAv
fQTNNKj//P1LMD0GCCsGAQUFBwEBBDEwLzAtBggrBgEFBQcwAYYhaHR0cDovL29j
c3AuZ2xvYmFsc2lnbi5jb20vcm9vdHIxMDMGA1UdHwQsMCowKKAmoCSGImh0dHA6
Ly9jcmwuZ2xvYmFsc2lnbi5jb20vcm9vdC5jcmwwWQYDVR0gBFIwUDALBgkrBgEE
AaAyATIwQQYJKwYBBAGgMgFfMDQwMgYIKwYBBQUHAgEWJmh0dHBzOi8vd3d3Lmds
b2JhbHNpZ24uY29tL3JlcG9zaXRvcnkvMA0GCSqGSIb3DQEBBQUAA4IBAQA7QbvI
T1YRgrcZ49ltwYWunmkOyEMmI0uNRMjofV8HDlNB1WNESokLuHSsfbV4eS+EJuLX
97rRri39ac/6fGTcJBYqStrAl6m71d2I56GSmgql9ve6zoXW5OPUVd7t3D4hHxvI
d4jP/GX7BbSPEqYw0w1mmC9sLm+FGHyP9fb7sasQ4YMnCIWwcyG6XSy6gzC3OYTd
XbZ/0ou0VVNMQqK8Smx4OVtjHKN4J7++NINrbXseYPvCmw2IrIxyVGvcO4i6gVJe
aJeDuM5/o8356i8mdvrNCwasQ0RJe/ZMlEKyq8/VQtUZQmluYYZkx7N9B4vb5XZ7
bl9lqRaQos7krmSS
-----END CERTIFICATE-----

Certificate:
    Data:
        Version: 3 (0x2)
        Serial Number:
            0e:cf:f4:38:c8:fe:bf:35:6e:04:d8:6a:98:1b:1a:50
    Signature Algorithm: sha1WithRSAEncryption
        Issuer: C=US, O=Symantec Corporation, CN=Symantec Time Stamping Services CA - G2
        Validity
            Not Before: Oct 18 00:00:00 2012 GMT
            Not After : Dec 29 23:59:59 2020 GMT
        Subject: C=US, O=Symantec Corporation, CN=Symantec Time Stamping Services Signer - G4
        Subject Public Key Info:
            Public Key Algorithm: rsaEncryption
                Public-Key: (2048 bit)
                Modulus:
                    00:a2:63:0b:39:44:b8:bb:23:a7:44:49:bb:0e:ff:
                    a1:f0:61:0a:53:93:b0:98:db:ad:2c:0f:4a:c5:6e:
                    ff:86:3c:53:55:0f:15:ce:04:3f:2b:fd:a9:96:96:
                    d9:be:61:79:0b:5b:c9:4c:86:76:e5:e0:43:4b:22:
                    95:ee:c2:2b:43:c1:9f:d8:68:b4:8e:40:4f:ee:85:
                    38:b9:11:c5:23:f2:64:58:f0:15:32:6f:4e:57:a1:
                    ae:88:a4:02:d7:2a:1e:cd:4b:e1:dd:63:d5:17:89:
                    32:5b:b0:5e:99:5a:a8:9d:28:50:0e:17:ee:96:db:
                    61:3b:45:51:1d:cf:12:56:0b:92:47:fc:ab:ae:f6:
                    66:3d:47:ac:70:72:e7:92:e7:5f:cd:10:b9:c4:83:
                    64:94:19:bd:25:80:e1:e8:d2:22:a5:d0:ba:02:7a:
                    a1:77:93:5b:65:c3:ee:17:74:bc:41:86:2a:dc:08:
                    4c:8c:92:8c:91:2d:9e:77:44:1f:68:d6:a8:74:77:
                    db:0e:5b:32:8b:56:8b:33:bd:d9:63:c8:49:9d:3a:
                    c5:c5:ea:33:0b:d2:f1:a3:1b:f4:8b:be:d9:b3:57:
                    8b:3b:de:04:a7:7a:22:b2:24:ae:2e:c7:70:c5:be:
                    4e:83:26:08:fb:0b:bd:a9:4f:99:08:e1:10:28:72:
                    aa:cd
                Exponent: 65537 (0x10001)
        X509v3 extensions:
            X509v3 Basic Constraints: critical
                CA:FALSE
            X509v3 Extended Key Usage: critical
                Time Stamping
            X509v3 Key Usage: critical
                Digital Signature
            Authority Information Access: 
                OCSP - URI:http://ts-ocsp.ws.symantec.com
                CA Issuers - URI:http://ts-aia.ws.symantec.com/tss-ca-g2.cer

            X509v3 CRL Distribution Points: 

                Full Name:
                  URI:http://ts-crl.ws.symantec.com/tss-ca-g2.crl

            X509v3 Subject Alternative Name: 
                DirName:/CN=TimeStamp-2048-2
            X509v3 Subject Key Identifier: 
                46:C6:69:A3:0E:4A:14:1E:D5:4C:DA:52:63:17:3F:5E:36:BC:0D:E6
            X509v3 Authority Key Identifier: 
                keyid:5F:9A:F5:6E:5C:CC:CC:74:9A:D4:DD:7D:EF:3F:DB:EC:4C:80:2E:DD

    Signature Algorithm: sha1WithRSAEncryption
         78:3b:b4:91:2a:00:4c:f0:8f:62:30:37:78:a3:84:27:07:6f:
         18:b2:de:25:dc:a0:d4:94:03:aa:86:4e:25:9f:9a:40:03:1c:
         dd:ce:e3:79:cb:21:68:06:da:b6:32:b4:6d:bf:f4:2c:26:63:
         33:e4:49:64:6d:0d:e6:c3:67:0e:f7:05:a4:35:6c:7c:89:16:
         c6:e9:b2:df:b2:e9:dd:20:c6:71:0f:cd:95:74:dc:b6:5c:de:
         bd:37:1f:43:78:e6:78:b5:cd:28:04:20:a3:aa:f1:4b:c4:88:
         29:91:0e:80:d1:11:fc:dd:5c:76:6e:4f:5e:0e:45:46:41:6e:
         0d:b0:ea:38:9a:b1:3a:da:09:71:10:fc:1c:79:b4:80:7b:ac:
         69:f4:fd:9c:b6:0c:16:2b:f1:7f:5b:09:3d:9b:5b:e2:16:ca:
         13:81:6d:00:2e:38:0d:a8:29:8f:2c:e1:b2:f4:5a:a9:01:af:
         15:9c:2c:2f:49:1b:db:22:bb:c3:fe:78:94:51:c3:86:b1:82:
         88:5d:f0:3d:b4:51:a1:79:33:2b:2e:7b:b9:dc:20:09:13:71:
         eb:6a:19:5b:cf:e8:a5:30:57:2c:89:49:3f:b9:cf:7f:c9:bf:
         3e:22:68:63:53:9a:bd:69:74:ac:c5:1d:3c:7f:92:e0:c3:bc:
         1c:d8:04:75
-----BEGIN CERTIFICATE-----
MIIEozCCA4ugAwIBAgIQDs/0OMj+vzVuBNhqmBsaUDANBgkqhkiG9w0BAQUFADBe
MQswCQYDVQQGEwJVUzEdMBsGA1UEChMUU3ltYW50ZWMgQ29ycG9yYXRpb24xMDAu
BgNVBAMTJ1N5bWFudGVjIFRpbWUgU3RhbXBpbmcgU2VydmljZXMgQ0EgLSBHMjAe
Fw0xMjEwMTgwMDAwMDBaFw0yMDEyMjkyMzU5NTlaMGIxCzAJBgNVBAYTAlVTMR0w
GwYDVQQKExRTeW1hbnRlYyBDb3Jwb3JhdGlvbjE0MDIGA1UEAxMrU3ltYW50ZWMg
VGltZSBTdGFtcGluZyBTZXJ2aWNlcyBTaWduZXIgLSBHNDCCASIwDQYJKoZIhvcN
AQEBBQADggEPADCCAQoCggEBAKJjCzlEuLsjp0RJuw7/ofBhClOTsJjbrSwPSsVu
/4Y8U1UPFc4EPyv9qZaW2b5heQtbyUyGduXgQ0sile7CK0PBn9hotI5AT+6FOLkR
xSPyZFjwFTJvTlehroikAtcqHs1L4d1j1ReJMluwXplaqJ0oUA4X7pbbYTtFUR3P
ElYLkkf8q672Zj1HrHBy55LnX80QucSDZJQZvSWA4ejSIqXQugJ6oXeTW2XD7hd0
vEGGKtwITIySjJEtnndEH2jWqHR32w5bMotWizO92WPISZ06xcXqMwvS8aMb9Iu+
2bNXizveBKd6IrIkri7HcMW+ToMmCPsLvalPmQjhEChyqs0CAwEAAaOCAVcwggFT
MAwGA1UdEwEB/wQCMAAwFgYDVR0lAQH/BAwwCgYIKwYBBQUHAwgwDgYDVR0PAQH/
BAQDAgeAMHMGCCsGAQUFBwEBBGcwZTAqBggrBgEFBQcwAYYeaHR0cDovL3RzLW9j
c3Aud3Muc3ltYW50ZWMuY29tMDcGCCsGAQUFBzAChitodHRwOi8vdHMtYWlhLndz
LnN5bWFudGVjLmNvbS90c3MtY2EtZzIuY2VyMDwGA1UdHwQ1MDMwMaAvoC2GK2h0
dHA6Ly90cy1jcmwud3Muc3ltYW50ZWMuY29tL3Rzcy1jYS1nMi5jcmwwKAYDVR0R
BCEwH6QdMBsxGTAXBgNVBAMTEFRpbWVTdGFtcC0yMDQ4LTIwHQYDVR0OBBYEFEbG
aaMOShQe1UzaUmMXP142vA3mMB8GA1UdIwQYMBaAFF+a9W5czMx0mtTdfe8/2+xM
gC7dMA0GCSqGSIb3DQEBBQUAA4IBAQB4O7SRKgBM8I9iMDd4o4QnB28Yst4l3KDU
lAOqhk4ln5pAAxzdzuN5yyFoBtq2MrRtv/QsJmMz5ElkbQ3mw2cO9wWkNWx8iRbG
6bLfsundIMZxD82VdNy2XN69Nx9DeOZ4tc0oBCCjqvFLxIgpkQ6A0RH83Vx2bk9e
DkVGQW4NsOo4mrE62glxEPwcebSAe6xp9P2ctgwWK/F/Wwk9m1viFsoTgW0ALjgN
qCmPLOGy9FqpAa8VnCwvSRvbIrvD/niUUcOGsYKIXfA9tFGheTMrLnu53CAJE3Hr
ahlbz+ilMFcsiUk/uc9/yb8+ImhjU5q9aXSsxR08f5Lgw7wc2AR1
-----END CERTIFICATE-----

Certificate:
    Data:
        Version: 3 (0x2)
        Serial Number:
            21:dc:b4:05:b2:1d:03:a3:26:5a:94:a3
    Signature Algorithm: sha1WithRSAEncryption
        Issuer: C=BE, O=GlobalSign nv-sa, CN=GlobalSign CodeSigning CA - G3
        Validity
            Not Before: Oct 13 17:09:11 2016 GMT
            Not After : Nov 30 20:25:45 2019 GMT
        Subject: C=US, ST=CA, L=San Francisco, O=Secure By Design Inc., CN=Secure By Design Inc./emailAddress=contact@ninite.com
        Subject Public Key Info:
            Public Key Algorithm: rsaEncryption
                Public-Key: (2048 bit)
                Modulus:
                    00:b3:65:e1:04:c8:4b:8f:e5:da:24:52:9f:13:67:
                    d1:d4:da:55:f9:dd:6b:49:44:cc:8e:ea:5c:68:04:
                    6d:dd:d6:46:13:a8:1c:c5:a1:7c:6a:4e:e1:55:e6:
                    f9:63:e4:fa:6e:af:84:c4:de:ef:ef:5a:d8:02:ae:
                    3e:33:c3:b9:9c:b6:33:85:f5:e1:f3:e0:e1:ff:e8:
                    4a:bf:ab:fa:dc:9a:6f:6c:87:41:bd:0d:55:28:2b:
                    50:27:66:e0:20:b0:17:b7:87:20:e2:37:4f:f1:0c:
                    34:97:1b:8e:f8:42:f8:4b:18:fd:98:18:23:e8:32:
                    00:69:5a:ac:d5:5b:50:a6:4e:fb:aa:35:1d:6c:b7:
                    11:ee:99:1a:43:ce:c1:2c:11:05:fe:46:74:19:a1:
                    3d:79:59:ab:e2:e8:a3:bb:80:a0:b3:f9:b2:d2:10:
                    3c:8b:dd:4b:b4:2b:bd:41:12:17:ba:8b:42:7a:2a:
                    96:3a:54:4c:ae:92:33:a4:30:75:ac:ce:c5:20:5a:
                    e2:a7:47:72:91:f7:6a:39:d7:fa:53:dd:35:e6:3f:
                    40:77:d6:1d:8e:9f:69:b8:88:f1:84:b4:97:1b:2b:
                    2a:5c:e4:2d:b0:5f:0d:1b:67:ab:4e:1b:58:0c:a2:
                    cc:9a:a1:b4:a7:d0:69:b2:bc:15:6d:8f:40:41:91:
                    41:89
                Exponent: 65537 (0x10001)
        X509v3 extensions:
            X509v3 Key Usage: critical
                Digital Signature
            Authority Information Access: 
                CA Issuers - URI:http://secure.globalsign.com/cacert/gscodesigng3ocsp.crt
                OCSP - URI:http://ocsp2.globalsign.com/gscodesigng3

            X509v3 Certificate Policies: 
                Policy: 1.3.6.1.4.1.4146.1.50
                  CPS: https://www.globalsign.com/repository/
                Policy: 2.23.140.1.4.1

            X509v3 Basic Constraints: 
                CA:FALSE
            X509v3 CRL Distribution Points: 

                Full Name:
                  URI:http://crl.globalsign.com/gs/gscodesigng3.crl

            X509v3 Extended Key Usage: 
                Code Signing
            X509v3 Subject Key Identifier: 
                1F:37:72:8A:D3:E9:02:12:57:80:3B:B3:CB:EB:02:C6:F8:58:28:87
            X509v3 Authority Key Identifier: 
                keyid:B3:D3:E6:D5:71:56:7D:39:58:B3:78:D2:2B:B8:F7:A1:1F:FD:4B:9B

    Signature Algorithm: sha1WithRSAEncryption
         9b:e7:36:34:d9:d6:1e:91:f9:3d:43:67:73:c8:70:8c:57:56:
         63:53:3b:21:07:a6:49:16:86:3a:7c:e3:e2:f8:52:a8:b9:08:
         bc:4a:ec:78:24:39:8c:30:24:b4:86:9c:29:b8:55:89:b9:a6:
         e1:6b:d5:b7:e6:13:b6:0b:14:f4:3a:9b:e7:01:4a:9a:9d:8b:
         0d:84:03:cc:ef:df:8e:de:e6:66:3b:e2:6a:f3:19:dc:eb:4a:
         62:77:76:7c:b2:de:9c:bb:73:6d:1c:6c:89:f3:18:12:a6:dd:
         b2:5a:40:44:94:4d:ab:8c:13:fd:ad:f9:31:a3:97:4f:89:f1:
         67:d2:4b:74:59:4e:f7:af:56:2d:bd:dc:e6:01:df:1b:d7:ac:
         5f:47:3f:0d:14:91:33:9e:d7:3d:6c:ad:75:ce:e4:e4:b5:d4:
         d0:e6:03:83:20:a2:78:2a:65:6d:26:e4:66:c7:87:1d:8e:53:
         64:2d:6a:f1:a0:dd:b2:1a:2f:02:72:10:d2:f8:33:62:ed:7e:
         5c:33:28:34:e0:f3:96:24:2f:43:4b:5b:e2:85:98:12:1f:c8:
         18:79:aa:50:b1:bf:e6:a4:72:f6:68:ac:8f:2f:7d:66:13:ed:
         d8:cd:83:62:21:5c:e0:e1:ed:24:c6:09:7d:44:f3:b5:52:ad:
         cf:ad:2a:fa
-----BEGIN CERTIFICATE-----
MIIFCDCCA/CgAwIBAgIMIdy0BbIdA6MmWpSjMA0GCSqGSIb3DQEBBQUAMFExCzAJ
BgNVBAYTAkJFMRkwFwYDVQQKExBHbG9iYWxTaWduIG52LXNhMScwJQYDVQQDEx5H
bG9iYWxTaWduIENvZGVTaWduaW5nIENBIC0gRzMwHhcNMTYxMDEzMTcwOTExWhcN
MTkxMTMwMjAyNTQ1WjCBlTELMAkGA1UEBhMCVVMxCzAJBgNVBAgTAkNBMRYwFAYD
VQQHEw1TYW4gRnJhbmNpc2NvMR4wHAYDVQQKExVTZWN1cmUgQnkgRGVzaWduIElu
Yy4xHjAcBgNVBAMTFVNlY3VyZSBCeSBEZXNpZ24gSW5jLjEhMB8GCSqGSIb3DQEJ
ARYSY29udGFjdEBuaW5pdGUuY29tMIIBIjANBgkqhkiG9w0BAQEFAAOCAQ8AMIIB
CgKCAQEAs2XhBMhLj+XaJFKfE2fR1NpV+d1rSUTMjupcaARt3dZGE6gcxaF8ak7h
Veb5Y+T6bq+ExN7v71rYAq4+M8O5nLYzhfXh8+Dh/+hKv6v63JpvbIdBvQ1VKCtQ
J2bgILAXt4cg4jdP8Qw0lxuO+EL4Sxj9mBgj6DIAaVqs1VtQpk77qjUdbLcR7pka
Q87BLBEF/kZ0GaE9eVmr4uiju4Cgs/my0hA8i91LtCu9QRIXuotCeiqWOlRMrpIz
pDB1rM7FIFrip0dykfdqOdf6U9015j9Ad9Ydjp9puIjxhLSXGysqXOQtsF8NG2er
ThtYDKLMmqG0p9BpsrwVbY9AQZFBiQIDAQABo4IBmTCCAZUwDgYDVR0PAQH/BAQD
AgeAMIGKBggrBgEFBQcBAQR+MHwwRAYIKwYBBQUHMAKGOGh0dHA6Ly9zZWN1cmUu
Z2xvYmFsc2lnbi5jb20vY2FjZXJ0L2dzY29kZXNpZ25nM29jc3AuY3J0MDQGCCsG
AQUFBzABhihodHRwOi8vb2NzcDIuZ2xvYmFsc2lnbi5jb20vZ3Njb2Rlc2lnbmcz
MFYGA1UdIARPME0wQQYJKwYBBAGgMgEyMDQwMgYIKwYBBQUHAgEWJmh0dHBzOi8v
d3d3Lmdsb2JhbHNpZ24uY29tL3JlcG9zaXRvcnkvMAgGBmeBDAEEATAJBgNVHRME
AjAAMD4GA1UdHwQ3MDUwM6AxoC+GLWh0dHA6Ly9jcmwuZ2xvYmFsc2lnbi5jb20v
Z3MvZ3Njb2Rlc2lnbmczLmNybDATBgNVHSUEDDAKBggrBgEFBQcDAzAdBgNVHQ4E
FgQUHzdyitPpAhJXgDuzy+sCxvhYKIcwHwYDVR0jBBgwFoAUs9Pm1XFWfTlYs3jS
K7j3oR/9S5swDQYJKoZIhvcNAQEFBQADggEBAJvnNjTZ1h6R+T1DZ3PIcIxXVmNT
OyEHpkkWhjp84+L4Uqi5CLxK7HgkOYwwJLSGnCm4VYm5puFr1bfmE7YLFPQ6m+cB
Spqdiw2EA8zv347e5mY74mrzGdzrSmJ3dnyy3py7c20cbInzGBKm3bJaQESUTauM
E/2t+TGjl0+J8WfSS3RZTvevVi293OYB3xvXrF9HPw0UkTOe1z1srXXO5OS11NDm
A4MgongqZW0m5GbHhx2OU2QtavGg3bIaLwJyENL4M2LtflwzKDTg85YkL0NLW+KF
mBIfyBh5qlCxv+akcvZorI8vfWYT7djNg2IhXODh7STGCX1E87VSrc+tKvo=
-----END CERTIFICATE-----

Certificate:
    Data:
        Version: 3 (0x2)
        Serial Number:
            61:0b:7f:6b:00:00:00:00:00:19
    Signature Algorithm: sha1WithRSAEncryption
        Issuer: C=US, ST=Washington, L=Redmond, O=Microsoft Corporation, CN=Microsoft Code Verification Root
        Validity
            Not Before: May 23 17:00:51 2006 GMT
            Not After : May 23 17:10:51 2016 GMT
        Subject: C=BE, O=GlobalSign nv-sa, OU=Root CA, CN=GlobalSign Root CA
        Subject Public Key Info:
            Public Key Algorithm: rsaEncryption
                Public-Key: (2048 bit)
                Modulus:
                    00:da:0e:e6:99:8d:ce:a3:e3:4f:8a:7e:fb:f1:8b:
                    83:25:6b:ea:48:1f:f1:2a:b0:b9:95:11:04:bd:f0:
                    63:d1:e2:67:66:cf:1c:dd:cf:1b:48:2b:ee:8d:89:
                    8e:9a:af:29:80:65:ab:e9:c7:2d:12:cb:ab:1c:4c:
                    70:07:a1:3d:0a:30:cd:15:8d:4f:f8:dd:d4:8c:50:
                    15:1c:ef:50:ee:c4:2e:f7:fc:e9:52:f2:91:7d:e0:
                    6d:d5:35:30:8e:5e:43:73:f2:41:e9:d5:6a:e3:b2:
                    89:3a:56:39:38:6f:06:3c:88:69:5b:2a:4d:c5:a7:
                    54:b8:6c:89:cc:9b:f9:3c:ca:e5:fd:89:f5:12:3c:
                    92:78:96:d6:dc:74:6e:93:44:61:d1:8d:c7:46:b2:
                    75:0e:86:e8:19:8a:d5:6d:6c:d5:78:16:95:a2:e9:
                    c8:0a:38:eb:f2:24:13:4f:73:54:93:13:85:3a:1b:
                    bc:1e:34:b5:8b:05:8c:b9:77:8b:b1:db:1f:20:91:
                    ab:09:53:6e:90:ce:7b:37:74:b9:70:47:91:22:51:
                    63:16:79:ae:b1:ae:41:26:08:c8:19:2b:d1:46:aa:
                    48:d6:64:2a:d7:83:34:ff:2c:2a:c1:6c:19:43:4a:
                    07:85:e7:d3:7c:f6:21:68:ef:ea:f2:52:9f:7f:93:
                    90:cf
                Exponent: 65537 (0x10001)
        X509v3 extensions:
            X509v3 Certificate Policies: 
                Policy: X509v3 Any Policy

            1.3.6.1.4.1.311.21.7: 
                0'..+.....7......N...................n...
            X509v3 Key Usage: 
                Digital Signature, Certificate Sign, CRL Sign
            X509v3 Basic Constraints: critical
                CA:TRUE
            X509v3 Subject Key Identifier: 
                60:7B:66:1A:45:0D:97:CA:89:50:2F:7D:04:CD:34:A8:FF:FC:FD:4B
            1.3.6.1.4.1.311.20.2: 
                ...C.r.o.s.s.C.A
            X509v3 Authority Key Identifier: 
                keyid:62:FB:0A:21:5B:7F:43:6E:11:DA:09:54:50:6B:F5:D2:96:71:F1:9E

            X509v3 CRL Distribution Points: 

                Full Name:
                  URI:http://crl.microsoft.com/pki/crl/products/MicrosoftCodeVerifRoot.crl

    Signature Algorithm: sha1WithRSAEncryption
         13:c5:6c:5e:07:7f:3c:57:ff:9b:31:5f:3f:bd:95:54:25:c6:
         79:f9:2c:31:03:4d:64:69:4b:56:d9:5b:97:6f:7c:f3:f0:d0:
         24:65:75:38:63:98:13:70:16:13:f7:a7:01:f1:c6:23:e0:85:
         86:6c:0b:f0:80:94:5a:75:e8:7c:e4:1e:92:b4:73:bf:c1:b3:
         a7:b0:0b:d3:18:84:cb:cc:09:a3:5c:9c:4f:3e:b0:3a:9c:2d:
         1b:c4:04:ef:97:37:96:6f:e5:ec:ba:ac:6a:b3:d4:e2:3c:df:
         8b:25:e7:ac:bc:62:45:31:dd:a4:0a:72:e4:1b:f8:78:43:01:
         cc:ba:39:14:de:5d:90:ae:d8:5a:cf:5e:ca:46:81:51:33:d5:
         a6:0e:58:67:d3:d8:66:58:88:16:9b:ee:b1:1a:ca:ad:91:13:
         84:21:da:9a:6e:20:ef:da:00:74:28:ba:c9:5f:f3:4d:5d:c3:
         da:25:69:25:54:ea:44:bc:c3:9b:29:33:1c:d6:3c:96:1f:87:
         81:c5:53:d7:2a:27:33:d4:2e:19:7c:08:58:6d:db:4e:19:99:
         a9:ea:5f:f3:9a:9d:8c:51:3a:5a:5c:bd:2f:a9:08:35:9b:54:
         a7:db:35:1a:52:16:33:34:3a:a3:80:04:6a:fd:b4:83:8c:ad:
         90:cf:0c:3a:65:96:ec:33:4e:18:26:b8:49:bb:eb:81:92:ff:
         13:4d:32:4b:23:c7:33:e7:b6:71:6b:15:f6:9c:80:e6:bc:b7:
         6c:be:41:d5:03:3a:71:33:15:00:50:74:3b:0e:5d:f9:96:aa:
         ed:90:3e:ab:13:4c:80:99:26:bc:38:a5:eb:02:36:89:1d:b6:
         20:be:83:ab:10:f8:19:9e:d7:63:79:d4:ae:b1:2f:61:36:f9:
         4a:4b:a8:33:c7:0e:72:41:f9:f1:b1:90:7e:ae:46:ef:de:39:
         7b:75:a0:41:14:59:04:1d:42:bc:47:88:b8:13:0e:05:fa:1d:
         f0:80:8d:ff:70:c6:77:d8:4b:dc:46:0e:23:1a:72:d5:bf:de:
         fe:aa:ae:69:58:3c:fc:5c:46:e4:d5:81:9a:8b:6e:65:59:77:
         1a:32:a5:90:a6:b6:64:93:64:fd:07:53:c9:a0:de:28:ad:2a:
         6c:c6:38:d1:81:ce:98:f5:40:19:e9:2c:17:43:a4:26:5f:d3:
         44:30:53:e4:1d:02:ba:a4:0a:2f:16:dd:7a:60:27:52:42:bb:
         ad:98:37:28:97:e4:b8:d2:79:11:e3:10:8c:48:d5:30:5d:0a:
         0c:52:de:f5:88:ea:8d:1a:2d:67:c9:f4:80:14:84:b7:85:0c:
         d1:66:28:a5:c6:6f:24:61
-----BEGIN CERTIFICATE-----
MIIFfzCCA2egAwIBAgIKYQt/awAAAAAAGTANBgkqhkiG9w0BAQUFADB/MQswCQYD
VQQGEwJVUzETMBEGA1UECBMKV2FzaGluZ3RvbjEQMA4GA1UEBxMHUmVkbW9uZDEe
MBwGA1UEChMVTWljcm9zb2Z0IENvcnBvcmF0aW9uMSkwJwYDVQQDEyBNaWNyb3Nv
ZnQgQ29kZSBWZXJpZmljYXRpb24gUm9vdDAeFw0wNjA1MjMxNzAwNTFaFw0xNjA1
MjMxNzEwNTFaMFcxCzAJBgNVBAYTAkJFMRkwFwYDVQQKExBHbG9iYWxTaWduIG52
LXNhMRAwDgYDVQQLEwdSb290IENBMRswGQYDVQQDExJHbG9iYWxTaWduIFJvb3Qg
Q0EwggEiMA0GCSqGSIb3DQEBAQUAA4IBDwAwggEKAoIBAQDaDuaZjc6j40+Kfvvx
i4Mla+pIH/EqsLmVEQS98GPR4mdmzxzdzxtIK+6NiY6arymAZavpxy0Sy6scTHAH
oT0KMM0VjU/43dSMUBUc71DuxC73/OlS8pF94G3VNTCOXkNz8kHp1Wrjsok6Vjk4
bwY8iGlbKk3Fp1S4bInMm/k8yuX9ifUSPJJ4ltbcdG6TRGHRjcdGsnUOhugZitVt
bNV4FpWi6cgKOOvyJBNPc1STE4U6G7weNLWLBYy5d4ux2x8gkasJU26Qzns3dLlw
R5EiUWMWea6xrkEmCMgZK9FGqkjWZCrXgzT/LCrBbBlDSgeF59N89iFo7+ryUp9/
k5DPAgMBAAGjggEjMIIBHzARBgNVHSAECjAIMAYGBFUdIAAwNgYJKwYBBAGCNxUH
BCkwJwYfKwYBBAGCNxUIjeDRiU6E15zDB4amhvscj9O/phUBGQIBbgIBADALBgNV
HQ8EBAMCAYYwDwYDVR0TAQH/BAUwAwEB/zAdBgNVHQ4EFgQUYHtmGkUNl8qJUC99
BM00qP/8/UswHQYJKwYBBAGCNxQCBBAeDgBDAHIAbwBzAHMAQwBBMB8GA1UdIwQY
MBaAFGL7CiFbf0NuEdoJVFBr9dKWcfGeMFUGA1UdHwROMEwwSqBIoEaGRGh0dHA6
Ly9jcmwubWljcm9zb2Z0LmNvbS9wa2kvY3JsL3Byb2R1Y3RzL01pY3Jvc29mdENv
ZGVWZXJpZlJvb3QuY3JsMA0GCSqGSIb3DQEBBQUAA4ICAQATxWxeB388V/+bMV8/
vZVUJcZ5+SwxA01kaUtW2VuXb3zz8NAkZXU4Y5gTcBYT96cB8cYj4IWGbAvwgJRa
deh85B6StHO/wbOnsAvTGITLzAmjXJxPPrA6nC0bxATvlzeWb+Xsuqxqs9TiPN+L
JeesvGJFMd2kCnLkG/h4QwHMujkU3l2Qrthaz17KRoFRM9WmDlhn09hmWIgWm+6x
GsqtkROEIdqabiDv2gB0KLrJX/NNXcPaJWklVOpEvMObKTMc1jyWH4eBxVPXKicz
1C4ZfAhYbdtOGZmp6l/zmp2MUTpaXL0vqQg1m1Sn2zUaUhYzNDqjgARq/bSDjK2Q
zww6ZZbsM04YJrhJu+uBkv8TTTJLI8cz57ZxaxX2nIDmvLdsvkHVAzpxMxUAUHQ7
Dl35lqrtkD6rE0yAmSa8OKXrAjaJHbYgvoOrEPgZntdjedSusS9hNvlKS6gzxw5y
QfnxsZB+rkbv3jl7daBBFFkEHUK8R4i4Ew4F+h3wgI3/cMZ32EvcRg4jGnLVv97+
qq5pWDz8XEbk1YGai25lWXcaMqWQprZkk2T9B1PJoN4orSpsxjjRgc6Y9UAZ6SwX
Q6QmX9NEMFPkHQK6pAovFt16YCdSQrutmDcol+S40nkR4xCMSNUwXQoMUt71iOqN
Gi1nyfSAFIS3hQzRZiilxm8kYQ==
-----END CERTIFICATE-----

