Certificate:
    Data:
        Version: 3 (0x2)
        Serial Number:
            31:47:54:4f:8e:42:ce:2c:a6:9d:55:3c:2f:33:d4:9f
    Signature Algorithm: sha256WithRSAEncryption
        Issuer: C=US, O=Symantec Corporation, OU=Symantec Trust Network, CN=Symantec Class 3 SHA256 Code Signing CA
        Validity
            Not Before: Mar 23 00:00:00 2015 GMT
            Not After : Mar 22 23:59:59 2016 GMT
        Subject: C=AT, ST=Niederoesterreich, L=Neulengbach, O=No Organization Affiliation, OU=Individual Developer, CN=Nikolaus Gebhardt
        Subject Public Key Info:
            Public Key Algorithm: rsaEncryption
                Public-Key: (2048 bit)
                Modulus:
                    00:a7:68:34:30:25:9b:dd:06:36:52:35:38:8d:41:
                    ca:bb:b5:41:40:e6:ec:84:cf:ce:06:e0:d2:ae:c0:
                    89:c3:fd:19:cf:77:8a:2d:44:c1:e6:a3:fe:1e:bd:
                    73:a8:ab:fa:b6:49:50:90:74:9d:13:23:47:68:72:
                    1d:e1:5f:bb:d3:57:6b:02:f8:aa:12:2e:2e:a9:bb:
                    18:e8:82:a0:d1:8e:3b:72:7d:b6:8d:92:59:06:a6:
                    7a:84:c8:52:df:fa:b5:0f:66:ea:f3:31:d4:35:80:
                    78:a1:6b:97:65:27:a8:81:ae:33:98:e5:89:f1:1e:
                    de:30:a5:88:da:e3:58:b1:d7:df:1b:63:07:51:73:
                    78:1d:7d:77:97:a2:b8:30:c0:7d:10:45:d0:ba:d2:
                    b0:89:3d:d9:b3:a1:44:cc:b5:a7:c7:47:b0:5b:01:
                    f6:5b:cf:d1:4f:dd:19:ce:c4:78:b5:86:d0:c2:42:
                    53:91:0a:db:4e:8a:3a:b8:ce:86:79:6e:05:46:33:
                    27:6c:5c:67:37:f5:2a:48:58:ac:f8:44:3b:96:c2:
                    8d:f7:bb:39:51:e4:23:f6:34:41:6e:c9:1e:64:8b:
                    82:94:80:ae:20:25:76:34:32:c4:a3:33:f4:d9:52:
                    5c:a7:cf:bc:ca:57:0f:6e:c5:b9:17:8f:a1:6a:7f:
                    dc:61
                Exponent: 65537 (0x10001)
        X509v3 extensions:
            X509v3 Basic Constraints: 
                CA:FALSE
            X509v3 Key Usage: critical
                Digital Signature
            X509v3 CRL Distribution Points: 

                Full Name:
                  URI:http://sv.symcb.com/sv.crl

            X509v3 Certificate Policies: 
                Policy: 2.16.840.1.113733.1.7.23.3
                  CPS: https://d.symcb.com/cps
                  User Notice:
                    Explicit Text: https://d.symcb.com/rpa

            X509v3 Extended Key Usage: 
                Code Signing
            X509v3 Subject Key Identifier: 
                71:11:D8:4D:39:A7:85:CA:71:20:54:00:32:29:DB:A8:9B:5E:EE:7B
            Authority Information Access: 
                OCSP - URI:http://sv.symcd.com
                CA Issuers - URI:http://sv.symcb.com/sv.crt

            X509v3 Authority Key Identifier: 
                keyid:96:3B:53:F0:79:33:97:AF:7D:83:EF:2E:2B:CC:CA:B7:86:1E:72:66

            Netscape Cert Type: 
                Object Signing
            1.3.6.1.4.1.311.2.1.27: 
                0.......
    Signature Algorithm: sha256WithRSAEncryption
         4c:ec:3e:6a:dc:60:e1:95:97:05:23:93:2e:26:55:23:c4:0b:
         85:34:17:f0:97:33:7c:f1:5b:9f:cb:50:1d:20:a5:a6:c6:83:
         70:7e:50:64:21:9a:f5:d2:ec:15:76:bc:eb:24:41:9e:a3:ff:
         c1:e9:d7:ed:88:26:e5:38:01:43:e4:68:0c:36:81:9d:6a:04:
         78:3b:fd:e8:a9:aa:27:b8:d5:6e:30:ab:5e:b5:9f:5e:2d:20:
         9a:39:84:b9:28:37:33:d7:21:70:cb:f6:dd:64:e6:0a:6d:24:
         1f:09:17:80:7a:3c:4a:2b:b4:71:26:c6:ba:e8:62:0c:19:b8:
         c1:37:61:59:19:aa:d6:28:cf:99:1d:c4:7c:3a:9a:4a:5a:99:
         93:23:be:c1:0e:c5:b3:f0:13:e5:13:94:08:24:2d:81:ac:16:
         cd:0f:e6:d7:5a:92:80:c6:6c:c6:a8:1d:0e:22:81:5e:f9:5e:
         fc:f1:9e:e9:1b:9e:d4:09:bf:23:c5:b9:00:cf:4e:ff:d7:b0:
         37:9f:5e:5f:a8:64:c8:93:d7:b5:70:9c:e6:1c:76:6f:73:45:
         02:25:e1:ca:c7:20:10:ac:b4:0d:ba:ef:b8:92:c7:25:67:98:
         cc:31:21:13:29:b5:13:6a:39:ae:67:a5:96:61:3c:2f:17:bd:
         43:20:55:fb
-----BEGIN CERTIFICATE-----
MIIFOTCCBCGgAwIBAgIQMUdUT45CziymnVU8LzPUnzANBgkqhkiG9w0BAQsFADB/
MQswCQYDVQQGEwJVUzEdMBsGA1UEChMUU3ltYW50ZWMgQ29ycG9yYXRpb24xHzAd
BgNVBAsTFlN5bWFudGVjIFRydXN0IE5ldHdvcmsxMDAuBgNVBAMTJ1N5bWFudGVj
IENsYXNzIDMgU0hBMjU2IENvZGUgU2lnbmluZyBDQTAeFw0xNTAzMjMwMDAwMDBa
Fw0xNjAzMjIyMzU5NTlaMIGgMQswCQYDVQQGEwJBVDEaMBgGA1UECBMRTmllZGVy
b2VzdGVycmVpY2gxFDASBgNVBAcTC05ldWxlbmdiYWNoMSQwIgYDVQQKFBtObyBP
cmdhbml6YXRpb24gQWZmaWxpYXRpb24xHTAbBgNVBAsUFEluZGl2aWR1YWwgRGV2
ZWxvcGVyMRowGAYDVQQDFBFOaWtvbGF1cyBHZWJoYXJkdDCCASIwDQYJKoZIhvcN
AQEBBQADggEPADCCAQoCggEBAKdoNDAlm90GNlI1OI1Byru1QUDm7ITPzgbg0q7A
icP9Gc93ii1Eweaj/h69c6ir+rZJUJB0nRMjR2hyHeFfu9NXawL4qhIuLqm7GOiC
oNGOO3J9to2SWQameoTIUt/6tQ9m6vMx1DWAeKFrl2UnqIGuM5jlifEe3jCliNrj
WLHX3xtjB1FzeB19d5eiuDDAfRBF0LrSsIk92bOhRMy1p8dHsFsB9lvP0U/dGc7E
eLWG0MJCU5EK206KOrjOhnluBUYzJ2xcZzf1KkhYrPhEO5bCjfe7OVHkI/Y0QW7J
HmSLgpSAriAldjQyxKMz9NlSXKfPvMpXD27FuRePoWp/3GECAwEAAaOCAY0wggGJ
MAkGA1UdEwQCMAAwDgYDVR0PAQH/BAQDAgeAMCsGA1UdHwQkMCIwIKAeoByGGmh0
dHA6Ly9zdi5zeW1jYi5jb20vc3YuY3JsMGYGA1UdIARfMF0wWwYLYIZIAYb4RQEH
FwMwTDAjBggrBgEFBQcCARYXaHR0cHM6Ly9kLnN5bWNiLmNvbS9jcHMwJQYIKwYB
BQUHAgIwGQwXaHR0cHM6Ly9kLnN5bWNiLmNvbS9ycGEwEwYDVR0lBAwwCgYIKwYB
BQUHAwMwHQYDVR0OBBYEFHER2E05p4XKcSBUADIp26ibXu57MFcGCCsGAQUFBwEB
BEswSTAfBggrBgEFBQcwAYYTaHR0cDovL3N2LnN5bWNkLmNvbTAmBggrBgEFBQcw
AoYaaHR0cDovL3N2LnN5bWNiLmNvbS9zdi5jcnQwHwYDVR0jBBgwFoAUljtT8Hkz
l699g+8uK8zKt4YecmYwEQYJYIZIAYb4QgEBBAQDAgQQMBYGCisGAQQBgjcCARsE
CDAGAQEAAQH/MA0GCSqGSIb3DQEBCwUAA4IBAQBM7D5q3GDhlZcFI5MuJlUjxAuF
NBfwlzN88Vufy1AdIKWmxoNwflBkIZr10uwVdrzrJEGeo//B6dftiCblOAFD5GgM
NoGdagR4O/3oqaonuNVuMKtetZ9eLSCaOYS5KDcz1yFwy/bdZOYKbSQfCReAejxK
K7RxJsa66GIMGbjBN2FZGarWKM+ZHcR8OppKWpmTI77BDsWz8BPlE5QIJC2BrBbN
D+bXWpKAxmzGqB0OIoFe+V788Z7pG57UCb8jxbkAz07/17A3n15fqGTIk9e1cJzm
HHZvc0UCJeHKxyAQrLQNuu+4ksclZ5jMMSETKbUTajmuZ6WWYTwvF71DIFX7
-----END CERTIFICATE-----

Certificate:
    Data:
        Version: 3 (0x2)
        Serial Number:
            3d:78:d7:f9:76:49:60:b2:61:7d:f4:f0:1e:ca:86:2a
    Signature Algorithm: sha256WithRSAEncryption
        Issuer: C=US, O=VeriSign, Inc., OU=VeriSign Trust Network, OU=(c) 2006 VeriSign, Inc. - For authorized use only, CN=VeriSign Class 3 Public Primary Certification Authority - G5
        Validity
            Not Before: Dec 10 00:00:00 2013 GMT
            Not After : Dec  9 23:59:59 2023 GMT
        Subject: C=US, O=Symantec Corporation, OU=Symantec Trust Network, CN=Symantec Class 3 SHA256 Code Signing CA
        Subject Public Key Info:
            Public Key Algorithm: rsaEncryption
                Public-Key: (2048 bit)
                Modulus:
                    00:97:83:1e:00:16:af:2c:b1:d2:08:c4:d7:68:93:
                    51:60:1e:71:f6:e2:47:b4:db:58:4d:23:62:6a:b4:
                    bf:5a:1b:51:f7:a3:0d:18:77:68:bb:d8:36:ab:2f:
                    21:50:da:9e:f3:e7:5f:27:4e:0b:c2:97:c8:09:70:
                    93:a9:da:5c:0d:4e:a4:0d:91:a0:b4:ec:14:ce:91:
                    72:54:2e:ce:a3:db:44:e9:52:1b:3f:41:3c:ca:4a:
                    e4:aa:c0:e8:39:ab:53:cc:21:d0:cc:cf:7f:9b:e6:
                    c2:cc:58:6a:82:15:ee:3d:36:cf:1c:c5:97:07:24:
                    8e:f1:7b:be:31:2d:3d:6e:dc:b5:99:42:9f:4b:61:
                    95:5f:1c:70:ee:17:7d:db:8b:e5:61:89:78:c7:68:
                    1b:af:11:78:1a:98:ae:c4:55:47:53:d9:b3:32:d6:
                    a1:0e:46:40:c5:97:92:8a:d1:53:a7:99:5b:85:35:
                    57:d3:ea:93:62:61:20:0a:c7:30:77:24:11:4d:62:
                    83:b6:ba:7b:68:82:31:ee:65:ca:df:f9:d5:8d:b2:
                    35:dc:8c:2b:6f:6a:72:5c:60:84:9c:f2:0c:94:5e:
                    c0:56:52:00:48:cc:d3:f8:a5:7d:de:2f:d7:13:e4:
                    38:a8:84:d5:46:b8:13:86:c2:1b:9d:ea:5a:38:dd:
                    9b:db
                Exponent: 65537 (0x10001)
        X509v3 extensions:
            Authority Information Access: 
                OCSP - URI:http://s2.symcb.com

            X509v3 Basic Constraints: critical
                CA:TRUE, pathlen:0
            X509v3 Certificate Policies: 
                Policy: 2.16.840.1.113733.1.7.23.3
                  CPS: http://www.symauth.com/cps
                  User Notice:
                    Explicit Text: http://www.symauth.com/rpa

            X509v3 CRL Distribution Points: 

                Full Name:
                  URI:http://s1.symcb.com/pca3-g5.crl

            X509v3 Extended Key Usage: 
                TLS Web Client Authentication, Code Signing
            X509v3 Key Usage: critical
                Certificate Sign, CRL Sign
            X509v3 Subject Alternative Name: 
                DirName:/CN=SymantecPKI-1-567
            X509v3 Subject Key Identifier: 
                96:3B:53:F0:79:33:97:AF:7D:83:EF:2E:2B:CC:CA:B7:86:1E:72:66
            X509v3 Authority Key Identifier: 
                keyid:7F:D3:65:A7:C2:DD:EC:BB:F0:30:09:F3:43:39:FA:02:AF:33:31:33

    Signature Algorithm: sha256WithRSAEncryption
         13:85:1a:1e:69:a9:37:f7:a0:bd:a4:af:7e:1d:61:53:fe:9d:
         8c:5e:0c:a6:75:1e:78:17:23:dd:fd:ec:1a:03:55:39:fb:71:
         95:c7:65:5a:a7:8e:30:d2:44:5a:61:db:70:6f:da:21:05:c2:
         2e:73:ba:49:f1:d1:93:fe:5d:c9:cd:5e:03:e0:89:9e:3f:74:
         1e:d7:f7:38:8b:a9:d6:cf:bb:35:2f:33:58:a8:92:56:d1:c8:
         4d:3b:82:e6:79:84:16:fc:28:b0:b1:47:f3:1d:a2:3e:ee:87:
         d9:a6:7f:a4:56:a5:3f:ad:84:2e:29:de:7c:bc:a8:aa:a3:3d:
         04:01:ea:ba:93:a2:0e:50:22:29:17:4c:87:e4:3a:11:5f:d6:
         a4:25:89:9b:05:6b:2f:b4:c9:01:4c:27:7b:0b:ac:19:05:22:
         a0:60:15:3f:da:c9:fb:4d:4c:8f:fb:72:67:77:fd:27:94:c7:
         ba:35:0e:88:49:fe:8d:fd:28:af:4a:12:bd:0d:b3:97:05:de:
         44:0c:15:fa:36:2b:03:dc:c1:50:01:f1:a1:11:5d:14:e5:e2:
         bd:27:4b:54:be:2b:84:5e:0f:a6:c3:74:05:0a:ef:97:c3:89:
         22:b1:1f:77:f3:bd:cd:43:d4:f1:4c:a9:3f:b5:8b:84:af:64:
         f2:d0:14:21
-----BEGIN CERTIFICATE-----
MIIFWTCCBEGgAwIBAgIQPXjX+XZJYLJhffTwHsqGKjANBgkqhkiG9w0BAQsFADCB
yjELMAkGA1UEBhMCVVMxFzAVBgNVBAoTDlZlcmlTaWduLCBJbmMuMR8wHQYDVQQL
ExZWZXJpU2lnbiBUcnVzdCBOZXR3b3JrMTowOAYDVQQLEzEoYykgMjAwNiBWZXJp
U2lnbiwgSW5jLiAtIEZvciBhdXRob3JpemVkIHVzZSBvbmx5MUUwQwYDVQQDEzxW
ZXJpU2lnbiBDbGFzcyAzIFB1YmxpYyBQcmltYXJ5IENlcnRpZmljYXRpb24gQXV0
aG9yaXR5IC0gRzUwHhcNMTMxMjEwMDAwMDAwWhcNMjMxMjA5MjM1OTU5WjB/MQsw
CQYDVQQGEwJVUzEdMBsGA1UEChMUU3ltYW50ZWMgQ29ycG9yYXRpb24xHzAdBgNV
BAsTFlN5bWFudGVjIFRydXN0IE5ldHdvcmsxMDAuBgNVBAMTJ1N5bWFudGVjIENs
YXNzIDMgU0hBMjU2IENvZGUgU2lnbmluZyBDQTCCASIwDQYJKoZIhvcNAQEBBQAD
ggEPADCCAQoCggEBAJeDHgAWryyx0gjE12iTUWAecfbiR7TbWE0jYmq0v1obUfej
DRh3aLvYNqsvIVDanvPnXydOC8KXyAlwk6naXA1OpA2RoLTsFM6RclQuzqPbROlS
Gz9BPMpK5KrA6DmrU8wh0MzPf5vmwsxYaoIV7j02zxzFlwckjvF7vjEtPW7ctZlC
n0thlV8ccO4XfduL5WGJeMdoG68ReBqYrsRVR1PZszLWoQ5GQMWXkorRU6eZW4U1
V9Pqk2JhIArHMHckEU1ig7a6e2iCMe5lyt/51Y2yNdyMK29qclxghJzyDJRewFZS
AEjM0/ilfd4v1xPkOKiE1Ua4E4bCG53qWjjdm9sCAwEAAaOCAYMwggF/MC8GCCsG
AQUFBwEBBCMwITAfBggrBgEFBQcwAYYTaHR0cDovL3MyLnN5bWNiLmNvbTASBgNV
HRMBAf8ECDAGAQH/AgEAMGwGA1UdIARlMGMwYQYLYIZIAYb4RQEHFwMwUjAmBggr
BgEFBQcCARYaaHR0cDovL3d3dy5zeW1hdXRoLmNvbS9jcHMwKAYIKwYBBQUHAgIw
HBoaaHR0cDovL3d3dy5zeW1hdXRoLmNvbS9ycGEwMAYDVR0fBCkwJzAloCOgIYYf
aHR0cDovL3MxLnN5bWNiLmNvbS9wY2EzLWc1LmNybDAdBgNVHSUEFjAUBggrBgEF
BQcDAgYIKwYBBQUHAwMwDgYDVR0PAQH/BAQDAgEGMCkGA1UdEQQiMCCkHjAcMRow
GAYDVQQDExFTeW1hbnRlY1BLSS0xLTU2NzAdBgNVHQ4EFgQUljtT8Hkzl699g+8u
K8zKt4YecmYwHwYDVR0jBBgwFoAUf9Nlp8Ld7LvwMAnzQzn6Aq8zMTMwDQYJKoZI
hvcNAQELBQADggEBABOFGh5pqTf3oL2kr34dYVP+nYxeDKZ1HngXI9397BoDVTn7
cZXHZVqnjjDSRFph23Bv2iEFwi5zuknx0ZP+XcnNXgPgiZ4/dB7X9ziLqdbPuzUv
M1ioklbRyE07guZ5hBb8KLCxR/Mdoj7uh9mmf6RWpT+thC4p3ny8qKqjPQQB6rqT
og5QIikXTIfkOhFf1qQliZsFay+0yQFMJ3sLrBkFIqBgFT/ayftNTI/7cmd3/SeU
x7o1DohJ/o39KK9KEr0Ns5cF3kQMFfo2KwPcwVAB8aERXRTl4r0nS1S+K4ReD6bD
dAUK75fDiSKxH3fzvc1D1PFMqT+1i4SvZPLQFCE=
-----END CERTIFICATE-----

Certificate:
    Data:
        Version: 3 (0x2)
        Serial Number:
            03:01:9a:02:3a:ff:58:b1:6b:d6:d5:ea:e6:17:f0:66
    Signature Algorithm: sha1WithRSAEncryption
        Issuer: C=US, O=DigiCert Inc, OU=www.digicert.com, CN=DigiCert Assured ID CA-1
        Validity
            Not Before: Oct 22 00:00:00 2014 GMT
            Not After : Oct 22 00:00:00 2024 GMT
        Subject: C=US, O=DigiCert, CN=DigiCert Timestamp Responder
        Subject Public Key Info:
            Public Key Algorithm: rsaEncryption
                Public-Key: (2048 bit)
                Modulus:
                    00:a3:64:5d:fc:7c:b3:e0:82:35:e0:e0:f6:c6:2a:
                    e6:49:75:3b:cc:6e:e0:53:a9:9f:1f:64:59:e6:7c:
                    6b:7f:6b:8c:9d:55:f8:92:e3:9e:d5:5a:63:5b:02:
                    49:50:d9:83:ce:6f:66:ee:dd:cb:85:e9:5f:a5:f9:
                    d4:87:74:88:44:3b:19:c9:e5:f5:91:9f:c6:14:39:
                    ac:24:ea:a8:4b:2c:91:89:cc:5e:28:f4:64:b6:50:
                    b7:f5:12:b3:73:96:0a:67:a3:be:61:9f:ae:f3:fd:
                    12:78:75:0e:a6:5b:14:fd:45:23:8e:86:44:55:7d:
                    18:86:05:8c:55:87:79:48:46:f7:ca:0e:8d:a7:de:
                    4e:5f:e2:a8:b6:2d:59:02:61:88:61:72:18:68:b9:
                    b8:7c:ee:e6:e7:34:2f:31:77:81:30:1f:bb:36:01:
                    8d:ef:27:e3:f7:9a:f0:4c:31:64:8d:e3:eb:fa:19:
                    87:a8:7e:cf:ec:8c:0c:36:5b:7a:c1:7a:b8:78:c7:
                    c9:06:2e:46:10:c8:8d:e8:04:60:db:bc:73:74:fa:
                    4e:d8:fe:aa:40:f1:b2:ce:70:46:83:e9:da:40:a1:
                    59:3a:d9:15:09:57:99:56:30:93:f3:c9:61:cc:d0:
                    08:cc:6b:ec:62:42:91:ac:02:c0:ef:a4:f0:89:11:
                    8f:77
                Exponent: 65537 (0x10001)
        X509v3 extensions:
            X509v3 Key Usage: critical
                Digital Signature
            X509v3 Basic Constraints: critical
                CA:FALSE
            X509v3 Extended Key Usage: critical
                Time Stamping
            X509v3 Certificate Policies: 
                Policy: 2.16.840.1.114412.7.1
                  CPS: https://www.digicert.com/CPS
                  User Notice:
                    Explicit Text: 
                Policy: 2.16.840.1.114412.3.21

            X509v3 Authority Key Identifier: 
                keyid:15:00:12:2B:13:98:B2:99:07:ED:1E:DF:A2:BE:57:0D:2B:67:02:CD

            X509v3 Subject Key Identifier: 
                61:5A:4D:24:B6:49:32:9D:4A:2A:79:1A:83:4B:F4:1E:89:C1:CA:7D
            X509v3 CRL Distribution Points: 

                Full Name:
                  URI:http://crl3.digicert.com/DigiCertAssuredIDCA-1.crl

                Full Name:
                  URI:http://crl4.digicert.com/DigiCertAssuredIDCA-1.crl

            Authority Information Access: 
                OCSP - URI:http://ocsp.digicert.com
                CA Issuers - URI:http://cacerts.digicert.com/DigiCertAssuredIDCA-1.crt

    Signature Algorithm: sha1WithRSAEncryption
         9d:25:7e:1b:33:4d:b2:26:81:5c:9b:86:ce:23:20:0f:80:87:
         e5:88:ff:ff:b1:d4:6a:2c:31:ed:3a:17:19:71:17:cd:a9:1b:
         bc:5a:16:39:00:9d:e3:6c:84:e4:5a:40:fb:de:06:01:8c:37:
         fa:9b:b1:9d:24:7e:fe:20:a4:57:ad:5b:b7:9a:b0:60:26:ea:
         69:57:21:5d:34:2f:1f:71:b0:83:94:19:05:6b:35:90:10:a0:
         7b:97:c7:f6:3f:e7:e2:11:41:a6:bd:62:d9:f0:27:3d:38:1d:
         28:6f:3a:52:09:f0:ec:70:62:d3:62:4b:b0:e0:73:a6:92:c0:
         d3:8e:31:d8:2f:e3:6d:17:13:06:ee:e4:03:b6:14:ab:f3:8f:
         43:a7:71:9d:21:dd:14:ca:15:5d:92:41:da:f9:0f:81:d1:99:
         74:0d:26:c4:0e:7f:1b:b5:f5:a0:f1:c6:77:06:28:15:e9:d8:
         93:e5:55:16:f0:bb:0a:ab:1c:db:5c:48:27:66:c8:a3:8b:0a:
         1c:e5:95:da:ae:c4:2e:59:a0:61:dd:da:f3:6d:a2:61:e9:8a:
         0b:6d:ec:12:18:bd:f7:55:54:40:03:92:2b:6b:c2:51:c2:0a:
         48:af:b0:d4:6e:e0:f4:14:0a:3a:1b:e3:8f:3d:ca:af:6a:8d:
         7b:dc:d8:44
-----BEGIN CERTIFICATE-----
MIIGajCCBVKgAwIBAgIQAwGaAjr/WLFr1tXq5hfwZjANBgkqhkiG9w0BAQUFADBi
MQswCQYDVQQGEwJVUzEVMBMGA1UEChMMRGlnaUNlcnQgSW5jMRkwFwYDVQQLExB3
d3cuZGlnaWNlcnQuY29tMSEwHwYDVQQDExhEaWdpQ2VydCBBc3N1cmVkIElEIENB
LTEwHhcNMTQxMDIyMDAwMDAwWhcNMjQxMDIyMDAwMDAwWjBHMQswCQYDVQQGEwJV
UzERMA8GA1UEChMIRGlnaUNlcnQxJTAjBgNVBAMTHERpZ2lDZXJ0IFRpbWVzdGFt
cCBSZXNwb25kZXIwggEiMA0GCSqGSIb3DQEBAQUAA4IBDwAwggEKAoIBAQCjZF38
fLPggjXg4PbGKuZJdTvMbuBTqZ8fZFnmfGt/a4ydVfiS457VWmNbAklQ2YPOb2bu
3cuF6V+l+dSHdIhEOxnJ5fWRn8YUOawk6qhLLJGJzF4o9GS2ULf1ErNzlgpno75h
n67z/RJ4dQ6mWxT9RSOOhkRVfRiGBYxVh3lIRvfKDo2n3k5f4qi2LVkCYYhhchho
ubh87ubnNC8xd4EwH7s2AY3vJ+P3mvBMMWSN4+v6GYeofs/sjAw2W3rBerh4x8kG
LkYQyI3oBGDbvHN0+k7Y/qpA8bLOcEaD6dpAoVk62RUJV5lWMJPzyWHM0AjMa+xi
QpGsAsDvpPCJEY93AgMBAAGjggM1MIIDMTAOBgNVHQ8BAf8EBAMCB4AwDAYDVR0T
AQH/BAIwADAWBgNVHSUBAf8EDDAKBggrBgEFBQcDCDCCAb8GA1UdIASCAbYwggGy
MIIBoQYJYIZIAYb9bAcBMIIBkjAoBggrBgEFBQcCARYcaHR0cHM6Ly93d3cuZGln
aWNlcnQuY29tL0NQUzCCAWQGCCsGAQUFBwICMIIBVh6CAVIAQQBuAHkAIAB1AHMA
ZQAgAG8AZgAgAHQAaABpAHMAIABDAGUAcgB0AGkAZgBpAGMAYQB0AGUAIABjAG8A
bgBzAHQAaQB0AHUAdABlAHMAIABhAGMAYwBlAHAAdABhAG4AYwBlACAAbwBmACAA
dABoAGUAIABEAGkAZwBpAEMAZQByAHQAIABDAFAALwBDAFAAUwAgAGEAbgBkACAA
dABoAGUAIABSAGUAbAB5AGkAbgBnACAAUABhAHIAdAB5ACAAQQBnAHIAZQBlAG0A
ZQBuAHQAIAB3AGgAaQBjAGgAIABsAGkAbQBpAHQAIABsAGkAYQBiAGkAbABpAHQA
eQAgAGEAbgBkACAAYQByAGUAIABpAG4AYwBvAHIAcABvAHIAYQB0AGUAZAAgAGgA
ZQByAGUAaQBuACAAYgB5ACAAcgBlAGYAZQByAGUAbgBjAGUALjALBglghkgBhv1s
AxUwHwYDVR0jBBgwFoAUFQASKxOYspkH7R7for5XDStnAs0wHQYDVR0OBBYEFGFa
TSS2STKdSip5GoNL9B6Jwcp9MH0GA1UdHwR2MHQwOKA2oDSGMmh0dHA6Ly9jcmwz
LmRpZ2ljZXJ0LmNvbS9EaWdpQ2VydEFzc3VyZWRJRENBLTEuY3JsMDigNqA0hjJo
dHRwOi8vY3JsNC5kaWdpY2VydC5jb20vRGlnaUNlcnRBc3N1cmVkSURDQS0xLmNy
bDB3BggrBgEFBQcBAQRrMGkwJAYIKwYBBQUHMAGGGGh0dHA6Ly9vY3NwLmRpZ2lj
ZXJ0LmNvbTBBBggrBgEFBQcwAoY1aHR0cDovL2NhY2VydHMuZGlnaWNlcnQuY29t
L0RpZ2lDZXJ0QXNzdXJlZElEQ0EtMS5jcnQwDQYJKoZIhvcNAQEFBQADggEBAJ0l
fhszTbImgVybhs4jIA+Ah+WI//+x1GosMe06FxlxF82pG7xaFjkAneNshORaQPve
BgGMN/qbsZ0kfv4gpFetW7easGAm6mlXIV00Lx9xsIOUGQVrNZAQoHuXx/Y/5+IR
Qaa9YtnwJz04HShvOlIJ8OxwYtNiS7Dgc6aSwNOOMdgv420XEwbu5AO2FKvzj0On
cZ0h3RTKFV2SQdr5D4HRmXQNJsQOfxu19aDxxncGKBXp2JPlVRbwuwqrHNtcSCdm
yKOLChzlldquxC5ZoGHd2vNtomHpigtt7BIYvfdVVEADkitrwlHCCkivsNRu4PQU
Cjob4489yq9qjXvc2EQ=
-----END CERTIFICATE-----

Certificate:
    Data:
        Version: 3 (0x2)
        Serial Number:
            06:fd:f9:03:96:03:ad:ea:00:0a:eb:3f:27:bb:ba:1b
    Signature Algorithm: sha1WithRSAEncryption
        Issuer: C=US, O=DigiCert Inc, OU=www.digicert.com, CN=DigiCert Assured ID Root CA
        Validity
            Not Before: Nov 10 00:00:00 2006 GMT
            Not After : Nov 10 00:00:00 2021 GMT
        Subject: C=US, O=DigiCert Inc, OU=www.digicert.com, CN=DigiCert Assured ID CA-1
        Subject Public Key Info:
            Public Key Algorithm: rsaEncryption
                Public-Key: (2048 bit)
                Modulus:
                    00:e8:82:2d:99:f9:ca:c2:42:95:a5:80:73:40:70:
                    d2:9e:56:54:5c:a9:c4:d2:41:06:8f:c9:33:fc:4d:
                    45:91:5c:81:9f:ed:2c:9c:f8:16:59:df:9e:b5:24:
                    15:c2:98:b9:b4:77:49:dc:89:c4:0a:da:af:cb:5e:
                    6b:ed:ad:b0:71:31:eb:cf:3a:40:0c:46:4d:93:ec:
                    8b:7a:36:08:03:ab:0c:34:fe:18:49:82:fe:c7:c7:
                    31:48:80:7c:1e:a2:0f:92:0e:50:c9:c6:87:eb:36:
                    3f:d8:30:c3:ff:a6:f7:fb:a2:cd:6f:73:23:fe:ac:
                    56:05:90:f0:32:21:16:89:c6:70:88:f9:05:97:7d:
                    a3:c7:43:dd:02:e8:3b:3d:ed:b1:41:a3:ed:3f:be:
                    db:95:48:c4:ee:1e:b3:f2:bc:0c:2b:99:d0:c6:5d:
                    12:42:81:e1:83:6e:82:73:3f:26:4b:14:90:ae:59:
                    66:0a:c4:8d:be:d2:ce:06:ae:ad:84:6f:48:84:9b:
                    4f:40:b9:f1:4c:f2:af:98:fb:f6:ce:40:5d:5c:f6:
                    a8:f1:2f:af:ec:89:22:f2:6b:18:65:b1:c1:73:ad:
                    d7:f1:d8:cf:1e:0a:74:5c:42:b8:68:7e:b7:d5:77:
                    0a:27:56:7c:0f:62:a4:3f:32:14:60:95:fd:07:04:
                    a2:09
                Exponent: 65537 (0x10001)
        X509v3 extensions:
            X509v3 Key Usage: critical
                Digital Signature, Certificate Sign, CRL Sign
            X509v3 Extended Key Usage: 
                TLS Web Server Authentication, TLS Web Client Authentication, Code Signing, E-mail Protection, Time Stamping
            X509v3 Certificate Policies: 
                Policy: 2.16.840.1.114412.0.1.4
                  CPS: http://www.digicert.com/ssl-cps-repository.htm
                  User Notice:
                    Explicit Text: 
                Policy: 2.16.840.1.114412.3.21

            X509v3 Basic Constraints: critical
                CA:TRUE, pathlen:0
            Authority Information Access: 
                OCSP - URI:http://ocsp.digicert.com
                CA Issuers - URI:http://cacerts.digicert.com/DigiCertAssuredIDRootCA.crt

            X509v3 CRL Distribution Points: 

                Full Name:
                  URI:http://crl3.digicert.com/DigiCertAssuredIDRootCA.crl

                Full Name:
                  URI:http://crl4.digicert.com/DigiCertAssuredIDRootCA.crl

            X509v3 Subject Key Identifier: 
                15:00:12:2B:13:98:B2:99:07:ED:1E:DF:A2:BE:57:0D:2B:67:02:CD
            X509v3 Authority Key Identifier: 
                keyid:45:EB:A2:AF:F4:92:CB:82:31:2D:51:8B:A7:A7:21:9D:F3:6D:C8:0F

    Signature Algorithm: sha1WithRSAEncryption
         46:50:3e:c9:b7:28:24:a7:38:1d:b6:5b:29:af:52:cf:52:e9:
         31:47:ab:56:5c:7b:d5:0d:0b:41:b3:ef:ec:75:1f:74:38:f2:
         b2:5c:61:a2:9c:95:c3:50:e4:82:b9:23:d1:ba:3a:86:72:ad:
         38:78:ac:75:5d:17:17:34:72:47:85:94:56:d1:eb:bb:36:84:
         77:cc:24:a5:f3:04:19:55:a9:e7:e3:e7:ab:62:cd:fb:8b:2d:
         90:c2:c0:d2:b5:94:bd:5e:4f:b1:05:d2:0e:3d:1a:a9:14:5b:
         a6:86:31:62:a8:a8:33:e4:9b:39:a7:c4:f5:ce:1d:78:76:94:
         25:73:e4:2a:ab:cf:9c:76:4b:ed:5f:c2:4b:16:e4:4b:70:4c:
         00:89:1e:fc:c5:79:bc:4c:12:57:fe:5f:e1:1e:bc:02:5d:a8:
         fe:fb:07:38:4f:0d:c6:5d:91:b9:0f:67:45:cd:d6:83:ed:e7:
         92:0d:8d:b1:69:8c:4f:fb:59:e0:23:0f:d2:aa:ae:00:7c:ee:
         9c:42:0e:cf:91:d7:27:b7:16:ee:0f:c3:bd:7c:0a:a0:ee:2c:
         08:55:85:22:b8:eb:18:1a:4d:fc:2a:21:ad:49:31:83:47:95:
         77:71:dc:b1:1b:4b:4b:1c:10:9c:77:14:c1:9d:4f:2f:5a:95:
         08:29:10:26
-----BEGIN CERTIFICATE-----
MIIGzTCCBbWgAwIBAgIQBv35A5YDreoACus/J7u6GzANBgkqhkiG9w0BAQUFADBl
MQswCQYDVQQGEwJVUzEVMBMGA1UEChMMRGlnaUNlcnQgSW5jMRkwFwYDVQQLExB3
d3cuZGlnaWNlcnQuY29tMSQwIgYDVQQDExtEaWdpQ2VydCBBc3N1cmVkIElEIFJv
b3QgQ0EwHhcNMDYxMTEwMDAwMDAwWhcNMjExMTEwMDAwMDAwWjBiMQswCQYDVQQG
EwJVUzEVMBMGA1UEChMMRGlnaUNlcnQgSW5jMRkwFwYDVQQLExB3d3cuZGlnaWNl
cnQuY29tMSEwHwYDVQQDExhEaWdpQ2VydCBBc3N1cmVkIElEIENBLTEwggEiMA0G
CSqGSIb3DQEBAQUAA4IBDwAwggEKAoIBAQDogi2Z+crCQpWlgHNAcNKeVlRcqcTS
QQaPyTP8TUWRXIGf7Syc+BZZ3561JBXCmLm0d0ncicQK2q/LXmvtrbBxMevPOkAM
Rk2T7It6NggDqww0/hhJgv7HxzFIgHweog+SDlDJxofrNj/YMMP/pvf7os1vcyP+
rFYFkPAyIRaJxnCI+QWXfaPHQ90C6Ds97bFBo+0/vtuVSMTuHrPyvAwrmdDGXRJC
geGDboJzPyZLFJCuWWYKxI2+0s4Grq2Eb0iEm09AufFM8q+Y+/bOQF1c9qjxL6/s
iSLyaxhlscFzrdfx2M8eCnRcQrhofrfVdwonVnwPYqQ/MhRglf0HBKIJAgMBAAGj
ggN6MIIDdjAOBgNVHQ8BAf8EBAMCAYYwOwYDVR0lBDQwMgYIKwYBBQUHAwEGCCsG
AQUFBwMCBggrBgEFBQcDAwYIKwYBBQUHAwQGCCsGAQUFBwMIMIIB0gYDVR0gBIIB
yTCCAcUwggG0BgpghkgBhv1sAAEEMIIBpDA6BggrBgEFBQcCARYuaHR0cDovL3d3
dy5kaWdpY2VydC5jb20vc3NsLWNwcy1yZXBvc2l0b3J5Lmh0bTCCAWQGCCsGAQUF
BwICMIIBVh6CAVIAQQBuAHkAIAB1AHMAZQAgAG8AZgAgAHQAaABpAHMAIABDAGUA
cgB0AGkAZgBpAGMAYQB0AGUAIABjAG8AbgBzAHQAaQB0AHUAdABlAHMAIABhAGMA
YwBlAHAAdABhAG4AYwBlACAAbwBmACAAdABoAGUAIABEAGkAZwBpAEMAZQByAHQA
IABDAFAALwBDAFAAUwAgAGEAbgBkACAAdABoAGUAIABSAGUAbAB5AGkAbgBnACAA
UABhAHIAdAB5ACAAQQBnAHIAZQBlAG0AZQBuAHQAIAB3AGgAaQBjAGgAIABsAGkA
bQBpAHQAIABsAGkAYQBiAGkAbABpAHQAeQAgAGEAbgBkACAAYQByAGUAIABpAG4A
YwBvAHIAcABvAHIAYQB0AGUAZAAgAGgAZQByAGUAaQBuACAAYgB5ACAAcgBlAGYA
ZQByAGUAbgBjAGUALjALBglghkgBhv1sAxUwEgYDVR0TAQH/BAgwBgEB/wIBADB5
BggrBgEFBQcBAQRtMGswJAYIKwYBBQUHMAGGGGh0dHA6Ly9vY3NwLmRpZ2ljZXJ0
LmNvbTBDBggrBgEFBQcwAoY3aHR0cDovL2NhY2VydHMuZGlnaWNlcnQuY29tL0Rp
Z2lDZXJ0QXNzdXJlZElEUm9vdENBLmNydDCBgQYDVR0fBHoweDA6oDigNoY0aHR0
cDovL2NybDMuZGlnaWNlcnQuY29tL0RpZ2lDZXJ0QXNzdXJlZElEUm9vdENBLmNy
bDA6oDigNoY0aHR0cDovL2NybDQuZGlnaWNlcnQuY29tL0RpZ2lDZXJ0QXNzdXJl
ZElEUm9vdENBLmNybDAdBgNVHQ4EFgQUFQASKxOYspkH7R7for5XDStnAs0wHwYD
VR0jBBgwFoAUReuir/SSy4IxLVGLp6chnfNtyA8wDQYJKoZIhvcNAQEFBQADggEB
AEZQPsm3KCSnOB22WymvUs9S6TFHq1Zce9UNC0Gz7+x1H3Q48rJcYaKclcNQ5IK5
I9G6OoZyrTh4rHVdFxc0ckeFlFbR67s2hHfMJKXzBBlVqefj56tizfuLLZDCwNK1
lL1eT7EF0g49GqkUW6aGMWKoqDPkmzmnxPXOHXh2lCVz5Cqrz5x2S+1fwksW5Etw
TACJHvzFebxMElf+X+EevAJdqP77BzhPDcZdkbkPZ0XN1oPt55INjbFpjE/7WeAj
D9KqrgB87pxCDs+R1ye3Fu4Pw718CqDuLAhVhSK46xgaTfwqIa1JMYNHlXdx3LEb
S0scEJx3FMGdTy9alQgpECY=
-----END CERTIFICATE-----

