Certificate:
    Data:
        Version: 3 (0x2)
        Serial Number:
            7e:93:eb:fb:7c:c6:4e:59:ea:4b:9a:77:d4:06:fc:3b
    Signature Algorithm: sha1WithRSAEncryption
        Issuer: C=ZA, ST=Western Cape, L=Durbanville, O=Thawte, OU=Thawte Certification, CN=Thawte Timestamping CA
        Validity
            Not Before: Dec 21 00:00:00 2012 GMT
            Not After : Dec 30 23:59:59 2020 GMT
        Subject: C=US, O=Symantec Corporation, CN=Symantec Time Stamping Services CA - G2
        Subject Public Key Info:
            Public Key Algorithm: rsaEncryption
                Public-Key: (2048 bit)
                Modulus:
                    00:b1:ac:b3:49:54:4b:97:1c:12:0a:d8:25:79:91:
                    22:57:2a:6f:dc:b8:26:c4:43:73:6b:c2:bf:2e:50:
                    5a:fb:14:c2:76:8e:43:01:25:43:b4:a1:e2:45:f4:
                    e8:b7:7b:c3:74:cc:22:d7:b4:94:00:02:f7:4d:ed:
                    bf:b4:b7:44:24:6b:cd:5f:45:3b:d1:44:ce:43:12:
                    73:17:82:8b:69:b4:2b:cb:99:1e:ac:72:1b:26:4d:
                    71:1f:b1:31:dd:fb:51:61:02:53:a6:aa:f5:49:2c:
                    05:78:45:a5:2f:89:ce:e7:99:e7:fe:8c:e2:57:3f:
                    3d:c6:92:dc:4a:f8:7b:33:e4:79:0a:fb:f0:75:88:
                    41:9c:ff:c5:03:51:99:aa:d7:6c:9f:93:69:87:65:
                    29:83:85:c2:60:14:c4:c8:c9:3b:14:da:c0:81:f0:
                    1f:0d:74:de:92:22:ab:ca:f7:fb:74:7c:27:e6:f7:
                    4a:1b:7f:a7:c3:9e:2d:ae:8a:ea:a6:e6:aa:27:16:
                    7d:61:f7:98:71:11:bc:e2:50:a1:4b:e5:5d:fa:e5:
                    0e:a7:2c:9f:aa:65:20:d3:d8:96:e8:c8:7c:a5:4e:
                    48:44:ff:19:e2:44:07:92:0b:d7:68:84:80:5d:6a:
                    78:64:45:cd:60:46:7e:54:c1:13:7c:c5:79:f1:c9:
                    c1:71
                Exponent: 65537 (0x10001)
        X509v3 extensions:
            X509v3 Subject Key Identifier: 
                5F:9A:F5:6E:5C:CC:CC:74:9A:D4:DD:7D:EF:3F:DB:EC:4C:80:2E:DD
            Authority Information Access: 
                OCSP - URI:http://ocsp.thawte.com

            X509v3 Basic Constraints: critical
                CA:TRUE, pathlen:0
            X509v3 CRL Distribution Points: 

                Full Name:
                  URI:http://crl.thawte.com/ThawteTimestampingCA.crl

            X509v3 Extended Key Usage: 
                Time Stamping
            X509v3 Key Usage: critical
                Certificate Sign, CRL Sign
            X509v3 Subject Alternative Name: 
                DirName:/CN=TimeStamp-2048-1
    Signature Algorithm: sha1WithRSAEncryption
         03:09:9b:8f:79:ef:7f:59:30:aa:ef:68:b5:fa:e3:09:1d:bb:
         4f:82:06:5d:37:5f:a6:52:9f:16:8d:ea:1c:92:09:44:6e:f5:
         6d:eb:58:7c:30:e8:f9:69:8d:23:73:0b:12:6f:47:a9:ae:39:
         11:f8:2a:b1:9b:b0:1a:c3:8e:eb:59:96:00:ad:ce:0c:4d:b2:
         d0:31:a6:08:5c:2a:7a:fc:e2:7a:1d:57:4c:a8:65:18:e9:79:
         40:62:25:96:6e:c7:c7:37:6a:83:21:08:8e:41:ea:dd:d9:57:
         3f:1d:77:49:87:2a:16:06:5e:a6:38:6a:22:12:a3:51:19:83:
         7e:b6
-----BEGIN CERTIFICATE-----
MIID7jCCA1egAwIBAgIQfpPr+3zGTlnqS5p31Ab8OzANBgkqhkiG9w0BAQUFADCB
izELMAkGA1UEBhMCWkExFTATBgNVBAgTDFdlc3Rlcm4gQ2FwZTEUMBIGA1UEBxML
RHVyYmFudmlsbGUxDzANBgNVBAoTBlRoYXd0ZTEdMBsGA1UECxMUVGhhd3RlIENl
cnRpZmljYXRpb24xHzAdBgNVBAMTFlRoYXd0ZSBUaW1lc3RhbXBpbmcgQ0EwHhcN
MTIxMjIxMDAwMDAwWhcNMjAxMjMwMjM1OTU5WjBeMQswCQYDVQQGEwJVUzEdMBsG
A1UEChMUU3ltYW50ZWMgQ29ycG9yYXRpb24xMDAuBgNVBAMTJ1N5bWFudGVjIFRp
bWUgU3RhbXBpbmcgU2VydmljZXMgQ0EgLSBHMjCCASIwDQYJKoZIhvcNAQEBBQAD
ggEPADCCAQoCggEBALGss0lUS5ccEgrYJXmRIlcqb9y4JsRDc2vCvy5QWvsUwnaO
QwElQ7Sh4kX06Ld7w3TMIte0lAAC903tv7S3RCRrzV9FO9FEzkMScxeCi2m0K8uZ
HqxyGyZNcR+xMd37UWECU6aq9UksBXhFpS+JzueZ5/6M4lc/PcaS3Er4ezPkeQr7
8HWIQZz/xQNRmarXbJ+TaYdlKYOFwmAUxMjJOxTawIHwHw103pIiq8r3+3R8J+b3
Sht/p8OeLa6K6qbmqicWfWH3mHERvOJQoUvlXfrlDqcsn6plINPYlujIfKVOSET/
GeJEB5IL12iEgF1qeGRFzWBGflTBE3zFefHJwXECAwEAAaOB+jCB9zAdBgNVHQ4E
FgQUX5r1blzMzHSa1N197z/b7EyALt0wMgYIKwYBBQUHAQEEJjAkMCIGCCsGAQUF
BzABhhZodHRwOi8vb2NzcC50aGF3dGUuY29tMBIGA1UdEwEB/wQIMAYBAf8CAQAw
PwYDVR0fBDgwNjA0oDKgMIYuaHR0cDovL2NybC50aGF3dGUuY29tL1RoYXd0ZVRp
bWVzdGFtcGluZ0NBLmNybDATBgNVHSUEDDAKBggrBgEFBQcDCDAOBgNVHQ8BAf8E
BAMCAQYwKAYDVR0RBCEwH6QdMBsxGTAXBgNVBAMTEFRpbWVTdGFtcC0yMDQ4LTEw
DQYJKoZIhvcNAQEFBQADgYEAAwmbj3nvf1kwqu9otfrjCR27T4IGXTdfplKfFo3q
HJIJRG71betYfDDo+WmNI3MLEm9Hqa45EfgqsZuwGsOO61mWAK3ODE2y0DGmCFwq
evzieh1XTKhlGOl5QGIllm7HxzdqgyEIjkHq3dlXPx13SYcqFgZepjhqIhKjURmD
frY=
-----END CERTIFICATE-----

Certificate:
    Data:
        Version: 3 (0x2)
        Serial Number:
            04:00:00:00:00:01:2f:4e:e1:35:5c
    Signature Algorithm: sha1WithRSAEncryption
        Issuer: C=BE, O=GlobalSign nv-sa, OU=Root CA, CN=GlobalSign Root CA
        Validity
            Not Before: Apr 13 10:00:00 2011 GMT
            Not After : Apr 13 10:00:00 2019 GMT
        Subject: C=BE, O=GlobalSign nv-sa, CN=GlobalSign CodeSigning CA - G2
        Subject Public Key Info:
            Public Key Algorithm: rsaEncryption
                Public-Key: (2048 bit)
                Modulus:
                    00:b2:4f:14:e7:10:be:d7:26:72:ab:36:97:ef:53:
                    bf:42:84:5e:58:d1:8a:28:fc:43:46:6f:7e:28:44:
                    50:0b:75:5d:00:d7:3c:0a:44:9e:20:6a:a4:f7:45:
                    4a:37:60:a3:6e:3f:12:fa:6d:fa:b6:46:c3:6a:a3:
                    b8:0c:27:28:02:57:28:d1:50:f7:61:39:55:b8:c3:
                    e1:25:86:52:3c:bf:05:1d:d7:b3:9a:f8:9a:24:31:
                    49:d5:a2:a9:e2:d3:91:ab:3e:3c:73:ef:f6:29:f1:
                    c8:35:d0:30:7b:7f:4e:92:a5:06:8f:87:e2:ce:f5:
                    c1:63:66:ac:18:69:2a:c1:5e:bb:5a:e8:6e:95:ff:
                    3b:80:62:9d:99:c7:c7:2f:66:d5:fd:62:1a:82:55:
                    5a:c6:fa:40:77:8e:c9:30:3c:1b:f0:f2:35:b8:6c:
                    59:9c:fd:e9:d6:ca:b4:40:1e:f7:04:ca:d1:67:a9:
                    74:e3:a5:08:54:d9:83:35:3b:8e:8c:23:0c:75:b6:
                    de:86:4a:9e:1a:3e:0a:50:49:38:9c:d2:a8:90:bf:
                    98:fa:c8:8c:2b:27:11:7e:2a:fb:ce:de:a9:ae:38:
                    93:22:fa:a6:ec:fb:5c:61:76:c3:44:d6:cc:0c:7e:
                    2f:6d:06:80:a2:74:40:bb:b7:1f:f4:3b:d7:73:54:
                    1f:f3
                Exponent: 65537 (0x10001)
        X509v3 extensions:
            X509v3 Key Usage: critical
                Certificate Sign, CRL Sign
            X509v3 Basic Constraints: critical
                CA:TRUE, pathlen:0
            X509v3 Subject Key Identifier: 
                08:6E:D8:B6:9C:8A:BF:ED:3E:D7:C3:74:5D:CC:80:1F:A8:2F:50:7A
            X509v3 Certificate Policies: 
                Policy: X509v3 Any Policy
                  CPS: https://www.globalsign.com/repository/

            X509v3 CRL Distribution Points: 

                Full Name:
                  URI:http://crl.globalsign.net/root.crl

            X509v3 Extended Key Usage: 
                Code Signing
            X509v3 Authority Key Identifier: 
                keyid:60:7B:66:1A:45:0D:97:CA:89:50:2F:7D:04:CD:34:A8:FF:FC:FD:4B

    Signature Algorithm: sha1WithRSAEncryption
         22:5c:c5:dd:3d:f4:0b:70:d8:e3:f5:e7:c5:8e:09:01:bb:b1:
         96:36:5c:5a:07:ad:c7:a8:44:49:51:25:7a:ae:0d:a4:19:3b:
         92:9c:cf:b9:42:26:bb:3b:6c:97:e7:c7:ce:11:6d:68:91:da:
         8d:6d:f1:53:4d:54:38:8c:61:f3:c8:82:76:69:be:81:32:0b:
         31:c3:6c:c9:9e:20:0a:58:2f:f0:48:fe:7e:48:07:aa:d7:43:
         58:94:73:54:04:31:a9:78:0d:3b:8c:b0:70:c1:3d:7e:d7:bd:
         2f:2a:c3:e2:f5:8f:0c:90:dc:6b:a5:c8:be:68:5e:5d:6d:f8:
         78:d2:be:49:95:1e:15:78:08:91:fb:34:c8:be:84:ad:bc:e0:
         c6:dd:18:db:f3:ca:f0:7b:c2:14:3c:18:b8:03:ba:95:3e:21:
         1e:3f:60:69:7a:7f:6a:03:9e:8d:4a:f9:f0:28:2c:30:84:5e:
         ec:26:72:42:b1:6d:cb:64:c3:12:8c:d6:84:4b:67:41:7c:b1:
         03:17:78:09:e3:ad:a8:b6:96:2d:a4:7e:80:03:4f:88:f7:c1:
         6b:5a:46:15:cd:2c:19:8b:d8:70:9c:e5:2d:49:88:60:72:a8:
         a4:19:52:70:43:5e:da:d6:46:03:b0:68:0e:24:ef:4a:f6:0b:
         25:24:ef:24
-----BEGIN CERTIFICATE-----
MIIEKDCCAxCgAwIBAgILBAAAAAABL07hNVwwDQYJKoZIhvcNAQEFBQAwVzELMAkG
A1UEBhMCQkUxGTAXBgNVBAoTEEdsb2JhbFNpZ24gbnYtc2ExEDAOBgNVBAsTB1Jv
b3QgQ0ExGzAZBgNVBAMTEkdsb2JhbFNpZ24gUm9vdCBDQTAeFw0xMTA0MTMxMDAw
MDBaFw0xOTA0MTMxMDAwMDBaMFExCzAJBgNVBAYTAkJFMRkwFwYDVQQKExBHbG9i
YWxTaWduIG52LXNhMScwJQYDVQQDEx5HbG9iYWxTaWduIENvZGVTaWduaW5nIENB
IC0gRzIwggEiMA0GCSqGSIb3DQEBAQUAA4IBDwAwggEKAoIBAQCyTxTnEL7XJnKr
NpfvU79ChF5Y0Yoo/ENGb34oRFALdV0A1zwKRJ4gaqT3RUo3YKNuPxL6bfq2RsNq
o7gMJygCVyjRUPdhOVW4w+ElhlI8vwUd17Oa+JokMUnVoqni05GrPjxz7/Yp8cg1
0DB7f06SpQaPh+LO9cFjZqwYaSrBXrta6G6V/zuAYp2Zx8cvZtX9YhqCVVrG+kB3
jskwPBvw8jW4bFmc/enWyrRAHvcEytFnqXTjpQhU2YM1O46MIwx1tt6GSp4aPgpQ
STic0qiQv5j6yIwrJxF+KvvO3qmuOJMi+qbs+1xhdsNE1swMfi9tBoCidEC7tx/0
O9dzVB/zAgMBAAGjgfowgfcwDgYDVR0PAQH/BAQDAgEGMBIGA1UdEwEB/wQIMAYB
Af8CAQAwHQYDVR0OBBYEFAhu2Lacir/tPtfDdF3MgB+oL1B6MEcGA1UdIARAMD4w
PAYEVR0gADA0MDIGCCsGAQUFBwIBFiZodHRwczovL3d3dy5nbG9iYWxzaWduLmNv
bS9yZXBvc2l0b3J5LzAzBgNVHR8ELDAqMCigJqAkhiJodHRwOi8vY3JsLmdsb2Jh
bHNpZ24ubmV0L3Jvb3QuY3JsMBMGA1UdJQQMMAoGCCsGAQUFBwMDMB8GA1UdIwQY
MBaAFGB7ZhpFDZfKiVAvfQTNNKj//P1LMA0GCSqGSIb3DQEBBQUAA4IBAQAiXMXd
PfQLcNjj9efFjgkBu7GWNlxaB63HqERJUSV6rg2kGTuSnM+5Qia7O2yX58fOEW1o
kdqNbfFTTVQ4jGHzyIJ2ab6BMgsxw2zJniAKWC/wSP5+SAeq10NYlHNUBDGpeA07
jLBwwT1+170vKsPi9Y8MkNxrpci+aF5dbfh40r5JlR4VeAiR+zTIvoStvODG3Rjb
88rwe8IUPBi4A7qVPiEeP2Bpen9qA56NSvnwKCwwhF7sJnJCsW3LZMMSjNaES2dB
fLEDF3gJ462otpYtpH6AA0+I98FrWkYVzSwZi9hwnOUtSYhgcqikGVJwQ17a1kYD
sGgOJO9K9gslJO8k
-----END CERTIFICATE-----

Certificate:
    Data:
        Version: 3 (0x2)
        Serial Number:
            0e:cf:f4:38:c8:fe:bf:35:6e:04:d8:6a:98:1b:1a:50
    Signature Algorithm: sha1WithRSAEncryption
        Issuer: C=US, O=Symantec Corporation, CN=Symantec Time Stamping Services CA - G2
        Validity
            Not Before: Oct 18 00:00:00 2012 GMT
            Not After : Dec 29 23:59:59 2020 GMT
        Subject: C=US, O=Symantec Corporation, CN=Symantec Time Stamping Services Signer - G4
        Subject Public Key Info:
            Public Key Algorithm: rsaEncryption
                Public-Key: (2048 bit)
                Modulus:
                    00:a2:63:0b:39:44:b8:bb:23:a7:44:49:bb:0e:ff:
                    a1:f0:61:0a:53:93:b0:98:db:ad:2c:0f:4a:c5:6e:
                    ff:86:3c:53:55:0f:15:ce:04:3f:2b:fd:a9:96:96:
                    d9:be:61:79:0b:5b:c9:4c:86:76:e5:e0:43:4b:22:
                    95:ee:c2:2b:43:c1:9f:d8:68:b4:8e:40:4f:ee:85:
                    38:b9:11:c5:23:f2:64:58:f0:15:32:6f:4e:57:a1:
                    ae:88:a4:02:d7:2a:1e:cd:4b:e1:dd:63:d5:17:89:
                    32:5b:b0:5e:99:5a:a8:9d:28:50:0e:17:ee:96:db:
                    61:3b:45:51:1d:cf:12:56:0b:92:47:fc:ab:ae:f6:
                    66:3d:47:ac:70:72:e7:92:e7:5f:cd:10:b9:c4:83:
                    64:94:19:bd:25:80:e1:e8:d2:22:a5:d0:ba:02:7a:
                    a1:77:93:5b:65:c3:ee:17:74:bc:41:86:2a:dc:08:
                    4c:8c:92:8c:91:2d:9e:77:44:1f:68:d6:a8:74:77:
                    db:0e:5b:32:8b:56:8b:33:bd:d9:63:c8:49:9d:3a:
                    c5:c5:ea:33:0b:d2:f1:a3:1b:f4:8b:be:d9:b3:57:
                    8b:3b:de:04:a7:7a:22:b2:24:ae:2e:c7:70:c5:be:
                    4e:83:26:08:fb:0b:bd:a9:4f:99:08:e1:10:28:72:
                    aa:cd
                Exponent: 65537 (0x10001)
        X509v3 extensions:
            X509v3 Basic Constraints: critical
                CA:FALSE
            X509v3 Extended Key Usage: critical
                Time Stamping
            X509v3 Key Usage: critical
                Digital Signature
            Authority Information Access: 
                OCSP - URI:http://ts-ocsp.ws.symantec.com
                CA Issuers - URI:http://ts-aia.ws.symantec.com/tss-ca-g2.cer

            X509v3 CRL Distribution Points: 

                Full Name:
                  URI:http://ts-crl.ws.symantec.com/tss-ca-g2.crl

            X509v3 Subject Alternative Name: 
                DirName:/CN=TimeStamp-2048-2
            X509v3 Subject Key Identifier: 
                46:C6:69:A3:0E:4A:14:1E:D5:4C:DA:52:63:17:3F:5E:36:BC:0D:E6
            X509v3 Authority Key Identifier: 
                keyid:5F:9A:F5:6E:5C:CC:CC:74:9A:D4:DD:7D:EF:3F:DB:EC:4C:80:2E:DD

    Signature Algorithm: sha1WithRSAEncryption
         78:3b:b4:91:2a:00:4c:f0:8f:62:30:37:78:a3:84:27:07:6f:
         18:b2:de:25:dc:a0:d4:94:03:aa:86:4e:25:9f:9a:40:03:1c:
         dd:ce:e3:79:cb:21:68:06:da:b6:32:b4:6d:bf:f4:2c:26:63:
         33:e4:49:64:6d:0d:e6:c3:67:0e:f7:05:a4:35:6c:7c:89:16:
         c6:e9:b2:df:b2:e9:dd:20:c6:71:0f:cd:95:74:dc:b6:5c:de:
         bd:37:1f:43:78:e6:78:b5:cd:28:04:20:a3:aa:f1:4b:c4:88:
         29:91:0e:80:d1:11:fc:dd:5c:76:6e:4f:5e:0e:45:46:41:6e:
         0d:b0:ea:38:9a:b1:3a:da:09:71:10:fc:1c:79:b4:80:7b:ac:
         69:f4:fd:9c:b6:0c:16:2b:f1:7f:5b:09:3d:9b:5b:e2:16:ca:
         13:81:6d:00:2e:38:0d:a8:29:8f:2c:e1:b2:f4:5a:a9:01:af:
         15:9c:2c:2f:49:1b:db:22:bb:c3:fe:78:94:51:c3:86:b1:82:
         88:5d:f0:3d:b4:51:a1:79:33:2b:2e:7b:b9:dc:20:09:13:71:
         eb:6a:19:5b:cf:e8:a5:30:57:2c:89:49:3f:b9:cf:7f:c9:bf:
         3e:22:68:63:53:9a:bd:69:74:ac:c5:1d:3c:7f:92:e0:c3:bc:
         1c:d8:04:75
-----BEGIN CERTIFICATE-----
MIIEozCCA4ugAwIBAgIQDs/0OMj+vzVuBNhqmBsaUDANBgkqhkiG9w0BAQUFADBe
MQswCQYDVQQGEwJVUzEdMBsGA1UEChMUU3ltYW50ZWMgQ29ycG9yYXRpb24xMDAu
BgNVBAMTJ1N5bWFudGVjIFRpbWUgU3RhbXBpbmcgU2VydmljZXMgQ0EgLSBHMjAe
Fw0xMjEwMTgwMDAwMDBaFw0yMDEyMjkyMzU5NTlaMGIxCzAJBgNVBAYTAlVTMR0w
GwYDVQQKExRTeW1hbnRlYyBDb3Jwb3JhdGlvbjE0MDIGA1UEAxMrU3ltYW50ZWMg
VGltZSBTdGFtcGluZyBTZXJ2aWNlcyBTaWduZXIgLSBHNDCCASIwDQYJKoZIhvcN
AQEBBQADggEPADCCAQoCggEBAKJjCzlEuLsjp0RJuw7/ofBhClOTsJjbrSwPSsVu
/4Y8U1UPFc4EPyv9qZaW2b5heQtbyUyGduXgQ0sile7CK0PBn9hotI5AT+6FOLkR
xSPyZFjwFTJvTlehroikAtcqHs1L4d1j1ReJMluwXplaqJ0oUA4X7pbbYTtFUR3P
ElYLkkf8q672Zj1HrHBy55LnX80QucSDZJQZvSWA4ejSIqXQugJ6oXeTW2XD7hd0
vEGGKtwITIySjJEtnndEH2jWqHR32w5bMotWizO92WPISZ06xcXqMwvS8aMb9Iu+
2bNXizveBKd6IrIkri7HcMW+ToMmCPsLvalPmQjhEChyqs0CAwEAAaOCAVcwggFT
MAwGA1UdEwEB/wQCMAAwFgYDVR0lAQH/BAwwCgYIKwYBBQUHAwgwDgYDVR0PAQH/
BAQDAgeAMHMGCCsGAQUFBwEBBGcwZTAqBggrBgEFBQcwAYYeaHR0cDovL3RzLW9j
c3Aud3Muc3ltYW50ZWMuY29tMDcGCCsGAQUFBzAChitodHRwOi8vdHMtYWlhLndz
LnN5bWFudGVjLmNvbS90c3MtY2EtZzIuY2VyMDwGA1UdHwQ1MDMwMaAvoC2GK2h0
dHA6Ly90cy1jcmwud3Muc3ltYW50ZWMuY29tL3Rzcy1jYS1nMi5jcmwwKAYDVR0R
BCEwH6QdMBsxGTAXBgNVBAMTEFRpbWVTdGFtcC0yMDQ4LTIwHQYDVR0OBBYEFEbG
aaMOShQe1UzaUmMXP142vA3mMB8GA1UdIwQYMBaAFF+a9W5czMx0mtTdfe8/2+xM
gC7dMA0GCSqGSIb3DQEBBQUAA4IBAQB4O7SRKgBM8I9iMDd4o4QnB28Yst4l3KDU
lAOqhk4ln5pAAxzdzuN5yyFoBtq2MrRtv/QsJmMz5ElkbQ3mw2cO9wWkNWx8iRbG
6bLfsundIMZxD82VdNy2XN69Nx9DeOZ4tc0oBCCjqvFLxIgpkQ6A0RH83Vx2bk9e
DkVGQW4NsOo4mrE62glxEPwcebSAe6xp9P2ctgwWK/F/Wwk9m1viFsoTgW0ALjgN
qCmPLOGy9FqpAa8VnCwvSRvbIrvD/niUUcOGsYKIXfA9tFGheTMrLnu53CAJE3Hr
ahlbz+ilMFcsiUk/uc9/yb8+ImhjU5q9aXSsxR08f5Lgw7wc2AR1
-----END CERTIFICATE-----

Certificate:
    Data:
        Version: 3 (0x2)
        Serial Number:
            11:21:0c:fb:2a:27:02:26:51:c1:14:64:27:7f:19:40:f4:49
    Signature Algorithm: sha1WithRSAEncryption
        Issuer: C=BE, O=GlobalSign nv-sa, CN=GlobalSign CodeSigning CA - G2
        Validity
            Not Before: Feb 12 00:59:59 2015 GMT
            Not After : Feb 12 00:59:59 2017 GMT
        Subject: C=CN, ST=Shanghai, L=Shanghai, O=Baidu (China) Co., Ltd., CN=Baidu (China) Co., Ltd.
        Subject Public Key Info:
            Public Key Algorithm: rsaEncryption
                Public-Key: (2048 bit)
                Modulus:
                    00:a0:14:ce:ec:f2:4f:ba:01:70:18:eb:9e:ef:46:
                    69:ff:a0:8e:01:47:5c:74:a2:aa:28:05:1b:a0:c8:
                    2c:58:98:88:05:09:fd:c5:52:5b:e8:c8:6e:76:1c:
                    6b:59:62:33:0f:76:bf:6c:95:67:36:4b:a6:15:02:
                    7f:c0:91:45:c9:3e:cf:40:76:30:b0:cd:93:17:4c:
                    f2:70:f4:ed:72:1d:e4:1a:89:14:dd:a1:a3:c7:51:
                    11:ec:f8:b7:24:76:8c:9f:11:e7:68:68:1a:20:fc:
                    ca:fb:17:28:bb:cd:b0:25:32:e0:c3:80:3d:02:f8:
                    5a:83:57:26:1b:74:a6:b3:9d:d9:6b:25:ab:71:7f:
                    15:c7:e3:01:aa:45:e5:d5:ee:37:d4:39:44:d4:0e:
                    10:f3:1f:34:d6:bd:32:65:85:0b:8b:27:81:df:97:
                    d0:66:c1:36:04:29:5e:48:fd:43:bf:9c:18:38:a9:
                    f2:18:ef:b6:54:a3:b0:61:cf:63:9d:84:45:c6:58:
                    cd:3c:51:8a:75:de:fe:8f:d5:79:f8:05:9b:91:bc:
                    37:78:72:4c:91:98:85:9b:3b:5a:6c:79:c7:9d:76:
                    db:f5:2b:7f:02:78:01:d4:48:f7:60:ab:1b:f9:fb:
                    e4:f8:43:f3:22:16:c4:89:ac:e2:78:bf:34:a8:88:
                    3a:e3
                Exponent: 65537 (0x10001)
        X509v3 extensions:
            X509v3 Key Usage: critical
                Digital Signature
            X509v3 Certificate Policies: 
                Policy: 1.3.6.1.4.1.4146.1.50
                  CPS: https://www.globalsign.com/repository/

            X509v3 Basic Constraints: 
                CA:FALSE
            X509v3 Extended Key Usage: 
                Code Signing
            X509v3 CRL Distribution Points: 

                Full Name:
                  URI:http://crl.globalsign.com/gs/gscodesigng2.crl

            Authority Information Access: 
                CA Issuers - URI:http://secure.globalsign.com/cacert/gscodesigng2.crt
                OCSP - URI:http://ocsp2.globalsign.com/gscodesigng2

            X509v3 Subject Key Identifier: 
                6A:76:38:EE:7C:1D:4D:1D:BB:7A:22:74:9C:53:91:CA:5B:EC:4A:C6
            X509v3 Authority Key Identifier: 
                keyid:08:6E:D8:B6:9C:8A:BF:ED:3E:D7:C3:74:5D:CC:80:1F:A8:2F:50:7A

    Signature Algorithm: sha1WithRSAEncryption
         0f:e3:e0:a9:1f:c1:14:54:52:84:4f:ed:ae:5d:a5:fe:fd:16:
         9d:99:51:6b:c2:f0:d3:e1:0d:bc:fc:d0:09:34:7e:94:5e:3d:
         05:e8:7f:46:0a:67:02:34:95:62:39:a0:7e:ce:a3:92:07:ba:
         f6:35:42:93:17:b1:40:7d:17:2d:21:ea:ec:15:5e:27:6c:91:
         7e:e1:31:5d:1e:bf:26:df:3f:7b:b4:5b:0f:de:93:e8:00:86:
         a7:a0:cb:0e:d1:1e:07:da:9d:71:ac:c2:56:2d:00:56:6e:f2:
         6b:3e:ce:f7:b2:83:0d:1a:ba:87:fd:2d:27:57:b5:83:49:b8:
         d3:1e:f9:c8:a6:5b:bd:70:c0:a3:ac:b6:e6:08:d0:54:24:87:
         27:67:27:ba:32:9a:3d:b0:5c:ff:c4:5f:1e:0c:5b:20:81:53:
         79:2d:d4:02:e7:32:9c:fb:05:c7:c2:b6:aa:05:be:09:6a:16:
         de:e0:88:95:fa:1f:d0:32:f9:86:ee:b7:49:42:95:6a:55:49:
         2a:b1:5c:2a:38:3c:71:66:99:15:e2:a0:c9:f5:45:ae:3d:28:
         22:c8:ef:b5:51:af:67:fc:7c:d3:af:28:d3:58:1d:e5:19:11:
         db:ab:17:c4:a7:8e:53:fd:fd:c8:b6:d0:66:89:14:d7:fd:c7:
         31:fb:87:93
-----BEGIN CERTIFICATE-----
MIIE4TCCA8mgAwIBAgISESEM+yonAiZRwRRkJ38ZQPRJMA0GCSqGSIb3DQEBBQUA
MFExCzAJBgNVBAYTAkJFMRkwFwYDVQQKExBHbG9iYWxTaWduIG52LXNhMScwJQYD
VQQDEx5HbG9iYWxTaWduIENvZGVTaWduaW5nIENBIC0gRzIwHhcNMTUwMjEyMDA1
OTU5WhcNMTcwMjEyMDA1OTU5WjB3MQswCQYDVQQGEwJDTjERMA8GA1UECBMIU2hh
bmdoYWkxETAPBgNVBAcTCFNoYW5naGFpMSAwHgYDVQQKExdCYWlkdSAoQ2hpbmEp
IENvLiwgTHRkLjEgMB4GA1UEAxMXQmFpZHUgKENoaW5hKSBDby4sIEx0ZC4wggEi
MA0GCSqGSIb3DQEBAQUAA4IBDwAwggEKAoIBAQCgFM7s8k+6AXAY657vRmn/oI4B
R1x0oqooBRugyCxYmIgFCf3FUlvoyG52HGtZYjMPdr9slWc2S6YVAn/AkUXJPs9A
djCwzZMXTPJw9O1yHeQaiRTdoaPHURHs+LckdoyfEedoaBog/Mr7Fyi7zbAlMuDD
gD0C+FqDVyYbdKazndlrJatxfxXH4wGqReXV7jfUOUTUDhDzHzTWvTJlhQuLJ4Hf
l9BmwTYEKV5I/UO/nBg4qfIY77ZUo7Bhz2OdhEXGWM08UYp13v6P1Xn4BZuRvDd4
ckyRmIWbO1pseceddtv1K38CeAHUSPdgqxv5++T4Q/MiFsSJrOJ4vzSoiDrjAgMB
AAGjggGLMIIBhzAOBgNVHQ8BAf8EBAMCB4AwTAYDVR0gBEUwQzBBBgkrBgEEAaAy
ATIwNDAyBggrBgEFBQcCARYmaHR0cHM6Ly93d3cuZ2xvYmFsc2lnbi5jb20vcmVw
b3NpdG9yeS8wCQYDVR0TBAIwADATBgNVHSUEDDAKBggrBgEFBQcDAzA+BgNVHR8E
NzA1MDOgMaAvhi1odHRwOi8vY3JsLmdsb2JhbHNpZ24uY29tL2dzL2dzY29kZXNp
Z25nMi5jcmwwgYYGCCsGAQUFBwEBBHoweDBABggrBgEFBQcwAoY0aHR0cDovL3Nl
Y3VyZS5nbG9iYWxzaWduLmNvbS9jYWNlcnQvZ3Njb2Rlc2lnbmcyLmNydDA0Bggr
BgEFBQcwAYYoaHR0cDovL29jc3AyLmdsb2JhbHNpZ24uY29tL2dzY29kZXNpZ25n
MjAdBgNVHQ4EFgQUanY47nwdTR27eiJ0nFORylvsSsYwHwYDVR0jBBgwFoAUCG7Y
tpyKv+0+18N0XcyAH6gvUHowDQYJKoZIhvcNAQEFBQADggEBAA/j4KkfwRRUUoRP
7a5dpf79Fp2ZUWvC8NPhDbz80Ak0fpRePQXof0YKZwI0lWI5oH7Oo5IHuvY1QpMX
sUB9Fy0h6uwVXidskX7hMV0evybfP3u0Ww/ek+gAhqegyw7RHgfanXGswlYtAFZu
8ms+zveygw0auof9LSdXtYNJuNMe+cimW71wwKOstuYI0FQkhydnJ7oymj2wXP/E
Xx4MWyCBU3kt1ALnMpz7BcfCtqoFvglqFt7giJX6H9Ay+Ybut0lClWpVSSqxXCo4
PHFmmRXioMn1Ra49KCLI77VRr2f8fNOvKNNYHeUZEdurF8SnjlP9/ci20GaJFNf9
xzH7h5M=
-----END CERTIFICATE-----

Certificate:
    Data:
        Version: 3 (0x2)
        Serial Number:
            61:29:15:27:00:00:00:00:00:2a
    Signature Algorithm: sha1WithRSAEncryption
        Issuer: C=US, ST=Washington, L=Redmond, O=Microsoft Corporation, CN=Microsoft Code Verification Root
        Validity
            Not Before: Apr 15 19:55:08 2011 GMT
            Not After : Apr 15 20:05:08 2021 GMT
        Subject: C=BE, O=GlobalSign nv-sa, OU=Root CA, CN=GlobalSign Root CA
        Subject Public Key Info:
            Public Key Algorithm: rsaEncryption
                Public-Key: (2048 bit)
                Modulus:
                    00:da:0e:e6:99:8d:ce:a3:e3:4f:8a:7e:fb:f1:8b:
                    83:25:6b:ea:48:1f:f1:2a:b0:b9:95:11:04:bd:f0:
                    63:d1:e2:67:66:cf:1c:dd:cf:1b:48:2b:ee:8d:89:
                    8e:9a:af:29:80:65:ab:e9:c7:2d:12:cb:ab:1c:4c:
                    70:07:a1:3d:0a:30:cd:15:8d:4f:f8:dd:d4:8c:50:
                    15:1c:ef:50:ee:c4:2e:f7:fc:e9:52:f2:91:7d:e0:
                    6d:d5:35:30:8e:5e:43:73:f2:41:e9:d5:6a:e3:b2:
                    89:3a:56:39:38:6f:06:3c:88:69:5b:2a:4d:c5:a7:
                    54:b8:6c:89:cc:9b:f9:3c:ca:e5:fd:89:f5:12:3c:
                    92:78:96:d6:dc:74:6e:93:44:61:d1:8d:c7:46:b2:
                    75:0e:86:e8:19:8a:d5:6d:6c:d5:78:16:95:a2:e9:
                    c8:0a:38:eb:f2:24:13:4f:73:54:93:13:85:3a:1b:
                    bc:1e:34:b5:8b:05:8c:b9:77:8b:b1:db:1f:20:91:
                    ab:09:53:6e:90:ce:7b:37:74:b9:70:47:91:22:51:
                    63:16:79:ae:b1:ae:41:26:08:c8:19:2b:d1:46:aa:
                    48:d6:64:2a:d7:83:34:ff:2c:2a:c1:6c:19:43:4a:
                    07:85:e7:d3:7c:f6:21:68:ef:ea:f2:52:9f:7f:93:
                    90:cf
                Exponent: 65537 (0x10001)
        X509v3 extensions:
            X509v3 Certificate Policies: 
                Policy: X509v3 Any Policy

            X509v3 Key Usage: 
                Digital Signature, Certificate Sign, CRL Sign
            X509v3 Basic Constraints: critical
                CA:TRUE
            X509v3 Subject Key Identifier: 
                60:7B:66:1A:45:0D:97:CA:89:50:2F:7D:04:CD:34:A8:FF:FC:FD:4B
            X509v3 Authority Key Identifier: 
                keyid:62:FB:0A:21:5B:7F:43:6E:11:DA:09:54:50:6B:F5:D2:96:71:F1:9E

            X509v3 CRL Distribution Points: 

                Full Name:
                  URI:http://crl.microsoft.com/pki/crl/products/MicrosoftCodeVerifRoot.crl

    Signature Algorithm: sha1WithRSAEncryption
         5f:f8:d0:65:74:6a:81:c6:a6:ca:5b:03:b6:91:4a:e8:4b:bd:
         ef:2b:a1:42:f0:ef:b4:a5:ad:cd:33:89:ec:0b:95:85:ac:62:
         50:11:08:aa:58:d2:5a:a0:83:10:e5:a6:33:7a:f2:5a:f2:c5:
         fe:78:7c:f0:9c:83:df:19:0a:d9:73:96:00:2d:d6:2c:cd:e9:
         14:d4:1d:9d:e8:3f:3c:1a:76:f7:90:4e:fb:01:35:0a:6c:93:
         13:a0:c3:56:eb:67:a0:e4:d1:7a:96:de:c2:67:f1:90:f8:0a:
         7b:f5:32:1b:94:ec:5f:75:1f:8d:1b:34:da:6c:58:a7:cb:2d:
         27:9e:22:26:b7:c9:aa:30:cc:07:77:b8:36:e3:82:01:b5:39:
         3c:cc:8d:d9:a7:5f:7f:23:b3:87:7f:db:57:98:91:8b:d7:ce:
         25:20:e3:9d:64:4f:dd:87:f7:2b:68:49:03:18:e0:a5:df:7c:
         5f:68:64:4d:36:83:8d:47:81:f2:e9:e0:a8:69:ab:fa:7b:16:
         3c:05:a4:49:ea:88:30:19:0a:6c:73:05:51:78:df:d4:1d:dd:
         3a:d4:7f:2d:e4:4e:54:be:83:43:1e:7a:74:33:b4:a4:eb:d7:
         70:73:bc:2a:02:98:89:66:ee:f6:bc:8f:74:93:78:e3:29:02:
         5a:5a:43:e2:58:ce:7c:cf:9a:ca:d2:36:89:3b:e2:5f:da:26:
         05:4e:c8:d4:e7:2c:91:0e:17:97:c5:be:ee:8b:13:11:23:23:
         29:4f:fa:83:d0:50:f6:ba:fa:d5:3d:b3:17:3d:f4:ff:03:4a:
         a3:25:dc:e6:75:61:d1:fa:35:08:6b:d6:27:44:d0:68:b7:8d:
         45:e0:eb:85:2c:c8:a1:5d:61:44:74:16:0e:59:58:ae:d2:b5:
         ee:a5:bc:d6:d7:07:6a:b6:29:78:fd:97:67:67:dd:8d:4f:17:
         94:4f:d2:ed:0c:af:97:24:37:c3:a2:9c:81:da:6b:e1:43:b6:
         57:7b:4c:ec:bf:79:13:19:e7:9f:e8:44:e9:47:81:b7:5e:70:
         1e:91:f8:3d:d1:7b:27:f5:0b:70:56:43:48:05:dd:a9:2f:ab:
         86:10:1d:0b:12:e3:1a:d0:4c:6e:75:de:d6:45:b3:0b:74:88:
         87:93:5c:56:4a:41:02:9a:f7:ae:b7:99:d8:b6:7f:88:fa:11:
         f2:45:7c:f4:d7:1b:91:c0:1c:f1:a0:fb:d4:08:0a:41:1a:14:
         2a:ce:f4:eb:34:48:6e:66:87:9e:d5:4b:7a:39:7f:bb:0e:3d:
         38:61:cf:73:57:06:e4:12:06:6b:d9:6b:53:08:cd:70:18:c2:
         2d:4f:97:46:91:bc:a9:f0
-----BEGIN CERTIFICATE-----
MIIFJjCCAw6gAwIBAgIKYSkVJwAAAAAAKjANBgkqhkiG9w0BAQUFADB/MQswCQYD
VQQGEwJVUzETMBEGA1UECBMKV2FzaGluZ3RvbjEQMA4GA1UEBxMHUmVkbW9uZDEe
MBwGA1UEChMVTWljcm9zb2Z0IENvcnBvcmF0aW9uMSkwJwYDVQQDEyBNaWNyb3Nv
ZnQgQ29kZSBWZXJpZmljYXRpb24gUm9vdDAeFw0xMTA0MTUxOTU1MDhaFw0yMTA0
MTUyMDA1MDhaMFcxCzAJBgNVBAYTAkJFMRkwFwYDVQQKExBHbG9iYWxTaWduIG52
LXNhMRAwDgYDVQQLEwdSb290IENBMRswGQYDVQQDExJHbG9iYWxTaWduIFJvb3Qg
Q0EwggEiMA0GCSqGSIb3DQEBAQUAA4IBDwAwggEKAoIBAQDaDuaZjc6j40+Kfvvx
i4Mla+pIH/EqsLmVEQS98GPR4mdmzxzdzxtIK+6NiY6arymAZavpxy0Sy6scTHAH
oT0KMM0VjU/43dSMUBUc71DuxC73/OlS8pF94G3VNTCOXkNz8kHp1Wrjsok6Vjk4
bwY8iGlbKk3Fp1S4bInMm/k8yuX9ifUSPJJ4ltbcdG6TRGHRjcdGsnUOhugZitVt
bNV4FpWi6cgKOOvyJBNPc1STE4U6G7weNLWLBYy5d4ux2x8gkasJU26Qzns3dLlw
R5EiUWMWea6xrkEmCMgZK9FGqkjWZCrXgzT/LCrBbBlDSgeF59N89iFo7+ryUp9/
k5DPAgMBAAGjgcswgcgwEQYDVR0gBAowCDAGBgRVHSAAMAsGA1UdDwQEAwIBhjAP
BgNVHRMBAf8EBTADAQH/MB0GA1UdDgQWBBRge2YaRQ2XyolQL30EzTSo//z9SzAf
BgNVHSMEGDAWgBRi+wohW39DbhHaCVRQa/XSlnHxnjBVBgNVHR8ETjBMMEqgSKBG
hkRodHRwOi8vY3JsLm1pY3Jvc29mdC5jb20vcGtpL2NybC9wcm9kdWN0cy9NaWNy
b3NvZnRDb2RlVmVyaWZSb290LmNybDANBgkqhkiG9w0BAQUFAAOCAgEAX/jQZXRq
gcamylsDtpFK6Eu97yuhQvDvtKWtzTOJ7AuVhaxiUBEIqljSWqCDEOWmM3ryWvLF
/nh88JyD3xkK2XOWAC3WLM3pFNQdneg/PBp295BO+wE1CmyTE6DDVutnoOTRepbe
wmfxkPgKe/UyG5TsX3UfjRs02mxYp8stJ54iJrfJqjDMB3e4NuOCAbU5PMyN2adf
fyOzh3/bV5iRi9fOJSDjnWRP3Yf3K2hJAxjgpd98X2hkTTaDjUeB8ungqGmr+nsW
PAWkSeqIMBkKbHMFUXjf1B3dOtR/LeROVL6DQx56dDO0pOvXcHO8KgKYiWbu9ryP
dJN44ykCWlpD4ljOfM+aytI2iTviX9omBU7I1OcskQ4Xl8W+7osTESMjKU/6g9BQ
9rr61T2zFz30/wNKoyXc5nVh0fo1CGvWJ0TQaLeNReDrhSzIoV1hRHQWDllYrtK1
7qW81tcHarYpeP2XZ2fdjU8XlE/S7QyvlyQ3w6Kcgdpr4UO2V3tM7L95Exnnn+hE
6UeBt15wHpH4PdF7J/ULcFZDSAXdqS+rhhAdCxLjGtBMbnXe1kWzC3SIh5NcVkpB
Apr3rreZ2LZ/iPoR8kV89NcbkcAc8aD71AgKQRoUKs706zRIbmaHntVLejl/uw49
OGHPc1cG5BIGa9lrUwjNcBjCLU+XRpG8qfA=
-----END CERTIFICATE-----

