Certificate:
    Data:
        Version: 3 (0x2)
        Serial Number:
            4f:63:d0:30:f8:15:a3:a5:b3:44:69:40:06:3d:16:89
    Signature Algorithm: sha1WithRSAEncryption
        Issuer: C=US, ST=UT, L=Salt Lake City, O=The USERTRUST Network, OU=http://www.usertrust.com, CN=UTN-USERFirst-Object
        Validity
            Not Before: May 17 00:00:00 2005 GMT
            Not After : May 16 23:59:59 2010 GMT
        Subject: C=GB, ST=Greater Manchester, L=Salford, O=Comodo CA Limited, CN=Comodo Time Stamping Signer
        Subject Public Key Info:
            Public Key Algorithm: rsaEncryption
                Public-Key: (2048 bit)
                Modulus:
                    00:bc:35:a0:36:70:22:81:11:c3:b2:83:b9:d3:28:
                    c6:36:cd:25:6b:a9:7b:b2:1c:f6:9b:51:9c:ef:35:
                    f4:ed:08:8e:5e:38:08:f8:77:3c:0a:42:e0:f3:70:
                    dc:a3:d7:ca:f5:4c:0b:cf:ff:22:9c:0a:7e:68:d6:
                    09:a2:2a:84:7b:a6:9d:b4:a9:c1:33:e2:ef:1f:17:
                    48:ca:3a:cd:46:e6:c5:aa:77:bd:e3:77:9a:fa:47:
                    53:40:28:59:43:93:f1:a4:81:ea:ef:80:b5:4f:a7:
                    08:ce:ba:6e:bc:ca:76:0c:97:64:59:86:24:bb:3d:
                    82:90:a8:55:b1:92:d3:a0:a7:05:ac:9f:53:25:08:
                    10:47:99:cd:98:de:68:e5:b4:50:78:a3:af:01:cc:
                    59:43:58:e4:76:6e:7e:ac:c7:e2:9e:1f:4f:b0:47:
                    2d:c8:0c:a3:49:27:80:75:8c:bb:06:91:65:0f:90:
                    9b:f4:ba:d1:81:c8:5c:6a:ec:14:e9:25:09:bf:23:
                    16:f4:95:46:40:40:21:bb:83:96:fd:86:1f:7a:c8:
                    0d:10:8e:a2:f8:19:07:58:7f:9f:bd:37:02:60:f2:
                    a4:e9:9d:44:3f:30:05:e4:a7:70:99:51:9a:e8:17:
                    f1:55:ca:b2:61:89:65:46:a7:6a:f2:58:46:7e:aa:
                    a0:07
                Exponent: 65537 (0x10001)
        X509v3 extensions:
            X509v3 Authority Key Identifier: 
                keyid:DA:ED:64:74:14:9C:14:3C:AB:DD:99:A9:BD:5B:28:4D:8B:3C:C9:D8

            X509v3 Subject Key Identifier: 
                2E:2D:B0:0A:44:4A:D3:87:C0:02:07:CE:97:7D:50:62:20:FD:0F:83
            X509v3 Key Usage: critical
                Digital Signature, Non Repudiation
            X509v3 Basic Constraints: critical
                CA:FALSE
            X509v3 Extended Key Usage: critical
                Time Stamping
            X509v3 CRL Distribution Points: 

                Full Name:
                  URI:http://crl.usertrust.com/UTN-USERFirst-Object.crl

    Signature Algorithm: sha1WithRSAEncryption
         4a:8f:fc:1e:30:a8:3c:75:e8:47:e7:73:ae:b0:69:7a:b2:4d:
         bc:50:d6:9a:8f:81:b6:60:2a:f7:02:a5:48:3a:1e:15:c7:18:
         6b:1c:18:a4:c9:df:fd:f1:ce:f7:b8:2a:d6:6d:a7:cd:e5:7d:
         21:3d:1e:3f:74:c8:a2:b8:79:96:28:ae:e1:fa:73:43:f2:7a:
         be:80:2e:67:04:da:17:fa:9e:5a:96:f5:9c:6d:7e:7e:8c:6c:
         81:27:50:7f:68:d8:89:fa:7d:04:59:67:0f:2d:74:e4:99:87:
         d7:c1:e1:5d:11:4a:26:f7:26:10:80:67:c2:c3:f7:cf:34:1b:
         c4:79:21:cc:60:35:bf:a9:60:77:9e:cb:bc:52:32:22:6c:ad:
         da:df:6d:dd:f3:2e:36:cd:c5:a7:54:e0:f4:a4:cc:e3:f5:d4:
         62:4f:99:06:0c:e5:6f:59:6f:11:c7:cf:58:24:bf:af:25:1d:
         45:11:77:99:65:ae:31:d4:5d:48:9d:8c:c3:72:72:29:99:e5:
         0a:f1:b9:cc:5a:3c:48:d3:ff:40:ce:cd:10:03:3d:bf:33:9c:
         08:f3:10:22:2a:47:b0:77:2b:ee:5b:4e:65:e0:d3:23:3c:03:
         c4:cf:2e:45:62:69:0e:1b:d2:0b:f9:f3:20:0f:53:1a:d0:7c:
         71:f1:38:d0
-----BEGIN CERTIFICATE-----
MIIEXDCCA0SgAwIBAgIQT2PQMPgVo6WzRGlABj0WiTANBgkqhkiG9w0BAQUFADCB
lTELMAkGA1UEBhMCVVMxCzAJBgNVBAgTAlVUMRcwFQYDVQQHEw5TYWx0IExha2Ug
Q2l0eTEeMBwGA1UEChMVVGhlIFVTRVJUUlVTVCBOZXR3b3JrMSEwHwYDVQQLExho
dHRwOi8vd3d3LnVzZXJ0cnVzdC5jb20xHTAbBgNVBAMTFFVUTi1VU0VSRmlyc3Qt
T2JqZWN0MB4XDTA1MDUxNzAwMDAwMFoXDTEwMDUxNjIzNTk1OVowfjELMAkGA1UE
BhMCR0IxGzAZBgNVBAgTEkdyZWF0ZXIgTWFuY2hlc3RlcjEQMA4GA1UEBxMHU2Fs
Zm9yZDEaMBgGA1UEChMRQ29tb2RvIENBIExpbWl0ZWQxJDAiBgNVBAMTG0NvbW9k
byBUaW1lIFN0YW1waW5nIFNpZ25lcjCCASIwDQYJKoZIhvcNAQEBBQADggEPADCC
AQoCggEBALw1oDZwIoERw7KDudMoxjbNJWupe7Ic9ptRnO819O0Ijl44CPh3PApC
4PNw3KPXyvVMC8//IpwKfmjWCaIqhHumnbSpwTPi7x8XSMo6zUbmxap3veN3mvpH
U0AoWUOT8aSB6u+AtU+nCM66brzKdgyXZFmGJLs9gpCoVbGS06CnBayfUyUIEEeZ
zZjeaOW0UHijrwHMWUNY5HZufqzH4p4fT7BHLcgMo0kngHWMuwaRZQ+Qm/S60YHI
XGrsFOklCb8jFvSVRkBAIbuDlv2GH3rIDRCOovgZB1h/n703AmDypOmdRD8wBeSn
cJlRmugX8VXKsmGJZUanavJYRn6qoAcCAwEAAaOBvTCBujAfBgNVHSMEGDAWgBTa
7WR0FJwUPKvdmam9WyhNizzJ2DAdBgNVHQ4EFgQULi2wCkRK04fAAgfOl31QYiD9
D4MwDgYDVR0PAQH/BAQDAgbAMAwGA1UdEwEB/wQCMAAwFgYDVR0lAQH/BAwwCgYI
KwYBBQUHAwgwQgYDVR0fBDswOTA3oDWgM4YxaHR0cDovL2NybC51c2VydHJ1c3Qu
Y29tL1VUTi1VU0VSRmlyc3QtT2JqZWN0LmNybDANBgkqhkiG9w0BAQUFAAOCAQEA
So/8HjCoPHXoR+dzrrBperJNvFDWmo+BtmAq9wKlSDoeFccYaxwYpMnf/fHO97gq
1m2nzeV9IT0eP3TIorh5liiu4fpzQ/J6voAuZwTaF/qeWpb1nG1+foxsgSdQf2jY
ifp9BFlnDy105JmH18HhXRFKJvcmEIBnwsP3zzQbxHkhzGA1v6lgd57LvFIyImyt
2t9t3fMuNs3Fp1Tg9KTM4/XUYk+ZBgzlb1lvEcfPWCS/ryUdRRF3mWWuMdRdSJ2M
w3JyKZnlCvG5zFo8SNP/QM7NEAM9vzOcCPMQIipHsHcr7ltOZeDTIzwDxM8uRWJp
DhvSC/nzIA9TGtB8cfE40A==
-----END CERTIFICATE-----

Certificate:
    Data:
        Version: 3 (0x2)
        Serial Number:
            d2:31:1e:2b:04:15:7f:64:57:dc:da:97:db:67:5a:5f
    Signature Algorithm: sha1WithRSAEncryption
        Issuer: C=US, ST=UT, L=Salt Lake City, O=The USERTRUST Network, OU=http://www.usertrust.com, CN=UTN-USERFirst-Object
        Validity
            Not Before: Nov  1 00:00:00 2007 GMT
            Not After : Oct 31 23:59:59 2008 GMT
        Subject: C=BE/postalCode=1180, ST=BRUXELLES CAPITALE, L=BRUSSELS/street=46 Rue Copernic, O=Daniel Riera, CN=Daniel Riera
        Subject Public Key Info:
            Public Key Algorithm: rsaEncryption
                Public-Key: (2048 bit)
                Modulus:
                    00:dd:31:17:61:d3:4d:26:44:af:e2:58:e9:90:1d:
                    9b:9a:ae:6e:93:af:b0:2e:16:c6:78:8a:4b:bb:5b:
                    17:00:bb:1f:8e:47:25:ea:b5:23:03:c1:a4:bd:5a:
                    ed:83:e0:f9:cc:e7:a4:b7:9d:1b:d1:4b:5b:56:ca:
                    93:a4:d8:8f:77:9f:fd:82:08:39:f4:a6:18:39:4e:
                    ca:af:38:11:08:1e:05:03:19:3c:ce:c7:90:18:c4:
                    d3:b3:bf:c2:a5:b7:b0:58:35:f0:43:ca:9b:21:f6:
                    6a:79:d8:d0:2b:2a:89:83:4b:07:18:11:c2:97:ea:
                    33:32:4d:6b:95:6c:07:73:65:7e:13:3c:6d:52:4b:
                    0b:c8:64:27:0e:53:64:e7:5b:f7:b4:8e:4d:2e:d3:
                    be:cd:b5:37:01:e1:c4:49:37:f8:df:f9:30:48:22:
                    ca:49:80:8b:65:45:2f:36:49:8d:af:89:2a:3b:4a:
                    95:c9:d1:86:a3:97:72:1a:14:6e:0a:e7:ec:91:11:
                    98:5a:17:4d:1f:34:f6:f0:fa:58:38:91:db:a6:89:
                    c8:84:45:d1:d2:1c:b2:57:73:0b:7f:ec:53:1b:f2:
                    ac:ce:83:6f:bf:7a:c3:0d:ea:26:f1:55:4f:09:cc:
                    63:40:5b:69:25:be:bb:8d:79:aa:6c:5f:d9:c9:e5:
                    10:ef
                Exponent: 65537 (0x10001)
        X509v3 extensions:
            X509v3 Authority Key Identifier: 
                keyid:DA:ED:64:74:14:9C:14:3C:AB:DD:99:A9:BD:5B:28:4D:8B:3C:C9:D8

            X509v3 Subject Key Identifier: 
                51:BA:7D:4C:9B:F8:49:DA:1E:09:22:DB:F4:CE:99:40:ED:0E:5E:33
            X509v3 Key Usage: critical
                Digital Signature
            X509v3 Basic Constraints: critical
                CA:FALSE
            X509v3 Extended Key Usage: 
                Code Signing
            Netscape Cert Type: 
                Object Signing
            X509v3 Certificate Policies: 
                Policy: 1.3.6.1.4.1.6449.1.2.1.3.2
                  CPS: https://secure.comodo.net/CPS

            X509v3 CRL Distribution Points: 

                Full Name:
                  URI:http://crl.usertrust.com/UTN-USERFirst-Object.crl

            X509v3 Subject Alternative Name: 
                email:rd@rdtechno.com
    Signature Algorithm: sha1WithRSAEncryption
         0f:ef:e9:9b:ae:59:04:69:91:ee:b2:aa:7b:4d:44:66:68:c4:
         13:b3:97:2f:bd:54:aa:88:8c:43:6a:2d:8c:4c:6e:af:b7:72:
         cc:79:c1:3c:61:6f:21:91:92:fb:6d:a0:9e:93:ec:8e:b5:19:
         0e:62:3d:71:8a:2b:96:55:f9:a4:f1:97:73:3f:42:a6:f4:07:
         ad:02:98:37:e8:f8:ba:1d:9f:05:5c:23:14:10:81:40:60:e1:
         bb:2c:83:94:2d:54:a1:88:60:db:51:14:ad:da:af:0d:e9:e9:
         a2:6c:2f:b5:96:15:ca:fd:d8:87:3c:7c:33:f8:34:2c:c2:ed:
         2d:73:74:c6:de:ea:07:29:4c:b1:56:27:59:da:d4:d6:58:59:
         33:51:c9:27:49:32:ca:3f:e6:58:9e:e8:79:04:7a:b8:00:c1:
         9a:25:6f:d6:e6:67:1b:8c:f2:97:16:4a:ec:71:db:b3:57:fc:
         88:60:9d:1d:0e:a1:27:61:e5:a0:31:17:de:a7:a4:a9:e1:1e:
         ed:84:13:1c:84:09:5b:79:f7:ca:f8:bd:ee:a9:6b:05:55:03:
         fd:74:c8:b0:44:87:e4:68:8d:c7:76:fa:23:03:b4:be:a3:e0:
         bd:49:f8:5e:9d:6a:e0:66:56:6f:77:e2:64:4a:12:06:ca:4c:
         83:7d:fa:47
-----BEGIN CERTIFICATE-----
MIIE6jCCA9KgAwIBAgIRANIxHisEFX9kV9zal9tnWl8wDQYJKoZIhvcNAQEFBQAw
gZUxCzAJBgNVBAYTAlVTMQswCQYDVQQIEwJVVDEXMBUGA1UEBxMOU2FsdCBMYWtl
IENpdHkxHjAcBgNVBAoTFVRoZSBVU0VSVFJVU1QgTmV0d29yazEhMB8GA1UECxMY
aHR0cDovL3d3dy51c2VydHJ1c3QuY29tMR0wGwYDVQQDExRVVE4tVVNFUkZpcnN0
LU9iamVjdDAeFw0wNzExMDEwMDAwMDBaFw0wODEwMzEyMzU5NTlaMIGUMQswCQYD
VQQGEwJCRTENMAsGA1UEEQwEMTE4MDEbMBkGA1UECAwSQlJVWEVMTEVTIENBUElU
QUxFMREwDwYDVQQHDAhCUlVTU0VMUzEYMBYGA1UECQwPNDYgUnVlIENvcGVybmlj
MRUwEwYDVQQKDAxEYW5pZWwgUmllcmExFTATBgNVBAMMDERhbmllbCBSaWVyYTCC
ASIwDQYJKoZIhvcNAQEBBQADggEPADCCAQoCggEBAN0xF2HTTSZEr+JY6ZAdm5qu
bpOvsC4WxniKS7tbFwC7H45HJeq1IwPBpL1a7YPg+cznpLedG9FLW1bKk6TYj3ef
/YIIOfSmGDlOyq84EQgeBQMZPM7HkBjE07O/wqW3sFg18EPKmyH2annY0CsqiYNL
BxgRwpfqMzJNa5VsB3NlfhM8bVJLC8hkJw5TZOdb97SOTS7Tvs21NwHhxEk3+N/5
MEgiykmAi2VFLzZJja+JKjtKlcnRhqOXchoUbgrn7JERmFoXTR809vD6WDiR26aJ
yIRF0dIcsldzC3/sUxvyrM6Db796ww3qJvFVTwnMY0BbaSW+u415qmxf2cnlEO8C
AwEAAaOCATIwggEuMB8GA1UdIwQYMBaAFNrtZHQUnBQ8q92Zqb1bKE2LPMnYMB0G
A1UdDgQWBBRRun1Mm/hJ2h4JItv0zplA7Q5eMzAOBgNVHQ8BAf8EBAMCB4AwDAYD
VR0TAQH/BAIwADATBgNVHSUEDDAKBggrBgEFBQcDAzARBglghkgBhvhCAQEEBAMC
BBAwRgYDVR0gBD8wPTA7BgwrBgEEAbIxAQIBAwIwKzApBggrBgEFBQcCARYdaHR0
cHM6Ly9zZWN1cmUuY29tb2RvLm5ldC9DUFMwQgYDVR0fBDswOTA3oDWgM4YxaHR0
cDovL2NybC51c2VydHJ1c3QuY29tL1VUTi1VU0VSRmlyc3QtT2JqZWN0LmNybDAa
BgNVHREEEzARgQ9yZEByZHRlY2huby5jb20wDQYJKoZIhvcNAQEFBQADggEBAA/v
6ZuuWQRpke6yqntNRGZoxBOzly+9VKqIjENqLYxMbq+3csx5wTxhbyGRkvttoJ6T
7I61GQ5iPXGKK5ZV+aTxl3M/Qqb0B60CmDfo+LodnwVcIxQQgUBg4bssg5QtVKGI
YNtRFK3arw3p6aJsL7WWFcr92Ic8fDP4NCzC7S1zdMbe6gcpTLFWJ1na1NZYWTNR
ySdJMso/5lie6HkEergAwZolb9bmZxuM8pcWSuxx27NX/IhgnR0OoSdh5aAxF96n
pKnhHu2EExyECVt598r4ve6pawVVA/10yLBEh+Rojcd2+iMDtL6j4L1J+F6dauBm
Vm934mRKEgbKTIN9+kc=
-----END CERTIFICATE-----

