Certificate:
    Data:
        Version: 3 (0x2)
        Serial Number:
            02:d0:06:79:cb:50:58:2c:5f:cf:e4:e6:1c:32:f3:c0
    Signature Algorithm: sha256WithRSAEncryption
        Issuer: C=GB, ST=Greater Manchester, L=Salford, O=COMODO CA Limited, CN=COMODO RSA Code Signing CA
        Validity
            Not Before: Dec 22 00:00:00 2016 GMT
            Not After : Dec 19 23:59:59 2019 GMT
        Subject: C=RU/postalCode=400005, ST=na, L=Volgograd/street=Prajskya 17-9, O=IP Kuzmitski DV, CN=IP Kuzmitski DV
        Subject Public Key Info:
            Public Key Algorithm: rsaEncryption
                Public-Key: (2048 bit)
                Modulus:
                    00:d3:ef:1c:51:59:7a:5b:08:e9:b7:cb:17:c0:7f:
                    7f:95:cb:53:73:c4:7b:24:80:6c:4a:b4:c7:66:55:
                    88:52:7d:bd:f3:89:8a:04:69:54:0c:b5:71:a9:f4:
                    bd:f2:b5:1b:ea:d0:32:f3:b8:17:c9:60:ae:e9:a4:
                    36:5b:2c:e3:f4:21:c8:65:3b:61:bc:c5:69:3c:2c:
                    7c:06:d1:ec:b5:00:6d:d7:54:fa:cf:84:c7:4d:63:
                    13:aa:7b:4d:ce:b9:be:20:a8:8f:46:95:82:b7:2f:
                    21:bd:c7:ac:5d:0e:e9:61:67:fb:b0:a1:67:45:34:
                    74:29:c6:72:fe:9e:73:c9:ea:a4:d5:5f:4c:34:4c:
                    4d:c5:3c:b6:e9:6e:69:b1:18:6e:a2:8d:a9:01:61:
                    69:ef:1c:c0:d6:e8:b3:0f:e0:17:19:2a:6c:af:0a:
                    9d:d5:f8:5d:d1:90:e4:4c:eb:bc:e9:aa:27:d6:d3:
                    1a:11:bd:d6:25:84:99:75:e6:5d:11:66:0b:09:b5:
                    bc:dd:07:2e:b1:30:b5:fa:28:53:e5:26:80:b3:bd:
                    60:8a:50:5c:13:ce:89:26:2f:12:90:03:12:89:f1:
                    a5:b3:03:aa:67:22:ec:b0:b7:67:e0:b4:8c:b3:91:
                    04:2c:cc:14:05:b0:f5:09:27:29:2f:7f:f2:ec:1b:
                    0e:a3
                Exponent: 65537 (0x10001)
        X509v3 extensions:
            X509v3 Authority Key Identifier: 
                keyid:29:91:60:FF:8A:4D:FA:EB:F9:A6:6A:B8:CF:F9:E6:4B:BD:49:CE:12

            X509v3 Subject Key Identifier: 
                34:90:90:A1:96:F5:EE:ED:F7:E2:36:0C:2F:75:94:E0:05:F9:DC:7F
            X509v3 Key Usage: critical
                Digital Signature
            X509v3 Basic Constraints: critical
                CA:FALSE
            X509v3 Extended Key Usage: 
                Code Signing
            Netscape Cert Type: 
                Object Signing
            X509v3 Certificate Policies: 
                Policy: 1.3.6.1.4.1.6449.1.2.1.3.2
                  CPS: https://secure.comodo.net/CPS

            X509v3 CRL Distribution Points: 

                Full Name:
                  URI:http://crl.comodoca.com/COMODORSACodeSigningCA.crl

            Authority Information Access: 
                CA Issuers - URI:http://crt.comodoca.com/COMODORSACodeSigningCA.crt
                OCSP - URI:http://ocsp.comodoca.com

    Signature Algorithm: sha256WithRSAEncryption
         6d:3e:9f:1d:af:f7:2c:7b:71:47:46:89:57:84:ec:ec:25:99:
         ca:8a:12:8a:09:5d:69:3a:f3:c0:e8:27:59:10:fa:e2:27:b0:
         76:85:4d:a5:86:12:2a:9d:39:30:ec:f3:fc:d5:e8:6b:0d:05:
         b7:bb:1d:d8:1d:88:bd:69:ac:0c:f1:f1:9c:8c:7f:3e:6d:04:
         0c:f7:d1:1d:c0:ab:3a:57:5a:55:3d:d5:67:e7:29:b9:8a:56:
         88:84:36:56:76:41:3d:5d:d5:78:45:0e:de:3c:44:9a:ad:cb:
         a2:2c:fc:47:a2:e1:07:71:f9:76:0c:10:21:87:c3:62:84:b8:
         ac:32:6c:a7:fb:18:ad:7c:75:97:6e:fc:a9:a2:0d:8e:65:26:
         86:09:12:d2:91:36:6d:d3:c3:53:4e:2e:a2:57:7f:e9:2c:0b:
         2b:96:3e:08:6e:e4:ca:09:fa:4b:5a:51:99:02:a9:75:1a:65:
         f6:ed:73:1a:12:34:5d:dd:ad:31:4e:95:98:cf:b7:9f:4e:76:
         4b:53:ee:13:85:b8:56:2c:e2:a4:56:7a:8c:ce:70:a6:75:5c:
         89:93:bd:31:dc:52:3e:c6:16:bf:81:8d:e9:d6:94:3c:a3:6b:
         11:a0:d4:9f:21:47:a6:c9:4e:09:d1:91:c7:28:e1:61:49:9b:
         0b:4f:fb:7f
-----BEGIN CERTIFICATE-----
MIIFIjCCBAqgAwIBAgIQAtAGectQWCxfz+TmHDLzwDANBgkqhkiG9w0BAQsFADB9
MQswCQYDVQQGEwJHQjEbMBkGA1UECBMSR3JlYXRlciBNYW5jaGVzdGVyMRAwDgYD
VQQHEwdTYWxmb3JkMRowGAYDVQQKExFDT01PRE8gQ0EgTGltaXRlZDEjMCEGA1UE
AxMaQ09NT0RPIFJTQSBDb2RlIFNpZ25pbmcgQ0EwHhcNMTYxMjIyMDAwMDAwWhcN
MTkxMjE5MjM1OTU5WjCBizELMAkGA1UEBhMCUlUxDzANBgNVBBEMBjQwMDAwNTEL
MAkGA1UECAwCbmExEjAQBgNVBAcMCVZvbGdvZ3JhZDEWMBQGA1UECQwNUHJhanNr
eWEgMTctOTEYMBYGA1UECgwPSVAgS3V6bWl0c2tpIERWMRgwFgYDVQQDDA9JUCBL
dXptaXRza2kgRFYwggEiMA0GCSqGSIb3DQEBAQUAA4IBDwAwggEKAoIBAQDT7xxR
WXpbCOm3yxfAf3+Vy1NzxHskgGxKtMdmVYhSfb3ziYoEaVQMtXGp9L3ytRvq0DLz
uBfJYK7ppDZbLOP0IchlO2G8xWk8LHwG0ey1AG3XVPrPhMdNYxOqe03Oub4gqI9G
lYK3LyG9x6xdDulhZ/uwoWdFNHQpxnL+nnPJ6qTVX0w0TE3FPLbpbmmxGG6ijakB
YWnvHMDW6LMP4BcZKmyvCp3V+F3RkORM67zpqifW0xoRvdYlhJl15l0RZgsJtbzd
By6xMLX6KFPlJoCzvWCKUFwTzokmLxKQAxKJ8aWzA6pnIuywt2fgtIyzkQQszBQF
sPUJJykvf/LsGw6jAgMBAAGjggGNMIIBiTAfBgNVHSMEGDAWgBQpkWD/ik366/mm
arjP+eZLvUnOEjAdBgNVHQ4EFgQUNJCQoZb17u334jYML3WU4AX53H8wDgYDVR0P
AQH/BAQDAgeAMAwGA1UdEwEB/wQCMAAwEwYDVR0lBAwwCgYIKwYBBQUHAwMwEQYJ
YIZIAYb4QgEBBAQDAgQQMEYGA1UdIAQ/MD0wOwYMKwYBBAGyMQECAQMCMCswKQYI
KwYBBQUHAgEWHWh0dHBzOi8vc2VjdXJlLmNvbW9kby5uZXQvQ1BTMEMGA1UdHwQ8
MDowOKA2oDSGMmh0dHA6Ly9jcmwuY29tb2RvY2EuY29tL0NPTU9ET1JTQUNvZGVT
aWduaW5nQ0EuY3JsMHQGCCsGAQUFBwEBBGgwZjA+BggrBgEFBQcwAoYyaHR0cDov
L2NydC5jb21vZG9jYS5jb20vQ09NT0RPUlNBQ29kZVNpZ25pbmdDQS5jcnQwJAYI
KwYBBQUHMAGGGGh0dHA6Ly9vY3NwLmNvbW9kb2NhLmNvbTANBgkqhkiG9w0BAQsF
AAOCAQEAbT6fHa/3LHtxR0aJV4Ts7CWZyooSigldaTrzwOgnWRD64iewdoVNpYYS
Kp05MOzz/NXoaw0Ft7sd2B2IvWmsDPHxnIx/Pm0EDPfRHcCrOldaVT3VZ+cpuYpW
iIQ2VnZBPV3VeEUO3jxEmq3Loiz8R6LhB3H5dgwQIYfDYoS4rDJsp/sYrXx1l278
qaINjmUmhgkS0pE2bdPDU04uold/6SwLK5Y+CG7kygn6S1pRmQKpdRpl9u1zGhI0
Xd2tMU6VmM+3n052S1PuE4W4VizipFZ6jM5wpnVciZO9MdxSPsYWv4GN6daUPKNr
EaDUnyFHpslOCdGRxyjhYUmbC0/7fw==
-----END CERTIFICATE-----

