Certificate:
    Data:
        Version: 3 (0x2)
        Serial Number:
            47:97:4d:78:73:a5:bc:ab:0d:2f:b3:70:19:2f:ce:5e
    Signature Algorithm: sha1WithRSAEncryption
        Issuer: C=US, O=thawte, Inc., OU=Certification Services Division, OU=(c) 2006 thawte, Inc. - For authorized use only, CN=thawte Primary Root CA
        Validity
            Not Before: Feb  8 00:00:00 2010 GMT
            Not After : Feb  7 23:59:59 2020 GMT
        Subject: C=US, O=Thawte, Inc., CN=Thawte Code Signing CA - G2
        Subject Public Key Info:
            Public Key Algorithm: rsaEncryption
                Public-Key: (2048 bit)
                Modulus:
                    00:b7:8b:cf:75:5b:9f:25:da:7e:39:b0:93:db:38:
                    d3:a9:23:d0:82:fa:e9:24:7e:5c:0b:8e:83:f8:e6:
                    7a:59:e6:a3:c5:98:a7:99:d2:44:ff:00:a6:a5:39:
                    04:8a:da:29:88:ea:db:a2:f3:1c:99:15:26:c2:b1:
                    f4:fc:e1:0c:47:a9:09:11:06:0a:20:92:b9:c7:a0:
                    04:8c:5c:94:19:ab:5b:25:2c:1d:62:7e:70:0d:ce:
                    61:6c:dd:2b:82:c9:ce:5d:48:5f:f7:c2:be:bc:41:
                    23:1e:4f:29:5d:d7:4f:bc:f4:c5:2a:fc:63:e6:7c:
                    26:4e:99:a7:79:41:9e:10:4a:7a:79:c9:c6:86:f7:
                    86:95:d2:26:ce:3c:18:2a:d6:7c:ce:af:cd:ad:bb:
                    f7:82:2c:70:26:37:45:e5:0f:47:22:c6:01:28:bd:
                    2e:83:5c:6a:a4:47:c1:e7:d0:d8:6b:81:46:3f:21:
                    17:f5:07:c5:43:5a:a6:67:2c:b8:7b:60:11:b5:83:
                    ee:f5:74:0a:72:71:44:3d:58:fe:e8:1a:ab:38:c3:
                    59:db:7f:6e:38:7d:76:c7:72:69:98:36:96:57:d3:
                    66:1c:d2:54:91:04:2e:54:19:b0:dc:3d:b5:22:5e:
                    86:d5:2a:7e:20:df:5d:e6:7a:b1:65:fe:c5:02:4e:
                    31:2d
                Exponent: 65537 (0x10001)
        X509v3 extensions:
            X509v3 Basic Constraints: critical
                CA:TRUE, pathlen:0
            X509v3 CRL Distribution Points: 

                Full Name:
                  URI:http://crl.thawte.com/ThawtePCA.crl

            X509v3 Key Usage: critical
                Certificate Sign, CRL Sign
            Authority Information Access: 
                OCSP - URI:http://ocsp.thawte.com

            X509v3 Extended Key Usage: 
                TLS Web Client Authentication, Code Signing
            X509v3 Subject Alternative Name: 
                DirName:/CN=VeriSignMPKI-2-10
            X509v3 Subject Key Identifier: 
                D4:0D:65:3F:7A:BD:34:C6:FE:47:E7:4C:0D:C0:BD:F2:DE:15:AB:71
            X509v3 Authority Key Identifier: 
                keyid:7B:5B:45:CF:AF:CE:CB:7A:FD:31:92:1A:6A:B6:F3:46:EB:57:48:50

    Signature Algorithm: sha1WithRSAEncryption
         56:fe:53:5c:e1:c7:9e:bc:a7:ed:7e:53:6d:6a:14:4b:51:8c:
         40:5e:80:5f:aa:a4:e8:2f:ef:38:c8:04:c9:ca:3e:cf:df:3a:
         58:4e:b0:d4:b6:63:c5:29:57:fa:02:05:9a:45:4d:68:db:2a:
         1b:d4:34:3d:9f:00:c3:5a:cb:95:49:a5:6e:e1:b0:c5:fc:41:
         4d:41:4a:6f:d3:77:c8:d7:38:8d:e4:19:de:18:f3:1f:15:65:
         83:6d:45:0c:53:f9:0a:9a:2e:a5:5d:bf:6f:32:81:18:92:19:
         6a:55:00:ad:63:1c:52:06:7e:55:d9:29:68:ae:4a:7c:18:9a:
         79:88:6b:23:23:d8:27:38:2a:29:87:76:ca:fb:c7:b6:62:23:
         1f:ed:7a:56:4c:dd:9c:32:5b:f5:3d:0c:46:18:95:3b:2a:23:
         68:83:64:41:d9:00:6d:0f:19:24:15:68:72:bd:c5:71:67:6e:
         ac:4c:db:90:eb:51:a5:1a:62:07:d0:be:6a:00:47:3c:72:2f:
         ec:4f:61:3e:73:85:ce:5a:0a:b7:ba:c0:1c:13:75:e3:22:39:
         28:dd:6d:1d:09:46:9d:4f:ba:e8:40:81:91:c6:a4:ce:94:72:
         1b:01:cf:2a:6e:15:67:95:89:ae:7d:b7:b7:cd:f9:0a:3d:75:
         b6:6b:3c:25
-----BEGIN CERTIFICATE-----
MIIEnDCCA4SgAwIBAgIQR5dNeHOlvKsNL7NwGS/OXjANBgkqhkiG9w0BAQUFADCB
qTELMAkGA1UEBhMCVVMxFTATBgNVBAoTDHRoYXd0ZSwgSW5jLjEoMCYGA1UECxMf
Q2VydGlmaWNhdGlvbiBTZXJ2aWNlcyBEaXZpc2lvbjE4MDYGA1UECxMvKGMpIDIw
MDYgdGhhd3RlLCBJbmMuIC0gRm9yIGF1dGhvcml6ZWQgdXNlIG9ubHkxHzAdBgNV
BAMTFnRoYXd0ZSBQcmltYXJ5IFJvb3QgQ0EwHhcNMTAwMjA4MDAwMDAwWhcNMjAw
MjA3MjM1OTU5WjBKMQswCQYDVQQGEwJVUzEVMBMGA1UEChMMVGhhd3RlLCBJbmMu
MSQwIgYDVQQDExtUaGF3dGUgQ29kZSBTaWduaW5nIENBIC0gRzIwggEiMA0GCSqG
SIb3DQEBAQUAA4IBDwAwggEKAoIBAQC3i891W58l2n45sJPbONOpI9CC+ukkflwL
joP45npZ5qPFmKeZ0kT/AKalOQSK2imI6tui8xyZFSbCsfT84QxHqQkRBgogkrnH
oASMXJQZq1slLB1ifnANzmFs3SuCyc5dSF/3wr68QSMeTyld10+89MUq/GPmfCZO
mad5QZ4QSnp5ycaG94aV0ibOPBgq1nzOr82tu/eCLHAmN0XlD0cixgEovS6DXGqk
R8Hn0NhrgUY/IRf1B8VDWqZnLLh7YBG1g+71dApycUQ9WP7oGqs4w1nbf244fXbH
cmmYNpZX02Yc0lSRBC5UGbDcPbUiXobVKn4g313merFl/sUCTjEtAgMBAAGjggEc
MIIBGDASBgNVHRMBAf8ECDAGAQH/AgEAMDQGA1UdHwQtMCswKaAnoCWGI2h0dHA6
Ly9jcmwudGhhd3RlLmNvbS9UaGF3dGVQQ0EuY3JsMA4GA1UdDwEB/wQEAwIBBjAy
BggrBgEFBQcBAQQmMCQwIgYIKwYBBQUHMAGGFmh0dHA6Ly9vY3NwLnRoYXd0ZS5j
b20wHQYDVR0lBBYwFAYIKwYBBQUHAwIGCCsGAQUFBwMDMCkGA1UdEQQiMCCkHjAc
MRowGAYDVQQDExFWZXJpU2lnbk1QS0ktMi0xMDAdBgNVHQ4EFgQU1A1lP3q9NMb+
R+dMDcC98t4Vq3EwHwYDVR0jBBgwFoAUe1tFz6/Oy3r9MZIaarbzRutXSFAwDQYJ
KoZIhvcNAQEFBQADggEBAFb+U1zhx568p+1+U21qFEtRjEBegF+qpOgv7zjIBMnK
Ps/fOlhOsNS2Y8UpV/oCBZpFTWjbKhvUND2fAMNay5VJpW7hsMX8QU1BSm/Td8jX
OI3kGd4Y8x8VZYNtRQxT+QqaLqVdv28ygRiSGWpVAK1jHFIGflXZKWiuSnwYmnmI
ayMj2Cc4KimHdsr7x7ZiIx/telZM3ZwyW/U9DEYYlTsqI2iDZEHZAG0PGSQVaHK9
xXFnbqxM25DrUaUaYgfQvmoARzxyL+xPYT5zhc5aCre6wBwTdeMiOSjdbR0JRp1P
uuhAgZHGpM6UchsBzypuFWeVia59t7fN+Qo9dbZrPCU=
-----END CERTIFICATE-----

Certificate:
    Data:
        Version: 3 (0x2)
        Serial Number:
            7d:45:09:f0:13:75:b3:49:f2:de:66:bf:15:a4:8c:d7
    Signature Algorithm: sha1WithRSAEncryption
        Issuer: C=US, O=Thawte, Inc., CN=Thawte Code Signing CA - G2
        Validity
            Not Before: Jul 25 00:00:00 2014 GMT
            Not After : Aug 28 23:59:59 2016 GMT
        Subject: C=ES, ST=Barcelona, L=Badalona, O=POPELER SYSTEM, S.L., OU=IT, CN=POPELER SYSTEM, S.L.
        Subject Public Key Info:
            Public Key Algorithm: rsaEncryption
                Public-Key: (2048 bit)
                Modulus:
                    00:ae:79:c6:01:9f:2b:fe:83:a8:5c:da:07:c3:0b:
                    b8:ee:9d:c4:0d:c7:75:71:d6:90:f2:db:e1:00:68:
                    4d:60:fd:53:f5:67:e6:b4:1d:71:fd:10:5a:f8:27:
                    81:69:d0:f9:59:26:52:8b:6c:cb:c5:5d:93:4e:e4:
                    cc:f0:de:41:63:61:51:94:6c:60:f8:f4:c9:db:93:
                    7e:b5:a2:c8:57:79:29:e9:28:99:cc:28:63:d2:9d:
                    e2:55:8e:8a:07:c4:e0:48:8c:e8:72:e6:e3:0e:13:
                    f1:af:27:5e:1d:62:c7:ce:6c:b8:b0:28:cf:48:7a:
                    61:f8:97:34:e6:b4:ac:b1:9b:ee:39:e0:8b:11:f8:
                    f4:b0:02:a9:70:46:12:53:e9:ba:51:ab:74:44:a9:
                    9f:6b:52:17:cd:b8:3f:af:1d:36:ae:42:bc:29:19:
                    02:42:5b:26:75:fd:a3:57:44:6d:49:7b:1c:a9:69:
                    81:a1:88:ee:df:6e:82:df:57:34:dc:52:8a:f1:03:
                    52:53:9e:5f:ed:a5:48:7c:74:9a:30:0d:8d:33:3c:
                    07:77:21:46:c6:85:01:3d:e7:be:5e:a4:f2:71:93:
                    7d:89:5c:c9:14:6f:0b:d8:11:8c:41:90:51:6a:a6:
                    93:e6:04:7f:2a:8e:84:08:12:a2:7c:a3:50:3d:87:
                    5e:bd
                Exponent: 65537 (0x10001)
        X509v3 extensions:
            X509v3 Basic Constraints: 
                CA:FALSE
            X509v3 Authority Key Identifier: 
                keyid:D4:0D:65:3F:7A:BD:34:C6:FE:47:E7:4C:0D:C0:BD:F2:DE:15:AB:71

            X509v3 Subject Key Identifier: 
                1E:7D:67:0F:5C:05:B0:E3:9C:28:5E:0D:62:F8:D4:CB:E7:2D:4E:94
            X509v3 CRL Distribution Points: 

                Full Name:
                  URI:http://th.symcb.com/th.crl

            X509v3 Key Usage: critical
                Digital Signature
            X509v3 Extended Key Usage: 
                Code Signing, Microsoft Commercial Code Signing
            X509v3 Certificate Policies: 
                Policy: 2.16.840.1.113733.1.7.48.2
                  CPS: https://d.symcb.com/cps
                  User Notice:
                    Explicit Text: https://d.symcb.com/rpa

            2.5.29.4: 
                0.0.0..
+.....7.......
            Authority Information Access: 
                OCSP - URI:http://th.symcd.com
                CA Issuers - URI:http://th.symcb.com/th.crt

            Netscape Cert Type: 
                Object Signing
    Signature Algorithm: sha1WithRSAEncryption
         1e:8c:1b:dd:92:13:ad:ad:2e:e4:1e:0b:df:4b:83:0f:49:c9:
         d9:ce:9b:c1:a5:ab:fe:69:3e:60:15:f0:0e:d5:01:bb:bc:32:
         ee:63:90:6e:93:d6:d5:7a:35:b5:42:59:99:f3:9e:b7:a3:5d:
         b1:4c:15:00:f8:35:f9:a2:a3:4b:e4:35:6f:e1:d0:18:69:5f:
         fd:c2:9c:0f:25:f2:59:0b:a2:9e:f9:e8:f3:0d:a3:96:b4:97:
         e6:93:dd:87:81:88:d7:07:60:69:90:a3:f2:32:ea:a8:67:e8:
         ec:e1:f7:5a:c3:41:39:57:2c:9d:98:0d:8c:f8:99:3e:ed:0d:
         3d:7e:5c:5c:35:87:e9:0f:3d:33:81:6f:dc:16:7c:21:05:09:
         ff:56:89:89:0f:7a:33:95:9d:20:2c:50:12:53:c2:dc:2b:ed:
         9c:85:3a:2b:70:4e:af:cf:04:fa:1e:8f:24:d9:63:75:c5:be:
         75:40:95:74:8d:d1:a3:6a:19:1e:28:71:d9:76:a8:2a:2a:21:
         17:c7:31:ae:bc:d3:ad:70:36:3c:e5:c3:6e:48:eb:5f:0b:7e:
         17:24:b4:f9:a4:f5:2c:bf:61:9f:1c:a2:2a:ba:0e:7d:b9:d3:
         f7:20:a5:7e:84:f8:5c:d8:f1:21:5d:1a:87:d8:5f:9e:17:17:
         6e:28:38:9b
-----BEGIN CERTIFICATE-----
MIIE9TCCA92gAwIBAgIQfUUJ8BN1s0ny3ma/FaSM1zANBgkqhkiG9w0BAQUFADBK
MQswCQYDVQQGEwJVUzEVMBMGA1UEChMMVGhhd3RlLCBJbmMuMSQwIgYDVQQDExtU
aGF3dGUgQ29kZSBTaWduaW5nIENBIC0gRzIwHhcNMTQwNzI1MDAwMDAwWhcNMTYw
ODI4MjM1OTU5WjB/MQswCQYDVQQGEwJFUzESMBAGA1UECBMJQmFyY2Vsb25hMREw
DwYDVQQHEwhCYWRhbG9uYTEdMBsGA1UEChQUUE9QRUxFUiBTWVNURU0sIFMuTC4x
CzAJBgNVBAsUAklUMR0wGwYDVQQDFBRQT1BFTEVSIFNZU1RFTSwgUy5MLjCCASIw
DQYJKoZIhvcNAQEBBQADggEPADCCAQoCggEBAK55xgGfK/6DqFzaB8MLuO6dxA3H
dXHWkPLb4QBoTWD9U/Vn5rQdcf0QWvgngWnQ+VkmUotsy8Vdk07kzPDeQWNhUZRs
YPj0yduTfrWiyFd5KekomcwoY9Kd4lWOigfE4EiM6HLm4w4T8a8nXh1ix85suLAo
z0h6YfiXNOa0rLGb7jngixH49LACqXBGElPpulGrdESpn2tSF824P68dNq5CvCkZ
AkJbJnX9o1dEbUl7HKlpgaGI7t9ugt9XNNxSivEDUlOeX+2lSHx0mjANjTM8B3ch
RsaFAT3nvl6k8nGTfYlcyRRvC9gRjEGQUWqmk+YEfyqOhAgSonyjUD2HXr0CAwEA
AaOCAaAwggGcMAkGA1UdEwQCMAAwHwYDVR0jBBgwFoAU1A1lP3q9NMb+R+dMDcC9
8t4Vq3EwHQYDVR0OBBYEFB59Zw9cBbDjnCheDWL41MvnLU6UMCsGA1UdHwQkMCIw
IKAeoByGGmh0dHA6Ly90aC5zeW1jYi5jb20vdGguY3JsMA4GA1UdDwEB/wQEAwIH
gDAfBgNVHSUEGDAWBggrBgEFBQcDAwYKKwYBBAGCNwIBFjBmBgNVHSAEXzBdMFsG
C2CGSAGG+EUBBzACMEwwIwYIKwYBBQUHAgEWF2h0dHBzOi8vZC5zeW1jYi5jb20v
Y3BzMCUGCCsGAQUFBwICMBkWF2h0dHBzOi8vZC5zeW1jYi5jb20vcnBhMB0GA1Ud
BAQWMBQwDjAMBgorBgEEAYI3AgEWAwIHgDBXBggrBgEFBQcBAQRLMEkwHwYIKwYB
BQUHMAGGE2h0dHA6Ly90aC5zeW1jZC5jb20wJgYIKwYBBQUHMAKGGmh0dHA6Ly90
aC5zeW1jYi5jb20vdGguY3J0MBEGCWCGSAGG+EIBAQQEAwIEEDANBgkqhkiG9w0B
AQUFAAOCAQEAHowb3ZITra0u5B4L30uDD0nJ2c6bwaWr/mk+YBXwDtUBu7wy7mOQ
bpPW1Xo1tUJZmfOet6NdsUwVAPg1+aKjS+Q1b+HQGGlf/cKcDyXyWQuinvno8w2j
lrSX5pPdh4GI1wdgaZCj8jLqqGfo7OH3WsNBOVcsnZgNjPiZPu0NPX5cXDWH6Q89
M4Fv3BZ8IQUJ/1aJiQ96M5WdICxQElPC3CvtnIU6K3BOr88E+h6PJNljdcW+dUCV
dI3Ro2oZHihx2XaoKiohF8cxrrzTrXA2POXDbkjrXwt+FyS0+aT1LL9hnxyiKroO
fbnT9yClfoT4XNjxIV0ah9hfnhcXbig4mw==
-----END CERTIFICATE-----

