Certificate:
    Data:
        Version: 3 (0x2)
        Serial Number:
            09:bf:af:4e:53:af:50:fd:c0:4c:1e:56:44:a2:9c:ab
    Signature Algorithm: sha1WithRSAEncryption
        Issuer: C=GB, ST=Greater Manchester, L=Salford, O=COMODO CA Limited, CN=COMODO Code Signing CA 2
        Validity
            Not Before: Nov 14 00:00:00 2013 GMT
            Not After : Nov 14 23:59:59 2018 GMT
        Subject: C=DE/postalCode=80335, ST=Bavaria, L=Munich/street=Marsstrasse 78, O=AB-Tools.com GmbH, CN=AB-Tools.com GmbH
        Subject Public Key Info:
            Public Key Algorithm: rsaEncryption
                Public-Key: (2048 bit)
                Modulus:
                    00:bb:7a:23:5d:10:3f:b6:37:ce:2d:ec:f1:1a:b5:
                    15:39:ab:08:99:22:b2:e4:28:e8:44:6e:98:ae:8e:
                    e1:8d:e8:f8:2d:0b:9e:41:54:43:85:e9:97:56:7c:
                    73:8a:5c:ec:68:0c:00:4f:91:1e:3f:06:64:9d:9d:
                    2a:8f:e3:f1:71:05:62:01:23:e1:3e:4e:f1:ce:c9:
                    37:d2:b6:0f:c7:85:1d:73:71:bb:48:e6:e0:e7:c1:
                    89:48:fc:26:e6:ab:7b:b1:ce:63:12:85:bb:bc:67:
                    a7:28:4d:dc:fb:fa:dd:18:6a:f4:4b:3d:de:64:78:
                    eb:e8:9e:41:79:da:e6:b4:5d:e5:d2:9d:ac:1c:e0:
                    3d:6a:04:9f:b9:83:33:21:a0:6c:c0:a3:8d:7e:aa:
                    0a:9d:ab:b7:27:44:e7:d6:1f:85:73:ce:57:73:d3:
                    31:3f:c1:ac:53:6e:56:7d:03:62:10:9d:94:a4:af:
                    00:9d:76:94:09:12:88:ff:67:f6:85:86:94:e0:1d:
                    49:0d:f5:19:c1:ee:d3:04:a1:90:d4:18:59:a8:b2:
                    49:28:99:bf:c0:7d:06:f4:fc:4f:01:4d:44:a2:ba:
                    05:f6:0f:98:86:62:22:80:f5:98:53:56:3c:85:7c:
                    d2:05:d4:04:bd:d8:48:67:1a:a9:3e:9b:31:d1:d5:
                    87:db
                Exponent: 65537 (0x10001)
        X509v3 extensions:
            X509v3 Authority Key Identifier: 
                keyid:1E:C5:B1:2C:7D:87:DA:02:68:7C:25:BC:0C:07:84:3F:B6:CF:DE:F1

            X509v3 Subject Key Identifier: 
                5B:1C:0D:CF:7F:BA:33:5D:74:D3:1E:F0:89:E2:79:E9:D2:D2:4F:1D
            X509v3 Key Usage: critical
                Digital Signature
            X509v3 Basic Constraints: critical
                CA:FALSE
            X509v3 Extended Key Usage: 
                Code Signing
            Netscape Cert Type: 
                Object Signing
            X509v3 Certificate Policies: 
                Policy: 1.3.6.1.4.1.6449.1.2.1.3.2
                  CPS: https://secure.comodo.net/CPS

            X509v3 CRL Distribution Points: 

                Full Name:
                  URI:http://crl.comodoca.com/COMODOCodeSigningCA2.crl

            Authority Information Access: 
                CA Issuers - URI:http://crt.comodoca.com/COMODOCodeSigningCA2.crt
                OCSP - URI:http://ocsp.comodoca.com

            X509v3 Subject Alternative Name: 
                email:a-breitschopp@ab-tools.com
    Signature Algorithm: sha1WithRSAEncryption
         c5:35:88:f5:80:7a:f8:ac:0b:a7:d5:f9:01:0d:a7:9c:9a:cb:
         23:02:b7:57:00:20:ed:bc:00:4c:98:c5:80:34:8b:32:bf:3d:
         18:56:4d:f5:49:f8:d9:90:c0:fe:ce:11:d1:b7:e1:5d:3d:de:
         c3:d6:cd:77:3d:32:7b:07:38:ae:a6:85:a0:65:e2:df:7e:46:
         83:df:b5:4c:0f:58:8e:dd:29:c2:0e:be:37:48:a3:bb:24:f2:
         ea:60:2b:16:ef:4f:fc:33:a6:2b:0f:5f:51:67:53:f6:73:6c:
         ea:73:cd:90:d5:63:74:09:41:cf:65:25:5e:69:26:47:5c:35:
         3f:c8:5d:30:a4:43:88:43:e3:91:f9:1b:1f:3f:ef:a1:c2:81:
         77:76:dc:99:a6:96:c7:2d:76:61:5f:3a:93:f2:ce:52:87:f2:
         99:81:28:e9:a9:02:81:40:87:f5:c6:b4:41:8b:1a:32:6d:45:
         62:b9:c4:c4:fb:31:5c:a8:54:ae:c2:d1:62:85:e7:88:37:f3:
         85:61:93:8c:d9:d0:c7:88:27:6b:2b:d3:7f:d6:8a:51:f5:50:
         a9:4b:6c:0a:a8:05:cb:d5:c5:6a:2e:48:ee:67:6f:68:44:2a:
         37:fb:61:a2:94:1f:a0:56:95:93:2d:79:0f:34:c0:00:06:60:
         32:8b:a1:3e
-----BEGIN CERTIFICATE-----
MIIFSTCCBDGgAwIBAgIQCb+vTlOvUP3ATB5WRKKcqzANBgkqhkiG9w0BAQUFADB7
MQswCQYDVQQGEwJHQjEbMBkGA1UECBMSR3JlYXRlciBNYW5jaGVzdGVyMRAwDgYD
VQQHEwdTYWxmb3JkMRowGAYDVQQKExFDT01PRE8gQ0EgTGltaXRlZDEhMB8GA1UE
AxMYQ09NT0RPIENvZGUgU2lnbmluZyBDQSAyMB4XDTEzMTExNDAwMDAwMFoXDTE4
MTExNDIzNTk1OVowgZExCzAJBgNVBAYTAkRFMQ4wDAYDVQQRDAU4MDMzNTEQMA4G
A1UECAwHQmF2YXJpYTEPMA0GA1UEBwwGTXVuaWNoMRcwFQYDVQQJDA5NYXJzc3Ry
YXNzZSA3ODEaMBgGA1UECgwRQUItVG9vbHMuY29tIEdtYkgxGjAYBgNVBAMMEUFC
LVRvb2xzLmNvbSBHbWJIMIIBIjANBgkqhkiG9w0BAQEFAAOCAQ8AMIIBCgKCAQEA
u3ojXRA/tjfOLezxGrUVOasImSKy5CjoRG6Yro7hjej4LQueQVRDhemXVnxzilzs
aAwAT5EePwZknZ0qj+PxcQViASPhPk7xzsk30rYPx4Udc3G7SObg58GJSPwm5qt7
sc5jEoW7vGenKE3c+/rdGGr0Sz3eZHjr6J5BedrmtF3l0p2sHOA9agSfuYMzIaBs
wKONfqoKnau3J0Tn1h+Fc85Xc9MxP8GsU25WfQNiEJ2UpK8AnXaUCRKI/2f2hYaU
4B1JDfUZwe7TBKGQ1BhZqLJJKJm/wH0G9PxPAU1EoroF9g+YhmIigPWYU1Y8hXzS
BdQEvdhIZxqpPpsx0dWH2wIDAQABo4IBsDCCAawwHwYDVR0jBBgwFoAUHsWxLH2H
2gJofCW8DAeEP7bP3vEwHQYDVR0OBBYEFFscDc9/ujNddNMe8InieenS0k8dMA4G
A1UdDwEB/wQEAwIHgDAMBgNVHRMBAf8EAjAAMBMGA1UdJQQMMAoGCCsGAQUFBwMD
MBEGCWCGSAGG+EIBAQQEAwIEEDBGBgNVHSAEPzA9MDsGDCsGAQQBsjEBAgEDAjAr
MCkGCCsGAQUFBwIBFh1odHRwczovL3NlY3VyZS5jb21vZG8ubmV0L0NQUzBBBgNV
HR8EOjA4MDagNKAyhjBodHRwOi8vY3JsLmNvbW9kb2NhLmNvbS9DT01PRE9Db2Rl
U2lnbmluZ0NBMi5jcmwwcgYIKwYBBQUHAQEEZjBkMDwGCCsGAQUFBzAChjBodHRw
Oi8vY3J0LmNvbW9kb2NhLmNvbS9DT01PRE9Db2RlU2lnbmluZ0NBMi5jcnQwJAYI
KwYBBQUHMAGGGGh0dHA6Ly9vY3NwLmNvbW9kb2NhLmNvbTAlBgNVHREEHjAcgRph
LWJyZWl0c2Nob3BwQGFiLXRvb2xzLmNvbTANBgkqhkiG9w0BAQUFAAOCAQEAxTWI
9YB6+KwLp9X5AQ2nnJrLIwK3VwAg7bwATJjFgDSLMr89GFZN9Un42ZDA/s4R0bfh
XT3ew9bNdz0yewc4rqaFoGXi335Gg9+1TA9Yjt0pwg6+N0ijuyTy6mArFu9P/DOm
Kw9fUWdT9nNs6nPNkNVjdAlBz2UlXmkmR1w1P8hdMKRDiEPjkfkbHz/vocKBd3bc
maaWxy12YV86k/LOUofymYEo6akCgUCH9ca0QYsaMm1FYrnExPsxXKhUrsLRYoXn
iDfzhWGTjNnQx4gnayvTf9aKUfVQqUtsCqgFy9XFai5I7mdvaEQqN/thopQfoFaV
ky15DzTAAAZgMouhPg==
-----END CERTIFICATE-----

