Certificate:
    Data:
        Version: 3 (0x2)
        Serial Number:
            63:c5:0f:1a:43:7b:00:78:c7:ed:3d:bf:9b:02:27:0e
    Signature Algorithm: sha1WithRSAEncryption
        Issuer: C=US, ST=UT, L=Salt Lake City, O=The USERTRUST Network, OU=http://www.usertrust.com, CN=UTN-USERFirst-Object
        Validity
            Not Before: Aug 11 00:00:00 2009 GMT
            Not After : Aug 11 23:59:59 2010 GMT
        Subject: C=IT/postalCode=17027, ST=SV, L=Pietra Ligure/street=V.le Riviera 82/464, O=Visual Vision, CN=Visual Vision
        Subject Public Key Info:
            Public Key Algorithm: rsaEncryption
                Public-Key: (2048 bit)
                Modulus:
                    00:ed:23:d7:b1:59:ac:d3:eb:05:48:90:07:62:1b:
                    94:78:14:41:36:04:fb:c8:92:05:a2:e1:56:57:f0:
                    c7:3a:cc:86:e1:22:6f:3d:c0:97:11:b2:1f:da:1c:
                    f9:fb:7c:26:0d:89:29:b6:8e:c8:cd:b1:3a:e4:6f:
                    be:6b:38:ab:87:be:04:0d:bc:92:16:3c:42:a7:0a:
                    aa:b9:b7:96:5a:2f:5f:fd:01:dd:c0:a1:59:4b:55:
                    5b:3d:5d:ab:40:30:c3:04:bb:72:d9:b7:64:ec:a8:
                    9a:ec:ea:e1:26:bc:12:64:eb:ca:cd:d6:43:de:52:
                    36:96:4e:02:f4:ea:f7:ca:6d:e9:bf:f7:1c:7a:47:
                    76:3b:f7:e2:65:82:5e:f0:fd:cf:95:d2:9c:3f:a9:
                    ed:cb:12:e7:01:3a:fd:d4:f5:62:de:08:ee:9b:3a:
                    72:83:9d:6b:55:65:dd:2a:8c:1e:09:05:f0:08:05:
                    9c:6a:b8:64:20:e7:fa:24:55:d1:ed:2c:cd:24:b9:
                    a1:18:95:f0:05:d0:25:9d:8d:ab:0c:10:40:86:b1:
                    30:44:f3:42:96:fb:23:1d:6d:96:91:bd:97:8c:88:
                    ba:ab:1b:9a:74:a1:be:2e:9e:28:ab:96:57:34:d0:
                    3c:19:4e:b0:af:c3:ec:f6:f8:d7:82:1f:a8:10:0a:
                    e6:ff
                Exponent: 65537 (0x10001)
        X509v3 extensions:
            X509v3 Authority Key Identifier: 
                keyid:DA:ED:64:74:14:9C:14:3C:AB:DD:99:A9:BD:5B:28:4D:8B:3C:C9:D8

            X509v3 Subject Key Identifier: 
                9D:B4:24:16:96:60:0F:6E:56:2E:F9:78:9D:CC:71:85:A9:D6:65:61
            X509v3 Key Usage: critical
                Digital Signature
            X509v3 Basic Constraints: critical
                CA:FALSE
            X509v3 Extended Key Usage: 
                Code Signing
            Netscape Cert Type: 
                Object Signing
            X509v3 Certificate Policies: 
                Policy: 1.3.6.1.4.1.6449.1.2.1.3.2
                  CPS: https://secure.comodo.net/CPS

            X509v3 CRL Distribution Points: 

                Full Name:
                  URI:http://crl.usertrust.com/UTN-USERFirst-Object.crl

            Authority Information Access: 
                OCSP - URI:http://ocsp.comodoca.com

            X509v3 Subject Alternative Name: 
                email:info@visualvision.com
    Signature Algorithm: sha1WithRSAEncryption
         a1:5a:dd:0e:46:cc:7b:1d:a0:cb:1a:18:c9:f7:f9:fd:1c:f7:
         10:cb:2d:44:33:56:62:9d:fc:61:83:83:26:cf:80:aa:dd:aa:
         9c:d9:28:b9:b5:85:58:13:11:6f:c0:8e:5a:93:a6:c8:70:79:
         ca:61:45:18:ff:b7:60:5a:fc:84:6e:5e:cd:ee:85:93:88:02:
         a5:73:dd:8b:c5:88:53:6b:72:5f:32:a1:db:ee:71:dd:87:ee:
         11:d5:15:fa:76:46:0f:1c:c7:d3:85:61:6c:6c:36:d9:5e:53:
         95:65:99:ce:5c:c0:b4:ff:49:80:da:07:a8:40:9c:97:54:1f:
         0b:bd:0b:ee:2b:5c:37:0b:de:f4:54:64:82:60:82:0c:f7:4d:
         77:0c:2d:46:f6:6e:51:2b:92:37:a9:0b:d4:15:b1:87:75:97:
         5b:bf:bf:1f:27:d2:56:32:93:bb:c9:9c:cc:11:a4:a1:8c:b7:
         44:98:8d:87:8d:af:a2:60:54:93:f9:3f:67:56:04:32:58:68:
         70:6b:14:6d:88:5f:86:a4:87:ce:60:af:c2:63:2d:0d:4f:b5:
         d5:7b:a2:88:25:45:53:ae:af:86:1b:47:a7:30:a6:fe:42:19:
         d1:23:57:ed:68:d6:82:1a:79:7d:a8:f1:4f:e2:a2:de:78:ce:
         a8:41:40:07
-----BEGIN CERTIFICATE-----
MIIFITCCBAmgAwIBAgIQY8UPGkN7AHjH7T2/mwInDjANBgkqhkiG9w0BAQUFADCB
lTELMAkGA1UEBhMCVVMxCzAJBgNVBAgTAlVUMRcwFQYDVQQHEw5TYWx0IExha2Ug
Q2l0eTEeMBwGA1UEChMVVGhlIFVTRVJUUlVTVCBOZXR3b3JrMSEwHwYDVQQLExho
dHRwOi8vd3d3LnVzZXJ0cnVzdC5jb20xHTAbBgNVBAMTFFVUTi1VU0VSRmlyc3Qt
T2JqZWN0MB4XDTA5MDgxMTAwMDAwMFoXDTEwMDgxMTIzNTk1OVowgZAxCzAJBgNV
BAYTAklUMQ4wDAYDVQQRDAUxNzAyNzELMAkGA1UECAwCU1YxFjAUBgNVBAcMDVBp
ZXRyYSBMaWd1cmUxHDAaBgNVBAkME1YubGUgUml2aWVyYSA4Mi80NjQxFjAUBgNV
BAoMDVZpc3VhbCBWaXNpb24xFjAUBgNVBAMMDVZpc3VhbCBWaXNpb24wggEiMA0G
CSqGSIb3DQEBAQUAA4IBDwAwggEKAoIBAQDtI9exWazT6wVIkAdiG5R4FEE2BPvI
kgWi4VZX8Mc6zIbhIm89wJcRsh/aHPn7fCYNiSm2jsjNsTrkb75rOKuHvgQNvJIW
PEKnCqq5t5ZaL1/9Ad3AoVlLVVs9XatAMMMEu3LZt2TsqJrs6uEmvBJk68rN1kPe
UjaWTgL06vfKbem/9xx6R3Y79+Jlgl7w/c+V0pw/qe3LEucBOv3U9WLeCO6bOnKD
nWtVZd0qjB4JBfAIBZxquGQg5/okVdHtLM0kuaEYlfAF0CWdjasMEECGsTBE80KW
+yMdbZaRvZeMiLqrG5p0ob4uniirllc00DwZTrCvw+z2+NeCH6gQCub/AgMBAAGj
ggFuMIIBajAfBgNVHSMEGDAWgBTa7WR0FJwUPKvdmam9WyhNizzJ2DAdBgNVHQ4E
FgQUnbQkFpZgD25WLvl4ncxxhanWZWEwDgYDVR0PAQH/BAQDAgeAMAwGA1UdEwEB
/wQCMAAwEwYDVR0lBAwwCgYIKwYBBQUHAwMwEQYJYIZIAYb4QgEBBAQDAgQQMEYG
A1UdIAQ/MD0wOwYMKwYBBAGyMQECAQMCMCswKQYIKwYBBQUHAgEWHWh0dHBzOi8v
c2VjdXJlLmNvbW9kby5uZXQvQ1BTMEIGA1UdHwQ7MDkwN6A1oDOGMWh0dHA6Ly9j
cmwudXNlcnRydXN0LmNvbS9VVE4tVVNFUkZpcnN0LU9iamVjdC5jcmwwNAYIKwYB
BQUHAQEEKDAmMCQGCCsGAQUFBzABhhhodHRwOi8vb2NzcC5jb21vZG9jYS5jb20w
IAYDVR0RBBkwF4EVaW5mb0B2aXN1YWx2aXNpb24uY29tMA0GCSqGSIb3DQEBBQUA
A4IBAQChWt0ORsx7HaDLGhjJ9/n9HPcQyy1EM1Zinfxhg4Mmz4Cq3aqc2Si5tYVY
ExFvwI5ak6bIcHnKYUUY/7dgWvyEbl7N7oWTiAKlc92LxYhTa3JfMqHb7nHdh+4R
1RX6dkYPHMfThWFsbDbZXlOVZZnOXMC0/0mA2geoQJyXVB8LvQvuK1w3C970VGSC
YIIM9013DC1G9m5RK5I3qQvUFbGHdZdbv78fJ9JWMpO7yZzMEaShjLdEmI2Hja+i
YFST+T9nVgQyWGhwaxRtiF+GpIfOYK/CYy0NT7XVe6KIJUVTrq+GG0enMKb+QhnR
I1ftaNaCGnl9qPFP4qLeeM6oQUAH
-----END CERTIFICATE-----

