Certificate:
    Data:
        Version: 3 (0x2)
        Serial Number:
            7e:93:eb:fb:7c:c6:4e:59:ea:4b:9a:77:d4:06:fc:3b
    Signature Algorithm: sha1WithRSAEncryption
        Issuer: C=ZA, ST=Western Cape, L=Durbanville, O=Thawte, OU=Thawte Certification, CN=Thawte Timestamping CA
        Validity
            Not Before: Dec 21 00:00:00 2012 GMT
            Not After : Dec 30 23:59:59 2020 GMT
        Subject: C=US, O=Symantec Corporation, CN=Symantec Time Stamping Services CA - G2
        Subject Public Key Info:
            Public Key Algorithm: rsaEncryption
                Public-Key: (2048 bit)
                Modulus:
                    00:b1:ac:b3:49:54:4b:97:1c:12:0a:d8:25:79:91:
                    22:57:2a:6f:dc:b8:26:c4:43:73:6b:c2:bf:2e:50:
                    5a:fb:14:c2:76:8e:43:01:25:43:b4:a1:e2:45:f4:
                    e8:b7:7b:c3:74:cc:22:d7:b4:94:00:02:f7:4d:ed:
                    bf:b4:b7:44:24:6b:cd:5f:45:3b:d1:44:ce:43:12:
                    73:17:82:8b:69:b4:2b:cb:99:1e:ac:72:1b:26:4d:
                    71:1f:b1:31:dd:fb:51:61:02:53:a6:aa:f5:49:2c:
                    05:78:45:a5:2f:89:ce:e7:99:e7:fe:8c:e2:57:3f:
                    3d:c6:92:dc:4a:f8:7b:33:e4:79:0a:fb:f0:75:88:
                    41:9c:ff:c5:03:51:99:aa:d7:6c:9f:93:69:87:65:
                    29:83:85:c2:60:14:c4:c8:c9:3b:14:da:c0:81:f0:
                    1f:0d:74:de:92:22:ab:ca:f7:fb:74:7c:27:e6:f7:
                    4a:1b:7f:a7:c3:9e:2d:ae:8a:ea:a6:e6:aa:27:16:
                    7d:61:f7:98:71:11:bc:e2:50:a1:4b:e5:5d:fa:e5:
                    0e:a7:2c:9f:aa:65:20:d3:d8:96:e8:c8:7c:a5:4e:
                    48:44:ff:19:e2:44:07:92:0b:d7:68:84:80:5d:6a:
                    78:64:45:cd:60:46:7e:54:c1:13:7c:c5:79:f1:c9:
                    c1:71
                Exponent: 65537 (0x10001)
        X509v3 extensions:
            X509v3 Subject Key Identifier: 
                5F:9A:F5:6E:5C:CC:CC:74:9A:D4:DD:7D:EF:3F:DB:EC:4C:80:2E:DD
            Authority Information Access: 
                OCSP - URI:http://ocsp.thawte.com

            X509v3 Basic Constraints: critical
                CA:TRUE, pathlen:0
            X509v3 CRL Distribution Points: 

                Full Name:
                  URI:http://crl.thawte.com/ThawteTimestampingCA.crl

            X509v3 Extended Key Usage: 
                Time Stamping
            X509v3 Key Usage: critical
                Certificate Sign, CRL Sign
            X509v3 Subject Alternative Name: 
                DirName:/CN=TimeStamp-2048-1
    Signature Algorithm: sha1WithRSAEncryption
         03:09:9b:8f:79:ef:7f:59:30:aa:ef:68:b5:fa:e3:09:1d:bb:
         4f:82:06:5d:37:5f:a6:52:9f:16:8d:ea:1c:92:09:44:6e:f5:
         6d:eb:58:7c:30:e8:f9:69:8d:23:73:0b:12:6f:47:a9:ae:39:
         11:f8:2a:b1:9b:b0:1a:c3:8e:eb:59:96:00:ad:ce:0c:4d:b2:
         d0:31:a6:08:5c:2a:7a:fc:e2:7a:1d:57:4c:a8:65:18:e9:79:
         40:62:25:96:6e:c7:c7:37:6a:83:21:08:8e:41:ea:dd:d9:57:
         3f:1d:77:49:87:2a:16:06:5e:a6:38:6a:22:12:a3:51:19:83:
         7e:b6
-----BEGIN CERTIFICATE-----
MIID7jCCA1egAwIBAgIQfpPr+3zGTlnqS5p31Ab8OzANBgkqhkiG9w0BAQUFADCB
izELMAkGA1UEBhMCWkExFTATBgNVBAgTDFdlc3Rlcm4gQ2FwZTEUMBIGA1UEBxML
RHVyYmFudmlsbGUxDzANBgNVBAoTBlRoYXd0ZTEdMBsGA1UECxMUVGhhd3RlIENl
cnRpZmljYXRpb24xHzAdBgNVBAMTFlRoYXd0ZSBUaW1lc3RhbXBpbmcgQ0EwHhcN
MTIxMjIxMDAwMDAwWhcNMjAxMjMwMjM1OTU5WjBeMQswCQYDVQQGEwJVUzEdMBsG
A1UEChMUU3ltYW50ZWMgQ29ycG9yYXRpb24xMDAuBgNVBAMTJ1N5bWFudGVjIFRp
bWUgU3RhbXBpbmcgU2VydmljZXMgQ0EgLSBHMjCCASIwDQYJKoZIhvcNAQEBBQAD
ggEPADCCAQoCggEBALGss0lUS5ccEgrYJXmRIlcqb9y4JsRDc2vCvy5QWvsUwnaO
QwElQ7Sh4kX06Ld7w3TMIte0lAAC903tv7S3RCRrzV9FO9FEzkMScxeCi2m0K8uZ
HqxyGyZNcR+xMd37UWECU6aq9UksBXhFpS+JzueZ5/6M4lc/PcaS3Er4ezPkeQr7
8HWIQZz/xQNRmarXbJ+TaYdlKYOFwmAUxMjJOxTawIHwHw103pIiq8r3+3R8J+b3
Sht/p8OeLa6K6qbmqicWfWH3mHERvOJQoUvlXfrlDqcsn6plINPYlujIfKVOSET/
GeJEB5IL12iEgF1qeGRFzWBGflTBE3zFefHJwXECAwEAAaOB+jCB9zAdBgNVHQ4E
FgQUX5r1blzMzHSa1N197z/b7EyALt0wMgYIKwYBBQUHAQEEJjAkMCIGCCsGAQUF
BzABhhZodHRwOi8vb2NzcC50aGF3dGUuY29tMBIGA1UdEwEB/wQIMAYBAf8CAQAw
PwYDVR0fBDgwNjA0oDKgMIYuaHR0cDovL2NybC50aGF3dGUuY29tL1RoYXd0ZVRp
bWVzdGFtcGluZ0NBLmNybDATBgNVHSUEDDAKBggrBgEFBQcDCDAOBgNVHQ8BAf8E
BAMCAQYwKAYDVR0RBCEwH6QdMBsxGTAXBgNVBAMTEFRpbWVTdGFtcC0yMDQ4LTEw
DQYJKoZIhvcNAQEFBQADgYEAAwmbj3nvf1kwqu9otfrjCR27T4IGXTdfplKfFo3q
HJIJRG71betYfDDo+WmNI3MLEm9Hqa45EfgqsZuwGsOO61mWAK3ODE2y0DGmCFwq
evzieh1XTKhlGOl5QGIllm7HxzdqgyEIjkHq3dlXPx13SYcqFgZepjhqIhKjURmD
frY=
-----END CERTIFICATE-----

Certificate:
    Data:
        Version: 3 (0x2)
        Serial Number:
            1a:95:48:62:00:01:00:00:05:f5
    Signature Algorithm: sha1WithRSAEncryption
        Issuer: O=Dell Inc., CN=Dell Inc. Enterprise Issuing CA2
        Validity
            Not Before: May 11 22:26:41 2012 GMT
            Not After : May 11 22:36:41 2014 GMT
        Subject: C=US, ST=TX, L=Round Rock, O=Dell Inc., OU=IS, CN=Dell Inc.
        Subject Public Key Info:
            Public Key Algorithm: rsaEncryption
                Public-Key: (1024 bit)
                Modulus:
                    00:c5:8e:11:ec:be:a6:1b:0f:c7:d8:5d:4a:77:fb:
                    20:23:52:8e:ad:b5:5a:91:c3:3c:24:2a:ff:40:d9:
                    92:f2:7b:da:8c:4d:e0:74:a2:2a:74:d9:96:cb:63:
                    1e:9b:59:bd:a7:1a:72:24:75:87:50:3a:ee:3b:e1:
                    06:6b:1d:d7:ef:4a:ed:19:81:aa:07:93:cd:7b:88:
                    9c:27:5c:f2:05:a1:1b:d2:5d:de:a5:3d:61:7c:d1:
                    04:e1:1b:9b:9d:18:7f:34:21:0b:f3:7c:db:46:41:
                    f4:21:d3:3f:df:2c:2c:de:cb:43:82:10:92:a3:08:
                    b9:1c:f5:de:de:56:f0:0b:c9
                Exponent: 65537 (0x10001)
        X509v3 extensions:
            1.3.6.1.4.1.311.21.7: 
                0..&+.....7.....l...........5...Z3..._......d...
            X509v3 Extended Key Usage: 
                Code Signing
            X509v3 Key Usage: 
                Digital Signature
            1.3.6.1.4.1.311.21.10: 
                0.0
..+.......
            X509v3 Subject Key Identifier: 
                33:FB:16:26:4C:D9:27:D7:BA:DA:7B:89:63:43:9A:B1:BE:94:B2:D2
            X509v3 Authority Key Identifier: 
                keyid:32:92:67:0C:FE:54:6F:03:50:74:96:F2:57:AA:B1:3F:A3:D6:E3:DF

            X509v3 CRL Distribution Points: 

                Full Name:
                  URI:http://dellincca.dell.com/crl/externalissuingca2.crl

            Authority Information Access: 
                CA Issuers - URI:http://dellincca.dell.com/aia/externalissuingca2.crt

    Signature Algorithm: sha1WithRSAEncryption
         2a:e2:28:11:e5:15:70:a9:6c:7e:7d:29:76:5b:6c:b3:ee:f2:
         76:85:72:86:19:f7:e7:8f:bb:12:d9:60:29:d0:d7:dd:86:0f:
         dc:91:91:62:a7:02:4b:6f:f7:1f:aa:78:bf:62:e0:db:f1:8a:
         fd:c5:48:89:13:f2:40:96:ce:0a:c1:7a:6e:9f:78:98:e0:85:
         fc:d5:f1:da:c5:8c:6b:69:4b:e9:1d:53:8d:50:ae:13:90:b6:
         dc:cf:3a:d9:e4:48:f1:79:70:01:0d:4e:37:13:68:0a:73:d7:
         32:fc:b4:32:d3:7c:2c:0f:70:44:72:6a:1d:59:3b:a0:50:34:
         a2:20:a2:0b:e7:15:74:75:df:c6:39:5d:38:bb:02:61:76:ce:
         22:99:03:8e:b7:f2:03:72:30:42:58:4f:11:3f:3d:58:88:34:
         06:67:55:17:18:bb:f7:b5:ce:22:60:b1:04:39:37:37:bb:0b:
         7c:20:60:84:00:6c:68:0e:57:83:a3:02:6c:a1:65:e6:ba:e5:
         06:36:98:7d:b0:98:cc:11:f5:85:a1:d5:4a:b9:89:52:b9:ed:
         73:81:cf:ef:eb:4f:31:7a:df:fa:43:7e:df:aa:59:75:3a:41:
         62:56:60:0c:4a:c3:17:a8:3c:f9:3a:e4:43:6e:03:c0:51:53:
         23:8e:ad:72
-----BEGIN CERTIFICATE-----
MIIEADCCAuigAwIBAgIKGpVIYgABAAAF9TANBgkqhkiG9w0BAQUFADA/MRIwEAYD
VQQKEwlEZWxsIEluYy4xKTAnBgNVBAMTIERlbGwgSW5jLiBFbnRlcnByaXNlIElz
c3VpbmcgQ0EyMB4XDTEyMDUxMTIyMjY0MVoXDTE0MDUxMTIyMzY0MVowZDELMAkG
A1UEBhMCVVMxCzAJBgNVBAgTAlRYMRMwEQYDVQQHEwpSb3VuZCBSb2NrMRIwEAYD
VQQKEwlEZWxsIEluYy4xCzAJBgNVBAsTAklTMRIwEAYDVQQDEwlEZWxsIEluYy4w
gZ8wDQYJKoZIhvcNAQEBBQADgY0AMIGJAoGBAMWOEey+phsPx9hdSnf7ICNSjq21
WpHDPCQq/0DZkvJ72oxN4HSiKnTZlstjHptZvacaciR1h1A67jvhBmsd1+9K7RmB
qgeTzXuInCdc8gWhG9Jd3qU9YXzRBOEbm50YfzQhC/N820ZB9CHTP98sLN7LQ4IQ
kqMIuRz13t5W8AvJAgMBAAGjggFbMIIBVzA9BgkrBgEEAYI3FQcEMDAuBiYrBgEE
AYI3FQiHuNlsgYT4CIa9jQ+F84A1grOZWjOFw+1fha/BGgIBZAIBEzATBgNVHSUE
DDAKBggrBgEFBQcDAzALBgNVHQ8EBAMCB4AwGwYJKwYBBAGCNxUKBA4wDDAKBggr
BgEFBQcDAzAdBgNVHQ4EFgQUM/sWJkzZJ9e62nuJY0Oasb6UstIwHwYDVR0jBBgw
FoAUMpJnDP5UbwNQdJbyV6qxP6PW498wRQYDVR0fBD4wPDA6oDigNoY0aHR0cDov
L2RlbGxpbmNjYS5kZWxsLmNvbS9jcmwvZXh0ZXJuYWxpc3N1aW5nY2EyLmNybDBQ
BggrBgEFBQcBAQREMEIwQAYIKwYBBQUHMAKGNGh0dHA6Ly9kZWxsaW5jY2EuZGVs
bC5jb20vYWlhL2V4dGVybmFsaXNzdWluZ2NhMi5jcnQwDQYJKoZIhvcNAQEFBQAD
ggEBACriKBHlFXCpbH59KXZbbLPu8naFcoYZ9+ePuxLZYCnQ192GD9yRkWKnAktv
9x+qeL9i4Nvxiv3FSIkT8kCWzgrBem6feJjghfzV8drFjGtpS+kdU41QrhOQttzP
OtnkSPF5cAENTjcTaApz1zL8tDLTfCwPcERyah1ZO6BQNKIgogvnFXR138Y5XTi7
AmF2ziKZA4638gNyMEJYTxE/PViINAZnVRcYu/e1ziJgsQQ5Nze7C3wgYIQAbGgO
V4OjAmyhZea65QY2mH2wmMwR9YWh1Uq5iVK57XOBz+/rTzF63/pDft+qWXU6QWJW
YAxKwxeoPPk65ENuA8BRUyOOrXI=
-----END CERTIFICATE-----

Certificate:
    Data:
        Version: 3 (0x2)
        Serial Number:
            10:4f:47:1b:00:00:00:00:00:1c
    Signature Algorithm: sha1WithRSAEncryption
        Issuer: O=Dell Inc., CN=Dell Inc. Enterprise CA
        Validity
            Not Before: Jan 19 20:03:11 2012 GMT
            Not After : Jan 19 20:13:11 2017 GMT
        Subject: O=Dell Inc., CN=Dell Inc. Enterprise Issuing CA2
        Subject Public Key Info:
            Public Key Algorithm: rsaEncryption
                Public-Key: (2048 bit)
                Modulus:
                    00:a6:ed:90:3c:97:6b:7b:a6:2a:ca:f7:93:eb:68:
                    32:6f:56:d4:10:39:1d:c0:f2:f2:48:7d:c1:33:3b:
                    c3:f0:61:5f:68:8e:c2:b3:3d:c5:28:02:3a:cf:c2:
                    ad:d7:49:59:1e:05:f2:33:93:2b:04:d7:31:2a:7a:
                    2a:53:21:3c:0a:9b:c6:ff:37:ac:c7:36:fb:a8:16:
                    ed:f5:fb:65:f1:b3:30:f5:f8:b0:30:f1:95:06:1f:
                    cc:32:05:a9:07:c2:d4:0b:9c:35:58:74:60:15:79:
                    f1:91:16:68:67:b1:a0:93:1c:83:d1:3d:f3:d2:c9:
                    49:5d:f5:a5:19:2e:a3:5f:9b:49:99:fa:48:83:83:
                    04:22:9b:52:eb:22:03:cf:4b:bc:22:6d:af:b5:84:
                    01:db:5e:15:c4:5b:e3:54:21:86:81:c8:34:8e:e4:
                    77:72:06:8f:d9:c2:a6:77:3f:0e:db:a1:e8:a2:e3:
                    4b:72:b3:36:14:9e:8a:4e:bd:6d:7f:5c:65:fc:c7:
                    0b:e3:b5:01:8f:2e:91:85:af:e5:44:e5:14:0d:22:
                    9c:3f:a6:a8:74:0a:cc:a7:13:39:87:7b:3b:b9:df:
                    10:e8:26:84:5c:e5:ab:90:9b:16:60:a1:7f:56:4e:
                    19:78:80:fa:69:db:43:ac:5d:b3:b4:c8:f4:d7:17:
                    cc:e7
                Exponent: 65537 (0x10001)
        X509v3 extensions:
            1.3.6.1.4.1.311.21.1: 
                ...
            1.3.6.1.4.1.311.21.2: 
                ..q.....{..W.2G;+ ...W
            X509v3 Subject Key Identifier: 
                32:92:67:0C:FE:54:6F:03:50:74:96:F2:57:AA:B1:3F:A3:D6:E3:DF
            1.3.6.1.4.1.311.20.2: 
                .
.S.u.b.C.A
            X509v3 Key Usage: 
                Digital Signature, Certificate Sign, CRL Sign
            X509v3 Basic Constraints: critical
                CA:TRUE, pathlen:0
            X509v3 Authority Key Identifier: 
                keyid:A4:66:21:0E:01:41:B8:F5:E9:F1:71:C6:D0:38:D2:05:35:69:AA:13

            X509v3 CRL Distribution Points: 

                Full Name:
                  URI:http://dellincca.dell.com/crl/Dell%20Inc.%20Enterprise%20CA.crl

            Authority Information Access: 
                CA Issuers - URI:http://dellincca.dell.com/crl/Dell%20Inc.%20Enterprise%20CA.crt

    Signature Algorithm: sha1WithRSAEncryption
         3e:ad:c7:f9:ed:fb:09:b6:5c:fc:02:8e:a1:e0:7b:0b:bc:54:
         cb:a8:cf:d8:0c:0e:cc:42:9b:f9:e3:a5:44:ba:19:3c:d7:e9:
         36:2d:88:bb:ae:9a:a1:58:f0:7e:f6:57:80:01:af:aa:ac:29:
         43:8c:0d:14:d5:b5:0a:d5:c1:99:35:b9:c8:25:4c:d5:d9:30:
         4a:77:32:cc:5e:ba:f1:ea:4d:52:e2:bf:60:6f:d2:6a:a4:78:
         ed:ad:b0:2e:a0:d5:83:b5:d6:02:bf:7a:51:fe:08:06:03:2d:
         17:5f:d9:1d:f2:87:bc:8e:62:21:fc:3a:f7:41:99:c2:1d:ee:
         ce:58:f1:4d:2a:ab:4c:fd:55:94:4f:ee:b3:88:b6:15:4f:ff:
         58:30:61:21:91:1e:83:41:99:93:44:3f:54:0d:73:fd:0d:c4:
         d4:69:6b:90:98:87:b7:4e:57:19:fd:d2:08:47:77:b9:72:ae:
         0c:ff:0f:55:c6:6d:85:fd:6b:5e:6e:0e:2b:4f:71:00:3c:b9:
         01:fd:fc:3a:84:8f:28:b1:bc:93:48:84:4f:a5:2a:89:d1:a7:
         1b:c9:63:9c:52:7e:48:3d:43:59:13:7e:21:d4:6d:8e:c4:de:
         e2:44:a2:07:8b:73:07:c6:92:ba:2b:80:31:12:40:49:55:f4:
         de:cd:6e:8a
-----BEGIN CERTIFICATE-----
MIIEYTCCA0mgAwIBAgIKEE9HGwAAAAAAHDANBgkqhkiG9w0BAQUFADA2MRIwEAYD
VQQKEwlEZWxsIEluYy4xIDAeBgNVBAMTF0RlbGwgSW5jLiBFbnRlcnByaXNlIENB
MB4XDTEyMDExOTIwMDMxMVoXDTE3MDExOTIwMTMxMVowPzESMBAGA1UEChMJRGVs
bCBJbmMuMSkwJwYDVQQDEyBEZWxsIEluYy4gRW50ZXJwcmlzZSBJc3N1aW5nIENB
MjCCASIwDQYJKoZIhvcNAQEBBQADggEPADCCAQoCggEBAKbtkDyXa3umKsr3k+to
Mm9W1BA5HcDy8kh9wTM7w/BhX2iOwrM9xSgCOs/CrddJWR4F8jOTKwTXMSp6KlMh
PAqbxv83rMc2+6gW7fX7ZfGzMPX4sDDxlQYfzDIFqQfC1AucNVh0YBV58ZEWaGex
oJMcg9E989LJSV31pRkuo1+bSZn6SIODBCKbUusiA89LvCJtr7WEAdteFcRb41Qh
hoHINI7kd3IGj9nCpnc/Dtuh6KLjS3KzNhSeik69bX9cZfzHC+O1AY8ukYWv5UTl
FA0inD+mqHQKzKcTOYd7O7nfEOgmhFzlq5CbFmChf1ZOGXiA+mnbQ6xds7TI9NcX
zOcCAwEAAaOCAWYwggFiMBAGCSsGAQQBgjcVAQQDAgEBMCMGCSsGAQQBgjcVAgQW
BBRxLsSf/MB77NxXoTJHOysg3QnrVzAdBgNVHQ4EFgQUMpJnDP5UbwNQdJbyV6qx
P6PW498wGQYJKwYBBAGCNxQCBAweCgBTAHUAYgBDAEEwCwYDVR0PBAQDAgGGMBIG
A1UdEwEB/wQIMAYBAf8CAQAwHwYDVR0jBBgwFoAUpGYhDgFBuPXp8XHG0DjSBTVp
qhMwUAYDVR0fBEkwRzBFoEOgQYY/aHR0cDovL2RlbGxpbmNjYS5kZWxsLmNvbS9j
cmwvRGVsbCUyMEluYy4lMjBFbnRlcnByaXNlJTIwQ0EuY3JsMFsGCCsGAQUFBwEB
BE8wTTBLBggrBgEFBQcwAoY/aHR0cDovL2RlbGxpbmNjYS5kZWxsLmNvbS9jcmwv
RGVsbCUyMEluYy4lMjBFbnRlcnByaXNlJTIwQ0EuY3J0MA0GCSqGSIb3DQEBBQUA
A4IBAQA+rcf57fsJtlz8Ao6h4HsLvFTLqM/YDA7MQpv546VEuhk81+k2LYi7rpqh
WPB+9leAAa+qrClDjA0U1bUK1cGZNbnIJUzV2TBKdzLMXrrx6k1S4r9gb9JqpHjt
rbAuoNWDtdYCv3pR/ggGAy0XX9kd8oe8jmIh/Dr3QZnCHe7OWPFNKqtM/VWUT+6z
iLYVT/9YMGEhkR6DQZmTRD9UDXP9DcTUaWuQmIe3TlcZ/dIIR3e5cq4M/w9Vxm2F
/Wtebg4rT3EAPLkB/fw6hI8osbyTSIRPpSqJ0acbyWOcUn5IPUNZE34h1G2OxN7i
RKIHi3MHxpK6K4AxEkBJVfTezW6K
-----END CERTIFICATE-----

Certificate:
    Data:
        Version: 3 (0x2)
        Serial Number: 67109806 (0x40003ae)
    Signature Algorithm: sha1WithRSAEncryption
        Issuer: C=US, O=GTE Corporation, OU=GTE CyberTrust Solutions, Inc., CN=GTE CyberTrust Global Root
        Validity
            Not Before: Nov 17 15:25:00 2004 GMT
            Not After : Aug 13 23:59:00 2018 GMT
        Subject: O=Dell Inc., CN=Dell Inc. Enterprise CA
        Subject Public Key Info:
            Public Key Algorithm: rsaEncryption
                Public-Key: (2048 bit)
                Modulus:
                    00:9c:cd:61:a3:c7:be:22:1f:1d:7b:a4:8d:d6:97:
                    07:45:98:41:56:4c:bd:84:7a:8c:6a:45:03:67:56:
                    e9:fc:d7:c8:ea:56:72:36:60:0e:40:d6:74:49:66:
                    32:08:94:b9:95:59:b7:20:d0:23:36:aa:29:81:99:
                    b3:b6:9a:4b:08:4c:6d:36:81:07:13:72:53:22:3e:
                    a7:14:f3:f1:ed:c9:a3:bb:71:6f:d1:b9:3b:7d:0f:
                    87:f7:d4:02:76:20:87:d7:62:0c:01:5f:07:e7:bc:
                    f6:a6:99:ec:b4:bf:94:d0:b4:75:af:4e:0a:6f:12:
                    b0:ca:8f:b1:a3:ed:8b:16:1e:f4:25:5a:98:43:bd:
                    ce:85:c0:82:0b:70:f7:13:56:eb:c3:2c:53:a8:da:
                    0b:f9:c1:57:9c:fc:9f:58:df:c7:f2:36:f5:e1:c2:
                    21:e5:95:d5:ae:7f:cc:9d:bc:5a:39:2e:3b:e7:c7:
                    9d:2f:e8:20:55:7e:90:ce:06:59:d6:8a:4d:6e:e9:
                    1d:fe:40:38:7a:26:e9:c5:fc:87:f0:d9:8a:02:5e:
                    d5:fb:d9:ff:e9:92:8c:f2:eb:ed:fa:54:2f:ea:f9:
                    03:9f:99:22:15:23:3f:3a:56:f7:8f:90:33:e8:d2:
                    38:b1:a7:4d:c4:c1:40:8d:56:2c:79:c7:2e:cf:a6:
                    1a:3f
                Exponent: 65537 (0x10001)
        X509v3 extensions:
            X509v3 CRL Distribution Points: 

                Full Name:
                  URI:http://www.public-trust.com/cgi-bin/CRL/2018/cdp.crl

            X509v3 Subject Key Identifier: 
                A4:66:21:0E:01:41:B8:F5:E9:F1:71:C6:D0:38:D2:05:35:69:AA:13
            X509v3 Certificate Policies: 
                Policy: 1.3.6.1.4.1.6334.1.0
                  CPS: http://www.public-trust.com/CPS/OmniRoot.html
                Policy: 1.3.6.1.4.1.674.1.5.0.5.1
                  User Notice:
                    Explicit Text: Dell Inc. Certificate Practices Statement
                  CPS: http://dellincca.dell.com/cps/dellinccps.htm

            X509v3 Authority Key Identifier: 
                DirName:/C=US/O=GTE Corporation/OU=GTE CyberTrust Solutions, Inc./CN=GTE CyberTrust Global Root
                serial:01:A5

            X509v3 Key Usage: critical
                Digital Signature, Non Repudiation, Key Encipherment, Certificate Sign, CRL Sign
            X509v3 Basic Constraints: critical
                CA:TRUE, pathlen:1
    Signature Algorithm: sha1WithRSAEncryption
         6b:5e:d4:f9:3b:49:aa:65:7f:f2:d1:5b:57:3c:27:68:4d:4a:
         e7:87:56:ef:ac:18:50:57:c0:17:90:71:62:39:0f:3f:3c:73:
         f8:ac:69:c1:67:93:a9:da:b3:cd:b7:92:8b:2c:74:c7:d1:56:
         93:a8:e2:12:05:f9:09:e5:61:9e:0d:cc:b1:6c:05:98:c1:a0:
         0f:dc:79:10:49:fd:3e:44:bd:b8:1e:74:8e:35:9c:76:6e:60:
         12:bc:bd:09:d1:7a:3e:ea:ee:29:dd:8f:c7:51:a7:58:9c:b0:
         47:5b:a8:bd:87:4b:31:72:96:a4:64:4c:39:01:0b:57:9e:f0:
         38:36
-----BEGIN CERTIFICATE-----
MIIEojCCBAugAwIBAgIEBAADrjANBgkqhkiG9w0BAQUFADB1MQswCQYDVQQGEwJV
UzEYMBYGA1UEChMPR1RFIENvcnBvcmF0aW9uMScwJQYDVQQLEx5HVEUgQ3liZXJU
cnVzdCBTb2x1dGlvbnMsIEluYy4xIzAhBgNVBAMTGkdURSBDeWJlclRydXN0IEds
b2JhbCBSb290MB4XDTA0MTExNzE1MjUwMFoXDTE4MDgxMzIzNTkwMFowNjESMBAG
A1UEChMJRGVsbCBJbmMuMSAwHgYDVQQDExdEZWxsIEluYy4gRW50ZXJwcmlzZSBD
QTCCASIwDQYJKoZIhvcNAQEBBQADggEPADCCAQoCggEBAJzNYaPHviIfHXukjdaX
B0WYQVZMvYR6jGpFA2dW6fzXyOpWcjZgDkDWdElmMgiUuZVZtyDQIzaqKYGZs7aa
SwhMbTaBBxNyUyI+pxTz8e3Jo7txb9G5O30Ph/fUAnYgh9diDAFfB+e89qaZ7LS/
lNC0da9OCm8SsMqPsaPtixYe9CVamEO9zoXAggtw9xNW68MsU6jaC/nBV5z8n1jf
x/I29eHCIeWV1a5/zJ28WjkuO+fHnS/oIFV+kM4GWdaKTW7pHf5AOHom6cX8h/DZ
igJe1fvZ/+mSjPLr7fpUL+r5A5+ZIhUjPzpW94+QM+jSOLGnTcTBQI1WLHnHLs+m
Gj8CAwEAAaOCAfgwggH0MEUGA1UdHwQ+MDwwOqA4oDaGNGh0dHA6Ly93d3cucHVi
bGljLXRydXN0LmNvbS9jZ2ktYmluL0NSTC8yMDE4L2NkcC5jcmwwHQYDVR0OBBYE
FKRmIQ4BQbj16fFxxtA40gU1aaoTMIHbBgNVHSAEgdMwgdAwSAYJKwYBBAGxPgEA
MDswOQYIKwYBBQUHAgEWLWh0dHA6Ly93d3cucHVibGljLXRydXN0LmNvbS9DUFMv
T21uaVJvb3QuaHRtbDCBgwYMKwYBBAGFIgEFAAUBMHMwNwYIKwYBBQUHAgIwKxop
RGVsbCBJbmMuIENlcnRpZmljYXRlIFByYWN0aWNlcyBTdGF0ZW1lbnQwOAYIKwYB
BQUHAgEWLGh0dHA6Ly9kZWxsaW5jY2EuZGVsbC5jb20vY3BzL2RlbGxpbmNjcHMu
aHRtMIGJBgNVHSMEgYEwf6F5pHcwdTELMAkGA1UEBhMCVVMxGDAWBgNVBAoTD0dU
RSBDb3Jwb3JhdGlvbjEnMCUGA1UECxMeR1RFIEN5YmVyVHJ1c3QgU29sdXRpb25z
LCBJbmMuMSMwIQYDVQQDExpHVEUgQ3liZXJUcnVzdCBHbG9iYWwgUm9vdIICAaUw
DgYDVR0PAQH/BAQDAgHmMBIGA1UdEwEB/wQIMAYBAf8CAQEwDQYJKoZIhvcNAQEF
BQADgYEAa17U+TtJqmV/8tFbVzwnaE1K54dW76wYUFfAF5BxYjkPPzxz+KxpwWeT
qdqzzbeSiyx0x9FWk6jiEgX5CeVhng3MsWwFmMGgD9x5EEn9PkS9uB50jjWcdm5g
Ery9CdF6PuruKd2Px1GnWJywR1uovYdLMXKWpGRMOQELV57wODY=
-----END CERTIFICATE-----

Certificate:
    Data:
        Version: 3 (0x2)
        Serial Number:
            0e:cf:f4:38:c8:fe:bf:35:6e:04:d8:6a:98:1b:1a:50
    Signature Algorithm: sha1WithRSAEncryption
        Issuer: C=US, O=Symantec Corporation, CN=Symantec Time Stamping Services CA - G2
        Validity
            Not Before: Oct 18 00:00:00 2012 GMT
            Not After : Dec 29 23:59:59 2020 GMT
        Subject: C=US, O=Symantec Corporation, CN=Symantec Time Stamping Services Signer - G4
        Subject Public Key Info:
            Public Key Algorithm: rsaEncryption
                Public-Key: (2048 bit)
                Modulus:
                    00:a2:63:0b:39:44:b8:bb:23:a7:44:49:bb:0e:ff:
                    a1:f0:61:0a:53:93:b0:98:db:ad:2c:0f:4a:c5:6e:
                    ff:86:3c:53:55:0f:15:ce:04:3f:2b:fd:a9:96:96:
                    d9:be:61:79:0b:5b:c9:4c:86:76:e5:e0:43:4b:22:
                    95:ee:c2:2b:43:c1:9f:d8:68:b4:8e:40:4f:ee:85:
                    38:b9:11:c5:23:f2:64:58:f0:15:32:6f:4e:57:a1:
                    ae:88:a4:02:d7:2a:1e:cd:4b:e1:dd:63:d5:17:89:
                    32:5b:b0:5e:99:5a:a8:9d:28:50:0e:17:ee:96:db:
                    61:3b:45:51:1d:cf:12:56:0b:92:47:fc:ab:ae:f6:
                    66:3d:47:ac:70:72:e7:92:e7:5f:cd:10:b9:c4:83:
                    64:94:19:bd:25:80:e1:e8:d2:22:a5:d0:ba:02:7a:
                    a1:77:93:5b:65:c3:ee:17:74:bc:41:86:2a:dc:08:
                    4c:8c:92:8c:91:2d:9e:77:44:1f:68:d6:a8:74:77:
                    db:0e:5b:32:8b:56:8b:33:bd:d9:63:c8:49:9d:3a:
                    c5:c5:ea:33:0b:d2:f1:a3:1b:f4:8b:be:d9:b3:57:
                    8b:3b:de:04:a7:7a:22:b2:24:ae:2e:c7:70:c5:be:
                    4e:83:26:08:fb:0b:bd:a9:4f:99:08:e1:10:28:72:
                    aa:cd
                Exponent: 65537 (0x10001)
        X509v3 extensions:
            X509v3 Basic Constraints: critical
                CA:FALSE
            X509v3 Extended Key Usage: critical
                Time Stamping
            X509v3 Key Usage: critical
                Digital Signature
            Authority Information Access: 
                OCSP - URI:http://ts-ocsp.ws.symantec.com
                CA Issuers - URI:http://ts-aia.ws.symantec.com/tss-ca-g2.cer

            X509v3 CRL Distribution Points: 

                Full Name:
                  URI:http://ts-crl.ws.symantec.com/tss-ca-g2.crl

            X509v3 Subject Alternative Name: 
                DirName:/CN=TimeStamp-2048-2
            X509v3 Subject Key Identifier: 
                46:C6:69:A3:0E:4A:14:1E:D5:4C:DA:52:63:17:3F:5E:36:BC:0D:E6
            X509v3 Authority Key Identifier: 
                keyid:5F:9A:F5:6E:5C:CC:CC:74:9A:D4:DD:7D:EF:3F:DB:EC:4C:80:2E:DD

    Signature Algorithm: sha1WithRSAEncryption
         78:3b:b4:91:2a:00:4c:f0:8f:62:30:37:78:a3:84:27:07:6f:
         18:b2:de:25:dc:a0:d4:94:03:aa:86:4e:25:9f:9a:40:03:1c:
         dd:ce:e3:79:cb:21:68:06:da:b6:32:b4:6d:bf:f4:2c:26:63:
         33:e4:49:64:6d:0d:e6:c3:67:0e:f7:05:a4:35:6c:7c:89:16:
         c6:e9:b2:df:b2:e9:dd:20:c6:71:0f:cd:95:74:dc:b6:5c:de:
         bd:37:1f:43:78:e6:78:b5:cd:28:04:20:a3:aa:f1:4b:c4:88:
         29:91:0e:80:d1:11:fc:dd:5c:76:6e:4f:5e:0e:45:46:41:6e:
         0d:b0:ea:38:9a:b1:3a:da:09:71:10:fc:1c:79:b4:80:7b:ac:
         69:f4:fd:9c:b6:0c:16:2b:f1:7f:5b:09:3d:9b:5b:e2:16:ca:
         13:81:6d:00:2e:38:0d:a8:29:8f:2c:e1:b2:f4:5a:a9:01:af:
         15:9c:2c:2f:49:1b:db:22:bb:c3:fe:78:94:51:c3:86:b1:82:
         88:5d:f0:3d:b4:51:a1:79:33:2b:2e:7b:b9:dc:20:09:13:71:
         eb:6a:19:5b:cf:e8:a5:30:57:2c:89:49:3f:b9:cf:7f:c9:bf:
         3e:22:68:63:53:9a:bd:69:74:ac:c5:1d:3c:7f:92:e0:c3:bc:
         1c:d8:04:75
-----BEGIN CERTIFICATE-----
MIIEozCCA4ugAwIBAgIQDs/0OMj+vzVuBNhqmBsaUDANBgkqhkiG9w0BAQUFADBe
MQswCQYDVQQGEwJVUzEdMBsGA1UEChMUU3ltYW50ZWMgQ29ycG9yYXRpb24xMDAu
BgNVBAMTJ1N5bWFudGVjIFRpbWUgU3RhbXBpbmcgU2VydmljZXMgQ0EgLSBHMjAe
Fw0xMjEwMTgwMDAwMDBaFw0yMDEyMjkyMzU5NTlaMGIxCzAJBgNVBAYTAlVTMR0w
GwYDVQQKExRTeW1hbnRlYyBDb3Jwb3JhdGlvbjE0MDIGA1UEAxMrU3ltYW50ZWMg
VGltZSBTdGFtcGluZyBTZXJ2aWNlcyBTaWduZXIgLSBHNDCCASIwDQYJKoZIhvcN
AQEBBQADggEPADCCAQoCggEBAKJjCzlEuLsjp0RJuw7/ofBhClOTsJjbrSwPSsVu
/4Y8U1UPFc4EPyv9qZaW2b5heQtbyUyGduXgQ0sile7CK0PBn9hotI5AT+6FOLkR
xSPyZFjwFTJvTlehroikAtcqHs1L4d1j1ReJMluwXplaqJ0oUA4X7pbbYTtFUR3P
ElYLkkf8q672Zj1HrHBy55LnX80QucSDZJQZvSWA4ejSIqXQugJ6oXeTW2XD7hd0
vEGGKtwITIySjJEtnndEH2jWqHR32w5bMotWizO92WPISZ06xcXqMwvS8aMb9Iu+
2bNXizveBKd6IrIkri7HcMW+ToMmCPsLvalPmQjhEChyqs0CAwEAAaOCAVcwggFT
MAwGA1UdEwEB/wQCMAAwFgYDVR0lAQH/BAwwCgYIKwYBBQUHAwgwDgYDVR0PAQH/
BAQDAgeAMHMGCCsGAQUFBwEBBGcwZTAqBggrBgEFBQcwAYYeaHR0cDovL3RzLW9j
c3Aud3Muc3ltYW50ZWMuY29tMDcGCCsGAQUFBzAChitodHRwOi8vdHMtYWlhLndz
LnN5bWFudGVjLmNvbS90c3MtY2EtZzIuY2VyMDwGA1UdHwQ1MDMwMaAvoC2GK2h0
dHA6Ly90cy1jcmwud3Muc3ltYW50ZWMuY29tL3Rzcy1jYS1nMi5jcmwwKAYDVR0R
BCEwH6QdMBsxGTAXBgNVBAMTEFRpbWVTdGFtcC0yMDQ4LTIwHQYDVR0OBBYEFEbG
aaMOShQe1UzaUmMXP142vA3mMB8GA1UdIwQYMBaAFF+a9W5czMx0mtTdfe8/2+xM
gC7dMA0GCSqGSIb3DQEBBQUAA4IBAQB4O7SRKgBM8I9iMDd4o4QnB28Yst4l3KDU
lAOqhk4ln5pAAxzdzuN5yyFoBtq2MrRtv/QsJmMz5ElkbQ3mw2cO9wWkNWx8iRbG
6bLfsundIMZxD82VdNy2XN69Nx9DeOZ4tc0oBCCjqvFLxIgpkQ6A0RH83Vx2bk9e
DkVGQW4NsOo4mrE62glxEPwcebSAe6xp9P2ctgwWK/F/Wwk9m1viFsoTgW0ALjgN
qCmPLOGy9FqpAa8VnCwvSRvbIrvD/niUUcOGsYKIXfA9tFGheTMrLnu53CAJE3Hr
ahlbz+ilMFcsiUk/uc9/yb8+ImhjU5q9aXSsxR08f5Lgw7wc2AR1
-----END CERTIFICATE-----

