Certificate:
    Data:
        Version: 3 (0x2)
        Serial Number:
            33:00:00:00:c1:b6:fd:cd:a1:35:97:4e:25:00:00:00:00:00:c1
    Signature Algorithm: sha256WithRSAEncryption
        Issuer: C=US, ST=Washington, L=Redmond, O=Microsoft Corporation, CN=Microsoft Code Signing PCA 2011
        Validity
            Not Before: Jul 24 20:34:25 2017 GMT
            Not After : Jul 25 20:34:25 2018 GMT
        Subject: C=US, ST=Washington, L=Redmond, O=Microsoft Corporation, CN=Skype Software Sarl
        Subject Public Key Info:
            Public Key Algorithm: rsaEncryption
                Public-Key: (2048 bit)
                Modulus:
                    00:b9:d8:46:bf:3d:db:31:d1:fb:7d:ce:cb:5a:5f:
                    cd:67:6a:61:12:cb:38:49:41:81:42:7a:66:64:92:
                    dd:f9:02:be:bb:b6:8b:90:72:4c:f3:0e:7a:8a:ea:
                    b7:18:0f:2d:13:be:86:c7:01:c2:6a:5c:4a:72:fd:
                    a7:1d:96:84:6f:0d:99:89:3d:39:db:44:f8:d5:85:
                    c2:59:0c:04:59:e5:bd:da:45:ef:ec:95:99:c7:80:
                    3d:7a:b6:85:49:64:ed:34:9c:2f:66:57:1a:37:c7:
                    2c:9f:11:7f:3d:81:0e:03:12:30:de:7e:71:0d:f3:
                    c0:8c:d9:9b:4f:8b:8d:32:52:95:4c:49:5f:38:c1:
                    56:c6:6f:ac:1b:e6:fe:c2:71:ba:e7:39:5c:3c:cf:
                    ce:ef:cc:ad:2b:df:25:01:3c:3a:6f:24:1d:a6:78:
                    35:ec:a4:bc:19:c3:a5:fe:ed:f5:5c:22:0a:6d:7d:
                    f7:07:18:26:5c:61:06:67:34:59:42:ad:bf:78:b0:
                    c7:ab:de:1d:ba:22:af:6b:b6:f0:96:cc:eb:6b:8d:
                    d1:84:40:43:43:78:b8:30:76:42:0d:12:47:fc:c7:
                    e3:53:77:9b:18:14:a7:15:97:9a:7d:dc:d3:22:17:
                    d1:e4:13:31:a2:da:7b:12:e0:6f:eb:cf:7b:f7:f0:
                    15:23
                Exponent: 65537 (0x10001)
        X509v3 extensions:
            X509v3 Extended Key Usage: 
                Code Signing
            X509v3 Subject Key Identifier: 
                83:9F:5D:D4:38:32:74:2B:35:97:39:AD:94:3E:F8:15:8B:22:10:0B
            X509v3 Subject Alternative Name: 
                DirName:/OU=MOPR/serialNumber=230254+48d5339b-7a50-408c-8a3c-9ccf81223a38
            X509v3 Authority Key Identifier: 
                keyid:48:6E:64:E5:50:05:D3:82:AA:17:37:37:22:B5:6D:A8:CA:75:02:95

            X509v3 CRL Distribution Points: 

                Full Name:
                  URI:http://www.microsoft.com/pkiops/crl/MicCodSigPCA2011_2011-07-08.crl

            Authority Information Access: 
                CA Issuers - URI:http://www.microsoft.com/pkiops/certs/MicCodSigPCA2011_2011-07-08.crt

            X509v3 Basic Constraints: critical
                CA:FALSE
    Signature Algorithm: sha256WithRSAEncryption
         5a:6f:98:29:b8:cb:ce:bc:62:79:5a:bf:4a:77:14:8f:1a:3a:
         55:61:e4:88:2a:f1:ff:fc:24:d1:46:78:ee:8b:27:48:5e:79:
         f8:35:0b:8c:a7:db:1f:94:3f:d8:ee:96:df:11:2f:68:28:da:
         86:ec:35:8a:d9:c2:fb:04:30:90:61:b5:10:60:3a:3a:ec:7c:
         7e:fd:48:65:f6:84:3e:55:cb:fc:2b:9b:8e:2b:36:50:ab:4a:
         1f:3f:03:f9:e4:93:a6:a2:98:28:47:cb:34:59:b8:cb:4f:c8:
         0f:03:4a:c5:d4:f7:35:20:d7:a2:61:8f:a0:f7:5d:e2:08:bf:
         b9:2d:43:89:99:1e:38:9f:1a:53:9e:b7:5f:0e:32:82:ae:1b:
         a6:ab:0d:39:68:9f:6a:e8:fa:be:a2:24:e2:83:bb:10:3f:da:
         34:1f:d3:fd:a6:55:30:25:43:7c:93:9e:07:5c:8e:e4:d0:ef:
         a3:8f:15:ec:94:77:10:c7:83:bd:20:02:46:e5:f6:8d:2f:ea:
         11:5d:d9:93:59:73:ca:a9:44:02:d9:72:de:39:89:7e:a0:7f:
         47:fa:1b:bc:1a:a0:f1:b3:c4:83:9d:00:45:00:09:d5:5d:1f:
         61:97:c5:81:6a:83:cc:7a:e4:4c:96:7a:60:8b:f2:9c:09:ce:
         04:eb:df:f3:a1:c1:f2:73:8c:4a:15:07:c6:48:a3:8f:43:e8:
         49:70:d7:07:44:c3:42:5e:ae:d5:03:8b:1e:12:d4:cf:fb:9d:
         73:1b:cb:5b:c9:ef:5d:ff:9b:61:f9:b1:0e:3f:31:3d:93:b5:
         1f:c8:0d:48:ef:b3:59:a0:82:36:ea:e2:f9:14:29:fd:e7:42:
         69:38:61:77:7a:88:af:39:18:25:07:d7:68:f8:4a:42:a6:d6:
         ae:b3:96:f4:f7:35:f4:2e:95:ef:df:d3:b2:8d:48:fd:17:af:
         6f:42:a5:9a:e9:28:a0:4a:f4:f1:8c:51:da:e1:47:8d:00:a8:
         38:70:a3:2d:32:04:43:60:f6:87:93:4d:f0:25:b0:12:e4:cd:
         a3:d4:f5:86:06:92:08:56:fa:9e:76:c8:72:68:f1:ee:43:92:
         0c:75:aa:19:53:44:4a:87:d3:f3:f3:6a:49:e1:0b:45:ad:c9:
         e5:9e:16:a6:6c:1c:c1:1e:2c:72:9e:2b:a1:82:b5:d0:2f:4f:
         72:30:fc:00:96:ef:92:1c:89:6e:41:49:a3:be:91:e0:04:50:
         25:d9:5d:26:d9:be:7a:05:3d:ea:06:61:f6:09:f8:0f:35:ae:
         e5:bf:9a:7c:80:be:31:bf:ec:6c:46:de:1a:78:e6:e4:87:e0:
         fb:6b:ae:fe:47:61:f0:74
-----BEGIN CERTIFICATE-----
MIIF8zCCA9ugAwIBAgITMwAAAMG2/c2hNZdOJQAAAAAAwTANBgkqhkiG9w0BAQsF
ADB+MQswCQYDVQQGEwJVUzETMBEGA1UECBMKV2FzaGluZ3RvbjEQMA4GA1UEBxMH
UmVkbW9uZDEeMBwGA1UEChMVTWljcm9zb2Z0IENvcnBvcmF0aW9uMSgwJgYDVQQD
Ex9NaWNyb3NvZnQgQ29kZSBTaWduaW5nIFBDQSAyMDExMB4XDTE3MDcyNDIwMzQy
NVoXDTE4MDcyNTIwMzQyNVowcjELMAkGA1UEBhMCVVMxEzARBgNVBAgTCldhc2hp
bmd0b24xEDAOBgNVBAcTB1JlZG1vbmQxHjAcBgNVBAoTFU1pY3Jvc29mdCBDb3Jw
b3JhdGlvbjEcMBoGA1UEAxMTU2t5cGUgU29mdHdhcmUgU2FybDCCASIwDQYJKoZI
hvcNAQEBBQADggEPADCCAQoCggEBALnYRr892zHR+33Oy1pfzWdqYRLLOElBgUJ6
ZmSS3fkCvru2i5ByTPMOeorqtxgPLRO+hscBwmpcSnL9px2WhG8NmYk9OdtE+NWF
wlkMBFnlvdpF7+yVmceAPXq2hUlk7TScL2ZXGjfHLJ8Rfz2BDgMSMN5+cQ3zwIzZ
m0+LjTJSlUxJXzjBVsZvrBvm/sJxuuc5XDzPzu/MrSvfJQE8Om8kHaZ4NeykvBnD
pf7t9VwiCm199wcYJlxhBmc0WUKtv3iwx6veHboir2u28JbM62uN0YRAQ0N4uDB2
Qg0SR/zH41N3mxgUpxWXmn3c0yIX0eQTMaLaexLgb+vPe/fwFSMCAwEAAaOCAXQw
ggFwMBMGA1UdJQQMMAoGCCsGAQUFBwMDMB0GA1UdDgQWBBSDn13UODJ0KzWXOa2U
PvgViyIQCzBSBgNVHREESzBJpEcwRTENMAsGA1UECxMETU9QUjE0MDIGA1UEBRMr
MjMwMjU0KzQ4ZDUzMzliLTdhNTAtNDA4Yy04YTNjLTljY2Y4MTIyM2EzODAfBgNV
HSMEGDAWgBRIbmTlUAXTgqoXNzcitW2oynUClTBUBgNVHR8ETTBLMEmgR6BFhkNo
dHRwOi8vd3d3Lm1pY3Jvc29mdC5jb20vcGtpb3BzL2NybC9NaWNDb2RTaWdQQ0Ey
MDExXzIwMTEtMDctMDguY3JsMGEGCCsGAQUFBwEBBFUwUzBRBggrBgEFBQcwAoZF
aHR0cDovL3d3dy5taWNyb3NvZnQuY29tL3BraW9wcy9jZXJ0cy9NaWNDb2RTaWdQ
Q0EyMDExXzIwMTEtMDctMDguY3J0MAwGA1UdEwEB/wQCMAAwDQYJKoZIhvcNAQEL
BQADggIBAFpvmCm4y868Ynlav0p3FI8aOlVh5Igq8f/8JNFGeO6LJ0heefg1C4yn
2x+UP9jult8RL2go2obsNYrZwvsEMJBhtRBgOjrsfH79SGX2hD5Vy/wrm44rNlCr
Sh8/A/nkk6aimChHyzRZuMtPyA8DSsXU9zUg16Jhj6D3XeIIv7ktQ4mZHjifGlOe
t18OMoKuG6arDTlon2ro+r6iJOKDuxA/2jQf0/2mVTAlQ3yTngdcjuTQ76OPFeyU
dxDHg70gAkbl9o0v6hFd2ZNZc8qpRALZct45iX6gf0f6G7waoPGzxIOdAEUACdVd
H2GXxYFqg8x65EyWemCL8pwJzgTr3/OhwfJzjEoVB8ZIo49D6Elw1wdEw0JertUD
ix4S1M/7nXMby1vJ713/m2H5sQ4/MT2TtR/IDUjvs1mggjbq4vkUKf3nQmk4YXd6
iK85GCUH12j4SkKm1q6zlvT3NfQule/f07KNSP0Xr29CpZrpKKBK9PGMUdrhR40A
qDhwoy0yBENg9oeTTfAlsBLkzaPU9YYGkghW+p52yHJo8e5Dkgx1qhlTREqH0/Pz
aknhC0WtyeWeFqZsHMEeLHKeK6GCtdAvT3Iw/ACW75IciW5BSaO+keAEUCXZXSbZ
vnoFPeoGYfYJ+A81ruW/mnyAvjG/7GxG3hp45uSH4Ptrrv5HYfB0
-----END CERTIFICATE-----

Certificate:
    Data:
        Version: 3 (0x2)
        Serial Number:
            61:0e:90:d2:00:00:00:00:00:03
    Signature Algorithm: sha256WithRSAEncryption
        Issuer: C=US, ST=Washington, L=Redmond, O=Microsoft Corporation, CN=Microsoft Root Certificate Authority 2011
        Validity
            Not Before: Jul  8 20:59:09 2011 GMT
            Not After : Jul  8 21:09:09 2026 GMT
        Subject: C=US, ST=Washington, L=Redmond, O=Microsoft Corporation, CN=Microsoft Code Signing PCA 2011
        Subject Public Key Info:
            Public Key Algorithm: rsaEncryption
                Public-Key: (4096 bit)
                Modulus:
                    00:ab:f0:fa:72:10:1c:2e:ad:d8:6e:aa:82:10:4d:
                    34:ba:f2:b6:58:21:9f:42:1b:2a:6b:e9:5a:50:aa:
                    b8:06:38:1a:04:49:ba:7f:c3:0c:1e:dd:37:6b:c6:
                    12:d8:0b:f0:38:c2:99:06:b0:c8:39:d5:01:14:31:
                    42:d3:89:0d:79:64:87:7e:94:60:24:6c:af:9e:49:
                    9c:e9:68:5e:d2:df:9b:53:b2:0a:2c:c3:af:d9:a9:
                    2b:ae:7a:09:af:d7:96:59:ca:60:1a:05:e9:66:76:
                    e8:32:52:26:12:2f:e7:ab:08:50:cf:b3:44:b7:5d:
                    d8:c4:2e:03:75:ab:68:f3:cb:6d:f3:3a:5c:a1:16:
                    f4:46:ba:e0:38:64:ac:6e:64:35:78:a6:a0:63:0f:
                    2d:d3:40:93:f8:e3:de:07:0d:d5:5c:79:a5:49:29:
                    e7:0d:be:a0:13:77:be:94:3d:ef:fb:e3:2b:5a:10:
                    1f:4d:56:28:a2:7a:72:e0:12:3a:b7:49:5e:d8:ed:
                    ed:43:91:83:d9:7b:b2:7b:86:1b:d9:3e:b1:8c:5d:
                    e8:89:4f:84:1a:f2:a1:2f:59:e4:90:3b:2d:ae:33:
                    58:c5:b7:3e:fe:32:d3:b3:03:3d:b1:b2:af:92:38:
                    7e:d2:9d:80:2c:f5:4e:56:91:21:35:25:c3:39:6e:
                    64:7f:53:ba:9c:0f:ad:19:23:84:cb:f4:ba:03:86:
                    8d:f7:5f:f0:d0:52:bf:8c:94:87:bc:c0:21:74:25:
                    5f:18:28:b6:cc:27:28:38:25:98:39:4a:36:cf:7c:
                    b1:92:ae:1c:23:a7:a9:66:ec:61:1f:6a:e1:28:49:
                    9d:5f:88:e2:25:5d:d3:21:4b:3e:52:c4:b5:57:3f:
                    24:03:f0:d1:7a:5b:2f:d5:23:e3:70:5d:0f:51:46:
                    77:b3:f8:00:e1:bc:ac:02:82:5f:db:c0:15:b3:bd:
                    1b:d4:55:4b:e7:39:a1:0f:e9:23:49:bc:18:b8:44:
                    7c:45:e4:c1:c3:72:7a:e0:72:e7:24:df:bf:46:99:
                    c5:ef:c2:1c:57:db:83:8d:ec:4d:49:30:a7:ab:8e:
                    df:ec:5b:9f:af:fc:dd:b0:66:e2:c1:97:81:7b:ed:
                    d6:ed:4b:e7:49:29:a7:13:28:a6:a7:7d:67:80:e6:
                    8a:62:78:5f:b2:2f:84:d7:57:9c:5c:bf:77:28:28:
                    f1:ed:6d:c3:28:8f:2c:8f:40:37:4f:c1:e1:85:44:
                    89:c4:09:4c:c5:d4:a5:43:2f:74:95:f7:6e:f8:78:
                    20:58:2c:13:5d:60:95:9a:3e:4f:33:84:da:b0:88:
                    17:de:9e:4e:f4:96:b0:bc:46:a0:6c:98:d2:e0:d6:
                    88:8c:0b
                Exponent: 65537 (0x10001)
        X509v3 extensions:
            1.3.6.1.4.1.311.21.1: 
                ...
            X509v3 Subject Key Identifier: 
                48:6E:64:E5:50:05:D3:82:AA:17:37:37:22:B5:6D:A8:CA:75:02:95
            1.3.6.1.4.1.311.20.2: 
                .
.S.u.b.C.A
            X509v3 Key Usage: 
                Digital Signature, Certificate Sign, CRL Sign
            X509v3 Basic Constraints: critical
                CA:TRUE
            X509v3 Authority Key Identifier: 
                keyid:72:2D:3A:02:31:90:43:B9:14:05:4E:E1:EA:A7:C7:31:D1:23:89:34

            X509v3 CRL Distribution Points: 

                Full Name:
                  URI:http://crl.microsoft.com/pki/crl/products/MicRooCerAut2011_2011_03_22.crl

            Authority Information Access: 
                CA Issuers - URI:http://www.microsoft.com/pki/certs/MicRooCerAut2011_2011_03_22.crt

            X509v3 Certificate Policies: 
                Policy: 1.3.6.1.4.1.311.46.3
                  CPS: http://www.microsoft.com/pkiops/docs/primarycps.htm
                  User Notice:
                    Explicit Text:  

    Signature Algorithm: sha256WithRSAEncryption
         67:f2:86:a5:98:e0:54:79:1a:2e:d3:d8:74:67:22:9b:0b:96:
         11:e1:63:92:99:42:96:7d:d2:79:0c:90:c1:65:5f:2e:2c:3e:
         f8:c3:72:d1:6d:83:fe:be:3f:e8:0a:ca:3b:bf:47:a9:a3:f3:
         69:db:63:bf:22:35:a5:97:5d:65:84:90:7d:8b:46:50:55:d8:
         0c:92:7c:d2:1a:4b:1c:f3:3c:42:8b:52:d0:b0:fd:6b:e3:3e:
         07:2e:29:9b:e6:3d:1b:a5:d4:b5:1d:77:94:39:e2:e9:64:c9:
         44:3d:78:7a:23:f3:13:7d:a6:90:74:83:8d:f4:cb:26:02:46:
         2a:c2:8a:10:bb:a4:a9:05:0c:9b:ed:68:fa:68:2e:95:a0:2a:
         3f:2a:6b:58:49:63:1f:09:69:6e:5a:98:96:e4:83:f4:c0:8f:
         f3:46:2b:de:fc:3b:d0:bd:35:ef:6e:25:ae:e5:af:27:ed:d0:
         dd:f3:0e:af:99:28:97:98:4d:0e:3d:0b:f2:08:89:d6:1f:c3:
         32:18:e2:f0:c5:2d:ce:5b:9e:b4:49:39:0a:c6:0a:c2:c6:ad:
         ae:e5:b2:d9:db:15:88:51:45:58:38:32:71:27:1a:7f:b1:f4:
         27:f8:de:2c:3a:20:69:98:b2:59:89:68:6e:6f:a7:b7:74:c3:
         40:05:06:a6:01:2a:28:3e:82:3f:13:4d:66:0b:c0:b3:4d:f5:
         e1:8f:7f:1c:6f:15:7d:45:a7:76:e5:40:2a:65:a3:c3:5d:52:
         62:86:c3:1d:63:36:97:86:df:da:f3:f8:f2:16:a1:9a:27:e1:
         cd:a5:97:d0:ee:5d:63:41:e3:5b:07:9c:87:3e:06:77:06:d1:
         06:b1:75:1f:14:be:61:61:b5:f0:dc:c6:1b:04:be:df:41:c7:
         0e:28:ee:de:65:2f:ec:97:f6:a1:5c:96:d8:00:d6:a1:46:bd:
         59:f3:97:a5:09:4b:48:10:99:80:1f:d0:00:29:c5:b1:9b:a5:
         3f:45:77:1e:35:c6:d2:a2:a2:9f:7a:7a:22:fa:48:95:1f:ab:
         fb:47:23:80:f5:9e:f8:bf:6b:b7:4b:97:e2:eb:75:78:1a:ec:
         ea:37:99:79:18:4b:ff:d6:b3:23:68:75:e6:af:fa:fc:8b:eb:
         0b:80:ea:69:3b:af:fc:30:ed:04:4c:8e:df:df:75:6d:63:91:
         3d:d1:9d:56:4e:4f:bf:80:57:22:a1:78:11:32:21:7a:ef:41:
         0a:b1:3f:fb:a8:cc:a4:5d:c1:a1:88:9b:57:71:56:4e:48:45:
         c0:42:c9:9b:76:5b:0a:80:48:6b:fd:79:9f:c1:bd:6d:6d:6a:
         c9:52:73:13:0d:7a:50:cd
-----BEGIN CERTIFICATE-----
MIIHejCCBWKgAwIBAgIKYQ6Q0gAAAAAAAzANBgkqhkiG9w0BAQsFADCBiDELMAkG
A1UEBhMCVVMxEzARBgNVBAgTCldhc2hpbmd0b24xEDAOBgNVBAcTB1JlZG1vbmQx
HjAcBgNVBAoTFU1pY3Jvc29mdCBDb3Jwb3JhdGlvbjEyMDAGA1UEAxMpTWljcm9z
b2Z0IFJvb3QgQ2VydGlmaWNhdGUgQXV0aG9yaXR5IDIwMTEwHhcNMTEwNzA4MjA1
OTA5WhcNMjYwNzA4MjEwOTA5WjB+MQswCQYDVQQGEwJVUzETMBEGA1UECBMKV2Fz
aGluZ3RvbjEQMA4GA1UEBxMHUmVkbW9uZDEeMBwGA1UEChMVTWljcm9zb2Z0IENv
cnBvcmF0aW9uMSgwJgYDVQQDEx9NaWNyb3NvZnQgQ29kZSBTaWduaW5nIFBDQSAy
MDExMIICIjANBgkqhkiG9w0BAQEFAAOCAg8AMIICCgKCAgEAq/D6chAcLq3YbqqC
EE00uvK2WCGfQhsqa+laUKq4BjgaBEm6f8MMHt03a8YS2AvwOMKZBrDIOdUBFDFC
04kNeWSHfpRgJGyvnkmc6Whe0t+bU7IKLMOv2akrrnoJr9eWWcpgGgXpZnboMlIm
Ei/nqwhQz7NEt13YxC4Ddato88tt8zpcoRb0RrrgOGSsbmQ1eKagYw8t00CT+OPe
Bw3VXHmlSSnnDb6gE3e+lD3v++MrWhAfTVYoonpy4BI6t0le2O3tQ5GD2Xuye4Yb
2T6xjF3oiU+EGvKhL1nkkDstrjNYxbc+/jLTswM9sbKvkjh+0p2ALPVOVpEhNSXD
OW5kf1O6nA+tGSOEy/S6A4aN91/w0FK/jJSHvMAhdCVfGCi2zCcoOCWYOUo2z3yx
kq4cI6epZuxhH2rhKEmdX4jiJV3TIUs+UsS1Vz8kA/DRelsv1SPjcF0PUUZ3s/gA
4bysAoJf28AVs70b1FVL5zmhD+kjSbwYuER8ReTBw3J64HLnJN+/RpnF78IcV9uD
jexNSTCnq47f7Fufr/zdsGbiwZeBe+3W7UvnSSmnEyimp31ngOaKYnhfsi+E11ec
XL93KCjx7W3DKI8sj0A3T8HhhUSJxAlMxdSlQy90lfdu+HggWCwTXWCVmj5PM4Ta
sIgX3p5O9JawvEagbJjS4NaIjAsCAwEAAaOCAe0wggHpMBAGCSsGAQQBgjcVAQQD
AgEAMB0GA1UdDgQWBBRIbmTlUAXTgqoXNzcitW2oynUClTAZBgkrBgEEAYI3FAIE
DB4KAFMAdQBiAEMAQTALBgNVHQ8EBAMCAYYwDwYDVR0TAQH/BAUwAwEB/zAfBgNV
HSMEGDAWgBRyLToCMZBDuRQFTuHqp8cx0SOJNDBaBgNVHR8EUzBRME+gTaBLhklo
dHRwOi8vY3JsLm1pY3Jvc29mdC5jb20vcGtpL2NybC9wcm9kdWN0cy9NaWNSb29D
ZXJBdXQyMDExXzIwMTFfMDNfMjIuY3JsMF4GCCsGAQUFBwEBBFIwUDBOBggrBgEF
BQcwAoZCaHR0cDovL3d3dy5taWNyb3NvZnQuY29tL3BraS9jZXJ0cy9NaWNSb29D
ZXJBdXQyMDExXzIwMTFfMDNfMjIuY3J0MIGfBgNVHSAEgZcwgZQwgZEGCSsGAQQB
gjcuAzCBgzA/BggrBgEFBQcCARYzaHR0cDovL3d3dy5taWNyb3NvZnQuY29tL3Br
aW9wcy9kb2NzL3ByaW1hcnljcHMuaHRtMEAGCCsGAQUFBwICMDQeMiAdAEwAZQBn
AGEAbABfAHAAbwBsAGkAYwB5AF8AcwB0AGEAdABlAG0AZQBuAHQALiAdMA0GCSqG
SIb3DQEBCwUAA4ICAQBn8oalmOBUeRou09h0ZyKbC5YR4WOSmUKWfdJ5DJDBZV8u
LD74w3LRbYP+vj/oCso7v0epo/Np22O/IjWll11lhJB9i0ZQVdgMknzSGksc8zxC
i1LQsP1r4z4HLimb5j0bpdS1HXeUOeLpZMlEPXh6I/MTfaaQdION9MsmAkYqwooQ
u6SpBQyb7Wj6aC6VoCo/KmtYSWMfCWluWpiW5IP0wI/zRive/DvQvTXvbiWu5a8n
7dDd8w6vmSiXmE0OPQvyCInWH8MyGOLwxS3OW560STkKxgrCxq2u5bLZ2xWIUUVY
ODJxJxp/sfQn+N4sOiBpmLJZiWhub6e3dMNABQamASooPoI/E01mC8CzTfXhj38c
bxV9Rad25UAqZaPDXVJihsMdYzaXht/a8/jyFqGaJ+HNpZfQ7l1jQeNbB5yHPgZ3
BtEGsXUfFL5hYbXw3MYbBL7fQccOKO7eZS/sl/ahXJbYANahRr1Z85elCUtIEJmA
H9AAKcWxm6U/RXceNcbSoqKfenoi+kiVH6v7RyOA9Z74v2u3S5fi63V4GuzqN5l5
GEv/1rMjaHXmr/r8i+sLgOppO6/8MO0ETI7f33VtY5E90Z1WTk+/gFcioXgRMiF6
70EKsT/7qMykXcGhiJtXcVZOSEXAQsmbdlsKgEhr/Xmfwb1tbWrJUnMTDXpQzQ==
-----END CERTIFICATE-----

