Certificate:
    Data:
        Version: 3 (0x2)
        Serial Number:
            7e:93:eb:fb:7c:c6:4e:59:ea:4b:9a:77:d4:06:fc:3b
    Signature Algorithm: sha1WithRSAEncryption
        Issuer: C=ZA, ST=Western Cape, L=Durbanville, O=Thawte, OU=Thawte Certification, CN=Thawte Timestamping CA
        Validity
            Not Before: Dec 21 00:00:00 2012 GMT
            Not After : Dec 30 23:59:59 2020 GMT
        Subject: C=US, O=Symantec Corporation, CN=Symantec Time Stamping Services CA - G2
        Subject Public Key Info:
            Public Key Algorithm: rsaEncryption
                Public-Key: (2048 bit)
                Modulus:
                    00:b1:ac:b3:49:54:4b:97:1c:12:0a:d8:25:79:91:
                    22:57:2a:6f:dc:b8:26:c4:43:73:6b:c2:bf:2e:50:
                    5a:fb:14:c2:76:8e:43:01:25:43:b4:a1:e2:45:f4:
                    e8:b7:7b:c3:74:cc:22:d7:b4:94:00:02:f7:4d:ed:
                    bf:b4:b7:44:24:6b:cd:5f:45:3b:d1:44:ce:43:12:
                    73:17:82:8b:69:b4:2b:cb:99:1e:ac:72:1b:26:4d:
                    71:1f:b1:31:dd:fb:51:61:02:53:a6:aa:f5:49:2c:
                    05:78:45:a5:2f:89:ce:e7:99:e7:fe:8c:e2:57:3f:
                    3d:c6:92:dc:4a:f8:7b:33:e4:79:0a:fb:f0:75:88:
                    41:9c:ff:c5:03:51:99:aa:d7:6c:9f:93:69:87:65:
                    29:83:85:c2:60:14:c4:c8:c9:3b:14:da:c0:81:f0:
                    1f:0d:74:de:92:22:ab:ca:f7:fb:74:7c:27:e6:f7:
                    4a:1b:7f:a7:c3:9e:2d:ae:8a:ea:a6:e6:aa:27:16:
                    7d:61:f7:98:71:11:bc:e2:50:a1:4b:e5:5d:fa:e5:
                    0e:a7:2c:9f:aa:65:20:d3:d8:96:e8:c8:7c:a5:4e:
                    48:44:ff:19:e2:44:07:92:0b:d7:68:84:80:5d:6a:
                    78:64:45:cd:60:46:7e:54:c1:13:7c:c5:79:f1:c9:
                    c1:71
                Exponent: 65537 (0x10001)
        X509v3 extensions:
            X509v3 Subject Key Identifier: 
                5F:9A:F5:6E:5C:CC:CC:74:9A:D4:DD:7D:EF:3F:DB:EC:4C:80:2E:DD
            Authority Information Access: 
                OCSP - URI:http://ocsp.thawte.com

            X509v3 Basic Constraints: critical
                CA:TRUE, pathlen:0
            X509v3 CRL Distribution Points: 

                Full Name:
                  URI:http://crl.thawte.com/ThawteTimestampingCA.crl

            X509v3 Extended Key Usage: 
                Time Stamping
            X509v3 Key Usage: critical
                Certificate Sign, CRL Sign
            X509v3 Subject Alternative Name: 
                DirName:/CN=TimeStamp-2048-1
    Signature Algorithm: sha1WithRSAEncryption
         03:09:9b:8f:79:ef:7f:59:30:aa:ef:68:b5:fa:e3:09:1d:bb:
         4f:82:06:5d:37:5f:a6:52:9f:16:8d:ea:1c:92:09:44:6e:f5:
         6d:eb:58:7c:30:e8:f9:69:8d:23:73:0b:12:6f:47:a9:ae:39:
         11:f8:2a:b1:9b:b0:1a:c3:8e:eb:59:96:00:ad:ce:0c:4d:b2:
         d0:31:a6:08:5c:2a:7a:fc:e2:7a:1d:57:4c:a8:65:18:e9:79:
         40:62:25:96:6e:c7:c7:37:6a:83:21:08:8e:41:ea:dd:d9:57:
         3f:1d:77:49:87:2a:16:06:5e:a6:38:6a:22:12:a3:51:19:83:
         7e:b6
-----BEGIN CERTIFICATE-----
MIID7jCCA1egAwIBAgIQfpPr+3zGTlnqS5p31Ab8OzANBgkqhkiG9w0BAQUFADCB
izELMAkGA1UEBhMCWkExFTATBgNVBAgTDFdlc3Rlcm4gQ2FwZTEUMBIGA1UEBxML
RHVyYmFudmlsbGUxDzANBgNVBAoTBlRoYXd0ZTEdMBsGA1UECxMUVGhhd3RlIENl
cnRpZmljYXRpb24xHzAdBgNVBAMTFlRoYXd0ZSBUaW1lc3RhbXBpbmcgQ0EwHhcN
MTIxMjIxMDAwMDAwWhcNMjAxMjMwMjM1OTU5WjBeMQswCQYDVQQGEwJVUzEdMBsG
A1UEChMUU3ltYW50ZWMgQ29ycG9yYXRpb24xMDAuBgNVBAMTJ1N5bWFudGVjIFRp
bWUgU3RhbXBpbmcgU2VydmljZXMgQ0EgLSBHMjCCASIwDQYJKoZIhvcNAQEBBQAD
ggEPADCCAQoCggEBALGss0lUS5ccEgrYJXmRIlcqb9y4JsRDc2vCvy5QWvsUwnaO
QwElQ7Sh4kX06Ld7w3TMIte0lAAC903tv7S3RCRrzV9FO9FEzkMScxeCi2m0K8uZ
HqxyGyZNcR+xMd37UWECU6aq9UksBXhFpS+JzueZ5/6M4lc/PcaS3Er4ezPkeQr7
8HWIQZz/xQNRmarXbJ+TaYdlKYOFwmAUxMjJOxTawIHwHw103pIiq8r3+3R8J+b3
Sht/p8OeLa6K6qbmqicWfWH3mHERvOJQoUvlXfrlDqcsn6plINPYlujIfKVOSET/
GeJEB5IL12iEgF1qeGRFzWBGflTBE3zFefHJwXECAwEAAaOB+jCB9zAdBgNVHQ4E
FgQUX5r1blzMzHSa1N197z/b7EyALt0wMgYIKwYBBQUHAQEEJjAkMCIGCCsGAQUF
BzABhhZodHRwOi8vb2NzcC50aGF3dGUuY29tMBIGA1UdEwEB/wQIMAYBAf8CAQAw
PwYDVR0fBDgwNjA0oDKgMIYuaHR0cDovL2NybC50aGF3dGUuY29tL1RoYXd0ZVRp
bWVzdGFtcGluZ0NBLmNybDATBgNVHSUEDDAKBggrBgEFBQcDCDAOBgNVHQ8BAf8E
BAMCAQYwKAYDVR0RBCEwH6QdMBsxGTAXBgNVBAMTEFRpbWVTdGFtcC0yMDQ4LTEw
DQYJKoZIhvcNAQEFBQADgYEAAwmbj3nvf1kwqu9otfrjCR27T4IGXTdfplKfFo3q
HJIJRG71betYfDDo+WmNI3MLEm9Hqa45EfgqsZuwGsOO61mWAK3ODE2y0DGmCFwq
evzieh1XTKhlGOl5QGIllm7HxzdqgyEIjkHq3dlXPx13SYcqFgZepjhqIhKjURmD
frY=
-----END CERTIFICATE-----

Certificate:
    Data:
        Version: 3 (0x2)
        Serial Number:
            0e:cf:f4:38:c8:fe:bf:35:6e:04:d8:6a:98:1b:1a:50
    Signature Algorithm: sha1WithRSAEncryption
        Issuer: C=US, O=Symantec Corporation, CN=Symantec Time Stamping Services CA - G2
        Validity
            Not Before: Oct 18 00:00:00 2012 GMT
            Not After : Dec 29 23:59:59 2020 GMT
        Subject: C=US, O=Symantec Corporation, CN=Symantec Time Stamping Services Signer - G4
        Subject Public Key Info:
            Public Key Algorithm: rsaEncryption
                Public-Key: (2048 bit)
                Modulus:
                    00:a2:63:0b:39:44:b8:bb:23:a7:44:49:bb:0e:ff:
                    a1:f0:61:0a:53:93:b0:98:db:ad:2c:0f:4a:c5:6e:
                    ff:86:3c:53:55:0f:15:ce:04:3f:2b:fd:a9:96:96:
                    d9:be:61:79:0b:5b:c9:4c:86:76:e5:e0:43:4b:22:
                    95:ee:c2:2b:43:c1:9f:d8:68:b4:8e:40:4f:ee:85:
                    38:b9:11:c5:23:f2:64:58:f0:15:32:6f:4e:57:a1:
                    ae:88:a4:02:d7:2a:1e:cd:4b:e1:dd:63:d5:17:89:
                    32:5b:b0:5e:99:5a:a8:9d:28:50:0e:17:ee:96:db:
                    61:3b:45:51:1d:cf:12:56:0b:92:47:fc:ab:ae:f6:
                    66:3d:47:ac:70:72:e7:92:e7:5f:cd:10:b9:c4:83:
                    64:94:19:bd:25:80:e1:e8:d2:22:a5:d0:ba:02:7a:
                    a1:77:93:5b:65:c3:ee:17:74:bc:41:86:2a:dc:08:
                    4c:8c:92:8c:91:2d:9e:77:44:1f:68:d6:a8:74:77:
                    db:0e:5b:32:8b:56:8b:33:bd:d9:63:c8:49:9d:3a:
                    c5:c5:ea:33:0b:d2:f1:a3:1b:f4:8b:be:d9:b3:57:
                    8b:3b:de:04:a7:7a:22:b2:24:ae:2e:c7:70:c5:be:
                    4e:83:26:08:fb:0b:bd:a9:4f:99:08:e1:10:28:72:
                    aa:cd
                Exponent: 65537 (0x10001)
        X509v3 extensions:
            X509v3 Basic Constraints: critical
                CA:FALSE
            X509v3 Extended Key Usage: critical
                Time Stamping
            X509v3 Key Usage: critical
                Digital Signature
            Authority Information Access: 
                OCSP - URI:http://ts-ocsp.ws.symantec.com
                CA Issuers - URI:http://ts-aia.ws.symantec.com/tss-ca-g2.cer

            X509v3 CRL Distribution Points: 

                Full Name:
                  URI:http://ts-crl.ws.symantec.com/tss-ca-g2.crl

            X509v3 Subject Alternative Name: 
                DirName:/CN=TimeStamp-2048-2
            X509v3 Subject Key Identifier: 
                46:C6:69:A3:0E:4A:14:1E:D5:4C:DA:52:63:17:3F:5E:36:BC:0D:E6
            X509v3 Authority Key Identifier: 
                keyid:5F:9A:F5:6E:5C:CC:CC:74:9A:D4:DD:7D:EF:3F:DB:EC:4C:80:2E:DD

    Signature Algorithm: sha1WithRSAEncryption
         78:3b:b4:91:2a:00:4c:f0:8f:62:30:37:78:a3:84:27:07:6f:
         18:b2:de:25:dc:a0:d4:94:03:aa:86:4e:25:9f:9a:40:03:1c:
         dd:ce:e3:79:cb:21:68:06:da:b6:32:b4:6d:bf:f4:2c:26:63:
         33:e4:49:64:6d:0d:e6:c3:67:0e:f7:05:a4:35:6c:7c:89:16:
         c6:e9:b2:df:b2:e9:dd:20:c6:71:0f:cd:95:74:dc:b6:5c:de:
         bd:37:1f:43:78:e6:78:b5:cd:28:04:20:a3:aa:f1:4b:c4:88:
         29:91:0e:80:d1:11:fc:dd:5c:76:6e:4f:5e:0e:45:46:41:6e:
         0d:b0:ea:38:9a:b1:3a:da:09:71:10:fc:1c:79:b4:80:7b:ac:
         69:f4:fd:9c:b6:0c:16:2b:f1:7f:5b:09:3d:9b:5b:e2:16:ca:
         13:81:6d:00:2e:38:0d:a8:29:8f:2c:e1:b2:f4:5a:a9:01:af:
         15:9c:2c:2f:49:1b:db:22:bb:c3:fe:78:94:51:c3:86:b1:82:
         88:5d:f0:3d:b4:51:a1:79:33:2b:2e:7b:b9:dc:20:09:13:71:
         eb:6a:19:5b:cf:e8:a5:30:57:2c:89:49:3f:b9:cf:7f:c9:bf:
         3e:22:68:63:53:9a:bd:69:74:ac:c5:1d:3c:7f:92:e0:c3:bc:
         1c:d8:04:75
-----BEGIN CERTIFICATE-----
MIIEozCCA4ugAwIBAgIQDs/0OMj+vzVuBNhqmBsaUDANBgkqhkiG9w0BAQUFADBe
MQswCQYDVQQGEwJVUzEdMBsGA1UEChMUU3ltYW50ZWMgQ29ycG9yYXRpb24xMDAu
BgNVBAMTJ1N5bWFudGVjIFRpbWUgU3RhbXBpbmcgU2VydmljZXMgQ0EgLSBHMjAe
Fw0xMjEwMTgwMDAwMDBaFw0yMDEyMjkyMzU5NTlaMGIxCzAJBgNVBAYTAlVTMR0w
GwYDVQQKExRTeW1hbnRlYyBDb3Jwb3JhdGlvbjE0MDIGA1UEAxMrU3ltYW50ZWMg
VGltZSBTdGFtcGluZyBTZXJ2aWNlcyBTaWduZXIgLSBHNDCCASIwDQYJKoZIhvcN
AQEBBQADggEPADCCAQoCggEBAKJjCzlEuLsjp0RJuw7/ofBhClOTsJjbrSwPSsVu
/4Y8U1UPFc4EPyv9qZaW2b5heQtbyUyGduXgQ0sile7CK0PBn9hotI5AT+6FOLkR
xSPyZFjwFTJvTlehroikAtcqHs1L4d1j1ReJMluwXplaqJ0oUA4X7pbbYTtFUR3P
ElYLkkf8q672Zj1HrHBy55LnX80QucSDZJQZvSWA4ejSIqXQugJ6oXeTW2XD7hd0
vEGGKtwITIySjJEtnndEH2jWqHR32w5bMotWizO92WPISZ06xcXqMwvS8aMb9Iu+
2bNXizveBKd6IrIkri7HcMW+ToMmCPsLvalPmQjhEChyqs0CAwEAAaOCAVcwggFT
MAwGA1UdEwEB/wQCMAAwFgYDVR0lAQH/BAwwCgYIKwYBBQUHAwgwDgYDVR0PAQH/
BAQDAgeAMHMGCCsGAQUFBwEBBGcwZTAqBggrBgEFBQcwAYYeaHR0cDovL3RzLW9j
c3Aud3Muc3ltYW50ZWMuY29tMDcGCCsGAQUFBzAChitodHRwOi8vdHMtYWlhLndz
LnN5bWFudGVjLmNvbS90c3MtY2EtZzIuY2VyMDwGA1UdHwQ1MDMwMaAvoC2GK2h0
dHA6Ly90cy1jcmwud3Muc3ltYW50ZWMuY29tL3Rzcy1jYS1nMi5jcmwwKAYDVR0R
BCEwH6QdMBsxGTAXBgNVBAMTEFRpbWVTdGFtcC0yMDQ4LTIwHQYDVR0OBBYEFEbG
aaMOShQe1UzaUmMXP142vA3mMB8GA1UdIwQYMBaAFF+a9W5czMx0mtTdfe8/2+xM
gC7dMA0GCSqGSIb3DQEBBQUAA4IBAQB4O7SRKgBM8I9iMDd4o4QnB28Yst4l3KDU
lAOqhk4ln5pAAxzdzuN5yyFoBtq2MrRtv/QsJmMz5ElkbQ3mw2cO9wWkNWx8iRbG
6bLfsundIMZxD82VdNy2XN69Nx9DeOZ4tc0oBCCjqvFLxIgpkQ6A0RH83Vx2bk9e
DkVGQW4NsOo4mrE62glxEPwcebSAe6xp9P2ctgwWK/F/Wwk9m1viFsoTgW0ALjgN
qCmPLOGy9FqpAa8VnCwvSRvbIrvD/niUUcOGsYKIXfA9tFGheTMrLnu53CAJE3Hr
ahlbz+ilMFcsiUk/uc9/yb8+ImhjU5q9aXSsxR08f5Lgw7wc2AR1
-----END CERTIFICATE-----

Certificate:
    Data:
        Version: 3 (0x2)
        Serial Number:
            65:52:26:e1:b2:2e:18:e1:59:0f:29:85:ac:22:e7:5c
    Signature Algorithm: sha1WithRSAEncryption
        Issuer: C=US, O=VeriSign, Inc., OU=Class 3 Public Primary Certification Authority
        Validity
            Not Before: May 21 00:00:00 2009 GMT
            Not After : May 20 23:59:59 2019 GMT
        Subject: C=US, O=VeriSign, Inc., OU=VeriSign Trust Network, OU=Terms of use at https://www.verisign.com/rpa (c)09, CN=VeriSign Class 3 Code Signing 2009-2 CA
        Subject Public Key Info:
            Public Key Algorithm: rsaEncryption
                Public-Key: (2048 bit)
                Modulus:
                    00:be:67:1d:b4:60:aa:10:49:6f:56:17:7c:66:c9:
                    5e:86:0d:d5:f1:ac:a7:71:83:8e:8b:89:f8:88:04:
                    89:15:06:ba:2d:84:21:95:e4:d1:9c:50:4c:fb:d2:
                    22:bd:da:f2:b2:35:3b:1e:8f:c3:09:fb:fc:13:2e:
                    5a:bf:89:7c:3d:3b:25:1e:f6:f3:58:7b:9c:f4:01:
                    b5:c6:0a:b8:80:ce:be:27:74:61:67:27:4d:6a:e5:
                    ec:81:61:58:79:a3:e0:17:10:12:15:27:b0:e1:4d:
                    34:7f:2b:47:20:44:b9:de:66:24:66:8a:cd:4f:ba:
                    1f:c5:38:c8:54:90:e1:72:f6:19:66:75:6a:b9:49:
                    68:cf:38:79:0d:aa:30:a8:db:2c:60:48:9e:d7:aa:
                    14:01:a9:83:d7:38:91:30:39:13:96:03:3a:7c:40:
                    54:b6:ad:e0:2f:1b:83:dc:a8:11:52:3e:02:b3:d7:
                    2b:fd:21:b6:a7:5c:a3:0f:0b:a9:a6:10:50:0e:34:
                    2e:4d:a7:ce:c9:5e:25:d4:8c:bc:f3:6e:7c:29:bc:
                    01:5d:fc:31:87:5a:d5:8c:85:67:58:88:19:a0:bf:
                    35:f0:ea:2b:a3:21:e7:90:f6:83:e5:a8:ed:60:78:
                    5e:7b:60:83:fd:57:0b:5d:41:0d:63:54:60:d6:43:
                    21:ef
                Exponent: 65537 (0x10001)
        X509v3 extensions:
            X509v3 Basic Constraints: critical
                CA:TRUE, pathlen:0
            X509v3 Certificate Policies: 
                Policy: 2.16.840.1.113733.1.7.23.3
                  CPS: https://www.verisign.com/cps
                  User Notice:
                    Explicit Text: https://www.verisign.com/rpa

            X509v3 Key Usage: critical
                Certificate Sign, CRL Sign
            1.3.6.1.5.5.7.1.12: 
                0_.].[0Y0W0U..image/gif0!0.0...+..............k...j.H.,{..0%.#http://logo.verisign.com/vslogo.gif
            X509v3 Extended Key Usage: 
                TLS Web Client Authentication, Code Signing
            Authority Information Access: 
                OCSP - URI:http://ocsp.verisign.com

            X509v3 CRL Distribution Points: 

                Full Name:
                  URI:http://crl.verisign.com/pca3.crl

            X509v3 Subject Alternative Name: 
                DirName:/CN=Class3CA2048-1-55
            X509v3 Subject Key Identifier: 
                97:D0:6B:A8:26:70:C8:A1:3F:94:1F:08:2D:C4:35:9B:A4:A1:1E:F2
    Signature Algorithm: sha1WithRSAEncryption
         8b:03:c0:dd:94:d8:41:a2:61:69:b0:15:a8:78:c7:30:c6:90:
         3c:7e:42:f7:24:b6:e4:83:73:17:04:7f:04:10:9c:a1:e2:fa:
         81:2f:eb:c0:ca:44:e7:72:e0:50:b6:55:10:20:83:6e:96:92:
         e4:9a:51:6a:b4:37:31:dc:a5:2d:eb:8c:00:c7:1d:4f:e7:4d:
         32:ba:85:f8:4e:be:fa:67:55:65:f0:6a:be:7a:ca:64:38:1a:
         10:10:78:45:76:31:f3:86:7a:03:0f:60:c2:b3:5d:9d:f6:8b:
         66:76:82:1b:59:e1:83:e5:bd:49:a5:38:56:e5:de:41:77:0e:
         58:0f
-----BEGIN CERTIFICATE-----
MIIE/DCCBGWgAwIBAgIQZVIm4bIuGOFZDymFrCLnXDANBgkqhkiG9w0BAQUFADBf
MQswCQYDVQQGEwJVUzEXMBUGA1UEChMOVmVyaVNpZ24sIEluYy4xNzA1BgNVBAsT
LkNsYXNzIDMgUHVibGljIFByaW1hcnkgQ2VydGlmaWNhdGlvbiBBdXRob3JpdHkw
HhcNMDkwNTIxMDAwMDAwWhcNMTkwNTIwMjM1OTU5WjCBtjELMAkGA1UEBhMCVVMx
FzAVBgNVBAoTDlZlcmlTaWduLCBJbmMuMR8wHQYDVQQLExZWZXJpU2lnbiBUcnVz
dCBOZXR3b3JrMTswOQYDVQQLEzJUZXJtcyBvZiB1c2UgYXQgaHR0cHM6Ly93d3cu
dmVyaXNpZ24uY29tL3JwYSAoYykwOTEwMC4GA1UEAxMnVmVyaVNpZ24gQ2xhc3Mg
MyBDb2RlIFNpZ25pbmcgMjAwOS0yIENBMIIBIjANBgkqhkiG9w0BAQEFAAOCAQ8A
MIIBCgKCAQEAvmcdtGCqEElvVhd8Zslehg3V8ayncYOOi4n4iASJFQa6LYQhleTR
nFBM+9IivdrysjU7Ho/DCfv8Ey5av4l8PTslHvbzWHuc9AG1xgq4gM6+J3RhZydN
auXsgWFYeaPgFxASFSew4U00fytHIES53mYkZorNT7ofxTjIVJDhcvYZZnVquUlo
zzh5DaowqNssYEie16oUAamD1ziRMDkTlgM6fEBUtq3gLxuD3KgRUj4Cs9cr/SG2
p1yjDwupphBQDjQuTafOyV4l1Iy88258KbwBXfwxh1rVjIVnWIgZoL818OoroyHn
kPaD5ajtYHhee2CD/VcLXUENY1Rg1kMh7wIDAQABo4IB2zCCAdcwEgYDVR0TAQH/
BAgwBgEB/wIBADBwBgNVHSAEaTBnMGUGC2CGSAGG+EUBBxcDMFYwKAYIKwYBBQUH
AgEWHGh0dHBzOi8vd3d3LnZlcmlzaWduLmNvbS9jcHMwKgYIKwYBBQUHAgIwHhoc
aHR0cHM6Ly93d3cudmVyaXNpZ24uY29tL3JwYTAOBgNVHQ8BAf8EBAMCAQYwbQYI
KwYBBQUHAQwEYTBfoV2gWzBZMFcwVRYJaW1hZ2UvZ2lmMCEwHzAHBgUrDgMCGgQU
j+XTGoasjY5rw8+AatRIGCx7GS4wJRYjaHR0cDovL2xvZ28udmVyaXNpZ24uY29t
L3ZzbG9nby5naWYwHQYDVR0lBBYwFAYIKwYBBQUHAwIGCCsGAQUFBwMDMDQGCCsG
AQUFBwEBBCgwJjAkBggrBgEFBQcwAYYYaHR0cDovL29jc3AudmVyaXNpZ24uY29t
MDEGA1UdHwQqMCgwJqAkoCKGIGh0dHA6Ly9jcmwudmVyaXNpZ24uY29tL3BjYTMu
Y3JsMCkGA1UdEQQiMCCkHjAcMRowGAYDVQQDExFDbGFzczNDQTIwNDgtMS01NTAd
BgNVHQ4EFgQUl9BrqCZwyKE/lB8ILcQ1m6ShHvIwDQYJKoZIhvcNAQEFBQADgYEA
iwPA3ZTYQaJhabAVqHjHMMaQPH5C9yS25INzFwR/BBCcoeL6gS/rwMpE53LgULZV
ECCDbpaS5JpRarQ3MdylLeuMAMcdT+dNMrqF+E6++mdVZfBqvnrKZDgaEBB4RXYx
84Z6Aw9gwrNdnfaLZnaCG1nhg+W9SaU4VuXeQXcOWA8=
-----END CERTIFICATE-----

Certificate:
    Data:
        Version: 3 (0x2)
        Serial Number:
            5e:f1:dc:1e:fb:1e:46:b5:de:80:ed:e1:76:2a:55:a7
    Signature Algorithm: sha1WithRSAEncryption
        Issuer: C=US, O=VeriSign, Inc., OU=VeriSign Trust Network, OU=Terms of use at https://www.verisign.com/rpa (c)09, CN=VeriSign Class 3 Code Signing 2009-2 CA
        Validity
            Not Before: Jul  7 00:00:00 2010 GMT
            Not After : Jul  6 23:59:59 2013 GMT
        Subject: C=US, ST=California, L=Redwood Shores, O=Oracle America, Inc., OU=Digital ID Class 3 - Microsoft Software Validation v2, OU=Software Engineering, CN=Oracle America, Inc.
        Subject Public Key Info:
            Public Key Algorithm: rsaEncryption
                Public-Key: (1024 bit)
                Modulus:
                    00:b3:75:69:ed:07:5b:8f:1b:2e:48:97:82:26:18:
                    b1:48:b7:ae:8f:ee:b2:f5:cb:d8:ce:28:1d:9d:61:
                    18:b5:ed:97:93:94:b8:24:3d:a5:9d:57:9e:3b:be:
                    35:4a:7d:d8:b7:79:ec:50:bd:71:9a:81:a6:5c:a6:
                    ff:3a:a6:e8:c9:18:c4:16:53:f7:77:18:b3:d5:f8:
                    aa:b7:b4:01:bd:83:43:ec:04:9d:f8:47:a1:83:f6:
                    e8:5a:6a:62:fe:ef:4a:3f:c1:18:28:7c:02:a9:3e:
                    73:fe:e5:c0:50:95:f4:31:2d:ed:b5:bc:26:12:34:
                    95:11:2d:0f:3a:86:60:6d:e9
                Exponent: 65537 (0x10001)
        X509v3 extensions:
            X509v3 Basic Constraints: 
                CA:FALSE
            X509v3 Key Usage: critical
                Digital Signature
            X509v3 CRL Distribution Points: 

                Full Name:
                  URI:http://csc3-2009-2-crl.verisign.com/CSC3-2009-2.crl

            X509v3 Certificate Policies: 
                Policy: 2.16.840.1.113733.1.7.23.3
                  CPS: https://www.verisign.com/rpa

            X509v3 Extended Key Usage: 
                Code Signing
            Authority Information Access: 
                OCSP - URI:http://ocsp.verisign.com
                CA Issuers - URI:http://csc3-2009-2-aia.verisign.com/CSC3-2009-2.cer

            X509v3 Authority Key Identifier: 
                keyid:97:D0:6B:A8:26:70:C8:A1:3F:94:1F:08:2D:C4:35:9B:A4:A1:1E:F2

            Netscape Cert Type: 
                Object Signing
            1.3.6.1.4.1.311.2.1.27: 
                0.......
    Signature Algorithm: sha1WithRSAEncryption
         26:58:88:e6:4f:80:e4:fd:87:42:fa:21:16:56:da:25:5a:7a:
         0e:51:fa:cd:20:26:6e:71:3d:f2:3e:a3:b3:15:5a:52:88:8f:
         73:5e:ff:b2:9d:78:c1:26:f6:98:7a:58:62:cd:80:29:af:d0:
         b5:6c:5d:1c:dd:3f:b4:03:2c:9a:59:bb:95:16:ec:5f:64:c8:
         d1:e6:ad:98:e3:67:f5:91:25:99:3e:fd:b2:e7:9c:d5:43:73:
         ce:ae:f0:dd:bc:c9:94:51:e8:60:de:1b:63:85:c5:2f:fe:b7:
         86:f2:82:33:bd:13:96:0e:76:3f:5c:b8:71:38:cb:60:4f:86:
         a9:a5:83:ca:c2:5b:fe:02:33:34:6c:ba:64:70:d2:2e:0b:b9:
         b3:fd:23:0e:9e:45:2e:d7:44:5d:0a:18:bd:2e:ff:03:9c:77:
         18:91:83:91:fd:43:be:e2:f2:3f:5a:7d:8d:0b:18:9f:6c:89:
         31:d7:a3:a2:fa:ec:03:d6:7e:5d:2c:1b:34:2c:e4:ae:8a:f2:
         db:9d:f6:97:5b:ea:82:53:48:57:92:3e:05:6e:4d:5b:92:37:
         9e:b4:20:f5:0e:ee:d0:d6:f9:4b:8d:d3:49:da:18:09:6b:d8:
         7a:54:45:82:1c:dd:35:06:9b:d8:60:97:b7:ca:34:2a:41:69:
         95:d9:8c:b0
-----BEGIN CERTIFICATE-----
MIIFGzCCBAOgAwIBAgIQXvHcHvseRrXegO3hdipVpzANBgkqhkiG9w0BAQUFADCB
tjELMAkGA1UEBhMCVVMxFzAVBgNVBAoTDlZlcmlTaWduLCBJbmMuMR8wHQYDVQQL
ExZWZXJpU2lnbiBUcnVzdCBOZXR3b3JrMTswOQYDVQQLEzJUZXJtcyBvZiB1c2Ug
YXQgaHR0cHM6Ly93d3cudmVyaXNpZ24uY29tL3JwYSAoYykwOTEwMC4GA1UEAxMn
VmVyaVNpZ24gQ2xhc3MgMyBDb2RlIFNpZ25pbmcgMjAwOS0yIENBMB4XDTEwMDcw
NzAwMDAwMFoXDTEzMDcwNjIzNTk1OVowgdgxCzAJBgNVBAYTAlVTMRMwEQYDVQQI
EwpDYWxpZm9ybmlhMRcwFQYDVQQHEw5SZWR3b29kIFNob3JlczEdMBsGA1UEChQU
T3JhY2xlIEFtZXJpY2EsIEluYy4xPjA8BgNVBAsTNURpZ2l0YWwgSUQgQ2xhc3Mg
MyAtIE1pY3Jvc29mdCBTb2Z0d2FyZSBWYWxpZGF0aW9uIHYyMR0wGwYDVQQLFBRT
b2Z0d2FyZSBFbmdpbmVlcmluZzEdMBsGA1UEAxQUT3JhY2xlIEFtZXJpY2EsIElu
Yy4wgZ8wDQYJKoZIhvcNAQEBBQADgY0AMIGJAoGBALN1ae0HW48bLkiXgiYYsUi3
ro/usvXL2M4oHZ1hGLXtl5OUuCQ9pZ1Xnju+NUp92Ld57FC9cZqBplym/zqm6MkY
xBZT93cYs9X4qre0Ab2DQ+wEnfhHoYP26FpqYv7vSj/BGCh8Aqk+c/7lwFCV9DEt
7bW8JhI0lREtDzqGYG3pAgMBAAGjggGDMIIBfzAJBgNVHRMEAjAAMA4GA1UdDwEB
/wQEAwIHgDBEBgNVHR8EPTA7MDmgN6A1hjNodHRwOi8vY3NjMy0yMDA5LTItY3Js
LnZlcmlzaWduLmNvbS9DU0MzLTIwMDktMi5jcmwwRAYDVR0gBD0wOzA5BgtghkgB
hvhFAQcXAzAqMCgGCCsGAQUFBwIBFhxodHRwczovL3d3dy52ZXJpc2lnbi5jb20v
cnBhMBMGA1UdJQQMMAoGCCsGAQUFBwMDMHUGCCsGAQUFBwEBBGkwZzAkBggrBgEF
BQcwAYYYaHR0cDovL29jc3AudmVyaXNpZ24uY29tMD8GCCsGAQUFBzAChjNodHRw
Oi8vY3NjMy0yMDA5LTItYWlhLnZlcmlzaWduLmNvbS9DU0MzLTIwMDktMi5jZXIw
HwYDVR0jBBgwFoAUl9BrqCZwyKE/lB8ILcQ1m6ShHvIwEQYJYIZIAYb4QgEBBAQD
AgQQMBYGCisGAQQBgjcCARsECDAGAQEAAQH/MA0GCSqGSIb3DQEBBQUAA4IBAQAm
WIjmT4Dk/YdC+iEWVtolWnoOUfrNICZucT3yPqOzFVpSiI9zXv+ynXjBJvaYelhi
zYApr9C1bF0c3T+0AyyaWbuVFuxfZMjR5q2Y42f1kSWZPv2y55zVQ3POrvDdvMmU
Uehg3htjhcUv/reG8oIzvROWDnY/XLhxOMtgT4appYPKwlv+AjM0bLpkcNIuC7mz
/SMOnkUu10RdChi9Lv8DnHcYkYOR/UO+4vI/Wn2NCxifbIkx16Oi+uwD1n5dLBs0
LOSuivLbnfaXW+qCU0hXkj4Fbk1bkjeetCD1Du7Q1vlLjdNJ2hgJa9h6VEWCHN01
BpvYYJe3yjQqQWmV2Yyw
-----END CERTIFICATE-----

