Certificate:
    Data:
        Version: 3 (0x2)
        Serial Number: 1 (0x1)
    Signature Algorithm: sha1WithRSAEncryption
        Issuer: C=SE, O=AddTrust AB, OU=AddTrust External TTP Network, CN=AddTrust External CA Root
        Validity
            Not Before: May 30 10:48:38 2000 GMT
            Not After : May 30 10:48:38 2020 GMT
        Subject: C=SE, O=AddTrust AB, OU=AddTrust External TTP Network, CN=AddTrust External CA Root
        Subject Public Key Info:
            Public Key Algorithm: rsaEncryption
                Public-Key: (2048 bit)
                Modulus:
                    00:b7:f7:1a:33:e6:f2:00:04:2d:39:e0:4e:5b:ed:
                    1f:bc:6c:0f:cd:b5:fa:23:b6:ce:de:9b:11:33:97:
                    a4:29:4c:7d:93:9f:bd:4a:bc:93:ed:03:1a:e3:8f:
                    cf:e5:6d:50:5a:d6:97:29:94:5a:80:b0:49:7a:db:
                    2e:95:fd:b8:ca:bf:37:38:2d:1e:3e:91:41:ad:70:
                    56:c7:f0:4f:3f:e8:32:9e:74:ca:c8:90:54:e9:c6:
                    5f:0f:78:9d:9a:40:3c:0e:ac:61:aa:5e:14:8f:9e:
                    87:a1:6a:50:dc:d7:9a:4e:af:05:b3:a6:71:94:9c:
                    71:b3:50:60:0a:c7:13:9d:38:07:86:02:a8:e9:a8:
                    69:26:18:90:ab:4c:b0:4f:23:ab:3a:4f:84:d8:df:
                    ce:9f:e1:69:6f:bb:d7:42:d7:6b:44:e4:c7:ad:ee:
                    6d:41:5f:72:5a:71:08:37:b3:79:65:a4:59:a0:94:
                    37:f7:00:2f:0d:c2:92:72:da:d0:38:72:db:14:a8:
                    45:c4:5d:2a:7d:b7:b4:d6:c4:ee:ac:cd:13:44:b7:
                    c9:2b:dd:43:00:25:fa:61:b9:69:6a:58:23:11:b7:
                    a7:33:8f:56:75:59:f5:cd:29:d7:46:b7:0a:2b:65:
                    b6:d3:42:6f:15:b2:b8:7b:fb:ef:e9:5d:53:d5:34:
                    5a:27
                Exponent: 65537 (0x10001)
        X509v3 extensions:
            X509v3 Subject Key Identifier: 
                AD:BD:98:7A:34:B4:26:F7:FA:C4:26:54:EF:03:BD:E0:24:CB:54:1A
            X509v3 Key Usage: 
                Certificate Sign, CRL Sign
            X509v3 Basic Constraints: critical
                CA:TRUE
            X509v3 Authority Key Identifier: 
                keyid:AD:BD:98:7A:34:B4:26:F7:FA:C4:26:54:EF:03:BD:E0:24:CB:54:1A
                DirName:/C=SE/O=AddTrust AB/OU=AddTrust External TTP Network/CN=AddTrust External CA Root
                serial:01

    Signature Algorithm: sha1WithRSAEncryption
         b0:9b:e0:85:25:c2:d6:23:e2:0f:96:06:92:9d:41:98:9c:d9:
         84:79:81:d9:1e:5b:14:07:23:36:65:8f:b0:d8:77:bb:ac:41:
         6c:47:60:83:51:b0:f9:32:3d:e7:fc:f6:26:13:c7:80:16:a5:
         bf:5a:fc:87:cf:78:79:89:21:9a:e2:4c:07:0a:86:35:bc:f2:
         de:51:c4:d2:96:b7:dc:7e:4e:ee:70:fd:1c:39:eb:0c:02:51:
         14:2d:8e:bd:16:e0:c1:df:46:75:e7:24:ad:ec:f4:42:b4:85:
         93:70:10:67:ba:9d:06:35:4a:18:d3:2b:7a:cc:51:42:a1:7a:
         63:d1:e6:bb:a1:c5:2b:c2:36:be:13:0d:e6:bd:63:7e:79:7b:
         a7:09:0d:40:ab:6a:dd:8f:8a:c3:f6:f6:8c:1a:42:05:51:d4:
         45:f5:9f:a7:62:21:68:15:20:43:3c:99:e7:7c:bd:24:d8:a9:
         91:17:73:88:3f:56:1b:31:38:18:b4:71:0f:9a:cd:c8:0e:9e:
         8e:2e:1b:e1:8c:98:83:cb:1f:31:f1:44:4c:c6:04:73:49:76:
         60:0f:c7:f8:bd:17:80:6b:2e:e9:cc:4c:0e:5a:9a:79:0f:20:
         0a:2e:d5:9e:63:26:1e:55:92:94:d8:82:17:5a:7b:d0:bc:c7:
         8f:4e:86:04
-----BEGIN CERTIFICATE-----
MIIENjCCAx6gAwIBAgIBATANBgkqhkiG9w0BAQUFADBvMQswCQYDVQQGEwJTRTEU
MBIGA1UEChMLQWRkVHJ1c3QgQUIxJjAkBgNVBAsTHUFkZFRydXN0IEV4dGVybmFs
IFRUUCBOZXR3b3JrMSIwIAYDVQQDExlBZGRUcnVzdCBFeHRlcm5hbCBDQSBSb290
MB4XDTAwMDUzMDEwNDgzOFoXDTIwMDUzMDEwNDgzOFowbzELMAkGA1UEBhMCU0Ux
FDASBgNVBAoTC0FkZFRydXN0IEFCMSYwJAYDVQQLEx1BZGRUcnVzdCBFeHRlcm5h
bCBUVFAgTmV0d29yazEiMCAGA1UEAxMZQWRkVHJ1c3QgRXh0ZXJuYWwgQ0EgUm9v
dDCCASIwDQYJKoZIhvcNAQEBBQADggEPADCCAQoCggEBALf3GjPm8gAELTngTlvt
H7xsD821+iO2zt6bETOXpClMfZOfvUq8k+0DGuOPz+VtUFrWlymUWoCwSXrbLpX9
uMq/NzgtHj6RQa1wVsfwTz/oMp50ysiQVOnGXw94nZpAPA6sYapeFI+eh6FqUNzX
mk6vBbOmcZSccbNQYArHE504B4YCqOmoaSYYkKtMsE8jqzpPhNjfzp/haW+710LX
a0Tkx63ubUFfclpxCDezeWWkWaCUN/cALw3CknLa0Dhy2xSoRcRdKn23tNbE7qzN
E0S3ySvdQwAl+mG5aWpYIxG3pzOPVnVZ9c0p10a3CitlttNCbxWyuHv77+ldU9U0
WicCAwEAAaOB3DCB2TAdBgNVHQ4EFgQUrb2YejS0Jvf6xCZU7wO94CTLVBowCwYD
VR0PBAQDAgEGMA8GA1UdEwEB/wQFMAMBAf8wgZkGA1UdIwSBkTCBjoAUrb2YejS0
Jvf6xCZU7wO94CTLVBqhc6RxMG8xCzAJBgNVBAYTAlNFMRQwEgYDVQQKEwtBZGRU
cnVzdCBBQjEmMCQGA1UECxMdQWRkVHJ1c3QgRXh0ZXJuYWwgVFRQIE5ldHdvcmsx
IjAgBgNVBAMTGUFkZFRydXN0IEV4dGVybmFsIENBIFJvb3SCAQEwDQYJKoZIhvcN
AQEFBQADggEBALCb4IUlwtYj4g+WBpKdQZic2YR5gdkeWxQHIzZlj7DYd7usQWxH
YINRsPkyPef89iYTx4AWpb9a/IfPeHmJIZriTAcKhjW88t5RxNKWt9x+Tu5w/Rw5
6wwCURQtjr0W4MHfRnXnJK3s9EK0hZNwEGe6nQY1ShjTK3rMUUKhemPR5ruhxSvC
Nr4TDea9Y355e6cJDUCrat2PisP29owaQgVR1EX1n6diIWgVIEM8med8vSTYqZEX
c4g/VhsxOBi0cQ+azcgOno4uG+GMmIPLHzHxREzGBHNJdmAPx/i9F4BrLunMTA5a
mnkPIAou1Z5jJh5VkpTYghdae9C8x49OhgQ=
-----END CERTIFICATE-----

Certificate:
    Data:
        Version: 3 (0x2)
        Serial Number:
            42:1a:f2:94:09:84:19:1f:52:0a:4b:c6:24:26:a7:4b
    Signature Algorithm: sha1WithRSAEncryption
        Issuer: C=SE, O=AddTrust AB, OU=AddTrust External TTP Network, CN=AddTrust External CA Root
        Validity
            Not Before: Jun  7 08:09:10 2005 GMT
            Not After : May 30 10:48:38 2020 GMT
        Subject: C=US, ST=UT, L=Salt Lake City, O=The USERTRUST Network, OU=http://www.usertrust.com, CN=UTN-USERFirst-Object
        Subject Public Key Info:
            Public Key Algorithm: rsaEncryption
                Public-Key: (2048 bit)
                Modulus:
                    00:ce:aa:81:3f:a3:a3:61:78:aa:31:00:55:95:11:
                    9e:27:0f:1f:1c:df:3a:9b:82:68:30:c0:4a:61:1d:
                    f1:2f:0e:fa:be:79:f7:a5:23:ef:55:51:96:84:cd:
                    db:e3:b9:6e:3e:31:d8:0a:20:67:c7:f4:d9:bf:94:
                    eb:47:04:3e:02:ce:2a:a2:5d:87:04:09:f6:30:9d:
                    18:8a:97:b2:aa:1c:fc:41:d2:a1:36:cb:fb:3d:91:
                    ba:e7:d9:70:35:fa:e4:e7:90:c3:9b:a3:9b:d3:3c:
                    f5:12:99:77:b1:b7:09:e0:68:e6:1c:b8:f3:94:63:
                    88:6a:6a:fe:0b:76:c9:be:f4:22:e4:67:b9:ab:1a:
                    5e:77:c1:85:07:dd:0d:6c:bf:ee:06:c7:77:6a:41:
                    9e:a7:0f:d7:fb:ee:94:17:b7:fc:85:be:a4:ab:c4:
                    1c:31:dd:d7:b6:d1:e4:f0:ef:df:16:8f:b2:52:93:
                    d7:a1:d4:89:a1:07:2e:bf:e1:01:12:42:1e:1a:e1:
                    d8:95:34:db:64:79:28:ff:ba:2e:11:c2:e5:e8:5b:
                    92:48:fb:47:0b:c2:6c:da:ad:32:83:41:f3:a5:e5:
                    41:70:fd:65:90:6d:fa:fa:51:c4:f9:bd:96:2b:19:
                    04:2c:d3:6d:a7:dc:f0:7f:6f:83:65:e2:6a:ab:87:
                    86:75
                Exponent: 65537 (0x10001)
        X509v3 extensions:
            X509v3 Authority Key Identifier: 
                keyid:AD:BD:98:7A:34:B4:26:F7:FA:C4:26:54:EF:03:BD:E0:24:CB:54:1A

            X509v3 Subject Key Identifier: 
                DA:ED:64:74:14:9C:14:3C:AB:DD:99:A9:BD:5B:28:4D:8B:3C:C9:D8
            X509v3 Key Usage: critical
                Certificate Sign, CRL Sign
            X509v3 Basic Constraints: critical
                CA:TRUE
            X509v3 Certificate Policies: 
                Policy: X509v3 Any Policy

            X509v3 CRL Distribution Points: 

                Full Name:
                  URI:http://crl.usertrust.com/AddTrustExternalCARoot.crl

            Authority Information Access: 
                OCSP - URI:http://ocsp.usertrust.com

    Signature Algorithm: sha1WithRSAEncryption
         4d:42:2f:a6:c1:8a:eb:07:80:90:58:46:8c:f8:19:39:66:2a:
         3c:5a:2c:6d:cf:d4:d9:87:55:8d:79:0b:12:88:7b:40:8f:d5:
         c7:f8:4b:8d:55:16:63:ad:b7:57:dc:3b:2b:bd:d3:c1:4f:1e:
         03:87:4b:44:9b:e3:e2:40:45:26:f3:26:49:2b:6a:84:f1:54:
         7a:d4:42:da:fc:d3:6a:bb:66:7e:ca:9e:ea:e9:bb:dc:07:c7:
         c3:92:4e:83:3c:81:49:9f:92:d5:32:09:ea:49:2e:a1:11:71:
         9a:36:d2:c5:4e:68:b6:cb:0e:1b:25:16:af:6c:de:5d:76:d8:
         1f:72:b1:93:26:86:17:db:18:de:af:45:e9:df:fb:98:af:14:
         18:ed:a4:5e:f6:89:94:45:f0:55:04:4a:dd:ff:27:dd:06:4a:
         40:f6:b4:bc:f1:e4:0f:99:02:bb:fd:5d:0e:2e:28:c1:be:3b:
         5f:1a:3f:97:10:84:bc:16:3e:d8:a3:9c:63:1d:66:cb:5c:5f:
         da:3e:f3:0f:0a:09:35:22:db:db:c0:3f:00:f9:e6:0d:5d:67:
         d1:fd:a0:1e:03:2b:d9:40:f7:be:cc:87:66:54:80:a6:a3:b8:
         f5:19:62:d5:d2:26:b1:98:26:ee:9a:cb:44:a7:45:5a:81:95:
         15:1a:f5:51
-----BEGIN CERTIFICATE-----
MIIEhDCCA2ygAwIBAgIQQhrylAmEGR9SCkvGJCanSzANBgkqhkiG9w0BAQUFADBv
MQswCQYDVQQGEwJTRTEUMBIGA1UEChMLQWRkVHJ1c3QgQUIxJjAkBgNVBAsTHUFk
ZFRydXN0IEV4dGVybmFsIFRUUCBOZXR3b3JrMSIwIAYDVQQDExlBZGRUcnVzdCBF
eHRlcm5hbCBDQSBSb290MB4XDTA1MDYwNzA4MDkxMFoXDTIwMDUzMDEwNDgzOFow
gZUxCzAJBgNVBAYTAlVTMQswCQYDVQQIEwJVVDEXMBUGA1UEBxMOU2FsdCBMYWtl
IENpdHkxHjAcBgNVBAoTFVRoZSBVU0VSVFJVU1QgTmV0d29yazEhMB8GA1UECxMY
aHR0cDovL3d3dy51c2VydHJ1c3QuY29tMR0wGwYDVQQDExRVVE4tVVNFUkZpcnN0
LU9iamVjdDCCASIwDQYJKoZIhvcNAQEBBQADggEPADCCAQoCggEBAM6qgT+jo2F4
qjEAVZURnicPHxzfOpuCaDDASmEd8S8O+r5596Uj71VRloTN2+O5bj4x2AogZ8f0
2b+U60cEPgLOKqJdhwQJ9jCdGIqXsqoc/EHSoTbL+z2RuufZcDX65OeQw5ujm9M8
9RKZd7G3CeBo5hy485RjiGpq/gt2yb70IuRnuasaXnfBhQfdDWy/7gbHd2pBnqcP
1/vulBe3/IW+pKvEHDHd17bR5PDv3xaPslKT16HUiaEHLr/hARJCHhrh2JU022R5
KP+6LhHC5ehbkkj7RwvCbNqtMoNB86XlQXD9ZZBt+vpRxPm9lisZBCzTbafc8H9v
g2XiaquHhnUCAwEAAaOB9DCB8TAfBgNVHSMEGDAWgBStvZh6NLQm9/rEJlTvA73g
JMtUGjAdBgNVHQ4EFgQU2u1kdBScFDyr3ZmpvVsoTYs8ydgwDgYDVR0PAQH/BAQD
AgEGMA8GA1UdEwEB/wQFMAMBAf8wEQYDVR0gBAowCDAGBgRVHSAAMEQGA1UdHwQ9
MDswOaA3oDWGM2h0dHA6Ly9jcmwudXNlcnRydXN0LmNvbS9BZGRUcnVzdEV4dGVy
bmFsQ0FSb290LmNybDA1BggrBgEFBQcBAQQpMCcwJQYIKwYBBQUHMAGGGWh0dHA6
Ly9vY3NwLnVzZXJ0cnVzdC5jb20wDQYJKoZIhvcNAQEFBQADggEBAE1CL6bBiusH
gJBYRoz4GTlmKjxaLG3P1NmHVY15CxKIe0CP1cf4S41VFmOtt1fcOyu908FPHgOH
S0Sb4+JARSbzJkkraoTxVHrUQtr802q7Zn7Knurpu9wHx8OSToM8gUmfktUyCepJ
LqERcZo20sVOaLbLDhslFq9s3l122B9ysZMmhhfbGN6vRenf+5ivFBjtpF72iZRF
8FUESt3/J90GSkD2tLzx5A+ZArv9XQ4uKMG+O18aP5cQhLwWPtijnGMdZstcX9o+
8w8KCTUi29vAPwD55g1dZ9H9oB4DK9lA977Mh2ZUgKajuPUZYtXSJrGYJu6ay0Sn
RVqBlRUa9VE=
-----END CERTIFICATE-----

Certificate:
    Data:
        Version: 3 (0x2)
        Serial Number:
            10:70:9d:4f:f5:54:08:d7:30:60:01:d8:ea:91:75:bb
    Signature Algorithm: sha1WithRSAEncryption
        Issuer: C=US, ST=UT, L=Salt Lake City, O=The USERTRUST Network, OU=http://www.usertrust.com, CN=UTN-USERFirst-Object
        Validity
            Not Before: Aug 24 00:00:00 2011 GMT
            Not After : May 30 10:48:38 2020 GMT
        Subject: C=GB, ST=Greater Manchester, L=Salford, O=COMODO CA Limited, CN=COMODO Code Signing CA 2
        Subject Public Key Info:
            Public Key Algorithm: rsaEncryption
                Public-Key: (2048 bit)
                Modulus:
                    00:cb:f8:e7:a7:e8:f1:97:28:40:68:80:37:d2:c8:
                    3f:8e:92:8a:92:37:87:47:80:ea:4c:99:cf:6e:f9:
                    15:47:bd:ee:75:f4:44:ac:d0:c3:d4:4d:f7:19:c0:
                    d3:3c:4d:c1:47:b9:59:65:16:93:8c:d9:0a:84:9b:
                    9f:e8:f6:6a:63:58:fe:5f:dc:d1:7f:4b:51:9f:00:
                    1c:00:87:54:20:07:57:a0:82:c9:2f:98:af:33:8a:
                    bb:7b:80:22:25:6a:6c:af:c2:2c:6c:79:13:bd:a3:
                    2a:48:d6:b5:8e:61:55:e9:6b:e8:3d:80:bf:14:03:
                    85:18:8e:7e:4c:e9:c2:19:88:73:92:72:cd:fa:ff:
                    50:4d:cb:2c:a6:7b:1a:73:b1:00:90:2c:d9:32:e2:
                    fb:fd:ac:95:42:36:ec:34:c5:13:53:68:b2:c1:9f:
                    40:9f:da:7b:c8:9d:62:6c:93:a2:42:d7:79:9f:97:
                    4f:31:5b:50:21:a1:ab:af:d9:1c:b2:ce:75:be:5b:
                    2c:56:00:24:8d:11:c1:75:1f:f0:fe:d2:95:fe:f0:
                    e1:31:23:18:67:c0:5b:13:fd:5a:98:94:94:ff:ff:
                    59:02:1f:00:ac:e6:f1:f2:fa:3a:73:b3:1d:42:fc:
                    54:75:cf:51:31:2f:e3:db:81:d9:77:23:2a:4f:59:
                    ce:23
                Exponent: 65537 (0x10001)
        X509v3 extensions:
            X509v3 Authority Key Identifier: 
                keyid:DA:ED:64:74:14:9C:14:3C:AB:DD:99:A9:BD:5B:28:4D:8B:3C:C9:D8

            X509v3 Subject Key Identifier: 
                1E:C5:B1:2C:7D:87:DA:02:68:7C:25:BC:0C:07:84:3F:B6:CF:DE:F1
            X509v3 Key Usage: critical
                Certificate Sign, CRL Sign
            X509v3 Basic Constraints: critical
                CA:TRUE, pathlen:0
            X509v3 Extended Key Usage: 
                Code Signing
            X509v3 Certificate Policies: 
                Policy: X509v3 Any Policy

            X509v3 CRL Distribution Points: 

                Full Name:
                  URI:http://crl.usertrust.com/UTN-USERFirst-Object.crl

            Authority Information Access: 
                CA Issuers - URI:http://crt.usertrust.com/UTNAddTrustObject_CA.crt
                OCSP - URI:http://ocsp.usertrust.com

    Signature Algorithm: sha1WithRSAEncryption
         95:89:77:93:68:01:5e:7c:d9:2d:37:07:90:5d:5a:42:5e:0c:
         64:b4:36:b5:0f:f6:ab:d5:39:27:de:22:46:a4:49:1c:66:4b:
         46:19:59:2e:79:49:03:f6:9c:92:df:6d:50:35:5c:0c:91:2e:
         60:03:59:d0:f1:64:f7:69:09:f6:7e:fe:eb:34:b3:6d:b1:bf:
         66:9c:a3:ba:31:78:b9:87:35:61:3d:92:31:1b:ef:f4:e8:9e:
         d6:ac:45:fa:0c:36:3c:80:67:bb:bd:ef:2e:c2:90:e1:3d:71:
         2f:3b:c1:b0:58:7e:45:c3:52:71:03:07:f6:f3:39:4d:8b:36:
         21:1b:01:df:d9:da:5e:2b:eb:0e:97:80:1e:44:1c:50:88:f5:
         c6:12:33:4a:a8:4d:a5:8d:2f:94:0c:7b:c6:bf:9a:2c:c3:32:
         cd:bd:8c:27:26:f0:e1:30:03:50:06:82:bc:f4:3b:b3:83:75:
         06:c6:ef:ba:ee:d3:80:f8:52:c6:ac:cb:79:f2:38:9e:7b:b0:
         92:58:42:91:05:c8:96:21:ad:b9:4b:16:81:14:69:f1:37:b0:
         fe:34:f7:dc:b0:df:97:f5:43:10:9b:76:8f:b4:65:f5:e8:9f:
         13:b7:1e:ac:6f:c4:69:8a:5f:ba:3c:61:7e:5e:49:86:23:13:
         2e:af:15:48
-----BEGIN CERTIFICATE-----
MIIE5zCCA8+gAwIBAgIQEHCdT/VUCNcwYAHY6pF1uzANBgkqhkiG9w0BAQUFADCB
lTELMAkGA1UEBhMCVVMxCzAJBgNVBAgTAlVUMRcwFQYDVQQHEw5TYWx0IExha2Ug
Q2l0eTEeMBwGA1UEChMVVGhlIFVTRVJUUlVTVCBOZXR3b3JrMSEwHwYDVQQLExho
dHRwOi8vd3d3LnVzZXJ0cnVzdC5jb20xHTAbBgNVBAMTFFVUTi1VU0VSRmlyc3Qt
T2JqZWN0MB4XDTExMDgyNDAwMDAwMFoXDTIwMDUzMDEwNDgzOFowezELMAkGA1UE
BhMCR0IxGzAZBgNVBAgTEkdyZWF0ZXIgTWFuY2hlc3RlcjEQMA4GA1UEBxMHU2Fs
Zm9yZDEaMBgGA1UEChMRQ09NT0RPIENBIExpbWl0ZWQxITAfBgNVBAMTGENPTU9E
TyBDb2RlIFNpZ25pbmcgQ0EgMjCCASIwDQYJKoZIhvcNAQEBBQADggEPADCCAQoC
ggEBAMv456fo8ZcoQGiAN9LIP46SipI3h0eA6kyZz275FUe97nX0RKzQw9RN9xnA
0zxNwUe5WWUWk4zZCoSbn+j2amNY/l/c0X9LUZ8AHACHVCAHV6CCyS+YrzOKu3uA
IiVqbK/CLGx5E72jKkjWtY5hVelr6D2AvxQDhRiOfkzpwhmIc5Jyzfr/UE3LLKZ7
GnOxAJAs2TLi+/2slUI27DTFE1NossGfQJ/ae8idYmyTokLXeZ+XTzFbUCGhq6/Z
HLLOdb5bLFYAJI0RwXUf8P7Slf7w4TEjGGfAWxP9WpiUlP//WQIfAKzm8fL6OnOz
HUL8VHXPUTEv49uB2XcjKk9ZziMCAwEAAaOCAUowggFGMB8GA1UdIwQYMBaAFNrt
ZHQUnBQ8q92Zqb1bKE2LPMnYMB0GA1UdDgQWBBQexbEsfYfaAmh8JbwMB4Q/ts/e
8TAOBgNVHQ8BAf8EBAMCAQYwEgYDVR0TAQH/BAgwBgEB/wIBADATBgNVHSUEDDAK
BggrBgEFBQcDAzARBgNVHSAECjAIMAYGBFUdIAAwQgYDVR0fBDswOTA3oDWgM4Yx
aHR0cDovL2NybC51c2VydHJ1c3QuY29tL1VUTi1VU0VSRmlyc3QtT2JqZWN0LmNy
bDB0BggrBgEFBQcBAQRoMGYwPQYIKwYBBQUHMAKGMWh0dHA6Ly9jcnQudXNlcnRy
dXN0LmNvbS9VVE5BZGRUcnVzdE9iamVjdF9DQS5jcnQwJQYIKwYBBQUHMAGGGWh0
dHA6Ly9vY3NwLnVzZXJ0cnVzdC5jb20wDQYJKoZIhvcNAQEFBQADggEBAJWJd5No
AV582S03B5BdWkJeDGS0NrUP9qvVOSfeIkakSRxmS0YZWS55SQP2nJLfbVA1XAyR
LmADWdDxZPdpCfZ+/us0s22xv2aco7oxeLmHNWE9kjEb7/TontasRfoMNjyAZ7u9
7y7CkOE9cS87wbBYfkXDUnEDB/bzOU2LNiEbAd/Z2l4r6w6XgB5EHFCI9cYSM0qo
TaWNL5QMe8a/mizDMs29jCcm8OEwA1AGgrz0O7ODdQbG77ru04D4Usasy3nyOJ57
sJJYQpEFyJYhrblLFoEUafE3sP4099yw35f1QxCbdo+0ZfXonxO3HqxvxGmKX7o8
YX5eSYYjEy6vFUg=
-----END CERTIFICATE-----

Certificate:
    Data:
        Version: 3 (0x2)
        Serial Number:
            71:63:f6:75:68:a1:e8:57:73:94:d7:ee:07:80:bb:b4
    Signature Algorithm: sha1WithRSAEncryption
        Issuer: C=GB, ST=Greater Manchester, L=Salford, O=COMODO CA Limited, CN=COMODO Code Signing CA 2
        Validity
            Not Before: Jun 26 00:00:00 2013 GMT
            Not After : Jun 25 23:59:59 2016 GMT
        Subject: C=AT/postalCode=2700, ST=NOE, L=Wiener Neustadt/street=Postfach 48, O=Irfan Skiljan, CN=Irfan Skiljan
        Subject Public Key Info:
            Public Key Algorithm: rsaEncryption
                Public-Key: (2048 bit)
                Modulus:
                    00:d2:a1:7a:25:8e:a6:18:70:2b:e3:2b:f0:94:cd:
                    d9:29:93:5e:55:44:5a:1a:39:7d:15:5e:ae:49:ad:
                    a0:24:8d:4a:3b:1e:37:ed:b2:4a:c8:e3:c3:e1:77:
                    95:9b:b6:b4:9c:e2:ca:7a:51:ac:94:38:e8:08:0a:
                    65:f6:19:7e:57:5e:80:e7:da:fb:af:2d:41:cf:a8:
                    3d:c3:7f:47:13:26:d6:da:23:62:a2:0f:4f:c5:96:
                    5d:2d:bc:84:dd:a1:f4:a2:ea:3f:2c:d4:d4:e2:89:
                    e1:5b:f4:c2:c0:42:29:3e:f0:6c:bc:30:b8:15:a7:
                    e3:2f:df:97:a3:e6:4b:29:d1:09:59:0e:f8:ea:de:
                    7a:5d:60:98:a4:f4:b7:3b:eb:09:f8:10:f8:27:c5:
                    1b:31:da:67:7c:0c:11:02:7c:62:b2:11:25:cb:05:
                    93:48:ec:4c:7d:fc:76:74:75:f5:6e:5e:a1:2f:f8:
                    30:1d:3d:92:82:2d:fa:42:79:32:5b:71:a4:86:b0:
                    c0:d8:04:52:70:28:1b:71:75:ad:37:c5:ef:00:3f:
                    09:7b:e1:7e:32:a0:0f:51:b5:0c:72:ff:e5:22:ec:
                    ce:e5:14:74:af:ab:7b:62:2a:6f:5e:de:67:24:a7:
                    ac:f8:d0:ab:a8:62:55:d0:e9:0c:c0:26:b6:c8:89:
                    d0:87
                Exponent: 65537 (0x10001)
        X509v3 extensions:
            X509v3 Authority Key Identifier: 
                keyid:1E:C5:B1:2C:7D:87:DA:02:68:7C:25:BC:0C:07:84:3F:B6:CF:DE:F1

            X509v3 Subject Key Identifier: 
                7F:D3:30:B5:DE:BF:83:94:5A:AB:78:BC:43:B9:69:D0:61:5E:51:39
            X509v3 Key Usage: critical
                Digital Signature
            X509v3 Basic Constraints: critical
                CA:FALSE
            X509v3 Extended Key Usage: 
                Code Signing
            Netscape Cert Type: 
                Object Signing
            X509v3 Certificate Policies: 
                Policy: 1.3.6.1.4.1.6449.1.2.1.3.2
                  CPS: https://secure.comodo.net/CPS

            X509v3 CRL Distribution Points: 

                Full Name:
                  URI:http://crl.comodoca.com/COMODOCodeSigningCA2.crl

            Authority Information Access: 
                CA Issuers - URI:http://crt.comodoca.com/COMODOCodeSigningCA2.crt
                OCSP - URI:http://ocsp.comodoca.com

            X509v3 Subject Alternative Name: 
                email:irfanview@gmx.net
    Signature Algorithm: sha1WithRSAEncryption
         84:11:bf:00:81:b8:fd:81:14:db:60:2d:a5:9a:c0:1d:d1:8c:
         f9:c6:46:09:ed:04:9f:43:b7:d1:6c:3c:02:e3:d0:55:82:2e:
         e1:ac:2b:d7:16:b0:54:75:03:51:46:11:80:97:d2:c7:57:2b:
         c7:1d:e4:c4:2e:53:21:f8:bb:37:64:af:74:93:23:3b:f7:bd:
         96:2c:50:07:0d:07:24:c6:d5:b9:9d:27:26:c3:d3:0e:94:cf:
         7a:e5:09:cf:47:35:c4:be:5b:58:c6:24:8c:3f:d4:48:df:8b:
         1b:5e:12:a7:a2:8f:ee:85:22:f7:72:49:33:71:cf:b6:5d:2c:
         76:01:b0:63:04:ce:08:0e:19:e8:92:d9:c1:cf:c8:8f:ad:ce:
         29:9d:79:88:72:76:bd:18:50:ac:b7:09:cc:02:a3:c0:e8:48:
         60:30:04:ae:b2:06:26:f7:be:78:a0:f1:6c:60:4a:7d:59:ce:
         2b:0b:a9:98:cb:b9:68:b2:2c:d2:46:14:28:c4:99:8f:1b:d4:
         4e:e0:2d:d5:0d:8d:ed:d4:b2:db:7f:b1:03:02:e4:4a:2e:91:
         6e:b3:c2:76:26:d8:f0:1b:88:59:87:60:25:ec:1a:8f:fc:62:
         09:ee:cf:38:43:c7:62:d1:ca:93:bf:b4:79:66:1d:b0:04:dd:
         c2:eb:e7:db
-----BEGIN CERTIFICATE-----
MIIFOTCCBCGgAwIBAgIQcWP2dWih6FdzlNfuB4C7tDANBgkqhkiG9w0BAQUFADB7
MQswCQYDVQQGEwJHQjEbMBkGA1UECBMSR3JlYXRlciBNYW5jaGVzdGVyMRAwDgYD
VQQHEwdTYWxmb3JkMRowGAYDVQQKExFDT01PRE8gQ0EgTGltaXRlZDEhMB8GA1UE
AxMYQ09NT0RPIENvZGUgU2lnbmluZyBDQSAyMB4XDTEzMDYyNjAwMDAwMFoXDTE2
MDYyNTIzNTk1OVowgYoxCzAJBgNVBAYTAkFUMQ0wCwYDVQQRDAQyNzAwMQwwCgYD
VQQIDANOT0UxGDAWBgNVBAcMD1dpZW5lciBOZXVzdGFkdDEUMBIGA1UECQwLUG9z
dGZhY2ggNDgxFjAUBgNVBAoMDUlyZmFuIFNraWxqYW4xFjAUBgNVBAMMDUlyZmFu
IFNraWxqYW4wggEiMA0GCSqGSIb3DQEBAQUAA4IBDwAwggEKAoIBAQDSoXoljqYY
cCvjK/CUzdkpk15VRFoaOX0VXq5JraAkjUo7HjftskrI48Phd5WbtrSc4sp6UayU
OOgICmX2GX5XXoDn2vuvLUHPqD3Df0cTJtbaI2KiD0/Fll0tvITdofSi6j8s1NTi
ieFb9MLAQik+8Gy8MLgVp+Mv35ej5ksp0QlZDvjq3npdYJik9Lc76wn4EPgnxRsx
2md8DBECfGKyESXLBZNI7Ex9/HZ0dfVuXqEv+DAdPZKCLfpCeTJbcaSGsMDYBFJw
KBtxda03xe8APwl74X4yoA9RtQxy/+Ui7M7lFHSvq3tiKm9e3mckp6z40KuoYlXQ
6QzAJrbIidCHAgMBAAGjggGnMIIBozAfBgNVHSMEGDAWgBQexbEsfYfaAmh8JbwM
B4Q/ts/e8TAdBgNVHQ4EFgQUf9Mwtd6/g5Raq3i8Q7lp0GFeUTkwDgYDVR0PAQH/
BAQDAgeAMAwGA1UdEwEB/wQCMAAwEwYDVR0lBAwwCgYIKwYBBQUHAwMwEQYJYIZI
AYb4QgEBBAQDAgQQMEYGA1UdIAQ/MD0wOwYMKwYBBAGyMQECAQMCMCswKQYIKwYB
BQUHAgEWHWh0dHBzOi8vc2VjdXJlLmNvbW9kby5uZXQvQ1BTMEEGA1UdHwQ6MDgw
NqA0oDKGMGh0dHA6Ly9jcmwuY29tb2RvY2EuY29tL0NPTU9ET0NvZGVTaWduaW5n
Q0EyLmNybDByBggrBgEFBQcBAQRmMGQwPAYIKwYBBQUHMAKGMGh0dHA6Ly9jcnQu
Y29tb2RvY2EuY29tL0NPTU9ET0NvZGVTaWduaW5nQ0EyLmNydDAkBggrBgEFBQcw
AYYYaHR0cDovL29jc3AuY29tb2RvY2EuY29tMBwGA1UdEQQVMBOBEWlyZmFudmll
d0BnbXgubmV0MA0GCSqGSIb3DQEBBQUAA4IBAQCEEb8Agbj9gRTbYC2lmsAd0Yz5
xkYJ7QSfQ7fRbDwC49BVgi7hrCvXFrBUdQNRRhGAl9LHVyvHHeTELlMh+Ls3ZK90
kyM7972WLFAHDQckxtW5nScmw9MOlM965QnPRzXEvltYxiSMP9RI34sbXhKnoo/u
hSL3ckkzcc+2XSx2AbBjBM4IDhnoktnBz8iPrc4pnXmIcna9GFCstwnMAqPA6Ehg
MASusgYm9754oPFsYEp9Wc4rC6mYy7losizSRhQoxJmPG9RO4C3VDY3t1LLbf7ED
AuRKLpFus8J2JtjwG4hZh2Al7BqP/GIJ7s84Q8di0cqTv7R5Zh2wBN3C6+fb
-----END CERTIFICATE-----

