Certificate:
    Data:
        Version: 3 (0x2)
        Serial Number:
            04:00:00:00:00:01:2f:4e:e1:35:5c
    Signature Algorithm: sha1WithRSAEncryption
        Issuer: C=BE, O=GlobalSign nv-sa, OU=Root CA, CN=GlobalSign Root CA
        Validity
            Not Before: Apr 13 10:00:00 2011 GMT
            Not After : Apr 13 10:00:00 2019 GMT
        Subject: C=BE, O=GlobalSign nv-sa, CN=GlobalSign CodeSigning CA - G2
        Subject Public Key Info:
            Public Key Algorithm: rsaEncryption
                Public-Key: (2048 bit)
                Modulus:
                    00:b2:4f:14:e7:10:be:d7:26:72:ab:36:97:ef:53:
                    bf:42:84:5e:58:d1:8a:28:fc:43:46:6f:7e:28:44:
                    50:0b:75:5d:00:d7:3c:0a:44:9e:20:6a:a4:f7:45:
                    4a:37:60:a3:6e:3f:12:fa:6d:fa:b6:46:c3:6a:a3:
                    b8:0c:27:28:02:57:28:d1:50:f7:61:39:55:b8:c3:
                    e1:25:86:52:3c:bf:05:1d:d7:b3:9a:f8:9a:24:31:
                    49:d5:a2:a9:e2:d3:91:ab:3e:3c:73:ef:f6:29:f1:
                    c8:35:d0:30:7b:7f:4e:92:a5:06:8f:87:e2:ce:f5:
                    c1:63:66:ac:18:69:2a:c1:5e:bb:5a:e8:6e:95:ff:
                    3b:80:62:9d:99:c7:c7:2f:66:d5:fd:62:1a:82:55:
                    5a:c6:fa:40:77:8e:c9:30:3c:1b:f0:f2:35:b8:6c:
                    59:9c:fd:e9:d6:ca:b4:40:1e:f7:04:ca:d1:67:a9:
                    74:e3:a5:08:54:d9:83:35:3b:8e:8c:23:0c:75:b6:
                    de:86:4a:9e:1a:3e:0a:50:49:38:9c:d2:a8:90:bf:
                    98:fa:c8:8c:2b:27:11:7e:2a:fb:ce:de:a9:ae:38:
                    93:22:fa:a6:ec:fb:5c:61:76:c3:44:d6:cc:0c:7e:
                    2f:6d:06:80:a2:74:40:bb:b7:1f:f4:3b:d7:73:54:
                    1f:f3
                Exponent: 65537 (0x10001)
        X509v3 extensions:
            X509v3 Key Usage: critical
                Certificate Sign, CRL Sign
            X509v3 Basic Constraints: critical
                CA:TRUE, pathlen:0
            X509v3 Subject Key Identifier: 
                08:6E:D8:B6:9C:8A:BF:ED:3E:D7:C3:74:5D:CC:80:1F:A8:2F:50:7A
            X509v3 Certificate Policies: 
                Policy: X509v3 Any Policy
                  CPS: https://www.globalsign.com/repository/

            X509v3 CRL Distribution Points: 

                Full Name:
                  URI:http://crl.globalsign.net/root.crl

            X509v3 Extended Key Usage: 
                Code Signing
            X509v3 Authority Key Identifier: 
                keyid:60:7B:66:1A:45:0D:97:CA:89:50:2F:7D:04:CD:34:A8:FF:FC:FD:4B

    Signature Algorithm: sha1WithRSAEncryption
         22:5c:c5:dd:3d:f4:0b:70:d8:e3:f5:e7:c5:8e:09:01:bb:b1:
         96:36:5c:5a:07:ad:c7:a8:44:49:51:25:7a:ae:0d:a4:19:3b:
         92:9c:cf:b9:42:26:bb:3b:6c:97:e7:c7:ce:11:6d:68:91:da:
         8d:6d:f1:53:4d:54:38:8c:61:f3:c8:82:76:69:be:81:32:0b:
         31:c3:6c:c9:9e:20:0a:58:2f:f0:48:fe:7e:48:07:aa:d7:43:
         58:94:73:54:04:31:a9:78:0d:3b:8c:b0:70:c1:3d:7e:d7:bd:
         2f:2a:c3:e2:f5:8f:0c:90:dc:6b:a5:c8:be:68:5e:5d:6d:f8:
         78:d2:be:49:95:1e:15:78:08:91:fb:34:c8:be:84:ad:bc:e0:
         c6:dd:18:db:f3:ca:f0:7b:c2:14:3c:18:b8:03:ba:95:3e:21:
         1e:3f:60:69:7a:7f:6a:03:9e:8d:4a:f9:f0:28:2c:30:84:5e:
         ec:26:72:42:b1:6d:cb:64:c3:12:8c:d6:84:4b:67:41:7c:b1:
         03:17:78:09:e3:ad:a8:b6:96:2d:a4:7e:80:03:4f:88:f7:c1:
         6b:5a:46:15:cd:2c:19:8b:d8:70:9c:e5:2d:49:88:60:72:a8:
         a4:19:52:70:43:5e:da:d6:46:03:b0:68:0e:24:ef:4a:f6:0b:
         25:24:ef:24
-----BEGIN CERTIFICATE-----
MIIEKDCCAxCgAwIBAgILBAAAAAABL07hNVwwDQYJKoZIhvcNAQEFBQAwVzELMAkG
A1UEBhMCQkUxGTAXBgNVBAoTEEdsb2JhbFNpZ24gbnYtc2ExEDAOBgNVBAsTB1Jv
b3QgQ0ExGzAZBgNVBAMTEkdsb2JhbFNpZ24gUm9vdCBDQTAeFw0xMTA0MTMxMDAw
MDBaFw0xOTA0MTMxMDAwMDBaMFExCzAJBgNVBAYTAkJFMRkwFwYDVQQKExBHbG9i
YWxTaWduIG52LXNhMScwJQYDVQQDEx5HbG9iYWxTaWduIENvZGVTaWduaW5nIENB
IC0gRzIwggEiMA0GCSqGSIb3DQEBAQUAA4IBDwAwggEKAoIBAQCyTxTnEL7XJnKr
NpfvU79ChF5Y0Yoo/ENGb34oRFALdV0A1zwKRJ4gaqT3RUo3YKNuPxL6bfq2RsNq
o7gMJygCVyjRUPdhOVW4w+ElhlI8vwUd17Oa+JokMUnVoqni05GrPjxz7/Yp8cg1
0DB7f06SpQaPh+LO9cFjZqwYaSrBXrta6G6V/zuAYp2Zx8cvZtX9YhqCVVrG+kB3
jskwPBvw8jW4bFmc/enWyrRAHvcEytFnqXTjpQhU2YM1O46MIwx1tt6GSp4aPgpQ
STic0qiQv5j6yIwrJxF+KvvO3qmuOJMi+qbs+1xhdsNE1swMfi9tBoCidEC7tx/0
O9dzVB/zAgMBAAGjgfowgfcwDgYDVR0PAQH/BAQDAgEGMBIGA1UdEwEB/wQIMAYB
Af8CAQAwHQYDVR0OBBYEFAhu2Lacir/tPtfDdF3MgB+oL1B6MEcGA1UdIARAMD4w
PAYEVR0gADA0MDIGCCsGAQUFBwIBFiZodHRwczovL3d3dy5nbG9iYWxzaWduLmNv
bS9yZXBvc2l0b3J5LzAzBgNVHR8ELDAqMCigJqAkhiJodHRwOi8vY3JsLmdsb2Jh
bHNpZ24ubmV0L3Jvb3QuY3JsMBMGA1UdJQQMMAoGCCsGAQUFBwMDMB8GA1UdIwQY
MBaAFGB7ZhpFDZfKiVAvfQTNNKj//P1LMA0GCSqGSIb3DQEBBQUAA4IBAQAiXMXd
PfQLcNjj9efFjgkBu7GWNlxaB63HqERJUSV6rg2kGTuSnM+5Qia7O2yX58fOEW1o
kdqNbfFTTVQ4jGHzyIJ2ab6BMgsxw2zJniAKWC/wSP5+SAeq10NYlHNUBDGpeA07
jLBwwT1+170vKsPi9Y8MkNxrpci+aF5dbfh40r5JlR4VeAiR+zTIvoStvODG3Rjb
88rwe8IUPBi4A7qVPiEeP2Bpen9qA56NSvnwKCwwhF7sJnJCsW3LZMMSjNaES2dB
fLEDF3gJ462otpYtpH6AA0+I98FrWkYVzSwZi9hwnOUtSYhgcqikGVJwQ17a1kYD
sGgOJO9K9gslJO8k
-----END CERTIFICATE-----

Certificate:
    Data:
        Version: 3 (0x2)
        Serial Number:
            11:21:17:f6:38:bd:c9:93:b7:61:c6:07:3d:63:c2:f8:6e:c4
    Signature Algorithm: sha1WithRSAEncryption
        Issuer: C=BE, O=GlobalSign nv-sa, CN=GlobalSign CodeSigning CA - G2
        Validity
            Not Before: Jun 20 14:48:08 2013 GMT
            Not After : Sep 10 09:27:26 2016 GMT
        Subject: C=DE, ST=Niedersachsen, L=Osnabrueck, O=Intevation GmbH, CN=Intevation GmbH/emailAddress=codesigning@intevation.de
        Subject Public Key Info:
            Public Key Algorithm: rsaEncryption
                Public-Key: (2048 bit)
                Modulus:
                    00:a8:9f:58:6a:68:5c:cb:35:30:0c:b1:a9:20:68:
                    d2:b2:e1:d6:c8:d9:1a:da:2e:04:d7:49:d7:7c:8c:
                    ff:6d:17:3a:f5:95:07:9c:a1:c8:00:89:c4:68:d9:
                    e0:d7:53:84:58:5c:3c:0f:34:87:f7:13:bd:b4:e5:
                    fe:a4:e0:f7:52:e4:c2:7f:6b:e3:45:c4:f4:32:d7:
                    51:9f:44:17:59:41:1f:e2:2a:12:0c:09:0a:68:bc:
                    ec:54:13:a2:a7:01:c2:e5:8a:5c:fc:1b:b9:59:5c:
                    6d:cf:b8:8c:b2:f0:b2:f4:09:63:8b:04:8f:75:a4:
                    48:bc:dc:01:d4:92:be:41:4b:86:02:49:50:c3:18:
                    75:24:03:5d:30:92:9b:d3:1f:11:85:ef:2a:be:45:
                    2b:d8:da:9a:cb:27:91:5c:b3:e2:48:81:19:91:a4:
                    5f:5a:b2:94:e5:36:45:70:69:12:ba:ab:47:76:d7:
                    82:25:a1:89:cc:a7:10:80:f2:31:72:7d:93:7a:dc:
                    fb:ea:39:85:e5:99:e2:e2:c3:b3:d2:82:02:d9:31:
                    40:b6:50:49:e7:ce:cb:cc:c8:8b:82:65:d0:1a:5a:
                    47:22:f7:a5:e2:f0:3b:44:ab:63:f8:8c:8e:b6:7e:
                    74:5f:64:f6:c8:1f:d0:17:21:e2:68:af:b8:06:0d:
                    7a:bf
                Exponent: 65537 (0x10001)
        X509v3 extensions:
            X509v3 Key Usage: critical
                Digital Signature
            X509v3 Certificate Policies: 
                Policy: 1.3.6.1.4.1.4146.1.50
                  CPS: https://www.globalsign.com/repository/

            X509v3 Basic Constraints: 
                CA:FALSE
            X509v3 Extended Key Usage: 
                Code Signing
            X509v3 CRL Distribution Points: 

                Full Name:
                  URI:http://crl.globalsign.com/gs/gscodesigng2.crl

            Authority Information Access: 
                CA Issuers - URI:http://secure.globalsign.com/cacert/gscodesigng2.crt
                OCSP - URI:http://ocsp2.globalsign.com/gscodesigng2

            X509v3 Subject Key Identifier: 
                09:56:86:D7:93:8B:B0:D8:41:18:5A:EC:D8:53:79:E3:92:53:94:25
            X509v3 Authority Key Identifier: 
                keyid:08:6E:D8:B6:9C:8A:BF:ED:3E:D7:C3:74:5D:CC:80:1F:A8:2F:50:7A

    Signature Algorithm: sha1WithRSAEncryption
         95:ec:ed:85:8f:f8:b9:78:34:79:83:f5:e2:dd:8b:3a:34:7b:
         bb:59:a7:97:74:ba:b3:93:92:7a:a4:61:79:44:88:af:fa:9e:
         0e:ac:57:da:be:92:d7:cc:b0:47:8a:4f:59:82:60:b3:a6:47:
         05:27:ca:9c:4f:1f:1c:72:c1:31:e4:cb:ce:18:ac:b4:d0:ce:
         b4:d7:86:6e:36:e5:5c:76:3c:20:36:c0:98:d5:46:e9:70:41:
         53:ca:35:67:73:3d:3c:ec:69:02:23:6c:a1:b3:40:4a:b4:eb:
         97:b2:19:e8:a8:3d:ef:d5:9b:b9:62:5e:ed:55:dd:f8:0c:4b:
         ce:a1:c8:08:36:9f:b0:85:13:57:c5:a5:17:37:95:47:6f:31:
         8d:c4:6a:e0:ac:42:ce:f1:54:60:82:db:17:5c:68:80:f7:1d:
         e6:3e:5b:4d:a9:90:63:d5:e0:cf:cb:15:93:28:ee:22:4f:34:
         b6:d9:0e:e0:a6:2f:e7:75:04:c2:15:82:5f:07:48:bc:e8:75:
         fa:fc:21:43:e9:36:bc:2e:6a:78:82:b9:e7:e2:0c:db:69:b1:
         af:31:91:f2:1e:d6:c3:6d:44:80:6a:1a:a9:75:4a:4a:40:b7:
         9c:d2:b5:31:b2:76:a4:10:53:fa:4b:86:e7:e3:37:20:74:6e:
         2c:19:78:e9
-----BEGIN CERTIFICATE-----
MIIFAzCCA+ugAwIBAgISESEX9ji9yZO3YcYHPWPC+G7EMA0GCSqGSIb3DQEBBQUA
MFExCzAJBgNVBAYTAkJFMRkwFwYDVQQKExBHbG9iYWxTaWduIG52LXNhMScwJQYD
VQQDEx5HbG9iYWxTaWduIENvZGVTaWduaW5nIENBIC0gRzIwHhcNMTMwNjIwMTQ0
ODA4WhcNMTYwOTEwMDkyNzI2WjCBmDELMAkGA1UEBhMCREUxFjAUBgNVBAgTDU5p
ZWRlcnNhY2hzZW4xEzARBgNVBAcTCk9zbmFicnVlY2sxGDAWBgNVBAoTD0ludGV2
YXRpb24gR21iSDEYMBYGA1UEAxMPSW50ZXZhdGlvbiBHbWJIMSgwJgYJKoZIhvcN
AQkBFhljb2Rlc2lnbmluZ0BpbnRldmF0aW9uLmRlMIIBIjANBgkqhkiG9w0BAQEF
AAOCAQ8AMIIBCgKCAQEAqJ9YamhcyzUwDLGpIGjSsuHWyNka2i4E10nXfIz/bRc6
9ZUHnKHIAInEaNng11OEWFw8DzSH9xO9tOX+pOD3UuTCf2vjRcT0MtdRn0QXWUEf
4ioSDAkKaLzsVBOipwHC5Ypc/Bu5WVxtz7iMsvCy9AljiwSPdaRIvNwB1JK+QUuG
AklQwxh1JANdMJKb0x8Rhe8qvkUr2NqayyeRXLPiSIEZkaRfWrKU5TZFcGkSuqtH
dteCJaGJzKcQgPIxcn2Tetz76jmF5Zni4sOz0oIC2TFAtlBJ587LzMiLgmXQGlpH
Ivel4vA7RKtj+IyOtn50X2T2yB/QFyHiaK+4Bg16vwIDAQABo4IBizCCAYcwDgYD
VR0PAQH/BAQDAgeAMEwGA1UdIARFMEMwQQYJKwYBBAGgMgEyMDQwMgYIKwYBBQUH
AgEWJmh0dHBzOi8vd3d3Lmdsb2JhbHNpZ24uY29tL3JlcG9zaXRvcnkvMAkGA1Ud
EwQCMAAwEwYDVR0lBAwwCgYIKwYBBQUHAwMwPgYDVR0fBDcwNTAzoDGgL4YtaHR0
cDovL2NybC5nbG9iYWxzaWduLmNvbS9ncy9nc2NvZGVzaWduZzIuY3JsMIGGBggr
BgEFBQcBAQR6MHgwQAYIKwYBBQUHMAKGNGh0dHA6Ly9zZWN1cmUuZ2xvYmFsc2ln
bi5jb20vY2FjZXJ0L2dzY29kZXNpZ25nMi5jcnQwNAYIKwYBBQUHMAGGKGh0dHA6
Ly9vY3NwMi5nbG9iYWxzaWduLmNvbS9nc2NvZGVzaWduZzIwHQYDVR0OBBYEFAlW
hteTi7DYQRha7NhTeeOSU5QlMB8GA1UdIwQYMBaAFAhu2Lacir/tPtfDdF3MgB+o
L1B6MA0GCSqGSIb3DQEBBQUAA4IBAQCV7O2Fj/i5eDR5g/Xi3Ys6NHu7WaeXdLqz
k5J6pGF5RIiv+p4OrFfavpLXzLBHik9ZgmCzpkcFJ8qcTx8ccsEx5MvOGKy00M60
14ZuNuVcdjwgNsCY1UbpcEFTyjVncz087GkCI2yhs0BKtOuXshnoqD3v1Zu5Yl7t
Vd34DEvOocgINp+whRNXxaUXN5VHbzGNxGrgrELO8VRggtsXXGiA9x3mPltNqZBj
1eDPyxWTKO4iTzS22Q7gpi/ndQTCFYJfB0i86HX6/CFD6Ta8Lmp4grnn4gzbabGv
MZHyHtbDbUSAahqpdUpKQLec0rUxsnakEFP6S4bn4zcgdG4sGXjp
-----END CERTIFICATE-----

