Certificate:
    Data:
        Version: 3 (0x2)
        Serial Number:
            06:d6:56:5d:62:16:83:94:1e:0c:f8:43:99:30:cc:16
    Signature Algorithm: sha1WithRSAEncryption
        Issuer: C=US, O=DigiCert Inc, OU=www.digicert.com, CN=DigiCert Assured ID Code Signing CA-1
        Validity
            Not Before: Jun 19 00:00:00 2012 GMT
            Not After : Aug 21 12:00:00 2013 GMT
        Subject: C=US, ST=California, L=Pleasanton, O=OpenVPN Technologies, Inc., CN=OpenVPN Technologies, Inc.
        Subject Public Key Info:
            Public Key Algorithm: rsaEncryption
                Public-Key: (2048 bit)
                Modulus:
                    00:e1:b5:d8:8b:73:a4:04:f1:aa:70:f3:b9:6b:1c:
                    a7:74:e9:d3:dc:b8:08:fd:a5:0e:4e:25:c7:9a:79:
                    40:2d:06:4c:0a:c7:f1:5f:7e:b1:da:6f:a6:4e:04:
                    87:74:79:ab:27:ef:3c:9a:c2:33:8c:23:f9:ee:ff:
                    7f:1e:8e:bb:cd:2a:fd:7a:8b:3c:7a:00:18:7d:14:
                    4d:a3:99:5e:e5:dd:7f:f2:46:9a:6d:65:01:6c:54:
                    df:cf:ed:df:93:fe:24:9a:19:bf:00:35:76:ae:c9:
                    5f:70:f3:e9:88:98:ae:83:e4:63:ab:c4:7c:1d:a5:
                    ae:db:b4:6e:9f:51:52:5d:e2:22:bd:af:14:dc:ba:
                    42:21:57:1d:86:19:91:81:f4:b0:75:ee:89:bd:f3:
                    2a:2d:fa:a2:d0:62:c9:ce:90:c8:26:6f:ce:c4:8c:
                    6e:b3:cc:f4:aa:36:61:ab:c5:ce:b9:8a:6a:7f:cb:
                    a9:41:02:49:d5:3f:ff:17:31:89:79:6a:30:62:7a:
                    ed:f0:86:71:fb:96:b5:5e:6d:9a:b1:df:37:a2:0d:
                    a9:c2:b4:1c:ac:88:0d:84:3c:d5:88:9a:b9:08:22:
                    4f:d2:c0:4c:cc:ad:0f:5a:73:93:9c:bc:bf:a0:7c:
                    3d:88:fc:f1:28:40:d2:4e:87:ea:76:8b:88:57:86:
                    0c:e9
                Exponent: 65537 (0x10001)
        X509v3 extensions:
            X509v3 Authority Key Identifier: 
                keyid:7B:68:CE:29:AA:C0:17:BE:49:7A:E1:E5:3F:D6:A7:F7:45:8F:35:32

            X509v3 Subject Key Identifier: 
                10:05:69:9B:CB:FC:9D:08:1C:8B:2A:FF:D5:C7:4B:3E:08:17:72:3E
            X509v3 Key Usage: critical
                Digital Signature
            X509v3 Extended Key Usage: 
                Code Signing
            X509v3 CRL Distribution Points: 

                Full Name:
                  URI:http://crl3.digicert.com/assured-cs-2011a.crl

                Full Name:
                  URI:http://crl4.digicert.com/assured-cs-2011a.crl

            X509v3 Certificate Policies: 
                Policy: 2.16.840.1.114412.3.1
                  CPS: http://www.digicert.com/ssl-cps-repository.htm
                  User Notice:
                    Explicit Text: 

            Authority Information Access: 
                OCSP - URI:http://ocsp.digicert.com
                CA Issuers - URI:http://cacerts.digicert.com/DigiCertAssuredIDCodeSigningCA-1.crt

            X509v3 Basic Constraints: critical
                CA:FALSE
    Signature Algorithm: sha1WithRSAEncryption
         03:7c:8b:c1:49:24:84:9b:38:bc:f2:06:7c:25:f2:e5:d0:78:
         0c:f1:b6:1e:08:63:36:f6:88:35:80:6f:a9:a0:f7:e5:6d:30:
         25:5d:bd:9b:ac:d3:80:7b:87:f2:e2:60:6f:a8:ad:b9:44:56:
         75:6d:35:f8:30:ed:b0:a8:e0:6e:f0:2e:43:31:60:65:9d:67:
         b3:df:76:73:07:2e:9b:db:bb:29:ec:09:39:36:78:7a:aa:66:
         9a:13:5d:a2:6c:c8:15:7a:54:fb:50:71:4a:c8:a3:b1:c7:c0:
         da:59:95:eb:cd:33:d1:53:cc:1b:a6:ec:c4:c9:fc:f5:43:59:
         2f:16:bc:65:d7:41:74:79:8d:5b:d2:b2:d3:c5:88:46:89:bf:
         ff:ed:f3:8b:8a:77:07:92:7c:1b:83:91:ca:fa:6d:5b:e9:a2:
         34:f3:7a:6d:6a:81:a9:4b:ce:ce:2c:62:96:ae:57:72:96:b0:
         76:c9:6b:6a:01:cc:dd:de:15:8c:a0:c6:2f:d1:bb:7f:85:4c:
         56:67:69:7b:06:10:c7:67:22:0b:1b:7a:0f:b8:c3:83:7a:b2:
         c8:1c:c8:03:c6:1e:8e:f8:bb:4e:88:7f:82:c2:d0:41:1a:eb:
         93:73:c0:b7:03:61:4a:21:d2:13:cc:8e:67:7e:a8:96:70:72:
         e6:7e:61:e7
-----BEGIN CERTIFICATE-----
MIIGtjCCBZ6gAwIBAgIQBtZWXWIWg5QeDPhDmTDMFjANBgkqhkiG9w0BAQUFADBv
MQswCQYDVQQGEwJVUzEVMBMGA1UEChMMRGlnaUNlcnQgSW5jMRkwFwYDVQQLExB3
d3cuZGlnaWNlcnQuY29tMS4wLAYDVQQDEyVEaWdpQ2VydCBBc3N1cmVkIElEIENv
ZGUgU2lnbmluZyBDQS0xMB4XDTEyMDYxOTAwMDAwMFoXDTEzMDgyMTEyMDAwMFow
gYExCzAJBgNVBAYTAlVTMRMwEQYDVQQIEwpDYWxpZm9ybmlhMRMwEQYDVQQHEwpQ
bGVhc2FudG9uMSMwIQYDVQQKExpPcGVuVlBOIFRlY2hub2xvZ2llcywgSW5jLjEj
MCEGA1UEAxMaT3BlblZQTiBUZWNobm9sb2dpZXMsIEluYy4wggEiMA0GCSqGSIb3
DQEBAQUAA4IBDwAwggEKAoIBAQDhtdiLc6QE8apw87lrHKd06dPcuAj9pQ5OJcea
eUAtBkwKx/FffrHab6ZOBId0easn7zyawjOMI/nu/38ejrvNKv16izx6ABh9FE2j
mV7l3X/yRpptZQFsVN/P7d+T/iSaGb8ANXauyV9w8+mImK6D5GOrxHwdpa7btG6f
UVJd4iK9rxTcukIhVx2GGZGB9LB17om98yot+qLQYsnOkMgmb87EjG6zzPSqNmGr
xc65imp/y6lBAknVP/8XMYl5ajBieu3whnH7lrVebZqx3zeiDanCtBysiA2EPNWI
mrkIIk/SwEzMrQ9ac5OcvL+gfD2I/PEoQNJOh+p2i4hXhgzpAgMBAAGjggM5MIID
NTAfBgNVHSMEGDAWgBR7aM4pqsAXvkl64eU/1qf3RY81MjAdBgNVHQ4EFgQUEAVp
m8v8nQgciyr/1cdLPggXcj4wDgYDVR0PAQH/BAQDAgeAMBMGA1UdJQQMMAoGCCsG
AQUFBwMDMHMGA1UdHwRsMGowM6AxoC+GLWh0dHA6Ly9jcmwzLmRpZ2ljZXJ0LmNv
bS9hc3N1cmVkLWNzLTIwMTFhLmNybDAzoDGgL4YtaHR0cDovL2NybDQuZGlnaWNl
cnQuY29tL2Fzc3VyZWQtY3MtMjAxMWEuY3JsMIIBxAYDVR0gBIIBuzCCAbcwggGz
BglghkgBhv1sAwEwggGkMDoGCCsGAQUFBwIBFi5odHRwOi8vd3d3LmRpZ2ljZXJ0
LmNvbS9zc2wtY3BzLXJlcG9zaXRvcnkuaHRtMIIBZAYIKwYBBQUHAgIwggFWHoIB
UgBBAG4AeQAgAHUAcwBlACAAbwBmACAAdABoAGkAcwAgAEMAZQByAHQAaQBmAGkA
YwBhAHQAZQAgAGMAbwBuAHMAdABpAHQAdQB0AGUAcwAgAGEAYwBjAGUAcAB0AGEA
bgBjAGUAIABvAGYAIAB0AGgAZQAgAEQAaQBnAGkAQwBlAHIAdAAgAEMAUAAvAEMA
UABTACAAYQBuAGQAIAB0AGgAZQAgAFIAZQBsAHkAaQBuAGcAIABQAGEAcgB0AHkA
IABBAGcAcgBlAGUAbQBlAG4AdAAgAHcAaABpAGMAaAAgAGwAaQBtAGkAdAAgAGwA
aQBhAGIAaQBsAGkAdAB5ACAAYQBuAGQAIABhAHIAZQAgAGkAbgBjAG8AcgBwAG8A
cgBhAHQAZQBkACAAaABlAHIAZQBpAG4AIABiAHkAIAByAGUAZgBlAHIAZQBuAGMA
ZQAuMIGCBggrBgEFBQcBAQR2MHQwJAYIKwYBBQUHMAGGGGh0dHA6Ly9vY3NwLmRp
Z2ljZXJ0LmNvbTBMBggrBgEFBQcwAoZAaHR0cDovL2NhY2VydHMuZGlnaWNlcnQu
Y29tL0RpZ2lDZXJ0QXNzdXJlZElEQ29kZVNpZ25pbmdDQS0xLmNydDAMBgNVHRMB
Af8EAjAAMA0GCSqGSIb3DQEBBQUAA4IBAQADfIvBSSSEmzi88gZ8JfLl0HgM8bYe
CGM29og1gG+poPflbTAlXb2brNOAe4fy4mBvqK25RFZ1bTX4MO2wqOBu8C5DMWBl
nWez33ZzBy6b27sp7Ak5Nnh6qmaaE12ibMgVelT7UHFKyKOxx8DaWZXrzTPRU8wb
puzEyfz1Q1kvFrxl10F0eY1b0rLTxYhGib//7fOLincHknwbg5HK+m1b6aI083pt
aoGpS87OLGKWrldylrB2yWtqAczd3hWMoMYv0bt/hUxWZ2l7BhDHZyILG3oPuMOD
erLIHMgDxh6O+LtOiH+CwtBBGuuTc8C3A2FKIdITzI5nfqiWcHLmfmHn
-----END CERTIFICATE-----

Certificate:
    Data:
        Version: 3 (0x2)
        Serial Number:
            06:fd:f9:03:96:03:ad:ea:00:0a:eb:3f:27:bb:ba:1b
    Signature Algorithm: sha1WithRSAEncryption
        Issuer: C=US, O=DigiCert Inc, OU=www.digicert.com, CN=DigiCert Assured ID Root CA
        Validity
            Not Before: Nov 10 00:00:00 2006 GMT
            Not After : Nov 10 00:00:00 2021 GMT
        Subject: C=US, O=DigiCert Inc, OU=www.digicert.com, CN=DigiCert Assured ID CA-1
        Subject Public Key Info:
            Public Key Algorithm: rsaEncryption
                Public-Key: (2048 bit)
                Modulus:
                    00:e8:82:2d:99:f9:ca:c2:42:95:a5:80:73:40:70:
                    d2:9e:56:54:5c:a9:c4:d2:41:06:8f:c9:33:fc:4d:
                    45:91:5c:81:9f:ed:2c:9c:f8:16:59:df:9e:b5:24:
                    15:c2:98:b9:b4:77:49:dc:89:c4:0a:da:af:cb:5e:
                    6b:ed:ad:b0:71:31:eb:cf:3a:40:0c:46:4d:93:ec:
                    8b:7a:36:08:03:ab:0c:34:fe:18:49:82:fe:c7:c7:
                    31:48:80:7c:1e:a2:0f:92:0e:50:c9:c6:87:eb:36:
                    3f:d8:30:c3:ff:a6:f7:fb:a2:cd:6f:73:23:fe:ac:
                    56:05:90:f0:32:21:16:89:c6:70:88:f9:05:97:7d:
                    a3:c7:43:dd:02:e8:3b:3d:ed:b1:41:a3:ed:3f:be:
                    db:95:48:c4:ee:1e:b3:f2:bc:0c:2b:99:d0:c6:5d:
                    12:42:81:e1:83:6e:82:73:3f:26:4b:14:90:ae:59:
                    66:0a:c4:8d:be:d2:ce:06:ae:ad:84:6f:48:84:9b:
                    4f:40:b9:f1:4c:f2:af:98:fb:f6:ce:40:5d:5c:f6:
                    a8:f1:2f:af:ec:89:22:f2:6b:18:65:b1:c1:73:ad:
                    d7:f1:d8:cf:1e:0a:74:5c:42:b8:68:7e:b7:d5:77:
                    0a:27:56:7c:0f:62:a4:3f:32:14:60:95:fd:07:04:
                    a2:09
                Exponent: 65537 (0x10001)
        X509v3 extensions:
            X509v3 Key Usage: critical
                Digital Signature, Certificate Sign, CRL Sign
            X509v3 Extended Key Usage: 
                TLS Web Server Authentication, TLS Web Client Authentication, Code Signing, E-mail Protection, Time Stamping
            X509v3 Certificate Policies: 
                Policy: 2.16.840.1.114412.0.1.4
                  CPS: http://www.digicert.com/ssl-cps-repository.htm
                  User Notice:
                    Explicit Text: 
                Policy: 2.16.840.1.114412.3.21

            X509v3 Basic Constraints: critical
                CA:TRUE, pathlen:0
            Authority Information Access: 
                OCSP - URI:http://ocsp.digicert.com
                CA Issuers - URI:http://cacerts.digicert.com/DigiCertAssuredIDRootCA.crt

            X509v3 CRL Distribution Points: 

                Full Name:
                  URI:http://crl3.digicert.com/DigiCertAssuredIDRootCA.crl

                Full Name:
                  URI:http://crl4.digicert.com/DigiCertAssuredIDRootCA.crl

            X509v3 Subject Key Identifier: 
                15:00:12:2B:13:98:B2:99:07:ED:1E:DF:A2:BE:57:0D:2B:67:02:CD
            X509v3 Authority Key Identifier: 
                keyid:45:EB:A2:AF:F4:92:CB:82:31:2D:51:8B:A7:A7:21:9D:F3:6D:C8:0F

    Signature Algorithm: sha1WithRSAEncryption
         46:50:3e:c9:b7:28:24:a7:38:1d:b6:5b:29:af:52:cf:52:e9:
         31:47:ab:56:5c:7b:d5:0d:0b:41:b3:ef:ec:75:1f:74:38:f2:
         b2:5c:61:a2:9c:95:c3:50:e4:82:b9:23:d1:ba:3a:86:72:ad:
         38:78:ac:75:5d:17:17:34:72:47:85:94:56:d1:eb:bb:36:84:
         77:cc:24:a5:f3:04:19:55:a9:e7:e3:e7:ab:62:cd:fb:8b:2d:
         90:c2:c0:d2:b5:94:bd:5e:4f:b1:05:d2:0e:3d:1a:a9:14:5b:
         a6:86:31:62:a8:a8:33:e4:9b:39:a7:c4:f5:ce:1d:78:76:94:
         25:73:e4:2a:ab:cf:9c:76:4b:ed:5f:c2:4b:16:e4:4b:70:4c:
         00:89:1e:fc:c5:79:bc:4c:12:57:fe:5f:e1:1e:bc:02:5d:a8:
         fe:fb:07:38:4f:0d:c6:5d:91:b9:0f:67:45:cd:d6:83:ed:e7:
         92:0d:8d:b1:69:8c:4f:fb:59:e0:23:0f:d2:aa:ae:00:7c:ee:
         9c:42:0e:cf:91:d7:27:b7:16:ee:0f:c3:bd:7c:0a:a0:ee:2c:
         08:55:85:22:b8:eb:18:1a:4d:fc:2a:21:ad:49:31:83:47:95:
         77:71:dc:b1:1b:4b:4b:1c:10:9c:77:14:c1:9d:4f:2f:5a:95:
         08:29:10:26
-----BEGIN CERTIFICATE-----
MIIGzTCCBbWgAwIBAgIQBv35A5YDreoACus/J7u6GzANBgkqhkiG9w0BAQUFADBl
MQswCQYDVQQGEwJVUzEVMBMGA1UEChMMRGlnaUNlcnQgSW5jMRkwFwYDVQQLExB3
d3cuZGlnaWNlcnQuY29tMSQwIgYDVQQDExtEaWdpQ2VydCBBc3N1cmVkIElEIFJv
b3QgQ0EwHhcNMDYxMTEwMDAwMDAwWhcNMjExMTEwMDAwMDAwWjBiMQswCQYDVQQG
EwJVUzEVMBMGA1UEChMMRGlnaUNlcnQgSW5jMRkwFwYDVQQLExB3d3cuZGlnaWNl
cnQuY29tMSEwHwYDVQQDExhEaWdpQ2VydCBBc3N1cmVkIElEIENBLTEwggEiMA0G
CSqGSIb3DQEBAQUAA4IBDwAwggEKAoIBAQDogi2Z+crCQpWlgHNAcNKeVlRcqcTS
QQaPyTP8TUWRXIGf7Syc+BZZ3561JBXCmLm0d0ncicQK2q/LXmvtrbBxMevPOkAM
Rk2T7It6NggDqww0/hhJgv7HxzFIgHweog+SDlDJxofrNj/YMMP/pvf7os1vcyP+
rFYFkPAyIRaJxnCI+QWXfaPHQ90C6Ds97bFBo+0/vtuVSMTuHrPyvAwrmdDGXRJC
geGDboJzPyZLFJCuWWYKxI2+0s4Grq2Eb0iEm09AufFM8q+Y+/bOQF1c9qjxL6/s
iSLyaxhlscFzrdfx2M8eCnRcQrhofrfVdwonVnwPYqQ/MhRglf0HBKIJAgMBAAGj
ggN6MIIDdjAOBgNVHQ8BAf8EBAMCAYYwOwYDVR0lBDQwMgYIKwYBBQUHAwEGCCsG
AQUFBwMCBggrBgEFBQcDAwYIKwYBBQUHAwQGCCsGAQUFBwMIMIIB0gYDVR0gBIIB
yTCCAcUwggG0BgpghkgBhv1sAAEEMIIBpDA6BggrBgEFBQcCARYuaHR0cDovL3d3
dy5kaWdpY2VydC5jb20vc3NsLWNwcy1yZXBvc2l0b3J5Lmh0bTCCAWQGCCsGAQUF
BwICMIIBVh6CAVIAQQBuAHkAIAB1AHMAZQAgAG8AZgAgAHQAaABpAHMAIABDAGUA
cgB0AGkAZgBpAGMAYQB0AGUAIABjAG8AbgBzAHQAaQB0AHUAdABlAHMAIABhAGMA
YwBlAHAAdABhAG4AYwBlACAAbwBmACAAdABoAGUAIABEAGkAZwBpAEMAZQByAHQA
IABDAFAALwBDAFAAUwAgAGEAbgBkACAAdABoAGUAIABSAGUAbAB5AGkAbgBnACAA
UABhAHIAdAB5ACAAQQBnAHIAZQBlAG0AZQBuAHQAIAB3AGgAaQBjAGgAIABsAGkA
bQBpAHQAIABsAGkAYQBiAGkAbABpAHQAeQAgAGEAbgBkACAAYQByAGUAIABpAG4A
YwBvAHIAcABvAHIAYQB0AGUAZAAgAGgAZQByAGUAaQBuACAAYgB5ACAAcgBlAGYA
ZQByAGUAbgBjAGUALjALBglghkgBhv1sAxUwEgYDVR0TAQH/BAgwBgEB/wIBADB5
BggrBgEFBQcBAQRtMGswJAYIKwYBBQUHMAGGGGh0dHA6Ly9vY3NwLmRpZ2ljZXJ0
LmNvbTBDBggrBgEFBQcwAoY3aHR0cDovL2NhY2VydHMuZGlnaWNlcnQuY29tL0Rp
Z2lDZXJ0QXNzdXJlZElEUm9vdENBLmNydDCBgQYDVR0fBHoweDA6oDigNoY0aHR0
cDovL2NybDMuZGlnaWNlcnQuY29tL0RpZ2lDZXJ0QXNzdXJlZElEUm9vdENBLmNy
bDA6oDigNoY0aHR0cDovL2NybDQuZGlnaWNlcnQuY29tL0RpZ2lDZXJ0QXNzdXJl
ZElEUm9vdENBLmNybDAdBgNVHQ4EFgQUFQASKxOYspkH7R7for5XDStnAs0wHwYD
VR0jBBgwFoAUReuir/SSy4IxLVGLp6chnfNtyA8wDQYJKoZIhvcNAQEFBQADggEB
AEZQPsm3KCSnOB22WymvUs9S6TFHq1Zce9UNC0Gz7+x1H3Q48rJcYaKclcNQ5IK5
I9G6OoZyrTh4rHVdFxc0ckeFlFbR67s2hHfMJKXzBBlVqefj56tizfuLLZDCwNK1
lL1eT7EF0g49GqkUW6aGMWKoqDPkmzmnxPXOHXh2lCVz5Cqrz5x2S+1fwksW5Etw
TACJHvzFebxMElf+X+EevAJdqP77BzhPDcZdkbkPZ0XN1oPt55INjbFpjE/7WeAj
D9KqrgB87pxCDs+R1ye3Fu4Pw718CqDuLAhVhSK46xgaTfwqIa1JMYNHlXdx3LEb
S0scEJx3FMGdTy9alQgpECY=
-----END CERTIFICATE-----

Certificate:
    Data:
        Version: 3 (0x2)
        Serial Number:
            03:8b:96:f0:70:d9:e2:1e:55:a5:42:67:92:e1:c8:3a
    Signature Algorithm: sha1WithRSAEncryption
        Issuer: C=US, O=DigiCert Inc, OU=www.digicert.com, CN=DigiCert Assured ID CA-1
        Validity
            Not Before: Apr  4 00:00:00 2012 GMT
            Not After : Apr 18 00:00:00 2013 GMT
        Subject: C=US, O=DigiCert, CN=DigiCert Timestamp Responder
        Subject Public Key Info:
            Public Key Algorithm: rsaEncryption
                Public-Key: (2048 bit)
                Modulus:
                    00:c6:7f:bb:63:fb:f1:7c:43:49:88:26:74:5f:8a:
                    db:a2:0c:13:35:a5:88:af:aa:d1:30:ca:33:dd:a3:
                    d0:76:81:15:d6:d6:db:e1:34:2d:05:20:6f:c1:a1:
                    f4:17:67:b7:4d:de:21:13:60:4e:09:72:ad:57:5e:
                    78:90:3b:b5:cc:2d:cd:79:b8:62:d9:4f:31:dc:d1:
                    c9:8c:08:0b:fc:b5:e4:e0:27:e9:a7:ee:b6:bd:0d:
                    ea:70:f3:05:db:f3:68:eb:f8:3f:11:33:79:24:c0:
                    7b:2a:7c:52:9d:a6:1c:ce:64:1f:c6:72:f8:14:9c:
                    4d:11:d8:a2:43:41:72:ba:0e:a3:be:af:d2:fd:78:
                    dc:47:95:17:70:6c:9c:20:c1:ab:f9:61:63:e6:8f:
                    99:80:73:b6:fe:9e:31:df:4d:bf:e1:bc:4f:8b:81:
                    fc:c5:a8:43:3b:1b:24:28:67:c9:e8:f3:d4:91:cb:
                    05:a9:16:cf:be:e3:63:df:ea:82:a1:a8:85:dc:04:
                    10:ec:44:40:34:37:19:cd:30:71:7c:da:3d:02:b6:
                    a8:77:b0:7d:83:dd:64:08:13:7a:26:7b:f4:97:37:
                    cb:b1:6f:dc:2e:32:7d:d8:d3:bf:c7:88:81:0f:91:
                    49:1d:f1:63:de:9c:58:6d:8f:35:26:59:29:c6:c0:
                    74:cf
                Exponent: 65537 (0x10001)
        X509v3 extensions:
            X509v3 Key Usage: critical
                Digital Signature
            X509v3 Basic Constraints: critical
                CA:FALSE
            X509v3 Extended Key Usage: critical
                Time Stamping
            X509v3 Certificate Policies: 
                Policy: 2.16.840.1.114412.7.1
                  CPS: http://www.digicert.com/ssl-cps-repository.htm
                  User Notice:
                    Explicit Text: 

            X509v3 Authority Key Identifier: 
                keyid:15:00:12:2B:13:98:B2:99:07:ED:1E:DF:A2:BE:57:0D:2B:67:02:CD

            X509v3 Subject Key Identifier: 
                26:AA:0F:F4:43:0D:A3:98:17:A5:5F:12:F4:F8:92:8E:A9:E4:84:34
            Authority Information Access: 
                OCSP - URI:http://ocsp.digicert.com
                CA Issuers - URI:http://cacerts.digicert.com/DigiCertAssuredIDCA-1.crt

            X509v3 CRL Distribution Points: 

                Full Name:
                  URI:http://crl3.digicert.com/DigiCertAssuredIDCA-1.crl

                Full Name:
                  URI:http://crl4.digicert.com/DigiCertAssuredIDCA-1.crl

    Signature Algorithm: sha1WithRSAEncryption
         bc:24:f9:83:d9:66:29:e6:32:e8:67:43:6f:37:cb:69:79:47:
         97:8b:62:7e:69:c3:8a:d5:e9:d7:71:9c:8e:a1:f9:da:fe:24:
         e3:df:26:6c:af:e0:d2:cd:2f:c4:9f:32:61:d0:76:cc:44:5c:
         cb:e5:8f:bd:78:67:86:13:e2:ba:69:8a:d7:97:27:7e:3d:84:
         13:56:33:0e:bf:7d:d9:e9:01:6a:8c:6e:bf:3f:cf:31:98:af:
         85:48:11:5c:1f:bb:c9:c2:6f:2a:ca:c5:c5:95:12:0c:53:38:
         19:2f:b5:97:0a:7e:86:b3:95:3c:dc:41:66:a5:99:c9:95:57:
         ad:8a:b4:c5:6c:f1:16:33:9b:be:f0:3c:ad:60:6b:1f:46:0f:
         76:c9:1b:82:43:5e:dd:1d:a8:35:66:6d:35:5f:21:71:33:a0:
         1c:0a:cb:45:69:89:99:a5:f4:e6:60:ac:ee:4b:01:28:6c:91:
         94:af:bf:f9:f2:c5:58:ea:6d:cd:e5:00:b4:39:e3:b0:45:85:
         bb:31:b6:c3:29:b7:04:50:e0:ee:06:c5:14:e9:6f:ce:6b:fc:
         9b:bc:24:7d:1d:87:dd:a8:8e:6d:50:94:35:e6:7c:00:1e:13:
         07:99:e4:62:e8:c4:8f:ba:7b:e5:4b:19:bb:ad:98:f6:b5:c2:
         f1:89:20:18
-----BEGIN CERTIFICATE-----
MIIGbzCCBVegAwIBAgIQA4uW8HDZ4h5VpUJnkuHIOjANBgkqhkiG9w0BAQUFADBi
MQswCQYDVQQGEwJVUzEVMBMGA1UEChMMRGlnaUNlcnQgSW5jMRkwFwYDVQQLExB3
d3cuZGlnaWNlcnQuY29tMSEwHwYDVQQDExhEaWdpQ2VydCBBc3N1cmVkIElEIENB
LTEwHhcNMTIwNDA0MDAwMDAwWhcNMTMwNDE4MDAwMDAwWjBHMQswCQYDVQQGEwJV
UzERMA8GA1UEChMIRGlnaUNlcnQxJTAjBgNVBAMTHERpZ2lDZXJ0IFRpbWVzdGFt
cCBSZXNwb25kZXIwggEiMA0GCSqGSIb3DQEBAQUAA4IBDwAwggEKAoIBAQDGf7tj
+/F8Q0mIJnRfituiDBM1pYivqtEwyjPdo9B2gRXW1tvhNC0FIG/BofQXZ7dN3iET
YE4Jcq1XXniQO7XMLc15uGLZTzHc0cmMCAv8teTgJ+mn7ra9Depw8wXb82jr+D8R
M3kkwHsqfFKdphzOZB/GcvgUnE0R2KJDQXK6DqO+r9L9eNxHlRdwbJwgwav5YWPm
j5mAc7b+njHfTb/hvE+LgfzFqEM7GyQoZ8no89SRywWpFs++42Pf6oKhqIXcBBDs
REA0NxnNMHF82j0Ctqh3sH2D3WQIE3ome/SXN8uxb9wuMn3Y07/HiIEPkUkd8WPe
nFhtjzUmWSnGwHTPAgMBAAGjggM6MIIDNjAOBgNVHQ8BAf8EBAMCB4AwDAYDVR0T
AQH/BAIwADAWBgNVHSUBAf8EDDAKBggrBgEFBQcDCDCCAcQGA1UdIASCAbswggG3
MIIBswYJYIZIAYb9bAcBMIIBpDA6BggrBgEFBQcCARYuaHR0cDovL3d3dy5kaWdp
Y2VydC5jb20vc3NsLWNwcy1yZXBvc2l0b3J5Lmh0bTCCAWQGCCsGAQUFBwICMIIB
Vh6CAVIAQQBuAHkAIAB1AHMAZQAgAG8AZgAgAHQAaABpAHMAIABDAGUAcgB0AGkA
ZgBpAGMAYQB0AGUAIABjAG8AbgBzAHQAaQB0AHUAdABlAHMAIABhAGMAYwBlAHAA
dABhAG4AYwBlACAAbwBmACAAdABoAGUAIABEAGkAZwBpAEMAZQByAHQAIABDAFAA
LwBDAFAAUwAgAGEAbgBkACAAdABoAGUAIABSAGUAbAB5AGkAbgBnACAAUABhAHIA
dAB5ACAAQQBnAHIAZQBlAG0AZQBuAHQAIAB3AGgAaQBjAGgAIABsAGkAbQBpAHQA
IABsAGkAYQBiAGkAbABpAHQAeQAgAGEAbgBkACAAYQByAGUAIABpAG4AYwBvAHIA
cABvAHIAYQB0AGUAZAAgAGgAZQByAGUAaQBuACAAYgB5ACAAcgBlAGYAZQByAGUA
bgBjAGUALjAfBgNVHSMEGDAWgBQVABIrE5iymQftHt+ivlcNK2cCzTAdBgNVHQ4E
FgQUJqoP9EMNo5gXpV8S9PiSjqnkhDQwdwYIKwYBBQUHAQEEazBpMCQGCCsGAQUF
BzABhhhodHRwOi8vb2NzcC5kaWdpY2VydC5jb20wQQYIKwYBBQUHMAKGNWh0dHA6
Ly9jYWNlcnRzLmRpZ2ljZXJ0LmNvbS9EaWdpQ2VydEFzc3VyZWRJRENBLTEuY3J0
MH0GA1UdHwR2MHQwOKA2oDSGMmh0dHA6Ly9jcmwzLmRpZ2ljZXJ0LmNvbS9EaWdp
Q2VydEFzc3VyZWRJRENBLTEuY3JsMDigNqA0hjJodHRwOi8vY3JsNC5kaWdpY2Vy
dC5jb20vRGlnaUNlcnRBc3N1cmVkSURDQS0xLmNybDANBgkqhkiG9w0BAQUFAAOC
AQEAvCT5g9lmKeYy6GdDbzfLaXlHl4tifmnDitXp13GcjqH52v4k498mbK/g0s0v
xJ8yYdB2zERcy+WPvXhnhhPiummK15cnfj2EE1YzDr992ekBaoxuvz/PMZivhUgR
XB+7ycJvKsrFxZUSDFM4GS+1lwp+hrOVPNxBZqWZyZVXrYq0xWzxFjObvvA8rWBr
H0YPdskbgkNe3R2oNWZtNV8hcTOgHArLRWmJmaX05mCs7ksBKGyRlK+/+fLFWOpt
zeUAtDnjsEWFuzG2wym3BFDg7gbFFOlvzmv8m7wkfR2H3aiObVCUNeZ8AB4TB5nk
YujEj7p75UsZu62Y9rXC8YkgGA==
-----END CERTIFICATE-----

