Certificate:
    Data:
        Version: 3 (0x2)
        Serial Number:
            48:1b:6a:07:26:d2:e8:3f:26:02:d4:82:5a:cd
    Signature Algorithm: sha256WithRSAEncryption
        Issuer: OU=GlobalSign Root CA - R3, O=GlobalSign, CN=GlobalSign
        Validity
            Not Before: Jun 15 00:00:00 2016 GMT
            Not After : Jun 15 00:00:00 2024 GMT
        Subject: C=BE, O=GlobalSign nv-sa, CN=GlobalSign CodeSigning CA - SHA256 - G3
        Subject Public Key Info:
            Public Key Algorithm: rsaEncryption
                Public-Key: (2048 bit)
                Modulus:
                    00:8d:85:55:23:a9:1f:53:af:c9:ed:36:c2:29:b5:
                    6e:d8:f9:42:f5:21:8b:87:f0:43:a1:2f:c0:3f:97:
                    e3:18:47:d4:96:4e:88:ab:c6:63:e9:b6:49:15:85:
                    f1:d9:9b:7b:1b:fd:d8:4a:cc:6d:4e:86:40:17:cd:
                    7b:ba:47:28:b5:d6:14:40:0c:86:ee:1e:4b:33:f3:
                    2c:55:ee:21:8c:da:b6:c1:fe:b0:4e:3a:ae:51:9f:
                    a5:14:e3:10:e6:93:ca:fa:f9:5d:b1:90:87:ef:f8:
                    35:2d:fc:a2:5c:26:ee:7b:15:8b:1f:d9:c3:a1:97:
                    35:41:b3:30:fd:72:13:ad:91:97:3a:ce:72:9d:06:
                    0a:75:3c:1f:98:e3:cb:18:2f:8c:9f:08:4a:91:0a:
                    d9:d9:35:d9:83:92:76:62:5e:df:83:ae:e4:d6:01:
                    4e:cc:f3:3c:70:61:58:37:1f:14:e3:6a:a0:af:6b:
                    f4:d9:d2:6c:2c:19:30:5d:a0:6f:52:df:d1:9c:c9:
                    e0:0d:d9:75:11:65:96:d9:43:b4:a7:90:39:ae:47:
                    1c:54:cb:b1:95:6e:25:de:8e:f1:12:1c:f0:d7:6e:
                    e7:14:4d:b3:1a:65:d6:84:4a:57:ee:04:af:62:38:
                    c5:10:9b:43:8e:52:b8:3e:b6:ae:9e:2c:97:ff:8e:
                    74:ef
                Exponent: 65537 (0x10001)
        X509v3 extensions:
            X509v3 Key Usage: critical
                Certificate Sign, CRL Sign
            X509v3 Extended Key Usage: 
                Code Signing, OCSP Signing
            X509v3 Basic Constraints: critical
                CA:TRUE, pathlen:0
            X509v3 Subject Key Identifier: 
                0F:3A:E7:AC:94:91:74:2D:96:02:73:83:AD:9C:2E:49:3F:19:AA:54
            X509v3 Authority Key Identifier: 
                keyid:8F:F0:4B:7F:A8:2E:45:24:AE:4D:50:FA:63:9A:8B:DE:E2:DD:1B:BC

            Authority Information Access: 
                OCSP - URI:http://ocsp2.globalsign.com/rootr3

            X509v3 CRL Distribution Points: 

                Full Name:
                  URI:http://crl.globalsign.com/root-r3.crl

            X509v3 Certificate Policies: 
                Policy: 1.3.6.1.4.1.4146.1.50
                Policy: 2.23.140.1.4.1
                Policy: 1.3.6.1.4.1.4146.1.95
                  CPS: https://www.globalsign.com/repository/

    Signature Algorithm: sha256WithRSAEncryption
         15:84:28:0c:ed:a1:c3:19:82:db:63:27:41:d7:cc:63:7d:d6:
         bc:cf:36:9b:cf:d2:5d:4c:02:8b:58:1a:16:08:7a:b1:98:99:
         7f:d8:33:8a:5c:9e:62:0a:9a:ea:90:c2:c5:63:04:0b:e8:87:
         58:06:00:07:82:59:c3:a8:94:32:d9:e0:14:4d:a0:d5:23:e0:
         c7:dd:ba:f0:69:e2:4a:45:65:2d:4d:49:90:78:66:32:0e:b0:
         68:c0:b0:88:b0:8e:ed:5c:06:f8:5c:10:48:3f:23:73:ba:3b:
         53:84:52:80:cd:f0:b3:15:c8:11:0a:8b:05:78:46:59:08:d4:
         be:b7:ff:4b:f5:9c:6a:4c:9c:76:a2:11:85:45:8c:d4:37:ee:
         50:dd:e1:33:34:a9:a1:1f:3a:0b:f1:56:44:8a:6f:b3:33:d0:
         b1:8e:d1:0c:60:07:ee:32:c2:f0:24:6f:bf:af:fb:81:01:76:
         67:c4:a3:e8:e0:ab:dc:33:55:28:e3:67:47:3c:eb:6a:a4:df:
         94:e9:f4:a6:c0:81:d1:52:98:51:a6:d6:02:b7:3c:ea:4a:ef:
         d0:ba:65:d2:37:83:53:4b:7e:67:7c:8c:40:f6:07:1c:b0:af:
         04:06:dc:f8:6c:46:88:72:9c:eb:4e:9d:c3:b0:b9:54:a3:b9:
         4e:97:ca:14
-----BEGIN CERTIFICATE-----
MIIElDCCA3ygAwIBAgIOSBtqBybS6D8mAtSCWs0wDQYJKoZIhvcNAQELBQAwTDEg
MB4GA1UECxMXR2xvYmFsU2lnbiBSb290IENBIC0gUjMxEzARBgNVBAoTCkdsb2Jh
bFNpZ24xEzARBgNVBAMTCkdsb2JhbFNpZ24wHhcNMTYwNjE1MDAwMDAwWhcNMjQw
NjE1MDAwMDAwWjBaMQswCQYDVQQGEwJCRTEZMBcGA1UEChMQR2xvYmFsU2lnbiBu
di1zYTEwMC4GA1UEAxMnR2xvYmFsU2lnbiBDb2RlU2lnbmluZyBDQSAtIFNIQTI1
NiAtIEczMIIBIjANBgkqhkiG9w0BAQEFAAOCAQ8AMIIBCgKCAQEAjYVVI6kfU6/J
7TbCKbVu2PlC9SGLh/BDoS/AP5fjGEfUlk6Iq8Zj6bZJFYXx2Zt7G/3YSsxtToZA
F817ukcotdYUQAyG7h5LM/MsVe4hjNq2wf6wTjquUZ+lFOMQ5pPK+vldsZCH7/g1
LfyiXCbuexWLH9nDoZc1QbMw/XITrZGXOs5ynQYKdTwfmOPLGC+MnwhKkQrZ2TXZ
g5J2Yl7fg67k1gFOzPM8cGFYNx8U42qgr2v02dJsLBkwXaBvUt/RnMngDdl1EWWW
2UO0p5A5rkccVMuxlW4l3o7xEhzw127nFE2zGmXWhEpX7gSvYjjFEJtDjlK4Prau
niyX/4507wIDAQABo4IBZDCCAWAwDgYDVR0PAQH/BAQDAgEGMB0GA1UdJQQWMBQG
CCsGAQUFBwMDBggrBgEFBQcDCTASBgNVHRMBAf8ECDAGAQH/AgEAMB0GA1UdDgQW
BBQPOueslJF0LZYCc4OtnC5JPxmqVDAfBgNVHSMEGDAWgBSP8Et/qC5FJK5NUPpj
move4t0bvDA+BggrBgEFBQcBAQQyMDAwLgYIKwYBBQUHMAGGImh0dHA6Ly9vY3Nw
Mi5nbG9iYWxzaWduLmNvbS9yb290cjMwNgYDVR0fBC8wLTAroCmgJ4YlaHR0cDov
L2NybC5nbG9iYWxzaWduLmNvbS9yb290LXIzLmNybDBjBgNVHSAEXDBaMAsGCSsG
AQQBoDIBMjAIBgZngQwBBAEwQQYJKwYBBAGgMgFfMDQwMgYIKwYBBQUHAgEWJmh0
dHBzOi8vd3d3Lmdsb2JhbHNpZ24uY29tL3JlcG9zaXRvcnkvMA0GCSqGSIb3DQEB
CwUAA4IBAQAVhCgM7aHDGYLbYydB18xjfda8zzabz9JdTAKLWBoWCHqxmJl/2DOK
XJ5iCprqkMLFYwQL6IdYBgAHglnDqJQy2eAUTaDVI+DH3brwaeJKRWUtTUmQeGYy
DrBowLCIsI7tXAb4XBBIPyNzujtThFKAzfCzFcgRCosFeEZZCNS+t/9L9ZxqTJx2
ohGFRYzUN+5Q3eEzNKmhHzoL8VZEim+zM9CxjtEMYAfuMsLwJG+/r/uBAXZnxKPo
4KvcM1Uo42dHPOtqpN+U6fSmwIHRUphRptYCtzzqSu/QumXSN4NTS35nfIxA9gcc
sK8EBtz4bEaIcpzrTp3DsLlUo7lOl8oU
-----END CERTIFICATE-----

Certificate:
    Data:
        Version: 3 (0x2)
        Serial Number:
            56:29:03:3c:ed:d7:f1:79:3a:90:4c:6c
    Signature Algorithm: sha256WithRSAEncryption
        Issuer: C=BE, O=GlobalSign nv-sa, CN=GlobalSign CodeSigning CA - SHA256 - G3
        Validity
            Not Before: Apr 21 09:54:18 2017 GMT
            Not After : Apr 21 09:54:18 2020 GMT
        Subject: C=TW, ST=Taipei, L=Taipei, O=Boshiamy C&C Co., Ltd., CN=Boshiamy C&C Co., Ltd.
        Subject Public Key Info:
            Public Key Algorithm: rsaEncryption
                Public-Key: (2048 bit)
                Modulus:
                    00:b5:4b:b5:ff:00:e0:25:93:c0:37:b6:e2:d1:03:
                    86:a5:c3:a4:b1:75:83:08:e4:93:bf:49:83:83:de:
                    b4:db:ed:00:26:b8:a6:dd:af:73:40:dc:6f:78:f4:
                    cd:24:89:9b:95:24:f2:2d:41:43:49:26:6e:8c:b4:
                    bb:2d:78:50:a2:b7:31:ba:f7:40:f4:83:66:ed:05:
                    7a:f7:d2:04:99:79:8c:e6:3f:f8:53:60:e2:42:e8:
                    44:9a:a0:70:b2:fb:2c:18:f6:7e:87:16:16:c8:1e:
                    a0:09:d2:f5:80:f6:14:7b:94:7a:a7:63:f1:9a:9a:
                    77:d1:58:8c:d7:51:82:40:3e:9e:16:4a:6a:66:53:
                    53:65:8a:b6:f1:f6:de:88:ba:6d:25:0d:89:98:d6:
                    e2:13:96:2d:66:e5:c1:93:4a:8e:03:4c:59:8c:f0:
                    af:59:f9:ae:b2:00:a2:53:c4:54:b6:67:65:be:f7:
                    97:9a:a7:22:6b:58:ae:9a:8a:f0:93:2f:77:a0:78:
                    6d:ef:5a:a5:b0:4d:e5:fb:38:20:fa:ee:37:50:b0:
                    38:44:f5:7b:78:92:14:5f:53:3f:d5:51:ef:79:02:
                    9a:3d:fa:18:98:ae:4f:50:24:2a:f8:c6:cf:f5:52:
                    3b:c9:77:66:5b:10:14:6c:4b:07:27:cd:4b:c1:03:
                    9f:c7
                Exponent: 65537 (0x10001)
        X509v3 extensions:
            X509v3 Key Usage: critical
                Digital Signature
            Authority Information Access: 
                CA Issuers - URI:http://secure.globalsign.com/cacert/gscodesignsha2g3ocsp.crt
                OCSP - URI:http://ocsp2.globalsign.com/gscodesignsha2g3

            X509v3 Certificate Policies: 
                Policy: 1.3.6.1.4.1.4146.1.50
                  CPS: https://www.globalsign.com/repository/
                Policy: 2.23.140.1.4.1

            X509v3 Basic Constraints: 
                CA:FALSE
            X509v3 CRL Distribution Points: 

                Full Name:
                  URI:http://crl.globalsign.com/gscodesignsha2g3.crl

            X509v3 Extended Key Usage: 
                Code Signing
            X509v3 Subject Key Identifier: 
                7A:0D:5A:C0:4C:BC:38:7D:01:5E:FF:CA:AF:1B:29:26:85:6E:E3:43
            X509v3 Authority Key Identifier: 
                keyid:0F:3A:E7:AC:94:91:74:2D:96:02:73:83:AD:9C:2E:49:3F:19:AA:54

    Signature Algorithm: sha256WithRSAEncryption
         8b:06:8f:04:fe:c3:db:67:73:0e:e2:8e:69:a5:f9:12:7e:27:
         18:33:a7:6b:a7:dd:82:45:d0:71:f8:0e:00:38:a2:75:30:f4:
         1a:1d:71:a5:e0:5a:ac:5f:6e:5f:80:c7:ec:97:12:ec:5d:ac:
         c7:ef:07:2f:2e:97:51:93:d4:5b:98:61:7d:40:42:ac:ca:0b:
         84:8c:f3:c8:24:fe:39:21:92:2f:89:99:22:ce:9a:3d:56:96:
         01:07:1d:93:27:c1:e4:96:ea:69:f4:dc:92:9c:74:f7:f2:b6:
         9c:50:3d:e1:b0:f3:03:69:74:88:c0:a0:0a:33:41:bc:e3:da:
         ee:a7:8c:91:fa:c1:46:d0:aa:2b:4c:35:b2:dc:65:6d:70:12:
         96:0f:5b:af:8b:fb:bc:4d:d6:5b:dc:77:2b:69:1a:ea:3b:0d:
         0f:f0:25:a5:8f:8a:4d:c5:e9:e9:1d:61:32:4e:01:00:5d:80:
         0d:d8:f5:fb:26:f5:8b:59:01:c8:21:0a:b1:4e:68:3d:9c:70:
         47:37:97:72:8b:e8:73:db:1d:9b:d2:59:7e:1a:b4:87:67:f3:
         3f:62:40:cd:b7:d1:98:c3:bd:0d:ea:94:1f:46:a5:cb:4e:15:
         17:64:bf:9d:39:dc:1e:59:69:4a:54:91:a8:5c:fa:96:1b:57:
         5e:a4:43:11
-----BEGIN CERTIFICATE-----
MIIE9zCCA9+gAwIBAgIMVikDPO3X8Xk6kExsMA0GCSqGSIb3DQEBCwUAMFoxCzAJ
BgNVBAYTAkJFMRkwFwYDVQQKExBHbG9iYWxTaWduIG52LXNhMTAwLgYDVQQDEydH
bG9iYWxTaWduIENvZGVTaWduaW5nIENBIC0gU0hBMjU2IC0gRzMwHhcNMTcwNDIx
MDk1NDE4WhcNMjAwNDIxMDk1NDE4WjBxMQswCQYDVQQGEwJUVzEPMA0GA1UECBMG
VGFpcGVpMQ8wDQYDVQQHEwZUYWlwZWkxHzAdBgNVBAoMFkJvc2hpYW15IEMmQyBD
by4sIEx0ZC4xHzAdBgNVBAMMFkJvc2hpYW15IEMmQyBDby4sIEx0ZC4wggEiMA0G
CSqGSIb3DQEBAQUAA4IBDwAwggEKAoIBAQC1S7X/AOAlk8A3tuLRA4alw6SxdYMI
5JO/SYOD3rTb7QAmuKbdr3NA3G949M0kiZuVJPItQUNJJm6MtLsteFCitzG690D0
g2btBXr30gSZeYzmP/hTYOJC6ESaoHCy+ywY9n6HFhbIHqAJ0vWA9hR7lHqnY/Ga
mnfRWIzXUYJAPp4WSmpmU1Nlirbx9t6Ium0lDYmY1uITli1m5cGTSo4DTFmM8K9Z
+a6yAKJTxFS2Z2W+95eapyJrWK6aivCTL3egeG3vWqWwTeX7OCD67jdQsDhE9Xt4
khRfUz/VUe95Apo9+hiYrk9QJCr4xs/1UjvJd2ZbEBRsSwcnzUvBA5/HAgMBAAGj
ggGkMIIBoDAOBgNVHQ8BAf8EBAMCB4AwgZQGCCsGAQUFBwEBBIGHMIGEMEgGCCsG
AQUFBzAChjxodHRwOi8vc2VjdXJlLmdsb2JhbHNpZ24uY29tL2NhY2VydC9nc2Nv
ZGVzaWduc2hhMmczb2NzcC5jcnQwOAYIKwYBBQUHMAGGLGh0dHA6Ly9vY3NwMi5n
bG9iYWxzaWduLmNvbS9nc2NvZGVzaWduc2hhMmczMFYGA1UdIARPME0wQQYJKwYB
BAGgMgEyMDQwMgYIKwYBBQUHAgEWJmh0dHBzOi8vd3d3Lmdsb2JhbHNpZ24uY29t
L3JlcG9zaXRvcnkvMAgGBmeBDAEEATAJBgNVHRMEAjAAMD8GA1UdHwQ4MDYwNKAy
oDCGLmh0dHA6Ly9jcmwuZ2xvYmFsc2lnbi5jb20vZ3Njb2Rlc2lnbnNoYTJnMy5j
cmwwEwYDVR0lBAwwCgYIKwYBBQUHAwMwHQYDVR0OBBYEFHoNWsBMvDh9AV7/yq8b
KSaFbuNDMB8GA1UdIwQYMBaAFA8656yUkXQtlgJzg62cLkk/GapUMA0GCSqGSIb3
DQEBCwUAA4IBAQCLBo8E/sPbZ3MO4o5ppfkSficYM6drp92CRdBx+A4AOKJ1MPQa
HXGl4FqsX25fgMfslxLsXazH7wcvLpdRk9RbmGF9QEKsyguEjPPIJP45IZIviZki
zpo9VpYBBx2TJ8Hklupp9NySnHT38racUD3hsPMDaXSIwKAKM0G849rup4yR+sFG
0KorTDWy3GVtcBKWD1uvi/u8TdZb3HcraRrqOw0P8CWlj4pNxenpHWEyTgEAXYAN
2PX7JvWLWQHIIQqxTmg9nHBHN5dyi+hz2x2b0ll+GrSHZ/M/YkDNt9GYw70N6pQf
RqXLThUXZL+dOdweWWlKVJGoXPqWG1depEMR
-----END CERTIFICATE-----

