Certificate:
    Data:
        Version: 3 (0x2)
        Serial Number:
            4d:80:67:32:3f:ed:a6:c2:e9:85:c0:a4:b1:95:1c:d3
    Signature Algorithm: sha256WithRSAEncryption
        Issuer: C=IL, O=StartCom Ltd., OU=StartCom Certification Authority, CN=StartCom Class 3 Object CA
        Validity
            Not Before: Jan 19 05:07:48 2016 GMT
            Not After : Jan 19 05:07:48 2019 GMT
        Subject: C=US, ST=Arizona, L=Chandler, O=Beiley Software, Inc., CN=Beiley Software, Inc.
        Subject Public Key Info:
            Public Key Algorithm: rsaEncryption
                Public-Key: (2048 bit)
                Modulus:
                    00:f8:15:e4:47:d5:db:ef:ca:4d:90:04:8d:a7:f6:
                    f1:96:e1:69:7c:a3:99:67:75:de:05:2d:ab:96:44:
                    56:b6:89:17:d9:08:b0:b6:cd:c4:98:5f:90:ae:df:
                    36:56:2f:5e:e9:73:37:22:2d:4c:97:50:79:28:0b:
                    58:58:8d:8f:4f:6e:ab:df:01:e7:d8:a2:00:1b:aa:
                    a4:28:a8:44:3c:50:ab:f1:ea:78:94:4a:9f:16:35:
                    f9:6d:4c:66:a9:a2:e0:1b:3a:8e:e8:ef:ea:e7:9c:
                    5e:90:24:1e:11:1a:7a:45:c5:c2:2f:b0:34:24:e7:
                    cc:6d:e7:6c:94:87:97:78:52:f1:69:27:91:d1:d7:
                    1c:62:49:6c:bf:98:b3:10:25:cc:56:70:b7:b6:00:
                    77:49:1b:f3:8a:3b:50:87:ba:17:71:06:a0:28:a9:
                    86:9b:bc:85:bf:46:69:91:92:09:02:90:3e:cc:6f:
                    d1:f4:e1:d9:2f:1a:fc:96:8a:f0:fa:52:74:5b:3a:
                    d6:62:e2:99:17:f6:6e:d5:9f:2d:c9:48:a2:fa:58:
                    20:73:65:e7:3d:35:8d:c5:ae:60:66:8c:47:32:7e:
                    53:1c:01:7e:91:13:1d:d6:6d:ee:e2:b1:66:07:14:
                    af:31:2e:d6:45:98:2d:6a:23:8b:da:ae:84:64:6c:
                    9e:ef
                Exponent: 65537 (0x10001)
        X509v3 extensions:
            X509v3 Key Usage: critical
                Digital Signature
            X509v3 Extended Key Usage: 
                Code Signing, 1.3.6.1.4.1.311.61.1.1
            X509v3 Basic Constraints: 
                CA:FALSE
            X509v3 Subject Key Identifier: 
                1F:A9:2D:A3:C2:89:12:61:B0:E0:85:D0:55:60:25:2C:5F:C7:F4:A5
            X509v3 Authority Key Identifier: 
                keyid:66:7A:9E:CD:9C:73:86:6A:69:A0:AE:FA:8C:BB:18:8F:08:EC:D5:04

            Authority Information Access: 
                OCSP - URI:http://ocsp.startssl.com
                CA Issuers - URI:http://aia.startssl.com/certs/sca.code3.crt

            X509v3 CRL Distribution Points: 

                Full Name:
                  URI:http://crl.startssl.com/sca-code3.crl

            X509v3 Issuer Alternative Name: 
                URI:http://www.startssl.com/
            X509v3 Certificate Policies: 
                Policy: 2.23.140.1.4.1
                Policy: 1.3.6.1.4.1.23223.1.2.4
                  CPS: http://www.startssl.com/policy

    Signature Algorithm: sha256WithRSAEncryption
         68:4b:fc:48:56:d7:ee:04:1a:ba:7c:d6:01:50:13:cc:7a:a7:
         32:6f:3b:6e:84:00:85:e5:77:13:0f:f4:d3:14:b4:f1:28:e8:
         1d:c2:12:bb:1a:bf:e2:ca:8b:8a:b9:51:ef:ce:55:79:5e:1f:
         6c:cf:f5:66:4c:1c:34:88:dc:ed:a1:06:fd:ca:b3:15:ee:95:
         dd:7d:2f:8f:71:a1:44:21:ea:69:1b:e1:82:d7:81:3b:65:12:
         f8:af:ee:db:d9:f2:27:84:85:4a:26:36:9d:77:34:fa:f9:5f:
         df:3a:ed:ae:9f:e8:2c:7e:85:1f:c2:13:02:6b:cc:8c:81:72:
         ca:66:52:63:be:17:55:d8:6d:ef:68:b4:08:18:22:78:a2:dd:
         9e:cf:84:31:62:cf:d4:20:e6:3f:7f:8a:c7:6b:da:e3:7f:4f:
         4a:84:3a:40:56:11:55:aa:8a:aa:65:92:c2:28:25:2a:38:80:
         97:dc:95:49:dd:f2:47:58:1e:9c:a2:35:2d:e4:19:17:8d:c0:
         ac:ce:31:9c:30:4a:e5:79:1f:44:01:06:06:dc:c0:d6:7e:b0:
         c1:d8:c6:dc:9e:47:03:8c:3d:d8:5b:4e:ce:5c:f2:4d:99:46:
         c8:6f:77:28:62:2d:a2:d4:b2:71:4f:49:c6:52:7e:4c:41:12:
         94:1c:19:1c
-----BEGIN CERTIFICATE-----
MIIFETCCA/mgAwIBAgIQTYBnMj/tpsLphcCksZUc0zANBgkqhkiG9w0BAQsFADB1
MQswCQYDVQQGEwJJTDEWMBQGA1UEChMNU3RhcnRDb20gTHRkLjEpMCcGA1UECxMg
U3RhcnRDb20gQ2VydGlmaWNhdGlvbiBBdXRob3JpdHkxIzAhBgNVBAMTGlN0YXJ0
Q29tIENsYXNzIDMgT2JqZWN0IENBMB4XDTE2MDExOTA1MDc0OFoXDTE5MDExOTA1
MDc0OFowcjELMAkGA1UEBhMCVVMxEDAOBgNVBAgMB0FyaXpvbmExETAPBgNVBAcM
CENoYW5kbGVyMR4wHAYDVQQKDBVCZWlsZXkgU29mdHdhcmUsIEluYy4xHjAcBgNV
BAMMFUJlaWxleSBTb2Z0d2FyZSwgSW5jLjCCASIwDQYJKoZIhvcNAQEBBQADggEP
ADCCAQoCggEBAPgV5EfV2+/KTZAEjaf28ZbhaXyjmWd13gUtq5ZEVraJF9kIsLbN
xJhfkK7fNlYvXulzNyItTJdQeSgLWFiNj09uq98B59iiABuqpCioRDxQq/HqeJRK
nxY1+W1MZqmi4Bs6jujv6uecXpAkHhEaekXFwi+wNCTnzG3nbJSHl3hS8WknkdHX
HGJJbL+YsxAlzFZwt7YAd0kb84o7UIe6F3EGoCiphpu8hb9GaZGSCQKQPsxv0fTh
2S8a/JaK8PpSdFs61mLimRf2btWfLclIovpYIHNl5z01jcWuYGaMRzJ+UxwBfpET
HdZt7uKxZgcUrzEu1kWYLWoji9quhGRsnu8CAwEAAaOCAZ4wggGaMA4GA1UdDwEB
/wQEAwIHgDAfBgNVHSUEGDAWBggrBgEFBQcDAwYKKwYBBAGCNz0BATAJBgNVHRME
AjAAMB0GA1UdDgQWBBQfqS2jwokSYbDghdBVYCUsX8f0pTAfBgNVHSMEGDAWgBRm
ep7NnHOGammgrvqMuxiPCOzVBDBtBggrBgEFBQcBAQRhMF8wJAYIKwYBBQUHMAGG
GGh0dHA6Ly9vY3NwLnN0YXJ0c3NsLmNvbTA3BggrBgEFBQcwAoYraHR0cDovL2Fp
YS5zdGFydHNzbC5jb20vY2VydHMvc2NhLmNvZGUzLmNydDA2BgNVHR8ELzAtMCug
KaAnhiVodHRwOi8vY3JsLnN0YXJ0c3NsLmNvbS9zY2EtY29kZTMuY3JsMCMGA1Ud
EgQcMBqGGGh0dHA6Ly93d3cuc3RhcnRzc2wuY29tLzBQBgNVHSAESTBHMAgGBmeB
DAEEATA7BgsrBgEEAYG1NwECBDAsMCoGCCsGAQUFBwIBFh5odHRwOi8vd3d3LnN0
YXJ0c3NsLmNvbS9wb2xpY3kwDQYJKoZIhvcNAQELBQADggEBAGhL/EhW1+4EGrp8
1gFQE8x6pzJvO26EAIXldxMP9NMUtPEo6B3CErsav+LKi4q5Ue/OVXleH2zP9WZM
HDSI3O2hBv3KsxXuld19L49xoUQh6mkb4YLXgTtlEviv7tvZ8ieEhUomNp13NPr5
X9867a6f6Cx+hR/CEwJrzIyBcspmUmO+F1XYbe9otAgYInii3Z7PhDFiz9Qg5j9/
isdr2uN/T0qEOkBWEVWqiqplksIoJSo4gJfclUnd8kdYHpyiNS3kGReNwKzOMZww
SuV5H0QBBgbcwNZ+sMHYxtyeRwOMPdhbTs5c8k2ZRshvdyhiLaLUsnFPScZSfkxB
EpQcGRw=
-----END CERTIFICATE-----

Certificate:
    Data:
        Version: 3 (0x2)
        Serial Number:
            78:22:43:a1:53:df:28:0a:1f:fa:e1:5c:d0:28:4c:86
    Signature Algorithm: sha256WithRSAEncryption
        Issuer: C=IL, O=StartCom Ltd., OU=Secure Digital Certificate Signing, CN=StartCom Certification Authority
        Validity
            Not Before: Dec 16 01:00:05 2015 GMT
            Not After : Dec 16 01:00:05 2030 GMT
        Subject: C=IL, O=StartCom Ltd., OU=StartCom Certification Authority, CN=StartCom Class 3 Object CA
        Subject Public Key Info:
            Public Key Algorithm: rsaEncryption
                Public-Key: (2048 bit)
                Modulus:
                    00:d8:6c:25:36:14:64:5c:79:cd:61:98:02:9f:05:
                    95:51:bc:c8:40:66:ca:57:57:32:93:65:a0:55:bb:
                    c2:7a:df:af:fe:e5:55:28:32:67:e6:63:2f:c2:ef:
                    65:c0:c1:e6:77:ed:4d:a4:a5:bd:de:4c:08:e2:56:
                    f5:69:4c:20:24:64:b0:b4:bf:da:fa:39:6f:f0:6c:
                    3a:32:2c:e4:0f:63:f0:54:ad:d1:f6:ab:e2:6b:44:
                    d1:d9:6e:e6:64:37:fb:a8:5b:9f:6b:60:8d:6f:a6:
                    e9:a9:2c:a8:3c:a6:b0:02:00:01:6f:cd:14:a0:ac:
                    ca:b0:e5:a8:d3:9a:ba:35:e4:7e:67:69:6d:ed:24:
                    79:9a:8a:7c:30:f0:ec:3a:07:67:28:0f:f5:ee:8a:
                    68:39:f4:a5:cb:a1:7a:26:0d:6b:e4:fe:72:a9:6b:
                    57:c4:f0:de:c6:66:cc:fc:b1:bf:f8:ad:48:28:91:
                    dc:6f:b2:a3:d2:ca:0d:9c:15:15:f4:63:fe:da:40:
                    26:11:40:a1:d1:c4:c3:d4:b0:9d:ad:85:45:89:69:
                    03:54:d9:83:dd:d0:48:40:de:bb:a1:e3:4d:1f:40:
                    24:f1:c0:e0:8e:12:46:1b:08:2f:92:ee:19:65:61:
                    bb:14:f5:85:7d:a9:2e:62:92:2f:69:8f:00:25:77:
                    7a:d7
                Exponent: 65537 (0x10001)
        X509v3 extensions:
            X509v3 Key Usage: critical
                Certificate Sign, CRL Sign
            X509v3 Extended Key Usage: 
                Code Signing, 1.3.6.1.4.1.311.61.1.1
            X509v3 Basic Constraints: critical
                CA:TRUE, pathlen:0
            X509v3 CRL Distribution Points: 

                Full Name:
                  URI:http://crl.startssl.com/sfsca.crl

            Authority Information Access: 
                OCSP - URI:http://ocsp.startssl.com
                CA Issuers - URI:http://aia.startssl.com/certs/ca.crt

            X509v3 Subject Key Identifier: 
                66:7A:9E:CD:9C:73:86:6A:69:A0:AE:FA:8C:BB:18:8F:08:EC:D5:04
            X509v3 Authority Key Identifier: 
                keyid:4E:0B:EF:1A:A4:40:5B:A5:17:69:87:30:CA:34:68:43:D0:41:AE:F2

            X509v3 Certificate Policies: 
                Policy: X509v3 Any Policy
                  CPS: http://www.startssl.com/policy

    Signature Algorithm: sha256WithRSAEncryption
         0b:1f:77:f0:a4:b6:e6:92:05:f5:47:f1:74:73:a5:60:1a:b7:
         a1:98:ae:ba:80:99:f1:b8:96:d4:fa:23:e9:ca:63:05:82:08:
         00:af:94:cc:21:39:53:d5:51:98:68:01:c0:e0:f6:53:be:58:
         11:98:bd:d9:ae:11:e7:9f:ef:d3:23:4d:cc:67:2b:78:5e:5b:
         95:9b:4a:a3:bb:4c:34:47:e1:29:79:46:47:c9:c5:d3:28:ae:
         75:1b:c2:63:bd:f9:fd:bb:51:a7:b2:02:93:40:53:5e:7a:9d:
         69:f9:fe:34:2e:f4:1a:8b:6c:0b:42:00:89:e1:27:2f:a8:85:
         0a:e7:ed:85:26:f4:b8:c8:d3:ae:81:97:a3:37:2c:38:e5:db:
         97:53:25:ae:90:16:a1:1b:67:d0:15:c5:ba:c9:9b:af:8c:71:
         e1:ee:a7:c0:8b:60:f2:bf:5c:3a:15:e2:5e:1c:d3:ff:b4:f8:
         58:75:02:ba:6d:12:83:33:ff:c4:0c:5c:97:63:ff:b1:11:66:
         81:44:40:c3:23:c0:f6:1c:95:6f:27:ca:74:00:86:50:6a:d3:
         cd:06:21:7b:01:d8:8f:49:95:41:63:08:57:06:bf:67:ec:dc:
         0e:ac:59:2a:01:1b:c7:99:e7:2b:75:0d:61:23:04:8c:52:d2:
         2e:bc:7b:51:50:92:a2:9f:a2:78:74:95:83:9e:f3:b7:96:59:
         ca:ae:11:d8:9e:9b:b8:4a:0c:c2:e8:39:36:28:66:e9:a6:76:
         da:c4:ff:31:e2:b2:5d:8d:69:24:8a:5b:58:7d:8b:af:d2:8c:
         bc:52:31:0f:1d:90:2f:96:a8:46:9a:77:36:ab:99:2f:55:cd:
         0d:b5:78:03:e4:88:a9:13:cc:72:6d:7a:c8:f6:77:79:b8:4a:
         cf:85:1e:1e:4a:f8:2e:47:2e:5a:36:eb:2e:17:ff:db:75:c0:
         7d:94:68:4c:33:75:76:43:22:d1:80:00:57:87:7e:13:c1:f0:
         55:4a:f2:eb:9f:04:e1:a8:2d:3a:b7:ae:a7:89:7c:b1:a8:0f:
         fd:f2:26:9d:f0:f7:40:1d:f4:a4:c9:10:4c:30:dc:64:d0:b5:
         52:11:37:c9:fc:5b:55:26:be:89:bd:63:df:42:04:71:7a:4f:
         8b:f2:ce:ac:c3:f6:db:e0:9a:fa:2e:70:82:42:36:82:86:80:
         c5:ae:7d:02:7a:f4:60:0e:ca:1d:30:96:db:14:f4:e8:4c:99:
         3c:b2:03:8e:2b:50:f7:99:63:80:84:b2:f5:1b:be:b9:0c:3f:
         34:ca:dc:d7:fd:a3:8e:5c:0e:70:7e:94:13:4f:32:1b:ff:a4:
         8f:5c:75:f5:9c:a4:58:c9
-----BEGIN CERTIFICATE-----
MIIF5DCCA8ygAwIBAgIQeCJDoVPfKAof+uFc0ChMhjANBgkqhkiG9w0BAQsFADB9
MQswCQYDVQQGEwJJTDEWMBQGA1UEChMNU3RhcnRDb20gTHRkLjErMCkGA1UECxMi
U2VjdXJlIERpZ2l0YWwgQ2VydGlmaWNhdGUgU2lnbmluZzEpMCcGA1UEAxMgU3Rh
cnRDb20gQ2VydGlmaWNhdGlvbiBBdXRob3JpdHkwHhcNMTUxMjE2MDEwMDA1WhcN
MzAxMjE2MDEwMDA1WjB1MQswCQYDVQQGEwJJTDEWMBQGA1UEChMNU3RhcnRDb20g
THRkLjEpMCcGA1UECxMgU3RhcnRDb20gQ2VydGlmaWNhdGlvbiBBdXRob3JpdHkx
IzAhBgNVBAMTGlN0YXJ0Q29tIENsYXNzIDMgT2JqZWN0IENBMIIBIjANBgkqhkiG
9w0BAQEFAAOCAQ8AMIIBCgKCAQEA2GwlNhRkXHnNYZgCnwWVUbzIQGbKV1cyk2Wg
VbvCet+v/uVVKDJn5mMvwu9lwMHmd+1NpKW93kwI4lb1aUwgJGSwtL/a+jlv8Gw6
MizkD2PwVK3R9qvia0TR2W7mZDf7qFufa2CNb6bpqSyoPKawAgABb80UoKzKsOWo
05q6NeR+Z2lt7SR5mop8MPDsOgdnKA/17opoOfSly6F6Jg1r5P5yqWtXxPDexmbM
/LG/+K1IKJHcb7Kj0soNnBUV9GP+2kAmEUCh0cTD1LCdrYVFiWkDVNmD3dBIQN67
oeNNH0Ak8cDgjhJGGwgvku4ZZWG7FPWFfakuYpIvaY8AJXd61wIDAQABo4IBZjCC
AWIwDgYDVR0PAQH/BAQDAgEGMB8GA1UdJQQYMBYGCCsGAQUFBwMDBgorBgEEAYI3
PQEBMBIGA1UdEwEB/wQIMAYBAf8CAQAwMgYDVR0fBCswKTAnoCWgI4YhaHR0cDov
L2NybC5zdGFydHNzbC5jb20vc2ZzY2EuY3JsMGYGCCsGAQUFBwEBBFowWDAkBggr
BgEFBQcwAYYYaHR0cDovL29jc3Auc3RhcnRzc2wuY29tMDAGCCsGAQUFBzAChiRo
dHRwOi8vYWlhLnN0YXJ0c3NsLmNvbS9jZXJ0cy9jYS5jcnQwHQYDVR0OBBYEFGZ6
ns2cc4ZqaaCu+oy7GI8I7NUEMB8GA1UdIwQYMBaAFE4L7xqkQFulF2mHMMo0aEPQ
Qa7yMD8GA1UdIAQ4MDYwNAYEVR0gADAsMCoGCCsGAQUFBwIBFh5odHRwOi8vd3d3
LnN0YXJ0c3NsLmNvbS9wb2xpY3kwDQYJKoZIhvcNAQELBQADggIBAAsfd/CktuaS
BfVH8XRzpWAat6GYrrqAmfG4ltT6I+nKYwWCCACvlMwhOVPVUZhoAcDg9lO+WBGY
vdmuEeef79MjTcxnK3heW5WbSqO7TDRH4Sl5RkfJxdMornUbwmO9+f27UaeyApNA
U156nWn5/jQu9BqLbAtCAInhJy+ohQrn7YUm9LjI066Bl6M3LDjl25dTJa6QFqEb
Z9AVxbrJm6+MceHup8CLYPK/XDoV4l4c0/+0+Fh1ArptEoMz/8QMXJdj/7ERZoFE
QMMjwPYclW8nynQAhlBq080GIXsB2I9JlUFjCFcGv2fs3A6sWSoBG8eZ5yt1DWEj
BIxS0i68e1FQkqKfonh0lYOe87eWWcquEdiem7hKDMLoOTYoZummdtrE/zHisl2N
aSSKW1h9i6/SjLxSMQ8dkC+WqEaadzarmS9VzQ21eAPkiKkTzHJtesj2d3m4Ss+F
Hh5K+C5HLlo26y4X/9t1wH2UaEwzdXZDItGAAFeHfhPB8FVK8uufBOGoLTq3rqeJ
fLGoD/3yJp3w90Ad9KTJEEww3GTQtVIRN8n8W1Umvom9Y99CBHF6T4vyzqzD9tvg
mvoucIJCNoKGgMWufQJ69GAOyh0wltsU9OhMmTyyA44rUPeZY4CEsvUbvrkMPzTK
3Nf9o45cDnB+lBNPMhv/pI9cdfWcpFjJ
-----END CERTIFICATE-----

