Certificate:
    Data:
        Version: 3 (0x2)
        Serial Number:
            7e:93:eb:fb:7c:c6:4e:59:ea:4b:9a:77:d4:06:fc:3b
    Signature Algorithm: sha1WithRSAEncryption
        Issuer: C=ZA, ST=Western Cape, L=Durbanville, O=Thawte, OU=Thawte Certification, CN=Thawte Timestamping CA
        Validity
            Not Before: Dec 21 00:00:00 2012 GMT
            Not After : Dec 30 23:59:59 2020 GMT
        Subject: C=US, O=Symantec Corporation, CN=Symantec Time Stamping Services CA - G2
        Subject Public Key Info:
            Public Key Algorithm: rsaEncryption
                Public-Key: (2048 bit)
                Modulus:
                    00:b1:ac:b3:49:54:4b:97:1c:12:0a:d8:25:79:91:
                    22:57:2a:6f:dc:b8:26:c4:43:73:6b:c2:bf:2e:50:
                    5a:fb:14:c2:76:8e:43:01:25:43:b4:a1:e2:45:f4:
                    e8:b7:7b:c3:74:cc:22:d7:b4:94:00:02:f7:4d:ed:
                    bf:b4:b7:44:24:6b:cd:5f:45:3b:d1:44:ce:43:12:
                    73:17:82:8b:69:b4:2b:cb:99:1e:ac:72:1b:26:4d:
                    71:1f:b1:31:dd:fb:51:61:02:53:a6:aa:f5:49:2c:
                    05:78:45:a5:2f:89:ce:e7:99:e7:fe:8c:e2:57:3f:
                    3d:c6:92:dc:4a:f8:7b:33:e4:79:0a:fb:f0:75:88:
                    41:9c:ff:c5:03:51:99:aa:d7:6c:9f:93:69:87:65:
                    29:83:85:c2:60:14:c4:c8:c9:3b:14:da:c0:81:f0:
                    1f:0d:74:de:92:22:ab:ca:f7:fb:74:7c:27:e6:f7:
                    4a:1b:7f:a7:c3:9e:2d:ae:8a:ea:a6:e6:aa:27:16:
                    7d:61:f7:98:71:11:bc:e2:50:a1:4b:e5:5d:fa:e5:
                    0e:a7:2c:9f:aa:65:20:d3:d8:96:e8:c8:7c:a5:4e:
                    48:44:ff:19:e2:44:07:92:0b:d7:68:84:80:5d:6a:
                    78:64:45:cd:60:46:7e:54:c1:13:7c:c5:79:f1:c9:
                    c1:71
                Exponent: 65537 (0x10001)
        X509v3 extensions:
            X509v3 Subject Key Identifier: 
                5F:9A:F5:6E:5C:CC:CC:74:9A:D4:DD:7D:EF:3F:DB:EC:4C:80:2E:DD
            Authority Information Access: 
                OCSP - URI:http://ocsp.thawte.com

            X509v3 Basic Constraints: critical
                CA:TRUE, pathlen:0
            X509v3 CRL Distribution Points: 

                Full Name:
                  URI:http://crl.thawte.com/ThawteTimestampingCA.crl

            X509v3 Extended Key Usage: 
                Time Stamping
            X509v3 Key Usage: critical
                Certificate Sign, CRL Sign
            X509v3 Subject Alternative Name: 
                DirName:/CN=TimeStamp-2048-1
    Signature Algorithm: sha1WithRSAEncryption
         03:09:9b:8f:79:ef:7f:59:30:aa:ef:68:b5:fa:e3:09:1d:bb:
         4f:82:06:5d:37:5f:a6:52:9f:16:8d:ea:1c:92:09:44:6e:f5:
         6d:eb:58:7c:30:e8:f9:69:8d:23:73:0b:12:6f:47:a9:ae:39:
         11:f8:2a:b1:9b:b0:1a:c3:8e:eb:59:96:00:ad:ce:0c:4d:b2:
         d0:31:a6:08:5c:2a:7a:fc:e2:7a:1d:57:4c:a8:65:18:e9:79:
         40:62:25:96:6e:c7:c7:37:6a:83:21:08:8e:41:ea:dd:d9:57:
         3f:1d:77:49:87:2a:16:06:5e:a6:38:6a:22:12:a3:51:19:83:
         7e:b6
-----BEGIN CERTIFICATE-----
MIID7jCCA1egAwIBAgIQfpPr+3zGTlnqS5p31Ab8OzANBgkqhkiG9w0BAQUFADCB
izELMAkGA1UEBhMCWkExFTATBgNVBAgTDFdlc3Rlcm4gQ2FwZTEUMBIGA1UEBxML
RHVyYmFudmlsbGUxDzANBgNVBAoTBlRoYXd0ZTEdMBsGA1UECxMUVGhhd3RlIENl
cnRpZmljYXRpb24xHzAdBgNVBAMTFlRoYXd0ZSBUaW1lc3RhbXBpbmcgQ0EwHhcN
MTIxMjIxMDAwMDAwWhcNMjAxMjMwMjM1OTU5WjBeMQswCQYDVQQGEwJVUzEdMBsG
A1UEChMUU3ltYW50ZWMgQ29ycG9yYXRpb24xMDAuBgNVBAMTJ1N5bWFudGVjIFRp
bWUgU3RhbXBpbmcgU2VydmljZXMgQ0EgLSBHMjCCASIwDQYJKoZIhvcNAQEBBQAD
ggEPADCCAQoCggEBALGss0lUS5ccEgrYJXmRIlcqb9y4JsRDc2vCvy5QWvsUwnaO
QwElQ7Sh4kX06Ld7w3TMIte0lAAC903tv7S3RCRrzV9FO9FEzkMScxeCi2m0K8uZ
HqxyGyZNcR+xMd37UWECU6aq9UksBXhFpS+JzueZ5/6M4lc/PcaS3Er4ezPkeQr7
8HWIQZz/xQNRmarXbJ+TaYdlKYOFwmAUxMjJOxTawIHwHw103pIiq8r3+3R8J+b3
Sht/p8OeLa6K6qbmqicWfWH3mHERvOJQoUvlXfrlDqcsn6plINPYlujIfKVOSET/
GeJEB5IL12iEgF1qeGRFzWBGflTBE3zFefHJwXECAwEAAaOB+jCB9zAdBgNVHQ4E
FgQUX5r1blzMzHSa1N197z/b7EyALt0wMgYIKwYBBQUHAQEEJjAkMCIGCCsGAQUF
BzABhhZodHRwOi8vb2NzcC50aGF3dGUuY29tMBIGA1UdEwEB/wQIMAYBAf8CAQAw
PwYDVR0fBDgwNjA0oDKgMIYuaHR0cDovL2NybC50aGF3dGUuY29tL1RoYXd0ZVRp
bWVzdGFtcGluZ0NBLmNybDATBgNVHSUEDDAKBggrBgEFBQcDCDAOBgNVHQ8BAf8E
BAMCAQYwKAYDVR0RBCEwH6QdMBsxGTAXBgNVBAMTEFRpbWVTdGFtcC0yMDQ4LTEw
DQYJKoZIhvcNAQEFBQADgYEAAwmbj3nvf1kwqu9otfrjCR27T4IGXTdfplKfFo3q
HJIJRG71betYfDDo+WmNI3MLEm9Hqa45EfgqsZuwGsOO61mWAK3ODE2y0DGmCFwq
evzieh1XTKhlGOl5QGIllm7HxzdqgyEIjkHq3dlXPx13SYcqFgZepjhqIhKjURmD
frY=
-----END CERTIFICATE-----

Certificate:
    Data:
        Version: 3 (0x2)
        Serial Number:
            34:4e:d5:57:20:d5:ed:ec:49:f4:2f:ce:37:db:2b:6d
    Signature Algorithm: sha1WithRSAEncryption
        Issuer: C=US, O=thawte, Inc., OU=Certification Services Division, OU=(c) 2006 thawte, Inc. - For authorized use only, CN=thawte Primary Root CA
        Validity
            Not Before: Nov 17 00:00:00 2006 GMT
            Not After : Jul 16 23:59:59 2036 GMT
        Subject: C=US, O=thawte, Inc., OU=Certification Services Division, OU=(c) 2006 thawte, Inc. - For authorized use only, CN=thawte Primary Root CA
        Subject Public Key Info:
            Public Key Algorithm: rsaEncryption
                Public-Key: (2048 bit)
                Modulus:
                    00:ac:a0:f0:fb:80:59:d4:9c:c7:a4:cf:9d:a1:59:
                    73:09:10:45:0c:0d:2c:6e:68:f1:6c:5b:48:68:49:
                    59:37:fc:0b:33:19:c2:77:7f:cc:10:2d:95:34:1c:
                    e6:eb:4d:09:a7:1c:d2:b8:c9:97:36:02:b7:89:d4:
                    24:5f:06:c0:cc:44:94:94:8d:02:62:6f:eb:5a:dd:
                    11:8d:28:9a:5c:84:90:10:7a:0d:bd:74:66:2f:6a:
                    38:a0:e2:d5:54:44:eb:1d:07:9f:07:ba:6f:ee:e9:
                    fd:4e:0b:29:f5:3e:84:a0:01:f1:9c:ab:f8:1c:7e:
                    89:a4:e8:a1:d8:71:65:0d:a3:51:7b:ee:bc:d2:22:
                    60:0d:b9:5b:9d:df:ba:fc:51:5b:0b:af:98:b2:e9:
                    2e:e9:04:e8:62:87:de:2b:c8:d7:4e:c1:4c:64:1e:
                    dd:cf:87:58:ba:4a:4f:ca:68:07:1d:1c:9d:4a:c6:
                    d5:2f:91:cc:7c:71:72:1c:c5:c0:67:eb:32:fd:c9:
                    92:5c:94:da:85:c0:9b:bf:53:7d:2b:09:f4:8c:9d:
                    91:1f:97:6a:52:cb:de:09:36:a4:77:d8:7b:87:50:
                    44:d5:3e:6e:29:69:fb:39:49:26:1e:09:a5:80:7b:
                    40:2d:eb:e8:27:85:c9:fe:61:fd:7e:e6:7c:97:1d:
                    d5:9d
                Exponent: 65537 (0x10001)
        X509v3 extensions:
            X509v3 Basic Constraints: critical
                CA:TRUE
            X509v3 Key Usage: critical
                Certificate Sign, CRL Sign
            X509v3 Subject Key Identifier: 
                7B:5B:45:CF:AF:CE:CB:7A:FD:31:92:1A:6A:B6:F3:46:EB:57:48:50
    Signature Algorithm: sha1WithRSAEncryption
         79:11:c0:4b:b3:91:b6:fc:f0:e9:67:d4:0d:6e:45:be:55:e8:
         93:d2:ce:03:3f:ed:da:25:b0:1d:57:cb:1e:3a:76:a0:4c:ec:
         50:76:e8:64:72:0c:a4:a9:f1:b8:8b:d6:d6:87:84:bb:32:e5:
         41:11:c0:77:d9:b3:60:9d:eb:1b:d5:d1:6e:44:44:a9:a6:01:
         ec:55:62:1d:77:b8:5c:8e:48:49:7c:9c:3b:57:11:ac:ad:73:
         37:8e:2f:78:5c:90:68:47:d9:60:60:e6:fc:07:3d:22:20:17:
         c4:f7:16:e9:c4:d8:72:f9:c8:73:7c:df:16:2f:15:a9:3e:fd:
         6a:27:b6:a1:eb:5a:ba:98:1f:d5:e3:4d:64:0a:9d:13:c8:61:
         ba:f5:39:1c:87:ba:b8:bd:7b:22:7f:f6:fe:ac:40:79:e5:ac:
         10:6f:3d:8f:1b:79:76:8b:c4:37:b3:21:18:84:e5:36:00:eb:
         63:20:99:b9:e9:fe:33:04:bb:41:c8:c1:02:f9:44:63:20:9e:
         81:ce:42:d3:d6:3f:2c:76:d3:63:9c:59:dd:8f:a6:e1:0e:a0:
         2e:41:f7:2e:95:47:cf:bc:fd:33:f3:f6:0b:61:7e:7e:91:2b:
         81:47:c2:27:30:ee:a7:10:5d:37:8f:5c:39:2b:e4:04:f0:7b:
         8d:56:8c:68
-----BEGIN CERTIFICATE-----
MIIEIDCCAwigAwIBAgIQNE7VVyDV7exJ9C/ON9srbTANBgkqhkiG9w0BAQUFADCB
qTELMAkGA1UEBhMCVVMxFTATBgNVBAoTDHRoYXd0ZSwgSW5jLjEoMCYGA1UECxMf
Q2VydGlmaWNhdGlvbiBTZXJ2aWNlcyBEaXZpc2lvbjE4MDYGA1UECxMvKGMpIDIw
MDYgdGhhd3RlLCBJbmMuIC0gRm9yIGF1dGhvcml6ZWQgdXNlIG9ubHkxHzAdBgNV
BAMTFnRoYXd0ZSBQcmltYXJ5IFJvb3QgQ0EwHhcNMDYxMTE3MDAwMDAwWhcNMzYw
NzE2MjM1OTU5WjCBqTELMAkGA1UEBhMCVVMxFTATBgNVBAoTDHRoYXd0ZSwgSW5j
LjEoMCYGA1UECxMfQ2VydGlmaWNhdGlvbiBTZXJ2aWNlcyBEaXZpc2lvbjE4MDYG
A1UECxMvKGMpIDIwMDYgdGhhd3RlLCBJbmMuIC0gRm9yIGF1dGhvcml6ZWQgdXNl
IG9ubHkxHzAdBgNVBAMTFnRoYXd0ZSBQcmltYXJ5IFJvb3QgQ0EwggEiMA0GCSqG
SIb3DQEBAQUAA4IBDwAwggEKAoIBAQCsoPD7gFnUnMekz52hWXMJEEUMDSxuaPFs
W0hoSVk3/AszGcJ3f8wQLZU0HObrTQmnHNK4yZc2AreJ1CRfBsDMRJSUjQJib+ta
3RGNKJpchJAQeg29dGYvajig4tVUROsdB58Hum/u6f1OCyn1PoSgAfGcq/gcfomk
6KHYcWUNo1F77rzSImANuVud37r8UVsLr5iy6S7pBOhih94ryNdOwUxkHt3Ph1i6
Sk/KaAcdHJ1KxtUvkcx8cXIcxcBn6zL9yZJclNqFwJu/U30rCfSMnZEfl2pSy94J
NqR32HuHUETVPm4pafs5SSYeCaWAe0At6+gnhcn+Yf1+5nyXHdWdAgMBAAGjQjBA
MA8GA1UdEwEB/wQFMAMBAf8wDgYDVR0PAQH/BAQDAgEGMB0GA1UdDgQWBBR7W0XP
r87Lev0xkhpqtvNG61dIUDANBgkqhkiG9w0BAQUFAAOCAQEAeRHAS7ORtvzw6WfU
DW5FvlXok9LOAz/t2iWwHVfLHjp2oEzsUHboZHIMpKnxuIvW1oeEuzLlQRHAd9mz
YJ3rG9XRbkREqaYB7FViHXe4XI5ISXycO1cRrK1zN44veFyQaEfZYGDm/Ac9IiAX
xPcW6cTYcvnIc3zfFi8VqT79aie2oetaupgf1eNNZAqdE8hhuvU5HIe6uL17In/2
/qxAeeWsEG89jxt5dovEN7MhGITlNgDrYyCZuen+MwS7QcjBAvlEYyCegc5C09Y/
LHbTY5xZ3Y+m4Q6gLkH3LpVHz7z9M/P2C2F+fpErgUfCJzDupxBdN49cOSvkBPB7
jVaMaA==
-----END CERTIFICATE-----

Certificate:
    Data:
        Version: 3 (0x2)
        Serial Number:
            2b:19:b5:4b:b7:ab:ee:1a:26:23:11:1c:02:9a:f4:49
    Signature Algorithm: sha1WithRSAEncryption
        Issuer: C=US, O=Thawte, Inc., CN=Thawte Code Signing CA - G2
        Validity
            Not Before: Apr 18 00:00:00 2012 GMT
            Not After : Jun 21 23:59:59 2014 GMT
        Subject: C=CA, ST=Quebec, L=Brossard, O=Visicom Media Inc., OU=SECURE APPLICATION DEVELOPMENT, CN=Visicom Media Inc.
        Subject Public Key Info:
            Public Key Algorithm: rsaEncryption
                Public-Key: (2048 bit)
                Modulus:
                    00:cd:d9:a3:07:a9:14:fe:37:8b:c4:c8:bd:3b:91:
                    85:bc:59:e3:57:e2:06:41:35:86:0a:63:a4:87:55:
                    ef:ff:6d:2c:3e:22:92:37:bf:7c:d2:93:8f:cc:52:
                    1e:50:60:bd:9f:c5:57:71:78:14:f5:a9:7c:96:4f:
                    52:fc:5c:0f:b1:d2:97:e9:8d:0f:ca:e5:a1:38:9e:
                    ad:1d:7e:99:69:6e:bc:3a:c2:a3:d7:84:af:3e:e9:
                    2b:bd:7c:8c:08:9c:09:46:b1:bc:a1:af:06:5a:a9:
                    78:63:e5:55:ff:db:07:d5:ad:65:a2:f4:0a:e0:0d:
                    9c:09:80:40:0c:fc:88:2c:66:3a:64:26:0a:f2:f0:
                    73:65:a8:ec:c3:fb:ad:3e:1e:10:78:29:7e:05:fd:
                    3b:42:e5:db:4e:e4:c1:3f:3e:28:ac:09:0f:85:57:
                    9e:57:55:5b:ed:98:d5:c7:4a:9d:fc:71:b7:09:d3:
                    9c:d7:ff:5e:3e:a3:dc:cc:d9:0d:4e:f6:57:0c:c3:
                    65:57:27:05:67:5a:95:91:05:f3:e2:ad:af:ed:b9:
                    e0:f6:43:96:2c:b7:18:68:3f:4f:86:7c:cb:cf:5a:
                    72:7f:92:c9:4e:2d:33:34:3c:85:43:af:a5:73:b0:
                    84:35:76:43:e8:da:f9:66:0b:df:18:7c:94:f0:29:
                    e1:6d
                Exponent: 65537 (0x10001)
        X509v3 extensions:
            X509v3 Basic Constraints: critical
                CA:FALSE
            X509v3 CRL Distribution Points: 

                Full Name:
                  URI:http://cs-g2-crl.thawte.com/ThawteCSG2.crl

            X509v3 Extended Key Usage: 
                Code Signing, Microsoft Commercial Code Signing
            2.5.29.4: 
                0.0.0..
+.....7.......
            Authority Information Access: 
                OCSP - URI:http://ocsp.thawte.com

            Netscape Cert Type: 
                Object Signing
    Signature Algorithm: sha1WithRSAEncryption
         a1:6b:27:fa:f3:a4:cd:ad:66:e6:56:64:90:e0:96:36:08:10:
         b0:c4:36:69:08:9b:2c:aa:15:2d:9d:ce:a6:34:b2:34:54:e1:
         53:ca:a6:16:0e:f3:17:15:8d:9c:1c:ca:05:f0:96:eb:3e:84:
         5c:d0:bf:fe:0f:72:61:ee:91:58:3c:7a:0d:40:f1:f9:53:92:
         1f:4d:09:b0:b4:38:84:4e:1b:7f:0d:0b:6b:37:d7:32:c7:fe:
         df:aa:d1:94:42:31:97:a4:98:a4:f2:34:4b:c7:e8:26:24:3b:
         15:c1:fd:75:19:32:41:96:ac:d0:1d:c8:e6:f7:f9:98:88:93:
         c4:d3:62:6d:f6:4b:30:e5:93:b6:9f:d0:bb:a1:7f:8b:12:75:
         65:31:a7:89:9f:50:24:17:a4:d1:9e:34:ca:4a:0d:0c:87:22:
         d3:3a:ff:af:d4:06:ef:c1:7e:db:98:10:57:80:3a:eb:31:e2:
         2b:17:7a:4a:d6:40:bb:43:49:97:41:1f:1e:3e:d1:af:d6:c4:
         53:4e:7b:0d:9a:a9:c2:01:49:30:31:8f:66:a2:e8:cf:9b:37:
         7f:b0:b0:93:72:f6:5d:35:e7:be:7a:ed:e7:ae:80:55:b8:47:
         bb:fd:1c:b6:21:5b:8e:a5:ea:45:92:44:31:c6:71:f7:bd:fa:
         89:b8:79:ee
-----BEGIN CERTIFICATE-----
MIIEPzCCAyegAwIBAgIQKxm1S7er7homIxEcApr0STANBgkqhkiG9w0BAQUFADBK
MQswCQYDVQQGEwJVUzEVMBMGA1UEChMMVGhhd3RlLCBJbmMuMSQwIgYDVQQDExtU
aGF3dGUgQ29kZSBTaWduaW5nIENBIC0gRzIwHhcNMTIwNDE4MDAwMDAwWhcNMTQw
NjIxMjM1OTU5WjCBlDELMAkGA1UEBhMCQ0ExDzANBgNVBAgTBlF1ZWJlYzERMA8G
A1UEBxMIQnJvc3NhcmQxGzAZBgNVBAoUElZpc2ljb20gTWVkaWEgSW5jLjEnMCUG
A1UECxQeU0VDVVJFIEFQUExJQ0FUSU9OIERFVkVMT1BNRU5UMRswGQYDVQQDFBJW
aXNpY29tIE1lZGlhIEluYy4wggEiMA0GCSqGSIb3DQEBAQUAA4IBDwAwggEKAoIB
AQDN2aMHqRT+N4vEyL07kYW8WeNX4gZBNYYKY6SHVe//bSw+IpI3v3zSk4/MUh5Q
YL2fxVdxeBT1qXyWT1L8XA+x0pfpjQ/K5aE4nq0dfplpbrw6wqPXhK8+6Su9fIwI
nAlGsbyhrwZaqXhj5VX/2wfVrWWi9ArgDZwJgEAM/IgsZjpkJgry8HNlqOzD+60+
HhB4KX4F/TtC5dtO5ME/PiisCQ+FV55XVVvtmNXHSp38cbcJ05zX/14+o9zM2Q1O
9lcMw2VXJwVnWpWRBfPira/tueD2Q5YstxhoP0+GfMvPWnJ/kslOLTM0PIVDr6Vz
sIQ1dkPo2vlmC98YfJTwKeFtAgMBAAGjgdUwgdIwDAYDVR0TAQH/BAIwADA7BgNV
HR8ENDAyMDCgLqAshipodHRwOi8vY3MtZzItY3JsLnRoYXd0ZS5jb20vVGhhd3Rl
Q1NHMi5jcmwwHwYDVR0lBBgwFgYIKwYBBQUHAwMGCisGAQQBgjcCARYwHQYDVR0E
BBYwFDAOMAwGCisGAQQBgjcCARYDAgeAMDIGCCsGAQUFBwEBBCYwJDAiBggrBgEF
BQcwAYYWaHR0cDovL29jc3AudGhhd3RlLmNvbTARBglghkgBhvhCAQEEBAMCBBAw
DQYJKoZIhvcNAQEFBQADggEBAKFrJ/rzpM2tZuZWZJDgljYIELDENmkImyyqFS2d
zqY0sjRU4VPKphYO8xcVjZwcygXwlus+hFzQv/4PcmHukVg8eg1A8flTkh9NCbC0
OIROG38NC2s31zLH/t+q0ZRCMZekmKTyNEvH6CYkOxXB/XUZMkGWrNAdyOb3+ZiI
k8TTYm32SzDlk7af0Luhf4sSdWUxp4mfUCQXpNGeNMpKDQyHItM6/6/UBu/BftuY
EFeAOusx4isXekrWQLtDSZdBHx4+0a/WxFNOew2aqcIBSTAxj2ai6M+bN3+wsJNy
9l0157567eeugFW4R7v9HLYhW46l6kWSRDHGcfe9+om4ee4=
-----END CERTIFICATE-----

Certificate:
    Data:
        Version: 3 (0x2)
        Serial Number:
            47:97:4d:78:73:a5:bc:ab:0d:2f:b3:70:19:2f:ce:5e
    Signature Algorithm: sha1WithRSAEncryption
        Issuer: C=US, O=thawte, Inc., OU=Certification Services Division, OU=(c) 2006 thawte, Inc. - For authorized use only, CN=thawte Primary Root CA
        Validity
            Not Before: Feb  8 00:00:00 2010 GMT
            Not After : Feb  7 23:59:59 2020 GMT
        Subject: C=US, O=Thawte, Inc., CN=Thawte Code Signing CA - G2
        Subject Public Key Info:
            Public Key Algorithm: rsaEncryption
                Public-Key: (2048 bit)
                Modulus:
                    00:b7:8b:cf:75:5b:9f:25:da:7e:39:b0:93:db:38:
                    d3:a9:23:d0:82:fa:e9:24:7e:5c:0b:8e:83:f8:e6:
                    7a:59:e6:a3:c5:98:a7:99:d2:44:ff:00:a6:a5:39:
                    04:8a:da:29:88:ea:db:a2:f3:1c:99:15:26:c2:b1:
                    f4:fc:e1:0c:47:a9:09:11:06:0a:20:92:b9:c7:a0:
                    04:8c:5c:94:19:ab:5b:25:2c:1d:62:7e:70:0d:ce:
                    61:6c:dd:2b:82:c9:ce:5d:48:5f:f7:c2:be:bc:41:
                    23:1e:4f:29:5d:d7:4f:bc:f4:c5:2a:fc:63:e6:7c:
                    26:4e:99:a7:79:41:9e:10:4a:7a:79:c9:c6:86:f7:
                    86:95:d2:26:ce:3c:18:2a:d6:7c:ce:af:cd:ad:bb:
                    f7:82:2c:70:26:37:45:e5:0f:47:22:c6:01:28:bd:
                    2e:83:5c:6a:a4:47:c1:e7:d0:d8:6b:81:46:3f:21:
                    17:f5:07:c5:43:5a:a6:67:2c:b8:7b:60:11:b5:83:
                    ee:f5:74:0a:72:71:44:3d:58:fe:e8:1a:ab:38:c3:
                    59:db:7f:6e:38:7d:76:c7:72:69:98:36:96:57:d3:
                    66:1c:d2:54:91:04:2e:54:19:b0:dc:3d:b5:22:5e:
                    86:d5:2a:7e:20:df:5d:e6:7a:b1:65:fe:c5:02:4e:
                    31:2d
                Exponent: 65537 (0x10001)
        X509v3 extensions:
            X509v3 Basic Constraints: critical
                CA:TRUE, pathlen:0
            X509v3 CRL Distribution Points: 

                Full Name:
                  URI:http://crl.thawte.com/ThawtePCA.crl

            X509v3 Key Usage: critical
                Certificate Sign, CRL Sign
            Authority Information Access: 
                OCSP - URI:http://ocsp.thawte.com

            X509v3 Extended Key Usage: 
                TLS Web Client Authentication, Code Signing
            X509v3 Subject Alternative Name: 
                DirName:/CN=VeriSignMPKI-2-10
            X509v3 Subject Key Identifier: 
                D4:0D:65:3F:7A:BD:34:C6:FE:47:E7:4C:0D:C0:BD:F2:DE:15:AB:71
            X509v3 Authority Key Identifier: 
                keyid:7B:5B:45:CF:AF:CE:CB:7A:FD:31:92:1A:6A:B6:F3:46:EB:57:48:50

    Signature Algorithm: sha1WithRSAEncryption
         56:fe:53:5c:e1:c7:9e:bc:a7:ed:7e:53:6d:6a:14:4b:51:8c:
         40:5e:80:5f:aa:a4:e8:2f:ef:38:c8:04:c9:ca:3e:cf:df:3a:
         58:4e:b0:d4:b6:63:c5:29:57:fa:02:05:9a:45:4d:68:db:2a:
         1b:d4:34:3d:9f:00:c3:5a:cb:95:49:a5:6e:e1:b0:c5:fc:41:
         4d:41:4a:6f:d3:77:c8:d7:38:8d:e4:19:de:18:f3:1f:15:65:
         83:6d:45:0c:53:f9:0a:9a:2e:a5:5d:bf:6f:32:81:18:92:19:
         6a:55:00:ad:63:1c:52:06:7e:55:d9:29:68:ae:4a:7c:18:9a:
         79:88:6b:23:23:d8:27:38:2a:29:87:76:ca:fb:c7:b6:62:23:
         1f:ed:7a:56:4c:dd:9c:32:5b:f5:3d:0c:46:18:95:3b:2a:23:
         68:83:64:41:d9:00:6d:0f:19:24:15:68:72:bd:c5:71:67:6e:
         ac:4c:db:90:eb:51:a5:1a:62:07:d0:be:6a:00:47:3c:72:2f:
         ec:4f:61:3e:73:85:ce:5a:0a:b7:ba:c0:1c:13:75:e3:22:39:
         28:dd:6d:1d:09:46:9d:4f:ba:e8:40:81:91:c6:a4:ce:94:72:
         1b:01:cf:2a:6e:15:67:95:89:ae:7d:b7:b7:cd:f9:0a:3d:75:
         b6:6b:3c:25
-----BEGIN CERTIFICATE-----
MIIEnDCCA4SgAwIBAgIQR5dNeHOlvKsNL7NwGS/OXjANBgkqhkiG9w0BAQUFADCB
qTELMAkGA1UEBhMCVVMxFTATBgNVBAoTDHRoYXd0ZSwgSW5jLjEoMCYGA1UECxMf
Q2VydGlmaWNhdGlvbiBTZXJ2aWNlcyBEaXZpc2lvbjE4MDYGA1UECxMvKGMpIDIw
MDYgdGhhd3RlLCBJbmMuIC0gRm9yIGF1dGhvcml6ZWQgdXNlIG9ubHkxHzAdBgNV
BAMTFnRoYXd0ZSBQcmltYXJ5IFJvb3QgQ0EwHhcNMTAwMjA4MDAwMDAwWhcNMjAw
MjA3MjM1OTU5WjBKMQswCQYDVQQGEwJVUzEVMBMGA1UEChMMVGhhd3RlLCBJbmMu
MSQwIgYDVQQDExtUaGF3dGUgQ29kZSBTaWduaW5nIENBIC0gRzIwggEiMA0GCSqG
SIb3DQEBAQUAA4IBDwAwggEKAoIBAQC3i891W58l2n45sJPbONOpI9CC+ukkflwL
joP45npZ5qPFmKeZ0kT/AKalOQSK2imI6tui8xyZFSbCsfT84QxHqQkRBgogkrnH
oASMXJQZq1slLB1ifnANzmFs3SuCyc5dSF/3wr68QSMeTyld10+89MUq/GPmfCZO
mad5QZ4QSnp5ycaG94aV0ibOPBgq1nzOr82tu/eCLHAmN0XlD0cixgEovS6DXGqk
R8Hn0NhrgUY/IRf1B8VDWqZnLLh7YBG1g+71dApycUQ9WP7oGqs4w1nbf244fXbH
cmmYNpZX02Yc0lSRBC5UGbDcPbUiXobVKn4g313merFl/sUCTjEtAgMBAAGjggEc
MIIBGDASBgNVHRMBAf8ECDAGAQH/AgEAMDQGA1UdHwQtMCswKaAnoCWGI2h0dHA6
Ly9jcmwudGhhd3RlLmNvbS9UaGF3dGVQQ0EuY3JsMA4GA1UdDwEB/wQEAwIBBjAy
BggrBgEFBQcBAQQmMCQwIgYIKwYBBQUHMAGGFmh0dHA6Ly9vY3NwLnRoYXd0ZS5j
b20wHQYDVR0lBBYwFAYIKwYBBQUHAwIGCCsGAQUFBwMDMCkGA1UdEQQiMCCkHjAc
MRowGAYDVQQDExFWZXJpU2lnbk1QS0ktMi0xMDAdBgNVHQ4EFgQU1A1lP3q9NMb+
R+dMDcC98t4Vq3EwHwYDVR0jBBgwFoAUe1tFz6/Oy3r9MZIaarbzRutXSFAwDQYJ
KoZIhvcNAQEFBQADggEBAFb+U1zhx568p+1+U21qFEtRjEBegF+qpOgv7zjIBMnK
Ps/fOlhOsNS2Y8UpV/oCBZpFTWjbKhvUND2fAMNay5VJpW7hsMX8QU1BSm/Td8jX
OI3kGd4Y8x8VZYNtRQxT+QqaLqVdv28ygRiSGWpVAK1jHFIGflXZKWiuSnwYmnmI
ayMj2Cc4KimHdsr7x7ZiIx/telZM3ZwyW/U9DEYYlTsqI2iDZEHZAG0PGSQVaHK9
xXFnbqxM25DrUaUaYgfQvmoARzxyL+xPYT5zhc5aCre6wBwTdeMiOSjdbR0JRp1P
uuhAgZHGpM6UchsBzypuFWeVia59t7fN+Qo9dbZrPCU=
-----END CERTIFICATE-----

Certificate:
    Data:
        Version: 3 (0x2)
        Serial Number:
            0e:cf:f4:38:c8:fe:bf:35:6e:04:d8:6a:98:1b:1a:50
    Signature Algorithm: sha1WithRSAEncryption
        Issuer: C=US, O=Symantec Corporation, CN=Symantec Time Stamping Services CA - G2
        Validity
            Not Before: Oct 18 00:00:00 2012 GMT
            Not After : Dec 29 23:59:59 2020 GMT
        Subject: C=US, O=Symantec Corporation, CN=Symantec Time Stamping Services Signer - G4
        Subject Public Key Info:
            Public Key Algorithm: rsaEncryption
                Public-Key: (2048 bit)
                Modulus:
                    00:a2:63:0b:39:44:b8:bb:23:a7:44:49:bb:0e:ff:
                    a1:f0:61:0a:53:93:b0:98:db:ad:2c:0f:4a:c5:6e:
                    ff:86:3c:53:55:0f:15:ce:04:3f:2b:fd:a9:96:96:
                    d9:be:61:79:0b:5b:c9:4c:86:76:e5:e0:43:4b:22:
                    95:ee:c2:2b:43:c1:9f:d8:68:b4:8e:40:4f:ee:85:
                    38:b9:11:c5:23:f2:64:58:f0:15:32:6f:4e:57:a1:
                    ae:88:a4:02:d7:2a:1e:cd:4b:e1:dd:63:d5:17:89:
                    32:5b:b0:5e:99:5a:a8:9d:28:50:0e:17:ee:96:db:
                    61:3b:45:51:1d:cf:12:56:0b:92:47:fc:ab:ae:f6:
                    66:3d:47:ac:70:72:e7:92:e7:5f:cd:10:b9:c4:83:
                    64:94:19:bd:25:80:e1:e8:d2:22:a5:d0:ba:02:7a:
                    a1:77:93:5b:65:c3:ee:17:74:bc:41:86:2a:dc:08:
                    4c:8c:92:8c:91:2d:9e:77:44:1f:68:d6:a8:74:77:
                    db:0e:5b:32:8b:56:8b:33:bd:d9:63:c8:49:9d:3a:
                    c5:c5:ea:33:0b:d2:f1:a3:1b:f4:8b:be:d9:b3:57:
                    8b:3b:de:04:a7:7a:22:b2:24:ae:2e:c7:70:c5:be:
                    4e:83:26:08:fb:0b:bd:a9:4f:99:08:e1:10:28:72:
                    aa:cd
                Exponent: 65537 (0x10001)
        X509v3 extensions:
            X509v3 Basic Constraints: critical
                CA:FALSE
            X509v3 Extended Key Usage: critical
                Time Stamping
            X509v3 Key Usage: critical
                Digital Signature
            Authority Information Access: 
                OCSP - URI:http://ts-ocsp.ws.symantec.com
                CA Issuers - URI:http://ts-aia.ws.symantec.com/tss-ca-g2.cer

            X509v3 CRL Distribution Points: 

                Full Name:
                  URI:http://ts-crl.ws.symantec.com/tss-ca-g2.crl

            X509v3 Subject Alternative Name: 
                DirName:/CN=TimeStamp-2048-2
            X509v3 Subject Key Identifier: 
                46:C6:69:A3:0E:4A:14:1E:D5:4C:DA:52:63:17:3F:5E:36:BC:0D:E6
            X509v3 Authority Key Identifier: 
                keyid:5F:9A:F5:6E:5C:CC:CC:74:9A:D4:DD:7D:EF:3F:DB:EC:4C:80:2E:DD

    Signature Algorithm: sha1WithRSAEncryption
         78:3b:b4:91:2a:00:4c:f0:8f:62:30:37:78:a3:84:27:07:6f:
         18:b2:de:25:dc:a0:d4:94:03:aa:86:4e:25:9f:9a:40:03:1c:
         dd:ce:e3:79:cb:21:68:06:da:b6:32:b4:6d:bf:f4:2c:26:63:
         33:e4:49:64:6d:0d:e6:c3:67:0e:f7:05:a4:35:6c:7c:89:16:
         c6:e9:b2:df:b2:e9:dd:20:c6:71:0f:cd:95:74:dc:b6:5c:de:
         bd:37:1f:43:78:e6:78:b5:cd:28:04:20:a3:aa:f1:4b:c4:88:
         29:91:0e:80:d1:11:fc:dd:5c:76:6e:4f:5e:0e:45:46:41:6e:
         0d:b0:ea:38:9a:b1:3a:da:09:71:10:fc:1c:79:b4:80:7b:ac:
         69:f4:fd:9c:b6:0c:16:2b:f1:7f:5b:09:3d:9b:5b:e2:16:ca:
         13:81:6d:00:2e:38:0d:a8:29:8f:2c:e1:b2:f4:5a:a9:01:af:
         15:9c:2c:2f:49:1b:db:22:bb:c3:fe:78:94:51:c3:86:b1:82:
         88:5d:f0:3d:b4:51:a1:79:33:2b:2e:7b:b9:dc:20:09:13:71:
         eb:6a:19:5b:cf:e8:a5:30:57:2c:89:49:3f:b9:cf:7f:c9:bf:
         3e:22:68:63:53:9a:bd:69:74:ac:c5:1d:3c:7f:92:e0:c3:bc:
         1c:d8:04:75
-----BEGIN CERTIFICATE-----
MIIEozCCA4ugAwIBAgIQDs/0OMj+vzVuBNhqmBsaUDANBgkqhkiG9w0BAQUFADBe
MQswCQYDVQQGEwJVUzEdMBsGA1UEChMUU3ltYW50ZWMgQ29ycG9yYXRpb24xMDAu
BgNVBAMTJ1N5bWFudGVjIFRpbWUgU3RhbXBpbmcgU2VydmljZXMgQ0EgLSBHMjAe
Fw0xMjEwMTgwMDAwMDBaFw0yMDEyMjkyMzU5NTlaMGIxCzAJBgNVBAYTAlVTMR0w
GwYDVQQKExRTeW1hbnRlYyBDb3Jwb3JhdGlvbjE0MDIGA1UEAxMrU3ltYW50ZWMg
VGltZSBTdGFtcGluZyBTZXJ2aWNlcyBTaWduZXIgLSBHNDCCASIwDQYJKoZIhvcN
AQEBBQADggEPADCCAQoCggEBAKJjCzlEuLsjp0RJuw7/ofBhClOTsJjbrSwPSsVu
/4Y8U1UPFc4EPyv9qZaW2b5heQtbyUyGduXgQ0sile7CK0PBn9hotI5AT+6FOLkR
xSPyZFjwFTJvTlehroikAtcqHs1L4d1j1ReJMluwXplaqJ0oUA4X7pbbYTtFUR3P
ElYLkkf8q672Zj1HrHBy55LnX80QucSDZJQZvSWA4ejSIqXQugJ6oXeTW2XD7hd0
vEGGKtwITIySjJEtnndEH2jWqHR32w5bMotWizO92WPISZ06xcXqMwvS8aMb9Iu+
2bNXizveBKd6IrIkri7HcMW+ToMmCPsLvalPmQjhEChyqs0CAwEAAaOCAVcwggFT
MAwGA1UdEwEB/wQCMAAwFgYDVR0lAQH/BAwwCgYIKwYBBQUHAwgwDgYDVR0PAQH/
BAQDAgeAMHMGCCsGAQUFBwEBBGcwZTAqBggrBgEFBQcwAYYeaHR0cDovL3RzLW9j
c3Aud3Muc3ltYW50ZWMuY29tMDcGCCsGAQUFBzAChitodHRwOi8vdHMtYWlhLndz
LnN5bWFudGVjLmNvbS90c3MtY2EtZzIuY2VyMDwGA1UdHwQ1MDMwMaAvoC2GK2h0
dHA6Ly90cy1jcmwud3Muc3ltYW50ZWMuY29tL3Rzcy1jYS1nMi5jcmwwKAYDVR0R
BCEwH6QdMBsxGTAXBgNVBAMTEFRpbWVTdGFtcC0yMDQ4LTIwHQYDVR0OBBYEFEbG
aaMOShQe1UzaUmMXP142vA3mMB8GA1UdIwQYMBaAFF+a9W5czMx0mtTdfe8/2+xM
gC7dMA0GCSqGSIb3DQEBBQUAA4IBAQB4O7SRKgBM8I9iMDd4o4QnB28Yst4l3KDU
lAOqhk4ln5pAAxzdzuN5yyFoBtq2MrRtv/QsJmMz5ElkbQ3mw2cO9wWkNWx8iRbG
6bLfsundIMZxD82VdNy2XN69Nx9DeOZ4tc0oBCCjqvFLxIgpkQ6A0RH83Vx2bk9e
DkVGQW4NsOo4mrE62glxEPwcebSAe6xp9P2ctgwWK/F/Wwk9m1viFsoTgW0ALjgN
qCmPLOGy9FqpAa8VnCwvSRvbIrvD/niUUcOGsYKIXfA9tFGheTMrLnu53CAJE3Hr
ahlbz+ilMFcsiUk/uc9/yb8+ImhjU5q9aXSsxR08f5Lgw7wc2AR1
-----END CERTIFICATE-----

