Certificate:
    Data:
        Version: 3 (0x2)
        Serial Number:
            66:f8:2a:63:c8:24:7c:45:0f:d4:c8:6c:b3:4f:2d:dc
    Signature Algorithm: sha1WithRSAEncryption
        Issuer: C=US, O=VeriSign, Inc., OU=VeriSign Trust Network, OU=Terms of use at https://www.verisign.com/rpa (c)10, CN=VeriSign Class 3 Code Signing 2010 CA
        Validity
            Not Before: Jan 19 00:00:00 2017 GMT
            Not After : Mar 19 23:59:59 2018 GMT
        Subject: C=CN, ST=GuangDong, L=Shenzhen, O=Shenzhen Yi Xing Investment Co., Ltd., OU=Information Security, CN=Shenzhen Yi Xing Investment Co., Ltd.
        Subject Public Key Info:
            Public Key Algorithm: rsaEncryption
                Public-Key: (2048 bit)
                Modulus:
                    00:a8:eb:fc:61:63:f4:e5:65:b6:34:95:91:36:41:
                    c2:78:c7:fa:28:fb:4c:be:8b:7d:04:19:29:04:6b:
                    d6:dc:70:e0:84:af:7b:28:14:37:83:30:d4:0d:94:
                    1f:60:59:f4:21:74:f5:54:dd:11:47:da:1e:25:77:
                    d0:5b:d0:70:fd:7e:6d:bd:ad:c7:2c:21:4f:78:2f:
                    32:ed:9d:80:24:d9:01:88:45:f6:40:cb:33:33:af:
                    d9:72:b7:76:29:cc:53:6c:b1:5d:e7:69:37:8a:98:
                    f8:a4:c1:93:6f:75:93:fa:63:38:d0:c9:57:c7:9e:
                    e0:f9:70:77:29:11:ea:2a:1a:41:95:c8:71:e8:0c:
                    e6:7e:58:05:bf:6a:07:da:a5:5e:f0:6e:ec:96:6a:
                    01:38:d5:75:c6:a6:64:2a:4d:83:87:70:df:17:7b:
                    14:cf:24:c3:32:5c:17:c0:25:29:82:2f:19:22:8f:
                    40:8b:aa:1b:8f:1a:49:c2:c1:43:2d:34:78:84:13:
                    23:3f:9d:ca:f7:86:0c:e0:af:e2:03:f8:14:57:96:
                    5b:db:ca:3c:40:e5:40:31:8d:dd:d7:f0:44:3c:61:
                    ae:c9:c4:2c:dd:d0:43:57:a2:d4:dc:7d:51:18:cd:
                    a0:ef:ab:f7:b1:9e:6a:0a:2f:1e:49:9d:75:c9:29:
                    31:3b
                Exponent: 3 (0x3)
        X509v3 extensions:
            X509v3 Basic Constraints: 
                CA:FALSE
            X509v3 Key Usage: critical
                Digital Signature
            X509v3 CRL Distribution Points: 

                Full Name:
                  URI:http://sf.symcb.com/sf.crl

            X509v3 Certificate Policies: 
                Policy: 2.23.140.1.4.1
                  CPS: https://d.symcb.com/cps
                  User Notice:
                    Explicit Text: https://d.symcb.com/rpa

            X509v3 Extended Key Usage: 
                Code Signing
            Authority Information Access: 
                OCSP - URI:http://sf.symcd.com
                CA Issuers - URI:http://sf.symcb.com/sf.crt

            X509v3 Authority Key Identifier: 
                keyid:CF:99:A9:EA:7B:26:F4:4B:C9:8E:8F:D7:F0:05:26:EF:E3:D2:A7:9D

            X509v3 Subject Key Identifier: 
                0F:D2:33:A8:E3:8D:36:FA:6F:04:63:14:36:DD:34:F6:B2:29:00:01
    Signature Algorithm: sha1WithRSAEncryption
         c4:c6:37:e9:27:68:e0:5f:b1:3b:6c:55:ac:9e:d9:4f:f6:99:
         4b:55:70:e3:3a:ae:0b:47:55:8a:d4:81:d0:6a:87:6c:0c:44:
         5d:2d:00:65:a5:dc:67:c7:7c:9d:4a:fa:05:06:a9:89:db:d0:
         36:e0:31:8f:ca:38:cf:d7:83:f0:93:c0:73:8d:98:db:d7:2f:
         90:b9:d0:40:29:bd:8d:84:d4:78:f7:6f:c5:94:f0:e0:3a:0c:
         a4:ad:c7:dc:52:10:92:df:b2:bb:86:2d:85:89:9f:2f:c9:37:
         20:4d:fd:c9:3e:65:21:58:62:9b:6b:7c:59:2d:7c:30:10:3c:
         04:93:65:86:f4:22:a6:07:51:47:04:ac:07:08:a3:fa:ff:2f:
         79:c5:c0:c4:bf:f7:a8:b4:81:3e:1f:56:c3:76:9d:cd:17:f1:
         06:93:44:d2:21:46:f6:7f:1f:25:a5:0d:63:0e:03:d3:f9:a2:
         71:69:99:16:31:19:ab:01:4d:b1:11:b0:29:2c:27:79:1e:1f:
         42:96:65:c1:16:5a:71:5a:fb:db:e3:85:ea:28:d5:cc:a1:14:
         3d:7d:a9:3c:c5:d0:24:24:f8:c6:ad:f6:88:5c:19:f7:fb:90:
         23:e1:d3:d0:6d:62:d1:35:c1:7a:a8:35:96:c1:79:7a:a7:63:
         81:79:19:55
-----BEGIN CERTIFICATE-----
MIIFUDCCBDigAwIBAgIQZvgqY8gkfEUP1Mhss08t3DANBgkqhkiG9w0BAQUFADCB
tDELMAkGA1UEBhMCVVMxFzAVBgNVBAoTDlZlcmlTaWduLCBJbmMuMR8wHQYDVQQL
ExZWZXJpU2lnbiBUcnVzdCBOZXR3b3JrMTswOQYDVQQLEzJUZXJtcyBvZiB1c2Ug
YXQgaHR0cHM6Ly93d3cudmVyaXNpZ24uY29tL3JwYSAoYykxMDEuMCwGA1UEAxMl
VmVyaVNpZ24gQ2xhc3MgMyBDb2RlIFNpZ25pbmcgMjAxMCBDQTAeFw0xNzAxMTkw
MDAwMDBaFw0xODAzMTkyMzU5NTlaMIGzMQswCQYDVQQGEwJDTjESMBAGA1UECAwJ
R3VhbmdEb25nMREwDwYDVQQHDAhTaGVuemhlbjEuMCwGA1UECgwlU2hlbnpoZW4g
WWkgWGluZyBJbnZlc3RtZW50IENvLiwgTHRkLjEdMBsGA1UECwwUSW5mb3JtYXRp
b24gU2VjdXJpdHkxLjAsBgNVBAMMJVNoZW56aGVuIFlpIFhpbmcgSW52ZXN0bWVu
dCBDby4sIEx0ZC4wggEgMA0GCSqGSIb3DQEBAQUAA4IBDQAwggEIAoIBAQCo6/xh
Y/TlZbY0lZE2QcJ4x/oo+0y+i30EGSkEa9bccOCEr3soFDeDMNQNlB9gWfQhdPVU
3RFH2h4ld9Bb0HD9fm29rccsIU94LzLtnYAk2QGIRfZAyzMzr9lyt3YpzFNssV3n
aTeKmPikwZNvdZP6YzjQyVfHnuD5cHcpEeoqGkGVyHHoDOZ+WAW/agfapV7wbuyW
agE41XXGpmQqTYOHcN8XexTPJMMyXBfAJSmCLxkij0CLqhuPGknCwUMtNHiEEyM/
ncr3hgzgr+ID+BRXllvbyjxA5UAxjd3X8EQ8Ya7JxCzd0ENXotTcfVEYzaDvq/ex
nmoKLx5JnXXJKTE7AgEDo4IBXTCCAVkwCQYDVR0TBAIwADAOBgNVHQ8BAf8EBAMC
B4AwKwYDVR0fBCQwIjAgoB6gHIYaaHR0cDovL3NmLnN5bWNiLmNvbS9zZi5jcmww
YQYDVR0gBFowWDBWBgZngQwBBAEwTDAjBggrBgEFBQcCARYXaHR0cHM6Ly9kLnN5
bWNiLmNvbS9jcHMwJQYIKwYBBQUHAgIwGQwXaHR0cHM6Ly9kLnN5bWNiLmNvbS9y
cGEwEwYDVR0lBAwwCgYIKwYBBQUHAwMwVwYIKwYBBQUHAQEESzBJMB8GCCsGAQUF
BzABhhNodHRwOi8vc2Yuc3ltY2QuY29tMCYGCCsGAQUFBzAChhpodHRwOi8vc2Yu
c3ltY2IuY29tL3NmLmNydDAfBgNVHSMEGDAWgBTPmanqeyb0S8mOj9fwBSbv49Kn
nTAdBgNVHQ4EFgQUD9IzqOONNvpvBGMUNt009rIpAAEwDQYJKoZIhvcNAQEFBQAD
ggEBAMTGN+knaOBfsTtsVaye2U/2mUtVcOM6rgtHVYrUgdBqh2wMRF0tAGWl3GfH
fJ1K+gUGqYnb0DbgMY/KOM/Xg/CTwHONmNvXL5C50EApvY2E1Hj3b8WU8OA6DKSt
x9xSEJLfsruGLYWJny/JNyBN/ck+ZSFYYptrfFktfDAQPASTZYb0IqYHUUcErAcI
o/r/L3nFwMS/96i0gT4fVsN2nc0X8QaTRNIhRvZ/HyWlDWMOA9P5onFpmRYxGasB
TbERsCksJ3keH0KWZcEWWnFa+9vjheoo1cyhFD19qTzF0CQk+Mat9ohcGff7kCPh
09BtYtE1wXqoNZbBeXqnY4F5GVU=
-----END CERTIFICATE-----

Certificate:
    Data:
        Version: 3 (0x2)
        Serial Number:
            52:00:e5:aa:25:56:fc:1a:86:ed:96:c9:d4:4b:33:c7
    Signature Algorithm: sha1WithRSAEncryption
        Issuer: C=US, O=VeriSign, Inc., OU=VeriSign Trust Network, OU=(c) 2006 VeriSign, Inc. - For authorized use only, CN=VeriSign Class 3 Public Primary Certification Authority - G5
        Validity
            Not Before: Feb  8 00:00:00 2010 GMT
            Not After : Feb  7 23:59:59 2020 GMT
        Subject: C=US, O=VeriSign, Inc., OU=VeriSign Trust Network, OU=Terms of use at https://www.verisign.com/rpa (c)10, CN=VeriSign Class 3 Code Signing 2010 CA
        Subject Public Key Info:
            Public Key Algorithm: rsaEncryption
                Public-Key: (2048 bit)
                Modulus:
                    00:f5:23:4b:5e:a5:d7:8a:bb:32:e9:d4:57:f7:ef:
                    e4:c7:26:7e:ad:19:98:fe:a8:9d:7d:94:f6:36:6b:
                    10:d7:75:81:30:7f:04:68:7f:cb:2b:75:1e:cd:1d:
                    08:8c:df:69:94:a7:37:a3:9c:7b:80:e0:99:e1:ee:
                    37:4d:5f:ce:3b:14:ee:86:d4:d0:f5:27:35:bc:25:
                    0b:38:a7:8c:63:9d:17:a3:08:a5:ab:b0:fb:cd:6a:
                    62:82:4c:d5:21:da:1b:d9:f1:e3:84:3b:8a:2a:4f:
                    85:5b:90:01:4f:c9:a7:76:10:7f:27:03:7c:be:ae:
                    7e:7d:c1:dd:f9:05:bc:1b:48:9c:69:e7:c0:a4:3c:
                    3c:41:00:3e:df:96:e5:c5:e4:94:71:d6:55:01:c7:
                    00:26:4a:40:3c:b5:a1:26:a9:0c:a7:6d:80:8e:90:
                    25:7b:cf:bf:3f:1c:eb:2f:96:fa:e5:87:77:c6:b5:
                    56:b2:7a:3b:54:30:53:1b:df:62:34:ff:1e:d1:f4:
                    5a:93:28:85:e5:4c:17:4e:7e:5b:fd:a4:93:99:7f:
                    df:cd:ef:a4:75:ef:ef:15:f6:47:e7:f8:19:72:d8:
                    2e:34:1a:a6:b4:a7:4c:7e:bd:bb:4f:0c:3d:57:f1:
                    30:d6:a6:36:8e:d6:80:76:d7:19:2e:a5:cd:7e:34:
                    2d:89
                Exponent: 65537 (0x10001)
        X509v3 extensions:
            X509v3 Basic Constraints: critical
                CA:TRUE, pathlen:0
            X509v3 Certificate Policies: 
                Policy: 2.16.840.1.113733.1.7.23.3
                  CPS: https://www.verisign.com/cps
                  User Notice:
                    Explicit Text: https://www.verisign.com/rpa

            X509v3 Key Usage: critical
                Certificate Sign, CRL Sign
            1.3.6.1.5.5.7.1.12: 
                0_.].[0Y0W0U..image/gif0!0.0...+..............k...j.H.,{..0%.#http://logo.verisign.com/vslogo.gif
            X509v3 CRL Distribution Points: 

                Full Name:
                  URI:http://crl.verisign.com/pca3-g5.crl

            Authority Information Access: 
                OCSP - URI:http://ocsp.verisign.com

            X509v3 Extended Key Usage: 
                TLS Web Client Authentication, Code Signing
            X509v3 Subject Alternative Name: 
                DirName:/CN=VeriSignMPKI-2-8
            X509v3 Subject Key Identifier: 
                CF:99:A9:EA:7B:26:F4:4B:C9:8E:8F:D7:F0:05:26:EF:E3:D2:A7:9D
            X509v3 Authority Key Identifier: 
                keyid:7F:D3:65:A7:C2:DD:EC:BB:F0:30:09:F3:43:39:FA:02:AF:33:31:33

    Signature Algorithm: sha1WithRSAEncryption
         56:22:e6:34:a4:c4:61:cb:48:b9:01:ad:56:a8:64:0f:d9:8c:
         91:c4:bb:cc:0c:e5:ad:7a:a0:22:7f:df:47:38:4a:2d:6c:d1:
         7f:71:1a:7c:ec:70:a9:b1:f0:4f:e4:0f:0c:53:fa:15:5e:fe:
         74:98:49:24:85:81:26:1c:91:14:47:b0:4c:63:8c:bb:a1:34:
         d4:c6:45:e8:0d:85:26:73:03:d0:a9:8c:64:6d:dc:71:92:e6:
         45:05:60:15:59:51:39:fc:58:14:6b:fe:d4:a4:ed:79:6b:08:
         0c:41:72:e7:37:22:06:09:be:23:e9:3f:44:9a:1e:e9:61:9d:
         cc:b1:90:5c:fc:3d:d2:8d:ac:42:3d:65:36:d4:b4:3d:40:28:
         8f:9b:10:cf:23:26:cc:4b:20:cb:90:1f:5d:8c:4c:34:ca:3c:
         d8:e5:37:d6:6f:a5:20:bd:34:eb:26:d9:ae:0d:e7:c5:9a:f7:
         a1:b4:21:91:33:6f:86:e8:58:bb:25:7c:74:0e:58:fe:75:1b:
         63:3f:ce:31:7c:9b:8f:1b:96:9e:c5:53:76:84:5b:9c:ad:91:
         fa:ac:ed:93:ba:5d:c8:21:53:c2:82:53:63:af:12:0d:50:87:
         11:1b:3d:54:52:96:8a:2c:9c:3d:92:1a:08:9a:05:2e:c7:93:
         a5:48:91:d3
-----BEGIN CERTIFICATE-----
MIIGCjCCBPKgAwIBAgIQUgDlqiVW/BqG7ZbJ1EszxzANBgkqhkiG9w0BAQUFADCB
yjELMAkGA1UEBhMCVVMxFzAVBgNVBAoTDlZlcmlTaWduLCBJbmMuMR8wHQYDVQQL
ExZWZXJpU2lnbiBUcnVzdCBOZXR3b3JrMTowOAYDVQQLEzEoYykgMjAwNiBWZXJp
U2lnbiwgSW5jLiAtIEZvciBhdXRob3JpemVkIHVzZSBvbmx5MUUwQwYDVQQDEzxW
ZXJpU2lnbiBDbGFzcyAzIFB1YmxpYyBQcmltYXJ5IENlcnRpZmljYXRpb24gQXV0
aG9yaXR5IC0gRzUwHhcNMTAwMjA4MDAwMDAwWhcNMjAwMjA3MjM1OTU5WjCBtDEL
MAkGA1UEBhMCVVMxFzAVBgNVBAoTDlZlcmlTaWduLCBJbmMuMR8wHQYDVQQLExZW
ZXJpU2lnbiBUcnVzdCBOZXR3b3JrMTswOQYDVQQLEzJUZXJtcyBvZiB1c2UgYXQg
aHR0cHM6Ly93d3cudmVyaXNpZ24uY29tL3JwYSAoYykxMDEuMCwGA1UEAxMlVmVy
aVNpZ24gQ2xhc3MgMyBDb2RlIFNpZ25pbmcgMjAxMCBDQTCCASIwDQYJKoZIhvcN
AQEBBQADggEPADCCAQoCggEBAPUjS16l14q7MunUV/fv5Mcmfq0ZmP6onX2U9jZr
ENd1gTB/BGh/yyt1Hs0dCIzfaZSnN6Oce4DgmeHuN01fzjsU7obU0PUnNbwlCzin
jGOdF6MIpauw+81qYoJM1SHaG9nx44Q7iipPhVuQAU/Jp3YQfycDfL6ufn3B3fkF
vBtInGnnwKQ8PEEAPt+W5cXklHHWVQHHACZKQDy1oSapDKdtgI6QJXvPvz8c6y+W
+uWHd8a1VrJ6O1QwUxvfYjT/HtH0WpMoheVMF05+W/2kk5l/383vpHXv7xX2R+f4
GXLYLjQaprSnTH69u08MPVfxMNamNo7WgHbXGS6lzX40LYkCAwEAAaOCAf4wggH6
MBIGA1UdEwEB/wQIMAYBAf8CAQAwcAYDVR0gBGkwZzBlBgtghkgBhvhFAQcXAzBW
MCgGCCsGAQUFBwIBFhxodHRwczovL3d3dy52ZXJpc2lnbi5jb20vY3BzMCoGCCsG
AQUFBwICMB4aHGh0dHBzOi8vd3d3LnZlcmlzaWduLmNvbS9ycGEwDgYDVR0PAQH/
BAQDAgEGMG0GCCsGAQUFBwEMBGEwX6FdoFswWTBXMFUWCWltYWdlL2dpZjAhMB8w
BwYFKw4DAhoEFI/l0xqGrI2Oa8PPgGrUSBgsexkuMCUWI2h0dHA6Ly9sb2dvLnZl
cmlzaWduLmNvbS92c2xvZ28uZ2lmMDQGA1UdHwQtMCswKaAnoCWGI2h0dHA6Ly9j
cmwudmVyaXNpZ24uY29tL3BjYTMtZzUuY3JsMDQGCCsGAQUFBwEBBCgwJjAkBggr
BgEFBQcwAYYYaHR0cDovL29jc3AudmVyaXNpZ24uY29tMB0GA1UdJQQWMBQGCCsG
AQUFBwMCBggrBgEFBQcDAzAoBgNVHREEITAfpB0wGzEZMBcGA1UEAxMQVmVyaVNp
Z25NUEtJLTItODAdBgNVHQ4EFgQUz5mp6nsm9EvJjo/X8AUm7+PSp50wHwYDVR0j
BBgwFoAUf9Nlp8Ld7LvwMAnzQzn6Aq8zMTMwDQYJKoZIhvcNAQEFBQADggEBAFYi
5jSkxGHLSLkBrVaoZA/ZjJHEu8wM5a16oCJ/30c4Si1s0X9xGnzscKmx8E/kDwxT
+hVe/nSYSSSFgSYckRRHsExjjLuhNNTGRegNhSZzA9CpjGRt3HGS5kUFYBVZUTn8
WBRr/tSk7XlrCAxBcuc3IgYJviPpP0SaHulhncyxkFz8PdKNrEI9ZTbUtD1AKI+b
EM8jJsxLIMuQH12MTDTKPNjlN9ZvpSC9NOsm2a4N58Wa96G0IZEzb4boWLslfHQO
WP51G2M/zjF8m48blp7FU3aEW5ytkfqs7ZO6XcghU8KCU2OvEg1QhxEbPVRSloos
nD2SGgiaBS7Hk6VIkdM=
-----END CERTIFICATE-----

