Certificate:
    Data:
        Version: 3 (0x2)
        Serial Number:
            74:f2:95:8d:31:d0:3e:b0:42:f9:08:15:55:30:52:77
    Signature Algorithm: sha1WithRSAEncryption
        Issuer: C=US, O=VeriSign, Inc., OU=VeriSign Trust Network, OU=Terms of use at https://www.verisign.com/rpa (c)09, CN=VeriSign Class 3 Code Signing 2009-2 CA
        Validity
            Not Before: Mar 16 00:00:00 2010 GMT
            Not After : Mar 15 23:59:59 2013 GMT
        Subject: C=CN, ST=Beijing, L=Beijing, O=360.cn, OU=Digital ID Class 3 - Microsoft Software Validation v2, CN=360.cn
        Subject Public Key Info:
            Public Key Algorithm: rsaEncryption
                Public-Key: (1024 bit)
                Modulus:
                    00:e6:c8:a7:b7:8f:00:ce:3e:36:9e:63:c7:5f:e2:
                    7c:b7:16:a0:3e:b0:1a:6a:f6:92:73:74:ed:f6:1c:
                    2f:72:ce:6f:58:fd:32:e0:09:b4:39:56:a5:85:4e:
                    4f:1d:a4:05:2b:a4:ba:8f:61:8b:2b:42:04:36:34:
                    13:7e:d1:5f:f6:f0:61:1e:be:bf:74:c1:56:b2:c6:
                    40:b0:34:81:f7:7f:8e:ca:e2:37:c3:0e:9a:92:fc:
                    99:69:7b:f4:7f:f0:f3:74:e8:42:e3:21:10:76:a2:
                    b9:26:1e:92:55:04:4e:bf:d3:7f:12:a8:2b:c9:89:
                    ad:00:da:0f:ca:6c:bc:29:91
                Exponent: 65537 (0x10001)
        X509v3 extensions:
            X509v3 Basic Constraints: 
                CA:FALSE
            X509v3 Key Usage: critical
                Digital Signature
            X509v3 CRL Distribution Points: 

                Full Name:
                  URI:http://csc3-2009-2-crl.verisign.com/CSC3-2009-2.crl

            X509v3 Certificate Policies: 
                Policy: 2.16.840.1.113733.1.7.23.3
                  CPS: https://www.verisign.com/rpa

            X509v3 Extended Key Usage: 
                Code Signing
            Authority Information Access: 
                OCSP - URI:http://ocsp.verisign.com
                CA Issuers - URI:http://csc3-2009-2-aia.verisign.com/CSC3-2009-2.cer

            X509v3 Authority Key Identifier: 
                keyid:97:D0:6B:A8:26:70:C8:A1:3F:94:1F:08:2D:C4:35:9B:A4:A1:1E:F2

            Netscape Cert Type: 
                Object Signing
            1.3.6.1.4.1.311.2.1.27: 
                0.......
    Signature Algorithm: sha1WithRSAEncryption
         1d:03:5b:2e:51:20:7e:e0:aa:a7:a8:61:80:92:19:82:04:b6:
         61:44:06:a8:f9:05:7f:41:60:de:8e:16:57:77:f5:c7:d7:f1:
         f3:ba:76:80:43:88:1d:ba:bc:4a:1f:fa:7d:30:44:d7:f5:ef:
         0f:26:58:17:3f:ce:2a:17:35:ba:90:34:87:3c:94:c7:86:5e:
         c7:81:60:b9:b0:08:15:e2:53:a6:0a:2e:ee:a8:b8:f6:8c:c1:
         44:d4:74:19:04:6c:97:fd:bf:69:0a:c7:75:5e:84:23:0d:fa:
         0e:8f:4f:1a:ac:cf:8f:65:89:d9:ad:9f:16:09:88:f4:c8:cc:
         5a:73:c4:24:1c:74:ea:67:70:04:2e:d7:49:6f:d6:b7:aa:7a:
         e6:4c:37:41:aa:3a:1f:00:4c:75:d2:a9:f2:5e:0d:1a:c5:3e:
         9d:d1:3d:20:67:c9:63:a9:eb:08:95:17:a9:d4:b5:a8:05:f1:
         d9:c7:2c:61:ef:ea:0b:89:8e:af:9f:b2:c6:e2:3e:78:5c:00:
         e0:b6:f5:3e:91:ba:0f:34:30:60:ee:50:bd:b7:e4:1c:17:b2:
         5c:c3:89:e1:20:22:d1:38:8b:6a:f7:7d:30:31:eb:65:fe:bf:
         23:6b:79:5b:50:0a:49:e1:fe:6a:d9:13:9a:d0:9a:ba:bb:9f:
         ce:a0:0f:3b
-----BEGIN CERTIFICATE-----
MIIE1jCCA76gAwIBAgIQdPKVjTHQPrBC+QgVVTBSdzANBgkqhkiG9w0BAQUFADCB
tjELMAkGA1UEBhMCVVMxFzAVBgNVBAoTDlZlcmlTaWduLCBJbmMuMR8wHQYDVQQL
ExZWZXJpU2lnbiBUcnVzdCBOZXR3b3JrMTswOQYDVQQLEzJUZXJtcyBvZiB1c2Ug
YXQgaHR0cHM6Ly93d3cudmVyaXNpZ24uY29tL3JwYSAoYykwOTEwMC4GA1UEAxMn
VmVyaVNpZ24gQ2xhc3MgMyBDb2RlIFNpZ25pbmcgMjAwOS0yIENBMB4XDTEwMDMx
NjAwMDAwMFoXDTEzMDMxNTIzNTk1OVowgZMxCzAJBgNVBAYTAkNOMRAwDgYDVQQI
EwdCZWlqaW5nMRAwDgYDVQQHEwdCZWlqaW5nMQ8wDQYDVQQKFAYzNjAuY24xPjA8
BgNVBAsTNURpZ2l0YWwgSUQgQ2xhc3MgMyAtIE1pY3Jvc29mdCBTb2Z0d2FyZSBW
YWxpZGF0aW9uIHYyMQ8wDQYDVQQDFAYzNjAuY24wgZ8wDQYJKoZIhvcNAQEBBQAD
gY0AMIGJAoGBAObIp7ePAM4+Np5jx1/ifLcWoD6wGmr2knN07fYcL3LOb1j9MuAJ
tDlWpYVOTx2kBSukuo9hiytCBDY0E37RX/bwYR6+v3TBVrLGQLA0gfd/jsriN8MO
mpL8mWl79H/w83ToQuMhEHaiuSYeklUETr/TfxKoK8mJrQDaD8psvCmRAgMBAAGj
ggGDMIIBfzAJBgNVHRMEAjAAMA4GA1UdDwEB/wQEAwIHgDBEBgNVHR8EPTA7MDmg
N6A1hjNodHRwOi8vY3NjMy0yMDA5LTItY3JsLnZlcmlzaWduLmNvbS9DU0MzLTIw
MDktMi5jcmwwRAYDVR0gBD0wOzA5BgtghkgBhvhFAQcXAzAqMCgGCCsGAQUFBwIB
FhxodHRwczovL3d3dy52ZXJpc2lnbi5jb20vcnBhMBMGA1UdJQQMMAoGCCsGAQUF
BwMDMHUGCCsGAQUFBwEBBGkwZzAkBggrBgEFBQcwAYYYaHR0cDovL29jc3AudmVy
aXNpZ24uY29tMD8GCCsGAQUFBzAChjNodHRwOi8vY3NjMy0yMDA5LTItYWlhLnZl
cmlzaWduLmNvbS9DU0MzLTIwMDktMi5jZXIwHwYDVR0jBBgwFoAUl9BrqCZwyKE/
lB8ILcQ1m6ShHvIwEQYJYIZIAYb4QgEBBAQDAgQQMBYGCisGAQQBgjcCARsECDAG
AQEAAQH/MA0GCSqGSIb3DQEBBQUAA4IBAQAdA1suUSB+4KqnqGGAkhmCBLZhRAao
+QV/QWDejhZXd/XH1/HzunaAQ4gdurxKH/p9METX9e8PJlgXP84qFzW6kDSHPJTH
hl7HgWC5sAgV4lOmCi7uqLj2jMFE1HQZBGyX/b9pCsd1XoQjDfoOj08arM+PZYnZ
rZ8WCYj0yMxac8QkHHTqZ3AELtdJb9a3qnrmTDdBqjofAEx10qnyXg0axT6d0T0g
Z8ljqesIlRep1LWoBfHZxyxh7+oLiY6vn7LG4j54XADgtvU+kboPNDBg7lC9t+Qc
F7Jcw4nhICLROItq930wMetl/r8ja3lbUApJ4f5q2ROa0Jq6u5/OoA87
-----END CERTIFICATE-----

Certificate:
    Data:
        Version: 3 (0x2)
        Serial Number:
            65:52:26:e1:b2:2e:18:e1:59:0f:29:85:ac:22:e7:5c
    Signature Algorithm: sha1WithRSAEncryption
        Issuer: C=US, O=VeriSign, Inc., OU=Class 3 Public Primary Certification Authority
        Validity
            Not Before: May 21 00:00:00 2009 GMT
            Not After : May 20 23:59:59 2019 GMT
        Subject: C=US, O=VeriSign, Inc., OU=VeriSign Trust Network, OU=Terms of use at https://www.verisign.com/rpa (c)09, CN=VeriSign Class 3 Code Signing 2009-2 CA
        Subject Public Key Info:
            Public Key Algorithm: rsaEncryption
                Public-Key: (2048 bit)
                Modulus:
                    00:be:67:1d:b4:60:aa:10:49:6f:56:17:7c:66:c9:
                    5e:86:0d:d5:f1:ac:a7:71:83:8e:8b:89:f8:88:04:
                    89:15:06:ba:2d:84:21:95:e4:d1:9c:50:4c:fb:d2:
                    22:bd:da:f2:b2:35:3b:1e:8f:c3:09:fb:fc:13:2e:
                    5a:bf:89:7c:3d:3b:25:1e:f6:f3:58:7b:9c:f4:01:
                    b5:c6:0a:b8:80:ce:be:27:74:61:67:27:4d:6a:e5:
                    ec:81:61:58:79:a3:e0:17:10:12:15:27:b0:e1:4d:
                    34:7f:2b:47:20:44:b9:de:66:24:66:8a:cd:4f:ba:
                    1f:c5:38:c8:54:90:e1:72:f6:19:66:75:6a:b9:49:
                    68:cf:38:79:0d:aa:30:a8:db:2c:60:48:9e:d7:aa:
                    14:01:a9:83:d7:38:91:30:39:13:96:03:3a:7c:40:
                    54:b6:ad:e0:2f:1b:83:dc:a8:11:52:3e:02:b3:d7:
                    2b:fd:21:b6:a7:5c:a3:0f:0b:a9:a6:10:50:0e:34:
                    2e:4d:a7:ce:c9:5e:25:d4:8c:bc:f3:6e:7c:29:bc:
                    01:5d:fc:31:87:5a:d5:8c:85:67:58:88:19:a0:bf:
                    35:f0:ea:2b:a3:21:e7:90:f6:83:e5:a8:ed:60:78:
                    5e:7b:60:83:fd:57:0b:5d:41:0d:63:54:60:d6:43:
                    21:ef
                Exponent: 65537 (0x10001)
        X509v3 extensions:
            X509v3 Basic Constraints: critical
                CA:TRUE, pathlen:0
            X509v3 Certificate Policies: 
                Policy: 2.16.840.1.113733.1.7.23.3
                  CPS: https://www.verisign.com/cps
                  User Notice:
                    Explicit Text: https://www.verisign.com/rpa

            X509v3 Key Usage: critical
                Certificate Sign, CRL Sign
            1.3.6.1.5.5.7.1.12: 
                0_.].[0Y0W0U..image/gif0!0.0...+..............k...j.H.,{..0%.#http://logo.verisign.com/vslogo.gif
            X509v3 Extended Key Usage: 
                TLS Web Client Authentication, Code Signing
            Authority Information Access: 
                OCSP - URI:http://ocsp.verisign.com

            X509v3 CRL Distribution Points: 

                Full Name:
                  URI:http://crl.verisign.com/pca3.crl

            X509v3 Subject Alternative Name: 
                DirName:/CN=Class3CA2048-1-55
            X509v3 Subject Key Identifier: 
                97:D0:6B:A8:26:70:C8:A1:3F:94:1F:08:2D:C4:35:9B:A4:A1:1E:F2
    Signature Algorithm: sha1WithRSAEncryption
         8b:03:c0:dd:94:d8:41:a2:61:69:b0:15:a8:78:c7:30:c6:90:
         3c:7e:42:f7:24:b6:e4:83:73:17:04:7f:04:10:9c:a1:e2:fa:
         81:2f:eb:c0:ca:44:e7:72:e0:50:b6:55:10:20:83:6e:96:92:
         e4:9a:51:6a:b4:37:31:dc:a5:2d:eb:8c:00:c7:1d:4f:e7:4d:
         32:ba:85:f8:4e:be:fa:67:55:65:f0:6a:be:7a:ca:64:38:1a:
         10:10:78:45:76:31:f3:86:7a:03:0f:60:c2:b3:5d:9d:f6:8b:
         66:76:82:1b:59:e1:83:e5:bd:49:a5:38:56:e5:de:41:77:0e:
         58:0f
-----BEGIN CERTIFICATE-----
MIIE/DCCBGWgAwIBAgIQZVIm4bIuGOFZDymFrCLnXDANBgkqhkiG9w0BAQUFADBf
MQswCQYDVQQGEwJVUzEXMBUGA1UEChMOVmVyaVNpZ24sIEluYy4xNzA1BgNVBAsT
LkNsYXNzIDMgUHVibGljIFByaW1hcnkgQ2VydGlmaWNhdGlvbiBBdXRob3JpdHkw
HhcNMDkwNTIxMDAwMDAwWhcNMTkwNTIwMjM1OTU5WjCBtjELMAkGA1UEBhMCVVMx
FzAVBgNVBAoTDlZlcmlTaWduLCBJbmMuMR8wHQYDVQQLExZWZXJpU2lnbiBUcnVz
dCBOZXR3b3JrMTswOQYDVQQLEzJUZXJtcyBvZiB1c2UgYXQgaHR0cHM6Ly93d3cu
dmVyaXNpZ24uY29tL3JwYSAoYykwOTEwMC4GA1UEAxMnVmVyaVNpZ24gQ2xhc3Mg
MyBDb2RlIFNpZ25pbmcgMjAwOS0yIENBMIIBIjANBgkqhkiG9w0BAQEFAAOCAQ8A
MIIBCgKCAQEAvmcdtGCqEElvVhd8Zslehg3V8ayncYOOi4n4iASJFQa6LYQhleTR
nFBM+9IivdrysjU7Ho/DCfv8Ey5av4l8PTslHvbzWHuc9AG1xgq4gM6+J3RhZydN
auXsgWFYeaPgFxASFSew4U00fytHIES53mYkZorNT7ofxTjIVJDhcvYZZnVquUlo
zzh5DaowqNssYEie16oUAamD1ziRMDkTlgM6fEBUtq3gLxuD3KgRUj4Cs9cr/SG2
p1yjDwupphBQDjQuTafOyV4l1Iy88258KbwBXfwxh1rVjIVnWIgZoL818OoroyHn
kPaD5ajtYHhee2CD/VcLXUENY1Rg1kMh7wIDAQABo4IB2zCCAdcwEgYDVR0TAQH/
BAgwBgEB/wIBADBwBgNVHSAEaTBnMGUGC2CGSAGG+EUBBxcDMFYwKAYIKwYBBQUH
AgEWHGh0dHBzOi8vd3d3LnZlcmlzaWduLmNvbS9jcHMwKgYIKwYBBQUHAgIwHhoc
aHR0cHM6Ly93d3cudmVyaXNpZ24uY29tL3JwYTAOBgNVHQ8BAf8EBAMCAQYwbQYI
KwYBBQUHAQwEYTBfoV2gWzBZMFcwVRYJaW1hZ2UvZ2lmMCEwHzAHBgUrDgMCGgQU
j+XTGoasjY5rw8+AatRIGCx7GS4wJRYjaHR0cDovL2xvZ28udmVyaXNpZ24uY29t
L3ZzbG9nby5naWYwHQYDVR0lBBYwFAYIKwYBBQUHAwIGCCsGAQUFBwMDMDQGCCsG
AQUFBwEBBCgwJjAkBggrBgEFBQcwAYYYaHR0cDovL29jc3AudmVyaXNpZ24uY29t
MDEGA1UdHwQqMCgwJqAkoCKGIGh0dHA6Ly9jcmwudmVyaXNpZ24uY29tL3BjYTMu
Y3JsMCkGA1UdEQQiMCCkHjAcMRowGAYDVQQDExFDbGFzczNDQTIwNDgtMS01NTAd
BgNVHQ4EFgQUl9BrqCZwyKE/lB8ILcQ1m6ShHvIwDQYJKoZIhvcNAQEFBQADgYEA
iwPA3ZTYQaJhabAVqHjHMMaQPH5C9yS25INzFwR/BBCcoeL6gS/rwMpE53LgULZV
ECCDbpaS5JpRarQ3MdylLeuMAMcdT+dNMrqF+E6++mdVZfBqvnrKZDgaEBB4RXYx
84Z6Aw9gwrNdnfaLZnaCG1nhg+W9SaU4VuXeQXcOWA8=
-----END CERTIFICATE-----

