Certificate:
    Data:
        Version: 3 (0x2)
        Serial Number:
            71:a0:b7:36:95:dd:b1:af:c2:3b:2b:9a:18:ee:54:cb
    Signature Algorithm: sha256WithRSAEncryption
        Issuer: C=US, O=thawte, Inc., OU=Certification Services Division, OU=(c) 2006 thawte, Inc. - For authorized use only, CN=thawte Primary Root CA
        Validity
            Not Before: Dec 10 00:00:00 2013 GMT
            Not After : Dec  9 23:59:59 2023 GMT
        Subject: C=US, O=thawte, Inc., CN=thawte SHA256 Code Signing CA
        Subject Public Key Info:
            Public Key Algorithm: rsaEncryption
                Public-Key: (2048 bit)
                Modulus:
                    00:9b:55:02:4c:17:05:e9:d0:66:c3:fc:28:ad:d3:
                    c0:fe:ef:e0:e9:7e:d4:1e:f6:aa:1b:91:46:fd:f5:
                    16:ed:98:07:53:fa:ba:87:1b:7d:9e:1f:01:27:ab:
                    b9:d2:67:ca:b7:10:25:53:f4:e3:be:9b:90:b8:ed:
                    23:5c:42:ef:64:25:58:e5:88:22:1a:be:f5:c7:ae:
                    f5:be:8a:b1:11:11:93:1a:22:a9:74:69:c1:74:b6:
                    68:87:a7:83:30:f9:64:f1:b1:e3:38:3e:f4:d6:c1:
                    fc:12:fe:73:57:17:35:57:8a:dd:50:8d:03:f8:66:
                    cd:ca:76:83:13:c8:d7:0e:71:1d:e4:63:c9:ba:17:
                    f8:d1:b9:e4:88:d2:2c:28:c8:21:20:0d:41:b7:0b:
                    e2:2f:c2:80:e6:88:7b:53:6c:c3:44:63:81:7f:68:
                    47:8c:2b:2a:cf:5b:f4:8c:49:61:ba:69:85:fd:6b:
                    00:78:05:26:69:13:30:80:38:4e:f1:5a:55:c9:c5:
                    50:d6:aa:38:89:47:43:5c:fe:4d:73:a5:49:c5:93:
                    69:fe:77:96:9a:af:f3:8c:0e:57:ba:33:d9:0e:c6:
                    42:d3:03:77:c4:bb:39:ad:91:f9:f3:f7:96:5c:3a:
                    64:a6:ed:27:57:c1:e8:40:f3:53:f2:be:29:34:fe:
                    5f:f9
                Exponent: 65537 (0x10001)
        X509v3 extensions:
            Authority Information Access: 
                OCSP - URI:http://t2.symcb.com

            X509v3 Basic Constraints: critical
                CA:TRUE, pathlen:0
            X509v3 CRL Distribution Points: 

                Full Name:
                  URI:http://t1.symcb.com/ThawtePCA.crl

            X509v3 Extended Key Usage: 
                TLS Web Client Authentication, Code Signing
            X509v3 Key Usage: critical
                Certificate Sign, CRL Sign
            X509v3 Subject Alternative Name: 
                DirName:/CN=SymantecPKI-1-568
            X509v3 Subject Key Identifier: 
                57:86:9B:54:B8:BE:A6:29:8A:E4:F6:C2:E2:13:18:89:85:CD:DC:B7
            X509v3 Authority Key Identifier: 
                keyid:7B:5B:45:CF:AF:CE:CB:7A:FD:31:92:1A:6A:B6:F3:46:EB:57:48:50

    Signature Algorithm: sha256WithRSAEncryption
         24:3b:f5:d7:a0:36:13:c7:43:fe:f0:09:87:68:d1:98:31:6e:
         12:e4:3f:1e:1f:96:7b:6b:4c:1e:87:9e:8b:c5:6c:a3:b1:0c:
         7b:50:92:d5:81:9c:b1:8f:2c:29:b7:ee:f9:91:05:b9:8e:41:
         f1:2c:f6:d0:59:2d:98:e0:b9:ea:80:01:47:40:95:b8:3d:9d:
         03:bd:79:bb:35:b6:ad:9c:4c:27:f6:67:45:10:c9:c5:bc:87:
         4e:55:7b:d2:87:bb:dd:dc:30:ef:c6:d4:6c:cc:99:35:6d:1c:
         e0:60:d3:cd:68:8f:29:59:4b:89:96:08:46:c9:8e:fc:75:4f:
         c5:dc:09:cc:4e:27:8b:44:cd:07:bc:ac:04:e0:b5:33:a5:87:
         9f:f4:dd:73:0c:91:ea:12:81:6f:e3:75:f0:1e:b5:93:6c:44:
         17:d5:3e:97:c9:bd:07:2c:56:77:1f:85:dd:46:e8:bf:de:2c:
         81:94:a3:f7:e5:b7:a7:c1:37:9f:75:ca:55:77:4d:5e:36:29:
         ca:85:d8:45:41:72:57:75:c0:79:5b:fa:34:10:06:6d:64:20:
         42:b7:3a:c8:1f:1d:46:64:02:5f:c6:47:be:f0:c4:3a:28:54:
         da:f6:1e:4f:9a:a2:19:43:a4:6f:49:f8:fc:5e:42:20:28:84:
         8b:47:20:6e
-----BEGIN CERTIFICATE-----
MIIEmTCCA4GgAwIBAgIQcaC3NpXdsa/COyuaGO5UyzANBgkqhkiG9w0BAQsFADCB
qTELMAkGA1UEBhMCVVMxFTATBgNVBAoTDHRoYXd0ZSwgSW5jLjEoMCYGA1UECxMf
Q2VydGlmaWNhdGlvbiBTZXJ2aWNlcyBEaXZpc2lvbjE4MDYGA1UECxMvKGMpIDIw
MDYgdGhhd3RlLCBJbmMuIC0gRm9yIGF1dGhvcml6ZWQgdXNlIG9ubHkxHzAdBgNV
BAMTFnRoYXd0ZSBQcmltYXJ5IFJvb3QgQ0EwHhcNMTMxMjEwMDAwMDAwWhcNMjMx
MjA5MjM1OTU5WjBMMQswCQYDVQQGEwJVUzEVMBMGA1UEChMMdGhhd3RlLCBJbmMu
MSYwJAYDVQQDEx10aGF3dGUgU0hBMjU2IENvZGUgU2lnbmluZyBDQTCCASIwDQYJ
KoZIhvcNAQEBBQADggEPADCCAQoCggEBAJtVAkwXBenQZsP8KK3TwP7v4Ol+1B72
qhuRRv31Fu2YB1P6uocbfZ4fASerudJnyrcQJVP0476bkLjtI1xC72QlWOWIIhq+
9ceu9b6KsRERkxoiqXRpwXS2aIengzD5ZPGx4zg+9NbB/BL+c1cXNVeK3VCNA/hm
zcp2gxPI1w5xHeRjyboX+NG55IjSLCjIISANQbcL4i/CgOaIe1Nsw0RjgX9oR4wr
Ks9b9IxJYbpphf1rAHgFJmkTMIA4TvFaVcnFUNaqOIlHQ1z+TXOlScWTaf53lpqv
84wOV7oz2Q7GQtMDd8S7Oa2R+fP3llw6ZKbtJ1fB6EDzU/K+KTT+X/kCAwEAAaOC
ARcwggETMC8GCCsGAQUFBwEBBCMwITAfBggrBgEFBQcwAYYTaHR0cDovL3QyLnN5
bWNiLmNvbTASBgNVHRMBAf8ECDAGAQH/AgEAMDIGA1UdHwQrMCkwJ6AloCOGIWh0
dHA6Ly90MS5zeW1jYi5jb20vVGhhd3RlUENBLmNybDAdBgNVHSUEFjAUBggrBgEF
BQcDAgYIKwYBBQUHAwMwDgYDVR0PAQH/BAQDAgEGMCkGA1UdEQQiMCCkHjAcMRow
GAYDVQQDExFTeW1hbnRlY1BLSS0xLTU2ODAdBgNVHQ4EFgQUV4abVLi+pimK5PbC
4hMYiYXN3LcwHwYDVR0jBBgwFoAUe1tFz6/Oy3r9MZIaarbzRutXSFAwDQYJKoZI
hvcNAQELBQADggEBACQ79degNhPHQ/7wCYdo0ZgxbhLkPx4flntrTB6HnovFbKOx
DHtQktWBnLGPLCm37vmRBbmOQfEs9tBZLZjgueqAAUdAlbg9nQO9ebs1tq2cTCf2
Z0UQycW8h05Ve9KHu93cMO/G1GzMmTVtHOBg081ojylZS4mWCEbJjvx1T8XcCcxO
J4tEzQe8rATgtTOlh5/03XMMkeoSgW/jdfAetZNsRBfVPpfJvQcsVncfhd1G6L/e
LIGUo/flt6fBN591ylV3TV42KcqF2EVBcld1wHlb+jQQBm1kIEK3OsgfHUZkAl/G
R77wxDooVNr2Hk+aohlDpG9J+PxeQiAohItHIG4=
-----END CERTIFICATE-----

Certificate:
    Data:
        Version: 3 (0x2)
        Serial Number:
            2b:3b:da:c5:76:3e:ec:0e:01:0e:fa:a0:9c:77:ac:d5
    Signature Algorithm: sha256WithRSAEncryption
        Issuer: C=US, O=thawte, Inc., CN=thawte SHA256 Code Signing CA
        Validity
            Not Before: Jun 29 00:00:00 2017 GMT
            Not After : Jul  5 23:59:59 2018 GMT
        Subject: C=US, ST=Florida, L=Fort Myers, O=Malware Protection Live, CN=Malware Protection Live
        Subject Public Key Info:
            Public Key Algorithm: rsaEncryption
                Public-Key: (2048 bit)
                Modulus:
                    00:bf:96:54:73:e8:d2:3f:6d:8a:bf:39:a2:c4:ee:
                    94:e4:45:48:32:0b:a2:3b:63:cd:3f:88:90:5d:35:
                    19:81:96:48:a7:9e:48:d4:29:72:e6:43:db:1c:12:
                    ad:39:99:19:1b:f2:ba:88:35:15:45:59:c6:d0:2e:
                    78:70:82:5c:eb:4d:a4:69:e0:a5:e8:36:7b:cf:64:
                    06:a9:bd:be:bb:58:49:72:2c:df:0f:76:da:42:f2:
                    3b:ca:b1:dd:cc:47:d3:c6:7b:1c:53:21:a8:aa:2b:
                    0d:41:37:87:d3:b1:e8:42:d4:3e:d2:e8:65:4b:2d:
                    6c:46:8d:03:ff:c9:8a:cb:bb:9e:e7:09:16:8e:4e:
                    f2:5e:5e:39:60:46:db:19:3a:6b:09:5f:80:6a:44:
                    dc:39:79:7e:1e:92:ae:99:22:9c:7e:38:b4:ad:0c:
                    6a:8a:82:e5:16:cf:b7:ee:6e:f7:06:59:2a:19:82:
                    47:e0:2d:db:94:e7:d3:3a:62:25:70:ad:c4:af:c4:
                    e2:b5:ce:05:71:25:7b:18:04:d4:f8:c9:ca:fb:ce:
                    f8:ea:e4:85:0f:00:f9:c6:51:10:07:43:be:54:15:
                    1c:29:27:08:6c:a6:1d:e3:28:3d:50:0a:02:b9:57:
                    a9:03:4a:f4:8a:38:1c:49:c7:42:56:7e:a7:24:59:
                    5f:ed
                Exponent: 65537 (0x10001)
        X509v3 extensions:
            X509v3 Basic Constraints: 
                CA:FALSE
            X509v3 Authority Key Identifier: 
                keyid:57:86:9B:54:B8:BE:A6:29:8A:E4:F6:C2:E2:13:18:89:85:CD:DC:B7

            X509v3 Subject Key Identifier: 
                49:A6:F6:2D:3F:85:5A:09:1E:79:3C:37:74:04:CA:2B:4B:5D:C4:61
            X509v3 CRL Distribution Points: 

                Full Name:
                  URI:http://tl.symcb.com/tl.crl

            X509v3 Key Usage: critical
                Digital Signature
            X509v3 Extended Key Usage: 
                Code Signing
            X509v3 Certificate Policies: 
                Policy: 2.23.140.1.4.1
                  CPS: https://www.thawte.com/cps
                  User Notice:
                    Explicit Text: https://www.thawte.com/repository

            Authority Information Access: 
                OCSP - URI:http://tl.symcd.com
                CA Issuers - URI:http://tl.symcb.com/tl.crt

    Signature Algorithm: sha256WithRSAEncryption
         28:4f:d6:c2:d2:67:e1:c5:84:a9:ed:be:d8:33:16:37:46:e7:
         b3:86:af:4a:d2:fe:3b:c6:e8:25:42:ad:29:20:01:1b:46:81:
         c0:79:42:37:44:e6:92:cb:cd:30:5f:7f:92:ea:bf:fe:3c:47:
         08:ef:4c:61:e4:d1:f4:1b:44:e3:a5:1a:a0:ab:85:eb:ae:b8:
         91:f9:0a:bd:20:d2:a8:65:67:8e:71:3d:1e:1b:0e:f1:53:9b:
         41:c9:d3:bd:ab:00:62:ab:53:73:93:45:7d:d7:ea:02:e9:96:
         07:91:21:c3:f9:cf:e5:02:45:d4:35:09:21:96:a7:8a:0b:da:
         a4:2d:f0:a2:17:60:2e:6b:4d:f4:2d:12:31:0c:1a:c9:74:bf:
         df:60:4e:83:2e:d0:10:40:8e:45:35:24:e9:bb:97:5d:36:99:
         8f:b3:6c:54:26:9a:2b:67:f0:55:66:74:83:a8:fc:9c:f4:24:
         11:e0:18:d5:5e:b6:ba:33:2e:15:21:7e:ee:6d:79:a0:99:4c:
         c5:a9:a8:8b:37:01:40:3f:34:48:05:a8:00:d1:0e:72:18:c3:
         3f:e0:04:2e:73:cc:36:0c:63:7e:ba:08:75:7b:78:13:2f:c5:
         9d:c2:d2:13:ad:a4:0a:0b:a3:30:40:d7:ba:ad:b0:5e:eb:5d:
         c4:2b:ce:fa
-----BEGIN CERTIFICATE-----
MIIEujCCA6KgAwIBAgIQKzvaxXY+7A4BDvqgnHes1TANBgkqhkiG9w0BAQsFADBM
MQswCQYDVQQGEwJVUzEVMBMGA1UEChMMdGhhd3RlLCBJbmMuMSYwJAYDVQQDEx10
aGF3dGUgU0hBMjU2IENvZGUgU2lnbmluZyBDQTAeFw0xNzA2MjkwMDAwMDBaFw0x
ODA3MDUyMzU5NTlaMHgxCzAJBgNVBAYTAlVTMRAwDgYDVQQIDAdGbG9yaWRhMRMw
EQYDVQQHDApGb3J0IE15ZXJzMSAwHgYDVQQKDBdNYWx3YXJlIFByb3RlY3Rpb24g
TGl2ZTEgMB4GA1UEAwwXTWFsd2FyZSBQcm90ZWN0aW9uIExpdmUwggEiMA0GCSqG
SIb3DQEBAQUAA4IBDwAwggEKAoIBAQC/llRz6NI/bYq/OaLE7pTkRUgyC6I7Y80/
iJBdNRmBlkinnkjUKXLmQ9scEq05mRkb8rqINRVFWcbQLnhwglzrTaRp4KXoNnvP
ZAapvb67WElyLN8PdtpC8jvKsd3MR9PGexxTIaiqKw1BN4fTsehC1D7S6GVLLWxG
jQP/yYrLu57nCRaOTvJeXjlgRtsZOmsJX4BqRNw5eX4ekq6ZIpx+OLStDGqKguUW
z7fubvcGWSoZgkfgLduU59M6YiVwrcSvxOK1zgVxJXsYBNT4ycr7zvjq5IUPAPnG
URAHQ75UFRwpJwhsph3jKD1QCgK5V6kDSvSKOBxJx0JWfqckWV/tAgMBAAGjggFq
MIIBZjAJBgNVHRMEAjAAMB8GA1UdIwQYMBaAFFeGm1S4vqYpiuT2wuITGImFzdy3
MB0GA1UdDgQWBBRJpvYtP4VaCR55PDd0BMorS13EYTArBgNVHR8EJDAiMCCgHqAc
hhpodHRwOi8vdGwuc3ltY2IuY29tL3RsLmNybDAOBgNVHQ8BAf8EBAMCB4AwEwYD
VR0lBAwwCgYIKwYBBQUHAwMwbgYDVR0gBGcwZTBjBgZngQwBBAEwWTAmBggrBgEF
BQcCARYaaHR0cHM6Ly93d3cudGhhd3RlLmNvbS9jcHMwLwYIKwYBBQUHAgIwIwwh
aHR0cHM6Ly93d3cudGhhd3RlLmNvbS9yZXBvc2l0b3J5MFcGCCsGAQUFBwEBBEsw
STAfBggrBgEFBQcwAYYTaHR0cDovL3RsLnN5bWNkLmNvbTAmBggrBgEFBQcwAoYa
aHR0cDovL3RsLnN5bWNiLmNvbS90bC5jcnQwDQYJKoZIhvcNAQELBQADggEBAChP
1sLSZ+HFhKntvtgzFjdG57OGr0rS/jvG6CVCrSkgARtGgcB5QjdE5pLLzTBff5Lq
v/48RwjvTGHk0fQbROOlGqCrheuuuJH5Cr0g0qhlZ45xPR4bDvFTm0HJ072rAGKr
U3OTRX3X6gLplgeRIcP5z+UCRdQ1CSGWp4oL2qQt8KIXYC5rTfQtEjEMGsl0v99g
ToMu0BBAjkU1JOm7l102mY+zbFQmmitn8FVmdIOo/Jz0JBHgGNVetrozLhUhfu5t
eaCZTMWpqIs3AUA/NEgFqADRDnIYwz/gBC5zzDYMY366CHV7eBMvxZ3C0hOtpAoL
ozBA17qtsF7rXcQrzvo=
-----END CERTIFICATE-----

