Certificate:
    Data:
        Version: 3 (0x2)
        Serial Number:
            48:43:82:42:8c:2b:1d:b8:85:e9:0b:48:eb:66:c2:e7
    Signature Algorithm: sha1WithRSAEncryption
        Issuer: C=CN, O=WoSign CA Limited, CN=WoSign Class 3 Code Signing CA
        Validity
            Not Before: Jun 12 05:42:00 2014 GMT
            Not After : Jun 12 05:42:00 2015 GMT
        Subject: C=CN, ST=\xE5\xB9\xBF\xE4\xB8\x9C\xE7\x9C\x81, L=\xE5\xB9\xBF\xE5\xB7\x9E\xE5\xB8\x82, O=\xE5\xAE\x89\xE5\xBE\xBD\xE5\xB0\x9A\xE8\xB6\xA3\xE7\x8E\xA9\xE7\xBD\x91\xE7\xBB\x9C\xE7\xA7\x91\xE6\x8A\x80\xE6\x9C\x89\xE9\x99\x90\xE5\x85\xAC\xE5\x8F\xB8\xE5\xB9\xBF\xE5\xB7\x9E\xE5\x88\x86\xE5\x85\xAC\xE5\x8F\xB8/emailAddress=signature@37wan.com, CN=\xE5\xAE\x89\xE5\xBE\xBD\xE5\xB0\x9A\xE8\xB6\xA3\xE7\x8E\xA9\xE7\xBD\x91\xE7\xBB\x9C\xE7\xA7\x91\xE6\x8A\x80\xE6\x9C\x89\xE9\x99\x90\xE5\x85\xAC\xE5\x8F\xB8\xE5\xB9\xBF\xE5\xB7\x9E\xE5\x88\x86\xE5\x85\xAC\xE5\x8F\xB8
        Subject Public Key Info:
            Public Key Algorithm: rsaEncryption
                Public-Key: (2048 bit)
                Modulus:
                    00:cc:76:71:65:b0:92:fa:b4:64:80:96:a1:20:0f:
                    92:b0:7d:2b:94:ca:40:74:fd:d9:68:a6:aa:19:46:
                    73:0a:44:6d:b4:26:ff:31:00:4f:27:24:42:cb:ba:
                    03:32:99:5d:06:4f:59:ee:00:b0:df:c6:bd:90:10:
                    fa:12:7a:28:3c:06:6d:5f:0a:2f:40:a5:fd:55:39:
                    63:c9:a8:05:65:47:6a:bf:94:ad:18:19:59:f7:d4:
                    2d:9c:d0:16:11:26:4b:4a:7d:36:a4:0f:93:c7:ad:
                    67:c5:5d:d6:55:6b:3a:8d:57:61:08:f2:3f:9f:d3:
                    e9:4a:62:35:7e:55:91:5b:0e:54:6d:9e:1f:bc:ef:
                    83:1d:8b:a5:02:a6:76:c5:19:e9:bf:2d:27:99:15:
                    d5:44:cd:6f:f0:5d:ab:da:21:86:17:0f:5a:13:59:
                    65:44:2c:1d:96:2b:8c:82:a2:62:56:8e:a7:c5:2e:
                    21:07:23:65:c3:aa:43:49:db:30:ad:f5:2c:b3:ed:
                    3a:ca:0a:17:26:4c:4d:d0:66:b9:56:8b:da:6c:ae:
                    4f:5f:40:36:3b:28:3c:32:3a:76:30:76:fa:62:2c:
                    d0:51:41:13:05:a6:eb:3d:7d:31:15:94:8c:14:f4:
                    e1:57:5b:43:61:6a:49:3d:e2:91:06:64:a8:40:fa:
                    d6:0b
                Exponent: 3 (0x3)
        X509v3 extensions:
            X509v3 Key Usage: critical
                Digital Signature
            X509v3 Extended Key Usage: 
                Code Signing, Microsoft Commercial Code Signing
            X509v3 Basic Constraints: 
                CA:FALSE
            X509v3 Subject Key Identifier: 
                F1:F5:CA:5F:CB:F4:37:0E:85:A9:D6:B3:E1:FF:FA:01:1E:D8:2B:05
            X509v3 Authority Key Identifier: 
                keyid:F5:02:AA:4B:D3:E0:1A:8E:77:50:D6:1A:BB:EB:DF:B9:83:70:B0:4E

            Authority Information Access: 
                OCSP - URI:http://ocsp1.wosign.com/class3/code/ca1
                CA Issuers - URI:http://aia1.wosign.com/class3.code.ca1.cer

            X509v3 CRL Distribution Points: 

                Full Name:
                  URI:http://crls1.wosign.com/ca1-code-3.crl

            X509v3 Certificate Policies: 
                Policy: 2.23.140.1.2.2
                Policy: 1.3.6.1.4.1.36305.1.3.3.1.2
                  CPS: http://www.wosign.com/policy/

    Signature Algorithm: sha1WithRSAEncryption
         6b:ca:9e:68:42:92:bd:23:fd:e1:8b:e8:51:53:aa:27:47:77:
         bb:ea:b1:9b:70:2c:b3:43:46:b5:33:22:95:16:c3:82:3b:26:
         6a:8d:9f:5a:22:cc:c4:b5:0d:5e:c8:2b:4a:78:fb:8a:cf:9c:
         28:44:60:42:34:13:0b:23:8c:4b:e1:c1:dc:2a:87:21:16:86:
         3d:69:90:2b:3a:05:5b:7b:48:67:91:6e:a0:d1:1a:43:a3:62:
         82:c5:1c:8c:e8:17:65:7e:df:f8:71:d1:08:9f:f3:fe:fe:52:
         bb:a7:5b:96:97:3c:6a:30:75:88:ea:7b:5e:57:06:c8:cb:5e:
         b5:a3:f0:51:dc:20:6b:ac:35:ad:6e:ba:00:d4:44:1a:c9:1d:
         cf:f5:27:88:d1:ea:9f:98:a8:f1:61:81:27:43:de:bf:a9:23:
         d3:a9:69:53:09:67:e7:c5:e1:3a:ee:74:d6:a5:97:8b:3e:4a:
         2f:d5:6c:49:fc:53:2d:83:6e:ca:d2:82:9a:66:d4:3f:60:32:
         49:37:f1:80:73:5e:48:7d:6b:8b:22:87:40:bf:21:a0:11:c0:
         8c:23:e1:aa:95:42:9b:e8:c7:33:c2:08:9f:ee:6c:03:ce:2c:
         df:c6:63:95:c3:6a:ff:96:a3:7d:b1:35:ef:1b:1d:d7:58:6a:
         c7:10:02:bb
-----BEGIN CERTIFICATE-----
MIIFQTCCBCmgAwIBAgIQSEOCQowrHbiF6QtI62bC5zANBgkqhkiG9w0BAQUFADBS
MQswCQYDVQQGEwJDTjEaMBgGA1UEChMRV29TaWduIENBIExpbWl0ZWQxJzAlBgNV
BAMTHldvU2lnbiBDbGFzcyAzIENvZGUgU2lnbmluZyBDQTAeFw0xNDA2MTIwNTQy
MDBaFw0xNTA2MTIwNTQyMDBaMIHbMQswCQYDVQQGEwJDTjESMBAGA1UECAwJ5bm/
5Lic55yBMRIwEAYDVQQHDAnlub/lt57luIIxPzA9BgNVBAoMNuWuieW+veWwmui2
o+eOqee9kee7nOenkeaKgOaciemZkOWFrOWPuOW5v+W3nuWIhuWFrOWPuDEiMCAG
CSqGSIb3DQEJARMTc2lnbmF0dXJlQDM3d2FuLmNvbTE/MD0GA1UEAww25a6J5b69
5bCa6Laj546p572R57uc56eR5oqA5pyJ6ZmQ5YWs5Y+45bm/5bee5YiG5YWs5Y+4
MIIBIDANBgkqhkiG9w0BAQEFAAOCAQ0AMIIBCAKCAQEAzHZxZbCS+rRkgJahIA+S
sH0rlMpAdP3ZaKaqGUZzCkRttCb/MQBPJyRCy7oDMpldBk9Z7gCw38a9kBD6Enoo
PAZtXwovQKX9VTljyagFZUdqv5StGBlZ99QtnNAWESZLSn02pA+Tx61nxV3WVWs6
jVdhCPI/n9PpSmI1flWRWw5UbZ4fvO+DHYulAqZ2xRnpvy0nmRXVRM1v8F2r2iGG
Fw9aE1llRCwdliuMgqJiVo6nxS4hByNlw6pDSdswrfUss+06ygoXJkxN0Ga5Vova
bK5PX0A2Oyg8Mjp2MHb6YizQUUETBabrPX0xFZSMFPThV1tDYWpJPeKRBmSoQPrW
CwIBA6OCAYkwggGFMA4GA1UdDwEB/wQEAwIHgDAfBgNVHSUEGDAWBggrBgEFBQcD
AwYKKwYBBAGCNwIBFjAJBgNVHRMEAjAAMB0GA1UdDgQWBBTx9cpfy/Q3DoWp1rPh
//oBHtgrBTAfBgNVHSMEGDAWgBT1AqpL0+AajndQ1hq769+5g3CwTjB7BggrBgEF
BQcBAQRvMG0wMwYIKwYBBQUHMAGGJ2h0dHA6Ly9vY3NwMS53b3NpZ24uY29tL2Ns
YXNzMy9jb2RlL2NhMTA2BggrBgEFBQcwAoYqaHR0cDovL2FpYTEud29zaWduLmNv
bS9jbGFzczMuY29kZS5jYTEuY2VyMDcGA1UdHwQwMC4wLKAqoCiGJmh0dHA6Ly9j
cmxzMS53b3NpZ24uY29tL2NhMS1jb2RlLTMuY3JsMFEGA1UdIARKMEgwCAYGZ4EM
AQICMDwGDSsGAQQBgptRAQMDAQIwKzApBggrBgEFBQcCARYdaHR0cDovL3d3dy53
b3NpZ24uY29tL3BvbGljeS8wDQYJKoZIhvcNAQEFBQADggEBAGvKnmhCkr0j/eGL
6FFTqidHd7vqsZtwLLNDRrUzIpUWw4I7JmqNn1oizMS1DV7IK0p4+4rPnChEYEI0
EwsjjEvhwdwqhyEWhj1pkCs6BVt7SGeRbqDRGkOjYoLFHIzoF2V+3/hx0Qif8/7+
UrunW5aXPGowdYjqe15XBsjLXrWj8FHcIGusNa1uugDURBrJHc/1J4jR6p+YqPFh
gSdD3r+pI9OpaVMJZ+fF4TrudNall4s+Si/VbEn8Uy2DbsrSgppm1D9gMkk38YBz
Xkh9a4sih0C/IaARwIwj4aqVQpvoxzPCCJ/ubAPOLN/GY5XDav+Wo32xNe8bHddY
ascQArs=
-----END CERTIFICATE-----

Certificate:
    Data:
        Version: 3 (0x2)
        Serial Number:
            25:1f:5d:98:81:82:17:2e:3c:41:9e:01:4f:b0:40:4c
    Signature Algorithm: sha1WithRSAEncryption
        Issuer: C=CN, O=WoSign CA Limited, CN=Certification Authority of WoSign
        Validity
            Not Before: Aug  8 01:00:05 2009 GMT
            Not After : Aug  8 01:00:05 2024 GMT
        Subject: C=CN, O=WoSign CA Limited, CN=WoSign Time Stamping Signer
        Subject Public Key Info:
            Public Key Algorithm: rsaEncryption
                Public-Key: (2048 bit)
                Modulus:
                    00:a5:d0:68:ba:82:cb:db:a7:6d:55:b9:31:a7:da:
                    f4:9c:6b:03:54:4f:a2:1c:ef:1c:b5:96:44:1f:56:
                    41:3f:61:b0:03:59:4b:82:0e:db:15:c8:d0:cc:e0:
                    87:c6:09:75:8a:84:e3:ed:97:c2:c8:92:34:c0:f1:
                    64:53:60:51:34:48:90:b1:4f:89:69:f5:2e:a0:2a:
                    16:54:2f:c0:37:58:ff:35:52:1b:52:08:cf:b9:ec:
                    5a:27:52:5a:83:eb:68:b1:b9:f8:b2:a9:08:f3:4f:
                    ab:17:0f:2e:bd:4f:e5:12:8a:bf:7c:b7:e7:65:32:
                    3b:83:41:02:22:3a:24:3b:6a:a3:3c:af:eb:79:42:
                    17:56:74:c8:61:63:dd:8c:2f:3e:ef:3a:a3:47:52:
                    04:3b:00:18:ae:26:71:e0:7a:04:8d:75:82:2d:65:
                    4e:c1:b8:f2:8c:de:0f:63:03:d4:c3:52:60:72:8c:
                    88:cc:6f:96:d5:c7:7d:29:db:26:04:9e:a2:b4:bf:
                    5a:b5:6e:f2:46:0f:29:81:c5:c0:4f:a6:87:8c:7c:
                    21:07:54:1f:50:f0:42:5c:55:7c:cf:44:2e:41:3d:
                    18:8d:5f:d9:68:e6:47:91:8f:cf:dc:7d:90:60:ff:
                    cb:48:e4:61:5e:4f:73:45:0d:c8:34:89:03:d5:fe:
                    0b:c3
                Exponent: 65537 (0x10001)
        X509v3 extensions:
            X509v3 Key Usage: critical
                Digital Signature, Non Repudiation
            X509v3 Extended Key Usage: critical
                Time Stamping
            X509v3 Basic Constraints: critical
                CA:FALSE
            X509v3 CRL Distribution Points: 

                Full Name:
                  URI:http://crls1.wosign.com/ca1.crl

            Authority Information Access: 
                OCSP - URI:http://ocsp1.wosign.com/ca1
                CA Issuers - URI:http://aia1.wosign.com/ca1-tsa.cer

            X509v3 Subject Key Identifier: 
                DF:6E:12:D5:0C:54:2E:5A:14:CA:DE:03:DE:AB:4E:D4:98:0C:46:B5
            X509v3 Authority Key Identifier: 
                keyid:E1:66:CF:0E:D1:F1:B3:4B:B7:06:20:14:FE:87:12:D5:F6:FE:FB:3E

    Signature Algorithm: sha1WithRSAEncryption
         7c:98:2f:bb:c3:d2:ae:c2:2a:8f:a6:97:76:56:86:32:c4:cd:
         36:68:8b:ec:d7:80:1a:31:79:b0:5e:56:b9:69:eb:b9:0b:32:
         a9:83:26:dc:77:5d:7a:56:b2:46:a0:7d:15:d6:6d:f9:ac:f8:
         35:73:78:36:02:60:22:20:1c:ef:18:8f:7e:66:b2:4f:e7:71:
         93:5a:2b:e6:e5:8d:3d:5d:2e:27:4b:46:cb:1d:04:f3:0b:8c:
         3f:13:a8:0d:d4:cd:e8:28:e8:2a:9c:55:c8:e3:ff:9d:a9:22:
         49:6e:e8:e7:88:92:37:57:80:60:44:18:27:43:58:18:04:6d:
         86:c0:65:47:05:57:55:50:91:e6:73:50:ee:3f:10:a9:8f:05:
         2f:da:68:11:53:6e:1f:ad:98:f3:76:3e:85:d0:57:a3:cf:e4:
         c1:1a:4c:64:06:a6:44:ab:4e:1e:e2:4b:d5:a4:6d:71:f8:6b:
         cb:66:13:a6:47:1f:21:2a:a1:ae:4c:89:a4:7d:28:77:17:4f:
         88:8d:b1:d1:5d:b1:c4:93:5a:bf:22:92:6c:ab:67:82:68:ed:
         d7:21:cb:63:bc:93:c4:17:8e:87:19:25:ad:17:54:b4:79:d2:
         a5:93:73:bc:7c:bb:e4:80:0f:8f:cc:aa:0a:d0:e4:93:75:aa:
         6c:cf:49:7d:75:ec:82:28:5c:73:f0:42:bf:9e:a6:13:2e:de:
         6c:ee:80:03:a6:ee:88:36:a0:1b:b2:82:e8:3d:bb:a6:1a:d5:
         11:ae:0a:0b:62:d6:51:36:97:23:17:52:26:ed:f1:c5:b6:21:
         75:39:15:07:e0:42:f1:2a:89:04:77:66:ad:14:04:d2:c7:d4:
         7c:4f:6c:dd:4e:dc:ed:8e:a9:f6:86:17:e7:e1:59:66:bb:d0:
         7a:d0:94:42:eb:af:c1:54:ca:e2:1a:a4:a9:b6:a5:d4:81:ca:
         15:26:fa:6f:b4:df:78:10:04:8c:48:18:bc:28:59:66:9a:b8:
         18:f1:d9:5e:5b:82:ff:fe:11:d7:d4:04:36:30:9f:51:1d:3c:
         c8:64:40:75:7c:d8:35:83:ef:b1:e5:28:76:0a:05:3d:e9:b8:
         1e:70:50:3a:60:e2:a5:01:88:88:9c:04:cc:6a:f2:15:85:d1:
         0c:b7:4a:6d:93:4e:82:ca:29:e9:75:0b:42:e4:3a:47:24:08:
         6d:80:5c:e6:6a:67:2c:b6:13:08:c9:4f:d8:66:53:b9:b6:7f:
         e2:ea:39:95:6f:71:77:96:03:af:b9:e3:cc:e3:a1:b9:f1:01:
         c6:6e:be:fc:97:5c:b2:d1:f1:7b:fb:33:c6:65:ea:e6:18:f9:
         ab:3a:27:1a:2d:20:6b:e6
-----BEGIN CERTIFICATE-----
MIIFRTCCAy2gAwIBAgIQJR9dmIGCFy48QZ4BT7BATDANBgkqhkiG9w0BAQUFADBV
MQswCQYDVQQGEwJDTjEaMBgGA1UEChMRV29TaWduIENBIExpbWl0ZWQxKjAoBgNV
BAMTIUNlcnRpZmljYXRpb24gQXV0aG9yaXR5IG9mIFdvU2lnbjAeFw0wOTA4MDgw
MTAwMDVaFw0yNDA4MDgwMTAwMDVaME8xCzAJBgNVBAYTAkNOMRowGAYDVQQKExFX
b1NpZ24gQ0EgTGltaXRlZDEkMCIGA1UEAxMbV29TaWduIFRpbWUgU3RhbXBpbmcg
U2lnbmVyMIIBIjANBgkqhkiG9w0BAQEFAAOCAQ8AMIIBCgKCAQEApdBouoLL26dt
Vbkxp9r0nGsDVE+iHO8ctZZEH1ZBP2GwA1lLgg7bFcjQzOCHxgl1ioTj7ZfCyJI0
wPFkU2BRNEiQsU+JafUuoCoWVC/AN1j/NVIbUgjPuexaJ1Jag+tosbn4sqkI80+r
Fw8uvU/lEoq/fLfnZTI7g0ECIjokO2qjPK/reUIXVnTIYWPdjC8+7zqjR1IEOwAY
riZx4HoEjXWCLWVOwbjyjN4PYwPUw1JgcoyIzG+W1cd9KdsmBJ6itL9atW7yRg8p
gcXAT6aHjHwhB1QfUPBCXFV8z0QuQT0YjV/ZaOZHkY/P3H2QYP/LSORhXk9zRQ3I
NIkD1f4LwwIDAQABo4IBFTCCAREwDgYDVR0PAQH/BAQDAgbAMBYGA1UdJQEB/wQM
MAoGCCsGAQUFBwMIMAwGA1UdEwEB/wQCMAAwMAYDVR0fBCkwJzAloCOgIYYfaHR0
cDovL2NybHMxLndvc2lnbi5jb20vY2ExLmNybDBnBggrBgEFBQcBAQRbMFkwJwYI
KwYBBQUHMAGGG2h0dHA6Ly9vY3NwMS53b3NpZ24uY29tL2NhMTAuBggrBgEFBQcw
AoYiaHR0cDovL2FpYTEud29zaWduLmNvbS9jYTEtdHNhLmNlcjAdBgNVHQ4EFgQU
324S1QxULloUyt4D3qtO1JgMRrUwHwYDVR0jBBgwFoAU4WbPDtHxs0u3BiAU/ocS
1fb++z4wDQYJKoZIhvcNAQEFBQADggIBAHyYL7vD0q7CKo+ml3ZWhjLEzTZoi+zX
gBoxebBeVrlp67kLMqmDJtx3XXpWskagfRXWbfms+DVzeDYCYCIgHO8Yj35msk/n
cZNaK+bljT1dLidLRssdBPMLjD8TqA3Uzego6CqcVcjj/52pIklu6OeIkjdXgGBE
GCdDWBgEbYbAZUcFV1VQkeZzUO4/EKmPBS/aaBFTbh+tmPN2PoXQV6PP5MEaTGQG
pkSrTh7iS9WkbXH4a8tmE6ZHHyEqoa5MiaR9KHcXT4iNsdFdscSTWr8ikmyrZ4Jo
7dchy2O8k8QXjocZJa0XVLR50qWTc7x8u+SAD4/MqgrQ5JN1qmzPSX117IIoXHPw
Qr+ephMu3mzugAOm7og2oBuygug9u6Ya1RGuCgti1lE2lyMXUibt8cW2IXU5FQfg
QvEqiQR3Zq0UBNLH1HxPbN1O3O2OqfaGF+fhWWa70HrQlELrr8FUyuIapKm2pdSB
yhUm+m+033gQBIxIGLwoWWaauBjx2V5bgv/+EdfUBDYwn1EdPMhkQHV82DWD77Hl
KHYKBT3puB5wUDpg4qUBiIicBMxq8hWF0Qy3Sm2TToLKKel1C0LkOkckCG2AXOZq
Zyy2EwjJT9hmU7m2f+LqOZVvcXeWA6+548zjobnxAcZuvvyXXLLR8Xv7M8Zl6uYY
+as6JxotIGvm
-----END CERTIFICATE-----

Certificate:
    Data:
        Version: 3 (0x2)
        Serial Number:
            46:bb:b3:40:fa:b9:c1:79:28:93:8c:93:da:10:86:79
    Signature Algorithm: sha1WithRSAEncryption
        Issuer: C=CN, O=WoSign CA Limited, CN=Certification Authority of WoSign
        Validity
            Not Before: Aug  8 01:00:05 2009 GMT
            Not After : Aug  8 01:00:05 2024 GMT
        Subject: C=CN, O=WoSign CA Limited, CN=WoSign Class 3 Code Signing CA
        Subject Public Key Info:
            Public Key Algorithm: rsaEncryption
                Public-Key: (2048 bit)
                Modulus:
                    00:d1:49:a4:48:63:b9:dd:28:60:6a:d9:17:0d:01:
                    c0:b2:58:86:4e:26:08:44:af:5f:37:84:25:44:45:
                    65:33:46:a3:8a:9f:f6:99:51:ce:d9:43:a4:7a:0e:
                    d6:f1:bf:91:24:ca:d4:24:11:01:5d:a3:3f:f3:d4:
                    9d:6f:d6:99:b1:89:ce:6a:c1:65:a1:f0:df:a3:3a:
                    93:90:80:21:2c:ba:2e:c1:67:31:1e:6b:55:38:85:
                    a8:50:47:6a:49:c4:a5:0b:0c:4b:39:35:8f:80:9d:
                    95:8c:e2:0d:63:55:6d:d6:8d:c4:3e:99:31:03:ea:
                    42:00:1c:b0:16:61:36:80:f5:df:65:3f:e2:9f:8e:
                    ec:3d:49:1b:36:e8:ea:93:d9:83:35:46:18:a5:a4:
                    16:5e:34:68:71:b7:61:5b:3a:5e:40:e2:7f:c8:e6:
                    05:85:8d:c6:db:21:ca:20:3e:2d:00:15:55:8a:7a:
                    ca:dc:90:0a:5a:92:06:90:06:d6:6c:04:2c:8c:d5:
                    9b:0e:b2:d4:a7:e3:30:bf:4e:b8:67:c1:69:c6:70:
                    34:46:6c:66:ab:f2:ff:5f:35:da:13:3f:79:19:19:
                    99:c2:3f:57:db:5a:40:fd:53:bd:08:63:d7:c9:79:
                    cf:d3:b4:a2:09:e0:3f:55:c1:2b:1b:9f:37:fb:e1:
                    b3:ad
                Exponent: 65537 (0x10001)
        X509v3 extensions:
            X509v3 Key Usage: critical
                Certificate Sign, CRL Sign
            X509v3 Extended Key Usage: 
                Code Signing, Microsoft Commercial Code Signing
            X509v3 Basic Constraints: critical
                CA:TRUE, pathlen:0
            X509v3 CRL Distribution Points: 

                Full Name:
                  URI:http://crls1.wosign.com/ca1.crl

            Authority Information Access: 
                OCSP - URI:http://ocsp1.wosign.com/ca1
                CA Issuers - URI:http://aia1.wosign.com/ca1-class3-code.cer

            X509v3 Subject Key Identifier: 
                F5:02:AA:4B:D3:E0:1A:8E:77:50:D6:1A:BB:EB:DF:B9:83:70:B0:4E
            X509v3 Authority Key Identifier: 
                keyid:E1:66:CF:0E:D1:F1:B3:4B:B7:06:20:14:FE:87:12:D5:F6:FE:FB:3E

            X509v3 Certificate Policies: 
                Policy: 1.3.6.1.4.1.36305.1.3.3
                  CPS: http://www.wosign.com/policy/

    Signature Algorithm: sha1WithRSAEncryption
         0e:93:a5:71:25:62:a2:82:62:7a:b5:79:ea:e1:ea:ac:ca:a5:
         8b:c7:a1:4c:dc:cc:ae:1c:e9:ea:2e:88:e2:51:e5:81:22:76:
         e9:f6:e0:66:41:c9:74:e4:de:66:7e:f9:52:99:12:fd:c5:9e:
         6a:85:a4:5d:c5:54:f2:22:1f:bc:78:61:20:c0:fe:1c:1b:24:
         ff:01:e3:dc:ad:13:79:cb:cc:3d:ae:f4:3f:6e:35:ca:cf:5d:
         c6:05:3e:43:1e:a7:8d:03:dd:6e:ab:cd:5c:6a:b8:15:50:85:
         da:b8:96:53:0f:55:7d:19:d9:a3:74:68:1a:84:d0:c2:58:09:
         d6:dd:6a:e7:85:a5:d4:ac:41:5e:de:fd:a6:ab:79:8e:24:ab:
         ed:39:6f:8f:5f:71:99:02:74:fc:42:7e:32:02:20:29:32:c2:
         90:06:c2:7e:d0:ab:06:50:17:c3:ac:fb:a6:b9:6b:be:ee:be:
         a4:1e:18:80:02:ed:44:9d:a2:c6:54:4d:ab:e1:b6:98:19:7e:
         e1:b4:ba:7c:2c:3c:47:19:cb:4a:f7:63:62:66:5e:57:09:a8:
         6c:1e:b8:4d:ec:53:94:d7:81:ff:0c:0b:ef:08:02:15:ae:d8:
         d4:9f:5c:39:87:d7:24:66:84:a0:d0:38:90:4a:4e:99:4d:93:
         60:76:f5:1a:e2:8e:46:5f:5b:12:97:b4:66:d7:7c:4f:42:16:
         23:e8:0a:ed:86:46:0f:6d:9a:e4:7b:af:37:dc:f3:80:54:4b:
         3b:22:dd:90:2c:07:bd:c0:97:f2:c3:ec:7f:7c:fb:be:46:99:
         36:6e:48:c7:81:e5:f2:8c:02:0d:c0:7c:3f:c5:43:9b:70:02:
         81:f5:b0:aa:7f:05:54:c0:c2:30:9c:c5:c2:57:f5:19:b1:90:
         bc:d9:9d:d6:26:08:d6:0c:0e:b2:68:d0:91:e3:e7:3e:27:48:
         37:47:5e:d3:51:b5:0e:59:59:c9:ba:a7:cb:84:6e:03:84:cf:
         ec:50:bb:ee:cd:75:6d:7c:3a:9b:9a:fb:15:18:90:b1:c4:a3:
         e1:98:19:77:08:96:fc:d5:48:c4:55:f7:d3:ac:20:58:ff:47:
         c3:d4:fc:7b:ae:64:18:55:ab:47:2d:84:e4:24:53:b0:00:f4:
         78:73:cb:cc:a6:22:20:2e:7f:f5:45:4d:0a:49:aa:6b:ae:6e:
         66:24:e2:c4:0a:7e:a4:2b:90:8e:90:62:1c:f5:8b:f1:45:28:
         f7:61:4a:cb:b4:8c:48:83:9e:ce:01:f3:a5:84:f4:d2:6a:fd:
         3a:25:68:f2:08:c5:cf:1c:8d:27:c0:36:db:17:13:6c:c1:da:
         21:40:35:f8:66:b3:23:27
-----BEGIN CERTIFICATE-----
MIIFpjCCA46gAwIBAgIQRruzQPq5wXkok4yT2hCGeTANBgkqhkiG9w0BAQUFADBV
MQswCQYDVQQGEwJDTjEaMBgGA1UEChMRV29TaWduIENBIExpbWl0ZWQxKjAoBgNV
BAMTIUNlcnRpZmljYXRpb24gQXV0aG9yaXR5IG9mIFdvU2lnbjAeFw0wOTA4MDgw
MTAwMDVaFw0yNDA4MDgwMTAwMDVaMFIxCzAJBgNVBAYTAkNOMRowGAYDVQQKExFX
b1NpZ24gQ0EgTGltaXRlZDEnMCUGA1UEAxMeV29TaWduIENsYXNzIDMgQ29kZSBT
aWduaW5nIENBMIIBIjANBgkqhkiG9w0BAQEFAAOCAQ8AMIIBCgKCAQEA0UmkSGO5
3ShgatkXDQHAsliGTiYIRK9fN4QlREVlM0ajip/2mVHO2UOkeg7W8b+RJMrUJBEB
XaM/89Sdb9aZsYnOasFlofDfozqTkIAhLLouwWcxHmtVOIWoUEdqScSlCwxLOTWP
gJ2VjOINY1Vt1o3EPpkxA+pCABywFmE2gPXfZT/in47sPUkbNujqk9mDNUYYpaQW
XjRocbdhWzpeQOJ/yOYFhY3G2yHKID4tABVVinrK3JAKWpIGkAbWbAQsjNWbDrLU
p+Mwv064Z8FpxnA0Rmxmq/L/XzXaEz95GRmZwj9X21pA/VO9CGPXyXnP07SiCeA/
VcErG583++GzrQIDAQABo4IBczCCAW8wDgYDVR0PAQH/BAQDAgEGMB8GA1UdJQQY
MBYGCCsGAQUFBwMDBgorBgEEAYI3AgEWMBIGA1UdEwEB/wQIMAYBAf8CAQAwMAYD
VR0fBCkwJzAloCOgIYYfaHR0cDovL2NybHMxLndvc2lnbi5jb20vY2ExLmNybDBv
BggrBgEFBQcBAQRjMGEwJwYIKwYBBQUHMAGGG2h0dHA6Ly9vY3NwMS53b3NpZ24u
Y29tL2NhMTA2BggrBgEFBQcwAoYqaHR0cDovL2FpYTEud29zaWduLmNvbS9jYTEt
Y2xhc3MzLWNvZGUuY2VyMB0GA1UdDgQWBBT1AqpL0+AajndQ1hq769+5g3CwTjAf
BgNVHSMEGDAWgBThZs8O0fGzS7cGIBT+hxLV9v77PjBFBgNVHSAEPjA8MDoGCysG
AQQBgptRAQMDMCswKQYIKwYBBQUHAgEWHWh0dHA6Ly93d3cud29zaWduLmNvbS9w
b2xpY3kvMA0GCSqGSIb3DQEBBQUAA4ICAQAOk6VxJWKigmJ6tXnq4eqsyqWLx6FM
3MyuHOnqLojiUeWBInbp9uBmQcl05N5mfvlSmRL9xZ5qhaRdxVTyIh+8eGEgwP4c
GyT/AePcrRN5y8w9rvQ/bjXKz13GBT5DHqeNA91uq81cargVUIXauJZTD1V9Gdmj
dGgahNDCWAnW3WrnhaXUrEFe3v2mq3mOJKvtOW+PX3GZAnT8Qn4yAiApMsKQBsJ+
0KsGUBfDrPumuWu+7r6kHhiAAu1EnaLGVE2r4baYGX7htLp8LDxHGctK92NiZl5X
CahsHrhN7FOU14H/DAvvCAIVrtjUn1w5h9ckZoSg0DiQSk6ZTZNgdvUa4o5GX1sS
l7Rm13xPQhYj6ArthkYPbZrke6833POAVEs7It2QLAe9wJfyw+x/fPu+Rpk2bkjH
geXyjAINwHw/xUObcAKB9bCqfwVUwMIwnMXCV/UZsZC82Z3WJgjWDA6yaNCR4+c+
J0g3R17TUbUOWVnJuqfLhG4DhM/sULvuzXVtfDqbmvsVGJCxxKPhmBl3CJb81UjE
VffTrCBY/0fD1Px7rmQYVatHLYTkJFOwAPR4c8vMpiIgLn/1RU0KSaprrm5mJOLE
Cn6kK5COkGIc9YvxRSj3YUrLtIxIg57OAfOlhPTSav06JWjyCMXPHI0nwDbbFxNs
wdohQDX4ZrMjJw==
-----END CERTIFICATE-----

Certificate:
    Data:
        Version: 3 (0x2)
        Serial Number:
            55:33:97:92:c7:54:53:cc:f6:5b:65:d3:f2:bb:00:79
    Signature Algorithm: sha1WithRSAEncryption
        Issuer: C=CN, O=WoSign CA Limited, CN=Certification Authority of WoSign
        Validity
            Not Before: Aug  8 01:00:05 2009 GMT
            Not After : Aug  8 01:00:05 2024 GMT
        Subject: C=CN, O=WoSign CA Limited, CN=WoSign Class 3 Code Signing CA
        Subject Public Key Info:
            Public Key Algorithm: rsaEncryption
                Public-Key: (2048 bit)
                Modulus:
                    00:d1:49:a4:48:63:b9:dd:28:60:6a:d9:17:0d:01:
                    c0:b2:58:86:4e:26:08:44:af:5f:37:84:25:44:45:
                    65:33:46:a3:8a:9f:f6:99:51:ce:d9:43:a4:7a:0e:
                    d6:f1:bf:91:24:ca:d4:24:11:01:5d:a3:3f:f3:d4:
                    9d:6f:d6:99:b1:89:ce:6a:c1:65:a1:f0:df:a3:3a:
                    93:90:80:21:2c:ba:2e:c1:67:31:1e:6b:55:38:85:
                    a8:50:47:6a:49:c4:a5:0b:0c:4b:39:35:8f:80:9d:
                    95:8c:e2:0d:63:55:6d:d6:8d:c4:3e:99:31:03:ea:
                    42:00:1c:b0:16:61:36:80:f5:df:65:3f:e2:9f:8e:
                    ec:3d:49:1b:36:e8:ea:93:d9:83:35:46:18:a5:a4:
                    16:5e:34:68:71:b7:61:5b:3a:5e:40:e2:7f:c8:e6:
                    05:85:8d:c6:db:21:ca:20:3e:2d:00:15:55:8a:7a:
                    ca:dc:90:0a:5a:92:06:90:06:d6:6c:04:2c:8c:d5:
                    9b:0e:b2:d4:a7:e3:30:bf:4e:b8:67:c1:69:c6:70:
                    34:46:6c:66:ab:f2:ff:5f:35:da:13:3f:79:19:19:
                    99:c2:3f:57:db:5a:40:fd:53:bd:08:63:d7:c9:79:
                    cf:d3:b4:a2:09:e0:3f:55:c1:2b:1b:9f:37:fb:e1:
                    b3:ad
                Exponent: 65537 (0x10001)
        X509v3 extensions:
            X509v3 Key Usage: critical
                Certificate Sign, CRL Sign
            X509v3 Extended Key Usage: 
                TLS Web Client Authentication, Code Signing, Microsoft Commercial Code Signing
            X509v3 Basic Constraints: critical
                CA:TRUE, pathlen:0
            X509v3 CRL Distribution Points: 

                Full Name:
                  URI:http://crls1.wosign.com/ca1.crl

            Authority Information Access: 
                OCSP - URI:http://ocsp1.wosign.com/ca1
                CA Issuers - URI:http://aia1.wosign.com/ca1-class3-code.cer

            X509v3 Subject Key Identifier: 
                F5:02:AA:4B:D3:E0:1A:8E:77:50:D6:1A:BB:EB:DF:B9:83:70:B0:4E
            X509v3 Authority Key Identifier: 
                keyid:E1:66:CF:0E:D1:F1:B3:4B:B7:06:20:14:FE:87:12:D5:F6:FE:FB:3E

            X509v3 Certificate Policies: 
                Policy: 1.3.6.1.4.1.36305.1.3.3
                  CPS: http://www.wosign.com/policy/

    Signature Algorithm: sha1WithRSAEncryption
         96:e3:ae:be:61:ab:1e:c9:c2:f4:08:a1:67:81:41:59:d5:5a:
         47:31:a3:d0:f0:f7:04:b3:93:3b:22:10:ad:03:f2:44:a1:01:
         69:d0:3b:0d:ef:12:90:77:a2:97:8b:49:2f:e8:d5:80:1a:2f:
         39:c2:41:58:41:be:ff:74:9e:c7:9b:f3:0d:46:8b:23:21:bd:
         27:f7:68:2f:64:79:b3:8c:0e:80:15:15:41:e5:21:27:6c:4a:
         4d:d1:63:94:10:f7:8c:cf:a6:0e:c5:a1:df:75:f9:b5:d8:5c:
         20:6a:87:2d:cf:1e:ca:f5:56:da:53:29:a5:f9:2c:05:19:b5:
         39:f1:e2:b1:b1:f9:9e:8b:46:69:7c:dd:da:25:71:f8:04:df:
         4a:57:a8:7d:96:69:6d:7a:2b:9d:73:08:b9:2b:03:d1:65:92:
         e8:db:c9:55:53:cf:c0:2e:05:67:f7:8f:35:8b:98:e2:78:6b:
         4e:ac:fc:7c:6e:27:70:7e:04:bc:85:83:ed:c6:a9:38:a2:5b:
         71:74:b8:b8:c7:0a:f3:f0:1b:0f:09:68:13:17:1e:46:8e:60:
         b7:6b:01:01:b4:a4:fc:ef:4e:65:97:9c:0e:86:a9:a7:0b:d1:
         51:b3:8c:a9:6c:c1:f6:2a:da:65:e0:dc:59:a7:de:6c:ec:55:
         6c:61:60:97:3b:b4:72:35:b9:92:07:40:bc:d0:04:a7:70:c9:
         74:ba:0f:60:fa:c1:78:45:06:ee:5d:4a:e2:ca:7e:3e:08:47:
         70:17:a4:a1:e8:6c:f2:cf:6f:78:80:f8:50:7c:3d:bb:1e:d6:
         f2:db:d3:44:b5:2d:1d:5b:e6:7a:88:e6:21:88:07:82:2c:74:
         72:8d:3f:e0:26:d5:ff:b1:c3:33:4e:6d:bb:2a:fe:4e:e5:dd:
         ea:8f:8a:17:49:8b:89:4d:54:9f:97:bb:42:15:ea:40:ad:be:
         c6:22:87:72:bc:f5:d5:2f:b9:14:48:14:bf:e2:42:5b:29:1f:
         46:34:87:51:a7:44:b3:b4:2f:c5:15:30:4c:20:d5:12:59:c9:
         6e:54:81:78:05:18:65:ac:fc:ac:9c:05:7f:b0:f3:b8:00:b0:
         e3:55:af:a2:8b:e3:99:08:65:77:09:ef:d6:6f:b2:1c:a6:64:
         96:9d:d0:1e:5c:a4:01:b8:6f:01:ea:b4:57:75:4f:9e:30:14:
         c5:4c:e2:12:c4:67:d1:64:61:72:d7:f7:f0:3f:26:b3:1f:eb:
         78:86:4b:a7:c4:fd:05:9b:4e:2e:d7:17:d0:bb:76:36:24:4f:
         14:0f:9e:12:fc:4b:c9:83:bc:1d:d8:08:47:15:c5:60:10:e3:
         cd:e3:6b:dc:0c:70:5c:4f
-----BEGIN CERTIFICATE-----
MIIFsDCCA5igAwIBAgIQVTOXksdUU8z2W2XT8rsAeTANBgkqhkiG9w0BAQUFADBV
MQswCQYDVQQGEwJDTjEaMBgGA1UEChMRV29TaWduIENBIExpbWl0ZWQxKjAoBgNV
BAMTIUNlcnRpZmljYXRpb24gQXV0aG9yaXR5IG9mIFdvU2lnbjAeFw0wOTA4MDgw
MTAwMDVaFw0yNDA4MDgwMTAwMDVaMFIxCzAJBgNVBAYTAkNOMRowGAYDVQQKExFX
b1NpZ24gQ0EgTGltaXRlZDEnMCUGA1UEAxMeV29TaWduIENsYXNzIDMgQ29kZSBT
aWduaW5nIENBMIIBIjANBgkqhkiG9w0BAQEFAAOCAQ8AMIIBCgKCAQEA0UmkSGO5
3ShgatkXDQHAsliGTiYIRK9fN4QlREVlM0ajip/2mVHO2UOkeg7W8b+RJMrUJBEB
XaM/89Sdb9aZsYnOasFlofDfozqTkIAhLLouwWcxHmtVOIWoUEdqScSlCwxLOTWP
gJ2VjOINY1Vt1o3EPpkxA+pCABywFmE2gPXfZT/in47sPUkbNujqk9mDNUYYpaQW
XjRocbdhWzpeQOJ/yOYFhY3G2yHKID4tABVVinrK3JAKWpIGkAbWbAQsjNWbDrLU
p+Mwv064Z8FpxnA0Rmxmq/L/XzXaEz95GRmZwj9X21pA/VO9CGPXyXnP07SiCeA/
VcErG583++GzrQIDAQABo4IBfTCCAXkwDgYDVR0PAQH/BAQDAgEGMCkGA1UdJQQi
MCAGCCsGAQUFBwMCBggrBgEFBQcDAwYKKwYBBAGCNwIBFjASBgNVHRMBAf8ECDAG
AQH/AgEAMDAGA1UdHwQpMCcwJaAjoCGGH2h0dHA6Ly9jcmxzMS53b3NpZ24uY29t
L2NhMS5jcmwwbwYIKwYBBQUHAQEEYzBhMCcGCCsGAQUFBzABhhtodHRwOi8vb2Nz
cDEud29zaWduLmNvbS9jYTEwNgYIKwYBBQUHMAKGKmh0dHA6Ly9haWExLndvc2ln
bi5jb20vY2ExLWNsYXNzMy1jb2RlLmNlcjAdBgNVHQ4EFgQU9QKqS9PgGo53UNYa
u+vfuYNwsE4wHwYDVR0jBBgwFoAU4WbPDtHxs0u3BiAU/ocS1fb++z4wRQYDVR0g
BD4wPDA6BgsrBgEEAYKbUQEDAzArMCkGCCsGAQUFBwIBFh1odHRwOi8vd3d3Lndv
c2lnbi5jb20vcG9saWN5LzANBgkqhkiG9w0BAQUFAAOCAgEAluOuvmGrHsnC9Aih
Z4FBWdVaRzGj0PD3BLOTOyIQrQPyRKEBadA7De8SkHeil4tJL+jVgBovOcJBWEG+
/3Sex5vzDUaLIyG9J/doL2R5s4wOgBUVQeUhJ2xKTdFjlBD3jM+mDsWh33X5tdhc
IGqHLc8eyvVW2lMppfksBRm1OfHisbH5notGaXzd2iVx+ATfSleofZZpbXornXMI
uSsD0WWS6NvJVVPPwC4FZ/ePNYuY4nhrTqz8fG4ncH4EvIWD7capOKJbcXS4uMcK
8/AbDwloExceRo5gt2sBAbSk/O9OZZecDoappwvRUbOMqWzB9iraZeDcWafebOxV
bGFglzu0cjW5kgdAvNAEp3DJdLoPYPrBeEUG7l1K4sp+PghHcBekoehs8s9veID4
UHw9ux7W8tvTRLUtHVvmeojmIYgHgix0co0/4CbV/7HDM05tuyr+TuXd6o+KF0mL
iU1Un5e7QhXqQK2+xiKHcrz11S+5FEgUv+JCWykfRjSHUadEs7QvxRUwTCDVElnJ
blSBeAUYZaz8rJwFf7DzuACw41WvoovjmQhldwnv1m+yHKZklp3QHlykAbhvAeq0
V3VPnjAUxUziEsRn0WRhctf38D8msx/reIZLp8T9BZtOLtcX0Lt2NiRPFA+eEvxL
yYO8HdgIRxXFYBDjzeNr3AxwXE8=
-----END CERTIFICATE-----

