Certificate:
    Data:
        Version: 1 (0x0)
        Serial Number:
            3c:91:31:cb:1f:f6:d0:1b:0e:9a:b8:d0:44:bf:12:be
    Signature Algorithm: sha1WithRSAEncryption
        Issuer: C=US, O=VeriSign, Inc., OU=Class 3 Public Primary Certification Authority
        Validity
            Not Before: Jan 29 00:00:00 1996 GMT
            Not After : Aug  2 23:59:59 2028 GMT
        Subject: C=US, O=VeriSign, Inc., OU=Class 3 Public Primary Certification Authority
        Subject Public Key Info:
            Public Key Algorithm: rsaEncryption
                Public-Key: (1024 bit)
                Modulus:
                    00:c9:5c:59:9e:f2:1b:8a:01:14:b4:10:df:04:40:
                    db:e3:57:af:6a:45:40:8f:84:0c:0b:d1:33:d9:d9:
                    11:cf:ee:02:58:1f:25:f7:2a:a8:44:05:aa:ec:03:
                    1f:78:7f:9e:93:b9:9a:00:aa:23:7d:d6:ac:85:a2:
                    63:45:c7:72:27:cc:f4:4c:c6:75:71:d2:39:ef:4f:
                    42:f0:75:df:0a:90:c6:8e:20:6f:98:0f:f8:ac:23:
                    5f:70:29:36:a4:c9:86:e7:b1:9a:20:cb:53:a5:85:
                    e7:3d:be:7d:9a:fe:24:45:33:dc:76:15:ed:0f:a2:
                    71:64:4c:65:2e:81:68:45:a7
                Exponent: 65537 (0x10001)
    Signature Algorithm: sha1WithRSAEncryption
         10:72:52:a9:05:14:19:32:08:41:f0:c5:6b:0a:cc:7e:0f:21:
         19:cd:e4:67:dc:5f:a9:1b:e6:ca:e8:73:9d:22:d8:98:6e:73:
         03:61:91:c5:7c:b0:45:40:6e:44:9d:8d:b0:b1:96:74:61:2d:
         0d:a9:45:d2:a4:92:2a:d6:9a:75:97:6e:3f:53:fd:45:99:60:
         1d:a8:2b:4c:f9:5e:a7:09:d8:75:30:d7:d2:65:60:3d:67:d6:
         48:55:75:69:3f:91:f5:48:0b:47:69:22:69:82:96:be:c9:c8:
         38:86:4a:7a:2c:73:19:48:69:4e:6b:7c:65:bf:0f:fc:70:ce:
         88:90
-----BEGIN CERTIFICATE-----
MIICPDCCAaUCEDyRMcsf9tAbDpq40ES/Er4wDQYJKoZIhvcNAQEFBQAwXzELMAkG
A1UEBhMCVVMxFzAVBgNVBAoTDlZlcmlTaWduLCBJbmMuMTcwNQYDVQQLEy5DbGFz
cyAzIFB1YmxpYyBQcmltYXJ5IENlcnRpZmljYXRpb24gQXV0aG9yaXR5MB4XDTk2
MDEyOTAwMDAwMFoXDTI4MDgwMjIzNTk1OVowXzELMAkGA1UEBhMCVVMxFzAVBgNV
BAoTDlZlcmlTaWduLCBJbmMuMTcwNQYDVQQLEy5DbGFzcyAzIFB1YmxpYyBQcmlt
YXJ5IENlcnRpZmljYXRpb24gQXV0aG9yaXR5MIGfMA0GCSqGSIb3DQEBAQUAA4GN
ADCBiQKBgQDJXFme8huKARS0EN8EQNvjV69qRUCPhAwL0TPZ2RHP7gJYHyX3KqhE
BarsAx94f56TuZoAqiN91qyFomNFx3InzPRMxnVx0jnvT0Lwdd8KkMaOIG+YD/is
I19wKTakyYbnsZogy1Olhec9vn2a/iRFM9x2Fe0PonFkTGUugWhFpwIDAQABMA0G
CSqGSIb3DQEBBQUAA4GBABByUqkFFBkyCEHwxWsKzH4PIRnN5GfcX6kb5sroc50i
2JhucwNhkcV8sEVAbkSdjbCxlnRhLQ2pRdKkkirWmnWXbj9T/UWZYB2oK0z5XqcJ
2HUw19JlYD1n1khVdWk/kfVIC0dpImmClr7JyDiGSnoscxlIaU5rfGW/D/xwzoiQ
-----END CERTIFICATE-----

Certificate:
    Data:
        Version: 3 (0x2)
        Serial Number:
            38:25:d7:fa:f8:61:af:9e:f4:90:e7:26:b5:d6:5a:d5
    Signature Algorithm: sha1WithRSAEncryption
        Issuer: C=US, O=VeriSign, Inc., CN=VeriSign Time Stamping Services CA
        Validity
            Not Before: Jun 15 00:00:00 2007 GMT
            Not After : Jun 14 23:59:59 2012 GMT
        Subject: C=US, O=VeriSign, Inc., CN=VeriSign Time Stamping Services Signer - G2
        Subject Public Key Info:
            Public Key Algorithm: rsaEncryption
                Public-Key: (1024 bit)
                Modulus:
                    00:c4:b5:f2:52:15:bc:88:86:60:29:16:4a:5b:2f:
                    4b:91:6b:87:91:f3:35:54:58:35:ea:d1:36:5e:62:
                    4d:52:51:34:71:c2:7b:66:1d:89:c8:dd:2a:c4:6a:
                    0a:f6:37:d9:98:74:91:f6:92:ae:b0:b5:76:96:f1:
                    a9:4a:63:45:47:2e:6b:0b:92:4e:4b:2b:8c:ee:58:
                    4a:8b:d4:07:e4:1a:2c:f8:82:aa:58:d9:cd:42:f3:
                    2d:c0:75:de:8d:ab:c7:8e:1d:9a:6c:4c:08:95:1e:
                    de:db:ef:67:e1:72:c2:49:c2:9e:60:3c:e1:e2:be:
                    16:a3:63:78:69:14:7b:ad:2d
                Exponent: 65537 (0x10001)
        X509v3 extensions:
            Authority Information Access: 
                OCSP - URI:http://ocsp.verisign.com

            X509v3 Basic Constraints: critical
                CA:FALSE
            X509v3 CRL Distribution Points: 

                Full Name:
                  URI:http://crl.verisign.com/tss-ca.crl

            X509v3 Extended Key Usage: critical
                Time Stamping
            X509v3 Key Usage: critical
                Digital Signature, Non Repudiation
            X509v3 Subject Alternative Name: 
                DirName:/CN=TSA1-2
    Signature Algorithm: sha1WithRSAEncryption
         50:c5:4b:c8:24:80:df:e4:0d:24:c2:de:1a:b1:a1:02:a1:a6:
         82:2d:0c:83:15:81:37:0a:82:0e:2c:b0:5a:17:61:b5:d8:05:
         fe:88:db:f1:91:91:b3:56:1a:40:a6:eb:92:be:38:39:b0:75:
         36:74:3a:98:4f:e4:37:ba:99:89:ca:95:42:1d:b0:b9:c7:a0:
         8d:57:e0:fa:d5:64:04:42:35:4e:01:d1:33:a2:17:c8:4d:aa:
         27:c7:f2:e1:86:4c:02:38:4d:83:78:c6:fc:53:e0:eb:e0:06:
         87:dd:a4:96:9e:5e:0c:98:e2:a5:be:bf:82:85:c3:60:e1:df:
         ad:28:d8:c7:a5:4b:64:da:c7:1b:5b:bd:ac:39:08:d5:38:22:
         a1:33:8b:2f:8a:9a:eb:bc:07:21:3f:44:41:09:07:b5:65:1c:
         24:bc:48:d3:44:80:eb:a1:cf:c9:02:b4:14:cf:54:c7:16:a3:
         80:5c:f9:79:3e:5d:72:7d:88:17:9e:2c:43:a2:ca:53:ce:7d:
         3d:f6:2a:3a:b8:4f:94:00:a5:6d:0a:83:5d:f9:5e:53:f4:18:
         b3:57:0f:70:c3:fb:f5:ad:95:a0:0e:17:de:c4:16:80:60:c9:
         0f:2b:6e:86:04:f1:eb:f4:78:27:d1:05:c5:ee:34:5b:5e:b9:
         49:32:f2:33
-----BEGIN CERTIFICATE-----
MIIDejCCAmKgAwIBAgIQOCXX+vhhr570kOcmtdZa1TANBgkqhkiG9w0BAQUFADBT
MQswCQYDVQQGEwJVUzEXMBUGA1UEChMOVmVyaVNpZ24sIEluYy4xKzApBgNVBAMT
IlZlcmlTaWduIFRpbWUgU3RhbXBpbmcgU2VydmljZXMgQ0EwHhcNMDcwNjE1MDAw
MDAwWhcNMTIwNjE0MjM1OTU5WjBcMQswCQYDVQQGEwJVUzEXMBUGA1UEChMOVmVy
aVNpZ24sIEluYy4xNDAyBgNVBAMTK1ZlcmlTaWduIFRpbWUgU3RhbXBpbmcgU2Vy
dmljZXMgU2lnbmVyIC0gRzIwgZ8wDQYJKoZIhvcNAQEBBQADgY0AMIGJAoGBAMS1
8lIVvIiGYCkWSlsvS5Frh5HzNVRYNerRNl5iTVJRNHHCe2YdicjdKsRqCvY32Zh0
kfaSrrC1dpbxqUpjRUcuawuSTksrjO5YSovUB+QaLPiCqljZzULzLcB13o2rx44d
mmxMCJUe3tvvZ+FywknCnmA84eK+FqNjeGkUe60tAgMBAAGjgcQwgcEwNAYIKwYB
BQUHAQEEKDAmMCQGCCsGAQUFBzABhhhodHRwOi8vb2NzcC52ZXJpc2lnbi5jb20w
DAYDVR0TAQH/BAIwADAzBgNVHR8ELDAqMCigJqAkhiJodHRwOi8vY3JsLnZlcmlz
aWduLmNvbS90c3MtY2EuY3JsMBYGA1UdJQEB/wQMMAoGCCsGAQUFBwMIMA4GA1Ud
DwEB/wQEAwIGwDAeBgNVHREEFzAVpBMwETEPMA0GA1UEAxMGVFNBMS0yMA0GCSqG
SIb3DQEBBQUAA4IBAQBQxUvIJIDf5A0kwt4asaECoaaCLQyDFYE3CoIOLLBaF2G1
2AX+iNvxkZGzVhpApuuSvjg5sHU2dDqYT+Q3upmJypVCHbC5x6CNV+D61WQEQjVO
AdEzohfITaonx/LhhkwCOE2DeMb8U+Dr4AaH3aSWnl4MmOKlvr+ChcNg4d+tKNjH
pUtk2scbW72sOQjVOCKhM4sviprrvAchP0RBCQe1ZRwkvEjTRIDroc/JArQUz1TH
FqOAXPl5Pl1yfYgXnixDospTzn099io6uE+UAKVtCoNd+V5T9BizVw9ww/v1rZWg
DhfexBaAYMkPK26GBPHr9Hgn0QXF7jRbXrlJMvIz
-----END CERTIFICATE-----

Certificate:
    Data:
        Version: 3 (0x2)
        Serial Number:
            47:bf:19:95:df:8d:52:46:43:f7:db:6d:48:0d:31:a4
    Signature Algorithm: sha1WithRSAEncryption
        Issuer: C=ZA, ST=Western Cape, L=Durbanville, O=Thawte, OU=Thawte Certification, CN=Thawte Timestamping CA
        Validity
            Not Before: Dec  4 00:00:00 2003 GMT
            Not After : Dec  3 23:59:59 2013 GMT
        Subject: C=US, O=VeriSign, Inc., CN=VeriSign Time Stamping Services CA
        Subject Public Key Info:
            Public Key Algorithm: rsaEncryption
                Public-Key: (2048 bit)
                Modulus:
                    00:a9:ca:b2:a4:cc:cd:20:af:0a:7d:89:ac:87:75:
                    f0:b4:4e:f1:df:c1:0f:bf:67:61:bd:a3:64:1c:da:
                    bb:f9:ca:33:ab:84:30:89:58:7e:8c:db:6b:dd:36:
                    9e:0f:bf:d1:ec:78:f2:77:a6:7e:6f:3c:bf:93:af:
                    0d:ba:68:f4:6c:94:ca:bd:52:2d:ab:48:3d:f5:b6:
                    d5:5d:5f:1b:02:9f:fa:2f:6b:1e:a4:f7:a3:9a:a6:
                    1a:c8:02:e1:7f:4c:52:e3:0e:60:ec:40:1c:7e:b9:
                    0d:de:3f:c7:b4:df:87:bd:5f:7a:6a:31:2e:03:99:
                    81:13:a8:47:20:ce:31:73:0d:57:2d:cd:78:34:33:
                    95:12:99:12:b9:de:68:2f:aa:e6:e3:c2:8a:8c:2a:
                    c3:8b:21:87:66:bd:83:58:57:6f:75:bf:3c:aa:26:
                    87:5d:ca:10:15:3c:9f:84:ea:54:c1:0a:6e:c4:fe:
                    c5:4a:dd:b9:07:11:97:22:7c:db:3e:27:d1:1e:78:
                    ec:9f:31:c9:f1:e6:22:19:db:c4:b3:47:43:9a:1a:
                    5f:a0:1e:90:e4:5e:f5:ee:7c:f1:7d:ab:62:01:8f:
                    f5:4d:0b:de:d0:22:56:a8:95:cd:ae:88:76:ae:ee:
                    ba:0d:f3:e4:4d:d9:a0:fb:68:a0:ae:14:3b:b3:87:
                    c1:bb
                Exponent: 65537 (0x10001)
        X509v3 extensions:
            Authority Information Access: 
                OCSP - URI:http://ocsp.verisign.com

            X509v3 Basic Constraints: critical
                CA:TRUE, pathlen:0
            X509v3 CRL Distribution Points: 

                Full Name:
                  URI:http://crl.verisign.com/ThawteTimestampingCA.crl

            X509v3 Extended Key Usage: 
                Time Stamping
            X509v3 Key Usage: critical
                Certificate Sign, CRL Sign
            X509v3 Subject Alternative Name: 
                DirName:/CN=TSA2048-1-53
    Signature Algorithm: sha1WithRSAEncryption
         4a:6b:f9:ea:58:c2:44:1c:31:89:79:99:2b:96:bf:82:ac:01:
         d6:1c:4c:cd:b0:8a:58:6e:df:08:29:a3:5e:c8:ca:93:13:e7:
         04:52:0d:ef:47:27:2f:00:38:b0:e4:c9:93:4e:9a:d4:22:62:
         15:f7:3f:37:21:4f:70:31:80:f1:8b:38:87:b3:e8:e8:97:00:
         fe:cf:55:96:4e:24:d2:a9:27:4e:7a:ae:b7:61:41:f3:2a:ce:
         e7:c9:d9:5e:dd:bb:2b:85:3e:b5:9d:b5:d9:e1:57:ff:be:b4:
         c5:7e:f5:cf:0c:9e:f0:97:fe:2b:d3:3b:52:1b:1b:38:27:f7:
         3f:4a
-----BEGIN CERTIFICATE-----
MIIDxDCCAy2gAwIBAgIQR78Zld+NUkZD99ttSA0xpDANBgkqhkiG9w0BAQUFADCB
izELMAkGA1UEBhMCWkExFTATBgNVBAgTDFdlc3Rlcm4gQ2FwZTEUMBIGA1UEBxML
RHVyYmFudmlsbGUxDzANBgNVBAoTBlRoYXd0ZTEdMBsGA1UECxMUVGhhd3RlIENl
cnRpZmljYXRpb24xHzAdBgNVBAMTFlRoYXd0ZSBUaW1lc3RhbXBpbmcgQ0EwHhcN
MDMxMjA0MDAwMDAwWhcNMTMxMjAzMjM1OTU5WjBTMQswCQYDVQQGEwJVUzEXMBUG
A1UEChMOVmVyaVNpZ24sIEluYy4xKzApBgNVBAMTIlZlcmlTaWduIFRpbWUgU3Rh
bXBpbmcgU2VydmljZXMgQ0EwggEiMA0GCSqGSIb3DQEBAQUAA4IBDwAwggEKAoIB
AQCpyrKkzM0grwp9iayHdfC0TvHfwQ+/Z2G9o2Qc2rv5yjOrhDCJWH6M22vdNp4P
v9HsePJ3pn5vPL+Trw26aPRslMq9Ui2rSD31ttVdXxsCn/ovax6k96OaphrIAuF/
TFLjDmDsQBx+uQ3eP8e034e9X3pqMS4DmYETqEcgzjFzDVctzXg0M5USmRK53mgv
qubjwoqMKsOLIYdmvYNYV291vzyqJoddyhAVPJ+E6lTBCm7E/sVK3bkHEZcifNs+
J9EeeOyfMcnx5iIZ28SzR0OaGl+gHpDkXvXufPF9q2IBj/VNC97QIlaolc2uiHau
7roN8+RN2aD7aKCuFDuzh8G7AgMBAAGjgdswgdgwNAYIKwYBBQUHAQEEKDAmMCQG
CCsGAQUFBzABhhhodHRwOi8vb2NzcC52ZXJpc2lnbi5jb20wEgYDVR0TAQH/BAgw
BgEB/wIBADBBBgNVHR8EOjA4MDagNKAyhjBodHRwOi8vY3JsLnZlcmlzaWduLmNv
bS9UaGF3dGVUaW1lc3RhbXBpbmdDQS5jcmwwEwYDVR0lBAwwCgYIKwYBBQUHAwgw
DgYDVR0PAQH/BAQDAgEGMCQGA1UdEQQdMBukGTAXMRUwEwYDVQQDEwxUU0EyMDQ4
LTEtNTMwDQYJKoZIhvcNAQEFBQADgYEASmv56ljCRBwxiXmZK5a/gqwB1hxMzbCK
WG7fCCmjXsjKkxPnBFIN70cnLwA4sOTJk06a1CJiFfc/NyFPcDGA8Ys4h7Po6JcA
/s9Vlk4k0qknTnqut2FB8yrO58nZXt27K4U+tZ212eFX/760xX71zwye8Jf+K9M7
UhsbOCf3P0o=
-----END CERTIFICATE-----

Certificate:
    Data:
        Version: 3 (0x2)
        Serial Number:
            42:ab:dc:23:7d:1b:a3:16:64:ba:4e:7b:05:f2:36:52
    Signature Algorithm: sha1WithRSAEncryption
        Issuer: C=US, O=VeriSign, Inc., OU=VeriSign Trust Network, OU=Terms of use at https://www.verisign.com/rpa (c)09, CN=VeriSign Class 3 Code Signing 2009-2 CA
        Validity
            Not Before: Jul 10 00:00:00 2009 GMT
            Not After : Aug 15 23:59:59 2012 GMT
        Subject: C=AU, ST=Victoria, L=Melbourne, O=PC Tools, OU=Digital ID Class 3 - Microsoft Software Validation v2, OU=Software, CN=PC Tools
        Subject Public Key Info:
            Public Key Algorithm: rsaEncryption
                Public-Key: (1024 bit)
                Modulus:
                    00:ce:27:78:cb:65:74:94:09:40:bb:19:9f:8a:ce:
                    ab:db:ae:eb:00:1b:07:c0:f1:57:97:6e:b1:d6:90:
                    67:ca:e5:86:d9:3c:d6:58:87:09:11:fd:a1:40:a6:
                    05:30:fb:88:53:84:88:93:78:c7:9c:ea:4c:fd:ac:
                    2f:0b:8e:93:cf:d3:4f:6e:1a:1f:6f:91:0a:7f:33:
                    60:08:6b:27:a6:14:2e:cf:d2:cd:ab:6f:dc:7a:c2:
                    8b:9e:75:0f:81:08:a7:47:99:c0:99:cd:26:63:3c:
                    ee:31:ec:23:72:bf:d7:89:90:35:ad:bf:2d:bb:03:
                    df:6b:42:60:c9:86:e7:4a:df
                Exponent: 65537 (0x10001)
        X509v3 extensions:
            X509v3 Basic Constraints: 
                CA:FALSE
            X509v3 Key Usage: critical
                Digital Signature
            X509v3 CRL Distribution Points: 

                Full Name:
                  URI:http://csc3-2009-2-crl.verisign.com/CSC3-2009-2.crl

            X509v3 Certificate Policies: 
                Policy: 2.16.840.1.113733.1.7.23.3
                  CPS: https://www.verisign.com/rpa

            X509v3 Extended Key Usage: 
                Code Signing
            Authority Information Access: 
                OCSP - URI:http://ocsp.verisign.com
                CA Issuers - URI:http://csc3-2009-2-aia.verisign.com/CSC3-2009-2.cer

            X509v3 Authority Key Identifier: 
                keyid:97:D0:6B:A8:26:70:C8:A1:3F:94:1F:08:2D:C4:35:9B:A4:A1:1E:F2

            Netscape Cert Type: 
                Object Signing
            1.3.6.1.4.1.311.2.1.27: 
                0.......
    Signature Algorithm: sha1WithRSAEncryption
         7e:14:45:13:44:5f:7b:ab:97:e8:d5:ed:d6:f5:a6:a1:7e:52:
         e9:ca:d0:d0:d8:0c:1c:e4:c2:7b:16:d0:a8:11:f0:13:39:b5:
         88:27:02:ad:64:06:8b:f5:4a:85:e5:86:2f:db:ba:b0:59:d0:
         b8:87:38:7a:56:fc:00:6f:cc:5d:c5:65:34:01:2a:16:04:65:
         e8:42:9c:db:ef:4c:c8:a8:4f:9f:cc:09:ae:2d:b6:85:a7:e4:
         d3:26:5b:fd:18:87:a0:05:2f:61:87:cf:ac:da:9c:16:4d:09:
         44:5b:cc:a2:d5:54:bd:cb:1f:c9:d9:a1:6e:58:79:ad:4d:64:
         a0:d2:77:73:c5:45:43:ce:6f:26:db:43:ff:1d:e4:7b:1b:c8:
         5b:d8:e8:10:d5:f6:fd:54:f4:16:fc:41:4c:dd:ed:4e:04:2f:
         70:30:a3:8e:54:93:bf:82:58:0e:58:c2:67:58:81:8e:ac:84:
         dc:d7:c1:ca:6c:7c:25:5e:13:80:e7:26:a2:9f:92:3f:d7:f5:
         ad:38:e4:73:8d:3e:cc:d9:c3:2e:ad:a6:d7:40:eb:e0:aa:6e:
         90:1d:ba:be:07:56:fd:17:5b:0e:9e:b8:6f:85:63:00:e0:d0:
         0f:16:76:a1:72:97:ac:f5:4e:c4:bb:b9:00:ef:b3:2f:da:1b:
         d4:81:59:bd
-----BEGIN CERTIFICATE-----
MIIE8DCCA9igAwIBAgIQQqvcI30boxZkuk57BfI2UjANBgkqhkiG9w0BAQUFADCB
tjELMAkGA1UEBhMCVVMxFzAVBgNVBAoTDlZlcmlTaWduLCBJbmMuMR8wHQYDVQQL
ExZWZXJpU2lnbiBUcnVzdCBOZXR3b3JrMTswOQYDVQQLEzJUZXJtcyBvZiB1c2Ug
YXQgaHR0cHM6Ly93d3cudmVyaXNpZ24uY29tL3JwYSAoYykwOTEwMC4GA1UEAxMn
VmVyaVNpZ24gQ2xhc3MgMyBDb2RlIFNpZ25pbmcgMjAwOS0yIENBMB4XDTA5MDcx
MDAwMDAwMFoXDTEyMDgxNTIzNTk1OVowga0xCzAJBgNVBAYTAkFVMREwDwYDVQQI
EwhWaWN0b3JpYTESMBAGA1UEBxMJTWVsYm91cm5lMREwDwYDVQQKFAhQQyBUb29s
czE+MDwGA1UECxM1RGlnaXRhbCBJRCBDbGFzcyAzIC0gTWljcm9zb2Z0IFNvZnR3
YXJlIFZhbGlkYXRpb24gdjIxETAPBgNVBAsUCFNvZnR3YXJlMREwDwYDVQQDFAhQ
QyBUb29sczCBnzANBgkqhkiG9w0BAQEFAAOBjQAwgYkCgYEAzid4y2V0lAlAuxmf
is6r267rABsHwPFXl26x1pBnyuWG2TzWWIcJEf2hQKYFMPuIU4SIk3jHnOpM/awv
C46Tz9NPbhofb5EKfzNgCGsnphQuz9LNq2/cesKLnnUPgQinR5nAmc0mYzzuMewj
cr/XiZA1rb8tuwPfa0JgyYbnSt8CAwEAAaOCAYMwggF/MAkGA1UdEwQCMAAwDgYD
VR0PAQH/BAQDAgeAMEQGA1UdHwQ9MDswOaA3oDWGM2h0dHA6Ly9jc2MzLTIwMDkt
Mi1jcmwudmVyaXNpZ24uY29tL0NTQzMtMjAwOS0yLmNybDBEBgNVHSAEPTA7MDkG
C2CGSAGG+EUBBxcDMCowKAYIKwYBBQUHAgEWHGh0dHBzOi8vd3d3LnZlcmlzaWdu
LmNvbS9ycGEwEwYDVR0lBAwwCgYIKwYBBQUHAwMwdQYIKwYBBQUHAQEEaTBnMCQG
CCsGAQUFBzABhhhodHRwOi8vb2NzcC52ZXJpc2lnbi5jb20wPwYIKwYBBQUHMAKG
M2h0dHA6Ly9jc2MzLTIwMDktMi1haWEudmVyaXNpZ24uY29tL0NTQzMtMjAwOS0y
LmNlcjAfBgNVHSMEGDAWgBSX0GuoJnDIoT+UHwgtxDWbpKEe8jARBglghkgBhvhC
AQEEBAMCBBAwFgYKKwYBBAGCNwIBGwQIMAYBAQABAf8wDQYJKoZIhvcNAQEFBQAD
ggEBAH4URRNEX3url+jV7db1pqF+UunK0NDYDBzkwnsW0KgR8BM5tYgnAq1kBov1
SoXlhi/burBZ0LiHOHpW/ABvzF3FZTQBKhYEZehCnNvvTMioT5/MCa4ttoWn5NMm
W/0Yh6AFL2GHz6zanBZNCURbzKLVVL3LH8nZoW5Yea1NZKDSd3PFRUPObybbQ/8d
5HsbyFvY6BDV9v1U9Bb8QUzd7U4EL3Awo45Uk7+CWA5YwmdYgY6shNzXwcpsfCVe
E4DnJqKfkj/X9a045HONPszZwy6tptdA6+CqbpAdur4HVv0XWw6euG+FYwDg0A8W
dqFyl6z1TsS7uQDvsy/aG9SBWb0=
-----END CERTIFICATE-----

Certificate:
    Data:
        Version: 3 (0x2)
        Serial Number:
            65:52:26:e1:b2:2e:18:e1:59:0f:29:85:ac:22:e7:5c
    Signature Algorithm: sha1WithRSAEncryption
        Issuer: C=US, O=VeriSign, Inc., OU=Class 3 Public Primary Certification Authority
        Validity
            Not Before: May 21 00:00:00 2009 GMT
            Not After : May 20 23:59:59 2019 GMT
        Subject: C=US, O=VeriSign, Inc., OU=VeriSign Trust Network, OU=Terms of use at https://www.verisign.com/rpa (c)09, CN=VeriSign Class 3 Code Signing 2009-2 CA
        Subject Public Key Info:
            Public Key Algorithm: rsaEncryption
                Public-Key: (2048 bit)
                Modulus:
                    00:be:67:1d:b4:60:aa:10:49:6f:56:17:7c:66:c9:
                    5e:86:0d:d5:f1:ac:a7:71:83:8e:8b:89:f8:88:04:
                    89:15:06:ba:2d:84:21:95:e4:d1:9c:50:4c:fb:d2:
                    22:bd:da:f2:b2:35:3b:1e:8f:c3:09:fb:fc:13:2e:
                    5a:bf:89:7c:3d:3b:25:1e:f6:f3:58:7b:9c:f4:01:
                    b5:c6:0a:b8:80:ce:be:27:74:61:67:27:4d:6a:e5:
                    ec:81:61:58:79:a3:e0:17:10:12:15:27:b0:e1:4d:
                    34:7f:2b:47:20:44:b9:de:66:24:66:8a:cd:4f:ba:
                    1f:c5:38:c8:54:90:e1:72:f6:19:66:75:6a:b9:49:
                    68:cf:38:79:0d:aa:30:a8:db:2c:60:48:9e:d7:aa:
                    14:01:a9:83:d7:38:91:30:39:13:96:03:3a:7c:40:
                    54:b6:ad:e0:2f:1b:83:dc:a8:11:52:3e:02:b3:d7:
                    2b:fd:21:b6:a7:5c:a3:0f:0b:a9:a6:10:50:0e:34:
                    2e:4d:a7:ce:c9:5e:25:d4:8c:bc:f3:6e:7c:29:bc:
                    01:5d:fc:31:87:5a:d5:8c:85:67:58:88:19:a0:bf:
                    35:f0:ea:2b:a3:21:e7:90:f6:83:e5:a8:ed:60:78:
                    5e:7b:60:83:fd:57:0b:5d:41:0d:63:54:60:d6:43:
                    21:ef
                Exponent: 65537 (0x10001)
        X509v3 extensions:
            X509v3 Basic Constraints: critical
                CA:TRUE, pathlen:0
            X509v3 Certificate Policies: 
                Policy: 2.16.840.1.113733.1.7.23.3
                  CPS: https://www.verisign.com/cps
                  User Notice:
                    Explicit Text: https://www.verisign.com/rpa

            X509v3 Key Usage: critical
                Certificate Sign, CRL Sign
            1.3.6.1.5.5.7.1.12: 
                0_.].[0Y0W0U..image/gif0!0.0...+..............k...j.H.,{..0%.#http://logo.verisign.com/vslogo.gif
            X509v3 Extended Key Usage: 
                TLS Web Client Authentication, Code Signing
            Authority Information Access: 
                OCSP - URI:http://ocsp.verisign.com

            X509v3 CRL Distribution Points: 

                Full Name:
                  URI:http://crl.verisign.com/pca3.crl

            X509v3 Subject Alternative Name: 
                DirName:/CN=Class3CA2048-1-55
            X509v3 Subject Key Identifier: 
                97:D0:6B:A8:26:70:C8:A1:3F:94:1F:08:2D:C4:35:9B:A4:A1:1E:F2
    Signature Algorithm: sha1WithRSAEncryption
         8b:03:c0:dd:94:d8:41:a2:61:69:b0:15:a8:78:c7:30:c6:90:
         3c:7e:42:f7:24:b6:e4:83:73:17:04:7f:04:10:9c:a1:e2:fa:
         81:2f:eb:c0:ca:44:e7:72:e0:50:b6:55:10:20:83:6e:96:92:
         e4:9a:51:6a:b4:37:31:dc:a5:2d:eb:8c:00:c7:1d:4f:e7:4d:
         32:ba:85:f8:4e:be:fa:67:55:65:f0:6a:be:7a:ca:64:38:1a:
         10:10:78:45:76:31:f3:86:7a:03:0f:60:c2:b3:5d:9d:f6:8b:
         66:76:82:1b:59:e1:83:e5:bd:49:a5:38:56:e5:de:41:77:0e:
         58:0f
-----BEGIN CERTIFICATE-----
MIIE/DCCBGWgAwIBAgIQZVIm4bIuGOFZDymFrCLnXDANBgkqhkiG9w0BAQUFADBf
MQswCQYDVQQGEwJVUzEXMBUGA1UEChMOVmVyaVNpZ24sIEluYy4xNzA1BgNVBAsT
LkNsYXNzIDMgUHVibGljIFByaW1hcnkgQ2VydGlmaWNhdGlvbiBBdXRob3JpdHkw
HhcNMDkwNTIxMDAwMDAwWhcNMTkwNTIwMjM1OTU5WjCBtjELMAkGA1UEBhMCVVMx
FzAVBgNVBAoTDlZlcmlTaWduLCBJbmMuMR8wHQYDVQQLExZWZXJpU2lnbiBUcnVz
dCBOZXR3b3JrMTswOQYDVQQLEzJUZXJtcyBvZiB1c2UgYXQgaHR0cHM6Ly93d3cu
dmVyaXNpZ24uY29tL3JwYSAoYykwOTEwMC4GA1UEAxMnVmVyaVNpZ24gQ2xhc3Mg
MyBDb2RlIFNpZ25pbmcgMjAwOS0yIENBMIIBIjANBgkqhkiG9w0BAQEFAAOCAQ8A
MIIBCgKCAQEAvmcdtGCqEElvVhd8Zslehg3V8ayncYOOi4n4iASJFQa6LYQhleTR
nFBM+9IivdrysjU7Ho/DCfv8Ey5av4l8PTslHvbzWHuc9AG1xgq4gM6+J3RhZydN
auXsgWFYeaPgFxASFSew4U00fytHIES53mYkZorNT7ofxTjIVJDhcvYZZnVquUlo
zzh5DaowqNssYEie16oUAamD1ziRMDkTlgM6fEBUtq3gLxuD3KgRUj4Cs9cr/SG2
p1yjDwupphBQDjQuTafOyV4l1Iy88258KbwBXfwxh1rVjIVnWIgZoL818OoroyHn
kPaD5ajtYHhee2CD/VcLXUENY1Rg1kMh7wIDAQABo4IB2zCCAdcwEgYDVR0TAQH/
BAgwBgEB/wIBADBwBgNVHSAEaTBnMGUGC2CGSAGG+EUBBxcDMFYwKAYIKwYBBQUH
AgEWHGh0dHBzOi8vd3d3LnZlcmlzaWduLmNvbS9jcHMwKgYIKwYBBQUHAgIwHhoc
aHR0cHM6Ly93d3cudmVyaXNpZ24uY29tL3JwYTAOBgNVHQ8BAf8EBAMCAQYwbQYI
KwYBBQUHAQwEYTBfoV2gWzBZMFcwVRYJaW1hZ2UvZ2lmMCEwHzAHBgUrDgMCGgQU
j+XTGoasjY5rw8+AatRIGCx7GS4wJRYjaHR0cDovL2xvZ28udmVyaXNpZ24uY29t
L3ZzbG9nby5naWYwHQYDVR0lBBYwFAYIKwYBBQUHAwIGCCsGAQUFBwMDMDQGCCsG
AQUFBwEBBCgwJjAkBggrBgEFBQcwAYYYaHR0cDovL29jc3AudmVyaXNpZ24uY29t
MDEGA1UdHwQqMCgwJqAkoCKGIGh0dHA6Ly9jcmwudmVyaXNpZ24uY29tL3BjYTMu
Y3JsMCkGA1UdEQQiMCCkHjAcMRowGAYDVQQDExFDbGFzczNDQTIwNDgtMS01NTAd
BgNVHQ4EFgQUl9BrqCZwyKE/lB8ILcQ1m6ShHvIwDQYJKoZIhvcNAQEFBQADgYEA
iwPA3ZTYQaJhabAVqHjHMMaQPH5C9yS25INzFwR/BBCcoeL6gS/rwMpE53LgULZV
ECCDbpaS5JpRarQ3MdylLeuMAMcdT+dNMrqF+E6++mdVZfBqvnrKZDgaEBB4RXYx
84Z6Aw9gwrNdnfaLZnaCG1nhg+W9SaU4VuXeQXcOWA8=
-----END CERTIFICATE-----

