Certificate:
    Data:
        Version: 3 (0x2)
        Serial Number:
            9f:ea:c8:11:b0:f1:62:47:a5:fc:20:d8:05:23:ac:e6
    Signature Algorithm: sha1WithRSAEncryption
        Issuer: C=US, ST=UT, L=Salt Lake City, O=The USERTRUST Network, OU=http://www.usertrust.com, CN=UTN-USERFirst-Object
        Validity
            Not Before: May  5 00:00:00 2015 GMT
            Not After : Dec 31 23:59:59 2015 GMT
        Subject: C=GB, ST=Greater Manchester, L=Salford, O=COMODO CA Limited, CN=COMODO Time Stamping Signer
        Subject Public Key Info:
            Public Key Algorithm: rsaEncryption
                Public-Key: (2048 bit)
                Modulus:
                    00:bc:35:a0:36:70:22:81:11:c3:b2:83:b9:d3:28:
                    c6:36:cd:25:6b:a9:7b:b2:1c:f6:9b:51:9c:ef:35:
                    f4:ed:08:8e:5e:38:08:f8:77:3c:0a:42:e0:f3:70:
                    dc:a3:d7:ca:f5:4c:0b:cf:ff:22:9c:0a:7e:68:d6:
                    09:a2:2a:84:7b:a6:9d:b4:a9:c1:33:e2:ef:1f:17:
                    48:ca:3a:cd:46:e6:c5:aa:77:bd:e3:77:9a:fa:47:
                    53:40:28:59:43:93:f1:a4:81:ea:ef:80:b5:4f:a7:
                    08:ce:ba:6e:bc:ca:76:0c:97:64:59:86:24:bb:3d:
                    82:90:a8:55:b1:92:d3:a0:a7:05:ac:9f:53:25:08:
                    10:47:99:cd:98:de:68:e5:b4:50:78:a3:af:01:cc:
                    59:43:58:e4:76:6e:7e:ac:c7:e2:9e:1f:4f:b0:47:
                    2d:c8:0c:a3:49:27:80:75:8c:bb:06:91:65:0f:90:
                    9b:f4:ba:d1:81:c8:5c:6a:ec:14:e9:25:09:bf:23:
                    16:f4:95:46:40:40:21:bb:83:96:fd:86:1f:7a:c8:
                    0d:10:8e:a2:f8:19:07:58:7f:9f:bd:37:02:60:f2:
                    a4:e9:9d:44:3f:30:05:e4:a7:70:99:51:9a:e8:17:
                    f1:55:ca:b2:61:89:65:46:a7:6a:f2:58:46:7e:aa:
                    a0:07
                Exponent: 65537 (0x10001)
        X509v3 extensions:
            X509v3 Authority Key Identifier: 
                keyid:DA:ED:64:74:14:9C:14:3C:AB:DD:99:A9:BD:5B:28:4D:8B:3C:C9:D8

            X509v3 Subject Key Identifier: 
                2E:2D:B0:0A:44:4A:D3:87:C0:02:07:CE:97:7D:50:62:20:FD:0F:83
            X509v3 Key Usage: critical
                Digital Signature, Non Repudiation
            X509v3 Basic Constraints: critical
                CA:FALSE
            X509v3 Extended Key Usage: critical
                Time Stamping
            X509v3 CRL Distribution Points: 

                Full Name:
                  URI:http://crl.usertrust.com/UTN-USERFirst-Object.crl

            Authority Information Access: 
                OCSP - URI:http://ocsp.usertrust.com

    Signature Algorithm: sha1WithRSAEncryption
         0d:bb:ad:60:11:1b:b5:f0:0d:cc:e6:48:3a:7a:3e:0e:33:dc:
         1c:b9:ea:d6:20:fe:a3:4d:d0:cc:76:4e:e8:18:d8:79:df:d3:
         4f:9a:42:64:23:8a:29:72:8a:3a:6c:66:a6:3c:3a:17:a8:70:
         45:65:c6:73:c3:d0:ce:89:54:fb:ac:69:0f:58:b0:19:cb:86:
         9f:7e:b9:7e:eb:51:92:bf:9b:dd:eb:d1:65:f0:25:7b:88:7c:
         de:bd:a5:c8:b5:14:51:bc:c0:81:30:8a:85:38:7b:e6:79:fe:
         67:55:93:87:fe:4f:e8:8d:0e:ed:f3:72:92:b5:c2:89:80:6d:
         d1:59:e3:1d:0d:ea:b1:38:ee:03:9d:00:19:a5:ab:21:9b:79:
         c3:cc:c2:3e:68:7e:bd:c9:4d:69:4d:b4:64:51:fb:b2:28:74:
         e2:53:89:ce:9d:fa:ad:e2:db:ce:ab:7b:7e:06:44:74:fd:0a:
         a3:c9:b7:a7:30:cd:49:d2:92:64:f1:22:a6:b8:28:45:74:79:
         e9:a7:ce:3b:33:f9:83:50:94:7d:68:c0:1d:49:c7:60:78:7a:
         3c:64:26:d5:be:fa:0a:6d:e4:1e:e1:09:53:8f:a9:c5:23:ac:
         c7:9d:61:42:21:f0:2c:16:71:49:3b:10:af:2c:6f:1a:e6:31:
         f1:14:fd:6c
-----BEGIN CERTIFICATE-----
MIIElDCCA3ygAwIBAgIRAJ/qyBGw8WJHpfwg2AUjrOYwDQYJKoZIhvcNAQEFBQAw
gZUxCzAJBgNVBAYTAlVTMQswCQYDVQQIEwJVVDEXMBUGA1UEBxMOU2FsdCBMYWtl
IENpdHkxHjAcBgNVBAoTFVRoZSBVU0VSVFJVU1QgTmV0d29yazEhMB8GA1UECxMY
aHR0cDovL3d3dy51c2VydHJ1c3QuY29tMR0wGwYDVQQDExRVVE4tVVNFUkZpcnN0
LU9iamVjdDAeFw0xNTA1MDUwMDAwMDBaFw0xNTEyMzEyMzU5NTlaMH4xCzAJBgNV
BAYTAkdCMRswGQYDVQQIExJHcmVhdGVyIE1hbmNoZXN0ZXIxEDAOBgNVBAcTB1Nh
bGZvcmQxGjAYBgNVBAoTEUNPTU9ETyBDQSBMaW1pdGVkMSQwIgYDVQQDExtDT01P
RE8gVGltZSBTdGFtcGluZyBTaWduZXIwggEiMA0GCSqGSIb3DQEBAQUAA4IBDwAw
ggEKAoIBAQC8NaA2cCKBEcOyg7nTKMY2zSVrqXuyHPabUZzvNfTtCI5eOAj4dzwK
QuDzcNyj18r1TAvP/yKcCn5o1gmiKoR7pp20qcEz4u8fF0jKOs1G5sWqd73jd5r6
R1NAKFlDk/GkgervgLVPpwjOum68ynYMl2RZhiS7PYKQqFWxktOgpwWsn1MlCBBH
mc2Y3mjltFB4o68BzFlDWOR2bn6sx+KeH0+wRy3IDKNJJ4B1jLsGkWUPkJv0utGB
yFxq7BTpJQm/Ixb0lUZAQCG7g5b9hh96yA0QjqL4GQdYf5+9NwJg8qTpnUQ/MAXk
p3CZUZroF/FVyrJhiWVGp2ryWEZ+qqAHAgMBAAGjgfQwgfEwHwYDVR0jBBgwFoAU
2u1kdBScFDyr3ZmpvVsoTYs8ydgwHQYDVR0OBBYEFC4tsApEStOHwAIHzpd9UGIg
/Q+DMA4GA1UdDwEB/wQEAwIGwDAMBgNVHRMBAf8EAjAAMBYGA1UdJQEB/wQMMAoG
CCsGAQUFBwMIMEIGA1UdHwQ7MDkwN6A1oDOGMWh0dHA6Ly9jcmwudXNlcnRydXN0
LmNvbS9VVE4tVVNFUkZpcnN0LU9iamVjdC5jcmwwNQYIKwYBBQUHAQEEKTAnMCUG
CCsGAQUFBzABhhlodHRwOi8vb2NzcC51c2VydHJ1c3QuY29tMA0GCSqGSIb3DQEB
BQUAA4IBAQANu61gERu18A3M5kg6ej4OM9wcuerWIP6jTdDMdk7oGNh539NPmkJk
I4opcoo6bGamPDoXqHBFZcZzw9DOiVT7rGkPWLAZy4affrl+61GSv5vd69Fl8CV7
iHzevaXItRRRvMCBMIqFOHvmef5nVZOH/k/ojQ7t83KStcKJgG3RWeMdDeqxOO4D
nQAZpashm3nDzMI+aH69yU1pTbRkUfuyKHTiU4nOnfqt4tvOq3t+BkR0/Qqjyben
MM1J0pJk8SKmuChFdHnpp847M/mDUJR9aMAdScdgeHo8ZCbVvvoKbeQe4QlTj6nF
I6zHnWFCIfAsFnFJOxCvLG8a5jHxFP1s
-----END CERTIFICATE-----

Certificate:
    Data:
        Version: 3 (0x2)
        Serial Number:
            07:68:20:0e:7f:5a:53:46:17:03:ae:57:7d:98:9c:30
    Signature Algorithm: sha256WithRSAEncryption
        Issuer: C=US, O=VeriSign, Inc., OU=VeriSign Trust Network, OU=Terms of use at https://www.verisign.com/rpa (c)10, CN=VeriSign Class 3 Code Signing 2010 CA
        Validity
            Not Before: Oct 20 00:00:00 2014 GMT
            Not After : Jan 18 23:59:59 2017 GMT
        Subject: C=MT, ST=XBX, L=Ta'Xbiex, O=LULU SOFTWARE LIMITED, CN=LULU SOFTWARE LIMITED
        Subject Public Key Info:
            Public Key Algorithm: rsaEncryption
                Public-Key: (2048 bit)
                Modulus:
                    00:bf:0b:b4:af:e7:2e:2c:71:45:98:b0:fb:54:a5:
                    51:14:96:4e:36:69:c1:62:d3:94:a6:b2:1d:6c:d4:
                    d9:a5:58:13:a1:00:cf:ee:e3:9a:d7:79:4b:c8:e4:
                    c0:eb:d3:2b:49:ec:1a:2f:89:5f:9b:ed:ce:80:e8:
                    15:71:93:b2:4a:04:46:7c:f4:8f:15:a8:c7:84:08:
                    92:fa:5d:92:09:2f:34:f6:80:bb:b6:73:57:71:4d:
                    48:c0:fa:0f:fb:bd:b4:3f:82:86:67:7e:70:12:c6:
                    f2:82:28:19:97:9a:85:b5:18:6a:e4:77:2c:a5:cc:
                    c0:7e:7e:d0:e0:ec:73:94:ca:e4:d4:ad:ed:8b:45:
                    22:6f:d9:2e:de:f1:42:48:2a:ab:f7:21:ff:57:e1:
                    88:7c:01:ca:54:4b:a8:16:f5:57:6f:54:60:f9:9d:
                    3f:f4:ac:d3:e0:48:61:52:e9:74:a2:9e:d1:43:50:
                    3b:3e:89:1f:cb:33:30:fc:f5:cc:7c:69:29:80:38:
                    76:e1:6d:29:61:38:77:ac:ba:db:46:02:2c:43:27:
                    fe:4e:ac:10:0b:7a:a0:cc:a0:83:02:99:f1:e0:98:
                    06:b3:c1:0b:e3:7d:c1:40:65:79:ed:6b:99:d6:00:
                    28:3f:7c:af:08:f1:e6:e5:cd:22:b7:a4:92:d9:15:
                    d6:6d
                Exponent: 65537 (0x10001)
        X509v3 extensions:
            X509v3 Basic Constraints: 
                CA:FALSE
            X509v3 Key Usage: critical
                Digital Signature
            X509v3 CRL Distribution Points: 

                Full Name:
                  URI:http://sf.symcb.com/sf.crl

            X509v3 Certificate Policies: 
                Policy: 2.16.840.1.113733.1.7.23.3
                  CPS: https://d.symcb.com/cps
                  User Notice:
                    Explicit Text: https://d.symcb.com/rpa

            X509v3 Extended Key Usage: 
                Code Signing
            Authority Information Access: 
                OCSP - URI:http://sf.symcd.com
                CA Issuers - URI:http://sf.symcb.com/sf.crt

            X509v3 Authority Key Identifier: 
                keyid:CF:99:A9:EA:7B:26:F4:4B:C9:8E:8F:D7:F0:05:26:EF:E3:D2:A7:9D

            X509v3 Subject Key Identifier: 
                EB:77:4B:1D:7E:1A:52:A7:AB:60:D9:A4:71:32:55:35:1C:78:2A:63
            Netscape Cert Type: 
                Object Signing
            1.3.6.1.4.1.311.2.1.27: 
                0.......
    Signature Algorithm: sha256WithRSAEncryption
         43:a7:6a:c2:2b:cf:4b:28:98:06:ce:86:77:b7:8d:dd:a5:89:
         b2:f3:b4:6f:67:e8:b1:b6:b5:54:8f:81:dc:4c:6b:19:ee:72:
         bb:1c:9e:ad:e2:8d:74:7e:b9:88:92:a9:65:67:ea:ec:a8:d8:
         8f:25:32:02:ea:3f:c9:8f:3e:d0:3c:4c:82:f2:3d:62:2c:3e:
         90:67:ae:31:59:ea:dc:d7:88:ec:e7:d2:08:27:32:2b:b0:c2:
         00:b1:00:12:2b:74:39:b7:6d:ab:d0:a6:5b:41:92:bb:89:b7:
         29:cb:a3:54:b6:c3:ce:5e:9f:ff:20:f9:f1:56:9f:b9:28:85:
         95:aa:80:33:d2:75:c0:63:38:f1:1c:f5:78:64:c4:48:a2:f5:
         44:db:c5:67:12:fd:33:1a:a2:56:54:08:b2:b7:4e:65:8e:c2:
         5e:da:b7:88:9c:eb:98:c3:f8:d7:5c:6f:08:e6:71:0d:e6:6f:
         57:98:73:d2:37:dc:5b:47:e9:a6:1a:58:5c:4c:c8:63:73:42:
         62:68:33:ca:dd:fe:6b:1c:09:e3:7b:fc:01:c3:dd:56:2e:06:
         fe:78:24:a0:bb:09:33:bb:ef:60:f3:c1:aa:0a:41:83:1b:28:
         05:82:74:fb:e6:e9:fe:76:dd:de:34:2b:bd:09:ef:5c:ed:13:
         32:c2:fc:c7
-----BEGIN CERTIFICATE-----
MIIFPDCCBCSgAwIBAgIQB2ggDn9aU0YXA65XfZicMDANBgkqhkiG9w0BAQsFADCB
tDELMAkGA1UEBhMCVVMxFzAVBgNVBAoTDlZlcmlTaWduLCBJbmMuMR8wHQYDVQQL
ExZWZXJpU2lnbiBUcnVzdCBOZXR3b3JrMTswOQYDVQQLEzJUZXJtcyBvZiB1c2Ug
YXQgaHR0cHM6Ly93d3cudmVyaXNpZ24uY29tL3JwYSAoYykxMDEuMCwGA1UEAxMl
VmVyaVNpZ24gQ2xhc3MgMyBDb2RlIFNpZ25pbmcgMjAxMCBDQTAeFw0xNDEwMjAw
MDAwMDBaFw0xNzAxMTgyMzU5NTlaMG4xCzAJBgNVBAYTAk1UMQwwCgYDVQQIEwNY
QlgxETAPBgNVBAcTCFRhJ1hiaWV4MR4wHAYDVQQKFBVMVUxVIFNPRlRXQVJFIExJ
TUlURUQxHjAcBgNVBAMUFUxVTFUgU09GVFdBUkUgTElNSVRFRDCCASIwDQYJKoZI
hvcNAQEBBQADggEPADCCAQoCggEBAL8LtK/nLixxRZiw+1SlURSWTjZpwWLTlKay
HWzU2aVYE6EAz+7jmtd5S8jkwOvTK0nsGi+JX5vtzoDoFXGTskoERnz0jxWox4QI
kvpdkgkvNPaAu7ZzV3FNSMD6D/u9tD+Chmd+cBLG8oIoGZeahbUYauR3LKXMwH5+
0ODsc5TK5NSt7YtFIm/ZLt7xQkgqq/ch/1fhiHwBylRLqBb1V29UYPmdP/Ss0+BI
YVLpdKKe0UNQOz6JH8szMPz1zHxpKYA4duFtKWE4d6y620YCLEMn/k6sEAt6oMyg
gwKZ8eCYBrPBC+N9wUBlee1rmdYAKD98rwjx5uXNIrekktkV1m0CAwEAAaOCAY0w
ggGJMAkGA1UdEwQCMAAwDgYDVR0PAQH/BAQDAgeAMCsGA1UdHwQkMCIwIKAeoByG
Gmh0dHA6Ly9zZi5zeW1jYi5jb20vc2YuY3JsMGYGA1UdIARfMF0wWwYLYIZIAYb4
RQEHFwMwTDAjBggrBgEFBQcCARYXaHR0cHM6Ly9kLnN5bWNiLmNvbS9jcHMwJQYI
KwYBBQUHAgIwGQwXaHR0cHM6Ly9kLnN5bWNiLmNvbS9ycGEwEwYDVR0lBAwwCgYI
KwYBBQUHAwMwVwYIKwYBBQUHAQEESzBJMB8GCCsGAQUFBzABhhNodHRwOi8vc2Yu
c3ltY2QuY29tMCYGCCsGAQUFBzAChhpodHRwOi8vc2Yuc3ltY2IuY29tL3NmLmNy
dDAfBgNVHSMEGDAWgBTPmanqeyb0S8mOj9fwBSbv49KnnTAdBgNVHQ4EFgQU63dL
HX4aUqerYNmkcTJVNRx4KmMwEQYJYIZIAYb4QgEBBAQDAgQQMBYGCisGAQQBgjcC
ARsECDAGAQEAAQH/MA0GCSqGSIb3DQEBCwUAA4IBAQBDp2rCK89LKJgGzoZ3t43d
pYmy87RvZ+ixtrVUj4HcTGsZ7nK7HJ6t4o10frmIkqllZ+rsqNiPJTIC6j/Jjz7Q
PEyC8j1iLD6QZ64xWerc14js59IIJzIrsMIAsQASK3Q5t22r0KZbQZK7ibcpy6NU
tsPOXp//IPnxVp+5KIWVqoAz0nXAYzjxHPV4ZMRIovVE28VnEv0zGqJWVAiyt05l
jsJe2reInOuYw/jXXG8I5nEN5m9XmHPSN9xbR+mmGlhcTMhjc0JiaDPK3f5rHAnj
e/wBw91WLgb+eCSguwkzu+9g88GqCkGDGygFgnT75un+dt3eNCu9Ce9c7RMywvzH
-----END CERTIFICATE-----

Certificate:
    Data:
        Version: 3 (0x2)
        Serial Number:
            52:00:e5:aa:25:56:fc:1a:86:ed:96:c9:d4:4b:33:c7
    Signature Algorithm: sha1WithRSAEncryption
        Issuer: C=US, O=VeriSign, Inc., OU=VeriSign Trust Network, OU=(c) 2006 VeriSign, Inc. - For authorized use only, CN=VeriSign Class 3 Public Primary Certification Authority - G5
        Validity
            Not Before: Feb  8 00:00:00 2010 GMT
            Not After : Feb  7 23:59:59 2020 GMT
        Subject: C=US, O=VeriSign, Inc., OU=VeriSign Trust Network, OU=Terms of use at https://www.verisign.com/rpa (c)10, CN=VeriSign Class 3 Code Signing 2010 CA
        Subject Public Key Info:
            Public Key Algorithm: rsaEncryption
                Public-Key: (2048 bit)
                Modulus:
                    00:f5:23:4b:5e:a5:d7:8a:bb:32:e9:d4:57:f7:ef:
                    e4:c7:26:7e:ad:19:98:fe:a8:9d:7d:94:f6:36:6b:
                    10:d7:75:81:30:7f:04:68:7f:cb:2b:75:1e:cd:1d:
                    08:8c:df:69:94:a7:37:a3:9c:7b:80:e0:99:e1:ee:
                    37:4d:5f:ce:3b:14:ee:86:d4:d0:f5:27:35:bc:25:
                    0b:38:a7:8c:63:9d:17:a3:08:a5:ab:b0:fb:cd:6a:
                    62:82:4c:d5:21:da:1b:d9:f1:e3:84:3b:8a:2a:4f:
                    85:5b:90:01:4f:c9:a7:76:10:7f:27:03:7c:be:ae:
                    7e:7d:c1:dd:f9:05:bc:1b:48:9c:69:e7:c0:a4:3c:
                    3c:41:00:3e:df:96:e5:c5:e4:94:71:d6:55:01:c7:
                    00:26:4a:40:3c:b5:a1:26:a9:0c:a7:6d:80:8e:90:
                    25:7b:cf:bf:3f:1c:eb:2f:96:fa:e5:87:77:c6:b5:
                    56:b2:7a:3b:54:30:53:1b:df:62:34:ff:1e:d1:f4:
                    5a:93:28:85:e5:4c:17:4e:7e:5b:fd:a4:93:99:7f:
                    df:cd:ef:a4:75:ef:ef:15:f6:47:e7:f8:19:72:d8:
                    2e:34:1a:a6:b4:a7:4c:7e:bd:bb:4f:0c:3d:57:f1:
                    30:d6:a6:36:8e:d6:80:76:d7:19:2e:a5:cd:7e:34:
                    2d:89
                Exponent: 65537 (0x10001)
        X509v3 extensions:
            X509v3 Basic Constraints: critical
                CA:TRUE, pathlen:0
            X509v3 Certificate Policies: 
                Policy: 2.16.840.1.113733.1.7.23.3
                  CPS: https://www.verisign.com/cps
                  User Notice:
                    Explicit Text: https://www.verisign.com/rpa

            X509v3 Key Usage: critical
                Certificate Sign, CRL Sign
            1.3.6.1.5.5.7.1.12: 
                0_.].[0Y0W0U..image/gif0!0.0...+..............k...j.H.,{..0%.#http://logo.verisign.com/vslogo.gif
            X509v3 CRL Distribution Points: 

                Full Name:
                  URI:http://crl.verisign.com/pca3-g5.crl

            Authority Information Access: 
                OCSP - URI:http://ocsp.verisign.com

            X509v3 Extended Key Usage: 
                TLS Web Client Authentication, Code Signing
            X509v3 Subject Alternative Name: 
                DirName:/CN=VeriSignMPKI-2-8
            X509v3 Subject Key Identifier: 
                CF:99:A9:EA:7B:26:F4:4B:C9:8E:8F:D7:F0:05:26:EF:E3:D2:A7:9D
            X509v3 Authority Key Identifier: 
                keyid:7F:D3:65:A7:C2:DD:EC:BB:F0:30:09:F3:43:39:FA:02:AF:33:31:33

    Signature Algorithm: sha1WithRSAEncryption
         56:22:e6:34:a4:c4:61:cb:48:b9:01:ad:56:a8:64:0f:d9:8c:
         91:c4:bb:cc:0c:e5:ad:7a:a0:22:7f:df:47:38:4a:2d:6c:d1:
         7f:71:1a:7c:ec:70:a9:b1:f0:4f:e4:0f:0c:53:fa:15:5e:fe:
         74:98:49:24:85:81:26:1c:91:14:47:b0:4c:63:8c:bb:a1:34:
         d4:c6:45:e8:0d:85:26:73:03:d0:a9:8c:64:6d:dc:71:92:e6:
         45:05:60:15:59:51:39:fc:58:14:6b:fe:d4:a4:ed:79:6b:08:
         0c:41:72:e7:37:22:06:09:be:23:e9:3f:44:9a:1e:e9:61:9d:
         cc:b1:90:5c:fc:3d:d2:8d:ac:42:3d:65:36:d4:b4:3d:40:28:
         8f:9b:10:cf:23:26:cc:4b:20:cb:90:1f:5d:8c:4c:34:ca:3c:
         d8:e5:37:d6:6f:a5:20:bd:34:eb:26:d9:ae:0d:e7:c5:9a:f7:
         a1:b4:21:91:33:6f:86:e8:58:bb:25:7c:74:0e:58:fe:75:1b:
         63:3f:ce:31:7c:9b:8f:1b:96:9e:c5:53:76:84:5b:9c:ad:91:
         fa:ac:ed:93:ba:5d:c8:21:53:c2:82:53:63:af:12:0d:50:87:
         11:1b:3d:54:52:96:8a:2c:9c:3d:92:1a:08:9a:05:2e:c7:93:
         a5:48:91:d3
-----BEGIN CERTIFICATE-----
MIIGCjCCBPKgAwIBAgIQUgDlqiVW/BqG7ZbJ1EszxzANBgkqhkiG9w0BAQUFADCB
yjELMAkGA1UEBhMCVVMxFzAVBgNVBAoTDlZlcmlTaWduLCBJbmMuMR8wHQYDVQQL
ExZWZXJpU2lnbiBUcnVzdCBOZXR3b3JrMTowOAYDVQQLEzEoYykgMjAwNiBWZXJp
U2lnbiwgSW5jLiAtIEZvciBhdXRob3JpemVkIHVzZSBvbmx5MUUwQwYDVQQDEzxW
ZXJpU2lnbiBDbGFzcyAzIFB1YmxpYyBQcmltYXJ5IENlcnRpZmljYXRpb24gQXV0
aG9yaXR5IC0gRzUwHhcNMTAwMjA4MDAwMDAwWhcNMjAwMjA3MjM1OTU5WjCBtDEL
MAkGA1UEBhMCVVMxFzAVBgNVBAoTDlZlcmlTaWduLCBJbmMuMR8wHQYDVQQLExZW
ZXJpU2lnbiBUcnVzdCBOZXR3b3JrMTswOQYDVQQLEzJUZXJtcyBvZiB1c2UgYXQg
aHR0cHM6Ly93d3cudmVyaXNpZ24uY29tL3JwYSAoYykxMDEuMCwGA1UEAxMlVmVy
aVNpZ24gQ2xhc3MgMyBDb2RlIFNpZ25pbmcgMjAxMCBDQTCCASIwDQYJKoZIhvcN
AQEBBQADggEPADCCAQoCggEBAPUjS16l14q7MunUV/fv5Mcmfq0ZmP6onX2U9jZr
ENd1gTB/BGh/yyt1Hs0dCIzfaZSnN6Oce4DgmeHuN01fzjsU7obU0PUnNbwlCzin
jGOdF6MIpauw+81qYoJM1SHaG9nx44Q7iipPhVuQAU/Jp3YQfycDfL6ufn3B3fkF
vBtInGnnwKQ8PEEAPt+W5cXklHHWVQHHACZKQDy1oSapDKdtgI6QJXvPvz8c6y+W
+uWHd8a1VrJ6O1QwUxvfYjT/HtH0WpMoheVMF05+W/2kk5l/383vpHXv7xX2R+f4
GXLYLjQaprSnTH69u08MPVfxMNamNo7WgHbXGS6lzX40LYkCAwEAAaOCAf4wggH6
MBIGA1UdEwEB/wQIMAYBAf8CAQAwcAYDVR0gBGkwZzBlBgtghkgBhvhFAQcXAzBW
MCgGCCsGAQUFBwIBFhxodHRwczovL3d3dy52ZXJpc2lnbi5jb20vY3BzMCoGCCsG
AQUFBwICMB4aHGh0dHBzOi8vd3d3LnZlcmlzaWduLmNvbS9ycGEwDgYDVR0PAQH/
BAQDAgEGMG0GCCsGAQUFBwEMBGEwX6FdoFswWTBXMFUWCWltYWdlL2dpZjAhMB8w
BwYFKw4DAhoEFI/l0xqGrI2Oa8PPgGrUSBgsexkuMCUWI2h0dHA6Ly9sb2dvLnZl
cmlzaWduLmNvbS92c2xvZ28uZ2lmMDQGA1UdHwQtMCswKaAnoCWGI2h0dHA6Ly9j
cmwudmVyaXNpZ24uY29tL3BjYTMtZzUuY3JsMDQGCCsGAQUFBwEBBCgwJjAkBggr
BgEFBQcwAYYYaHR0cDovL29jc3AudmVyaXNpZ24uY29tMB0GA1UdJQQWMBQGCCsG
AQUFBwMCBggrBgEFBQcDAzAoBgNVHREEITAfpB0wGzEZMBcGA1UEAxMQVmVyaVNp
Z25NUEtJLTItODAdBgNVHQ4EFgQUz5mp6nsm9EvJjo/X8AUm7+PSp50wHwYDVR0j
BBgwFoAUf9Nlp8Ld7LvwMAnzQzn6Aq8zMTMwDQYJKoZIhvcNAQEFBQADggEBAFYi
5jSkxGHLSLkBrVaoZA/ZjJHEu8wM5a16oCJ/30c4Si1s0X9xGnzscKmx8E/kDwxT
+hVe/nSYSSSFgSYckRRHsExjjLuhNNTGRegNhSZzA9CpjGRt3HGS5kUFYBVZUTn8
WBRr/tSk7XlrCAxBcuc3IgYJviPpP0SaHulhncyxkFz8PdKNrEI9ZTbUtD1AKI+b
EM8jJsxLIMuQH12MTDTKPNjlN9ZvpSC9NOsm2a4N58Wa96G0IZEzb4boWLslfHQO
WP51G2M/zjF8m48blp7FU3aEW5ytkfqs7ZO6XcghU8KCU2OvEg1QhxEbPVRSloos
nD2SGgiaBS7Hk6VIkdM=
-----END CERTIFICATE-----

