Certificate:
    Data:
        Version: 3 (0x2)
        Serial Number:
            48:1b:6a:07:26:d2:e8:3f:26:02:d4:82:5a:cd
    Signature Algorithm: sha256WithRSAEncryption
        Issuer: OU=GlobalSign Root CA - R3, O=GlobalSign, CN=GlobalSign
        Validity
            Not Before: Jun 15 00:00:00 2016 GMT
            Not After : Jun 15 00:00:00 2024 GMT
        Subject: C=BE, O=GlobalSign nv-sa, CN=GlobalSign CodeSigning CA - SHA256 - G3
        Subject Public Key Info:
            Public Key Algorithm: rsaEncryption
                Public-Key: (2048 bit)
                Modulus:
                    00:8d:85:55:23:a9:1f:53:af:c9:ed:36:c2:29:b5:
                    6e:d8:f9:42:f5:21:8b:87:f0:43:a1:2f:c0:3f:97:
                    e3:18:47:d4:96:4e:88:ab:c6:63:e9:b6:49:15:85:
                    f1:d9:9b:7b:1b:fd:d8:4a:cc:6d:4e:86:40:17:cd:
                    7b:ba:47:28:b5:d6:14:40:0c:86:ee:1e:4b:33:f3:
                    2c:55:ee:21:8c:da:b6:c1:fe:b0:4e:3a:ae:51:9f:
                    a5:14:e3:10:e6:93:ca:fa:f9:5d:b1:90:87:ef:f8:
                    35:2d:fc:a2:5c:26:ee:7b:15:8b:1f:d9:c3:a1:97:
                    35:41:b3:30:fd:72:13:ad:91:97:3a:ce:72:9d:06:
                    0a:75:3c:1f:98:e3:cb:18:2f:8c:9f:08:4a:91:0a:
                    d9:d9:35:d9:83:92:76:62:5e:df:83:ae:e4:d6:01:
                    4e:cc:f3:3c:70:61:58:37:1f:14:e3:6a:a0:af:6b:
                    f4:d9:d2:6c:2c:19:30:5d:a0:6f:52:df:d1:9c:c9:
                    e0:0d:d9:75:11:65:96:d9:43:b4:a7:90:39:ae:47:
                    1c:54:cb:b1:95:6e:25:de:8e:f1:12:1c:f0:d7:6e:
                    e7:14:4d:b3:1a:65:d6:84:4a:57:ee:04:af:62:38:
                    c5:10:9b:43:8e:52:b8:3e:b6:ae:9e:2c:97:ff:8e:
                    74:ef
                Exponent: 65537 (0x10001)
        X509v3 extensions:
            X509v3 Key Usage: critical
                Certificate Sign, CRL Sign
            X509v3 Extended Key Usage: 
                Code Signing, OCSP Signing
            X509v3 Basic Constraints: critical
                CA:TRUE, pathlen:0
            X509v3 Subject Key Identifier: 
                0F:3A:E7:AC:94:91:74:2D:96:02:73:83:AD:9C:2E:49:3F:19:AA:54
            X509v3 Authority Key Identifier: 
                keyid:8F:F0:4B:7F:A8:2E:45:24:AE:4D:50:FA:63:9A:8B:DE:E2:DD:1B:BC

            Authority Information Access: 
                OCSP - URI:http://ocsp2.globalsign.com/rootr3

            X509v3 CRL Distribution Points: 

                Full Name:
                  URI:http://crl.globalsign.com/root-r3.crl

            X509v3 Certificate Policies: 
                Policy: 1.3.6.1.4.1.4146.1.50
                Policy: 2.23.140.1.4.1
                Policy: 1.3.6.1.4.1.4146.1.95
                  CPS: https://www.globalsign.com/repository/

    Signature Algorithm: sha256WithRSAEncryption
         15:84:28:0c:ed:a1:c3:19:82:db:63:27:41:d7:cc:63:7d:d6:
         bc:cf:36:9b:cf:d2:5d:4c:02:8b:58:1a:16:08:7a:b1:98:99:
         7f:d8:33:8a:5c:9e:62:0a:9a:ea:90:c2:c5:63:04:0b:e8:87:
         58:06:00:07:82:59:c3:a8:94:32:d9:e0:14:4d:a0:d5:23:e0:
         c7:dd:ba:f0:69:e2:4a:45:65:2d:4d:49:90:78:66:32:0e:b0:
         68:c0:b0:88:b0:8e:ed:5c:06:f8:5c:10:48:3f:23:73:ba:3b:
         53:84:52:80:cd:f0:b3:15:c8:11:0a:8b:05:78:46:59:08:d4:
         be:b7:ff:4b:f5:9c:6a:4c:9c:76:a2:11:85:45:8c:d4:37:ee:
         50:dd:e1:33:34:a9:a1:1f:3a:0b:f1:56:44:8a:6f:b3:33:d0:
         b1:8e:d1:0c:60:07:ee:32:c2:f0:24:6f:bf:af:fb:81:01:76:
         67:c4:a3:e8:e0:ab:dc:33:55:28:e3:67:47:3c:eb:6a:a4:df:
         94:e9:f4:a6:c0:81:d1:52:98:51:a6:d6:02:b7:3c:ea:4a:ef:
         d0:ba:65:d2:37:83:53:4b:7e:67:7c:8c:40:f6:07:1c:b0:af:
         04:06:dc:f8:6c:46:88:72:9c:eb:4e:9d:c3:b0:b9:54:a3:b9:
         4e:97:ca:14
-----BEGIN CERTIFICATE-----
MIIElDCCA3ygAwIBAgIOSBtqBybS6D8mAtSCWs0wDQYJKoZIhvcNAQELBQAwTDEg
MB4GA1UECxMXR2xvYmFsU2lnbiBSb290IENBIC0gUjMxEzARBgNVBAoTCkdsb2Jh
bFNpZ24xEzARBgNVBAMTCkdsb2JhbFNpZ24wHhcNMTYwNjE1MDAwMDAwWhcNMjQw
NjE1MDAwMDAwWjBaMQswCQYDVQQGEwJCRTEZMBcGA1UEChMQR2xvYmFsU2lnbiBu
di1zYTEwMC4GA1UEAxMnR2xvYmFsU2lnbiBDb2RlU2lnbmluZyBDQSAtIFNIQTI1
NiAtIEczMIIBIjANBgkqhkiG9w0BAQEFAAOCAQ8AMIIBCgKCAQEAjYVVI6kfU6/J
7TbCKbVu2PlC9SGLh/BDoS/AP5fjGEfUlk6Iq8Zj6bZJFYXx2Zt7G/3YSsxtToZA
F817ukcotdYUQAyG7h5LM/MsVe4hjNq2wf6wTjquUZ+lFOMQ5pPK+vldsZCH7/g1
LfyiXCbuexWLH9nDoZc1QbMw/XITrZGXOs5ynQYKdTwfmOPLGC+MnwhKkQrZ2TXZ
g5J2Yl7fg67k1gFOzPM8cGFYNx8U42qgr2v02dJsLBkwXaBvUt/RnMngDdl1EWWW
2UO0p5A5rkccVMuxlW4l3o7xEhzw127nFE2zGmXWhEpX7gSvYjjFEJtDjlK4Prau
niyX/4507wIDAQABo4IBZDCCAWAwDgYDVR0PAQH/BAQDAgEGMB0GA1UdJQQWMBQG
CCsGAQUFBwMDBggrBgEFBQcDCTASBgNVHRMBAf8ECDAGAQH/AgEAMB0GA1UdDgQW
BBQPOueslJF0LZYCc4OtnC5JPxmqVDAfBgNVHSMEGDAWgBSP8Et/qC5FJK5NUPpj
move4t0bvDA+BggrBgEFBQcBAQQyMDAwLgYIKwYBBQUHMAGGImh0dHA6Ly9vY3Nw
Mi5nbG9iYWxzaWduLmNvbS9yb290cjMwNgYDVR0fBC8wLTAroCmgJ4YlaHR0cDov
L2NybC5nbG9iYWxzaWduLmNvbS9yb290LXIzLmNybDBjBgNVHSAEXDBaMAsGCSsG
AQQBoDIBMjAIBgZngQwBBAEwQQYJKwYBBAGgMgFfMDQwMgYIKwYBBQUHAgEWJmh0
dHBzOi8vd3d3Lmdsb2JhbHNpZ24uY29tL3JlcG9zaXRvcnkvMA0GCSqGSIb3DQEB
CwUAA4IBAQAVhCgM7aHDGYLbYydB18xjfda8zzabz9JdTAKLWBoWCHqxmJl/2DOK
XJ5iCprqkMLFYwQL6IdYBgAHglnDqJQy2eAUTaDVI+DH3brwaeJKRWUtTUmQeGYy
DrBowLCIsI7tXAb4XBBIPyNzujtThFKAzfCzFcgRCosFeEZZCNS+t/9L9ZxqTJx2
ohGFRYzUN+5Q3eEzNKmhHzoL8VZEim+zM9CxjtEMYAfuMsLwJG+/r/uBAXZnxKPo
4KvcM1Uo42dHPOtqpN+U6fSmwIHRUphRptYCtzzqSu/QumXSN4NTS35nfIxA9gcc
sK8EBtz4bEaIcpzrTp3DsLlUo7lOl8oU
-----END CERTIFICATE-----

Certificate:
    Data:
        Version: 3 (0x2)
        Serial Number:
            25:d1:8f:4c:4c:17:10:17:46:19:e7:1a
    Signature Algorithm: sha256WithRSAEncryption
        Issuer: C=BE, O=GlobalSign nv-sa, CN=GlobalSign CodeSigning CA - SHA256 - G3
        Validity
            Not Before: May 12 15:04:11 2017 GMT
            Not After : Jun 12 15:04:11 2018 GMT
        Subject: C=RO, L=Bucuresti, O=Innovative Solutions Grup SRL, CN=Innovative Solutions Grup SRL
        Subject Public Key Info:
            Public Key Algorithm: rsaEncryption
                Public-Key: (2048 bit)
                Modulus:
                    00:9d:86:fe:99:d8:75:fe:fa:2e:99:07:4d:a6:b8:
                    f6:19:dd:4c:dc:78:e3:51:bc:ca:94:bd:b2:8f:41:
                    68:24:08:74:ca:2e:cf:50:14:ec:f3:69:9d:bb:10:
                    89:18:47:f4:02:eb:96:4b:c0:30:22:d2:1a:9b:75:
                    b9:5b:84:10:52:58:62:8d:9b:d4:27:8f:64:72:9a:
                    42:7d:ec:77:da:0b:df:e3:97:ba:ab:07:b4:9a:c0:
                    c3:0c:44:94:8f:03:52:78:20:f3:19:33:f5:ef:72:
                    83:dd:4d:5f:93:61:c7:eb:9e:91:b3:44:94:a1:04:
                    fc:aa:01:30:d5:a9:ef:5d:91:71:9d:8d:a6:39:1f:
                    93:ab:4c:34:24:d2:a5:c6:9a:dd:cd:f9:9a:a7:ce:
                    ac:4e:74:e7:a6:2b:18:08:22:ba:38:7b:cf:89:f7:
                    81:45:68:9b:f4:df:5e:9e:34:3a:54:91:aa:1f:46:
                    36:60:60:9f:32:d4:a5:21:6b:61:92:ff:45:b9:2d:
                    95:a2:53:2d:d0:b4:ea:63:27:42:6a:42:91:85:07:
                    98:c1:45:d8:36:d2:fa:40:23:e9:3e:d0:a8:1b:a3:
                    08:4f:8e:dc:ff:87:24:66:42:c8:38:96:26:b1:2e:
                    8f:66:49:07:cb:b9:78:14:88:5a:87:6b:67:db:5d:
                    9a:b7
                Exponent: 65537 (0x10001)
        X509v3 extensions:
            X509v3 Key Usage: critical
                Digital Signature
            Authority Information Access: 
                CA Issuers - URI:http://secure.globalsign.com/cacert/gscodesignsha2g3ocsp.crt
                OCSP - URI:http://ocsp2.globalsign.com/gscodesignsha2g3

            X509v3 Certificate Policies: 
                Policy: 1.3.6.1.4.1.4146.1.50
                  CPS: https://www.globalsign.com/repository/
                Policy: 2.23.140.1.4.1

            X509v3 Basic Constraints: 
                CA:FALSE
            X509v3 CRL Distribution Points: 

                Full Name:
                  URI:http://crl.globalsign.com/gscodesignsha2g3.crl

            X509v3 Extended Key Usage: 
                Code Signing
            X509v3 Subject Key Identifier: 
                A6:0E:0A:52:3E:39:D0:40:DA:36:AA:31:3F:B9:D5:88:B3:D7:89:1B
            X509v3 Authority Key Identifier: 
                keyid:0F:3A:E7:AC:94:91:74:2D:96:02:73:83:AD:9C:2E:49:3F:19:AA:54

    Signature Algorithm: sha256WithRSAEncryption
         18:92:1c:8b:5b:56:0c:ae:04:4b:e0:16:b0:71:d3:77:62:8c:
         ec:69:07:04:fc:9d:bc:3f:e2:20:96:d8:02:7f:4c:08:07:77:
         bc:73:27:3d:54:8e:d8:ce:19:18:40:28:8f:42:8c:3b:9e:c3:
         86:72:e5:99:18:00:a2:62:61:11:b4:c4:f5:c3:f8:59:fe:6b:
         b2:33:3b:48:52:84:cb:6a:31:a8:6a:af:fe:56:88:ad:8a:ea:
         1a:7d:48:38:54:7f:b5:65:be:17:16:b5:dc:34:65:20:f8:93:
         c6:77:d3:25:ef:33:bf:a2:af:ab:3c:f1:21:95:fe:c9:6b:8f:
         fe:1a:54:fa:5d:af:c2:fc:47:1b:ca:7d:be:d6:35:b7:dc:23:
         58:bc:9a:e6:c8:57:cf:c7:f5:41:1d:0f:ff:7f:47:86:29:50:
         fe:22:08:1c:79:b0:10:ed:6f:69:38:27:22:35:1b:e4:a6:96:
         4c:d8:e8:d9:70:be:b4:af:54:f2:36:1a:03:fd:d5:de:58:cf:
         81:b4:b5:b4:df:1e:f2:eb:fa:f1:70:50:e4:42:8e:1d:85:15:
         8e:73:00:c4:e7:18:70:3b:f2:15:40:05:07:7f:5e:f2:e9:3e:
         87:3b:51:0a:9e:07:64:ce:f3:ef:b1:e9:75:cb:80:bf:b8:7e:
         c8:63:a2:27
-----BEGIN CERTIFICATE-----
MIIE9zCCA9+gAwIBAgIMJdGPTEwXEBdGGecaMA0GCSqGSIb3DQEBCwUAMFoxCzAJ
BgNVBAYTAkJFMRkwFwYDVQQKExBHbG9iYWxTaWduIG52LXNhMTAwLgYDVQQDEydH
bG9iYWxTaWduIENvZGVTaWduaW5nIENBIC0gU0hBMjU2IC0gRzMwHhcNMTcwNTEy
MTUwNDExWhcNMTgwNjEyMTUwNDExWjBxMQswCQYDVQQGEwJSTzESMBAGA1UEBxMJ
QnVjdXJlc3RpMSYwJAYDVQQKEx1Jbm5vdmF0aXZlIFNvbHV0aW9ucyBHcnVwIFNS
TDEmMCQGA1UEAxMdSW5ub3ZhdGl2ZSBTb2x1dGlvbnMgR3J1cCBTUkwwggEiMA0G
CSqGSIb3DQEBAQUAA4IBDwAwggEKAoIBAQCdhv6Z2HX++i6ZB02muPYZ3UzceONR
vMqUvbKPQWgkCHTKLs9QFOzzaZ27EIkYR/QC65ZLwDAi0hqbdblbhBBSWGKNm9Qn
j2RymkJ97HfaC9/jl7qrB7SawMMMRJSPA1J4IPMZM/XvcoPdTV+TYcfrnpGzRJSh
BPyqATDVqe9dkXGdjaY5H5OrTDQk0qXGmt3N+ZqnzqxOdOemKxgIIro4e8+J94FF
aJv0316eNDpUkaofRjZgYJ8y1KUha2GS/0W5LZWiUy3QtOpjJ0JqQpGFB5jBRdg2
0vpAI+k+0KgbowhPjtz/hyRmQsg4liaxLo9mSQfLuXgUiFqHa2fbXZq3AgMBAAGj
ggGkMIIBoDAOBgNVHQ8BAf8EBAMCB4AwgZQGCCsGAQUFBwEBBIGHMIGEMEgGCCsG
AQUFBzAChjxodHRwOi8vc2VjdXJlLmdsb2JhbHNpZ24uY29tL2NhY2VydC9nc2Nv
ZGVzaWduc2hhMmczb2NzcC5jcnQwOAYIKwYBBQUHMAGGLGh0dHA6Ly9vY3NwMi5n
bG9iYWxzaWduLmNvbS9nc2NvZGVzaWduc2hhMmczMFYGA1UdIARPME0wQQYJKwYB
BAGgMgEyMDQwMgYIKwYBBQUHAgEWJmh0dHBzOi8vd3d3Lmdsb2JhbHNpZ24uY29t
L3JlcG9zaXRvcnkvMAgGBmeBDAEEATAJBgNVHRMEAjAAMD8GA1UdHwQ4MDYwNKAy
oDCGLmh0dHA6Ly9jcmwuZ2xvYmFsc2lnbi5jb20vZ3Njb2Rlc2lnbnNoYTJnMy5j
cmwwEwYDVR0lBAwwCgYIKwYBBQUHAwMwHQYDVR0OBBYEFKYOClI+OdBA2jaqMT+5
1Yiz14kbMB8GA1UdIwQYMBaAFA8656yUkXQtlgJzg62cLkk/GapUMA0GCSqGSIb3
DQEBCwUAA4IBAQAYkhyLW1YMrgRL4BawcdN3YozsaQcE/J28P+IgltgCf0wIB3e8
cyc9VI7YzhkYQCiPQow7nsOGcuWZGACiYmERtMT1w/hZ/muyMztIUoTLajGoaq/+
VoitiuoafUg4VH+1Zb4XFrXcNGUg+JPGd9Ml7zO/oq+rPPEhlf7Ja4/+GlT6Xa/C
/Ecbyn2+1jW33CNYvJrmyFfPx/VBHQ//f0eGKVD+IggcebAQ7W9pOCciNRvkppZM
2OjZcL60r1TyNhoD/dXeWM+BtLW03x7y6/rxcFDkQo4dhRWOcwDE5xhwO/IVQAUH
f17y6T6HO1EKngdkzvPvsel1y4C/uH7IY6In
-----END CERTIFICATE-----

