Certificate:
    Data:
        Version: 3 (0x2)
        Serial Number:
            08:c1:79:03:27:5a:04:a1:42:30:36:a1:73:00:a7:dc
    Signature Algorithm: sha256WithRSAEncryption
        Issuer: C=GB, ST=Greater Manchester, L=Salford, O=COMODO CA Limited, CN=COMODO RSA Code Signing CA
        Validity
            Not Before: Oct  4 00:00:00 2017 GMT
            Not After : Oct  4 23:59:59 2018 GMT
        Subject: C=PL/postalCode=09-400, ST=Mazowieckie, L=P\xC5\x82ock/street=Herbaciana 9/postOfficeBox=09-400, O=DROBINSKI MACIEJ STRONGRECOVERY, OU=Data Recovery, CN=DROBINSKI MACIEJ STRONGRECOVERY
        Subject Public Key Info:
            Public Key Algorithm: rsaEncryption
                Public-Key: (2048 bit)
                Modulus:
                    00:bb:4c:70:10:f9:7a:e6:2a:a9:74:2a:21:67:a8:
                    d0:ee:0c:68:f8:32:09:18:2a:a4:ff:5d:a0:2a:a9:
                    d8:dd:3d:26:b9:4e:13:e9:b2:3e:d1:d9:8a:05:1e:
                    af:0b:b0:4d:94:14:9e:b7:50:37:ab:2a:4d:21:25:
                    af:59:01:a4:3f:33:08:52:e7:b1:9a:36:4a:a9:49:
                    fc:37:63:4a:92:9b:57:97:b1:69:6f:48:2b:93:b1:
                    39:a8:73:06:78:ea:8a:41:9c:0c:aa:25:14:b0:92:
                    8e:f5:5c:4c:dc:de:e6:66:f6:80:96:22:91:a8:54:
                    80:df:9f:dd:40:74:b5:3b:c1:ac:69:bc:ad:d7:bb:
                    2d:4c:2f:13:d2:fd:f0:b7:cb:cf:7a:30:c2:2e:d2:
                    4a:66:26:b6:5a:62:14:f5:72:52:42:9c:dc:1e:9c:
                    75:e6:1f:79:1a:7a:e1:22:50:1f:28:ec:bf:77:77:
                    43:f4:4e:ae:c9:07:56:57:67:b6:74:90:af:ca:f0:
                    9a:c0:76:ec:59:dd:0c:b8:47:b0:db:bd:96:39:7b:
                    e1:0c:59:8c:c2:44:61:1f:66:6a:7c:e2:73:a5:a7:
                    65:5e:77:2e:8c:32:1f:1b:77:79:20:92:c8:9c:da:
                    7a:2f:47:c1:8a:14:d2:91:2b:a5:c6:22:f8:e7:0b:
                    63:17
                Exponent: 65537 (0x10001)
        X509v3 extensions:
            X509v3 Authority Key Identifier: 
                keyid:29:91:60:FF:8A:4D:FA:EB:F9:A6:6A:B8:CF:F9:E6:4B:BD:49:CE:12

            X509v3 Subject Key Identifier: 
                99:08:CF:F1:0B:31:9C:3B:AE:BD:6A:27:AD:A3:32:14:83:A9:2D:2C
            X509v3 Key Usage: critical
                Digital Signature
            X509v3 Basic Constraints: critical
                CA:FALSE
            X509v3 Extended Key Usage: 
                Code Signing
            Netscape Cert Type: 
                Object Signing
            X509v3 Certificate Policies: 
                Policy: 1.3.6.1.4.1.6449.1.2.1.3.2
                  CPS: https://secure.comodo.net/CPS

            X509v3 CRL Distribution Points: 

                Full Name:
                  URI:http://crl.comodoca.com/COMODORSACodeSigningCA.crl

            Authority Information Access: 
                CA Issuers - URI:http://crt.comodoca.com/COMODORSACodeSigningCA.crt
                OCSP - URI:http://ocsp.comodoca.com

    Signature Algorithm: sha256WithRSAEncryption
         7c:fd:23:a1:fc:bd:fc:1e:38:06:ac:68:9a:99:76:f8:19:56:
         3c:c3:ff:76:75:b7:6f:9b:fb:43:c5:20:9c:86:78:76:2b:13:
         4a:39:68:05:1a:d9:8e:92:a0:46:c8:59:ae:62:9b:a9:af:4f:
         0d:45:3c:33:f3:70:4b:1f:05:89:7b:f6:da:76:57:24:48:97:
         8e:61:41:ac:a0:4a:fa:f7:5f:5a:54:06:fe:4d:b4:0a:07:fd:
         71:86:83:f9:83:33:0d:af:78:93:aa:b8:3f:58:bd:bf:15:12:
         4b:ef:30:69:9d:de:14:38:16:5d:c4:78:e3:f0:a7:24:bd:9d:
         d4:aa:d6:41:a6:31:2d:e1:6e:f6:81:71:6a:fd:3a:6e:31:5d:
         89:e8:27:cf:9c:41:7d:83:d8:87:a9:bd:2f:de:ae:11:20:80:
         03:fb:18:e2:7c:f2:d7:89:6a:a9:a5:06:97:3a:29:9e:ab:77:
         be:4f:c8:41:22:ee:22:52:b2:b9:c6:c0:9a:aa:10:5e:a5:c6:
         07:1a:4f:95:c9:64:77:10:6c:18:bc:fb:81:16:94:27:4e:a0:
         be:0c:bc:80:fe:31:d5:eb:be:c4:97:dc:3e:35:31:ea:93:c0:
         06:22:4f:d2:ac:61:89:11:8f:a3:1b:6c:bb:77:e0:ab:8c:82:
         14:ed:a6:5f
-----BEGIN CERTIFICATE-----
MIIFcDCCBFigAwIBAgIQCMF5AydaBKFCMDahcwCn3DANBgkqhkiG9w0BAQsFADB9
MQswCQYDVQQGEwJHQjEbMBkGA1UECBMSR3JlYXRlciBNYW5jaGVzdGVyMRAwDgYD
VQQHEwdTYWxmb3JkMRowGAYDVQQKExFDT01PRE8gQ0EgTGltaXRlZDEjMCEGA1UE
AxMaQ09NT0RPIFJTQSBDb2RlIFNpZ25pbmcgQ0EwHhcNMTcxMDA0MDAwMDAwWhcN
MTgxMDA0MjM1OTU5WjCB2TELMAkGA1UEBhMCUEwxDzANBgNVBBEMBjA5LTQwMDEU
MBIGA1UECAwLTWF6b3dpZWNraWUxDzANBgNVBAcMBlDFgm9jazEVMBMGA1UECQwM
SGVyYmFjaWFuYSA5MQ8wDQYDVQQSDAYwOS00MDAxKDAmBgNVBAoMH0RST0JJTlNL
SSBNQUNJRUogU1RST05HUkVDT1ZFUlkxFjAUBgNVBAsMDURhdGEgUmVjb3Zlcnkx
KDAmBgNVBAMMH0RST0JJTlNLSSBNQUNJRUogU1RST05HUkVDT1ZFUlkwggEiMA0G
CSqGSIb3DQEBAQUAA4IBDwAwggEKAoIBAQC7THAQ+XrmKql0KiFnqNDuDGj4MgkY
KqT/XaAqqdjdPSa5ThPpsj7R2YoFHq8LsE2UFJ63UDerKk0hJa9ZAaQ/MwhS57Ga
NkqpSfw3Y0qSm1eXsWlvSCuTsTmocwZ46opBnAyqJRSwko71XEzc3uZm9oCWIpGo
VIDfn91AdLU7waxpvK3Xuy1MLxPS/fC3y896MMIu0kpmJrZaYhT1clJCnNwenHXm
H3kaeuEiUB8o7L93d0P0Tq7JB1ZXZ7Z0kK/K8JrAduxZ3Qy4R7DbvZY5e+EMWYzC
RGEfZmp84nOlp2Vedy6MMh8bd3kgksic2novR8GKFNKRK6XGIvjnC2MXAgMBAAGj
ggGNMIIBiTAfBgNVHSMEGDAWgBQpkWD/ik366/mmarjP+eZLvUnOEjAdBgNVHQ4E
FgQUmQjP8QsxnDuuvWonraMyFIOpLSwwDgYDVR0PAQH/BAQDAgeAMAwGA1UdEwEB
/wQCMAAwEwYDVR0lBAwwCgYIKwYBBQUHAwMwEQYJYIZIAYb4QgEBBAQDAgQQMEYG
A1UdIAQ/MD0wOwYMKwYBBAGyMQECAQMCMCswKQYIKwYBBQUHAgEWHWh0dHBzOi8v
c2VjdXJlLmNvbW9kby5uZXQvQ1BTMEMGA1UdHwQ8MDowOKA2oDSGMmh0dHA6Ly9j
cmwuY29tb2RvY2EuY29tL0NPTU9ET1JTQUNvZGVTaWduaW5nQ0EuY3JsMHQGCCsG
AQUFBwEBBGgwZjA+BggrBgEFBQcwAoYyaHR0cDovL2NydC5jb21vZG9jYS5jb20v
Q09NT0RPUlNBQ29kZVNpZ25pbmdDQS5jcnQwJAYIKwYBBQUHMAGGGGh0dHA6Ly9v
Y3NwLmNvbW9kb2NhLmNvbTANBgkqhkiG9w0BAQsFAAOCAQEAfP0jofy9/B44Bqxo
mpl2+BlWPMP/dnW3b5v7Q8UgnIZ4disTSjloBRrZjpKgRshZrmKbqa9PDUU8M/Nw
Sx8FiXv22nZXJEiXjmFBrKBK+vdfWlQG/k20Cgf9cYaD+YMzDa94k6q4P1i9vxUS
S+8waZ3eFDgWXcR44/CnJL2d1KrWQaYxLeFu9oFxav06bjFdiegnz5xBfYPYh6m9
L96uESCAA/sY4nzy14lqqaUGlzopnqt3vk/IQSLuIlKyucbAmqoQXqXGBxpPlclk
dxBsGLz7gRaUJ06gvgy8gP4x1eu+xJfcPjUx6pPABiJP0qxhiRGPoxtsu3fgq4yC
FO2mXw==
-----END CERTIFICATE-----

Certificate:
    Data:
        Version: 3 (0x2)
        Serial Number:
            2e:7c:87:cc:0e:93:4a:52:fe:94:fd:1c:b7:cd:34:af
    Signature Algorithm: sha384WithRSAEncryption
        Issuer: C=GB, ST=Greater Manchester, L=Salford, O=COMODO CA Limited, CN=COMODO RSA Certification Authority
        Validity
            Not Before: May  9 00:00:00 2013 GMT
            Not After : May  8 23:59:59 2028 GMT
        Subject: C=GB, ST=Greater Manchester, L=Salford, O=COMODO CA Limited, CN=COMODO RSA Code Signing CA
        Subject Public Key Info:
            Public Key Algorithm: rsaEncryption
                Public-Key: (2048 bit)
                Modulus:
                    00:a6:98:90:63:77:91:34:7f:8a:d1:dd:e9:67:31:
                    11:eb:cc:1e:fd:31:1d:b3:b9:62:57:3f:93:bc:5b:
                    e3:9f:1e:24:32:11:27:6b:bc:51:91:a7:cf:9e:9e:
                    25:b3:5f:81:a8:18:0f:1d:1e:20:30:0e:fb:61:7b:
                    86:09:b3:e3:fd:a2:68:9d:1c:2c:9d:bf:72:e3:e4:
                    75:a0:e5:35:23:8e:c9:8a:ee:1a:0c:64:c7:d8:42:
                    a1:7b:b5:52:03:4b:3a:b0:8e:23:4b:4b:63:e0:22:
                    94:37:7b:d5:79:90:0a:14:18:51:2c:e6:fe:c1:12:
                    f0:1c:3f:61:61:0a:8c:a2:dc:f6:c3:30:aa:cd:28:
                    18:75:48:c1:79:5a:08:cd:bb:8c:55:8c:f7:d4:76:
                    90:3a:33:46:50:73:98:5c:f4:85:4a:6b:0f:80:dd:
                    5e:d6:bd:fd:a9:2f:c0:25:f5:f9:78:d7:8d:5f:10:
                    c2:44:55:3c:90:3c:31:46:cb:70:ae:07:a9:0a:e3:
                    af:c1:01:6f:90:1a:23:e2:5f:38:db:c6:08:5d:47:
                    b3:83:41:f0:2e:00:37:14:b9:12:aa:79:92:52:cd:
                    87:0f:7b:d8:62:29:a4:7e:30:bd:1b:b5:8c:72:b4:
                    48:f2:e3:e8:21:f9:5e:4c:62:79:8b:02:06:9f:7f:
                    d5:0b
                Exponent: 65537 (0x10001)
        X509v3 extensions:
            X509v3 Authority Key Identifier: 
                keyid:BB:AF:7E:02:3D:FA:A6:F1:3C:84:8E:AD:EE:38:98:EC:D9:32:32:D4

            X509v3 Subject Key Identifier: 
                29:91:60:FF:8A:4D:FA:EB:F9:A6:6A:B8:CF:F9:E6:4B:BD:49:CE:12
            X509v3 Key Usage: critical
                Digital Signature, Certificate Sign, CRL Sign
            X509v3 Basic Constraints: critical
                CA:TRUE, pathlen:0
            X509v3 Extended Key Usage: 
                Code Signing
            X509v3 Certificate Policies: 
                Policy: X509v3 Any Policy

            X509v3 CRL Distribution Points: 

                Full Name:
                  URI:http://crl.comodoca.com/COMODORSACertificationAuthority.crl

            Authority Information Access: 
                CA Issuers - URI:http://crt.comodoca.com/COMODORSAAddTrustCA.crt
                OCSP - URI:http://ocsp.comodoca.com

    Signature Algorithm: sha384WithRSAEncryption
         02:3f:02:39:c3:ee:f8:ca:3b:89:de:0c:6d:4d:b1:f1:4e:92:
         4f:af:c2:38:2c:04:cc:c5:63:11:ab:09:63:af:ab:a2:d7:02:
         3f:cc:6f:19:c3:3d:d6:1a:08:94:ff:25:d8:a9:88:a7:2b:10:
         1a:e0:9b:b1:07:22:1a:51:1c:3a:d4:e1:e9:09:bf:e6:24:74:
         af:1e:7b:16:31:6e:23:ef:54:51:2d:52:02:e2:75:08:05:4c:
         f1:b7:51:e1:51:00:c6:87:f6:6c:ee:10:44:76:57:6a:f1:df:
         58:6b:21:aa:49:d4:7c:37:4e:bd:ff:b6:75:54:40:18:36:57:
         67:11:cd:4f:02:e4:fe:f3:da:fc:75:17:db:ec:b7:f7:65:09:
         23:49:1f:43:57:83:ea:7e:20:77:61:c8:4d:f2:bb:65:4d:a8:
         f7:85:45:07:af:7a:69:27:65:90:29:40:8b:df:7b:3a:51:39:
         8c:a8:1f:70:79:ad:6d:42:20:a2:cf:0c:6c:03:8c:4c:cd:73:
         07:94:e7:5a:8e:3a:04:ba:a2:a1:7c:1f:cb:63:3a:15:a7:d4:
         15:1b:a7:52:47:32:a9:f4:bf:64:47:d1:aa:1f:53:4e:32:30:
         73:c2:6f:b7:78:82:9d:5c:ff:46:bb:6b:22:1d:88:0b:f8:1b:
         aa:34:a6:fc:8c:f5:dd:7f:65:8c:8c:31:57:31:d0:36:ec:47:
         a1:cf:cb:8b:a8:ef:1c:18:58:c5:06:77:ca:4b:9b:51:af:4c:
         08:4a:7a:8f:e2:a3:52:e2:8e:8e:cc:26:e4:b2:d8:e5:38:c2:
         a8:ed:c6:81:9c:35:6b:a9:58:61:4a:0a:97:b4:4b:42:b6:55:
         9d:be:99:e7:70:6d:59:f8:6d:2a:0c:7f:19:60:5f:0c:9a:88:
         6c:30:ac:52:09:90:16:1b:ff:2b:9d:db:d0:20:ca:89:ea:28:
         7e:32:8e:19:df:7b:48:33:1e:d7:65:f8:ae:c9:f8:83:14:93:
         76:7d:64:d0:8e:ce:be:35:7d:ff:72:31:4d:9f:9e:bd:1e:6c:
         2f:a8:8f:0c:06:50:fb:8c:27:b3:76:c9:f4:e6:d7:c3:34:e2:
         8c:87:21:86:61:fe:bf:55:74:e1:21:77:03:0a:68:6c:bb:e4:
         c9:a9:e6:cf:59:25:eb:7c:ec:45:0e:79:66:68:e8:22:cd:b8:
         ef:98:85:4d:96:11:3c:09:8a:d0:7f:bc:28:28:13:fb:6a:ca:
         54:8d:92:5c:cd:c2:65:98:06:9e:ce:48:5b:d4:b5:37:93:46:
         41:7c:07:dd:cf:fa:43:ef:ba:67:61:ff:7d:49:e0:bb:30:7d:
         5c:80:e3:e6:16:39:4b:a7
-----BEGIN CERTIFICATE-----
MIIF4DCCA8igAwIBAgIQLnyHzA6TSlL+lP0ct800rzANBgkqhkiG9w0BAQwFADCB
hTELMAkGA1UEBhMCR0IxGzAZBgNVBAgTEkdyZWF0ZXIgTWFuY2hlc3RlcjEQMA4G
A1UEBxMHU2FsZm9yZDEaMBgGA1UEChMRQ09NT0RPIENBIExpbWl0ZWQxKzApBgNV
BAMTIkNPTU9ETyBSU0EgQ2VydGlmaWNhdGlvbiBBdXRob3JpdHkwHhcNMTMwNTA5
MDAwMDAwWhcNMjgwNTA4MjM1OTU5WjB9MQswCQYDVQQGEwJHQjEbMBkGA1UECBMS
R3JlYXRlciBNYW5jaGVzdGVyMRAwDgYDVQQHEwdTYWxmb3JkMRowGAYDVQQKExFD
T01PRE8gQ0EgTGltaXRlZDEjMCEGA1UEAxMaQ09NT0RPIFJTQSBDb2RlIFNpZ25p
bmcgQ0EwggEiMA0GCSqGSIb3DQEBAQUAA4IBDwAwggEKAoIBAQCmmJBjd5E0f4rR
3elnMRHrzB79MR2zuWJXP5O8W+OfHiQyESdrvFGRp8+eniWzX4GoGA8dHiAwDvth
e4YJs+P9omidHCydv3Lj5HWg5TUjjsmK7hoMZMfYQqF7tVIDSzqwjiNLS2PgIpQ3
e9V5kAoUGFEs5v7BEvAcP2FhCoyi3PbDMKrNKBh1SMF5WgjNu4xVjPfUdpA6M0ZQ
c5hc9IVKaw+A3V7Wvf2pL8Al9fl4141fEMJEVTyQPDFGy3CuB6kK46/BAW+QGiPi
XzjbxghdR7ODQfAuADcUuRKqeZJSzYcPe9hiKaR+ML0btYxytEjy4+gh+V5MYnmL
Agaff9ULAgMBAAGjggFRMIIBTTAfBgNVHSMEGDAWgBS7r34CPfqm8TyEjq3uOJjs
2TIy1DAdBgNVHQ4EFgQUKZFg/4pN+uv5pmq4z/nmS71JzhIwDgYDVR0PAQH/BAQD
AgGGMBIGA1UdEwEB/wQIMAYBAf8CAQAwEwYDVR0lBAwwCgYIKwYBBQUHAwMwEQYD
VR0gBAowCDAGBgRVHSAAMEwGA1UdHwRFMEMwQaA/oD2GO2h0dHA6Ly9jcmwuY29t
b2RvY2EuY29tL0NPTU9ET1JTQUNlcnRpZmljYXRpb25BdXRob3JpdHkuY3JsMHEG
CCsGAQUFBwEBBGUwYzA7BggrBgEFBQcwAoYvaHR0cDovL2NydC5jb21vZG9jYS5j
b20vQ09NT0RPUlNBQWRkVHJ1c3RDQS5jcnQwJAYIKwYBBQUHMAGGGGh0dHA6Ly9v
Y3NwLmNvbW9kb2NhLmNvbTANBgkqhkiG9w0BAQwFAAOCAgEAAj8COcPu+Mo7id4M
bU2x8U6ST6/COCwEzMVjEasJY6+rotcCP8xvGcM91hoIlP8l2KmIpysQGuCbsQci
GlEcOtTh6Qm/5iR0rx57FjFuI+9UUS1SAuJ1CAVM8bdR4VEAxof2bO4QRHZXavHf
WGshqknUfDdOvf+2dVRAGDZXZxHNTwLk/vPa/HUX2+y392UJI0kfQ1eD6n4gd2HI
TfK7ZU2o94VFB696aSdlkClAi997OlE5jKgfcHmtbUIgos8MbAOMTM1zB5TnWo46
BLqioXwfy2M6FafUFRunUkcyqfS/ZEfRqh9TTjIwc8Jvt3iCnVz/RrtrIh2IC/gb
qjSm/Iz13X9ljIwxVzHQNuxHoc/Li6jvHBhYxQZ3ykubUa9MCEp6j+KjUuKOjswm
5LLY5TjCqO3GgZw1a6lYYUoKl7RLQrZVnb6Z53BtWfhtKgx/GWBfDJqIbDCsUgmQ
Fhv/K53b0CDKieoofjKOGd97SDMe12X4rsn4gxSTdn1k0I7OvjV9/3IxTZ+evR5s
L6iPDAZQ+4wns3bJ9ObXwzTijIchhmH+v1V04SF3AwpobLvkyanmz1kl63zsRQ55
ZmjoIs2475iFTZYRPAmK0H+8KCgT+2rKVI2SXM3CZZgGns5IW9S1N5NGQXwH3c/6
Q++6Z2H/fUnguzB9XIDj5hY5S6c=
-----END CERTIFICATE-----

