Certificate:
    Data:
        Version: 3 (0x2)
        Serial Number: 1 (0x1)
    Signature Algorithm: sha1WithRSAEncryption
        Issuer: C=SE, O=AddTrust AB, OU=AddTrust External TTP Network, CN=AddTrust External CA Root
        Validity
            Not Before: May 30 10:48:38 2000 GMT
            Not After : May 30 10:48:38 2020 GMT
        Subject: C=SE, O=AddTrust AB, OU=AddTrust External TTP Network, CN=AddTrust External CA Root
        Subject Public Key Info:
            Public Key Algorithm: rsaEncryption
                Public-Key: (2048 bit)
                Modulus:
                    00:b7:f7:1a:33:e6:f2:00:04:2d:39:e0:4e:5b:ed:
                    1f:bc:6c:0f:cd:b5:fa:23:b6:ce:de:9b:11:33:97:
                    a4:29:4c:7d:93:9f:bd:4a:bc:93:ed:03:1a:e3:8f:
                    cf:e5:6d:50:5a:d6:97:29:94:5a:80:b0:49:7a:db:
                    2e:95:fd:b8:ca:bf:37:38:2d:1e:3e:91:41:ad:70:
                    56:c7:f0:4f:3f:e8:32:9e:74:ca:c8:90:54:e9:c6:
                    5f:0f:78:9d:9a:40:3c:0e:ac:61:aa:5e:14:8f:9e:
                    87:a1:6a:50:dc:d7:9a:4e:af:05:b3:a6:71:94:9c:
                    71:b3:50:60:0a:c7:13:9d:38:07:86:02:a8:e9:a8:
                    69:26:18:90:ab:4c:b0:4f:23:ab:3a:4f:84:d8:df:
                    ce:9f:e1:69:6f:bb:d7:42:d7:6b:44:e4:c7:ad:ee:
                    6d:41:5f:72:5a:71:08:37:b3:79:65:a4:59:a0:94:
                    37:f7:00:2f:0d:c2:92:72:da:d0:38:72:db:14:a8:
                    45:c4:5d:2a:7d:b7:b4:d6:c4:ee:ac:cd:13:44:b7:
                    c9:2b:dd:43:00:25:fa:61:b9:69:6a:58:23:11:b7:
                    a7:33:8f:56:75:59:f5:cd:29:d7:46:b7:0a:2b:65:
                    b6:d3:42:6f:15:b2:b8:7b:fb:ef:e9:5d:53:d5:34:
                    5a:27
                Exponent: 65537 (0x10001)
        X509v3 extensions:
            X509v3 Subject Key Identifier: 
                AD:BD:98:7A:34:B4:26:F7:FA:C4:26:54:EF:03:BD:E0:24:CB:54:1A
            X509v3 Key Usage: 
                Certificate Sign, CRL Sign
            X509v3 Basic Constraints: critical
                CA:TRUE
            X509v3 Authority Key Identifier: 
                keyid:AD:BD:98:7A:34:B4:26:F7:FA:C4:26:54:EF:03:BD:E0:24:CB:54:1A
                DirName:/C=SE/O=AddTrust AB/OU=AddTrust External TTP Network/CN=AddTrust External CA Root
                serial:01

    Signature Algorithm: sha1WithRSAEncryption
         b0:9b:e0:85:25:c2:d6:23:e2:0f:96:06:92:9d:41:98:9c:d9:
         84:79:81:d9:1e:5b:14:07:23:36:65:8f:b0:d8:77:bb:ac:41:
         6c:47:60:83:51:b0:f9:32:3d:e7:fc:f6:26:13:c7:80:16:a5:
         bf:5a:fc:87:cf:78:79:89:21:9a:e2:4c:07:0a:86:35:bc:f2:
         de:51:c4:d2:96:b7:dc:7e:4e:ee:70:fd:1c:39:eb:0c:02:51:
         14:2d:8e:bd:16:e0:c1:df:46:75:e7:24:ad:ec:f4:42:b4:85:
         93:70:10:67:ba:9d:06:35:4a:18:d3:2b:7a:cc:51:42:a1:7a:
         63:d1:e6:bb:a1:c5:2b:c2:36:be:13:0d:e6:bd:63:7e:79:7b:
         a7:09:0d:40:ab:6a:dd:8f:8a:c3:f6:f6:8c:1a:42:05:51:d4:
         45:f5:9f:a7:62:21:68:15:20:43:3c:99:e7:7c:bd:24:d8:a9:
         91:17:73:88:3f:56:1b:31:38:18:b4:71:0f:9a:cd:c8:0e:9e:
         8e:2e:1b:e1:8c:98:83:cb:1f:31:f1:44:4c:c6:04:73:49:76:
         60:0f:c7:f8:bd:17:80:6b:2e:e9:cc:4c:0e:5a:9a:79:0f:20:
         0a:2e:d5:9e:63:26:1e:55:92:94:d8:82:17:5a:7b:d0:bc:c7:
         8f:4e:86:04
-----BEGIN CERTIFICATE-----
MIIENjCCAx6gAwIBAgIBATANBgkqhkiG9w0BAQUFADBvMQswCQYDVQQGEwJTRTEU
MBIGA1UEChMLQWRkVHJ1c3QgQUIxJjAkBgNVBAsTHUFkZFRydXN0IEV4dGVybmFs
IFRUUCBOZXR3b3JrMSIwIAYDVQQDExlBZGRUcnVzdCBFeHRlcm5hbCBDQSBSb290
MB4XDTAwMDUzMDEwNDgzOFoXDTIwMDUzMDEwNDgzOFowbzELMAkGA1UEBhMCU0Ux
FDASBgNVBAoTC0FkZFRydXN0IEFCMSYwJAYDVQQLEx1BZGRUcnVzdCBFeHRlcm5h
bCBUVFAgTmV0d29yazEiMCAGA1UEAxMZQWRkVHJ1c3QgRXh0ZXJuYWwgQ0EgUm9v
dDCCASIwDQYJKoZIhvcNAQEBBQADggEPADCCAQoCggEBALf3GjPm8gAELTngTlvt
H7xsD821+iO2zt6bETOXpClMfZOfvUq8k+0DGuOPz+VtUFrWlymUWoCwSXrbLpX9
uMq/NzgtHj6RQa1wVsfwTz/oMp50ysiQVOnGXw94nZpAPA6sYapeFI+eh6FqUNzX
mk6vBbOmcZSccbNQYArHE504B4YCqOmoaSYYkKtMsE8jqzpPhNjfzp/haW+710LX
a0Tkx63ubUFfclpxCDezeWWkWaCUN/cALw3CknLa0Dhy2xSoRcRdKn23tNbE7qzN
E0S3ySvdQwAl+mG5aWpYIxG3pzOPVnVZ9c0p10a3CitlttNCbxWyuHv77+ldU9U0
WicCAwEAAaOB3DCB2TAdBgNVHQ4EFgQUrb2YejS0Jvf6xCZU7wO94CTLVBowCwYD
VR0PBAQDAgEGMA8GA1UdEwEB/wQFMAMBAf8wgZkGA1UdIwSBkTCBjoAUrb2YejS0
Jvf6xCZU7wO94CTLVBqhc6RxMG8xCzAJBgNVBAYTAlNFMRQwEgYDVQQKEwtBZGRU
cnVzdCBBQjEmMCQGA1UECxMdQWRkVHJ1c3QgRXh0ZXJuYWwgVFRQIE5ldHdvcmsx
IjAgBgNVBAMTGUFkZFRydXN0IEV4dGVybmFsIENBIFJvb3SCAQEwDQYJKoZIhvcN
AQEFBQADggEBALCb4IUlwtYj4g+WBpKdQZic2YR5gdkeWxQHIzZlj7DYd7usQWxH
YINRsPkyPef89iYTx4AWpb9a/IfPeHmJIZriTAcKhjW88t5RxNKWt9x+Tu5w/Rw5
6wwCURQtjr0W4MHfRnXnJK3s9EK0hZNwEGe6nQY1ShjTK3rMUUKhemPR5ruhxSvC
Nr4TDea9Y355e6cJDUCrat2PisP29owaQgVR1EX1n6diIWgVIEM8med8vSTYqZEX
c4g/VhsxOBi0cQ+azcgOno4uG+GMmIPLHzHxREzGBHNJdmAPx/i9F4BrLunMTA5a
mnkPIAou1Z5jJh5VkpTYghdae9C8x49OhgQ=
-----END CERTIFICATE-----

Certificate:
    Data:
        Version: 3 (0x2)
        Serial Number:
            16:88:f0:39:25:5e:63:8e:69:14:39:07:e6:33:0b
    Signature Algorithm: sha1WithRSAEncryption
        Issuer: C=US, ST=UT, L=Salt Lake City, O=The USERTRUST Network, OU=http://www.usertrust.com, CN=UTN-USERFirst-Object
        Validity
            Not Before: Dec 31 00:00:00 2015 GMT
            Not After : Jul  9 18:40:36 2019 GMT
        Subject: C=GB, ST=Greater Manchester, L=Salford, O=COMODO CA Limited, CN=COMODO SHA-1 Time Stamping Signer
        Subject Public Key Info:
            Public Key Algorithm: rsaEncryption
                Public-Key: (2048 bit)
                Modulus:
                    00:e9:e9:3d:df:d7:37:08:c9:1e:38:b2:52:53:42:
                    6d:22:f1:b1:c4:06:04:6b:9e:fd:82:74:50:43:7d:
                    c6:a0:bb:1f:4e:f9:02:71:26:b1:ef:43:d8:83:8c:
                    48:fc:e7:0f:97:7a:9a:eb:9c:de:a6:a3:0e:3b:1c:
                    44:18:75:8e:78:a5:17:69:fe:49:18:a4:e2:bb:5c:
                    4e:fe:8e:2a:54:7a:50:f0:d5:f6:cc:91:e7:99:79:
                    d7:de:79:94:d7:96:33:fe:0e:83:be:22:bf:63:16:
                    2c:a3:dd:28:1b:af:3d:ab:ea:97:d2:f1:bf:04:10:
                    e7:3d:48:45:fd:1f:68:65:c1:7f:59:99:69:c0:22:
                    31:0c:62:6e:a7:5c:65:01:21:b0:63:c4:22:18:27:
                    ee:e6:fc:d2:00:3d:47:2e:a8:b8:86:56:5d:04:dc:
                    13:17:25:6e:1c:df:44:0f:15:cd:b7:db:a5:57:76:
                    42:6f:00:68:82:99:d2:e3:c1:de:f0:8b:94:57:4c:
                    ec:08:90:22:21:ce:22:2b:98:0c:42:e6:42:93:94:
                    98:93:ef:fd:06:d9:3f:bc:5b:9b:54:3c:20:b1:ee:
                    6a:d6:47:7a:c5:ab:80:e9:30:9a:de:f1:a4:3f:55:
                    4d:0a:09:34:8a:75:29:d2:69:ad:97:0f:50:bf:f8:
                    ca:09
                Exponent: 65537 (0x10001)
        X509v3 extensions:
            X509v3 Authority Key Identifier: 
                keyid:DA:ED:64:74:14:9C:14:3C:AB:DD:99:A9:BD:5B:28:4D:8B:3C:C9:D8

            X509v3 Subject Key Identifier: 
                8E:6B:2D:33:6B:F4:33:A7:93:B3:13:9A:A5:E0:0A:F7:12:35:6A:88
            X509v3 Key Usage: critical
                Digital Signature, Non Repudiation
            X509v3 Basic Constraints: critical
                CA:FALSE
            X509v3 Extended Key Usage: critical
                Time Stamping
            X509v3 CRL Distribution Points: 

                Full Name:
                  URI:http://crl.usertrust.com/UTN-USERFirst-Object.crl

            Authority Information Access: 
                OCSP - URI:http://ocsp.usertrust.com

    Signature Algorithm: sha1WithRSAEncryption
         ba:33:24:40:40:8c:7c:db:58:9f:b3:60:98:b2:f5:c0:31:fe:
         eb:1f:6e:50:f6:0a:e0:e4:e6:81:ad:26:87:a2:df:fd:b3:da:
         f4:73:f3:00:fb:29:1b:89:1b:15:3e:db:6b:52:93:2b:c4:ac:
         39:81:d7:3c:67:57:9a:39:36:e0:28:08:9a:e3:39:4f:9b:89:
         09:7f:7b:c5:61:7f:59:89:32:25:0a:6a:ae:1a:3e:f0:a2:27:
         a8:b6:c3:b8:87:f7:16:04:48:41:3d:5c:d8:ec:9f:4d:20:31:
         04:d9:65:a1:ed:cd:69:07:53:16:3d:dd:36:02:0a:88:eb:40:
         e5:06:30:0b:b8:16:4b:dc:ef:bc:55:09:ff:c6:3e:12:2e:76:
         b3:dc:ce:42:ef:f9:76:57:e1:b7:0a:05:40:98:58:9a:5d:71:
         16:93:71:8c:65:81:ea:6f:f3:89:f7:fb:73:ad:b4:e7:bf:d9:
         8e:6f:aa:0b:4f:25:f3:b8:e1:d5:dd:75:98:68:81:f8:aa:c0:
         d1:80:c2:c4:c4:39:89:c1:f6:c9:9e:6c:d7:74:f9:d9:97:f8:
         4f:c2:9a:0a:cd:5e:8f:f8:19:e9:e0:a5:9f:c4:f0:92:21:e6:
         2d:79:25:c9:22:f9:c3:f0:3a:84:57:ad:3a:16:f4:63:94:10:
         1d:5d:d0:c6
-----BEGIN CERTIFICATE-----
MIIEmTCCA4GgAwIBAgIPFojwOSVeY45pFDkH5jMLMA0GCSqGSIb3DQEBBQUAMIGV
MQswCQYDVQQGEwJVUzELMAkGA1UECBMCVVQxFzAVBgNVBAcTDlNhbHQgTGFrZSBD
aXR5MR4wHAYDVQQKExVUaGUgVVNFUlRSVVNUIE5ldHdvcmsxITAfBgNVBAsTGGh0
dHA6Ly93d3cudXNlcnRydXN0LmNvbTEdMBsGA1UEAxMUVVROLVVTRVJGaXJzdC1P
YmplY3QwHhcNMTUxMjMxMDAwMDAwWhcNMTkwNzA5MTg0MDM2WjCBhDELMAkGA1UE
BhMCR0IxGzAZBgNVBAgTEkdyZWF0ZXIgTWFuY2hlc3RlcjEQMA4GA1UEBxMHU2Fs
Zm9yZDEaMBgGA1UEChMRQ09NT0RPIENBIExpbWl0ZWQxKjAoBgNVBAMTIUNPTU9E
TyBTSEEtMSBUaW1lIFN0YW1waW5nIFNpZ25lcjCCASIwDQYJKoZIhvcNAQEBBQAD
ggEPADCCAQoCggEBAOnpPd/XNwjJHjiyUlNCbSLxscQGBGue/YJ0UEN9xqC7H075
AnEmse9D2IOMSPznD5d6muuc3qajDjscRBh1jnilF2n+SRik4rtcTv6OKlR6UPDV
9syR55l51955lNeWM/4Og74iv2MWLKPdKBuvPavql9LxvwQQ5z1IRf0faGXBf1mZ
acAiMQxibqdcZQEhsGPEIhgn7ub80gA9Ry6ouIZWXQTcExclbhzfRA8VzbfbpVd2
Qm8AaIKZ0uPB3vCLlFdM7AiQIiHOIiuYDELmQpOUmJPv/QbZP7xbm1Q8ILHuatZH
esWrgOkwmt7xpD9VTQoJNIp1KdJprZcPUL/4ygkCAwEAAaOB9DCB8TAfBgNVHSME
GDAWgBTa7WR0FJwUPKvdmam9WyhNizzJ2DAdBgNVHQ4EFgQUjmstM2v0M6eTsxOa
peAK9xI1aogwDgYDVR0PAQH/BAQDAgbAMAwGA1UdEwEB/wQCMAAwFgYDVR0lAQH/
BAwwCgYIKwYBBQUHAwgwQgYDVR0fBDswOTA3oDWgM4YxaHR0cDovL2NybC51c2Vy
dHJ1c3QuY29tL1VUTi1VU0VSRmlyc3QtT2JqZWN0LmNybDA1BggrBgEFBQcBAQQp
MCcwJQYIKwYBBQUHMAGGGWh0dHA6Ly9vY3NwLnVzZXJ0cnVzdC5jb20wDQYJKoZI
hvcNAQEFBQADggEBALozJEBAjHzbWJ+zYJiy9cAx/usfblD2CuDk5oGtJoei3/2z
2vRz8wD7KRuJGxU+22tSkyvErDmB1zxnV5o5NuAoCJrjOU+biQl/e8Vhf1mJMiUK
aq4aPvCiJ6i2w7iH9xYESEE9XNjsn00gMQTZZaHtzWkHUxY93TYCCojrQOUGMAu4
Fkvc77xVCf/GPhIudrPczkLv+XZX4bcKBUCYWJpdcRaTcYxlgepv84n3+3OttOe/
2Y5vqgtPJfO44dXddZhogfiqwNGAwsTEOYnB9smebNd0+dmX+E/CmgrNXo/4Geng
pZ/E8JIh5i15Jcki+cPwOoRXrToW9GOUEB1d0MY=
-----END CERTIFICATE-----

Certificate:
    Data:
        Version: 3 (0x2)
        Serial Number:
            dc:a0:7e:7f:f2:1d:83:9b:ff:85:bb:62:93:eb:7b:ea
    Signature Algorithm: sha256WithRSAEncryption
        Issuer: C=GB, ST=Greater Manchester, L=Salford, O=COMODO CA Limited, CN=COMODO RSA Code Signing CA
        Validity
            Not Before: Dec 30 00:00:00 2014 GMT
            Not After : Dec 29 23:59:59 2017 GMT
        Subject: C=HK/postalCode=852, ST=Hong Kong, L=Hong Kong/street=Tai Wai/street=Rm 3,8/F, Block C, Greenview Garden, Shatin, O=Viscom Software, CN=Viscom Software
        Subject Public Key Info:
            Public Key Algorithm: rsaEncryption
                Public-Key: (2048 bit)
                Modulus:
                    00:b4:6f:3f:16:db:a7:64:5e:56:c1:45:ee:9f:9b:
                    9b:41:b3:f2:a2:bd:48:c2:15:50:e5:6e:a3:e9:ef:
                    c0:e1:fb:b3:6e:65:17:0f:eb:5b:14:f8:3e:44:4c:
                    48:03:e7:65:4b:27:89:42:a8:45:64:2a:21:9e:75:
                    71:82:b1:24:e7:2e:69:7d:1c:52:04:70:c5:4d:88:
                    5c:8e:62:1d:c2:ee:cc:81:d6:44:81:30:e4:e8:f9:
                    62:36:39:a0:81:26:d8:ef:39:4b:e9:2e:63:6d:8f:
                    54:8e:8f:63:d3:3c:3f:29:50:af:74:03:3f:b5:9d:
                    08:5b:a9:89:76:31:99:61:72:cc:56:64:94:30:95:
                    c3:19:88:84:11:e1:a5:8f:9d:33:b3:b5:4c:b3:46:
                    5f:04:4d:fc:04:21:67:2a:68:74:2f:71:1c:ce:19:
                    a6:97:87:bc:22:8b:2f:bd:c6:8f:d5:f5:11:17:72:
                    92:e5:0c:e9:44:0a:3a:e2:65:fa:6b:81:19:30:20:
                    80:1f:18:e6:88:ae:9a:03:17:56:75:0d:68:4e:1f:
                    d8:4e:7e:bb:1c:9f:35:97:33:f1:13:9a:b8:33:d1:
                    78:bd:e1:86:81:71:8c:d3:dd:04:8e:eb:03:d4:da:
                    4c:71:5c:59:c1:7c:ef:06:cb:e7:f7:f5:93:07:15:
                    bd:cb
                Exponent: 65537 (0x10001)
        X509v3 extensions:
            X509v3 Authority Key Identifier: 
                keyid:29:91:60:FF:8A:4D:FA:EB:F9:A6:6A:B8:CF:F9:E6:4B:BD:49:CE:12

            X509v3 Subject Key Identifier: 
                48:75:F9:A1:4B:72:6C:0E:57:CD:02:B2:2B:CB:6D:93:B8:FB:A0:AC
            X509v3 Key Usage: critical
                Digital Signature
            X509v3 Basic Constraints: critical
                CA:FALSE
            X509v3 Extended Key Usage: 
                Code Signing
            Netscape Cert Type: 
                Object Signing
            X509v3 Certificate Policies: 
                Policy: 1.3.6.1.4.1.6449.1.2.1.3.2
                  CPS: https://secure.comodo.net/CPS

            X509v3 CRL Distribution Points: 

                Full Name:
                  URI:http://crl.comodoca.com/COMODORSACodeSigningCA.crl

            Authority Information Access: 
                CA Issuers - URI:http://crt.comodoca.com/COMODORSACodeSigningCA.crt
                OCSP - URI:http://ocsp.comodoca.com

    Signature Algorithm: sha256WithRSAEncryption
         1a:f7:d2:11:03:be:23:21:8d:4a:68:91:6b:92:49:aa:d6:d3:
         ea:82:3b:20:b3:e0:01:ca:11:e2:3c:9c:b4:b7:93:bf:46:39:
         91:a9:91:a8:25:11:21:cd:b2:0d:ac:7a:9f:d8:b4:07:25:ce:
         bf:85:d3:f7:a3:b1:42:76:6f:50:dd:a5:64:83:35:38:69:13:
         90:4e:ff:62:81:d9:75:9a:92:80:1e:26:77:d3:fe:a1:8b:bf:
         b2:04:cf:25:c9:5a:ff:23:20:a5:93:ea:a2:dd:b2:3c:cf:3c:
         46:f7:12:9a:31:85:55:90:41:c8:9d:0a:c5:d2:0a:08:4b:5f:
         14:c9:0d:ff:74:04:ec:d4:54:79:c2:cd:07:cb:88:8a:c5:16:
         fc:04:8a:50:d2:4a:84:16:a8:92:0e:e9:bf:f1:2a:20:e1:8f:
         cb:db:5c:9b:f8:fb:6a:df:64:3c:04:01:3a:17:7c:27:5d:14:
         69:c4:63:58:d7:75:3d:df:79:05:c1:9f:ba:ed:43:95:85:f7:
         53:d7:b6:26:32:79:e6:35:e8:ba:5d:b6:d9:97:c9:69:97:b5:
         fc:31:44:63:84:db:81:00:e6:30:43:38:84:f2:9f:db:a7:f9:
         df:22:91:17:ed:25:18:66:d1:c7:8c:47:dd:9a:0b:e3:e1:27:
         22:53:b5:43
-----BEGIN CERTIFICATE-----
MIIFVzCCBD+gAwIBAgIRANygfn/yHYOb/4W7YpPre+owDQYJKoZIhvcNAQELBQAw
fTELMAkGA1UEBhMCR0IxGzAZBgNVBAgTEkdyZWF0ZXIgTWFuY2hlc3RlcjEQMA4G
A1UEBxMHU2FsZm9yZDEaMBgGA1UEChMRQ09NT0RPIENBIExpbWl0ZWQxIzAhBgNV
BAMTGkNPTU9ETyBSU0EgQ29kZSBTaWduaW5nIENBMB4XDTE0MTIzMDAwMDAwMFoX
DTE3MTIyOTIzNTk1OVowgb8xCzAJBgNVBAYTAkhLMQwwCgYDVQQRDAM4NTIxEjAQ
BgNVBAgMCUhvbmcgS29uZzESMBAGA1UEBwwJSG9uZyBLb25nMRAwDgYDVQQJDAdU
YWkgV2FpMTQwMgYDVQQJDCtSbSAzLDgvRiwgQmxvY2sgQywgR3JlZW52aWV3IEdh
cmRlbiwgU2hhdGluMRgwFgYDVQQKDA9WaXNjb20gU29mdHdhcmUxGDAWBgNVBAMM
D1Zpc2NvbSBTb2Z0d2FyZTCCASIwDQYJKoZIhvcNAQEBBQADggEPADCCAQoCggEB
ALRvPxbbp2ReVsFF7p+bm0Gz8qK9SMIVUOVuo+nvwOH7s25lFw/rWxT4PkRMSAPn
ZUsniUKoRWQqIZ51cYKxJOcuaX0cUgRwxU2IXI5iHcLuzIHWRIEw5Oj5YjY5oIEm
2O85S+kuY22PVI6PY9M8PylQr3QDP7WdCFupiXYxmWFyzFZklDCVwxmIhBHhpY+d
M7O1TLNGXwRN/AQhZypodC9xHM4ZppeHvCKLL73Gj9X1ERdykuUM6UQKOuJl+muB
GTAggB8Y5oiumgMXVnUNaE4f2E5+uxyfNZcz8ROauDPReL3hhoFxjNPdBI7rA9Ta
THFcWcF87wbL5/f1kwcVvcsCAwEAAaOCAY0wggGJMB8GA1UdIwQYMBaAFCmRYP+K
Tfrr+aZquM/55ku9Sc4SMB0GA1UdDgQWBBRIdfmhS3JsDlfNArIry22TuPugrDAO
BgNVHQ8BAf8EBAMCB4AwDAYDVR0TAQH/BAIwADATBgNVHSUEDDAKBggrBgEFBQcD
AzARBglghkgBhvhCAQEEBAMCBBAwRgYDVR0gBD8wPTA7BgwrBgEEAbIxAQIBAwIw
KzApBggrBgEFBQcCARYdaHR0cHM6Ly9zZWN1cmUuY29tb2RvLm5ldC9DUFMwQwYD
VR0fBDwwOjA4oDagNIYyaHR0cDovL2NybC5jb21vZG9jYS5jb20vQ09NT0RPUlNB
Q29kZVNpZ25pbmdDQS5jcmwwdAYIKwYBBQUHAQEEaDBmMD4GCCsGAQUFBzAChjJo
dHRwOi8vY3J0LmNvbW9kb2NhLmNvbS9DT01PRE9SU0FDb2RlU2lnbmluZ0NBLmNy
dDAkBggrBgEFBQcwAYYYaHR0cDovL29jc3AuY29tb2RvY2EuY29tMA0GCSqGSIb3
DQEBCwUAA4IBAQAa99IRA74jIY1KaJFrkkmq1tPqgjsgs+AByhHiPJy0t5O/RjmR
qZGoJREhzbINrHqf2LQHJc6/hdP3o7FCdm9Q3aVkgzU4aROQTv9igdl1mpKAHiZ3
0/6hi7+yBM8lyVr/IyClk+qi3bI8zzxG9xKaMYVVkEHInQrF0goIS18UyQ3/dATs
1FR5ws0Hy4iKxRb8BIpQ0kqEFqiSDum/8Sog4Y/L21yb+Ptq32Q8BAE6F3wnXRRp
xGNY13U933kFwZ+67UOVhfdT17YmMnnmNei6XbbZl8lpl7X8MURjhNuBAOYwQziE
8p/bp/nfIpEX7SUYZtHHjEfdmgvj4SciU7VD
-----END CERTIFICATE-----

Certificate:
    Data:
        Version: 3 (0x2)
        Serial Number:
            27:66:ee:56:eb:49:f3:8e:ab:d7:70:a2:fc:84:de:22
    Signature Algorithm: sha384WithRSAEncryption
        Issuer: C=SE, O=AddTrust AB, OU=AddTrust External TTP Network, CN=AddTrust External CA Root
        Validity
            Not Before: May 30 10:48:38 2000 GMT
            Not After : May 30 10:48:38 2020 GMT
        Subject: C=GB, ST=Greater Manchester, L=Salford, O=COMODO CA Limited, CN=COMODO RSA Certification Authority
        Subject Public Key Info:
            Public Key Algorithm: rsaEncryption
                Public-Key: (4096 bit)
                Modulus:
                    00:91:e8:54:92:d2:0a:56:b1:ac:0d:24:dd:c5:cf:
                    44:67:74:99:2b:37:a3:7d:23:70:00:71:bc:53:df:
                    c4:fa:2a:12:8f:4b:7f:10:56:bd:9f:70:72:b7:61:
                    7f:c9:4b:0f:17:a7:3d:e3:b0:04:61:ee:ff:11:97:
                    c7:f4:86:3e:0a:fa:3e:5c:f9:93:e6:34:7a:d9:14:
                    6b:e7:9c:b3:85:a0:82:7a:76:af:71:90:d7:ec:fd:
                    0d:fa:9c:6c:fa:df:b0:82:f4:14:7e:f9:be:c4:a6:
                    2f:4f:7f:99:7f:b5:fc:67:43:72:bd:0c:00:d6:89:
                    eb:6b:2c:d3:ed:8f:98:1c:14:ab:7e:e5:e3:6e:fc:
                    d8:a8:e4:92:24:da:43:6b:62:b8:55:fd:ea:c1:bc:
                    6c:b6:8b:f3:0e:8d:9a:e4:9b:6c:69:99:f8:78:48:
                    30:45:d5:ad:e1:0d:3c:45:60:fc:32:96:51:27:bc:
                    67:c3:ca:2e:b6:6b:ea:46:c7:c7:20:a0:b1:1f:65:
                    de:48:08:ba:a4:4e:a9:f2:83:46:37:84:eb:e8:cc:
                    81:48:43:67:4e:72:2a:9b:5c:bd:4c:1b:28:8a:5c:
                    22:7b:b4:ab:98:d9:ee:e0:51:83:c3:09:46:4e:6d:
                    3e:99:fa:95:17:da:7c:33:57:41:3c:8d:51:ed:0b:
                    b6:5c:af:2c:63:1a:df:57:c8:3f:bc:e9:5d:c4:9b:
                    af:45:99:e2:a3:5a:24:b4:ba:a9:56:3d:cf:6f:aa:
                    ff:49:58:be:f0:a8:ff:f4:b8:ad:e9:37:fb:ba:b8:
                    f4:0b:3a:f9:e8:43:42:1e:89:d8:84:cb:13:f1:d9:
                    bb:e1:89:60:b8:8c:28:56:ac:14:1d:9c:0a:e7:71:
                    eb:cf:0e:dd:3d:a9:96:a1:48:bd:3c:f7:af:b5:0d:
                    22:4c:c0:11:81:ec:56:3b:f6:d3:a2:e2:5b:b7:b2:
                    04:22:52:95:80:93:69:e8:8e:4c:65:f1:91:03:2d:
                    70:74:02:ea:8b:67:15:29:69:52:02:bb:d7:df:50:
                    6a:55:46:bf:a0:a3:28:61:7f:70:d0:c3:a2:aa:2c:
                    21:aa:47:ce:28:9c:06:45:76:bf:82:18:27:b4:d5:
                    ae:b4:cb:50:e6:6b:f4:4c:86:71:30:e9:a6:df:16:
                    86:e0:d8:ff:40:dd:fb:d0:42:88:7f:a3:33:3a:2e:
                    5c:1e:41:11:81:63:ce:18:71:6b:2b:ec:a6:8a:b7:
                    31:5c:3a:6a:47:e0:c3:79:59:d6:20:1a:af:f2:6a:
                    98:aa:72:bc:57:4a:d2:4b:9d:bb:10:fc:b0:4c:41:
                    e5:ed:1d:3d:5e:28:9d:9c:cc:bf:b3:51:da:a7:47:
                    e5:84:53
                Exponent: 65537 (0x10001)
        X509v3 extensions:
            X509v3 Authority Key Identifier: 
                keyid:AD:BD:98:7A:34:B4:26:F7:FA:C4:26:54:EF:03:BD:E0:24:CB:54:1A

            X509v3 Subject Key Identifier: 
                BB:AF:7E:02:3D:FA:A6:F1:3C:84:8E:AD:EE:38:98:EC:D9:32:32:D4
            X509v3 Key Usage: critical
                Digital Signature, Certificate Sign, CRL Sign
            X509v3 Basic Constraints: critical
                CA:TRUE
            X509v3 Certificate Policies: 
                Policy: X509v3 Any Policy

            X509v3 CRL Distribution Points: 

                Full Name:
                  URI:http://crl.usertrust.com/AddTrustExternalCARoot.crl

            Authority Information Access: 
                OCSP - URI:http://ocsp.usertrust.com

    Signature Algorithm: sha384WithRSAEncryption
         64:bf:83:f1:5f:9a:85:d0:cd:b8:a1:29:57:0d:e8:5a:f7:d1:
         e9:3e:f2:76:04:6e:f1:52:70:bb:1e:3c:ff:4d:0d:74:6a:cc:
         81:82:25:d3:c3:a0:2a:5d:4c:f5:ba:8b:a1:6d:c4:54:09:75:
         c7:e3:27:0e:5d:84:79:37:40:13:77:f5:b4:ac:1c:d0:3b:ab:
         17:12:d6:ef:34:18:7e:2b:e9:79:d3:ab:57:45:0c:af:28:fa:
         d0:db:e5:50:95:88:bb:df:85:57:69:7d:92:d8:52:ca:73:81:
         bf:1c:f3:e6:b8:6e:66:11:05:b3:1e:94:2d:7f:91:95:92:59:
         f1:4c:ce:a3:91:71:4c:7c:47:0c:3b:0b:19:f6:a1:b1:6c:86:
         3e:5c:aa:c4:2e:82:cb:f9:07:96:ba:48:4d:90:f2:94:c8:a9:
         73:a2:eb:06:7b:23:9d:de:a2:f3:4d:55:9f:7a:61:45:98:18:
         68:c7:5e:40:6b:23:f5:79:7a:ef:8c:b5:6b:8b:b7:6f:46:f4:
         7b:f1:3d:4b:04:d8:93:80:59:5a:e0:41:24:1d:b2:8f:15:60:
         58:47:db:ef:6e:46:fd:15:f5:d9:5f:9a:b3:db:d8:b8:e4:40:
         b3:cd:97:39:ae:85:bb:1d:8e:bc:dc:87:9b:d1:a6:ef:f1:3b:
         6f:10:38:6f
-----BEGIN CERTIFICATE-----
MIIFdDCCBFygAwIBAgIQJ2buVutJ846r13Ci/ITeIjANBgkqhkiG9w0BAQwFADBv
MQswCQYDVQQGEwJTRTEUMBIGA1UEChMLQWRkVHJ1c3QgQUIxJjAkBgNVBAsTHUFk
ZFRydXN0IEV4dGVybmFsIFRUUCBOZXR3b3JrMSIwIAYDVQQDExlBZGRUcnVzdCBF
eHRlcm5hbCBDQSBSb290MB4XDTAwMDUzMDEwNDgzOFoXDTIwMDUzMDEwNDgzOFow
gYUxCzAJBgNVBAYTAkdCMRswGQYDVQQIExJHcmVhdGVyIE1hbmNoZXN0ZXIxEDAO
BgNVBAcTB1NhbGZvcmQxGjAYBgNVBAoTEUNPTU9ETyBDQSBMaW1pdGVkMSswKQYD
VQQDEyJDT01PRE8gUlNBIENlcnRpZmljYXRpb24gQXV0aG9yaXR5MIICIjANBgkq
hkiG9w0BAQEFAAOCAg8AMIICCgKCAgEAkehUktIKVrGsDSTdxc9EZ3SZKzejfSNw
AHG8U9/E+ioSj0t/EFa9n3Byt2F/yUsPF6c947AEYe7/EZfH9IY+Cvo+XPmT5jR6
2RRr55yzhaCCenavcZDX7P0N+pxs+t+wgvQUfvm+xKYvT3+Zf7X8Z0NyvQwA1onr
ayzT7Y+YHBSrfuXjbvzYqOSSJNpDa2K4Vf3qwbxstovzDo2a5JtsaZn4eEgwRdWt
4Q08RWD8MpZRJ7xnw8outmvqRsfHIKCxH2XeSAi6pE6p8oNGN4Tr6MyBSENnTnIq
m1y9TBsoilwie7SrmNnu4FGDwwlGTm0+mfqVF9p8M1dBPI1R7Qu2XK8sYxrfV8g/
vOldxJuvRZnio1oktLqpVj3Pb6r/SVi+8Kj/9Lit6Tf7urj0Czr56ENCHonYhMsT
8dm74YlguIwoVqwUHZwK53Hrzw7dPamWoUi9PPevtQ0iTMARgexWO/bTouJbt7IE
IlKVgJNp6I5MZfGRAy1wdALqi2cVKWlSArvX31BqVUa/oKMoYX9w0MOiqiwhqkfO
KJwGRXa/ghgntNWutMtQ5mv0TIZxMOmm3xaG4Nj/QN370EKIf6MzOi5cHkERgWPO
GHFrK+ymircxXDpqR+DDeVnWIBqv8mqYqnK8V0rSS527EPywTEHl7R09XiidnMy/
s1Hap0flhFMCAwEAAaOB9DCB8TAfBgNVHSMEGDAWgBStvZh6NLQm9/rEJlTvA73g
JMtUGjAdBgNVHQ4EFgQUu69+Aj36pvE8hI6t7jiY7NkyMtQwDgYDVR0PAQH/BAQD
AgGGMA8GA1UdEwEB/wQFMAMBAf8wEQYDVR0gBAowCDAGBgRVHSAAMEQGA1UdHwQ9
MDswOaA3oDWGM2h0dHA6Ly9jcmwudXNlcnRydXN0LmNvbS9BZGRUcnVzdEV4dGVy
bmFsQ0FSb290LmNybDA1BggrBgEFBQcBAQQpMCcwJQYIKwYBBQUHMAGGGWh0dHA6
Ly9vY3NwLnVzZXJ0cnVzdC5jb20wDQYJKoZIhvcNAQEMBQADggEBAGS/g/FfmoXQ
zbihKVcN6Fr30ek+8nYEbvFScLsePP9NDXRqzIGCJdPDoCpdTPW6i6FtxFQJdcfj
Jw5dhHk3QBN39bSsHNA7qxcS1u80GH4r6XnTq1dFDK8o+tDb5VCViLvfhVdpfZLY
Uspzgb8c8+a4bmYRBbMelC1/kZWSWfFMzqORcUx8Rww7Cxn2obFshj5cqsQugsv5
B5a6SE2Q8pTIqXOi6wZ7I53eovNNVZ96YUWYGGjHXkBrI/V5eu+MtWuLt29G9Hvx
PUsE2JOAWVrgQSQdso8VYFhH2+9uRv0V9dlfmrPb2LjkQLPNlzmuhbsdjrzch5vR
pu/xO28QOG8=
-----END CERTIFICATE-----

Certificate:
    Data:
        Version: 3 (0x2)
        Serial Number:
            2e:7c:87:cc:0e:93:4a:52:fe:94:fd:1c:b7:cd:34:af
    Signature Algorithm: sha384WithRSAEncryption
        Issuer: C=GB, ST=Greater Manchester, L=Salford, O=COMODO CA Limited, CN=COMODO RSA Certification Authority
        Validity
            Not Before: May  9 00:00:00 2013 GMT
            Not After : May  8 23:59:59 2028 GMT
        Subject: C=GB, ST=Greater Manchester, L=Salford, O=COMODO CA Limited, CN=COMODO RSA Code Signing CA
        Subject Public Key Info:
            Public Key Algorithm: rsaEncryption
                Public-Key: (2048 bit)
                Modulus:
                    00:a6:98:90:63:77:91:34:7f:8a:d1:dd:e9:67:31:
                    11:eb:cc:1e:fd:31:1d:b3:b9:62:57:3f:93:bc:5b:
                    e3:9f:1e:24:32:11:27:6b:bc:51:91:a7:cf:9e:9e:
                    25:b3:5f:81:a8:18:0f:1d:1e:20:30:0e:fb:61:7b:
                    86:09:b3:e3:fd:a2:68:9d:1c:2c:9d:bf:72:e3:e4:
                    75:a0:e5:35:23:8e:c9:8a:ee:1a:0c:64:c7:d8:42:
                    a1:7b:b5:52:03:4b:3a:b0:8e:23:4b:4b:63:e0:22:
                    94:37:7b:d5:79:90:0a:14:18:51:2c:e6:fe:c1:12:
                    f0:1c:3f:61:61:0a:8c:a2:dc:f6:c3:30:aa:cd:28:
                    18:75:48:c1:79:5a:08:cd:bb:8c:55:8c:f7:d4:76:
                    90:3a:33:46:50:73:98:5c:f4:85:4a:6b:0f:80:dd:
                    5e:d6:bd:fd:a9:2f:c0:25:f5:f9:78:d7:8d:5f:10:
                    c2:44:55:3c:90:3c:31:46:cb:70:ae:07:a9:0a:e3:
                    af:c1:01:6f:90:1a:23:e2:5f:38:db:c6:08:5d:47:
                    b3:83:41:f0:2e:00:37:14:b9:12:aa:79:92:52:cd:
                    87:0f:7b:d8:62:29:a4:7e:30:bd:1b:b5:8c:72:b4:
                    48:f2:e3:e8:21:f9:5e:4c:62:79:8b:02:06:9f:7f:
                    d5:0b
                Exponent: 65537 (0x10001)
        X509v3 extensions:
            X509v3 Authority Key Identifier: 
                keyid:BB:AF:7E:02:3D:FA:A6:F1:3C:84:8E:AD:EE:38:98:EC:D9:32:32:D4

            X509v3 Subject Key Identifier: 
                29:91:60:FF:8A:4D:FA:EB:F9:A6:6A:B8:CF:F9:E6:4B:BD:49:CE:12
            X509v3 Key Usage: critical
                Digital Signature, Certificate Sign, CRL Sign
            X509v3 Basic Constraints: critical
                CA:TRUE, pathlen:0
            X509v3 Extended Key Usage: 
                Code Signing
            X509v3 Certificate Policies: 
                Policy: X509v3 Any Policy

            X509v3 CRL Distribution Points: 

                Full Name:
                  URI:http://crl.comodoca.com/COMODORSACertificationAuthority.crl

            Authority Information Access: 
                CA Issuers - URI:http://crt.comodoca.com/COMODORSAAddTrustCA.crt
                OCSP - URI:http://ocsp.comodoca.com

    Signature Algorithm: sha384WithRSAEncryption
         02:3f:02:39:c3:ee:f8:ca:3b:89:de:0c:6d:4d:b1:f1:4e:92:
         4f:af:c2:38:2c:04:cc:c5:63:11:ab:09:63:af:ab:a2:d7:02:
         3f:cc:6f:19:c3:3d:d6:1a:08:94:ff:25:d8:a9:88:a7:2b:10:
         1a:e0:9b:b1:07:22:1a:51:1c:3a:d4:e1:e9:09:bf:e6:24:74:
         af:1e:7b:16:31:6e:23:ef:54:51:2d:52:02:e2:75:08:05:4c:
         f1:b7:51:e1:51:00:c6:87:f6:6c:ee:10:44:76:57:6a:f1:df:
         58:6b:21:aa:49:d4:7c:37:4e:bd:ff:b6:75:54:40:18:36:57:
         67:11:cd:4f:02:e4:fe:f3:da:fc:75:17:db:ec:b7:f7:65:09:
         23:49:1f:43:57:83:ea:7e:20:77:61:c8:4d:f2:bb:65:4d:a8:
         f7:85:45:07:af:7a:69:27:65:90:29:40:8b:df:7b:3a:51:39:
         8c:a8:1f:70:79:ad:6d:42:20:a2:cf:0c:6c:03:8c:4c:cd:73:
         07:94:e7:5a:8e:3a:04:ba:a2:a1:7c:1f:cb:63:3a:15:a7:d4:
         15:1b:a7:52:47:32:a9:f4:bf:64:47:d1:aa:1f:53:4e:32:30:
         73:c2:6f:b7:78:82:9d:5c:ff:46:bb:6b:22:1d:88:0b:f8:1b:
         aa:34:a6:fc:8c:f5:dd:7f:65:8c:8c:31:57:31:d0:36:ec:47:
         a1:cf:cb:8b:a8:ef:1c:18:58:c5:06:77:ca:4b:9b:51:af:4c:
         08:4a:7a:8f:e2:a3:52:e2:8e:8e:cc:26:e4:b2:d8:e5:38:c2:
         a8:ed:c6:81:9c:35:6b:a9:58:61:4a:0a:97:b4:4b:42:b6:55:
         9d:be:99:e7:70:6d:59:f8:6d:2a:0c:7f:19:60:5f:0c:9a:88:
         6c:30:ac:52:09:90:16:1b:ff:2b:9d:db:d0:20:ca:89:ea:28:
         7e:32:8e:19:df:7b:48:33:1e:d7:65:f8:ae:c9:f8:83:14:93:
         76:7d:64:d0:8e:ce:be:35:7d:ff:72:31:4d:9f:9e:bd:1e:6c:
         2f:a8:8f:0c:06:50:fb:8c:27:b3:76:c9:f4:e6:d7:c3:34:e2:
         8c:87:21:86:61:fe:bf:55:74:e1:21:77:03:0a:68:6c:bb:e4:
         c9:a9:e6:cf:59:25:eb:7c:ec:45:0e:79:66:68:e8:22:cd:b8:
         ef:98:85:4d:96:11:3c:09:8a:d0:7f:bc:28:28:13:fb:6a:ca:
         54:8d:92:5c:cd:c2:65:98:06:9e:ce:48:5b:d4:b5:37:93:46:
         41:7c:07:dd:cf:fa:43:ef:ba:67:61:ff:7d:49:e0:bb:30:7d:
         5c:80:e3:e6:16:39:4b:a7
-----BEGIN CERTIFICATE-----
MIIF4DCCA8igAwIBAgIQLnyHzA6TSlL+lP0ct800rzANBgkqhkiG9w0BAQwFADCB
hTELMAkGA1UEBhMCR0IxGzAZBgNVBAgTEkdyZWF0ZXIgTWFuY2hlc3RlcjEQMA4G
A1UEBxMHU2FsZm9yZDEaMBgGA1UEChMRQ09NT0RPIENBIExpbWl0ZWQxKzApBgNV
BAMTIkNPTU9ETyBSU0EgQ2VydGlmaWNhdGlvbiBBdXRob3JpdHkwHhcNMTMwNTA5
MDAwMDAwWhcNMjgwNTA4MjM1OTU5WjB9MQswCQYDVQQGEwJHQjEbMBkGA1UECBMS
R3JlYXRlciBNYW5jaGVzdGVyMRAwDgYDVQQHEwdTYWxmb3JkMRowGAYDVQQKExFD
T01PRE8gQ0EgTGltaXRlZDEjMCEGA1UEAxMaQ09NT0RPIFJTQSBDb2RlIFNpZ25p
bmcgQ0EwggEiMA0GCSqGSIb3DQEBAQUAA4IBDwAwggEKAoIBAQCmmJBjd5E0f4rR
3elnMRHrzB79MR2zuWJXP5O8W+OfHiQyESdrvFGRp8+eniWzX4GoGA8dHiAwDvth
e4YJs+P9omidHCydv3Lj5HWg5TUjjsmK7hoMZMfYQqF7tVIDSzqwjiNLS2PgIpQ3
e9V5kAoUGFEs5v7BEvAcP2FhCoyi3PbDMKrNKBh1SMF5WgjNu4xVjPfUdpA6M0ZQ
c5hc9IVKaw+A3V7Wvf2pL8Al9fl4141fEMJEVTyQPDFGy3CuB6kK46/BAW+QGiPi
XzjbxghdR7ODQfAuADcUuRKqeZJSzYcPe9hiKaR+ML0btYxytEjy4+gh+V5MYnmL
Agaff9ULAgMBAAGjggFRMIIBTTAfBgNVHSMEGDAWgBS7r34CPfqm8TyEjq3uOJjs
2TIy1DAdBgNVHQ4EFgQUKZFg/4pN+uv5pmq4z/nmS71JzhIwDgYDVR0PAQH/BAQD
AgGGMBIGA1UdEwEB/wQIMAYBAf8CAQAwEwYDVR0lBAwwCgYIKwYBBQUHAwMwEQYD
VR0gBAowCDAGBgRVHSAAMEwGA1UdHwRFMEMwQaA/oD2GO2h0dHA6Ly9jcmwuY29t
b2RvY2EuY29tL0NPTU9ET1JTQUNlcnRpZmljYXRpb25BdXRob3JpdHkuY3JsMHEG
CCsGAQUFBwEBBGUwYzA7BggrBgEFBQcwAoYvaHR0cDovL2NydC5jb21vZG9jYS5j
b20vQ09NT0RPUlNBQWRkVHJ1c3RDQS5jcnQwJAYIKwYBBQUHMAGGGGh0dHA6Ly9v
Y3NwLmNvbW9kb2NhLmNvbTANBgkqhkiG9w0BAQwFAAOCAgEAAj8COcPu+Mo7id4M
bU2x8U6ST6/COCwEzMVjEasJY6+rotcCP8xvGcM91hoIlP8l2KmIpysQGuCbsQci
GlEcOtTh6Qm/5iR0rx57FjFuI+9UUS1SAuJ1CAVM8bdR4VEAxof2bO4QRHZXavHf
WGshqknUfDdOvf+2dVRAGDZXZxHNTwLk/vPa/HUX2+y392UJI0kfQ1eD6n4gd2HI
TfK7ZU2o94VFB696aSdlkClAi997OlE5jKgfcHmtbUIgos8MbAOMTM1zB5TnWo46
BLqioXwfy2M6FafUFRunUkcyqfS/ZEfRqh9TTjIwc8Jvt3iCnVz/RrtrIh2IC/gb
qjSm/Iz13X9ljIwxVzHQNuxHoc/Li6jvHBhYxQZ3ykubUa9MCEp6j+KjUuKOjswm
5LLY5TjCqO3GgZw1a6lYYUoKl7RLQrZVnb6Z53BtWfhtKgx/GWBfDJqIbDCsUgmQ
Fhv/K53b0CDKieoofjKOGd97SDMe12X4rsn4gxSTdn1k0I7OvjV9/3IxTZ+evR5s
L6iPDAZQ+4wns3bJ9ObXwzTijIchhmH+v1V04SF3AwpobLvkyanmz1kl63zsRQ55
ZmjoIs2475iFTZYRPAmK0H+8KCgT+2rKVI2SXM3CZZgGns5IW9S1N5NGQXwH3c/6
Q++6Z2H/fUnguzB9XIDj5hY5S6c=
-----END CERTIFICATE-----

