Certificate:
    Data:
        Version: 3 (0x2)
        Serial Number:
            7e:93:eb:fb:7c:c6:4e:59:ea:4b:9a:77:d4:06:fc:3b
    Signature Algorithm: sha1WithRSAEncryption
        Issuer: C=ZA, ST=Western Cape, L=Durbanville, O=Thawte, OU=Thawte Certification, CN=Thawte Timestamping CA
        Validity
            Not Before: Dec 21 00:00:00 2012 GMT
            Not After : Dec 30 23:59:59 2020 GMT
        Subject: C=US, O=Symantec Corporation, CN=Symantec Time Stamping Services CA - G2
        Subject Public Key Info:
            Public Key Algorithm: rsaEncryption
                Public-Key: (2048 bit)
                Modulus:
                    00:b1:ac:b3:49:54:4b:97:1c:12:0a:d8:25:79:91:
                    22:57:2a:6f:dc:b8:26:c4:43:73:6b:c2:bf:2e:50:
                    5a:fb:14:c2:76:8e:43:01:25:43:b4:a1:e2:45:f4:
                    e8:b7:7b:c3:74:cc:22:d7:b4:94:00:02:f7:4d:ed:
                    bf:b4:b7:44:24:6b:cd:5f:45:3b:d1:44:ce:43:12:
                    73:17:82:8b:69:b4:2b:cb:99:1e:ac:72:1b:26:4d:
                    71:1f:b1:31:dd:fb:51:61:02:53:a6:aa:f5:49:2c:
                    05:78:45:a5:2f:89:ce:e7:99:e7:fe:8c:e2:57:3f:
                    3d:c6:92:dc:4a:f8:7b:33:e4:79:0a:fb:f0:75:88:
                    41:9c:ff:c5:03:51:99:aa:d7:6c:9f:93:69:87:65:
                    29:83:85:c2:60:14:c4:c8:c9:3b:14:da:c0:81:f0:
                    1f:0d:74:de:92:22:ab:ca:f7:fb:74:7c:27:e6:f7:
                    4a:1b:7f:a7:c3:9e:2d:ae:8a:ea:a6:e6:aa:27:16:
                    7d:61:f7:98:71:11:bc:e2:50:a1:4b:e5:5d:fa:e5:
                    0e:a7:2c:9f:aa:65:20:d3:d8:96:e8:c8:7c:a5:4e:
                    48:44:ff:19:e2:44:07:92:0b:d7:68:84:80:5d:6a:
                    78:64:45:cd:60:46:7e:54:c1:13:7c:c5:79:f1:c9:
                    c1:71
                Exponent: 65537 (0x10001)
        X509v3 extensions:
            X509v3 Subject Key Identifier: 
                5F:9A:F5:6E:5C:CC:CC:74:9A:D4:DD:7D:EF:3F:DB:EC:4C:80:2E:DD
            Authority Information Access: 
                OCSP - URI:http://ocsp.thawte.com

            X509v3 Basic Constraints: critical
                CA:TRUE, pathlen:0
            X509v3 CRL Distribution Points: 

                Full Name:
                  URI:http://crl.thawte.com/ThawteTimestampingCA.crl

            X509v3 Extended Key Usage: 
                Time Stamping
            X509v3 Key Usage: critical
                Certificate Sign, CRL Sign
            X509v3 Subject Alternative Name: 
                DirName:/CN=TimeStamp-2048-1
    Signature Algorithm: sha1WithRSAEncryption
         03:09:9b:8f:79:ef:7f:59:30:aa:ef:68:b5:fa:e3:09:1d:bb:
         4f:82:06:5d:37:5f:a6:52:9f:16:8d:ea:1c:92:09:44:6e:f5:
         6d:eb:58:7c:30:e8:f9:69:8d:23:73:0b:12:6f:47:a9:ae:39:
         11:f8:2a:b1:9b:b0:1a:c3:8e:eb:59:96:00:ad:ce:0c:4d:b2:
         d0:31:a6:08:5c:2a:7a:fc:e2:7a:1d:57:4c:a8:65:18:e9:79:
         40:62:25:96:6e:c7:c7:37:6a:83:21:08:8e:41:ea:dd:d9:57:
         3f:1d:77:49:87:2a:16:06:5e:a6:38:6a:22:12:a3:51:19:83:
         7e:b6
-----BEGIN CERTIFICATE-----
MIID7jCCA1egAwIBAgIQfpPr+3zGTlnqS5p31Ab8OzANBgkqhkiG9w0BAQUFADCB
izELMAkGA1UEBhMCWkExFTATBgNVBAgTDFdlc3Rlcm4gQ2FwZTEUMBIGA1UEBxML
RHVyYmFudmlsbGUxDzANBgNVBAoTBlRoYXd0ZTEdMBsGA1UECxMUVGhhd3RlIENl
cnRpZmljYXRpb24xHzAdBgNVBAMTFlRoYXd0ZSBUaW1lc3RhbXBpbmcgQ0EwHhcN
MTIxMjIxMDAwMDAwWhcNMjAxMjMwMjM1OTU5WjBeMQswCQYDVQQGEwJVUzEdMBsG
A1UEChMUU3ltYW50ZWMgQ29ycG9yYXRpb24xMDAuBgNVBAMTJ1N5bWFudGVjIFRp
bWUgU3RhbXBpbmcgU2VydmljZXMgQ0EgLSBHMjCCASIwDQYJKoZIhvcNAQEBBQAD
ggEPADCCAQoCggEBALGss0lUS5ccEgrYJXmRIlcqb9y4JsRDc2vCvy5QWvsUwnaO
QwElQ7Sh4kX06Ld7w3TMIte0lAAC903tv7S3RCRrzV9FO9FEzkMScxeCi2m0K8uZ
HqxyGyZNcR+xMd37UWECU6aq9UksBXhFpS+JzueZ5/6M4lc/PcaS3Er4ezPkeQr7
8HWIQZz/xQNRmarXbJ+TaYdlKYOFwmAUxMjJOxTawIHwHw103pIiq8r3+3R8J+b3
Sht/p8OeLa6K6qbmqicWfWH3mHERvOJQoUvlXfrlDqcsn6plINPYlujIfKVOSET/
GeJEB5IL12iEgF1qeGRFzWBGflTBE3zFefHJwXECAwEAAaOB+jCB9zAdBgNVHQ4E
FgQUX5r1blzMzHSa1N197z/b7EyALt0wMgYIKwYBBQUHAQEEJjAkMCIGCCsGAQUF
BzABhhZodHRwOi8vb2NzcC50aGF3dGUuY29tMBIGA1UdEwEB/wQIMAYBAf8CAQAw
PwYDVR0fBDgwNjA0oDKgMIYuaHR0cDovL2NybC50aGF3dGUuY29tL1RoYXd0ZVRp
bWVzdGFtcGluZ0NBLmNybDATBgNVHSUEDDAKBggrBgEFBQcDCDAOBgNVHQ8BAf8E
BAMCAQYwKAYDVR0RBCEwH6QdMBsxGTAXBgNVBAMTEFRpbWVTdGFtcC0yMDQ4LTEw
DQYJKoZIhvcNAQEFBQADgYEAAwmbj3nvf1kwqu9otfrjCR27T4IGXTdfplKfFo3q
HJIJRG71betYfDDo+WmNI3MLEm9Hqa45EfgqsZuwGsOO61mWAK3ODE2y0DGmCFwq
evzieh1XTKhlGOl5QGIllm7HxzdqgyEIjkHq3dlXPx13SYcqFgZepjhqIhKjURmD
frY=
-----END CERTIFICATE-----

Certificate:
    Data:
        Version: 3 (0x2)
        Serial Number:
            34:4e:d5:57:20:d5:ed:ec:49:f4:2f:ce:37:db:2b:6d
    Signature Algorithm: sha1WithRSAEncryption
        Issuer: C=US, O=thawte, Inc., OU=Certification Services Division, OU=(c) 2006 thawte, Inc. - For authorized use only, CN=thawte Primary Root CA
        Validity
            Not Before: Nov 17 00:00:00 2006 GMT
            Not After : Jul 16 23:59:59 2036 GMT
        Subject: C=US, O=thawte, Inc., OU=Certification Services Division, OU=(c) 2006 thawte, Inc. - For authorized use only, CN=thawte Primary Root CA
        Subject Public Key Info:
            Public Key Algorithm: rsaEncryption
                Public-Key: (2048 bit)
                Modulus:
                    00:ac:a0:f0:fb:80:59:d4:9c:c7:a4:cf:9d:a1:59:
                    73:09:10:45:0c:0d:2c:6e:68:f1:6c:5b:48:68:49:
                    59:37:fc:0b:33:19:c2:77:7f:cc:10:2d:95:34:1c:
                    e6:eb:4d:09:a7:1c:d2:b8:c9:97:36:02:b7:89:d4:
                    24:5f:06:c0:cc:44:94:94:8d:02:62:6f:eb:5a:dd:
                    11:8d:28:9a:5c:84:90:10:7a:0d:bd:74:66:2f:6a:
                    38:a0:e2:d5:54:44:eb:1d:07:9f:07:ba:6f:ee:e9:
                    fd:4e:0b:29:f5:3e:84:a0:01:f1:9c:ab:f8:1c:7e:
                    89:a4:e8:a1:d8:71:65:0d:a3:51:7b:ee:bc:d2:22:
                    60:0d:b9:5b:9d:df:ba:fc:51:5b:0b:af:98:b2:e9:
                    2e:e9:04:e8:62:87:de:2b:c8:d7:4e:c1:4c:64:1e:
                    dd:cf:87:58:ba:4a:4f:ca:68:07:1d:1c:9d:4a:c6:
                    d5:2f:91:cc:7c:71:72:1c:c5:c0:67:eb:32:fd:c9:
                    92:5c:94:da:85:c0:9b:bf:53:7d:2b:09:f4:8c:9d:
                    91:1f:97:6a:52:cb:de:09:36:a4:77:d8:7b:87:50:
                    44:d5:3e:6e:29:69:fb:39:49:26:1e:09:a5:80:7b:
                    40:2d:eb:e8:27:85:c9:fe:61:fd:7e:e6:7c:97:1d:
                    d5:9d
                Exponent: 65537 (0x10001)
        X509v3 extensions:
            X509v3 Basic Constraints: critical
                CA:TRUE
            X509v3 Key Usage: critical
                Certificate Sign, CRL Sign
            X509v3 Subject Key Identifier: 
                7B:5B:45:CF:AF:CE:CB:7A:FD:31:92:1A:6A:B6:F3:46:EB:57:48:50
    Signature Algorithm: sha1WithRSAEncryption
         79:11:c0:4b:b3:91:b6:fc:f0:e9:67:d4:0d:6e:45:be:55:e8:
         93:d2:ce:03:3f:ed:da:25:b0:1d:57:cb:1e:3a:76:a0:4c:ec:
         50:76:e8:64:72:0c:a4:a9:f1:b8:8b:d6:d6:87:84:bb:32:e5:
         41:11:c0:77:d9:b3:60:9d:eb:1b:d5:d1:6e:44:44:a9:a6:01:
         ec:55:62:1d:77:b8:5c:8e:48:49:7c:9c:3b:57:11:ac:ad:73:
         37:8e:2f:78:5c:90:68:47:d9:60:60:e6:fc:07:3d:22:20:17:
         c4:f7:16:e9:c4:d8:72:f9:c8:73:7c:df:16:2f:15:a9:3e:fd:
         6a:27:b6:a1:eb:5a:ba:98:1f:d5:e3:4d:64:0a:9d:13:c8:61:
         ba:f5:39:1c:87:ba:b8:bd:7b:22:7f:f6:fe:ac:40:79:e5:ac:
         10:6f:3d:8f:1b:79:76:8b:c4:37:b3:21:18:84:e5:36:00:eb:
         63:20:99:b9:e9:fe:33:04:bb:41:c8:c1:02:f9:44:63:20:9e:
         81:ce:42:d3:d6:3f:2c:76:d3:63:9c:59:dd:8f:a6:e1:0e:a0:
         2e:41:f7:2e:95:47:cf:bc:fd:33:f3:f6:0b:61:7e:7e:91:2b:
         81:47:c2:27:30:ee:a7:10:5d:37:8f:5c:39:2b:e4:04:f0:7b:
         8d:56:8c:68
-----BEGIN CERTIFICATE-----
MIIEIDCCAwigAwIBAgIQNE7VVyDV7exJ9C/ON9srbTANBgkqhkiG9w0BAQUFADCB
qTELMAkGA1UEBhMCVVMxFTATBgNVBAoTDHRoYXd0ZSwgSW5jLjEoMCYGA1UECxMf
Q2VydGlmaWNhdGlvbiBTZXJ2aWNlcyBEaXZpc2lvbjE4MDYGA1UECxMvKGMpIDIw
MDYgdGhhd3RlLCBJbmMuIC0gRm9yIGF1dGhvcml6ZWQgdXNlIG9ubHkxHzAdBgNV
BAMTFnRoYXd0ZSBQcmltYXJ5IFJvb3QgQ0EwHhcNMDYxMTE3MDAwMDAwWhcNMzYw
NzE2MjM1OTU5WjCBqTELMAkGA1UEBhMCVVMxFTATBgNVBAoTDHRoYXd0ZSwgSW5j
LjEoMCYGA1UECxMfQ2VydGlmaWNhdGlvbiBTZXJ2aWNlcyBEaXZpc2lvbjE4MDYG
A1UECxMvKGMpIDIwMDYgdGhhd3RlLCBJbmMuIC0gRm9yIGF1dGhvcml6ZWQgdXNl
IG9ubHkxHzAdBgNVBAMTFnRoYXd0ZSBQcmltYXJ5IFJvb3QgQ0EwggEiMA0GCSqG
SIb3DQEBAQUAA4IBDwAwggEKAoIBAQCsoPD7gFnUnMekz52hWXMJEEUMDSxuaPFs
W0hoSVk3/AszGcJ3f8wQLZU0HObrTQmnHNK4yZc2AreJ1CRfBsDMRJSUjQJib+ta
3RGNKJpchJAQeg29dGYvajig4tVUROsdB58Hum/u6f1OCyn1PoSgAfGcq/gcfomk
6KHYcWUNo1F77rzSImANuVud37r8UVsLr5iy6S7pBOhih94ryNdOwUxkHt3Ph1i6
Sk/KaAcdHJ1KxtUvkcx8cXIcxcBn6zL9yZJclNqFwJu/U30rCfSMnZEfl2pSy94J
NqR32HuHUETVPm4pafs5SSYeCaWAe0At6+gnhcn+Yf1+5nyXHdWdAgMBAAGjQjBA
MA8GA1UdEwEB/wQFMAMBAf8wDgYDVR0PAQH/BAQDAgEGMB0GA1UdDgQWBBR7W0XP
r87Lev0xkhpqtvNG61dIUDANBgkqhkiG9w0BAQUFAAOCAQEAeRHAS7ORtvzw6WfU
DW5FvlXok9LOAz/t2iWwHVfLHjp2oEzsUHboZHIMpKnxuIvW1oeEuzLlQRHAd9mz
YJ3rG9XRbkREqaYB7FViHXe4XI5ISXycO1cRrK1zN44veFyQaEfZYGDm/Ac9IiAX
xPcW6cTYcvnIc3zfFi8VqT79aie2oetaupgf1eNNZAqdE8hhuvU5HIe6uL17In/2
/qxAeeWsEG89jxt5dovEN7MhGITlNgDrYyCZuen+MwS7QcjBAvlEYyCegc5C09Y/
LHbTY5xZ3Y+m4Q6gLkH3LpVHz7z9M/P2C2F+fpErgUfCJzDupxBdN49cOSvkBPB7
jVaMaA==
-----END CERTIFICATE-----

Certificate:
    Data:
        Version: 3 (0x2)
        Serial Number:
            71:a0:b7:36:95:dd:b1:af:c2:3b:2b:9a:18:ee:54:cb
    Signature Algorithm: sha256WithRSAEncryption
        Issuer: C=US, O=thawte, Inc., OU=Certification Services Division, OU=(c) 2006 thawte, Inc. - For authorized use only, CN=thawte Primary Root CA
        Validity
            Not Before: Dec 10 00:00:00 2013 GMT
            Not After : Dec  9 23:59:59 2023 GMT
        Subject: C=US, O=thawte, Inc., CN=thawte SHA256 Code Signing CA
        Subject Public Key Info:
            Public Key Algorithm: rsaEncryption
                Public-Key: (2048 bit)
                Modulus:
                    00:9b:55:02:4c:17:05:e9:d0:66:c3:fc:28:ad:d3:
                    c0:fe:ef:e0:e9:7e:d4:1e:f6:aa:1b:91:46:fd:f5:
                    16:ed:98:07:53:fa:ba:87:1b:7d:9e:1f:01:27:ab:
                    b9:d2:67:ca:b7:10:25:53:f4:e3:be:9b:90:b8:ed:
                    23:5c:42:ef:64:25:58:e5:88:22:1a:be:f5:c7:ae:
                    f5:be:8a:b1:11:11:93:1a:22:a9:74:69:c1:74:b6:
                    68:87:a7:83:30:f9:64:f1:b1:e3:38:3e:f4:d6:c1:
                    fc:12:fe:73:57:17:35:57:8a:dd:50:8d:03:f8:66:
                    cd:ca:76:83:13:c8:d7:0e:71:1d:e4:63:c9:ba:17:
                    f8:d1:b9:e4:88:d2:2c:28:c8:21:20:0d:41:b7:0b:
                    e2:2f:c2:80:e6:88:7b:53:6c:c3:44:63:81:7f:68:
                    47:8c:2b:2a:cf:5b:f4:8c:49:61:ba:69:85:fd:6b:
                    00:78:05:26:69:13:30:80:38:4e:f1:5a:55:c9:c5:
                    50:d6:aa:38:89:47:43:5c:fe:4d:73:a5:49:c5:93:
                    69:fe:77:96:9a:af:f3:8c:0e:57:ba:33:d9:0e:c6:
                    42:d3:03:77:c4:bb:39:ad:91:f9:f3:f7:96:5c:3a:
                    64:a6:ed:27:57:c1:e8:40:f3:53:f2:be:29:34:fe:
                    5f:f9
                Exponent: 65537 (0x10001)
        X509v3 extensions:
            Authority Information Access: 
                OCSP - URI:http://t2.symcb.com

            X509v3 Basic Constraints: critical
                CA:TRUE, pathlen:0
            X509v3 CRL Distribution Points: 

                Full Name:
                  URI:http://t1.symcb.com/ThawtePCA.crl

            X509v3 Extended Key Usage: 
                TLS Web Client Authentication, Code Signing
            X509v3 Key Usage: critical
                Certificate Sign, CRL Sign
            X509v3 Subject Alternative Name: 
                DirName:/CN=SymantecPKI-1-568
            X509v3 Subject Key Identifier: 
                57:86:9B:54:B8:BE:A6:29:8A:E4:F6:C2:E2:13:18:89:85:CD:DC:B7
            X509v3 Authority Key Identifier: 
                keyid:7B:5B:45:CF:AF:CE:CB:7A:FD:31:92:1A:6A:B6:F3:46:EB:57:48:50

    Signature Algorithm: sha256WithRSAEncryption
         24:3b:f5:d7:a0:36:13:c7:43:fe:f0:09:87:68:d1:98:31:6e:
         12:e4:3f:1e:1f:96:7b:6b:4c:1e:87:9e:8b:c5:6c:a3:b1:0c:
         7b:50:92:d5:81:9c:b1:8f:2c:29:b7:ee:f9:91:05:b9:8e:41:
         f1:2c:f6:d0:59:2d:98:e0:b9:ea:80:01:47:40:95:b8:3d:9d:
         03:bd:79:bb:35:b6:ad:9c:4c:27:f6:67:45:10:c9:c5:bc:87:
         4e:55:7b:d2:87:bb:dd:dc:30:ef:c6:d4:6c:cc:99:35:6d:1c:
         e0:60:d3:cd:68:8f:29:59:4b:89:96:08:46:c9:8e:fc:75:4f:
         c5:dc:09:cc:4e:27:8b:44:cd:07:bc:ac:04:e0:b5:33:a5:87:
         9f:f4:dd:73:0c:91:ea:12:81:6f:e3:75:f0:1e:b5:93:6c:44:
         17:d5:3e:97:c9:bd:07:2c:56:77:1f:85:dd:46:e8:bf:de:2c:
         81:94:a3:f7:e5:b7:a7:c1:37:9f:75:ca:55:77:4d:5e:36:29:
         ca:85:d8:45:41:72:57:75:c0:79:5b:fa:34:10:06:6d:64:20:
         42:b7:3a:c8:1f:1d:46:64:02:5f:c6:47:be:f0:c4:3a:28:54:
         da:f6:1e:4f:9a:a2:19:43:a4:6f:49:f8:fc:5e:42:20:28:84:
         8b:47:20:6e
-----BEGIN CERTIFICATE-----
MIIEmTCCA4GgAwIBAgIQcaC3NpXdsa/COyuaGO5UyzANBgkqhkiG9w0BAQsFADCB
qTELMAkGA1UEBhMCVVMxFTATBgNVBAoTDHRoYXd0ZSwgSW5jLjEoMCYGA1UECxMf
Q2VydGlmaWNhdGlvbiBTZXJ2aWNlcyBEaXZpc2lvbjE4MDYGA1UECxMvKGMpIDIw
MDYgdGhhd3RlLCBJbmMuIC0gRm9yIGF1dGhvcml6ZWQgdXNlIG9ubHkxHzAdBgNV
BAMTFnRoYXd0ZSBQcmltYXJ5IFJvb3QgQ0EwHhcNMTMxMjEwMDAwMDAwWhcNMjMx
MjA5MjM1OTU5WjBMMQswCQYDVQQGEwJVUzEVMBMGA1UEChMMdGhhd3RlLCBJbmMu
MSYwJAYDVQQDEx10aGF3dGUgU0hBMjU2IENvZGUgU2lnbmluZyBDQTCCASIwDQYJ
KoZIhvcNAQEBBQADggEPADCCAQoCggEBAJtVAkwXBenQZsP8KK3TwP7v4Ol+1B72
qhuRRv31Fu2YB1P6uocbfZ4fASerudJnyrcQJVP0476bkLjtI1xC72QlWOWIIhq+
9ceu9b6KsRERkxoiqXRpwXS2aIengzD5ZPGx4zg+9NbB/BL+c1cXNVeK3VCNA/hm
zcp2gxPI1w5xHeRjyboX+NG55IjSLCjIISANQbcL4i/CgOaIe1Nsw0RjgX9oR4wr
Ks9b9IxJYbpphf1rAHgFJmkTMIA4TvFaVcnFUNaqOIlHQ1z+TXOlScWTaf53lpqv
84wOV7oz2Q7GQtMDd8S7Oa2R+fP3llw6ZKbtJ1fB6EDzU/K+KTT+X/kCAwEAAaOC
ARcwggETMC8GCCsGAQUFBwEBBCMwITAfBggrBgEFBQcwAYYTaHR0cDovL3QyLnN5
bWNiLmNvbTASBgNVHRMBAf8ECDAGAQH/AgEAMDIGA1UdHwQrMCkwJ6AloCOGIWh0
dHA6Ly90MS5zeW1jYi5jb20vVGhhd3RlUENBLmNybDAdBgNVHSUEFjAUBggrBgEF
BQcDAgYIKwYBBQUHAwMwDgYDVR0PAQH/BAQDAgEGMCkGA1UdEQQiMCCkHjAcMRow
GAYDVQQDExFTeW1hbnRlY1BLSS0xLTU2ODAdBgNVHQ4EFgQUV4abVLi+pimK5PbC
4hMYiYXN3LcwHwYDVR0jBBgwFoAUe1tFz6/Oy3r9MZIaarbzRutXSFAwDQYJKoZI
hvcNAQELBQADggEBACQ79degNhPHQ/7wCYdo0ZgxbhLkPx4flntrTB6HnovFbKOx
DHtQktWBnLGPLCm37vmRBbmOQfEs9tBZLZjgueqAAUdAlbg9nQO9ebs1tq2cTCf2
Z0UQycW8h05Ve9KHu93cMO/G1GzMmTVtHOBg081ojylZS4mWCEbJjvx1T8XcCcxO
J4tEzQe8rATgtTOlh5/03XMMkeoSgW/jdfAetZNsRBfVPpfJvQcsVncfhd1G6L/e
LIGUo/flt6fBN591ylV3TV42KcqF2EVBcld1wHlb+jQQBm1kIEK3OsgfHUZkAl/G
R77wxDooVNr2Hk+aohlDpG9J+PxeQiAohItHIG4=
-----END CERTIFICATE-----

Certificate:
    Data:
        Version: 3 (0x2)
        Serial Number:
            0e:cf:f4:38:c8:fe:bf:35:6e:04:d8:6a:98:1b:1a:50
    Signature Algorithm: sha1WithRSAEncryption
        Issuer: C=US, O=Symantec Corporation, CN=Symantec Time Stamping Services CA - G2
        Validity
            Not Before: Oct 18 00:00:00 2012 GMT
            Not After : Dec 29 23:59:59 2020 GMT
        Subject: C=US, O=Symantec Corporation, CN=Symantec Time Stamping Services Signer - G4
        Subject Public Key Info:
            Public Key Algorithm: rsaEncryption
                Public-Key: (2048 bit)
                Modulus:
                    00:a2:63:0b:39:44:b8:bb:23:a7:44:49:bb:0e:ff:
                    a1:f0:61:0a:53:93:b0:98:db:ad:2c:0f:4a:c5:6e:
                    ff:86:3c:53:55:0f:15:ce:04:3f:2b:fd:a9:96:96:
                    d9:be:61:79:0b:5b:c9:4c:86:76:e5:e0:43:4b:22:
                    95:ee:c2:2b:43:c1:9f:d8:68:b4:8e:40:4f:ee:85:
                    38:b9:11:c5:23:f2:64:58:f0:15:32:6f:4e:57:a1:
                    ae:88:a4:02:d7:2a:1e:cd:4b:e1:dd:63:d5:17:89:
                    32:5b:b0:5e:99:5a:a8:9d:28:50:0e:17:ee:96:db:
                    61:3b:45:51:1d:cf:12:56:0b:92:47:fc:ab:ae:f6:
                    66:3d:47:ac:70:72:e7:92:e7:5f:cd:10:b9:c4:83:
                    64:94:19:bd:25:80:e1:e8:d2:22:a5:d0:ba:02:7a:
                    a1:77:93:5b:65:c3:ee:17:74:bc:41:86:2a:dc:08:
                    4c:8c:92:8c:91:2d:9e:77:44:1f:68:d6:a8:74:77:
                    db:0e:5b:32:8b:56:8b:33:bd:d9:63:c8:49:9d:3a:
                    c5:c5:ea:33:0b:d2:f1:a3:1b:f4:8b:be:d9:b3:57:
                    8b:3b:de:04:a7:7a:22:b2:24:ae:2e:c7:70:c5:be:
                    4e:83:26:08:fb:0b:bd:a9:4f:99:08:e1:10:28:72:
                    aa:cd
                Exponent: 65537 (0x10001)
        X509v3 extensions:
            X509v3 Basic Constraints: critical
                CA:FALSE
            X509v3 Extended Key Usage: critical
                Time Stamping
            X509v3 Key Usage: critical
                Digital Signature
            Authority Information Access: 
                OCSP - URI:http://ts-ocsp.ws.symantec.com
                CA Issuers - URI:http://ts-aia.ws.symantec.com/tss-ca-g2.cer

            X509v3 CRL Distribution Points: 

                Full Name:
                  URI:http://ts-crl.ws.symantec.com/tss-ca-g2.crl

            X509v3 Subject Alternative Name: 
                DirName:/CN=TimeStamp-2048-2
            X509v3 Subject Key Identifier: 
                46:C6:69:A3:0E:4A:14:1E:D5:4C:DA:52:63:17:3F:5E:36:BC:0D:E6
            X509v3 Authority Key Identifier: 
                keyid:5F:9A:F5:6E:5C:CC:CC:74:9A:D4:DD:7D:EF:3F:DB:EC:4C:80:2E:DD

    Signature Algorithm: sha1WithRSAEncryption
         78:3b:b4:91:2a:00:4c:f0:8f:62:30:37:78:a3:84:27:07:6f:
         18:b2:de:25:dc:a0:d4:94:03:aa:86:4e:25:9f:9a:40:03:1c:
         dd:ce:e3:79:cb:21:68:06:da:b6:32:b4:6d:bf:f4:2c:26:63:
         33:e4:49:64:6d:0d:e6:c3:67:0e:f7:05:a4:35:6c:7c:89:16:
         c6:e9:b2:df:b2:e9:dd:20:c6:71:0f:cd:95:74:dc:b6:5c:de:
         bd:37:1f:43:78:e6:78:b5:cd:28:04:20:a3:aa:f1:4b:c4:88:
         29:91:0e:80:d1:11:fc:dd:5c:76:6e:4f:5e:0e:45:46:41:6e:
         0d:b0:ea:38:9a:b1:3a:da:09:71:10:fc:1c:79:b4:80:7b:ac:
         69:f4:fd:9c:b6:0c:16:2b:f1:7f:5b:09:3d:9b:5b:e2:16:ca:
         13:81:6d:00:2e:38:0d:a8:29:8f:2c:e1:b2:f4:5a:a9:01:af:
         15:9c:2c:2f:49:1b:db:22:bb:c3:fe:78:94:51:c3:86:b1:82:
         88:5d:f0:3d:b4:51:a1:79:33:2b:2e:7b:b9:dc:20:09:13:71:
         eb:6a:19:5b:cf:e8:a5:30:57:2c:89:49:3f:b9:cf:7f:c9:bf:
         3e:22:68:63:53:9a:bd:69:74:ac:c5:1d:3c:7f:92:e0:c3:bc:
         1c:d8:04:75
-----BEGIN CERTIFICATE-----
MIIEozCCA4ugAwIBAgIQDs/0OMj+vzVuBNhqmBsaUDANBgkqhkiG9w0BAQUFADBe
MQswCQYDVQQGEwJVUzEdMBsGA1UEChMUU3ltYW50ZWMgQ29ycG9yYXRpb24xMDAu
BgNVBAMTJ1N5bWFudGVjIFRpbWUgU3RhbXBpbmcgU2VydmljZXMgQ0EgLSBHMjAe
Fw0xMjEwMTgwMDAwMDBaFw0yMDEyMjkyMzU5NTlaMGIxCzAJBgNVBAYTAlVTMR0w
GwYDVQQKExRTeW1hbnRlYyBDb3Jwb3JhdGlvbjE0MDIGA1UEAxMrU3ltYW50ZWMg
VGltZSBTdGFtcGluZyBTZXJ2aWNlcyBTaWduZXIgLSBHNDCCASIwDQYJKoZIhvcN
AQEBBQADggEPADCCAQoCggEBAKJjCzlEuLsjp0RJuw7/ofBhClOTsJjbrSwPSsVu
/4Y8U1UPFc4EPyv9qZaW2b5heQtbyUyGduXgQ0sile7CK0PBn9hotI5AT+6FOLkR
xSPyZFjwFTJvTlehroikAtcqHs1L4d1j1ReJMluwXplaqJ0oUA4X7pbbYTtFUR3P
ElYLkkf8q672Zj1HrHBy55LnX80QucSDZJQZvSWA4ejSIqXQugJ6oXeTW2XD7hd0
vEGGKtwITIySjJEtnndEH2jWqHR32w5bMotWizO92WPISZ06xcXqMwvS8aMb9Iu+
2bNXizveBKd6IrIkri7HcMW+ToMmCPsLvalPmQjhEChyqs0CAwEAAaOCAVcwggFT
MAwGA1UdEwEB/wQCMAAwFgYDVR0lAQH/BAwwCgYIKwYBBQUHAwgwDgYDVR0PAQH/
BAQDAgeAMHMGCCsGAQUFBwEBBGcwZTAqBggrBgEFBQcwAYYeaHR0cDovL3RzLW9j
c3Aud3Muc3ltYW50ZWMuY29tMDcGCCsGAQUFBzAChitodHRwOi8vdHMtYWlhLndz
LnN5bWFudGVjLmNvbS90c3MtY2EtZzIuY2VyMDwGA1UdHwQ1MDMwMaAvoC2GK2h0
dHA6Ly90cy1jcmwud3Muc3ltYW50ZWMuY29tL3Rzcy1jYS1nMi5jcmwwKAYDVR0R
BCEwH6QdMBsxGTAXBgNVBAMTEFRpbWVTdGFtcC0yMDQ4LTIwHQYDVR0OBBYEFEbG
aaMOShQe1UzaUmMXP142vA3mMB8GA1UdIwQYMBaAFF+a9W5czMx0mtTdfe8/2+xM
gC7dMA0GCSqGSIb3DQEBBQUAA4IBAQB4O7SRKgBM8I9iMDd4o4QnB28Yst4l3KDU
lAOqhk4ln5pAAxzdzuN5yyFoBtq2MrRtv/QsJmMz5ElkbQ3mw2cO9wWkNWx8iRbG
6bLfsundIMZxD82VdNy2XN69Nx9DeOZ4tc0oBCCjqvFLxIgpkQ6A0RH83Vx2bk9e
DkVGQW4NsOo4mrE62glxEPwcebSAe6xp9P2ctgwWK/F/Wwk9m1viFsoTgW0ALjgN
qCmPLOGy9FqpAa8VnCwvSRvbIrvD/niUUcOGsYKIXfA9tFGheTMrLnu53CAJE3Hr
ahlbz+ilMFcsiUk/uc9/yb8+ImhjU5q9aXSsxR08f5Lgw7wc2AR1
-----END CERTIFICATE-----

Certificate:
    Data:
        Version: 3 (0x2)
        Serial Number:
            32:0e:7e:44:e9:37:4d:33:c5:54:e6:49:a3:74:37:08
    Signature Algorithm: sha256WithRSAEncryption
        Issuer: C=US, O=thawte, Inc., CN=thawte SHA256 Code Signing CA
        Validity
            Not Before: May 28 00:00:00 2015 GMT
            Not After : May 27 23:59:59 2017 GMT
        Subject: C=KR, ST=Gyeonggi-do, L=Seongnam-si, O=Irongate Inc, CN=Irongate Inc
        Subject Public Key Info:
            Public Key Algorithm: rsaEncryption
                Public-Key: (2048 bit)
                Modulus:
                    00:b0:39:ef:93:5a:cd:67:08:42:4f:ee:92:f7:2a:
                    c2:6a:d6:e5:31:a5:e8:6f:06:73:6a:e2:aa:42:14:
                    22:dc:6b:d0:3c:fb:63:37:4e:3d:16:a7:19:68:cd:
                    f3:0a:70:b6:10:2b:30:ac:aa:30:46:c9:bf:90:ea:
                    b3:13:59:40:e6:d9:ee:f3:5a:6f:f8:af:ae:e4:ad:
                    51:e5:18:9d:fc:0d:26:32:52:54:5b:3f:53:fb:97:
                    9e:e7:cc:d2:42:68:88:11:55:c1:13:dc:e8:a3:cd:
                    36:17:63:95:42:7c:4d:97:ac:23:1e:22:a8:36:b6:
                    7b:99:55:78:36:8f:37:6b:3b:2b:42:04:18:57:fa:
                    cd:c1:fc:ca:8d:d0:bc:66:c3:91:52:01:1b:da:d1:
                    83:d4:a0:99:a2:5c:78:bd:46:e9:f9:b2:e8:8b:ea:
                    4b:69:ad:d8:8b:cc:d4:7b:cb:40:21:4b:85:e9:b7:
                    9f:bb:67:f2:bd:ea:51:e0:96:7f:46:24:05:c5:3a:
                    98:9d:34:36:b3:b2:9e:9a:ec:e8:24:e4:84:65:de:
                    d7:23:95:1d:3b:68:15:9e:ba:95:3e:19:07:0c:b4:
                    5b:15:00:40:f6:ad:a3:56:07:04:68:e3:7b:ed:19:
                    74:f5:97:04:08:64:3a:95:77:dc:00:5e:2b:20:7b:
                    e5:bf
                Exponent: 65537 (0x10001)
        X509v3 extensions:
            X509v3 Basic Constraints: 
                CA:FALSE
            X509v3 Authority Key Identifier: 
                keyid:57:86:9B:54:B8:BE:A6:29:8A:E4:F6:C2:E2:13:18:89:85:CD:DC:B7

            X509v3 Subject Key Identifier: 
                99:05:DD:2F:CD:9E:C0:02:44:F8:B9:99:D1:D7:0D:2E:93:47:58:A2
            X509v3 CRL Distribution Points: 

                Full Name:
                  URI:http://tl.symcb.com/tl.crl

            X509v3 Key Usage: critical
                Digital Signature
            X509v3 Extended Key Usage: 
                Code Signing
            X509v3 Certificate Policies: 
                Policy: 2.16.840.1.113733.1.7.48.2
                  CPS: https://www.thawte.com/cps
                  User Notice:
                    Explicit Text: https://www.thawte.com/repository

            2.5.29.4: 
                0.0.0..
+.....7.......
            Authority Information Access: 
                OCSP - URI:http://tl.symcd.com
                CA Issuers - URI:http://tl.symcb.com/tl.crt

    Signature Algorithm: sha256WithRSAEncryption
         0a:c7:5b:00:46:01:8e:4d:5e:6e:db:7f:b1:6e:14:06:dc:4e:
         07:42:5d:f4:79:79:6e:c0:b6:97:1b:7a:ce:63:f3:78:ae:67:
         5d:98:0f:24:d6:de:86:bd:b3:5d:93:6b:84:b6:c6:85:c1:c7:
         ff:96:c3:d3:b8:11:fc:4f:71:f0:77:b5:4d:af:50:fd:76:52:
         17:0a:9d:83:da:3f:ed:23:0f:e7:d8:c6:0d:54:0e:b7:e3:34:
         8a:91:32:23:50:31:2e:28:a6:1f:5b:e4:66:39:84:81:e7:47:
         65:bf:73:79:eb:c1:cc:e4:8e:c7:73:83:d8:42:69:33:1a:53:
         25:0e:c2:7b:5b:7d:ed:41:fb:20:08:68:62:67:39:e2:ca:89:
         0f:8c:1f:66:86:68:c1:20:47:10:03:91:5b:6b:04:a2:27:f2:
         a8:79:1f:a9:f8:1d:ea:4f:c0:47:a0:69:07:8c:e7:48:19:14:
         46:1c:a2:5b:37:e1:a1:fb:36:9a:f0:2e:a5:89:a8:f8:c2:6a:
         cb:ac:9d:41:ee:1b:04:85:0e:d8:b1:cf:f0:af:4f:19:7a:c4:
         b0:53:ff:0a:ad:2b:ee:b9:30:36:52:e6:57:30:c0:6e:80:11:
         fc:6f:e1:bd:e6:04:f3:b4:0c:19:8c:22:22:b2:f9:97:67:e6:
         24:a2:c8:87
-----BEGIN CERTIFICATE-----
MIIEzTCCA7WgAwIBAgIQMg5+ROk3TTPFVOZJo3Q3CDANBgkqhkiG9w0BAQsFADBM
MQswCQYDVQQGEwJVUzEVMBMGA1UEChMMdGhhd3RlLCBJbmMuMSYwJAYDVQQDEx10
aGF3dGUgU0hBMjU2IENvZGUgU2lnbmluZyBDQTAeFw0xNTA1MjgwMDAwMDBaFw0x
NzA1MjcyMzU5NTlaMGcxCzAJBgNVBAYTAktSMRQwEgYDVQQIEwtHeWVvbmdnaS1k
bzEUMBIGA1UEBxQLU2VvbmduYW0tc2kxFTATBgNVBAoUDElyb25nYXRlIEluYzEV
MBMGA1UEAxQMSXJvbmdhdGUgSW5jMIIBIjANBgkqhkiG9w0BAQEFAAOCAQ8AMIIB
CgKCAQEAsDnvk1rNZwhCT+6S9yrCatblMaXobwZzauKqQhQi3GvQPPtjN049FqcZ
aM3zCnC2ECswrKowRsm/kOqzE1lA5tnu81pv+K+u5K1R5Rid/A0mMlJUWz9T+5ee
58zSQmiIEVXBE9zoo802F2OVQnxNl6wjHiKoNrZ7mVV4No83azsrQgQYV/rNwfzK
jdC8ZsORUgEb2tGD1KCZolx4vUbp+bLoi+pLaa3Yi8zUe8tAIUuF6befu2fyvepR
4JZ/RiQFxTqYnTQ2s7KemuzoJOSEZd7XI5UdO2gVnrqVPhkHDLRbFQBA9q2jVgcE
aON77Rl09ZcECGQ6lXfcAF4rIHvlvwIDAQABo4IBjjCCAYowCQYDVR0TBAIwADAf
BgNVHSMEGDAWgBRXhptUuL6mKYrk9sLiExiJhc3ctzAdBgNVHQ4EFgQUmQXdL82e
wAJE+LmZ0dcNLpNHWKIwKwYDVR0fBCQwIjAgoB6gHIYaaHR0cDovL3RsLnN5bWNi
LmNvbS90bC5jcmwwDgYDVR0PAQH/BAQDAgeAMBMGA1UdJQQMMAoGCCsGAQUFBwMD
MHMGA1UdIARsMGowaAYLYIZIAYb4RQEHMAIwWTAmBggrBgEFBQcCARYaaHR0cHM6
Ly93d3cudGhhd3RlLmNvbS9jcHMwLwYIKwYBBQUHAgIwIwwhaHR0cHM6Ly93d3cu
dGhhd3RlLmNvbS9yZXBvc2l0b3J5MB0GA1UdBAQWMBQwDjAMBgorBgEEAYI3AgEW
AwIHgDBXBggrBgEFBQcBAQRLMEkwHwYIKwYBBQUHMAGGE2h0dHA6Ly90bC5zeW1j
ZC5jb20wJgYIKwYBBQUHMAKGGmh0dHA6Ly90bC5zeW1jYi5jb20vdGwuY3J0MA0G
CSqGSIb3DQEBCwUAA4IBAQAKx1sARgGOTV5u23+xbhQG3E4HQl30eXluwLaXG3rO
Y/N4rmddmA8k1t6GvbNdk2uEtsaFwcf/lsPTuBH8T3Hwd7VNr1D9dlIXCp2D2j/t
Iw/n2MYNVA634zSKkTIjUDEuKKYfW+RmOYSB50dlv3N568HM5I7Hc4PYQmkzGlMl
DsJ7W33tQfsgCGhiZzniyokPjB9mhmjBIEcQA5FbawSiJ/KoeR+p+B3qT8BHoGkH
jOdIGRRGHKJbN+Gh+zaa8C6liaj4wmrLrJ1B7hsEhQ7Ysc/wr08ZesSwU/8KrSvu
uTA2UuZXMMBugBH8b+G95gTztAwZjCIisvmXZ+YkosiH
-----END CERTIFICATE-----

