Certificate:
    Data:
        Version: 3 (0x2)
        Serial Number:
            9f:ea:c8:11:b0:f1:62:47:a5:fc:20:d8:05:23:ac:e6
    Signature Algorithm: sha1WithRSAEncryption
        Issuer: C=US, ST=UT, L=Salt Lake City, O=The USERTRUST Network, OU=http://www.usertrust.com, CN=UTN-USERFirst-Object
        Validity
            Not Before: May  5 00:00:00 2015 GMT
            Not After : Dec 31 23:59:59 2015 GMT
        Subject: C=GB, ST=Greater Manchester, L=Salford, O=COMODO CA Limited, CN=COMODO Time Stamping Signer
        Subject Public Key Info:
            Public Key Algorithm: rsaEncryption
                Public-Key: (2048 bit)
                Modulus:
                    00:bc:35:a0:36:70:22:81:11:c3:b2:83:b9:d3:28:
                    c6:36:cd:25:6b:a9:7b:b2:1c:f6:9b:51:9c:ef:35:
                    f4:ed:08:8e:5e:38:08:f8:77:3c:0a:42:e0:f3:70:
                    dc:a3:d7:ca:f5:4c:0b:cf:ff:22:9c:0a:7e:68:d6:
                    09:a2:2a:84:7b:a6:9d:b4:a9:c1:33:e2:ef:1f:17:
                    48:ca:3a:cd:46:e6:c5:aa:77:bd:e3:77:9a:fa:47:
                    53:40:28:59:43:93:f1:a4:81:ea:ef:80:b5:4f:a7:
                    08:ce:ba:6e:bc:ca:76:0c:97:64:59:86:24:bb:3d:
                    82:90:a8:55:b1:92:d3:a0:a7:05:ac:9f:53:25:08:
                    10:47:99:cd:98:de:68:e5:b4:50:78:a3:af:01:cc:
                    59:43:58:e4:76:6e:7e:ac:c7:e2:9e:1f:4f:b0:47:
                    2d:c8:0c:a3:49:27:80:75:8c:bb:06:91:65:0f:90:
                    9b:f4:ba:d1:81:c8:5c:6a:ec:14:e9:25:09:bf:23:
                    16:f4:95:46:40:40:21:bb:83:96:fd:86:1f:7a:c8:
                    0d:10:8e:a2:f8:19:07:58:7f:9f:bd:37:02:60:f2:
                    a4:e9:9d:44:3f:30:05:e4:a7:70:99:51:9a:e8:17:
                    f1:55:ca:b2:61:89:65:46:a7:6a:f2:58:46:7e:aa:
                    a0:07
                Exponent: 65537 (0x10001)
        X509v3 extensions:
            X509v3 Authority Key Identifier: 
                keyid:DA:ED:64:74:14:9C:14:3C:AB:DD:99:A9:BD:5B:28:4D:8B:3C:C9:D8

            X509v3 Subject Key Identifier: 
                2E:2D:B0:0A:44:4A:D3:87:C0:02:07:CE:97:7D:50:62:20:FD:0F:83
            X509v3 Key Usage: critical
                Digital Signature, Non Repudiation
            X509v3 Basic Constraints: critical
                CA:FALSE
            X509v3 Extended Key Usage: critical
                Time Stamping
            X509v3 CRL Distribution Points: 

                Full Name:
                  URI:http://crl.usertrust.com/UTN-USERFirst-Object.crl

            Authority Information Access: 
                OCSP - URI:http://ocsp.usertrust.com

    Signature Algorithm: sha1WithRSAEncryption
         0d:bb:ad:60:11:1b:b5:f0:0d:cc:e6:48:3a:7a:3e:0e:33:dc:
         1c:b9:ea:d6:20:fe:a3:4d:d0:cc:76:4e:e8:18:d8:79:df:d3:
         4f:9a:42:64:23:8a:29:72:8a:3a:6c:66:a6:3c:3a:17:a8:70:
         45:65:c6:73:c3:d0:ce:89:54:fb:ac:69:0f:58:b0:19:cb:86:
         9f:7e:b9:7e:eb:51:92:bf:9b:dd:eb:d1:65:f0:25:7b:88:7c:
         de:bd:a5:c8:b5:14:51:bc:c0:81:30:8a:85:38:7b:e6:79:fe:
         67:55:93:87:fe:4f:e8:8d:0e:ed:f3:72:92:b5:c2:89:80:6d:
         d1:59:e3:1d:0d:ea:b1:38:ee:03:9d:00:19:a5:ab:21:9b:79:
         c3:cc:c2:3e:68:7e:bd:c9:4d:69:4d:b4:64:51:fb:b2:28:74:
         e2:53:89:ce:9d:fa:ad:e2:db:ce:ab:7b:7e:06:44:74:fd:0a:
         a3:c9:b7:a7:30:cd:49:d2:92:64:f1:22:a6:b8:28:45:74:79:
         e9:a7:ce:3b:33:f9:83:50:94:7d:68:c0:1d:49:c7:60:78:7a:
         3c:64:26:d5:be:fa:0a:6d:e4:1e:e1:09:53:8f:a9:c5:23:ac:
         c7:9d:61:42:21:f0:2c:16:71:49:3b:10:af:2c:6f:1a:e6:31:
         f1:14:fd:6c
-----BEGIN CERTIFICATE-----
MIIElDCCA3ygAwIBAgIRAJ/qyBGw8WJHpfwg2AUjrOYwDQYJKoZIhvcNAQEFBQAw
gZUxCzAJBgNVBAYTAlVTMQswCQYDVQQIEwJVVDEXMBUGA1UEBxMOU2FsdCBMYWtl
IENpdHkxHjAcBgNVBAoTFVRoZSBVU0VSVFJVU1QgTmV0d29yazEhMB8GA1UECxMY
aHR0cDovL3d3dy51c2VydHJ1c3QuY29tMR0wGwYDVQQDExRVVE4tVVNFUkZpcnN0
LU9iamVjdDAeFw0xNTA1MDUwMDAwMDBaFw0xNTEyMzEyMzU5NTlaMH4xCzAJBgNV
BAYTAkdCMRswGQYDVQQIExJHcmVhdGVyIE1hbmNoZXN0ZXIxEDAOBgNVBAcTB1Nh
bGZvcmQxGjAYBgNVBAoTEUNPTU9ETyBDQSBMaW1pdGVkMSQwIgYDVQQDExtDT01P
RE8gVGltZSBTdGFtcGluZyBTaWduZXIwggEiMA0GCSqGSIb3DQEBAQUAA4IBDwAw
ggEKAoIBAQC8NaA2cCKBEcOyg7nTKMY2zSVrqXuyHPabUZzvNfTtCI5eOAj4dzwK
QuDzcNyj18r1TAvP/yKcCn5o1gmiKoR7pp20qcEz4u8fF0jKOs1G5sWqd73jd5r6
R1NAKFlDk/GkgervgLVPpwjOum68ynYMl2RZhiS7PYKQqFWxktOgpwWsn1MlCBBH
mc2Y3mjltFB4o68BzFlDWOR2bn6sx+KeH0+wRy3IDKNJJ4B1jLsGkWUPkJv0utGB
yFxq7BTpJQm/Ixb0lUZAQCG7g5b9hh96yA0QjqL4GQdYf5+9NwJg8qTpnUQ/MAXk
p3CZUZroF/FVyrJhiWVGp2ryWEZ+qqAHAgMBAAGjgfQwgfEwHwYDVR0jBBgwFoAU
2u1kdBScFDyr3ZmpvVsoTYs8ydgwHQYDVR0OBBYEFC4tsApEStOHwAIHzpd9UGIg
/Q+DMA4GA1UdDwEB/wQEAwIGwDAMBgNVHRMBAf8EAjAAMBYGA1UdJQEB/wQMMAoG
CCsGAQUFBwMIMEIGA1UdHwQ7MDkwN6A1oDOGMWh0dHA6Ly9jcmwudXNlcnRydXN0
LmNvbS9VVE4tVVNFUkZpcnN0LU9iamVjdC5jcmwwNQYIKwYBBQUHAQEEKTAnMCUG
CCsGAQUFBzABhhlodHRwOi8vb2NzcC51c2VydHJ1c3QuY29tMA0GCSqGSIb3DQEB
BQUAA4IBAQANu61gERu18A3M5kg6ej4OM9wcuerWIP6jTdDMdk7oGNh539NPmkJk
I4opcoo6bGamPDoXqHBFZcZzw9DOiVT7rGkPWLAZy4affrl+61GSv5vd69Fl8CV7
iHzevaXItRRRvMCBMIqFOHvmef5nVZOH/k/ojQ7t83KStcKJgG3RWeMdDeqxOO4D
nQAZpashm3nDzMI+aH69yU1pTbRkUfuyKHTiU4nOnfqt4tvOq3t+BkR0/Qqjyben
MM1J0pJk8SKmuChFdHnpp847M/mDUJR9aMAdScdgeHo8ZCbVvvoKbeQe4QlTj6nF
I6zHnWFCIfAsFnFJOxCvLG8a5jHxFP1s
-----END CERTIFICATE-----

Certificate:
    Data:
        Version: 3 (0x2)
        Serial Number:
            0b:d5:69:be:4f:0d:9c:93:2e:44:fb:2f:c9:ce:de:a7
    Signature Algorithm: sha1WithRSAEncryption
        Issuer: C=GB, ST=Greater Manchester, L=Salford, O=COMODO CA Limited, CN=COMODO Code Signing CA 2
        Validity
            Not Before: May 17 00:00:00 2013 GMT
            Not After : May 16 23:59:59 2016 GMT
        Subject: C=CA/postalCode=M5E1W7, ST=Ontario, L=Toronto/street=1 Yonge Street Suite 1801, O=AgileBits Inc., CN=AgileBits Inc.
        Subject Public Key Info:
            Public Key Algorithm: rsaEncryption
                Public-Key: (2048 bit)
                Modulus:
                    00:c2:3b:79:b9:cd:f7:82:ba:6d:44:ec:b0:20:12:
                    92:1e:38:c8:0e:30:97:c1:aa:9b:f1:ee:19:f7:a0:
                    8a:87:38:4f:01:a8:fb:8b:63:f5:41:7c:0f:50:36:
                    ef:ad:3b:14:ae:5d:5e:9b:17:54:7c:be:79:23:7c:
                    4b:a6:70:b0:a1:8b:51:70:4e:67:3a:1c:af:df:73:
                    b0:ea:2e:54:c6:80:46:c4:77:c6:5b:ea:91:c9:9b:
                    03:89:da:f8:b7:ca:cb:0a:6d:d7:c8:b2:9b:b9:c8:
                    35:b1:9d:cb:9c:f4:d7:3f:1a:3e:55:d1:3f:24:6e:
                    3f:d7:13:2d:19:bc:0d:fe:fa:ea:1c:bd:91:82:3a:
                    1f:9a:2c:f3:52:56:b6:e6:e9:ea:86:08:83:af:45:
                    52:bf:ab:30:e6:ff:53:d0:46:51:a2:65:e4:25:c5:
                    8a:9a:7b:12:6a:97:a3:c4:54:48:22:ab:3f:74:f7:
                    8c:8b:ec:0a:b5:67:a5:73:8c:f2:9f:34:59:b4:ed:
                    4a:b6:79:b5:53:c3:a1:11:38:10:d0:26:ae:9d:34:
                    3d:d0:16:cc:0e:9c:69:26:68:53:a1:ac:b6:c8:1e:
                    cc:4b:06:07:76:ea:c6:ab:c2:e6:4f:88:be:74:fb:
                    ad:9f:2a:81:d0:25:c1:2d:39:8a:34:bc:f6:af:a8:
                    79:7b
                Exponent: 65537 (0x10001)
        X509v3 extensions:
            X509v3 Authority Key Identifier: 
                keyid:1E:C5:B1:2C:7D:87:DA:02:68:7C:25:BC:0C:07:84:3F:B6:CF:DE:F1

            X509v3 Subject Key Identifier: 
                28:1D:C5:4F:44:EB:F5:F9:50:5C:0D:F1:8A:00:1E:7D:B4:DB:D4:8B
            X509v3 Key Usage: critical
                Digital Signature
            X509v3 Basic Constraints: critical
                CA:FALSE
            X509v3 Extended Key Usage: 
                Code Signing
            Netscape Cert Type: 
                Object Signing
            X509v3 Certificate Policies: 
                Policy: 1.3.6.1.4.1.6449.1.2.1.3.2
                  CPS: https://secure.comodo.net/CPS

            X509v3 CRL Distribution Points: 

                Full Name:
                  URI:http://crl.comodoca.com/COMODOCodeSigningCA2.crl

            Authority Information Access: 
                CA Issuers - URI:http://crt.comodoca.com/COMODOCodeSigningCA2.crt
                OCSP - URI:http://ocsp.comodoca.com

            X509v3 Subject Alternative Name: 
                email:admin@agilebits.com
    Signature Algorithm: sha1WithRSAEncryption
         7c:fe:26:65:78:18:7e:d6:b3:b8:c5:59:5f:66:42:f7:a8:19:
         43:47:e9:d1:fa:fc:53:c6:61:d9:cb:22:66:db:f2:52:cd:33:
         6b:e1:d4:01:eb:2b:8a:b9:f1:b5:fc:6f:88:2d:fc:6e:b2:65:
         6e:d9:f5:18:fb:55:45:44:52:54:a6:89:8d:b9:fd:9a:94:76:
         a5:c4:35:67:2d:0d:ee:8d:e6:3e:b7:c7:0d:f0:be:3c:02:b6:
         7d:24:a6:1e:f3:75:0d:b7:e3:3c:21:cf:ba:3e:f9:9a:26:62:
         09:9b:bb:d8:77:c7:71:05:e2:7e:be:8a:f4:44:f4:b7:df:4b:
         a0:60:a5:aa:2d:ea:57:6f:76:56:a4:02:32:a3:df:2e:0b:d4:
         7c:25:88:af:03:cd:19:a0:30:8e:20:69:6a:4e:fb:cb:c6:a9:
         8d:91:a8:74:0b:8b:35:7e:99:ac:8c:c5:fc:a8:7d:37:99:28:
         0b:c6:7b:ff:bc:1e:3f:fb:ce:c9:09:c8:8e:b7:89:9b:24:0e:
         4c:51:49:55:56:8b:35:f5:85:c9:59:72:6f:34:df:5d:39:b4:
         d8:56:e6:86:c4:67:df:33:e5:69:a3:c6:d9:bd:32:31:79:fe:
         ed:8d:0b:20:83:9d:7d:29:10:8f:bd:df:d0:ee:a8:e9:74:f0:
         5b:4c:24:b8
-----BEGIN CERTIFICATE-----
MIIFSTCCBDGgAwIBAgIQC9Vpvk8NnJMuRPsvyc7epzANBgkqhkiG9w0BAQUFADB7
MQswCQYDVQQGEwJHQjEbMBkGA1UECBMSR3JlYXRlciBNYW5jaGVzdGVyMRAwDgYD
VQQHEwdTYWxmb3JkMRowGAYDVQQKExFDT01PRE8gQ0EgTGltaXRlZDEhMB8GA1UE
AxMYQ09NT0RPIENvZGUgU2lnbmluZyBDQSAyMB4XDTEzMDUxNzAwMDAwMFoXDTE2
MDUxNjIzNTk1OVowgZgxCzAJBgNVBAYTAkNBMQ8wDQYDVQQRDAZNNUUxVzcxEDAO
BgNVBAgMB09udGFyaW8xEDAOBgNVBAcMB1Rvcm9udG8xIjAgBgNVBAkMGTEgWW9u
Z2UgU3RyZWV0IFN1aXRlIDE4MDExFzAVBgNVBAoMDkFnaWxlQml0cyBJbmMuMRcw
FQYDVQQDDA5BZ2lsZUJpdHMgSW5jLjCCASIwDQYJKoZIhvcNAQEBBQADggEPADCC
AQoCggEBAMI7ebnN94K6bUTssCASkh44yA4wl8Gqm/HuGfegioc4TwGo+4tj9UF8
D1A27607FK5dXpsXVHy+eSN8S6ZwsKGLUXBOZzocr99zsOouVMaARsR3xlvqkcmb
A4na+LfKywpt18iym7nINbGdy5z01z8aPlXRPyRuP9cTLRm8Df766hy9kYI6H5os
81JWtubp6oYIg69FUr+rMOb/U9BGUaJl5CXFipp7EmqXo8RUSCKrP3T3jIvsCrVn
pXOM8p80WbTtSrZ5tVPDoRE4ENAmrp00PdAWzA6caSZoU6GstsgezEsGB3bqxqvC
5k+IvnT7rZ8qgdAlwS05ijS89q+oeXsCAwEAAaOCAakwggGlMB8GA1UdIwQYMBaA
FB7FsSx9h9oCaHwlvAwHhD+2z97xMB0GA1UdDgQWBBQoHcVPROv1+VBcDfGKAB59
tNvUizAOBgNVHQ8BAf8EBAMCB4AwDAYDVR0TAQH/BAIwADATBgNVHSUEDDAKBggr
BgEFBQcDAzARBglghkgBhvhCAQEEBAMCBBAwRgYDVR0gBD8wPTA7BgwrBgEEAbIx
AQIBAwIwKzApBggrBgEFBQcCARYdaHR0cHM6Ly9zZWN1cmUuY29tb2RvLm5ldC9D
UFMwQQYDVR0fBDowODA2oDSgMoYwaHR0cDovL2NybC5jb21vZG9jYS5jb20vQ09N
T0RPQ29kZVNpZ25pbmdDQTIuY3JsMHIGCCsGAQUFBwEBBGYwZDA8BggrBgEFBQcw
AoYwaHR0cDovL2NydC5jb21vZG9jYS5jb20vQ09NT0RPQ29kZVNpZ25pbmdDQTIu
Y3J0MCQGCCsGAQUFBzABhhhodHRwOi8vb2NzcC5jb21vZG9jYS5jb20wHgYDVR0R
BBcwFYETYWRtaW5AYWdpbGViaXRzLmNvbTANBgkqhkiG9w0BAQUFAAOCAQEAfP4m
ZXgYftazuMVZX2ZC96gZQ0fp0fr8U8Zh2csiZtvyUs0za+HUAesrirnxtfxviC38
brJlbtn1GPtVRURSVKaJjbn9mpR2pcQ1Zy0N7o3mPrfHDfC+PAK2fSSmHvN1Dbfj
PCHPuj75miZiCZu72HfHcQXifr6K9ET0t99LoGClqi3qV292VqQCMqPfLgvUfCWI
rwPNGaAwjiBpak77y8apjZGodAuLNX6ZrIzF/Kh9N5koC8Z7/7weP/vOyQnIjreJ
myQOTFFJVVaLNfWFyVlybzTfXTm02FbmhsRn3zPlaaPG2b0yMXn+7Y0LIIOdfSkQ
j73f0O6o6XTwW0wkuA==
-----END CERTIFICATE-----

