Certificate:
    Data:
        Version: 3 (0x2)
        Serial Number:
            3d:49:b2:6f:b5:2a:99:02:a7:cc:61:2e:8d:2e:93:68
    Signature Algorithm: sha1WithRSAEncryption
        Issuer: C=US, O=VeriSign, Inc., OU=VeriSign Trust Network, OU=Terms of use at https://www.verisign.com/rpa (c)10, CN=VeriSign Class 3 Code Signing 2010 CA
        Validity
            Not Before: Feb 13 00:00:00 2014 GMT
            Not After : Feb 13 23:59:59 2015 GMT
        Subject: C=HK, ST=HONG KONG, L=HONG KONG, O=UUMART LIMITED, OU=Digital ID Class 3 - Microsoft Software Validation v2, CN=UUMART LIMITED
        Subject Public Key Info:
            Public Key Algorithm: rsaEncryption
                Public-Key: (2048 bit)
                Modulus:
                    00:e2:a6:4e:0e:0a:0c:3f:04:7c:df:fd:c7:b1:49:
                    3a:ac:b7:36:1a:de:a8:9b:5a:ea:ed:22:33:eb:8a:
                    5a:20:8a:e6:bb:d6:15:9c:8c:3a:99:8e:22:34:11:
                    da:f1:8a:06:32:e3:11:af:db:7c:c5:b1:5c:23:e0:
                    0c:17:1a:29:ce:a8:2d:e5:0f:3c:3a:b1:31:64:b5:
                    0b:18:55:ff:82:eb:ab:54:c7:3e:fb:6d:97:91:b8:
                    dd:d1:cc:56:24:93:50:d4:8c:95:e7:b4:10:6b:f5:
                    d2:e8:48:d9:56:4f:d8:0c:78:94:4a:be:e4:a7:ae:
                    85:71:3c:25:1f:16:71:c3:0b:dc:e1:8c:b4:01:96:
                    b0:00:0d:c3:04:9d:3f:c6:b8:a3:e1:d8:08:cc:6f:
                    81:30:9f:62:a8:85:80:0f:d0:92:df:d9:1c:33:93:
                    62:23:d5:80:2f:f9:44:37:b8:1c:67:ee:08:fe:6f:
                    98:57:44:9f:8c:ca:cc:cf:0c:9c:96:bc:70:88:34:
                    8c:29:71:6e:72:21:e0:30:10:78:a0:1f:cc:97:a2:
                    bb:59:b5:2f:d4:19:95:cc:2a:80:13:df:cd:a1:d1:
                    98:9c:33:14:d3:66:83:b1:ad:fe:08:76:99:8c:5b:
                    dd:46:6d:ff:cf:15:00:c4:27:f4:d0:e5:a4:ac:2b:
                    92:6b
                Exponent: 65537 (0x10001)
        X509v3 extensions:
            X509v3 Basic Constraints: 
                CA:FALSE
            X509v3 Key Usage: critical
                Digital Signature
            X509v3 CRL Distribution Points: 

                Full Name:
                  URI:http://csc3-2010-crl.verisign.com/CSC3-2010.crl

            X509v3 Certificate Policies: 
                Policy: 2.16.840.1.113733.1.7.23.3
                  CPS: https://www.verisign.com/rpa

            X509v3 Extended Key Usage: 
                Code Signing
            Authority Information Access: 
                OCSP - URI:http://ocsp.verisign.com
                CA Issuers - URI:http://csc3-2010-aia.verisign.com/CSC3-2010.cer

            X509v3 Authority Key Identifier: 
                keyid:CF:99:A9:EA:7B:26:F4:4B:C9:8E:8F:D7:F0:05:26:EF:E3:D2:A7:9D

            Netscape Cert Type: 
                Object Signing
            1.3.6.1.4.1.311.2.1.27: 
                0.......
    Signature Algorithm: sha1WithRSAEncryption
         83:63:5e:7e:53:1c:74:9a:38:86:b9:24:34:9e:88:66:d9:a9:
         d8:95:62:e2:41:d3:29:8d:4d:80:1d:85:e9:a8:48:8a:35:42:
         d0:f5:f8:79:d1:64:d2:8c:fb:ba:d0:c0:e0:82:d0:5f:06:7d:
         72:13:16:63:cf:a5:ca:3b:c9:47:c9:ba:e3:9b:78:88:25:d0:
         78:7a:d1:66:0d:55:cb:06:a4:2c:98:e3:4a:5a:f7:53:35:d2:
         d2:8c:d2:a9:22:9e:3c:74:bc:b4:94:32:7f:a1:72:8c:7c:26:
         5b:36:d7:8d:e9:f5:1a:b4:be:07:b8:8a:9c:22:e1:40:6a:1f:
         0f:60:df:29:5d:0d:02:44:02:a6:4f:da:1b:54:96:29:19:f3:
         6d:ba:ed:b1:ec:a8:01:a6:79:54:b0:68:61:cb:9f:ff:62:3d:
         2e:2c:f4:46:57:b7:f9:4b:0c:4e:ff:b3:e2:56:66:e4:cf:43:
         cf:86:58:3a:4d:06:da:c3:46:62:fc:0e:07:34:ee:0d:45:0b:
         45:5c:63:b1:4e:ad:7e:38:11:d6:8a:3a:91:36:0a:05:0c:7b:
         bb:c2:b8:69:df:04:f0:df:43:30:ca:f3:76:eb:9c:23:50:96:
         cc:46:0b:df:ae:6c:9c:84:26:bf:fb:f3:59:b1:39:9d:d7:37:
         c9:af:04:5c
-----BEGIN CERTIFICATE-----
MIIFZDCCBEygAwIBAgIQPUmyb7UqmQKnzGEujS6TaDANBgkqhkiG9w0BAQUFADCB
tDELMAkGA1UEBhMCVVMxFzAVBgNVBAoTDlZlcmlTaWduLCBJbmMuMR8wHQYDVQQL
ExZWZXJpU2lnbiBUcnVzdCBOZXR3b3JrMTswOQYDVQQLEzJUZXJtcyBvZiB1c2Ug
YXQgaHR0cHM6Ly93d3cudmVyaXNpZ24uY29tL3JwYSAoYykxMDEuMCwGA1UEAxMl
VmVyaVNpZ24gQ2xhc3MgMyBDb2RlIFNpZ25pbmcgMjAxMCBDQTAeFw0xNDAyMTMw
MDAwMDBaFw0xNTAyMTMyMzU5NTlaMIGnMQswCQYDVQQGEwJISzESMBAGA1UECBMJ
SE9ORyBLT05HMRIwEAYDVQQHEwlIT05HIEtPTkcxFzAVBgNVBAoUDlVVTUFSVCBM
SU1JVEVEMT4wPAYDVQQLEzVEaWdpdGFsIElEIENsYXNzIDMgLSBNaWNyb3NvZnQg
U29mdHdhcmUgVmFsaWRhdGlvbiB2MjEXMBUGA1UEAxQOVVVNQVJUIExJTUlURUQw
ggEiMA0GCSqGSIb3DQEBAQUAA4IBDwAwggEKAoIBAQDipk4OCgw/BHzf/cexSTqs
tzYa3qibWurtIjPrilogiua71hWcjDqZjiI0EdrxigYy4xGv23zFsVwj4AwXGinO
qC3lDzw6sTFktQsYVf+C66tUxz77bZeRuN3RzFYkk1DUjJXntBBr9dLoSNlWT9gM
eJRKvuSnroVxPCUfFnHDC9zhjLQBlrAADcMEnT/GuKPh2AjMb4Ewn2KohYAP0JLf
2Rwzk2Ij1YAv+UQ3uBxn7gj+b5hXRJ+MyszPDJyWvHCINIwpcW5yIeAwEHigH8yX
ortZtS/UGZXMKoAT382h0ZicMxTTZoOxrf4IdpmMW91Gbf/PFQDEJ/TQ5aSsK5Jr
AgMBAAGjggF7MIIBdzAJBgNVHRMEAjAAMA4GA1UdDwEB/wQEAwIHgDBABgNVHR8E
OTA3MDWgM6Axhi9odHRwOi8vY3NjMy0yMDEwLWNybC52ZXJpc2lnbi5jb20vQ1ND
My0yMDEwLmNybDBEBgNVHSAEPTA7MDkGC2CGSAGG+EUBBxcDMCowKAYIKwYBBQUH
AgEWHGh0dHBzOi8vd3d3LnZlcmlzaWduLmNvbS9ycGEwEwYDVR0lBAwwCgYIKwYB
BQUHAwMwcQYIKwYBBQUHAQEEZTBjMCQGCCsGAQUFBzABhhhodHRwOi8vb2NzcC52
ZXJpc2lnbi5jb20wOwYIKwYBBQUHMAKGL2h0dHA6Ly9jc2MzLTIwMTAtYWlhLnZl
cmlzaWduLmNvbS9DU0MzLTIwMTAuY2VyMB8GA1UdIwQYMBaAFM+Zqep7JvRLyY6P
1/AFJu/j0qedMBEGCWCGSAGG+EIBAQQEAwIEEDAWBgorBgEEAYI3AgEbBAgwBgEB
AAEB/zANBgkqhkiG9w0BAQUFAAOCAQEAg2NeflMcdJo4hrkkNJ6IZtmp2JVi4kHT
KY1NgB2F6ahIijVC0PX4edFk0oz7utDA4ILQXwZ9chMWY8+lyjvJR8m645t4iCXQ
eHrRZg1VywakLJjjSlr3UzXS0ozSqSKePHS8tJQyf6FyjHwmWzbXjen1GrS+B7iK
nCLhQGofD2DfKV0NAkQCpk/aG1SWKRnzbbrtseyoAaZ5VLBoYcuf/2I9Liz0Rle3
+UsMTv+z4lZm5M9Dz4ZYOk0G2sNGYvwOBzTuDUULRVxjsU6tfjgR1oo6kTYKBQx7
u8K4ad8E8N9DMMrzduucI1CWzEYL365snIQmv/vzWbE5ndc3ya8EXA==
-----END CERTIFICATE-----

Certificate:
    Data:
        Version: 3 (0x2)
        Serial Number:
            52:00:e5:aa:25:56:fc:1a:86:ed:96:c9:d4:4b:33:c7
    Signature Algorithm: sha1WithRSAEncryption
        Issuer: C=US, O=VeriSign, Inc., OU=VeriSign Trust Network, OU=(c) 2006 VeriSign, Inc. - For authorized use only, CN=VeriSign Class 3 Public Primary Certification Authority - G5
        Validity
            Not Before: Feb  8 00:00:00 2010 GMT
            Not After : Feb  7 23:59:59 2020 GMT
        Subject: C=US, O=VeriSign, Inc., OU=VeriSign Trust Network, OU=Terms of use at https://www.verisign.com/rpa (c)10, CN=VeriSign Class 3 Code Signing 2010 CA
        Subject Public Key Info:
            Public Key Algorithm: rsaEncryption
                Public-Key: (2048 bit)
                Modulus:
                    00:f5:23:4b:5e:a5:d7:8a:bb:32:e9:d4:57:f7:ef:
                    e4:c7:26:7e:ad:19:98:fe:a8:9d:7d:94:f6:36:6b:
                    10:d7:75:81:30:7f:04:68:7f:cb:2b:75:1e:cd:1d:
                    08:8c:df:69:94:a7:37:a3:9c:7b:80:e0:99:e1:ee:
                    37:4d:5f:ce:3b:14:ee:86:d4:d0:f5:27:35:bc:25:
                    0b:38:a7:8c:63:9d:17:a3:08:a5:ab:b0:fb:cd:6a:
                    62:82:4c:d5:21:da:1b:d9:f1:e3:84:3b:8a:2a:4f:
                    85:5b:90:01:4f:c9:a7:76:10:7f:27:03:7c:be:ae:
                    7e:7d:c1:dd:f9:05:bc:1b:48:9c:69:e7:c0:a4:3c:
                    3c:41:00:3e:df:96:e5:c5:e4:94:71:d6:55:01:c7:
                    00:26:4a:40:3c:b5:a1:26:a9:0c:a7:6d:80:8e:90:
                    25:7b:cf:bf:3f:1c:eb:2f:96:fa:e5:87:77:c6:b5:
                    56:b2:7a:3b:54:30:53:1b:df:62:34:ff:1e:d1:f4:
                    5a:93:28:85:e5:4c:17:4e:7e:5b:fd:a4:93:99:7f:
                    df:cd:ef:a4:75:ef:ef:15:f6:47:e7:f8:19:72:d8:
                    2e:34:1a:a6:b4:a7:4c:7e:bd:bb:4f:0c:3d:57:f1:
                    30:d6:a6:36:8e:d6:80:76:d7:19:2e:a5:cd:7e:34:
                    2d:89
                Exponent: 65537 (0x10001)
        X509v3 extensions:
            X509v3 Basic Constraints: critical
                CA:TRUE, pathlen:0
            X509v3 Certificate Policies: 
                Policy: 2.16.840.1.113733.1.7.23.3
                  CPS: https://www.verisign.com/cps
                  User Notice:
                    Explicit Text: https://www.verisign.com/rpa

            X509v3 Key Usage: critical
                Certificate Sign, CRL Sign
            1.3.6.1.5.5.7.1.12: 
                0_.].[0Y0W0U..image/gif0!0.0...+..............k...j.H.,{..0%.#http://logo.verisign.com/vslogo.gif
            X509v3 CRL Distribution Points: 

                Full Name:
                  URI:http://crl.verisign.com/pca3-g5.crl

            Authority Information Access: 
                OCSP - URI:http://ocsp.verisign.com

            X509v3 Extended Key Usage: 
                TLS Web Client Authentication, Code Signing
            X509v3 Subject Alternative Name: 
                DirName:/CN=VeriSignMPKI-2-8
            X509v3 Subject Key Identifier: 
                CF:99:A9:EA:7B:26:F4:4B:C9:8E:8F:D7:F0:05:26:EF:E3:D2:A7:9D
            X509v3 Authority Key Identifier: 
                keyid:7F:D3:65:A7:C2:DD:EC:BB:F0:30:09:F3:43:39:FA:02:AF:33:31:33

    Signature Algorithm: sha1WithRSAEncryption
         56:22:e6:34:a4:c4:61:cb:48:b9:01:ad:56:a8:64:0f:d9:8c:
         91:c4:bb:cc:0c:e5:ad:7a:a0:22:7f:df:47:38:4a:2d:6c:d1:
         7f:71:1a:7c:ec:70:a9:b1:f0:4f:e4:0f:0c:53:fa:15:5e:fe:
         74:98:49:24:85:81:26:1c:91:14:47:b0:4c:63:8c:bb:a1:34:
         d4:c6:45:e8:0d:85:26:73:03:d0:a9:8c:64:6d:dc:71:92:e6:
         45:05:60:15:59:51:39:fc:58:14:6b:fe:d4:a4:ed:79:6b:08:
         0c:41:72:e7:37:22:06:09:be:23:e9:3f:44:9a:1e:e9:61:9d:
         cc:b1:90:5c:fc:3d:d2:8d:ac:42:3d:65:36:d4:b4:3d:40:28:
         8f:9b:10:cf:23:26:cc:4b:20:cb:90:1f:5d:8c:4c:34:ca:3c:
         d8:e5:37:d6:6f:a5:20:bd:34:eb:26:d9:ae:0d:e7:c5:9a:f7:
         a1:b4:21:91:33:6f:86:e8:58:bb:25:7c:74:0e:58:fe:75:1b:
         63:3f:ce:31:7c:9b:8f:1b:96:9e:c5:53:76:84:5b:9c:ad:91:
         fa:ac:ed:93:ba:5d:c8:21:53:c2:82:53:63:af:12:0d:50:87:
         11:1b:3d:54:52:96:8a:2c:9c:3d:92:1a:08:9a:05:2e:c7:93:
         a5:48:91:d3
-----BEGIN CERTIFICATE-----
MIIGCjCCBPKgAwIBAgIQUgDlqiVW/BqG7ZbJ1EszxzANBgkqhkiG9w0BAQUFADCB
yjELMAkGA1UEBhMCVVMxFzAVBgNVBAoTDlZlcmlTaWduLCBJbmMuMR8wHQYDVQQL
ExZWZXJpU2lnbiBUcnVzdCBOZXR3b3JrMTowOAYDVQQLEzEoYykgMjAwNiBWZXJp
U2lnbiwgSW5jLiAtIEZvciBhdXRob3JpemVkIHVzZSBvbmx5MUUwQwYDVQQDEzxW
ZXJpU2lnbiBDbGFzcyAzIFB1YmxpYyBQcmltYXJ5IENlcnRpZmljYXRpb24gQXV0
aG9yaXR5IC0gRzUwHhcNMTAwMjA4MDAwMDAwWhcNMjAwMjA3MjM1OTU5WjCBtDEL
MAkGA1UEBhMCVVMxFzAVBgNVBAoTDlZlcmlTaWduLCBJbmMuMR8wHQYDVQQLExZW
ZXJpU2lnbiBUcnVzdCBOZXR3b3JrMTswOQYDVQQLEzJUZXJtcyBvZiB1c2UgYXQg
aHR0cHM6Ly93d3cudmVyaXNpZ24uY29tL3JwYSAoYykxMDEuMCwGA1UEAxMlVmVy
aVNpZ24gQ2xhc3MgMyBDb2RlIFNpZ25pbmcgMjAxMCBDQTCCASIwDQYJKoZIhvcN
AQEBBQADggEPADCCAQoCggEBAPUjS16l14q7MunUV/fv5Mcmfq0ZmP6onX2U9jZr
ENd1gTB/BGh/yyt1Hs0dCIzfaZSnN6Oce4DgmeHuN01fzjsU7obU0PUnNbwlCzin
jGOdF6MIpauw+81qYoJM1SHaG9nx44Q7iipPhVuQAU/Jp3YQfycDfL6ufn3B3fkF
vBtInGnnwKQ8PEEAPt+W5cXklHHWVQHHACZKQDy1oSapDKdtgI6QJXvPvz8c6y+W
+uWHd8a1VrJ6O1QwUxvfYjT/HtH0WpMoheVMF05+W/2kk5l/383vpHXv7xX2R+f4
GXLYLjQaprSnTH69u08MPVfxMNamNo7WgHbXGS6lzX40LYkCAwEAAaOCAf4wggH6
MBIGA1UdEwEB/wQIMAYBAf8CAQAwcAYDVR0gBGkwZzBlBgtghkgBhvhFAQcXAzBW
MCgGCCsGAQUFBwIBFhxodHRwczovL3d3dy52ZXJpc2lnbi5jb20vY3BzMCoGCCsG
AQUFBwICMB4aHGh0dHBzOi8vd3d3LnZlcmlzaWduLmNvbS9ycGEwDgYDVR0PAQH/
BAQDAgEGMG0GCCsGAQUFBwEMBGEwX6FdoFswWTBXMFUWCWltYWdlL2dpZjAhMB8w
BwYFKw4DAhoEFI/l0xqGrI2Oa8PPgGrUSBgsexkuMCUWI2h0dHA6Ly9sb2dvLnZl
cmlzaWduLmNvbS92c2xvZ28uZ2lmMDQGA1UdHwQtMCswKaAnoCWGI2h0dHA6Ly9j
cmwudmVyaXNpZ24uY29tL3BjYTMtZzUuY3JsMDQGCCsGAQUFBwEBBCgwJjAkBggr
BgEFBQcwAYYYaHR0cDovL29jc3AudmVyaXNpZ24uY29tMB0GA1UdJQQWMBQGCCsG
AQUFBwMCBggrBgEFBQcDAzAoBgNVHREEITAfpB0wGzEZMBcGA1UEAxMQVmVyaVNp
Z25NUEtJLTItODAdBgNVHQ4EFgQUz5mp6nsm9EvJjo/X8AUm7+PSp50wHwYDVR0j
BBgwFoAUf9Nlp8Ld7LvwMAnzQzn6Aq8zMTMwDQYJKoZIhvcNAQEFBQADggEBAFYi
5jSkxGHLSLkBrVaoZA/ZjJHEu8wM5a16oCJ/30c4Si1s0X9xGnzscKmx8E/kDwxT
+hVe/nSYSSSFgSYckRRHsExjjLuhNNTGRegNhSZzA9CpjGRt3HGS5kUFYBVZUTn8
WBRr/tSk7XlrCAxBcuc3IgYJviPpP0SaHulhncyxkFz8PdKNrEI9ZTbUtD1AKI+b
EM8jJsxLIMuQH12MTDTKPNjlN9ZvpSC9NOsm2a4N58Wa96G0IZEzb4boWLslfHQO
WP51G2M/zjF8m48blp7FU3aEW5ytkfqs7ZO6XcghU8KCU2OvEg1QhxEbPVRSloos
nD2SGgiaBS7Hk6VIkdM=
-----END CERTIFICATE-----

