Certificate:
    Data:
        Version: 3 (0x2)
        Serial Number:
            0d:a3:76:3b:b4:13:2d:fb:7f:bf:92:b4:d8:a6:c1
    Signature Algorithm: sha256WithRSAEncryption
        Issuer: C=GB, ST=Greater Manchester, L=Salford, O=COMODO CA Limited, CN=COMODO RSA Code Signing CA
        Validity
            Not Before: Dec  6 00:00:00 2017 GMT
            Not After : Jun 14 23:59:59 2018 GMT
        Subject: C=RU/postalCode=191104, L=St. Petersburg/street=Mayakovskogo 50, O=RULON LLC, CN=RULON LLC
        Subject Public Key Info:
            Public Key Algorithm: rsaEncryption
                Public-Key: (2048 bit)
                Modulus:
                    00:ad:e9:76:d1:37:4c:8b:b5:63:fa:62:84:13:0a:
                    e0:93:99:74:4b:a8:c0:d0:5c:44:54:02:86:cc:da:
                    40:1c:57:a8:51:31:6c:97:8e:84:b0:a3:54:02:99:
                    d2:6f:c6:c4:de:8b:6c:71:5c:48:f6:74:16:d1:a6:
                    36:03:ec:16:3c:ad:79:ec:ef:49:cf:d7:6f:bc:e4:
                    a4:b4:2a:98:14:52:f5:8a:02:5a:4c:f6:1e:70:ec:
                    87:9e:af:6c:b2:6c:80:92:3e:a8:af:0d:20:a2:99:
                    7c:4b:c4:d9:cd:3f:74:48:1c:1d:50:da:61:c6:35:
                    7b:7a:04:9a:de:c1:d0:70:ac:41:6d:d7:e5:b8:50:
                    dd:20:49:86:c2:76:5a:f8:c7:56:f8:9e:3b:9f:88:
                    24:d9:96:75:d1:ed:47:05:cd:02:8f:4e:df:8c:37:
                    72:47:98:0d:50:89:23:f2:d2:2a:46:38:be:80:10:
                    8a:a4:8f:05:07:2f:34:4e:fd:80:de:d5:c3:a0:53:
                    3f:69:ba:98:ed:ad:dd:6a:ca:ef:09:db:83:a2:38:
                    a9:8c:75:c9:a6:9d:97:91:37:3f:5d:88:b1:1b:77:
                    00:98:49:7f:ec:c8:08:3e:d8:61:72:b9:97:fc:8c:
                    3c:ca:3e:b9:2e:79:1e:03:a1:72:21:2c:58:a5:ab:
                    29:a3
                Exponent: 65537 (0x10001)
        X509v3 extensions:
            X509v3 Authority Key Identifier: 
                keyid:29:91:60:FF:8A:4D:FA:EB:F9:A6:6A:B8:CF:F9:E6:4B:BD:49:CE:12

            X509v3 Subject Key Identifier: 
                BD:A3:E8:69:4F:BD:3C:0B:EB:F7:DB:2F:1A:5C:FA:91:8B:77:05:B2
            X509v3 Key Usage: critical
                Digital Signature
            X509v3 Basic Constraints: critical
                CA:FALSE
            X509v3 Extended Key Usage: 
                Code Signing
            Netscape Cert Type: 
                Object Signing
            X509v3 Certificate Policies: 
                Policy: 1.3.6.1.4.1.6449.1.2.1.3.2
                  CPS: https://secure.comodo.net/CPS

            X509v3 CRL Distribution Points: 

                Full Name:
                  URI:http://crl.comodoca.com/COMODORSACodeSigningCA.crl

            Authority Information Access: 
                CA Issuers - URI:http://crt.comodoca.com/COMODORSACodeSigningCA.crt
                OCSP - URI:http://ocsp.comodoca.com

    Signature Algorithm: sha256WithRSAEncryption
         61:f9:f6:4a:ba:bb:fd:fe:6d:f8:5c:a4:9a:cd:9c:21:ae:79:
         2c:55:d8:15:92:23:34:35:2b:dc:96:6c:a7:a7:e4:8e:88:0a:
         64:3e:b0:82:28:0d:4b:de:dc:a8:d2:43:47:05:cf:0e:6d:b9:
         f6:31:39:56:38:37:1c:b4:49:84:ef:30:e4:38:51:fb:e0:e4:
         a4:29:cf:57:43:9a:d5:d1:9b:a5:aa:41:9d:08:0f:84:36:bb:
         6c:f1:14:48:42:b9:41:27:34:72:e5:9c:cb:58:ad:de:1a:a6:
         e3:48:2c:cb:4a:34:98:9d:98:5e:08:87:6b:d3:e7:ce:51:f9:
         15:d8:82:8e:b2:ca:0c:13:1d:76:7f:f2:ac:78:ef:ca:ca:7c:
         23:aa:37:be:75:1b:3e:5f:f2:9e:96:7c:a1:83:fe:5e:b5:0c:
         c9:18:ac:72:9f:52:ca:20:c6:2b:d9:66:24:0e:ed:5f:85:6d:
         85:b4:78:01:5d:8f:7b:97:9a:ed:ad:df:97:7e:ff:c9:a2:02:
         85:6d:aa:36:43:2c:8a:5b:75:a1:1b:6b:35:84:5f:bf:f3:17:
         b7:33:f0:15:ae:62:a1:f3:8d:f0:fd:0f:ef:c0:54:ed:4f:8a:
         a3:dd:8e:d9:7f:43:33:50:8b:74:fe:42:27:ad:d3:4d:fc:11:
         ec:96:8c:f4
-----BEGIN CERTIFICATE-----
MIIFDjCCA/agAwIBAgIPDaN2O7QTLft/v5K02KbBMA0GCSqGSIb3DQEBCwUAMH0x
CzAJBgNVBAYTAkdCMRswGQYDVQQIExJHcmVhdGVyIE1hbmNoZXN0ZXIxEDAOBgNV
BAcTB1NhbGZvcmQxGjAYBgNVBAoTEUNPTU9ETyBDQSBMaW1pdGVkMSMwIQYDVQQD
ExpDT01PRE8gUlNBIENvZGUgU2lnbmluZyBDQTAeFw0xNzEyMDYwMDAwMDBaFw0x
ODA2MTQyMzU5NTlaMHkxCzAJBgNVBAYTAlJVMQ8wDQYDVQQRDAYxOTExMDQxFzAV
BgNVBAcMDlN0LiBQZXRlcnNidXJnMRgwFgYDVQQJDA9NYXlha292c2tvZ28gNTAx
EjAQBgNVBAoMCVJVTE9OIExMQzESMBAGA1UEAwwJUlVMT04gTExDMIIBIjANBgkq
hkiG9w0BAQEFAAOCAQ8AMIIBCgKCAQEArel20TdMi7Vj+mKEEwrgk5l0S6jA0FxE
VAKGzNpAHFeoUTFsl46EsKNUApnSb8bE3otscVxI9nQW0aY2A+wWPK157O9Jz9dv
vOSktCqYFFL1igJaTPYecOyHnq9ssmyAkj6orw0gopl8S8TZzT90SBwdUNphxjV7
egSa3sHQcKxBbdfluFDdIEmGwnZa+MdW+J47n4gk2ZZ10e1HBc0Cj07fjDdyR5gN
UIkj8tIqRji+gBCKpI8FBy80Tv2A3tXDoFM/abqY7a3dasrvCduDojipjHXJpp2X
kTc/XYixG3cAmEl/7MgIPthhcrmX/Iw8yj65LnkeA6FyISxYpaspowIDAQABo4IB
jTCCAYkwHwYDVR0jBBgwFoAUKZFg/4pN+uv5pmq4z/nmS71JzhIwHQYDVR0OBBYE
FL2j6GlPvTwL6/fbLxpc+pGLdwWyMA4GA1UdDwEB/wQEAwIHgDAMBgNVHRMBAf8E
AjAAMBMGA1UdJQQMMAoGCCsGAQUFBwMDMBEGCWCGSAGG+EIBAQQEAwIEEDBGBgNV
HSAEPzA9MDsGDCsGAQQBsjEBAgEDAjArMCkGCCsGAQUFBwIBFh1odHRwczovL3Nl
Y3VyZS5jb21vZG8ubmV0L0NQUzBDBgNVHR8EPDA6MDigNqA0hjJodHRwOi8vY3Js
LmNvbW9kb2NhLmNvbS9DT01PRE9SU0FDb2RlU2lnbmluZ0NBLmNybDB0BggrBgEF
BQcBAQRoMGYwPgYIKwYBBQUHMAKGMmh0dHA6Ly9jcnQuY29tb2RvY2EuY29tL0NP
TU9ET1JTQUNvZGVTaWduaW5nQ0EuY3J0MCQGCCsGAQUFBzABhhhodHRwOi8vb2Nz
cC5jb21vZG9jYS5jb20wDQYJKoZIhvcNAQELBQADggEBAGH59kq6u/3+bfhcpJrN
nCGueSxV2BWSIzQ1K9yWbKen5I6ICmQ+sIIoDUve3KjSQ0cFzw5tufYxOVY4Nxy0
SYTvMOQ4Ufvg5KQpz1dDmtXRm6WqQZ0ID4Q2u2zxFEhCuUEnNHLlnMtYrd4apuNI
LMtKNJidmF4Ih2vT585R+RXYgo6yygwTHXZ/8qx478rKfCOqN751Gz5f8p6WfKGD
/l61DMkYrHKfUsogxivZZiQO7V+FbYW0eAFdj3uXmu2t35d+/8miAoVtqjZDLIpb
daEbazWEX7/zF7cz8BWuYqHzjfD9D+/AVO1PiqPdjtl/QzNQi3T+Qiet0038EeyW
jPQ=
-----END CERTIFICATE-----

Certificate:
    Data:
        Version: 3 (0x2)
        Serial Number:
            2e:7c:87:cc:0e:93:4a:52:fe:94:fd:1c:b7:cd:34:af
    Signature Algorithm: sha384WithRSAEncryption
        Issuer: C=GB, ST=Greater Manchester, L=Salford, O=COMODO CA Limited, CN=COMODO RSA Certification Authority
        Validity
            Not Before: May  9 00:00:00 2013 GMT
            Not After : May  8 23:59:59 2028 GMT
        Subject: C=GB, ST=Greater Manchester, L=Salford, O=COMODO CA Limited, CN=COMODO RSA Code Signing CA
        Subject Public Key Info:
            Public Key Algorithm: rsaEncryption
                Public-Key: (2048 bit)
                Modulus:
                    00:a6:98:90:63:77:91:34:7f:8a:d1:dd:e9:67:31:
                    11:eb:cc:1e:fd:31:1d:b3:b9:62:57:3f:93:bc:5b:
                    e3:9f:1e:24:32:11:27:6b:bc:51:91:a7:cf:9e:9e:
                    25:b3:5f:81:a8:18:0f:1d:1e:20:30:0e:fb:61:7b:
                    86:09:b3:e3:fd:a2:68:9d:1c:2c:9d:bf:72:e3:e4:
                    75:a0:e5:35:23:8e:c9:8a:ee:1a:0c:64:c7:d8:42:
                    a1:7b:b5:52:03:4b:3a:b0:8e:23:4b:4b:63:e0:22:
                    94:37:7b:d5:79:90:0a:14:18:51:2c:e6:fe:c1:12:
                    f0:1c:3f:61:61:0a:8c:a2:dc:f6:c3:30:aa:cd:28:
                    18:75:48:c1:79:5a:08:cd:bb:8c:55:8c:f7:d4:76:
                    90:3a:33:46:50:73:98:5c:f4:85:4a:6b:0f:80:dd:
                    5e:d6:bd:fd:a9:2f:c0:25:f5:f9:78:d7:8d:5f:10:
                    c2:44:55:3c:90:3c:31:46:cb:70:ae:07:a9:0a:e3:
                    af:c1:01:6f:90:1a:23:e2:5f:38:db:c6:08:5d:47:
                    b3:83:41:f0:2e:00:37:14:b9:12:aa:79:92:52:cd:
                    87:0f:7b:d8:62:29:a4:7e:30:bd:1b:b5:8c:72:b4:
                    48:f2:e3:e8:21:f9:5e:4c:62:79:8b:02:06:9f:7f:
                    d5:0b
                Exponent: 65537 (0x10001)
        X509v3 extensions:
            X509v3 Authority Key Identifier: 
                keyid:BB:AF:7E:02:3D:FA:A6:F1:3C:84:8E:AD:EE:38:98:EC:D9:32:32:D4

            X509v3 Subject Key Identifier: 
                29:91:60:FF:8A:4D:FA:EB:F9:A6:6A:B8:CF:F9:E6:4B:BD:49:CE:12
            X509v3 Key Usage: critical
                Digital Signature, Certificate Sign, CRL Sign
            X509v3 Basic Constraints: critical
                CA:TRUE, pathlen:0
            X509v3 Extended Key Usage: 
                Code Signing
            X509v3 Certificate Policies: 
                Policy: X509v3 Any Policy

            X509v3 CRL Distribution Points: 

                Full Name:
                  URI:http://crl.comodoca.com/COMODORSACertificationAuthority.crl

            Authority Information Access: 
                CA Issuers - URI:http://crt.comodoca.com/COMODORSAAddTrustCA.crt
                OCSP - URI:http://ocsp.comodoca.com

    Signature Algorithm: sha384WithRSAEncryption
         02:3f:02:39:c3:ee:f8:ca:3b:89:de:0c:6d:4d:b1:f1:4e:92:
         4f:af:c2:38:2c:04:cc:c5:63:11:ab:09:63:af:ab:a2:d7:02:
         3f:cc:6f:19:c3:3d:d6:1a:08:94:ff:25:d8:a9:88:a7:2b:10:
         1a:e0:9b:b1:07:22:1a:51:1c:3a:d4:e1:e9:09:bf:e6:24:74:
         af:1e:7b:16:31:6e:23:ef:54:51:2d:52:02:e2:75:08:05:4c:
         f1:b7:51:e1:51:00:c6:87:f6:6c:ee:10:44:76:57:6a:f1:df:
         58:6b:21:aa:49:d4:7c:37:4e:bd:ff:b6:75:54:40:18:36:57:
         67:11:cd:4f:02:e4:fe:f3:da:fc:75:17:db:ec:b7:f7:65:09:
         23:49:1f:43:57:83:ea:7e:20:77:61:c8:4d:f2:bb:65:4d:a8:
         f7:85:45:07:af:7a:69:27:65:90:29:40:8b:df:7b:3a:51:39:
         8c:a8:1f:70:79:ad:6d:42:20:a2:cf:0c:6c:03:8c:4c:cd:73:
         07:94:e7:5a:8e:3a:04:ba:a2:a1:7c:1f:cb:63:3a:15:a7:d4:
         15:1b:a7:52:47:32:a9:f4:bf:64:47:d1:aa:1f:53:4e:32:30:
         73:c2:6f:b7:78:82:9d:5c:ff:46:bb:6b:22:1d:88:0b:f8:1b:
         aa:34:a6:fc:8c:f5:dd:7f:65:8c:8c:31:57:31:d0:36:ec:47:
         a1:cf:cb:8b:a8:ef:1c:18:58:c5:06:77:ca:4b:9b:51:af:4c:
         08:4a:7a:8f:e2:a3:52:e2:8e:8e:cc:26:e4:b2:d8:e5:38:c2:
         a8:ed:c6:81:9c:35:6b:a9:58:61:4a:0a:97:b4:4b:42:b6:55:
         9d:be:99:e7:70:6d:59:f8:6d:2a:0c:7f:19:60:5f:0c:9a:88:
         6c:30:ac:52:09:90:16:1b:ff:2b:9d:db:d0:20:ca:89:ea:28:
         7e:32:8e:19:df:7b:48:33:1e:d7:65:f8:ae:c9:f8:83:14:93:
         76:7d:64:d0:8e:ce:be:35:7d:ff:72:31:4d:9f:9e:bd:1e:6c:
         2f:a8:8f:0c:06:50:fb:8c:27:b3:76:c9:f4:e6:d7:c3:34:e2:
         8c:87:21:86:61:fe:bf:55:74:e1:21:77:03:0a:68:6c:bb:e4:
         c9:a9:e6:cf:59:25:eb:7c:ec:45:0e:79:66:68:e8:22:cd:b8:
         ef:98:85:4d:96:11:3c:09:8a:d0:7f:bc:28:28:13:fb:6a:ca:
         54:8d:92:5c:cd:c2:65:98:06:9e:ce:48:5b:d4:b5:37:93:46:
         41:7c:07:dd:cf:fa:43:ef:ba:67:61:ff:7d:49:e0:bb:30:7d:
         5c:80:e3:e6:16:39:4b:a7
-----BEGIN CERTIFICATE-----
MIIF4DCCA8igAwIBAgIQLnyHzA6TSlL+lP0ct800rzANBgkqhkiG9w0BAQwFADCB
hTELMAkGA1UEBhMCR0IxGzAZBgNVBAgTEkdyZWF0ZXIgTWFuY2hlc3RlcjEQMA4G
A1UEBxMHU2FsZm9yZDEaMBgGA1UEChMRQ09NT0RPIENBIExpbWl0ZWQxKzApBgNV
BAMTIkNPTU9ETyBSU0EgQ2VydGlmaWNhdGlvbiBBdXRob3JpdHkwHhcNMTMwNTA5
MDAwMDAwWhcNMjgwNTA4MjM1OTU5WjB9MQswCQYDVQQGEwJHQjEbMBkGA1UECBMS
R3JlYXRlciBNYW5jaGVzdGVyMRAwDgYDVQQHEwdTYWxmb3JkMRowGAYDVQQKExFD
T01PRE8gQ0EgTGltaXRlZDEjMCEGA1UEAxMaQ09NT0RPIFJTQSBDb2RlIFNpZ25p
bmcgQ0EwggEiMA0GCSqGSIb3DQEBAQUAA4IBDwAwggEKAoIBAQCmmJBjd5E0f4rR
3elnMRHrzB79MR2zuWJXP5O8W+OfHiQyESdrvFGRp8+eniWzX4GoGA8dHiAwDvth
e4YJs+P9omidHCydv3Lj5HWg5TUjjsmK7hoMZMfYQqF7tVIDSzqwjiNLS2PgIpQ3
e9V5kAoUGFEs5v7BEvAcP2FhCoyi3PbDMKrNKBh1SMF5WgjNu4xVjPfUdpA6M0ZQ
c5hc9IVKaw+A3V7Wvf2pL8Al9fl4141fEMJEVTyQPDFGy3CuB6kK46/BAW+QGiPi
XzjbxghdR7ODQfAuADcUuRKqeZJSzYcPe9hiKaR+ML0btYxytEjy4+gh+V5MYnmL
Agaff9ULAgMBAAGjggFRMIIBTTAfBgNVHSMEGDAWgBS7r34CPfqm8TyEjq3uOJjs
2TIy1DAdBgNVHQ4EFgQUKZFg/4pN+uv5pmq4z/nmS71JzhIwDgYDVR0PAQH/BAQD
AgGGMBIGA1UdEwEB/wQIMAYBAf8CAQAwEwYDVR0lBAwwCgYIKwYBBQUHAwMwEQYD
VR0gBAowCDAGBgRVHSAAMEwGA1UdHwRFMEMwQaA/oD2GO2h0dHA6Ly9jcmwuY29t
b2RvY2EuY29tL0NPTU9ET1JTQUNlcnRpZmljYXRpb25BdXRob3JpdHkuY3JsMHEG
CCsGAQUFBwEBBGUwYzA7BggrBgEFBQcwAoYvaHR0cDovL2NydC5jb21vZG9jYS5j
b20vQ09NT0RPUlNBQWRkVHJ1c3RDQS5jcnQwJAYIKwYBBQUHMAGGGGh0dHA6Ly9v
Y3NwLmNvbW9kb2NhLmNvbTANBgkqhkiG9w0BAQwFAAOCAgEAAj8COcPu+Mo7id4M
bU2x8U6ST6/COCwEzMVjEasJY6+rotcCP8xvGcM91hoIlP8l2KmIpysQGuCbsQci
GlEcOtTh6Qm/5iR0rx57FjFuI+9UUS1SAuJ1CAVM8bdR4VEAxof2bO4QRHZXavHf
WGshqknUfDdOvf+2dVRAGDZXZxHNTwLk/vPa/HUX2+y392UJI0kfQ1eD6n4gd2HI
TfK7ZU2o94VFB696aSdlkClAi997OlE5jKgfcHmtbUIgos8MbAOMTM1zB5TnWo46
BLqioXwfy2M6FafUFRunUkcyqfS/ZEfRqh9TTjIwc8Jvt3iCnVz/RrtrIh2IC/gb
qjSm/Iz13X9ljIwxVzHQNuxHoc/Li6jvHBhYxQZ3ykubUa9MCEp6j+KjUuKOjswm
5LLY5TjCqO3GgZw1a6lYYUoKl7RLQrZVnb6Z53BtWfhtKgx/GWBfDJqIbDCsUgmQ
Fhv/K53b0CDKieoofjKOGd97SDMe12X4rsn4gxSTdn1k0I7OvjV9/3IxTZ+evR5s
L6iPDAZQ+4wns3bJ9ObXwzTijIchhmH+v1V04SF3AwpobLvkyanmz1kl63zsRQ55
ZmjoIs2475iFTZYRPAmK0H+8KCgT+2rKVI2SXM3CZZgGns5IW9S1N5NGQXwH3c/6
Q++6Z2H/fUnguzB9XIDj5hY5S6c=
-----END CERTIFICATE-----

Certificate:
    Data:
        Version: 3 (0x2)
        Serial Number:
            4c:aa:f9:ca:db:63:6f:e0:1f:f7:4e:d8:5b:03:86:9d
    Signature Algorithm: sha384WithRSAEncryption
        Issuer: C=GB, ST=Greater Manchester, L=Salford, O=COMODO CA Limited, CN=COMODO RSA Certification Authority
        Validity
            Not Before: Jan 19 00:00:00 2010 GMT
            Not After : Jan 18 23:59:59 2038 GMT
        Subject: C=GB, ST=Greater Manchester, L=Salford, O=COMODO CA Limited, CN=COMODO RSA Certification Authority
        Subject Public Key Info:
            Public Key Algorithm: rsaEncryption
                Public-Key: (4096 bit)
                Modulus:
                    00:91:e8:54:92:d2:0a:56:b1:ac:0d:24:dd:c5:cf:
                    44:67:74:99:2b:37:a3:7d:23:70:00:71:bc:53:df:
                    c4:fa:2a:12:8f:4b:7f:10:56:bd:9f:70:72:b7:61:
                    7f:c9:4b:0f:17:a7:3d:e3:b0:04:61:ee:ff:11:97:
                    c7:f4:86:3e:0a:fa:3e:5c:f9:93:e6:34:7a:d9:14:
                    6b:e7:9c:b3:85:a0:82:7a:76:af:71:90:d7:ec:fd:
                    0d:fa:9c:6c:fa:df:b0:82:f4:14:7e:f9:be:c4:a6:
                    2f:4f:7f:99:7f:b5:fc:67:43:72:bd:0c:00:d6:89:
                    eb:6b:2c:d3:ed:8f:98:1c:14:ab:7e:e5:e3:6e:fc:
                    d8:a8:e4:92:24:da:43:6b:62:b8:55:fd:ea:c1:bc:
                    6c:b6:8b:f3:0e:8d:9a:e4:9b:6c:69:99:f8:78:48:
                    30:45:d5:ad:e1:0d:3c:45:60:fc:32:96:51:27:bc:
                    67:c3:ca:2e:b6:6b:ea:46:c7:c7:20:a0:b1:1f:65:
                    de:48:08:ba:a4:4e:a9:f2:83:46:37:84:eb:e8:cc:
                    81:48:43:67:4e:72:2a:9b:5c:bd:4c:1b:28:8a:5c:
                    22:7b:b4:ab:98:d9:ee:e0:51:83:c3:09:46:4e:6d:
                    3e:99:fa:95:17:da:7c:33:57:41:3c:8d:51:ed:0b:
                    b6:5c:af:2c:63:1a:df:57:c8:3f:bc:e9:5d:c4:9b:
                    af:45:99:e2:a3:5a:24:b4:ba:a9:56:3d:cf:6f:aa:
                    ff:49:58:be:f0:a8:ff:f4:b8:ad:e9:37:fb:ba:b8:
                    f4:0b:3a:f9:e8:43:42:1e:89:d8:84:cb:13:f1:d9:
                    bb:e1:89:60:b8:8c:28:56:ac:14:1d:9c:0a:e7:71:
                    eb:cf:0e:dd:3d:a9:96:a1:48:bd:3c:f7:af:b5:0d:
                    22:4c:c0:11:81:ec:56:3b:f6:d3:a2:e2:5b:b7:b2:
                    04:22:52:95:80:93:69:e8:8e:4c:65:f1:91:03:2d:
                    70:74:02:ea:8b:67:15:29:69:52:02:bb:d7:df:50:
                    6a:55:46:bf:a0:a3:28:61:7f:70:d0:c3:a2:aa:2c:
                    21:aa:47:ce:28:9c:06:45:76:bf:82:18:27:b4:d5:
                    ae:b4:cb:50:e6:6b:f4:4c:86:71:30:e9:a6:df:16:
                    86:e0:d8:ff:40:dd:fb:d0:42:88:7f:a3:33:3a:2e:
                    5c:1e:41:11:81:63:ce:18:71:6b:2b:ec:a6:8a:b7:
                    31:5c:3a:6a:47:e0:c3:79:59:d6:20:1a:af:f2:6a:
                    98:aa:72:bc:57:4a:d2:4b:9d:bb:10:fc:b0:4c:41:
                    e5:ed:1d:3d:5e:28:9d:9c:cc:bf:b3:51:da:a7:47:
                    e5:84:53
                Exponent: 65537 (0x10001)
        X509v3 extensions:
            X509v3 Subject Key Identifier: 
                BB:AF:7E:02:3D:FA:A6:F1:3C:84:8E:AD:EE:38:98:EC:D9:32:32:D4
            X509v3 Key Usage: critical
                Certificate Sign, CRL Sign
            X509v3 Basic Constraints: critical
                CA:TRUE
    Signature Algorithm: sha384WithRSAEncryption
         0a:f1:d5:46:84:b7:ae:51:bb:6c:b2:4d:41:14:00:93:4c:9c:
         cb:e5:c0:54:cf:a0:25:8e:02:f9:fd:b0:a2:0d:f5:20:98:3c:
         13:2d:ac:56:a2:b0:d6:7e:11:92:e9:2e:ba:9e:2e:9a:72:b1:
         bd:19:44:6c:61:35:a2:9a:b4:16:12:69:5a:8c:e1:d7:3e:a4:
         1a:e8:2f:03:f4:ae:61:1d:10:1b:2a:a4:8b:7a:c5:fe:05:a6:
         e1:c0:d6:c8:fe:9e:ae:8f:2b:ba:3d:99:f8:d8:73:09:58:46:
         6e:a6:9c:f4:d7:27:d3:95:da:37:83:72:1c:d3:73:e0:a2:47:
         99:03:38:5d:d5:49:79:00:29:1c:c7:ec:9b:20:1c:07:24:69:
         57:78:b2:39:fc:3a:84:a0:b5:9c:7c:8d:bf:2e:93:62:27:b7:
         39:da:17:18:ae:bd:3c:09:68:ff:84:9b:3c:d5:d6:0b:03:e3:
         57:9e:14:f7:d1:eb:4f:c8:bd:87:23:b7:b6:49:43:79:85:5c:
         ba:eb:92:0b:a1:c6:e8:68:a8:4c:16:b1:1a:99:0a:e8:53:2c:
         92:bb:a1:09:18:75:0c:65:a8:7b:cb:23:b7:1a:c2:28:85:c3:
         1b:ff:d0:2b:62:ef:a4:7b:09:91:98:67:8c:14:01:cd:68:06:
         6a:63:21:75:03:80:88:8a:6e:81:c6:85:f2:a9:a4:2d:e7:f4:
         a5:24:10:47:83:ca:cd:f4:8d:79:58:b1:06:9b:e7:1a:2a:d9:
         9d:01:d7:94:7d:ed:03:4a:ca:f0:db:e8:a9:01:3e:f5:56:99:
         c9:1e:8e:49:3d:bb:e5:09:b9:e0:4f:49:92:3d:16:82:40:cc:
         cc:59:c6:e6:3a:ed:12:2e:69:3c:6c:95:b1:fd:aa:1d:7b:7f:
         86:be:1e:0e:32:46:fb:fb:13:8f:75:7f:4c:8b:4b:46:63:fe:
         00:34:40:70:c1:c3:b9:a1:dd:a6:70:e2:04:b3:41:bc:e9:80:
         91:ea:64:9c:7a:e1:22:03:a9:9c:6e:6f:0e:65:4f:6c:87:87:
         5e:f3:6e:a0:f9:75:a5:9b:40:e8:53:b2:27:9d:4a:b9:c0:77:
         21:8d:ff:87:f2:de:bc:8c:ef:17:df:b7:49:0b:d1:f2:6e:30:
         0b:1a:0e:4e:76:ed:11:fc:f5:e9:56:b2:7d:bf:c7:6d:0a:93:
         8c:a5:d0:c0:b6:1d:be:3a:4e:94:a2:d7:6e:6c:0b:c2:8a:7c:
         fa:20:f3:c4:e4:e5:cd:0d:a8:cb:91:92:b1:7c:85:ec:b5:14:
         69:66:0e:82:e7:cd:ce:c8:2d:a6:51:7f:21:c1:35:53:85:06:
         4a:5d:9f:ad:bb:1b:5f:74
-----BEGIN CERTIFICATE-----
MIIF2DCCA8CgAwIBAgIQTKr5yttjb+Af907YWwOGnTANBgkqhkiG9w0BAQwFADCB
hTELMAkGA1UEBhMCR0IxGzAZBgNVBAgTEkdyZWF0ZXIgTWFuY2hlc3RlcjEQMA4G
A1UEBxMHU2FsZm9yZDEaMBgGA1UEChMRQ09NT0RPIENBIExpbWl0ZWQxKzApBgNV
BAMTIkNPTU9ETyBSU0EgQ2VydGlmaWNhdGlvbiBBdXRob3JpdHkwHhcNMTAwMTE5
MDAwMDAwWhcNMzgwMTE4MjM1OTU5WjCBhTELMAkGA1UEBhMCR0IxGzAZBgNVBAgT
EkdyZWF0ZXIgTWFuY2hlc3RlcjEQMA4GA1UEBxMHU2FsZm9yZDEaMBgGA1UEChMR
Q09NT0RPIENBIExpbWl0ZWQxKzApBgNVBAMTIkNPTU9ETyBSU0EgQ2VydGlmaWNh
dGlvbiBBdXRob3JpdHkwggIiMA0GCSqGSIb3DQEBAQUAA4ICDwAwggIKAoICAQCR
6FSS0gpWsawNJN3Fz0RndJkrN6N9I3AAcbxT38T6KhKPS38QVr2fcHK3YX/JSw8X
pz3jsARh7v8Rl8f0hj4K+j5c+ZPmNHrZFGvnnLOFoIJ6dq9xkNfs/Q36nGz637CC
9BR++b7Epi9Pf5l/tfxnQ3K9DADWietrLNPtj5gcFKt+5eNu/Nio5JIk2kNrYrhV
/erBvGy2i/MOjZrkm2xpmfh4SDBF1a3hDTxFYPwyllEnvGfDyi62a+pGx8cgoLEf
Zd5ICLqkTqnyg0Y3hOvozIFIQ2dOciqbXL1MGyiKXCJ7tKuY2e7gUYPDCUZObT6Z
+pUX2nwzV0E8jVHtC7ZcryxjGt9XyD+86V3Em69FmeKjWiS0uqlWPc9vqv9JWL7w
qP/0uK3pN/u6uPQLOvnoQ0IeidiEyxPx2bvhiWC4jChWrBQdnArncevPDt09qZah
SL0896+1DSJMwBGB7FY79tOi4lu3sgQiUpWAk2nojkxl8ZEDLXB0AuqLZxUpaVIC
u9ffUGpVRr+goyhhf3DQw6KqLCGqR84onAZFdr+CGCe01a60y1Dma/RMhnEw6abf
Fobg2P9A3fvQQoh/ozM6LlweQRGBY84YcWsr7KaKtzFcOmpH4MN5WdYgGq/yapiq
crxXStJLnbsQ/LBMQeXtHT1eKJ2czL+zUdqnR+WEUwIDAQABo0IwQDAdBgNVHQ4E
FgQUu69+Aj36pvE8hI6t7jiY7NkyMtQwDgYDVR0PAQH/BAQDAgEGMA8GA1UdEwEB
/wQFMAMBAf8wDQYJKoZIhvcNAQEMBQADggIBAArx1UaEt65Ru2yyTUEUAJNMnMvl
wFTPoCWOAvn9sKIN9SCYPBMtrFaisNZ+EZLpLrqeLppysb0ZRGxhNaKatBYSaVqM
4dc+pBroLwP0rmEdEBsqpIt6xf4FpuHA1sj+nq6PK7o9mfjYcwlYRm6mnPTXJ9OV
2jeDchzTc+CiR5kDOF3VSXkAKRzH7JsgHAckaVd4sjn8OoSgtZx8jb8uk2Intzna
FxiuvTwJaP+EmzzV1gsD41eeFPfR60/IvYcjt7ZJQ3mFXLrrkguhxuhoqEwWsRqZ
CuhTLJK7oQkYdQxlqHvLI7cawiiFwxv/0Cti76R7CZGYZ4wUAc1oBmpjIXUDgIiK
boHGhfKppC3n9KUkEEeDys30jXlYsQab5xoq2Z0B15R97QNKyvDb6KkBPvVWmcke
jkk9u+UJueBPSZI9FoJAzMxZxuY67RIuaTxslbH9qh17f4a+Hg4yRvv7E491f0yL
S0Zj/gA0QHDBw7mh3aZw4gSzQbzpgJHqZJx64SIDqZxubw5lT2yHh17zbqD5daWb
QOhTsiedSrnAdyGN/4fy3ryM7xfft0kL0fJuMAsaDk527RH89elWsn2/x20Kk4yl
0MC2Hb46TpSi125sC8KKfPog88Tk5c0NqMuRkrF8hey1FGlmDoLnzc7ILaZRfyHB
NVOFBkpdn627G190
-----END CERTIFICATE-----

