Certificate:
    Data:
        Version: 3 (0x2)
        Serial Number:
            18:da:d1:9e:26:7d:e8:bb:4a:21:58:cd:cc:6b:3b:4a
    Signature Algorithm: sha1WithRSAEncryption
        Issuer: C=US, O=VeriSign, Inc., OU=VeriSign Trust Network, OU=(c) 2006 VeriSign, Inc. - For authorized use only, CN=VeriSign Class 3 Public Primary Certification Authority - G5
        Validity
            Not Before: Nov  8 00:00:00 2006 GMT
            Not After : Jul 16 23:59:59 2036 GMT
        Subject: C=US, O=VeriSign, Inc., OU=VeriSign Trust Network, OU=(c) 2006 VeriSign, Inc. - For authorized use only, CN=VeriSign Class 3 Public Primary Certification Authority - G5
        Subject Public Key Info:
            Public Key Algorithm: rsaEncryption
                Public-Key: (2048 bit)
                Modulus:
                    00:af:24:08:08:29:7a:35:9e:60:0c:aa:e7:4b:3b:
                    4e:dc:7c:bc:3c:45:1c:bb:2b:e0:fe:29:02:f9:57:
                    08:a3:64:85:15:27:f5:f1:ad:c8:31:89:5d:22:e8:
                    2a:aa:a6:42:b3:8f:f8:b9:55:b7:b1:b7:4b:b3:fe:
                    8f:7e:07:57:ec:ef:43:db:66:62:15:61:cf:60:0d:
                    a4:d8:de:f8:e0:c3:62:08:3d:54:13:eb:49:ca:59:
                    54:85:26:e5:2b:8f:1b:9f:eb:f5:a1:91:c2:33:49:
                    d8:43:63:6a:52:4b:d2:8f:e8:70:51:4d:d1:89:69:
                    7b:c7:70:f6:b3:dc:12:74:db:7b:5d:4b:56:d3:96:
                    bf:15:77:a1:b0:f4:a2:25:f2:af:1c:92:67:18:e5:
                    f4:06:04:ef:90:b9:e4:00:e4:dd:3a:b5:19:ff:02:
                    ba:f4:3c:ee:e0:8b:eb:37:8b:ec:f4:d7:ac:f2:f6:
                    f0:3d:af:dd:75:91:33:19:1d:1c:40:cb:74:24:19:
                    21:93:d9:14:fe:ac:2a:52:c7:8f:d5:04:49:e4:8d:
                    63:47:88:3c:69:83:cb:fe:47:bd:2b:7e:4f:c5:95:
                    ae:0e:9d:d4:d1:43:c0:67:73:e3:14:08:7e:e5:3f:
                    9f:73:b8:33:0a:cf:5d:3f:34:87:96:8a:ee:53:e8:
                    25:15
                Exponent: 65537 (0x10001)
        X509v3 extensions:
            X509v3 Basic Constraints: critical
                CA:TRUE
            X509v3 Key Usage: critical
                Certificate Sign, CRL Sign
            1.3.6.1.5.5.7.1.12: 
                0_.].[0Y0W0U..image/gif0!0.0...+..............k...j.H.,{..0%.#http://logo.verisign.com/vslogo.gif
            X509v3 Subject Key Identifier: 
                7F:D3:65:A7:C2:DD:EC:BB:F0:30:09:F3:43:39:FA:02:AF:33:31:33
    Signature Algorithm: sha1WithRSAEncryption
         93:24:4a:30:5f:62:cf:d8:1a:98:2f:3d:ea:dc:99:2d:bd:77:
         f6:a5:79:22:38:ec:c4:a7:a0:78:12:ad:62:0e:45:70:64:c5:
         e7:97:66:2d:98:09:7e:5f:af:d6:cc:28:65:f2:01:aa:08:1a:
         47:de:f9:f9:7c:92:5a:08:69:20:0d:d9:3e:6d:6e:3c:0d:6e:
         d8:e6:06:91:40:18:b9:f8:c1:ed:df:db:41:aa:e0:96:20:c9:
         cd:64:15:38:81:c9:94:ee:a2:84:29:0b:13:6f:8e:db:0c:dd:
         25:02:db:a4:8b:19:44:d2:41:7a:05:69:4a:58:4f:60:ca:7e:
         82:6a:0b:02:aa:25:17:39:b5:db:7f:e7:84:65:2a:95:8a:bd:
         86:de:5e:81:16:83:2d:10:cc:de:fd:a8:82:2a:6d:28:1f:0d:
         0b:c4:e5:e7:1a:26:19:e1:f4:11:6f:10:b5:95:fc:e7:42:05:
         32:db:ce:9d:51:5e:28:b6:9e:85:d3:5b:ef:a5:7d:45:40:72:
         8e:b7:0e:6b:0e:06:fb:33:35:48:71:b8:9d:27:8b:c4:65:5f:
         0d:86:76:9c:44:7a:f6:95:5c:f6:5d:32:08:33:a4:54:b6:18:
         3f:68:5c:f2:42:4a:85:38:54:83:5f:d1:e8:2c:f2:ac:11:d6:
         a8:ed:63:6a
-----BEGIN CERTIFICATE-----
MIIE0zCCA7ugAwIBAgIQGNrRniZ96LtKIVjNzGs7SjANBgkqhkiG9w0BAQUFADCB
yjELMAkGA1UEBhMCVVMxFzAVBgNVBAoTDlZlcmlTaWduLCBJbmMuMR8wHQYDVQQL
ExZWZXJpU2lnbiBUcnVzdCBOZXR3b3JrMTowOAYDVQQLEzEoYykgMjAwNiBWZXJp
U2lnbiwgSW5jLiAtIEZvciBhdXRob3JpemVkIHVzZSBvbmx5MUUwQwYDVQQDEzxW
ZXJpU2lnbiBDbGFzcyAzIFB1YmxpYyBQcmltYXJ5IENlcnRpZmljYXRpb24gQXV0
aG9yaXR5IC0gRzUwHhcNMDYxMTA4MDAwMDAwWhcNMzYwNzE2MjM1OTU5WjCByjEL
MAkGA1UEBhMCVVMxFzAVBgNVBAoTDlZlcmlTaWduLCBJbmMuMR8wHQYDVQQLExZW
ZXJpU2lnbiBUcnVzdCBOZXR3b3JrMTowOAYDVQQLEzEoYykgMjAwNiBWZXJpU2ln
biwgSW5jLiAtIEZvciBhdXRob3JpemVkIHVzZSBvbmx5MUUwQwYDVQQDEzxWZXJp
U2lnbiBDbGFzcyAzIFB1YmxpYyBQcmltYXJ5IENlcnRpZmljYXRpb24gQXV0aG9y
aXR5IC0gRzUwggEiMA0GCSqGSIb3DQEBAQUAA4IBDwAwggEKAoIBAQCvJAgIKXo1
nmAMqudLO07cfLw8RRy7K+D+KQL5VwijZIUVJ/XxrcgxiV0i6CqqpkKzj/i5Vbex
t0uz/o9+B1fs70PbZmIVYc9gDaTY3vjgw2IIPVQT60nKWVSFJuUrjxuf6/WhkcIz
SdhDY2pSS9KP6HBRTdGJaXvHcPaz3BJ023tdS1bTlr8Vd6Gw9KIl8q8ckmcY5fQG
BO+QueQA5N06tRn/Arr0PO7gi+s3i+z016zy9vA9r911kTMZHRxAy3QkGSGT2RT+
rCpSx4/VBEnkjWNHiDxpg8v+R70rfk/Fla4OndTRQ8Bnc+MUCH7lP59zuDMKz10/
NIeWiu5T6CUVAgMBAAGjgbIwga8wDwYDVR0TAQH/BAUwAwEB/zAOBgNVHQ8BAf8E
BAMCAQYwbQYIKwYBBQUHAQwEYTBfoV2gWzBZMFcwVRYJaW1hZ2UvZ2lmMCEwHzAH
BgUrDgMCGgQUj+XTGoasjY5rw8+AatRIGCx7GS4wJRYjaHR0cDovL2xvZ28udmVy
aXNpZ24uY29tL3ZzbG9nby5naWYwHQYDVR0OBBYEFH/TZafC3ey78DAJ80M5+gKv
MzEzMA0GCSqGSIb3DQEBBQUAA4IBAQCTJEowX2LP2BqYLz3q3JktvXf2pXkiOOzE
p6B4Eq1iDkVwZMXnl2YtmAl+X6/WzChl8gGqCBpH3vn5fJJaCGkgDdk+bW48DW7Y
5gaRQBi5+MHt39tBquCWIMnNZBU4gcmU7qKEKQsTb47bDN0lAtukixlE0kF6BWlK
WE9gyn6CagsCqiUXObXbf+eEZSqVir2G3l6BFoMtEMze/aiCKm0oHw0LxOXnGiYZ
4fQRbxC1lfznQgUy286dUV4otp6F01vvpX1FQHKOtw5rDgb7MzVIcbidJ4vEZV8N
hnacRHr2lVz2XTIIM6RUthg/aFzyQkqFOFSDX9HoLPKsEdao7WNq
-----END CERTIFICATE-----

Certificate:
    Data:
        Version: 3 (0x2)
        Serial Number:
            19:1a:32:cb:75:9c:97:b8:cf:ac:11:8d:d5:12:7f:49
    Signature Algorithm: sha256WithRSAEncryption
        Issuer: C=US, O=VeriSign, Inc., OU=VeriSign Trust Network, OU=(c) 2006 VeriSign, Inc. - For authorized use only, CN=VeriSign Class 3 Public Primary Certification Authority - G5
        Validity
            Not Before: Mar  4 00:00:00 2014 GMT
            Not After : Mar  3 23:59:59 2024 GMT
        Subject: C=US, O=Symantec Corporation, OU=Symantec Trust Network, CN=Symantec Class 3 Extended Validation Code Signing CA - G2
        Subject Public Key Info:
            Public Key Algorithm: rsaEncryption
                Public-Key: (2048 bit)
                Modulus:
                    00:d0:18:02:ee:ed:a2:8d:08:58:63:0f:26:d7:dd:
                    22:7b:88:f6:e4:c7:ec:3b:26:18:78:d3:c7:a4:20:
                    53:8d:83:7c:a5:3f:7e:a5:c8:2b:47:df:0d:f5:a6:
                    d9:c3:1d:25:93:60:cf:7c:dc:ea:03:2c:be:78:7f:
                    5c:48:6d:a7:02:d9:49:f8:a1:eb:eb:9a:61:7c:9f:
                    c0:26:d6:dc:15:d8:b8:10:7c:20:ba:5e:f4:28:f6:
                    a8:ea:a7:5c:7c:c6:9c:90:90:34:3c:b6:22:ac:fe:
                    ba:0c:3a:1e:d6:5e:84:b6:5b:f0:a3:81:70:78:8a:
                    8d:46:52:7b:fc:db:49:f3:29:13:11:74:4f:8d:16:
                    b3:c2:e3:a0:2d:c7:03:04:9d:cc:c3:72:e1:0e:0c:
                    fb:02:8e:f1:26:17:7b:6e:ae:f8:b7:33:8b:a6:61:
                    4b:45:df:f2:25:44:c7:f7:b0:98:23:36:dc:28:79:
                    0a:e8:9b:72:88:a8:d8:e8:ae:7b:7f:0a:64:45:a5:
                    f0:57:92:9a:77:06:45:1e:eb:9f:e8:66:f3:7a:7d:
                    92:81:5f:00:2d:1e:b8:f6:56:13:5a:62:0d:b7:47:
                    a1:8f:72:ef:83:5e:82:e0:94:98:e1:ac:a5:ad:86:
                    37:e0:a7:d3:ba:b1:3e:7a:eb:45:a8:f1:c1:44:7d:
                    e2:03
                Exponent: 65537 (0x10001)
        X509v3 extensions:
            X509v3 Basic Constraints: critical
                CA:TRUE, pathlen:0
            X509v3 CRL Distribution Points: 

                Full Name:
                  URI:http://s.symcb.com/pca3-g5.crl

            X509v3 Extended Key Usage: critical
                Code Signing
            X509v3 Key Usage: critical
                Certificate Sign, CRL Sign
            Authority Information Access: 
                OCSP - URI:http://s.symcd.com

            X509v3 Certificate Policies: 
                Policy: X509v3 Any Policy
                  CPS: https://d.symcb.com/cps
                  User Notice:
                    Explicit Text: https://d.symcb.com/rpa

            X509v3 Subject Alternative Name: 
                DirName:/CN=SymantecPKI-1-629
            X509v3 Subject Key Identifier: 
                16:66:DE:4A:34:E3:50:A7:11:86:03:B1:6C:A9:C6:AC:CD:59:6E:9B
            X509v3 Authority Key Identifier: 
                keyid:7F:D3:65:A7:C2:DD:EC:BB:F0:30:09:F3:43:39:FA:02:AF:33:31:33

    Signature Algorithm: sha256WithRSAEncryption
         3f:5b:19:f3:fa:13:d5:75:38:2a:5a:ee:9f:5a:a0:4c:a9:1d:
         c5:cc:94:ee:de:15:fe:f5:10:6e:a4:1b:a5:64:83:54:18:58:
         c4:0b:28:a1:85:c3:4e:74:e5:ff:89:7c:fe:d5:ed:3c:ba:71:
         9f:56:02:26:8f:16:2a:88:fe:b0:a3:27:22:ce:4b:e2:38:8e:
         00:a6:3a:86:5f:9d:e5:3e:a8:de:64:49:41:74:41:21:fd:07:
         c8:84:17:da:1d:65:30:82:cb:26:4f:39:d6:04:27:a4:81:b1:
         4b:49:c3:23:8b:7e:02:32:18:27:b7:ab:0b:f3:18:72:b6:a4:
         ee:67:06:6f:38:a6:58:8d:e0:f1:7e:5d:a4:60:c6:a8:e5:50:
         5f:e0:e8:ba:e2:8f:99:58:b6:b5:a0:a8:76:f1:a2:f1:1c:88:
         41:72:7e:52:97:9b:0a:36:99:8d:50:f7:01:eb:3c:e7:f0:22:
         6a:e5:35:8c:63:36:8a:1a:b1:d9:67:66:5f:97:1a:ef:a8:20:
         9d:f0:2f:ba:6c:ce:d9:94:85:00:f1:58:f1:7d:c9:7c:22:b5:
         07:5d:02:c6:e6:0b:bf:ab:93:93:ff:27:18:8e:33:36:7e:57:
         34:f1:c3:af:04:c1:84:f1:56:b3:e8:87:83:36:f8:d3:0a:31:
         dc:6e:2c:6d
-----BEGIN CERTIFICATE-----
MIIFVjCCBD6gAwIBAgIQGRoyy3Wcl7jPrBGN1RJ/STANBgkqhkiG9w0BAQsFADCB
yjELMAkGA1UEBhMCVVMxFzAVBgNVBAoTDlZlcmlTaWduLCBJbmMuMR8wHQYDVQQL
ExZWZXJpU2lnbiBUcnVzdCBOZXR3b3JrMTowOAYDVQQLEzEoYykgMjAwNiBWZXJp
U2lnbiwgSW5jLiAtIEZvciBhdXRob3JpemVkIHVzZSBvbmx5MUUwQwYDVQQDEzxW
ZXJpU2lnbiBDbGFzcyAzIFB1YmxpYyBQcmltYXJ5IENlcnRpZmljYXRpb24gQXV0
aG9yaXR5IC0gRzUwHhcNMTQwMzA0MDAwMDAwWhcNMjQwMzAzMjM1OTU5WjCBkTEL
MAkGA1UEBhMCVVMxHTAbBgNVBAoTFFN5bWFudGVjIENvcnBvcmF0aW9uMR8wHQYD
VQQLExZTeW1hbnRlYyBUcnVzdCBOZXR3b3JrMUIwQAYDVQQDEzlTeW1hbnRlYyBD
bGFzcyAzIEV4dGVuZGVkIFZhbGlkYXRpb24gQ29kZSBTaWduaW5nIENBIC0gRzIw
ggEiMA0GCSqGSIb3DQEBAQUAA4IBDwAwggEKAoIBAQDQGALu7aKNCFhjDybX3SJ7
iPbkx+w7Jhh408ekIFONg3ylP36lyCtH3w31ptnDHSWTYM983OoDLL54f1xIbacC
2Un4oevrmmF8n8Am1twV2LgQfCC6XvQo9qjqp1x8xpyQkDQ8tiKs/roMOh7WXoS2
W/CjgXB4io1GUnv820nzKRMRdE+NFrPC46AtxwMEnczDcuEODPsCjvEmF3turvi3
M4umYUtF3/IlRMf3sJgjNtwoeQrom3KIqNjornt/CmRFpfBXkpp3BkUe65/oZvN6
fZKBXwAtHrj2VhNaYg23R6GPcu+DXoLglJjhrKWthjfgp9O6sT5660Wo8cFEfeID
AgMBAAGjggFtMIIBaTASBgNVHRMBAf8ECDAGAQH/AgEAMC8GA1UdHwQoMCYwJKAi
oCCGHmh0dHA6Ly9zLnN5bWNiLmNvbS9wY2EzLWc1LmNybDAWBgNVHSUBAf8EDDAK
BggrBgEFBQcDAzAOBgNVHQ8BAf8EBAMCAQYwLgYIKwYBBQUHAQEEIjAgMB4GCCsG
AQUFBzABhhJodHRwOi8vcy5zeW1jZC5jb20wXwYDVR0gBFgwVjBUBgRVHSAAMEww
IwYIKwYBBQUHAgEWF2h0dHBzOi8vZC5zeW1jYi5jb20vY3BzMCUGCCsGAQUFBwIC
MBkaF2h0dHBzOi8vZC5zeW1jYi5jb20vcnBhMCkGA1UdEQQiMCCkHjAcMRowGAYD
VQQDExFTeW1hbnRlY1BLSS0xLTYyOTAdBgNVHQ4EFgQUFmbeSjTjUKcRhgOxbKnG
rM1ZbpswHwYDVR0jBBgwFoAUf9Nlp8Ld7LvwMAnzQzn6Aq8zMTMwDQYJKoZIhvcN
AQELBQADggEBAD9bGfP6E9V1OCpa7p9aoEypHcXMlO7eFf71EG6kG6Vkg1QYWMQL
KKGFw0505f+JfP7V7Ty6cZ9WAiaPFiqI/rCjJyLOS+I4jgCmOoZfneU+qN5kSUF0
QSH9B8iEF9odZTCCyyZPOdYEJ6SBsUtJwyOLfgIyGCe3qwvzGHK2pO5nBm84pliN
4PF+XaRgxqjlUF/g6Lrij5lYtrWgqHbxovEciEFyflKXmwo2mY1Q9wHrPOfwImrl
NYxjNooasdlnZl+XGu+oIJ3wL7psztmUhQDxWPF9yXwitQddAsbmC7+rk5P/JxiO
MzZ+VzTxw68EwYTxVrPoh4M2+NMKMdxuLG0=
-----END CERTIFICATE-----

Certificate:
    Data:
        Version: 3 (0x2)
        Serial Number:
            70:24:04:ec:4d:56:a8:fe:79:58:68:8f:39:e8:c9:91
    Signature Algorithm: sha256WithRSAEncryption
        Issuer: C=US, O=Symantec Corporation, OU=Symantec Trust Network, CN=Symantec Class 3 Extended Validation Code Signing CA - G2
        Validity
            Not Before: Aug 28 00:00:00 2017 GMT
            Not After : Aug 28 23:59:59 2018 GMT
        Subject: jurisdictionC=US/jurisdictionST=Alaska/jurisdictionL=Anchorage/businessCategory=Private Organization/serialNumber=10007133, C=US, ST=Alaska, L=Anchorage, O=Zookaware, LLC., CN=Zookaware, LLC.
        Subject Public Key Info:
            Public Key Algorithm: rsaEncryption
                Public-Key: (2048 bit)
                Modulus:
                    00:b1:d0:00:51:72:3a:d3:c7:8d:f8:51:ff:e6:41:
                    9e:0b:27:a9:b1:77:12:4f:0a:a9:af:63:d8:fb:01:
                    f7:98:24:5b:69:74:c0:44:4d:0a:8f:8f:2b:1c:da:
                    76:d0:58:c3:a6:b3:25:6a:f3:6c:82:19:30:49:10:
                    70:e4:15:0b:36:d5:a6:21:2e:12:94:b9:d6:25:06:
                    ad:a0:9c:e8:30:ba:87:49:39:58:d9:2f:cd:e1:01:
                    24:d4:09:85:f1:5f:66:0a:68:49:73:61:52:f1:0a:
                    28:fc:1b:69:a4:93:47:9f:eb:37:9a:7a:56:a0:0c:
                    51:5b:78:1c:5e:25:0c:11:00:19:d9:9b:d7:92:e8:
                    2f:35:9c:25:58:14:3a:62:e4:7a:63:29:a2:b5:40:
                    76:58:77:73:af:a1:95:25:56:1b:6b:b3:1e:a1:e1:
                    8e:2f:b6:a9:79:60:60:28:c7:a6:00:b7:c3:0b:86:
                    b7:6a:d1:3e:f1:3f:f1:5a:ff:fb:05:37:89:e1:d8:
                    a2:77:82:d7:fc:da:b7:3f:38:e0:bf:35:f5:20:26:
                    80:05:72:fd:53:3e:10:55:35:85:9d:0d:59:0c:98:
                    29:b9:24:a0:7f:31:bf:a2:b3:69:c4:37:87:24:45:
                    f4:a3:0c:8e:8d:86:a9:3b:14:f1:a6:47:67:f4:c7:
                    16:e5
                Exponent: 65537 (0x10001)
        X509v3 extensions:
            X509v3 Basic Constraints: 
                CA:FALSE
            X509v3 Key Usage: critical
                Digital Signature
            X509v3 CRL Distribution Points: 

                Full Name:
                  URI:http://sw.symcb.com/sw.crl

            X509v3 Certificate Policies: 
                Policy: 2.23.140.1.3
                  CPS: https://d.symcb.com/cps
                  User Notice:
                    Explicit Text: https://d.symcb.com/rpa

            X509v3 Extended Key Usage: critical
                Code Signing
            X509v3 Authority Key Identifier: 
                keyid:16:66:DE:4A:34:E3:50:A7:11:86:03:B1:6C:A9:C6:AC:CD:59:6E:9B

            X509v3 Subject Key Identifier: 
                5B:AF:52:67:13:89:1B:F3:64:31:AB:7C:60:1C:22:3B:F8:53:75:A4
            Authority Information Access: 
                OCSP - URI:http://sw.symcd.com
                CA Issuers - URI:http://sw1.symcb.com/sw.crt

    Signature Algorithm: sha256WithRSAEncryption
         cf:d9:17:b7:f3:3c:8d:8f:b9:00:a2:68:0e:51:ff:88:c2:4c:
         35:cf:8d:72:31:1b:17:45:42:e3:d7:c0:d7:50:5a:3f:2d:e0:
         6c:d4:d3:ea:3f:29:ac:52:59:16:e7:c2:5f:dd:86:0e:67:45:
         a9:11:27:4a:b6:e1:aa:c0:c7:bd:56:f4:80:fe:2e:f7:84:a5:
         ad:49:c1:88:99:57:ec:f2:d1:2e:56:06:68:2e:c4:ad:84:00:
         5b:3f:35:49:61:40:0e:42:26:b9:b2:26:e4:4d:6f:5a:bc:b7:
         24:e8:81:84:87:ba:a0:81:3b:fe:9c:b5:7d:33:fe:c0:e4:59:
         c7:9c:70:0d:48:e0:ea:63:ef:c3:e2:a8:5a:5d:5c:80:02:10:
         5a:53:d0:f9:d5:fe:2b:7f:af:d0:03:b0:ae:84:2e:0c:b5:4e:
         f0:03:69:0e:84:56:b6:fa:6f:77:6b:32:3e:46:41:44:82:5b:
         48:aa:f3:9a:5b:9d:93:13:b8:43:5c:f4:ff:e8:fd:f8:c9:25:
         fc:61:1c:36:c3:0e:e1:9c:28:44:a9:51:02:ba:0a:9e:f6:62:
         ef:4e:55:02:cd:9b:65:c7:5b:fd:1c:50:08:3a:dd:39:83:56:
         e8:1d:6e:17:25:4d:d0:64:ed:f9:7a:fd:9a:50:bd:b3:89:4e:
         a8:72:8c:f3
-----BEGIN CERTIFICATE-----
MIIFYTCCBEmgAwIBAgIQcCQE7E1WqP55WGiPOejJkTANBgkqhkiG9w0BAQsFADCB
kTELMAkGA1UEBhMCVVMxHTAbBgNVBAoTFFN5bWFudGVjIENvcnBvcmF0aW9uMR8w
HQYDVQQLExZTeW1hbnRlYyBUcnVzdCBOZXR3b3JrMUIwQAYDVQQDEzlTeW1hbnRl
YyBDbGFzcyAzIEV4dGVuZGVkIFZhbGlkYXRpb24gQ29kZSBTaWduaW5nIENBIC0g
RzIwHhcNMTcwODI4MDAwMDAwWhcNMTgwODI4MjM1OTU5WjCB4jETMBEGCysGAQQB
gjc8AgEDEwJVUzEXMBUGCysGAQQBgjc8AgECDAZBbGFza2ExGjAYBgsrBgEEAYI3
PAIBAQwJQW5jaG9yYWdlMR0wGwYDVQQPExRQcml2YXRlIE9yZ2FuaXphdGlvbjER
MA8GA1UEBRMIMTAwMDcxMzMxCzAJBgNVBAYTAlVTMQ8wDQYDVQQIDAZBbGFza2Ex
EjAQBgNVBAcMCUFuY2hvcmFnZTEYMBYGA1UECgwPWm9va2F3YXJlLCBMTEMuMRgw
FgYDVQQDDA9ab29rYXdhcmUsIExMQy4wggEiMA0GCSqGSIb3DQEBAQUAA4IBDwAw
ggEKAoIBAQCx0ABRcjrTx434Uf/mQZ4LJ6mxdxJPCqmvY9j7AfeYJFtpdMBETQqP
jysc2nbQWMOmsyVq82yCGTBJEHDkFQs21aYhLhKUudYlBq2gnOgwuodJOVjZL83h
ASTUCYXxX2YKaElzYVLxCij8G2mkk0ef6zeaelagDFFbeBxeJQwRABnZm9eS6C81
nCVYFDpi5HpjKaK1QHZYd3OvoZUlVhtrsx6h4Y4vtql5YGAox6YAt8MLhrdq0T7x
P/Fa//sFN4nh2KJ3gtf82rc/OOC/NfUgJoAFcv1TPhBVNYWdDVkMmCm5JKB/Mb+i
s2nEN4ckRfSjDI6Nhqk7FPGmR2f0xxblAgMBAAGjggFgMIIBXDAJBgNVHRMEAjAA
MA4GA1UdDwEB/wQEAwIHgDArBgNVHR8EJDAiMCCgHqAchhpodHRwOi8vc3cuc3lt
Y2IuY29tL3N3LmNybDBgBgNVHSAEWTBXMFUGBWeBDAEDMEwwIwYIKwYBBQUHAgEW
F2h0dHBzOi8vZC5zeW1jYi5jb20vY3BzMCUGCCsGAQUFBwICMBkMF2h0dHBzOi8v
ZC5zeW1jYi5jb20vcnBhMBYGA1UdJQEB/wQMMAoGCCsGAQUFBwMDMB8GA1UdIwQY
MBaAFBZm3ko041CnEYYDsWypxqzNWW6bMB0GA1UdDgQWBBRbr1JnE4kb82Qxq3xg
HCI7+FN1pDBYBggrBgEFBQcBAQRMMEowHwYIKwYBBQUHMAGGE2h0dHA6Ly9zdy5z
eW1jZC5jb20wJwYIKwYBBQUHMAKGG2h0dHA6Ly9zdzEuc3ltY2IuY29tL3N3LmNy
dDANBgkqhkiG9w0BAQsFAAOCAQEAz9kXt/M8jY+5AKJoDlH/iMJMNc+NcjEbF0VC
49fA11BaPy3gbNTT6j8prFJZFufCX92GDmdFqREnSrbhqsDHvVb0gP4u94SlrUnB
iJlX7PLRLlYGaC7ErYQAWz81SWFADkImubIm5E1vWry3JOiBhIe6oIE7/py1fTP+
wORZx5xwDUjg6mPvw+KoWl1cgAIQWlPQ+dX+K3+v0AOwroQuDLVO8ANpDoRWtvpv
d2syPkZBRIJbSKrzmludkxO4Q1z0/+j9+Mkl/GEcNsMO4ZwoRKlRAroKnvZi705V
As2bZcdb/RxQCDrdOYNW6B1uFyVN0GTt+Xr9mlC9s4lOqHKM8w==
-----END CERTIFICATE-----

Certificate:
    Data:
        Version: 3 (0x2)
        Serial Number:
            03:01:9a:02:3a:ff:58:b1:6b:d6:d5:ea:e6:17:f0:66
    Signature Algorithm: sha1WithRSAEncryption
        Issuer: C=US, O=DigiCert Inc, OU=www.digicert.com, CN=DigiCert Assured ID CA-1
        Validity
            Not Before: Oct 22 00:00:00 2014 GMT
            Not After : Oct 22 00:00:00 2024 GMT
        Subject: C=US, O=DigiCert, CN=DigiCert Timestamp Responder
        Subject Public Key Info:
            Public Key Algorithm: rsaEncryption
                Public-Key: (2048 bit)
                Modulus:
                    00:a3:64:5d:fc:7c:b3:e0:82:35:e0:e0:f6:c6:2a:
                    e6:49:75:3b:cc:6e:e0:53:a9:9f:1f:64:59:e6:7c:
                    6b:7f:6b:8c:9d:55:f8:92:e3:9e:d5:5a:63:5b:02:
                    49:50:d9:83:ce:6f:66:ee:dd:cb:85:e9:5f:a5:f9:
                    d4:87:74:88:44:3b:19:c9:e5:f5:91:9f:c6:14:39:
                    ac:24:ea:a8:4b:2c:91:89:cc:5e:28:f4:64:b6:50:
                    b7:f5:12:b3:73:96:0a:67:a3:be:61:9f:ae:f3:fd:
                    12:78:75:0e:a6:5b:14:fd:45:23:8e:86:44:55:7d:
                    18:86:05:8c:55:87:79:48:46:f7:ca:0e:8d:a7:de:
                    4e:5f:e2:a8:b6:2d:59:02:61:88:61:72:18:68:b9:
                    b8:7c:ee:e6:e7:34:2f:31:77:81:30:1f:bb:36:01:
                    8d:ef:27:e3:f7:9a:f0:4c:31:64:8d:e3:eb:fa:19:
                    87:a8:7e:cf:ec:8c:0c:36:5b:7a:c1:7a:b8:78:c7:
                    c9:06:2e:46:10:c8:8d:e8:04:60:db:bc:73:74:fa:
                    4e:d8:fe:aa:40:f1:b2:ce:70:46:83:e9:da:40:a1:
                    59:3a:d9:15:09:57:99:56:30:93:f3:c9:61:cc:d0:
                    08:cc:6b:ec:62:42:91:ac:02:c0:ef:a4:f0:89:11:
                    8f:77
                Exponent: 65537 (0x10001)
        X509v3 extensions:
            X509v3 Key Usage: critical
                Digital Signature
            X509v3 Basic Constraints: critical
                CA:FALSE
            X509v3 Extended Key Usage: critical
                Time Stamping
            X509v3 Certificate Policies: 
                Policy: 2.16.840.1.114412.7.1
                  CPS: https://www.digicert.com/CPS
                  User Notice:
                    Explicit Text: 
                Policy: 2.16.840.1.114412.3.21

            X509v3 Authority Key Identifier: 
                keyid:15:00:12:2B:13:98:B2:99:07:ED:1E:DF:A2:BE:57:0D:2B:67:02:CD

            X509v3 Subject Key Identifier: 
                61:5A:4D:24:B6:49:32:9D:4A:2A:79:1A:83:4B:F4:1E:89:C1:CA:7D
            X509v3 CRL Distribution Points: 

                Full Name:
                  URI:http://crl3.digicert.com/DigiCertAssuredIDCA-1.crl

                Full Name:
                  URI:http://crl4.digicert.com/DigiCertAssuredIDCA-1.crl

            Authority Information Access: 
                OCSP - URI:http://ocsp.digicert.com
                CA Issuers - URI:http://cacerts.digicert.com/DigiCertAssuredIDCA-1.crt

    Signature Algorithm: sha1WithRSAEncryption
         9d:25:7e:1b:33:4d:b2:26:81:5c:9b:86:ce:23:20:0f:80:87:
         e5:88:ff:ff:b1:d4:6a:2c:31:ed:3a:17:19:71:17:cd:a9:1b:
         bc:5a:16:39:00:9d:e3:6c:84:e4:5a:40:fb:de:06:01:8c:37:
         fa:9b:b1:9d:24:7e:fe:20:a4:57:ad:5b:b7:9a:b0:60:26:ea:
         69:57:21:5d:34:2f:1f:71:b0:83:94:19:05:6b:35:90:10:a0:
         7b:97:c7:f6:3f:e7:e2:11:41:a6:bd:62:d9:f0:27:3d:38:1d:
         28:6f:3a:52:09:f0:ec:70:62:d3:62:4b:b0:e0:73:a6:92:c0:
         d3:8e:31:d8:2f:e3:6d:17:13:06:ee:e4:03:b6:14:ab:f3:8f:
         43:a7:71:9d:21:dd:14:ca:15:5d:92:41:da:f9:0f:81:d1:99:
         74:0d:26:c4:0e:7f:1b:b5:f5:a0:f1:c6:77:06:28:15:e9:d8:
         93:e5:55:16:f0:bb:0a:ab:1c:db:5c:48:27:66:c8:a3:8b:0a:
         1c:e5:95:da:ae:c4:2e:59:a0:61:dd:da:f3:6d:a2:61:e9:8a:
         0b:6d:ec:12:18:bd:f7:55:54:40:03:92:2b:6b:c2:51:c2:0a:
         48:af:b0:d4:6e:e0:f4:14:0a:3a:1b:e3:8f:3d:ca:af:6a:8d:
         7b:dc:d8:44
-----BEGIN CERTIFICATE-----
MIIGajCCBVKgAwIBAgIQAwGaAjr/WLFr1tXq5hfwZjANBgkqhkiG9w0BAQUFADBi
MQswCQYDVQQGEwJVUzEVMBMGA1UEChMMRGlnaUNlcnQgSW5jMRkwFwYDVQQLExB3
d3cuZGlnaWNlcnQuY29tMSEwHwYDVQQDExhEaWdpQ2VydCBBc3N1cmVkIElEIENB
LTEwHhcNMTQxMDIyMDAwMDAwWhcNMjQxMDIyMDAwMDAwWjBHMQswCQYDVQQGEwJV
UzERMA8GA1UEChMIRGlnaUNlcnQxJTAjBgNVBAMTHERpZ2lDZXJ0IFRpbWVzdGFt
cCBSZXNwb25kZXIwggEiMA0GCSqGSIb3DQEBAQUAA4IBDwAwggEKAoIBAQCjZF38
fLPggjXg4PbGKuZJdTvMbuBTqZ8fZFnmfGt/a4ydVfiS457VWmNbAklQ2YPOb2bu
3cuF6V+l+dSHdIhEOxnJ5fWRn8YUOawk6qhLLJGJzF4o9GS2ULf1ErNzlgpno75h
n67z/RJ4dQ6mWxT9RSOOhkRVfRiGBYxVh3lIRvfKDo2n3k5f4qi2LVkCYYhhchho
ubh87ubnNC8xd4EwH7s2AY3vJ+P3mvBMMWSN4+v6GYeofs/sjAw2W3rBerh4x8kG
LkYQyI3oBGDbvHN0+k7Y/qpA8bLOcEaD6dpAoVk62RUJV5lWMJPzyWHM0AjMa+xi
QpGsAsDvpPCJEY93AgMBAAGjggM1MIIDMTAOBgNVHQ8BAf8EBAMCB4AwDAYDVR0T
AQH/BAIwADAWBgNVHSUBAf8EDDAKBggrBgEFBQcDCDCCAb8GA1UdIASCAbYwggGy
MIIBoQYJYIZIAYb9bAcBMIIBkjAoBggrBgEFBQcCARYcaHR0cHM6Ly93d3cuZGln
aWNlcnQuY29tL0NQUzCCAWQGCCsGAQUFBwICMIIBVh6CAVIAQQBuAHkAIAB1AHMA
ZQAgAG8AZgAgAHQAaABpAHMAIABDAGUAcgB0AGkAZgBpAGMAYQB0AGUAIABjAG8A
bgBzAHQAaQB0AHUAdABlAHMAIABhAGMAYwBlAHAAdABhAG4AYwBlACAAbwBmACAA
dABoAGUAIABEAGkAZwBpAEMAZQByAHQAIABDAFAALwBDAFAAUwAgAGEAbgBkACAA
dABoAGUAIABSAGUAbAB5AGkAbgBnACAAUABhAHIAdAB5ACAAQQBnAHIAZQBlAG0A
ZQBuAHQAIAB3AGgAaQBjAGgAIABsAGkAbQBpAHQAIABsAGkAYQBiAGkAbABpAHQA
eQAgAGEAbgBkACAAYQByAGUAIABpAG4AYwBvAHIAcABvAHIAYQB0AGUAZAAgAGgA
ZQByAGUAaQBuACAAYgB5ACAAcgBlAGYAZQByAGUAbgBjAGUALjALBglghkgBhv1s
AxUwHwYDVR0jBBgwFoAUFQASKxOYspkH7R7for5XDStnAs0wHQYDVR0OBBYEFGFa
TSS2STKdSip5GoNL9B6Jwcp9MH0GA1UdHwR2MHQwOKA2oDSGMmh0dHA6Ly9jcmwz
LmRpZ2ljZXJ0LmNvbS9EaWdpQ2VydEFzc3VyZWRJRENBLTEuY3JsMDigNqA0hjJo
dHRwOi8vY3JsNC5kaWdpY2VydC5jb20vRGlnaUNlcnRBc3N1cmVkSURDQS0xLmNy
bDB3BggrBgEFBQcBAQRrMGkwJAYIKwYBBQUHMAGGGGh0dHA6Ly9vY3NwLmRpZ2lj
ZXJ0LmNvbTBBBggrBgEFBQcwAoY1aHR0cDovL2NhY2VydHMuZGlnaWNlcnQuY29t
L0RpZ2lDZXJ0QXNzdXJlZElEQ0EtMS5jcnQwDQYJKoZIhvcNAQEFBQADggEBAJ0l
fhszTbImgVybhs4jIA+Ah+WI//+x1GosMe06FxlxF82pG7xaFjkAneNshORaQPve
BgGMN/qbsZ0kfv4gpFetW7easGAm6mlXIV00Lx9xsIOUGQVrNZAQoHuXx/Y/5+IR
Qaa9YtnwJz04HShvOlIJ8OxwYtNiS7Dgc6aSwNOOMdgv420XEwbu5AO2FKvzj0On
cZ0h3RTKFV2SQdr5D4HRmXQNJsQOfxu19aDxxncGKBXp2JPlVRbwuwqrHNtcSCdm
yKOLChzlldquxC5ZoGHd2vNtomHpigtt7BIYvfdVVEADkitrwlHCCkivsNRu4PQU
Cjob4489yq9qjXvc2EQ=
-----END CERTIFICATE-----

Certificate:
    Data:
        Version: 3 (0x2)
        Serial Number:
            06:fd:f9:03:96:03:ad:ea:00:0a:eb:3f:27:bb:ba:1b
    Signature Algorithm: sha1WithRSAEncryption
        Issuer: C=US, O=DigiCert Inc, OU=www.digicert.com, CN=DigiCert Assured ID Root CA
        Validity
            Not Before: Nov 10 00:00:00 2006 GMT
            Not After : Nov 10 00:00:00 2021 GMT
        Subject: C=US, O=DigiCert Inc, OU=www.digicert.com, CN=DigiCert Assured ID CA-1
        Subject Public Key Info:
            Public Key Algorithm: rsaEncryption
                Public-Key: (2048 bit)
                Modulus:
                    00:e8:82:2d:99:f9:ca:c2:42:95:a5:80:73:40:70:
                    d2:9e:56:54:5c:a9:c4:d2:41:06:8f:c9:33:fc:4d:
                    45:91:5c:81:9f:ed:2c:9c:f8:16:59:df:9e:b5:24:
                    15:c2:98:b9:b4:77:49:dc:89:c4:0a:da:af:cb:5e:
                    6b:ed:ad:b0:71:31:eb:cf:3a:40:0c:46:4d:93:ec:
                    8b:7a:36:08:03:ab:0c:34:fe:18:49:82:fe:c7:c7:
                    31:48:80:7c:1e:a2:0f:92:0e:50:c9:c6:87:eb:36:
                    3f:d8:30:c3:ff:a6:f7:fb:a2:cd:6f:73:23:fe:ac:
                    56:05:90:f0:32:21:16:89:c6:70:88:f9:05:97:7d:
                    a3:c7:43:dd:02:e8:3b:3d:ed:b1:41:a3:ed:3f:be:
                    db:95:48:c4:ee:1e:b3:f2:bc:0c:2b:99:d0:c6:5d:
                    12:42:81:e1:83:6e:82:73:3f:26:4b:14:90:ae:59:
                    66:0a:c4:8d:be:d2:ce:06:ae:ad:84:6f:48:84:9b:
                    4f:40:b9:f1:4c:f2:af:98:fb:f6:ce:40:5d:5c:f6:
                    a8:f1:2f:af:ec:89:22:f2:6b:18:65:b1:c1:73:ad:
                    d7:f1:d8:cf:1e:0a:74:5c:42:b8:68:7e:b7:d5:77:
                    0a:27:56:7c:0f:62:a4:3f:32:14:60:95:fd:07:04:
                    a2:09
                Exponent: 65537 (0x10001)
        X509v3 extensions:
            X509v3 Key Usage: critical
                Digital Signature, Certificate Sign, CRL Sign
            X509v3 Extended Key Usage: 
                TLS Web Server Authentication, TLS Web Client Authentication, Code Signing, E-mail Protection, Time Stamping
            X509v3 Certificate Policies: 
                Policy: 2.16.840.1.114412.0.1.4
                  CPS: http://www.digicert.com/ssl-cps-repository.htm
                  User Notice:
                    Explicit Text: 
                Policy: 2.16.840.1.114412.3.21

            X509v3 Basic Constraints: critical
                CA:TRUE, pathlen:0
            Authority Information Access: 
                OCSP - URI:http://ocsp.digicert.com
                CA Issuers - URI:http://cacerts.digicert.com/DigiCertAssuredIDRootCA.crt

            X509v3 CRL Distribution Points: 

                Full Name:
                  URI:http://crl3.digicert.com/DigiCertAssuredIDRootCA.crl

                Full Name:
                  URI:http://crl4.digicert.com/DigiCertAssuredIDRootCA.crl

            X509v3 Subject Key Identifier: 
                15:00:12:2B:13:98:B2:99:07:ED:1E:DF:A2:BE:57:0D:2B:67:02:CD
            X509v3 Authority Key Identifier: 
                keyid:45:EB:A2:AF:F4:92:CB:82:31:2D:51:8B:A7:A7:21:9D:F3:6D:C8:0F

    Signature Algorithm: sha1WithRSAEncryption
         46:50:3e:c9:b7:28:24:a7:38:1d:b6:5b:29:af:52:cf:52:e9:
         31:47:ab:56:5c:7b:d5:0d:0b:41:b3:ef:ec:75:1f:74:38:f2:
         b2:5c:61:a2:9c:95:c3:50:e4:82:b9:23:d1:ba:3a:86:72:ad:
         38:78:ac:75:5d:17:17:34:72:47:85:94:56:d1:eb:bb:36:84:
         77:cc:24:a5:f3:04:19:55:a9:e7:e3:e7:ab:62:cd:fb:8b:2d:
         90:c2:c0:d2:b5:94:bd:5e:4f:b1:05:d2:0e:3d:1a:a9:14:5b:
         a6:86:31:62:a8:a8:33:e4:9b:39:a7:c4:f5:ce:1d:78:76:94:
         25:73:e4:2a:ab:cf:9c:76:4b:ed:5f:c2:4b:16:e4:4b:70:4c:
         00:89:1e:fc:c5:79:bc:4c:12:57:fe:5f:e1:1e:bc:02:5d:a8:
         fe:fb:07:38:4f:0d:c6:5d:91:b9:0f:67:45:cd:d6:83:ed:e7:
         92:0d:8d:b1:69:8c:4f:fb:59:e0:23:0f:d2:aa:ae:00:7c:ee:
         9c:42:0e:cf:91:d7:27:b7:16:ee:0f:c3:bd:7c:0a:a0:ee:2c:
         08:55:85:22:b8:eb:18:1a:4d:fc:2a:21:ad:49:31:83:47:95:
         77:71:dc:b1:1b:4b:4b:1c:10:9c:77:14:c1:9d:4f:2f:5a:95:
         08:29:10:26
-----BEGIN CERTIFICATE-----
MIIGzTCCBbWgAwIBAgIQBv35A5YDreoACus/J7u6GzANBgkqhkiG9w0BAQUFADBl
MQswCQYDVQQGEwJVUzEVMBMGA1UEChMMRGlnaUNlcnQgSW5jMRkwFwYDVQQLExB3
d3cuZGlnaWNlcnQuY29tMSQwIgYDVQQDExtEaWdpQ2VydCBBc3N1cmVkIElEIFJv
b3QgQ0EwHhcNMDYxMTEwMDAwMDAwWhcNMjExMTEwMDAwMDAwWjBiMQswCQYDVQQG
EwJVUzEVMBMGA1UEChMMRGlnaUNlcnQgSW5jMRkwFwYDVQQLExB3d3cuZGlnaWNl
cnQuY29tMSEwHwYDVQQDExhEaWdpQ2VydCBBc3N1cmVkIElEIENBLTEwggEiMA0G
CSqGSIb3DQEBAQUAA4IBDwAwggEKAoIBAQDogi2Z+crCQpWlgHNAcNKeVlRcqcTS
QQaPyTP8TUWRXIGf7Syc+BZZ3561JBXCmLm0d0ncicQK2q/LXmvtrbBxMevPOkAM
Rk2T7It6NggDqww0/hhJgv7HxzFIgHweog+SDlDJxofrNj/YMMP/pvf7os1vcyP+
rFYFkPAyIRaJxnCI+QWXfaPHQ90C6Ds97bFBo+0/vtuVSMTuHrPyvAwrmdDGXRJC
geGDboJzPyZLFJCuWWYKxI2+0s4Grq2Eb0iEm09AufFM8q+Y+/bOQF1c9qjxL6/s
iSLyaxhlscFzrdfx2M8eCnRcQrhofrfVdwonVnwPYqQ/MhRglf0HBKIJAgMBAAGj
ggN6MIIDdjAOBgNVHQ8BAf8EBAMCAYYwOwYDVR0lBDQwMgYIKwYBBQUHAwEGCCsG
AQUFBwMCBggrBgEFBQcDAwYIKwYBBQUHAwQGCCsGAQUFBwMIMIIB0gYDVR0gBIIB
yTCCAcUwggG0BgpghkgBhv1sAAEEMIIBpDA6BggrBgEFBQcCARYuaHR0cDovL3d3
dy5kaWdpY2VydC5jb20vc3NsLWNwcy1yZXBvc2l0b3J5Lmh0bTCCAWQGCCsGAQUF
BwICMIIBVh6CAVIAQQBuAHkAIAB1AHMAZQAgAG8AZgAgAHQAaABpAHMAIABDAGUA
cgB0AGkAZgBpAGMAYQB0AGUAIABjAG8AbgBzAHQAaQB0AHUAdABlAHMAIABhAGMA
YwBlAHAAdABhAG4AYwBlACAAbwBmACAAdABoAGUAIABEAGkAZwBpAEMAZQByAHQA
IABDAFAALwBDAFAAUwAgAGEAbgBkACAAdABoAGUAIABSAGUAbAB5AGkAbgBnACAA
UABhAHIAdAB5ACAAQQBnAHIAZQBlAG0AZQBuAHQAIAB3AGgAaQBjAGgAIABsAGkA
bQBpAHQAIABsAGkAYQBiAGkAbABpAHQAeQAgAGEAbgBkACAAYQByAGUAIABpAG4A
YwBvAHIAcABvAHIAYQB0AGUAZAAgAGgAZQByAGUAaQBuACAAYgB5ACAAcgBlAGYA
ZQByAGUAbgBjAGUALjALBglghkgBhv1sAxUwEgYDVR0TAQH/BAgwBgEB/wIBADB5
BggrBgEFBQcBAQRtMGswJAYIKwYBBQUHMAGGGGh0dHA6Ly9vY3NwLmRpZ2ljZXJ0
LmNvbTBDBggrBgEFBQcwAoY3aHR0cDovL2NhY2VydHMuZGlnaWNlcnQuY29tL0Rp
Z2lDZXJ0QXNzdXJlZElEUm9vdENBLmNydDCBgQYDVR0fBHoweDA6oDigNoY0aHR0
cDovL2NybDMuZGlnaWNlcnQuY29tL0RpZ2lDZXJ0QXNzdXJlZElEUm9vdENBLmNy
bDA6oDigNoY0aHR0cDovL2NybDQuZGlnaWNlcnQuY29tL0RpZ2lDZXJ0QXNzdXJl
ZElEUm9vdENBLmNybDAdBgNVHQ4EFgQUFQASKxOYspkH7R7for5XDStnAs0wHwYD
VR0jBBgwFoAUReuir/SSy4IxLVGLp6chnfNtyA8wDQYJKoZIhvcNAQEFBQADggEB
AEZQPsm3KCSnOB22WymvUs9S6TFHq1Zce9UNC0Gz7+x1H3Q48rJcYaKclcNQ5IK5
I9G6OoZyrTh4rHVdFxc0ckeFlFbR67s2hHfMJKXzBBlVqefj56tizfuLLZDCwNK1
lL1eT7EF0g49GqkUW6aGMWKoqDPkmzmnxPXOHXh2lCVz5Cqrz5x2S+1fwksW5Etw
TACJHvzFebxMElf+X+EevAJdqP77BzhPDcZdkbkPZ0XN1oPt55INjbFpjE/7WeAj
D9KqrgB87pxCDs+R1ye3Fu4Pw718CqDuLAhVhSK46xgaTfwqIa1JMYNHlXdx3LEb
S0scEJx3FMGdTy9alQgpECY=
-----END CERTIFICATE-----

