Certificate:
    Data:
        Version: 3 (0x2)
        Serial Number:
            33:00:00:00:cc:4e:e8:6d:1a:15:af:49:95:00:00:00:00:00:cc
    Signature Algorithm: sha256WithRSAEncryption
        Issuer: C=US, ST=Washington, L=Redmond, O=Microsoft Corporation, CN=Microsoft Windows Production PCA 2011
        Validity
            Not Before: Feb 12 01:18:25 2016 GMT
            Not After : May 12 01:18:25 2017 GMT
        Subject: C=US, ST=Washington, L=Redmond, O=Microsoft Corporation, CN=Microsoft Windows Publisher
        Subject Public Key Info:
            Public Key Algorithm: rsaEncryption
                Public-Key: (2048 bit)
                Modulus:
                    00:ac:e0:d3:95:7d:93:d4:f1:8d:ed:73:8d:42:3f:
                    a8:02:16:89:59:66:cb:76:2a:bd:6d:31:8d:97:e5:
                    a4:f5:02:f4:e9:34:77:68:12:cb:04:fb:31:46:f9:
                    2a:21:d8:b7:f5:88:f2:69:84:aa:4e:21:8d:19:23:
                    ee:cf:c7:e9:7b:3e:06:c0:88:4d:b0:36:b2:bb:e5:
                    8b:ba:1b:ba:56:4a:13:5c:a6:ce:95:e2:03:41:80:
                    d0:3a:c6:4d:68:fa:12:c9:c7:9e:5c:8b:b6:5c:9c:
                    c4:86:1c:c4:12:24:0d:ce:42:9b:10:8a:a3:5a:32:
                    f0:aa:35:61:86:da:73:c9:35:66:97:22:b3:03:13:
                    9b:c4:81:d7:27:93:88:47:65:ea:96:ef:ac:b5:d2:
                    73:0e:67:22:6d:34:f4:ff:77:83:28:bb:94:13:51:
                    2e:da:4b:38:13:3f:64:8e:18:6a:ce:44:0b:21:73:
                    56:0b:79:5b:7b:06:f4:80:f8:6b:73:30:93:69:8d:
                    cf:c4:a5:80:4c:e1:0c:43:03:de:dc:c9:6f:95:63:
                    04:1c:ac:e2:9d:12:88:83:fa:95:d9:14:91:43:9a:
                    99:28:ca:45:ad:38:d2:b1:c1:1f:dd:46:5a:a7:2c:
                    3f:83:68:20:22:21:f2:45:13:47:95:7c:1b:15:ae:
                    ec:83
                Exponent: 65537 (0x10001)
        X509v3 extensions:
            X509v3 Extended Key Usage: 
                Code Signing, 1.3.6.1.4.1.311.10.3.6, 1.3.6.1.4.1.311.10.3.22
            X509v3 Subject Key Identifier: 
                91:D2:2F:1B:E2:AF:41:C5:47:2B:0E:D5:3B:00:99:0B:32:3F:E8:7E
            X509v3 Subject Alternative Name: 
                DirName:/OU=MOPR/serialNumber=34633+d6b04923-dcb7-43b8-bb65-85e841cff3d0
            X509v3 Authority Key Identifier: 
                keyid:A9:29:02:39:8E:16:C4:97:78:CD:90:F9:9E:4F:9A:E1:7C:55:AF:53

            X509v3 CRL Distribution Points: 

                Full Name:
                  URI:http://www.microsoft.com/pkiops/crl/MicWinProPCA2011_2011-10-19.crl

            Authority Information Access: 
                CA Issuers - URI:http://www.microsoft.com/pkiops/certs/MicWinProPCA2011_2011-10-19.crt

            X509v3 Basic Constraints: critical
                CA:FALSE
    Signature Algorithm: sha256WithRSAEncryption
         87:e7:5a:0d:2a:89:bb:99:73:3f:83:3a:54:0d:b1:5a:4f:ae:
         3c:0e:09:61:2f:49:70:64:4f:35:21:b2:0b:be:d2:f8:79:20:
         fe:8d:95:9f:f1:65:ef:54:10:51:a9:62:f7:f7:b1:66:10:73:
         3a:8e:e4:e0:28:59:b6:24:5e:75:5f:bf:f2:dc:9d:bf:aa:00:
         69:01:f0:4e:7d:1d:1d:3f:4c:fb:3c:81:40:d2:ea:b5:5a:b6:
         ef:b9:ed:3b:ac:87:e4:6c:1d:ad:d8:5c:86:b7:50:23:90:4d:
         a9:e6:43:6f:e0:da:d8:74:d1:1b:45:71:b3:ce:d0:e2:45:f5:
         81:75:74:9c:bd:06:36:e9:e9:41:de:d8:60:f1:16:37:c4:a7:
         6d:c4:b4:c0:e2:21:a3:c6:51:73:87:e8:e7:4b:8e:29:4f:2c:
         61:66:18:69:7f:9e:3e:e1:a2:11:8f:b2:3a:6a:0c:11:8c:ed:
         49:bc:3b:c4:16:26:01:a1:08:4a:a7:35:f7:6a:d4:b9:c1:d1:
         2f:e1:db:1c:27:2a:22:29:db:c4:cd:09:3f:ad:f5:95:00:03:
         dc:97:b6:0b:74:94:29:3b:6a:c8:12:89:f4:f4:48:e5:a9:80:
         bc:71:d8:b0:09:00:20:51:90:02:cf:24:c8:5b:a9:aa:81:ee:
         cc:a5:a3:bf
-----BEGIN CERTIFICATE-----
MIIFGTCCBAGgAwIBAgITMwAAAMxO6G0aFa9JlQAAAAAAzDANBgkqhkiG9w0BAQsF
ADCBhDELMAkGA1UEBhMCVVMxEzARBgNVBAgTCldhc2hpbmd0b24xEDAOBgNVBAcT
B1JlZG1vbmQxHjAcBgNVBAoTFU1pY3Jvc29mdCBDb3Jwb3JhdGlvbjEuMCwGA1UE
AxMlTWljcm9zb2Z0IFdpbmRvd3MgUHJvZHVjdGlvbiBQQ0EgMjAxMTAeFw0xNjAy
MTIwMTE4MjVaFw0xNzA1MTIwMTE4MjVaMHoxCzAJBgNVBAYTAlVTMRMwEQYDVQQI
EwpXYXNoaW5ndG9uMRAwDgYDVQQHEwdSZWRtb25kMR4wHAYDVQQKExVNaWNyb3Nv
ZnQgQ29ycG9yYXRpb24xJDAiBgNVBAMTG01pY3Jvc29mdCBXaW5kb3dzIFB1Ymxp
c2hlcjCCASIwDQYJKoZIhvcNAQEBBQADggEPADCCAQoCggEBAKzg05V9k9Txje1z
jUI/qAIWiVlmy3YqvW0xjZflpPUC9Ok0d2gSywT7MUb5KiHYt/WI8mmEqk4hjRkj
7s/H6Xs+BsCITbA2srvli7obulZKE1ymzpXiA0GA0DrGTWj6EsnHnlyLtlycxIYc
xBIkDc5CmxCKo1oy8Ko1YYbac8k1ZpciswMTm8SB1yeTiEdl6pbvrLXScw5nIm00
9P93gyi7lBNRLtpLOBM/ZI4Yas5ECyFzVgt5W3sG9ID4a3Mwk2mNz8SlgEzhDEMD
3tzJb5VjBBys4p0SiIP6ldkUkUOamSjKRa040rHBH91GWqcsP4NoICIh8kUTR5V8
GxWu7IMCAwEAAaOCAYswggGHMCsGA1UdJQQkMCIGCCsGAQUFBwMDBgorBgEEAYI3
CgMGBgorBgEEAYI3CgMWMB0GA1UdDgQWBBSR0i8b4q9BxUcrDtU7AJkLMj/ofjBR
BgNVHREESjBIpEYwRDENMAsGA1UECxMETU9QUjEzMDEGA1UEBRMqMzQ2MzMrZDZi
MDQ5MjMtZGNiNy00M2I4LWJiNjUtODVlODQxY2ZmM2QwMB8GA1UdIwQYMBaAFKkp
AjmOFsSXeM2Q+Z5PmuF8Va9TMFQGA1UdHwRNMEswSaBHoEWGQ2h0dHA6Ly93d3cu
bWljcm9zb2Z0LmNvbS9wa2lvcHMvY3JsL01pY1dpblByb1BDQTIwMTFfMjAxMS0x
MC0xOS5jcmwwYQYIKwYBBQUHAQEEVTBTMFEGCCsGAQUFBzAChkVodHRwOi8vd3d3
Lm1pY3Jvc29mdC5jb20vcGtpb3BzL2NlcnRzL01pY1dpblByb1BDQTIwMTFfMjAx
MS0xMC0xOS5jcnQwDAYDVR0TAQH/BAIwADANBgkqhkiG9w0BAQsFAAOCAQEAh+da
DSqJu5lzP4M6VA2xWk+uPA4JYS9JcGRPNSGyC77S+Hkg/o2Vn/Fl71QQUali9/ex
ZhBzOo7k4ChZtiRedV+/8tydv6oAaQHwTn0dHT9M+zyBQNLqtVq277ntO6yH5Gwd
rdhchrdQI5BNqeZDb+Da2HTRG0Vxs87Q4kX1gXV0nL0GNunpQd7YYPEWN8SnbcS0
wOIho8ZRc4fo50uOKU8sYWYYaX+ePuGiEY+yOmoMEYztSbw7xBYmAaEISqc192rU
ucHRL+HbHCcqIinbxM0JP631lQAD3Je2C3SUKTtqyBKJ9PRI5amAvHHYsAkAIFGQ
As8kyFupqoHuzKWjvw==
-----END CERTIFICATE-----

Certificate:
    Data:
        Version: 3 (0x2)
        Serial Number:
            61:07:76:56:00:00:00:00:00:08
    Signature Algorithm: sha256WithRSAEncryption
        Issuer: C=US, ST=Washington, L=Redmond, O=Microsoft Corporation, CN=Microsoft Root Certificate Authority 2010
        Validity
            Not Before: Oct 19 18:41:42 2011 GMT
            Not After : Oct 19 18:51:42 2026 GMT
        Subject: C=US, ST=Washington, L=Redmond, O=Microsoft Corporation, CN=Microsoft Windows Production PCA 2011
        Subject Public Key Info:
            Public Key Algorithm: rsaEncryption
                Public-Key: (2048 bit)
                Modulus:
                    00:dd:0c:bb:a2:e4:2e:09:e3:e7:c5:f7:96:69:bc:
                    00:21:bd:69:33:33:ef:ad:04:cb:54:80:ee:06:83:
                    bb:c5:20:84:d9:f7:d2:8b:f3:38:b0:ab:a4:ad:2d:
                    7c:62:79:05:ff:e3:4a:3f:04:35:20:70:e3:c4:e7:
                    6b:e0:9c:c0:36:75:e9:8a:31:dd:8d:70:e5:dc:37:
                    b5:74:46:96:28:5b:87:60:23:2c:bf:dc:47:a5:67:
                    f7:51:27:9e:72:eb:07:a6:c9:b9:1e:3b:53:35:7c:
                    e5:d3:ec:27:b9:87:1c:fe:b9:c9:23:09:6f:a8:46:
                    91:c1:6e:96:3c:41:d3:cb:a3:3f:5d:02:6a:4d:ec:
                    69:1f:25:28:5c:36:ff:fd:43:15:0a:94:e0:19:b4:
                    cf:df:c2:12:e2:c2:5b:27:ee:27:78:30:8b:5b:2a:
                    09:6b:22:89:53:60:16:2c:c0:68:1d:53:ba:ec:49:
                    f3:9d:61:8c:85:68:09:73:44:5d:7d:a2:54:2b:dd:
                    79:f7:15:cf:35:5d:6c:1c:2b:5c:ce:bc:9c:23:8b:
                    6f:6e:b5:26:d9:36:13:c3:4f:d6:27:ae:b9:32:3b:
                    41:92:2c:e1:c7:cd:77:e8:aa:54:4e:f7:5c:0b:04:
                    87:65:b4:43:18:a8:b2:e0:6d:19:77:ec:5a:24:fa:
                    48:03
                Exponent: 65537 (0x10001)
        X509v3 extensions:
            1.3.6.1.4.1.311.21.1: 
                ...
            X509v3 Subject Key Identifier: 
                A9:29:02:39:8E:16:C4:97:78:CD:90:F9:9E:4F:9A:E1:7C:55:AF:53
            1.3.6.1.4.1.311.20.2: 
                .
.S.u.b.C.A
            X509v3 Key Usage: 
                Digital Signature, Certificate Sign, CRL Sign
            X509v3 Basic Constraints: critical
                CA:TRUE
            X509v3 Authority Key Identifier: 
                keyid:D5:F6:56:CB:8F:E8:A2:5C:62:68:D1:3D:94:90:5B:D7:CE:9A:18:C4

            X509v3 CRL Distribution Points: 

                Full Name:
                  URI:http://crl.microsoft.com/pki/crl/products/MicRooCerAut_2010-06-23.crl

            Authority Information Access: 
                CA Issuers - URI:http://www.microsoft.com/pki/certs/MicRooCerAut_2010-06-23.crt

    Signature Algorithm: sha256WithRSAEncryption
         14:fc:7c:71:51:a5:79:c2:6e:b2:ef:39:3e:bc:3c:52:0f:6e:
         2b:3f:10:13:73:fe:a8:68:d0:48:a6:34:4d:8a:96:05:26:ee:
         31:46:90:61:79:d6:ff:38:2e:45:6b:f4:c0:e5:28:b8:da:1d:
         8f:8a:db:09:d7:1a:c7:4c:0a:36:66:6a:8c:ec:1b:d7:04:90:
         a8:18:17:a4:9b:b9:e2:40:32:36:76:c4:c1:5a:c6:bf:e4:04:
         c0:ea:16:d3:ac:c3:68:ef:62:ac:dd:54:6c:50:30:58:a6:eb:
         7c:fe:94:a7:4e:8e:f4:ec:7c:86:73:57:c2:52:21:73:34:5a:
         f3:a3:8a:56:c8:04:da:07:09:ed:f8:8b:e3:ce:f4:7e:8e:ae:
         f0:f6:0b:8a:08:fb:3f:c9:1d:72:7f:53:b8:eb:be:63:e0:e3:
         3d:31:65:b0:81:e5:f2:ac:cd:16:a4:9f:3d:a8:b1:9b:c2:42:
         d0:90:84:5f:54:1d:ff:89:ea:ba:1d:47:90:6f:b0:73:4e:41:
         9f:40:9f:5f:e5:a1:2a:b2:11:91:73:8a:21:28:f0:ce:de:73:
         39:5f:3e:ab:5c:60:ec:df:03:10:a8:d3:09:e9:f4:f6:96:85:
         b6:7f:51:88:66:47:19:8d:a2:b0:12:3d:81:2a:68:05:77:bb:
         91:4c:62:7b:b6:c1:07:c7:ba:7a:87:34:03:0e:4b:62:7a:99:
         e9:ca:fc:ce:4a:37:c9:2d:a4:57:7c:1c:fe:3d:dc:b8:0f:5a:
         fa:d6:c4:b3:02:85:02:3a:ea:b3:d9:6e:e4:69:21:37:de:81:
         d1:f6:75:19:05:67:d3:93:57:5e:29:1b:39:c8:ee:2d:e1:cd:
         e4:45:73:5b:d0:d2:ce:7a:ab:16:19:82:46:58:d0:5e:9d:81:
         b3:67:af:6c:35:f2:bc:e5:3f:24:e2:35:a2:0a:75:06:f6:18:
         56:99:d4:78:2c:d1:05:1b:eb:d0:88:01:9d:aa:10:f1:05:df:
         ba:7e:2c:63:b7:06:9b:23:21:c4:f9:78:6c:e2:58:17:06:36:
         2b:91:12:03:cc:a4:d9:f2:2d:ba:f9:94:9d:40:ed:18:45:f1:
         ce:8a:5c:6b:3e:ab:03:d3:70:18:2a:0a:6a:e0:5f:47:d1:d5:
         63:0a:32:f2:af:d7:36:1f:2a:70:5a:e5:42:59:08:71:4b:57:
         ba:7e:83:81:f0:21:3c:f4:1c:c1:c5:b9:90:93:0e:88:45:93:
         86:e9:b1:20:99:be:98:cb:c5:95:a4:5d:62:d6:a0:63:08:20:
         bd:75:10:77:7d:3d:f3:45:b9:9f:97:9f:cb:57:80:6f:33:a9:
         04:cf:77:a4:62:1c:59:7e
-----BEGIN CERTIFICATE-----
MIIF1zCCA7+gAwIBAgIKYQd2VgAAAAAACDANBgkqhkiG9w0BAQsFADCBiDELMAkG
A1UEBhMCVVMxEzARBgNVBAgTCldhc2hpbmd0b24xEDAOBgNVBAcTB1JlZG1vbmQx
HjAcBgNVBAoTFU1pY3Jvc29mdCBDb3Jwb3JhdGlvbjEyMDAGA1UEAxMpTWljcm9z
b2Z0IFJvb3QgQ2VydGlmaWNhdGUgQXV0aG9yaXR5IDIwMTAwHhcNMTExMDE5MTg0
MTQyWhcNMjYxMDE5MTg1MTQyWjCBhDELMAkGA1UEBhMCVVMxEzARBgNVBAgTCldh
c2hpbmd0b24xEDAOBgNVBAcTB1JlZG1vbmQxHjAcBgNVBAoTFU1pY3Jvc29mdCBD
b3Jwb3JhdGlvbjEuMCwGA1UEAxMlTWljcm9zb2Z0IFdpbmRvd3MgUHJvZHVjdGlv
biBQQ0EgMjAxMTCCASIwDQYJKoZIhvcNAQEBBQADggEPADCCAQoCggEBAN0Mu6Lk
Lgnj58X3lmm8ACG9aTMz760Ey1SA7gaDu8UghNn30ovzOLCrpK0tfGJ5Bf/jSj8E
NSBw48Tna+CcwDZ16Yox3Y1w5dw3tXRGlihbh2AjLL/cR6Vn91EnnnLrB6bJuR47
UzV85dPsJ7mHHP65ySMJb6hGkcFuljxB08ujP10Cak3saR8lKFw2//1DFQqU4Bm0
z9/CEuLCWyfuJ3gwi1sqCWsiiVNgFizAaB1TuuxJ851hjIVoCXNEXX2iVCvdefcV
zzVdbBwrXM68nCOLb261Jtk2E8NP1ieuuTI7QZIs4cfNd+iqVE73XAsEh2W0Qxio
suBtGXfsWiT6SAMCAwEAAaOCAUMwggE/MBAGCSsGAQQBgjcVAQQDAgEAMB0GA1Ud
DgQWBBSpKQI5jhbEl3jNkPmeT5rhfFWvUzAZBgkrBgEEAYI3FAIEDB4KAFMAdQBi
AEMAQTALBgNVHQ8EBAMCAYYwDwYDVR0TAQH/BAUwAwEB/zAfBgNVHSMEGDAWgBTV
9lbLj+iiXGJo0T2UkFvXzpoYxDBWBgNVHR8ETzBNMEugSaBHhkVodHRwOi8vY3Js
Lm1pY3Jvc29mdC5jb20vcGtpL2NybC9wcm9kdWN0cy9NaWNSb29DZXJBdXRfMjAx
MC0wNi0yMy5jcmwwWgYIKwYBBQUHAQEETjBMMEoGCCsGAQUFBzAChj5odHRwOi8v
d3d3Lm1pY3Jvc29mdC5jb20vcGtpL2NlcnRzL01pY1Jvb0NlckF1dF8yMDEwLTA2
LTIzLmNydDANBgkqhkiG9w0BAQsFAAOCAgEAFPx8cVGlecJusu85Prw8Ug9uKz8Q
E3P+qGjQSKY0TYqWBSbuMUaQYXnW/zguRWv0wOUouNodj4rbCdcax0wKNmZqjOwb
1wSQqBgXpJu54kAyNnbEwVrGv+QEwOoW06zDaO9irN1UbFAwWKbrfP6Up06O9Ox8
hnNXwlIhczRa86OKVsgE2gcJ7fiL4870fo6u8PYLigj7P8kdcn9TuOu+Y+DjPTFl
sIHl8qzNFqSfPaixm8JC0JCEX1Qd/4nquh1HkG+wc05Bn0CfX+WhKrIRkXOKISjw
zt5zOV8+q1xg7N8DEKjTCen09paFtn9RiGZHGY2isBI9gSpoBXe7kUxie7bBB8e6
eoc0Aw5LYnqZ6cr8zko3yS2kV3wc/j3cuA9a+tbEswKFAjrqs9lu5GkhN96B0fZ1
GQVn05NXXikbOcjuLeHN5EVzW9DSznqrFhmCRljQXp2Bs2evbDXyvOU/JOI1ogp1
BvYYVpnUeCzRBRvr0IgBnaoQ8QXfun4sY7cGmyMhxPl4bOJYFwY2K5ESA8yk2fIt
uvmUnUDtGEXxzopcaz6rA9NwGCoKauBfR9HVYwoy8q/XNh8qcFrlQlkIcUtXun6D
gfAhPPQcwcW5kJMOiEWThumxIJm+mMvFlaRdYtagYwggvXUQd30980W5n5efy1eA
bzOpBM93pGIcWX4=
-----END CERTIFICATE-----

