Certificate:
    Data:
        Version: 3 (0x2)
        Serial Number:
            62:b3:4e:22:c3:91:ef:14:ee:a4:b8:28:95:c5:cf:79
    Signature Algorithm: sha256WithRSAEncryption
        Issuer: C=CN, O=WoSign CA Limited, CN=WoSign Class 3 Code Signing CA G2
        Validity
            Not Before: Oct 10 09:05:08 2015 GMT
            Not After : Oct 10 09:05:08 2016 GMT
        Subject: C=CN, ST=Guangdong, L=Shenzhen, O=Shenzhen Ershi\xE2\x80\x99erlou Technology Co., Ltd., CN=Shenzhen Ershi\xE2\x80\x99erlou Technology Co., Ltd.
        Subject Public Key Info:
            Public Key Algorithm: rsaEncryption
                Public-Key: (2048 bit)
                Modulus:
                    00:be:f1:14:e3:bd:1f:ab:65:7c:a0:50:58:4c:29:
                    f0:62:31:4f:57:9f:1e:b3:e7:75:db:3e:74:c5:43:
                    1e:c3:bc:3e:d0:d1:39:6e:a7:2a:87:d0:5a:88:8d:
                    99:ad:87:bc:ac:81:e5:c5:71:8b:5e:bf:c7:74:7f:
                    a8:8f:d2:1f:14:20:da:c7:5a:b0:8e:4b:10:c7:b5:
                    25:93:b5:0f:20:6e:6d:ad:ec:46:59:31:cf:b9:47:
                    1d:b2:74:26:bc:d3:eb:b1:b3:82:12:d2:20:24:40:
                    fd:3c:0c:69:fd:9c:af:27:dd:db:ff:26:1a:98:9e:
                    e9:a9:61:10:01:0c:7e:26:15:e7:73:a8:3d:59:1d:
                    7a:21:12:4e:45:cf:0e:73:56:8b:36:f7:af:90:8f:
                    4c:24:d8:19:0d:5c:40:9a:18:cb:5b:96:20:6e:64:
                    b6:1a:ff:2d:59:2f:aa:9d:d3:69:65:bb:e2:a2:75:
                    e5:1e:4e:b0:39:20:00:c6:9a:e1:2b:94:13:e5:fe:
                    c5:2d:ed:4a:6f:18:ea:74:b0:09:b7:4e:5e:2a:1a:
                    ff:2f:12:9d:c4:78:14:0a:d5:f6:a6:c6:67:20:c8:
                    c5:a1:45:ab:f3:39:c2:98:61:3b:ca:70:3c:3a:2c:
                    6c:05:02:00:93:d5:96:8b:8e:25:0d:1d:95:2d:64:
                    fc:8f
                Exponent: 65537 (0x10001)
        X509v3 extensions:
            X509v3 Key Usage: critical
                Digital Signature
            X509v3 Extended Key Usage: 
                Code Signing
            X509v3 Basic Constraints: 
                CA:FALSE
            X509v3 Subject Key Identifier: 
                79:CF:BE:A3:56:DC:D3:AC:BB:6C:67:10:BD:EE:E5:E1:B2:88:9A:88
            X509v3 Authority Key Identifier: 
                keyid:AE:94:18:AE:18:3B:ED:FC:76:EE:3A:95:55:73:F8:F4:B8:84:2E:01

            Authority Information Access: 
                OCSP - URI:http://ocsp1.wosign.com/ca6/code3
                CA Issuers - URI:http://aia1.wosign.com/ca6.code3.cer

            X509v3 CRL Distribution Points: 

                Full Name:
                  URI:http://crls1.wosign.com/ca6-code3.crl

            X509v3 Certificate Policies: 
                Policy: 2.23.140.1.4.1
                Policy: 1.3.6.1.4.1.36305.6.3.3.1
                  CPS: http://www.wosign.com/policy/

    Signature Algorithm: sha256WithRSAEncryption
         8b:f6:da:e4:7c:e0:a0:c5:0c:3a:7e:0c:48:c0:e2:48:10:44:
         5a:ea:1d:01:59:2b:15:bc:59:27:ba:07:5b:30:54:d8:90:7c:
         e2:f6:29:77:9f:7c:8a:68:b1:9e:b8:a2:3c:55:b1:1b:4f:c1:
         dd:a7:7b:b6:73:45:d3:5b:b6:48:5f:63:d5:17:f5:e5:2a:2f:
         f5:b3:c6:ac:29:61:4c:28:52:dc:72:53:e4:9c:12:bf:7a:f4:
         50:f0:bc:84:a3:c9:39:83:ec:cc:43:b1:5b:98:67:95:6b:77:
         ef:62:01:b8:7f:ea:e4:af:d4:22:d9:2b:e1:9e:c8:67:69:5d:
         dd:19:80:60:4e:e9:28:bb:82:f7:b3:76:5b:0c:95:21:e3:40:
         7c:f6:ab:ea:2a:a3:e1:cb:7e:19:15:9f:91:51:ab:0f:09:13:
         ef:b3:ce:0a:e7:f4:d4:4f:63:b0:77:95:b4:8a:ff:fb:0e:24:
         c0:55:d5:03:c5:31:8e:94:b9:6a:4b:5f:8e:1d:37:bd:74:2f:
         3b:3f:f8:df:51:47:70:2c:d6:68:01:8a:de:56:02:74:f7:95:
         f6:7f:44:8e:79:30:56:3f:69:43:e7:7e:6f:d1:c7:38:8c:5e:
         31:92:ae:6d:df:83:7a:e1:4f:2e:8c:18:57:ae:66:29:82:32:
         62:de:15:7a
-----BEGIN CERTIFICATE-----
MIIE8TCCA9mgAwIBAgIQYrNOIsOR7xTupLgolcXPeTANBgkqhkiG9w0BAQsFADBV
MQswCQYDVQQGEwJDTjEaMBgGA1UEChMRV29TaWduIENBIExpbWl0ZWQxKjAoBgNV
BAMTIVdvU2lnbiBDbGFzcyAzIENvZGUgU2lnbmluZyBDQSBHMjAeFw0xNTEwMTAw
OTA1MDhaFw0xNjEwMTAwOTA1MDhaMIGgMQswCQYDVQQGEwJDTjESMBAGA1UECAwJ
R3Vhbmdkb25nMREwDwYDVQQHDAhTaGVuemhlbjE0MDIGA1UECgwrU2hlbnpoZW4g
RXJzaGnigJllcmxvdSBUZWNobm9sb2d5IENvLiwgTHRkLjE0MDIGA1UEAwwrU2hl
bnpoZW4gRXJzaGnigJllcmxvdSBUZWNobm9sb2d5IENvLiwgTHRkLjCCASIwDQYJ
KoZIhvcNAQEBBQADggEPADCCAQoCggEBAL7xFOO9H6tlfKBQWEwp8GIxT1efHrPn
dds+dMVDHsO8PtDROW6nKofQWoiNma2HvKyB5cVxi16/x3R/qI/SHxQg2sdasI5L
EMe1JZO1DyBuba3sRlkxz7lHHbJ0JrzT67GzghLSICRA/TwMaf2cryfd2/8mGpie
6alhEAEMfiYV53OoPVkdeiESTkXPDnNWizb3r5CPTCTYGQ1cQJoYy1uWIG5kthr/
LVkvqp3TaWW74qJ15R5OsDkgAMaa4SuUE+X+xS3tSm8Y6nSwCbdOXioa/y8SncR4
FArV9qbGZyDIxaFFq/M5wphhO8pwPDosbAUCAJPVlouOJQ0dlS1k/I8CAwEAAaOC
AW8wggFrMA4GA1UdDwEB/wQEAwIHgDATBgNVHSUEDDAKBggrBgEFBQcDAzAJBgNV
HRMEAjAAMB0GA1UdDgQWBBR5z76jVtzTrLtsZxC97uXhsoiaiDAfBgNVHSMEGDAW
gBSulBiuGDvt/HbuOpVVc/j0uIQuATBvBggrBgEFBQcBAQRjMGEwLQYIKwYBBQUH
MAGGIWh0dHA6Ly9vY3NwMS53b3NpZ24uY29tL2NhNi9jb2RlMzAwBggrBgEFBQcw
AoYkaHR0cDovL2FpYTEud29zaWduLmNvbS9jYTYuY29kZTMuY2VyMDYGA1UdHwQv
MC0wK6ApoCeGJWh0dHA6Ly9jcmxzMS53b3NpZ24uY29tL2NhNi1jb2RlMy5jcmww
UAYDVR0gBEkwRzAIBgZngQwBBAEwOwYMKwYBBAGCm1EGAwMBMCswKQYIKwYBBQUH
AgEWHWh0dHA6Ly93d3cud29zaWduLmNvbS9wb2xpY3kvMA0GCSqGSIb3DQEBCwUA
A4IBAQCL9trkfOCgxQw6fgxIwOJIEERa6h0BWSsVvFknugdbMFTYkHzi9il3n3yK
aLGeuKI8VbEbT8Hdp3u2c0XTW7ZIX2PVF/XlKi/1s8asKWFMKFLcclPknBK/evRQ
8LyEo8k5g+zMQ7FbmGeVa3fvYgG4f+rkr9Qi2SvhnshnaV3dGYBgTukou4L3s3Zb
DJUh40B89qvqKqPhy34ZFZ+RUasPCRPvs84K5/TUT2Owd5W0iv/7DiTAVdUDxTGO
lLlqS1+OHTe9dC87P/jfUUdwLNZoAYreVgJ095X2f0SOeTBWP2lD535v0cc4jF4x
kq5t34N64U8ujBhXrmYpgjJi3hV6
-----END CERTIFICATE-----

Certificate:
    Data:
        Version: 3 (0x2)
        Serial Number:
            25:1f:5d:98:81:82:17:2e:3c:41:9e:01:4f:b0:40:4c
    Signature Algorithm: sha1WithRSAEncryption
        Issuer: C=CN, O=WoSign CA Limited, CN=Certification Authority of WoSign
        Validity
            Not Before: Aug  8 01:00:05 2009 GMT
            Not After : Aug  8 01:00:05 2024 GMT
        Subject: C=CN, O=WoSign CA Limited, CN=WoSign Time Stamping Signer
        Subject Public Key Info:
            Public Key Algorithm: rsaEncryption
                Public-Key: (2048 bit)
                Modulus:
                    00:a5:d0:68:ba:82:cb:db:a7:6d:55:b9:31:a7:da:
                    f4:9c:6b:03:54:4f:a2:1c:ef:1c:b5:96:44:1f:56:
                    41:3f:61:b0:03:59:4b:82:0e:db:15:c8:d0:cc:e0:
                    87:c6:09:75:8a:84:e3:ed:97:c2:c8:92:34:c0:f1:
                    64:53:60:51:34:48:90:b1:4f:89:69:f5:2e:a0:2a:
                    16:54:2f:c0:37:58:ff:35:52:1b:52:08:cf:b9:ec:
                    5a:27:52:5a:83:eb:68:b1:b9:f8:b2:a9:08:f3:4f:
                    ab:17:0f:2e:bd:4f:e5:12:8a:bf:7c:b7:e7:65:32:
                    3b:83:41:02:22:3a:24:3b:6a:a3:3c:af:eb:79:42:
                    17:56:74:c8:61:63:dd:8c:2f:3e:ef:3a:a3:47:52:
                    04:3b:00:18:ae:26:71:e0:7a:04:8d:75:82:2d:65:
                    4e:c1:b8:f2:8c:de:0f:63:03:d4:c3:52:60:72:8c:
                    88:cc:6f:96:d5:c7:7d:29:db:26:04:9e:a2:b4:bf:
                    5a:b5:6e:f2:46:0f:29:81:c5:c0:4f:a6:87:8c:7c:
                    21:07:54:1f:50:f0:42:5c:55:7c:cf:44:2e:41:3d:
                    18:8d:5f:d9:68:e6:47:91:8f:cf:dc:7d:90:60:ff:
                    cb:48:e4:61:5e:4f:73:45:0d:c8:34:89:03:d5:fe:
                    0b:c3
                Exponent: 65537 (0x10001)
        X509v3 extensions:
            X509v3 Key Usage: critical
                Digital Signature, Non Repudiation
            X509v3 Extended Key Usage: critical
                Time Stamping
            X509v3 Basic Constraints: critical
                CA:FALSE
            X509v3 CRL Distribution Points: 

                Full Name:
                  URI:http://crls1.wosign.com/ca1.crl

            Authority Information Access: 
                OCSP - URI:http://ocsp1.wosign.com/ca1
                CA Issuers - URI:http://aia1.wosign.com/ca1-tsa.cer

            X509v3 Subject Key Identifier: 
                DF:6E:12:D5:0C:54:2E:5A:14:CA:DE:03:DE:AB:4E:D4:98:0C:46:B5
            X509v3 Authority Key Identifier: 
                keyid:E1:66:CF:0E:D1:F1:B3:4B:B7:06:20:14:FE:87:12:D5:F6:FE:FB:3E

    Signature Algorithm: sha1WithRSAEncryption
         7c:98:2f:bb:c3:d2:ae:c2:2a:8f:a6:97:76:56:86:32:c4:cd:
         36:68:8b:ec:d7:80:1a:31:79:b0:5e:56:b9:69:eb:b9:0b:32:
         a9:83:26:dc:77:5d:7a:56:b2:46:a0:7d:15:d6:6d:f9:ac:f8:
         35:73:78:36:02:60:22:20:1c:ef:18:8f:7e:66:b2:4f:e7:71:
         93:5a:2b:e6:e5:8d:3d:5d:2e:27:4b:46:cb:1d:04:f3:0b:8c:
         3f:13:a8:0d:d4:cd:e8:28:e8:2a:9c:55:c8:e3:ff:9d:a9:22:
         49:6e:e8:e7:88:92:37:57:80:60:44:18:27:43:58:18:04:6d:
         86:c0:65:47:05:57:55:50:91:e6:73:50:ee:3f:10:a9:8f:05:
         2f:da:68:11:53:6e:1f:ad:98:f3:76:3e:85:d0:57:a3:cf:e4:
         c1:1a:4c:64:06:a6:44:ab:4e:1e:e2:4b:d5:a4:6d:71:f8:6b:
         cb:66:13:a6:47:1f:21:2a:a1:ae:4c:89:a4:7d:28:77:17:4f:
         88:8d:b1:d1:5d:b1:c4:93:5a:bf:22:92:6c:ab:67:82:68:ed:
         d7:21:cb:63:bc:93:c4:17:8e:87:19:25:ad:17:54:b4:79:d2:
         a5:93:73:bc:7c:bb:e4:80:0f:8f:cc:aa:0a:d0:e4:93:75:aa:
         6c:cf:49:7d:75:ec:82:28:5c:73:f0:42:bf:9e:a6:13:2e:de:
         6c:ee:80:03:a6:ee:88:36:a0:1b:b2:82:e8:3d:bb:a6:1a:d5:
         11:ae:0a:0b:62:d6:51:36:97:23:17:52:26:ed:f1:c5:b6:21:
         75:39:15:07:e0:42:f1:2a:89:04:77:66:ad:14:04:d2:c7:d4:
         7c:4f:6c:dd:4e:dc:ed:8e:a9:f6:86:17:e7:e1:59:66:bb:d0:
         7a:d0:94:42:eb:af:c1:54:ca:e2:1a:a4:a9:b6:a5:d4:81:ca:
         15:26:fa:6f:b4:df:78:10:04:8c:48:18:bc:28:59:66:9a:b8:
         18:f1:d9:5e:5b:82:ff:fe:11:d7:d4:04:36:30:9f:51:1d:3c:
         c8:64:40:75:7c:d8:35:83:ef:b1:e5:28:76:0a:05:3d:e9:b8:
         1e:70:50:3a:60:e2:a5:01:88:88:9c:04:cc:6a:f2:15:85:d1:
         0c:b7:4a:6d:93:4e:82:ca:29:e9:75:0b:42:e4:3a:47:24:08:
         6d:80:5c:e6:6a:67:2c:b6:13:08:c9:4f:d8:66:53:b9:b6:7f:
         e2:ea:39:95:6f:71:77:96:03:af:b9:e3:cc:e3:a1:b9:f1:01:
         c6:6e:be:fc:97:5c:b2:d1:f1:7b:fb:33:c6:65:ea:e6:18:f9:
         ab:3a:27:1a:2d:20:6b:e6
-----BEGIN CERTIFICATE-----
MIIFRTCCAy2gAwIBAgIQJR9dmIGCFy48QZ4BT7BATDANBgkqhkiG9w0BAQUFADBV
MQswCQYDVQQGEwJDTjEaMBgGA1UEChMRV29TaWduIENBIExpbWl0ZWQxKjAoBgNV
BAMTIUNlcnRpZmljYXRpb24gQXV0aG9yaXR5IG9mIFdvU2lnbjAeFw0wOTA4MDgw
MTAwMDVaFw0yNDA4MDgwMTAwMDVaME8xCzAJBgNVBAYTAkNOMRowGAYDVQQKExFX
b1NpZ24gQ0EgTGltaXRlZDEkMCIGA1UEAxMbV29TaWduIFRpbWUgU3RhbXBpbmcg
U2lnbmVyMIIBIjANBgkqhkiG9w0BAQEFAAOCAQ8AMIIBCgKCAQEApdBouoLL26dt
Vbkxp9r0nGsDVE+iHO8ctZZEH1ZBP2GwA1lLgg7bFcjQzOCHxgl1ioTj7ZfCyJI0
wPFkU2BRNEiQsU+JafUuoCoWVC/AN1j/NVIbUgjPuexaJ1Jag+tosbn4sqkI80+r
Fw8uvU/lEoq/fLfnZTI7g0ECIjokO2qjPK/reUIXVnTIYWPdjC8+7zqjR1IEOwAY
riZx4HoEjXWCLWVOwbjyjN4PYwPUw1JgcoyIzG+W1cd9KdsmBJ6itL9atW7yRg8p
gcXAT6aHjHwhB1QfUPBCXFV8z0QuQT0YjV/ZaOZHkY/P3H2QYP/LSORhXk9zRQ3I
NIkD1f4LwwIDAQABo4IBFTCCAREwDgYDVR0PAQH/BAQDAgbAMBYGA1UdJQEB/wQM
MAoGCCsGAQUFBwMIMAwGA1UdEwEB/wQCMAAwMAYDVR0fBCkwJzAloCOgIYYfaHR0
cDovL2NybHMxLndvc2lnbi5jb20vY2ExLmNybDBnBggrBgEFBQcBAQRbMFkwJwYI
KwYBBQUHMAGGG2h0dHA6Ly9vY3NwMS53b3NpZ24uY29tL2NhMTAuBggrBgEFBQcw
AoYiaHR0cDovL2FpYTEud29zaWduLmNvbS9jYTEtdHNhLmNlcjAdBgNVHQ4EFgQU
324S1QxULloUyt4D3qtO1JgMRrUwHwYDVR0jBBgwFoAU4WbPDtHxs0u3BiAU/ocS
1fb++z4wDQYJKoZIhvcNAQEFBQADggIBAHyYL7vD0q7CKo+ml3ZWhjLEzTZoi+zX
gBoxebBeVrlp67kLMqmDJtx3XXpWskagfRXWbfms+DVzeDYCYCIgHO8Yj35msk/n
cZNaK+bljT1dLidLRssdBPMLjD8TqA3Uzego6CqcVcjj/52pIklu6OeIkjdXgGBE
GCdDWBgEbYbAZUcFV1VQkeZzUO4/EKmPBS/aaBFTbh+tmPN2PoXQV6PP5MEaTGQG
pkSrTh7iS9WkbXH4a8tmE6ZHHyEqoa5MiaR9KHcXT4iNsdFdscSTWr8ikmyrZ4Jo
7dchy2O8k8QXjocZJa0XVLR50qWTc7x8u+SAD4/MqgrQ5JN1qmzPSX117IIoXHPw
Qr+ephMu3mzugAOm7og2oBuygug9u6Ya1RGuCgti1lE2lyMXUibt8cW2IXU5FQfg
QvEqiQR3Zq0UBNLH1HxPbN1O3O2OqfaGF+fhWWa70HrQlELrr8FUyuIapKm2pdSB
yhUm+m+033gQBIxIGLwoWWaauBjx2V5bgv/+EdfUBDYwn1EdPMhkQHV82DWD77Hl
KHYKBT3puB5wUDpg4qUBiIicBMxq8hWF0Qy3Sm2TToLKKel1C0LkOkckCG2AXOZq
Zyy2EwjJT9hmU7m2f+LqOZVvcXeWA6+548zjobnxAcZuvvyXXLLR8Xv7M8Zl6uYY
+as6JxotIGvm
-----END CERTIFICATE-----

Certificate:
    Data:
        Version: 3 (0x2)
        Serial Number:
            37:a6:0e:92:5f:23:f8:0c:fd:cd:97:65:92:98:c3:54
    Signature Algorithm: sha256WithRSAEncryption
        Issuer: C=CN, O=WoSign CA Limited, CN=Certification Authority of WoSign
        Validity
            Not Before: Nov  8 00:58:58 2014 GMT
            Not After : Nov  8 00:58:58 2029 GMT
        Subject: C=CN, O=WoSign CA Limited, CN=WoSign Class 3 Code Signing CA G2
        Subject Public Key Info:
            Public Key Algorithm: rsaEncryption
                Public-Key: (2048 bit)
                Modulus:
                    00:9d:33:e2:aa:da:28:f0:f0:31:9b:ba:34:c7:52:
                    d5:a2:99:74:30:d5:54:2d:76:0d:eb:42:e1:78:df:
                    3f:9c:4f:f4:c6:f9:9d:bb:a4:a4:bf:2c:b7:66:09:
                    f4:8c:0d:31:32:53:ae:ae:fd:a7:30:b0:26:3b:bb:
                    03:dd:a1:d3:fd:fa:54:19:ce:26:2d:d4:ce:41:d8:
                    b8:50:4b:1b:5a:44:c3:3e:c9:47:5e:a0:0e:eb:1e:
                    48:f7:ca:c5:01:2f:8f:a3:2b:ca:71:fa:e4:4c:7f:
                    ed:ff:4d:31:09:1b:74:42:97:98:6b:e9:7f:3d:ef:
                    3b:03:51:99:e7:bb:6c:15:71:3c:57:b7:19:3b:54:
                    bb:02:f9:03:f1:a1:b8:17:25:88:34:88:87:45:69:
                    58:4a:b2:62:a9:5c:37:7f:1d:3c:99:54:8c:08:f9:
                    19:04:da:85:25:b9:be:ca:61:f6:00:57:40:d6:3a:
                    f4:ec:69:b2:e3:66:05:b9:3c:f4:33:05:3f:3e:d3:
                    46:44:ef:e8:e3:6f:d9:35:3c:f1:d2:8c:7b:ed:90:
                    1c:e3:d2:31:e4:85:7f:af:6e:ee:9a:40:60:a3:47:
                    68:62:6f:aa:f8:ad:9e:a4:ee:f5:b7:32:de:b6:5d:
                    79:54:18:a4:58:18:0b:02:1f:36:a1:1c:90:d7:01:
                    20:8d
                Exponent: 65537 (0x10001)
        X509v3 extensions:
            X509v3 Key Usage: critical
                Certificate Sign, CRL Sign
            X509v3 Extended Key Usage: 
                Code Signing, Microsoft Commercial Code Signing
            X509v3 Basic Constraints: critical
                CA:TRUE, pathlen:0
            X509v3 CRL Distribution Points: 

                Full Name:
                  URI:http://crls1.wosign.com/ca1.crl

            Authority Information Access: 
                OCSP - URI:http://ocsp1.wosign.com/ca1
                CA Issuers - URI:http://aia1.wosign.com/ca1g2-code3.cer

            X509v3 Subject Key Identifier: 
                AE:94:18:AE:18:3B:ED:FC:76:EE:3A:95:55:73:F8:F4:B8:84:2E:01
            X509v3 Authority Key Identifier: 
                keyid:E1:66:CF:0E:D1:F1:B3:4B:B7:06:20:14:FE:87:12:D5:F6:FE:FB:3E

            X509v3 Certificate Policies: 
                Policy: 1.3.6.1.4.1.36305.6.3.3.1
                  CPS: http://www.wosign.com/policy/

    Signature Algorithm: sha256WithRSAEncryption
         1c:89:89:7f:e3:4a:fa:b3:73:d9:0a:97:ea:21:22:91:46:5f:
         9f:6f:eb:14:c4:84:04:ae:6c:e6:53:31:54:dc:c2:27:b3:25:
         1c:52:b9:f4:8a:bc:a8:1f:1e:5c:a2:9e:68:20:f2:81:72:f1:
         28:5b:8d:0d:ab:00:69:ed:cb:66:91:24:8c:da:33:c4:ee:99:
         10:14:26:71:1d:64:57:92:09:5b:44:69:df:c9:b8:a8:72:70:
         d4:75:de:02:e8:5b:a5:63:5a:17:dd:23:9d:66:6b:27:bd:18:
         d6:13:9e:cb:ad:c7:7f:01:22:81:a8:e3:92:aa:c0:b4:d5:fc:
         e6:6a:20:3f:cb:f4:ea:8e:04:aa:ba:81:d2:28:9b:de:1f:b4:
         27:3b:fa:c6:67:a4:f7:93:a0:19:a4:e3:24:b8:43:9b:eb:62:
         4b:e9:bb:8f:8a:a0:3e:7f:1b:9c:81:34:e2:5e:4a:a7:df:d6:
         28:cb:e7:99:06:35:91:34:c0:07:7d:b8:fb:ec:eb:d0:65:01:
         f5:a0:a6:f3:e4:32:41:bf:b8:1b:36:c7:16:8b:a9:80:f1:4e:
         0f:a8:3d:95:5b:69:58:96:a0:f7:90:ff:3a:42:bc:48:de:a5:
         0f:60:c2:3f:c7:bf:3e:8d:23:7e:64:68:07:22:0e:ad:8a:55:
         b2:92:c4:e8:09:0a:b3:71:80:67:09:c7:8d:b2:c5:fa:a5:ce:
         5b:61:cc:be:47:3d:55:4f:f0:89:1a:6b:e3:4d:1e:e7:dd:d3:
         04:d7:38:d0:37:dc:3a:96:f6:4c:71:f3:a6:41:12:28:24:2b:
         3f:fe:aa:11:1e:36:1e:d8:ed:54:32:e3:ab:79:43:41:e3:70:
         05:12:98:73:33:a6:b7:40:72:4f:78:19:94:f3:7d:29:a3:0a:
         c3:aa:71:67:a1:63:05:d4:e6:97:c2:56:d2:b6:e4:82:41:b0:
         26:f6:f3:e7:38:49:93:61:1b:92:0e:61:70:72:99:96:75:5d:
         b7:0b:cc:ab:28:ec:bc:17:76:14:0b:dc:f9:f3:d3:4f:39:e7:
         bb:57:dd:0f:36:44:bb:30:eb:c9:b4:3e:5a:72:f3:d2:45:46:
         89:76:c9:ce:a8:aa:16:c0:90:0f:19:09:c0:86:44:93:2c:56:
         63:fc:3f:64:7b:7c:b3:0b:11:8b:7a:9a:61:2c:81:fd:b5:2a:
         21:4e:f6:a7:e2:3f:3f:cb:72:f6:57:d9:83:9b:09:bf:78:85:
         91:16:d6:35:de:95:37:bf:b0:87:e3:7f:96:ba:d6:c6:92:3d:
         05:ed:b1:66:aa:0c:72:fd:d0:f1:d1:7a:22:a0:64:38:3c:27:
         40:c4:8b:88:81:7b:db:75
-----BEGIN CERTIFICATE-----
MIIFpjCCA46gAwIBAgIQN6YOkl8j+Az9zZdlkpjDVDANBgkqhkiG9w0BAQsFADBV
MQswCQYDVQQGEwJDTjEaMBgGA1UEChMRV29TaWduIENBIExpbWl0ZWQxKjAoBgNV
BAMTIUNlcnRpZmljYXRpb24gQXV0aG9yaXR5IG9mIFdvU2lnbjAeFw0xNDExMDgw
MDU4NThaFw0yOTExMDgwMDU4NThaMFUxCzAJBgNVBAYTAkNOMRowGAYDVQQKExFX
b1NpZ24gQ0EgTGltaXRlZDEqMCgGA1UEAxMhV29TaWduIENsYXNzIDMgQ29kZSBT
aWduaW5nIENBIEcyMIIBIjANBgkqhkiG9w0BAQEFAAOCAQ8AMIIBCgKCAQEAnTPi
qtoo8PAxm7o0x1LVopl0MNVULXYN60LheN8/nE/0xvmdu6Skvyy3Zgn0jA0xMlOu
rv2nMLAmO7sD3aHT/fpUGc4mLdTOQdi4UEsbWkTDPslHXqAO6x5I98rFAS+PoyvK
cfrkTH/t/00xCRt0QpeYa+l/Pe87A1GZ57tsFXE8V7cZO1S7AvkD8aG4FyWINIiH
RWlYSrJiqVw3fx08mVSMCPkZBNqFJbm+ymH2AFdA1jr07Gmy42YFuTz0MwU/PtNG
RO/o42/ZNTzx0ox77ZAc49Ix5IV/r27umkBgo0doYm+q+K2epO71tzLetl15VBik
WBgLAh82oRyQ1wEgjQIDAQABo4IBcDCCAWwwDgYDVR0PAQH/BAQDAgEGMB8GA1Ud
JQQYMBYGCCsGAQUFBwMDBgorBgEEAYI3AgEWMBIGA1UdEwEB/wQIMAYBAf8CAQAw
MAYDVR0fBCkwJzAloCOgIYYfaHR0cDovL2NybHMxLndvc2lnbi5jb20vY2ExLmNy
bDBrBggrBgEFBQcBAQRfMF0wJwYIKwYBBQUHMAGGG2h0dHA6Ly9vY3NwMS53b3Np
Z24uY29tL2NhMTAyBggrBgEFBQcwAoYmaHR0cDovL2FpYTEud29zaWduLmNvbS9j
YTFnMi1jb2RlMy5jZXIwHQYDVR0OBBYEFK6UGK4YO+38du46lVVz+PS4hC4BMB8G
A1UdIwQYMBaAFOFmzw7R8bNLtwYgFP6HEtX2/vs+MEYGA1UdIAQ/MD0wOwYMKwYB
BAGCm1EGAwMBMCswKQYIKwYBBQUHAgEWHWh0dHA6Ly93d3cud29zaWduLmNvbS9w
b2xpY3kvMA0GCSqGSIb3DQEBCwUAA4ICAQAciYl/40r6s3PZCpfqISKRRl+fb+sU
xIQErmzmUzFU3MInsyUcUrn0iryoHx5cop5oIPKBcvEoW40NqwBp7ctmkSSM2jPE
7pkQFCZxHWRXkglbRGnfybiocnDUdd4C6FulY1oX3SOdZmsnvRjWE57Lrcd/ASKB
qOOSqsC01fzmaiA/y/TqjgSquoHSKJveH7QnO/rGZ6T3k6AZpOMkuEOb62JL6buP
iqA+fxucgTTiXkqn39Yoy+eZBjWRNMAHfbj77OvQZQH1oKbz5DJBv7gbNscWi6mA
8U4PqD2VW2lYlqD3kP86QrxI3qUPYMI/x78+jSN+ZGgHIg6tilWyksToCQqzcYBn
CceNssX6pc5bYcy+Rz1VT/CJGmvjTR7n3dME1zjQN9w6lvZMcfOmQRIoJCs//qoR
HjYe2O1UMuOreUNB43AFEphzM6a3QHJPeBmU830powrDqnFnoWMF1OaXwlbStuSC
QbAm9vPnOEmTYRuSDmFwcpmWdV23C8yrKOy8F3YUC9z589NPOee7V90PNkS7MOvJ
tD5acvPSRUaJdsnOqKoWwJAPGQnAhkSTLFZj/D9ke3yzCxGLepphLIH9tSohTvan
4j8/y3L2V9mDmwm/eIWRFtY13pU3v7CH43+WutbGkj0F7bFmqgxy/dDx0XoioGQ4
PCdAxIuIgXvbdQ==
-----END CERTIFICATE-----

