Certificate:
    Data:
        Version: 3 (0x2)
        Serial Number:
            fe:67:e4:f1:5a:24:e3:c6:0d:54:7c:a0:20:c2:76:70
    Signature Algorithm: sha256WithRSAEncryption
        Issuer: C=PL, O=Unizeto Technologies S.A., OU=Certum Certification Authority, CN=Certum Trusted Network CA
        Validity
            Not Before: Mar  8 13:10:43 2016 GMT
            Not After : May 30 13:10:43 2027 GMT
        Subject: C=PL, O=Unizeto Technologies S.A., OU=Certum Certification Authority, CN=Certum EV TSA SHA2
        Subject Public Key Info:
            Public Key Algorithm: rsaEncryption
                Public-Key: (2048 bit)
                Modulus:
                    00:bf:57:8b:bc:91:33:5a:2e:57:31:7f:25:57:f4:
                    5b:53:58:6a:25:aa:e8:81:20:cc:0d:1d:47:38:70:
                    1a:a3:16:37:9d:b7:44:74:b5:1a:81:24:fa:f5:18:
                    4a:38:4b:0b:a0:ba:c5:bf:34:6f:ea:8c:f5:9d:42:
                    1a:d0:31:a8:56:dd:a8:25:0e:b4:3c:25:c5:ac:c6:
                    cb:5c:e3:80:92:ea:a3:af:2d:00:40:40:7c:d2:41:
                    28:1f:2b:08:e8:51:d0:5d:89:70:22:6c:69:76:d0:
                    76:12:3c:2e:4b:07:29:26:e9:f8:01:e1:d0:e5:28:
                    f6:24:c3:15:fa:a6:90:84:74:85:5c:83:2c:0e:c4:
                    da:78:49:94:6a:1d:24:86:97:e9:22:c0:c6:0c:35:
                    e0:74:32:aa:3d:bb:01:d8:7e:cc:13:4c:20:c7:95:
                    2d:49:f6:f1:2d:17:bc:c6:29:f7:f8:55:76:9c:7d:
                    15:dc:de:e1:42:95:93:60:99:f7:43:c5:94:42:21:
                    bd:98:ac:1c:b3:66:dc:fd:78:60:44:3f:3d:c4:95:
                    69:67:ee:61:cb:da:d0:b9:e6:76:f7:a1:3f:04:f4:
                    d3:e7:71:af:21:02:5e:11:da:53:a4:a6:b5:91:78:
                    d9:90:11:5b:b4:a1:ee:a7:6e:0a:d9:73:a4:38:05:
                    52:23
                Exponent: 65537 (0x10001)
        X509v3 extensions:
            X509v3 Basic Constraints: critical
                CA:FALSE
            X509v3 Subject Key Identifier: 
                F3:35:CA:8E:46:08:0D:39:8D:DF:41:C7:33:6E:64:E4:16:3B:98:2B
            X509v3 Authority Key Identifier: 
                keyid:08:76:CD:CB:07:FF:24:F6:C5:CD:ED:BB:90:BC:E2:84:37:46:75:F7

            X509v3 Key Usage: critical
                Digital Signature
            X509v3 Extended Key Usage: critical
                Time Stamping
            X509v3 CRL Distribution Points: 

                Full Name:
                  URI:http://crl.certum.pl/ctnca.crl

            Authority Information Access: 
                OCSP - URI:http://subca.ocsp-certum.com
                CA Issuers - URI:http://repository.certum.pl/ctnca.cer

            X509v3 Certificate Policies: 
                Policy: 1.2.616.1.113527.2.5.1.11
                  CPS: http://www.certum.pl/CPS

    Signature Algorithm: sha256WithRSAEncryption
         ca:74:e4:38:bd:32:c9:1a:3c:fa:2b:58:c5:57:2d:35:53:0b:
         90:de:2d:05:b2:f1:33:32:40:1b:96:ff:22:45:87:39:ae:0c:
         f0:19:ce:c1:d0:32:44:1a:33:0c:80:eb:3d:33:2b:7c:79:34:
         4e:c6:81:44:34:58:56:ba:39:0d:f0:e4:b3:03:ac:37:75:c0:
         7a:eb:b7:40:f6:9a:fc:7e:80:6d:a9:b4:55:89:3d:98:48:ca:
         56:f4:55:a4:2e:e9:e1:d3:7e:b5:38:91:95:c4:cf:bb:a6:1e:
         75:6b:56:50:9b:6e:a7:eb:d1:9c:e1:71:20:d5:d5:a6:58:ab:
         e1:e5:29:5d:81:f1:04:b5:e4:1b:64:42:a1:38:71:3d:7b:73:
         64:c6:69:d4:22:30:96:b0:24:c3:02:5b:11:a8:3c:34:62:7b:
         67:67:e1:46:86:57:7c:e8:8a:9f:90:bb:38:5b:d9:b5:89:ea:
         03:28:db:8d:b7:5b:07:6d:32:bb:87:7f:dc:26:ce:2e:5e:e8:
         d6:ab:db:e6:a6:d0:e2:19:02:12:f9:a0:db:3e:9d:52:c4:4c:
         bd:57:85:ed:78:ed:c1:96:44:cd:46:b0:ce:65:d5:57:72:3a:
         24:c6:10:e1:b0:73:c4:8f:5a:83:ac:f6:c6:72:94:f9:72:77:
         ff:01:d5:21
-----BEGIN CERTIFICATE-----
MIIE3DCCA8SgAwIBAgIRAP5n5PFaJOPGDVR8oCDCdnAwDQYJKoZIhvcNAQELBQAw
fjELMAkGA1UEBhMCUEwxIjAgBgNVBAoTGVVuaXpldG8gVGVjaG5vbG9naWVzIFMu
QS4xJzAlBgNVBAsTHkNlcnR1bSBDZXJ0aWZpY2F0aW9uIEF1dGhvcml0eTEiMCAG
A1UEAxMZQ2VydHVtIFRydXN0ZWQgTmV0d29yayBDQTAeFw0xNjAzMDgxMzEwNDNa
Fw0yNzA1MzAxMzEwNDNaMHcxCzAJBgNVBAYTAlBMMSIwIAYDVQQKDBlVbml6ZXRv
IFRlY2hub2xvZ2llcyBTLkEuMScwJQYDVQQLDB5DZXJ0dW0gQ2VydGlmaWNhdGlv
biBBdXRob3JpdHkxGzAZBgNVBAMMEkNlcnR1bSBFViBUU0EgU0hBMjCCASIwDQYJ
KoZIhvcNAQEBBQADggEPADCCAQoCggEBAL9Xi7yRM1ouVzF/JVf0W1NYaiWq6IEg
zA0dRzhwGqMWN523RHS1GoEk+vUYSjhLC6C6xb80b+qM9Z1CGtAxqFbdqCUOtDwl
xazGy1zjgJLqo68tAEBAfNJBKB8rCOhR0F2JcCJsaXbQdhI8LksHKSbp+AHh0OUo
9iTDFfqmkIR0hVyDLA7E2nhJlGodJIaX6SLAxgw14HQyqj27Adh+zBNMIMeVLUn2
8S0XvMYp9/hVdpx9Fdze4UKVk2CZ90PFlEIhvZisHLNm3P14YEQ/PcSVaWfuYcva
0LnmdvehPwT00+dxryECXhHaU6SmtZF42ZARW7Sh7qduCtlzpDgFUiMCAwEAAaOC
AVowggFWMAwGA1UdEwEB/wQCMAAwHQYDVR0OBBYEFPM1yo5GCA05jd9BxzNuZOQW
O5grMB8GA1UdIwQYMBaAFAh2zcsH/yT2xc3tu5C84oQ3RnX3MA4GA1UdDwEB/wQE
AwIHgDAWBgNVHSUBAf8EDDAKBggrBgEFBQcDCDAvBgNVHR8EKDAmMCSgIqAghh5o
dHRwOi8vY3JsLmNlcnR1bS5wbC9jdG5jYS5jcmwwawYIKwYBBQUHAQEEXzBdMCgG
CCsGAQUFBzABhhxodHRwOi8vc3ViY2Eub2NzcC1jZXJ0dW0uY29tMDEGCCsGAQUF
BzAChiVodHRwOi8vcmVwb3NpdG9yeS5jZXJ0dW0ucGwvY3RuY2EuY2VyMEAGA1Ud
IAQ5MDcwNQYLKoRoAYb2dwIFAQswJjAkBggrBgEFBQcCARYYaHR0cDovL3d3dy5j
ZXJ0dW0ucGwvQ1BTMA0GCSqGSIb3DQEBCwUAA4IBAQDKdOQ4vTLJGjz6K1jFVy01
UwuQ3i0FsvEzMkAblv8iRYc5rgzwGc7B0DJEGjMMgOs9Myt8eTROxoFENFhWujkN
8OSzA6w3dcB667dA9pr8foBtqbRViT2YSMpW9FWkLunh0361OJGVxM+7ph51a1ZQ
m26n69Gc4XEg1dWmWKvh5SldgfEEteQbZEKhOHE9e3NkxmnUIjCWsCTDAlsRqDw0
YntnZ+FGhld86IqfkLs4W9m1ieoDKNuNt1sHbTK7h3/cJs4uXujWq9vmptDiGQIS
+aDbPp1SxEy9V4XteO3BlkTNRrDOZdVXcjokxhDhsHPEj1qDrPbGcpT5cnf/AdUh
-----END CERTIFICATE-----

Certificate:
    Data:
        Version: 3 (0x2)
        Serial Number:
            47:5a:ea:33:93:56:ad:6f:09:e0:7e:96:a7:23:93:5d
    Signature Algorithm: sha256WithRSAEncryption
        Issuer: C=GB, ST=Greater Manchester, L=Salford, O=COMODO CA Limited, CN=COMODO RSA Code Signing CA
        Validity
            Not Before: Apr  3 00:00:00 2018 GMT
            Not After : Mar 30 23:59:59 2019 GMT
        Subject: C=LV/postalCode=LV1024, ST=Latvia, L=Riga/street=359-70 Brivibas gatve, O=All Media, SIA, CN=All Media, SIA
        Subject Public Key Info:
            Public Key Algorithm: rsaEncryption
                Public-Key: (2048 bit)
                Modulus:
                    00:eb:ed:b9:78:02:fd:d2:9c:86:03:03:6e:73:bc:
                    92:8b:95:2d:a6:d7:a8:13:f5:37:4a:26:8d:90:b0:
                    86:89:62:1e:0b:67:8e:7f:69:08:56:42:ea:09:5d:
                    d4:c7:c1:bc:36:3b:e5:31:9b:b0:00:8d:f6:4b:89:
                    42:a5:7e:52:93:6a:b2:b7:13:8e:15:6b:9b:93:77:
                    a3:0b:ec:80:eb:45:0f:57:62:ac:cd:39:29:ac:5f:
                    51:22:d6:76:cf:ab:d2:a4:fa:b1:c4:24:95:c4:9f:
                    a6:5e:a3:a5:85:11:27:12:4f:83:3b:05:ae:58:cc:
                    56:ec:4e:37:09:8f:80:b3:f6:a6:69:ad:06:1c:6f:
                    89:71:1e:83:74:b9:f0:8b:99:99:53:29:85:09:37:
                    2f:85:e2:2d:51:ec:d7:a7:11:70:75:b2:68:10:05:
                    07:dd:3d:79:07:8a:93:ae:73:db:03:59:4c:a4:ab:
                    5f:09:d4:79:53:ce:bd:5d:cd:f6:20:37:65:bb:4b:
                    98:6d:37:74:c7:ce:fb:88:07:24:b3:63:a7:fa:ce:
                    a5:c9:72:53:54:f5:1f:a2:cb:42:9c:db:9a:d3:c4:
                    4d:27:b8:b4:f5:10:d1:6e:84:e2:eb:15:6e:7f:03:
                    fc:a4:57:c8:7e:aa:4e:39:e7:f0:0e:d5:6e:33:6b:
                    05:9b
                Exponent: 65537 (0x10001)
        X509v3 extensions:
            X509v3 Authority Key Identifier: 
                keyid:29:91:60:FF:8A:4D:FA:EB:F9:A6:6A:B8:CF:F9:E6:4B:BD:49:CE:12

            X509v3 Subject Key Identifier: 
                66:5B:30:69:F3:FC:9C:79:C6:DE:0C:02:4F:8B:C1:80:1B:22:27:7D
            X509v3 Key Usage: critical
                Digital Signature
            X509v3 Basic Constraints: critical
                CA:FALSE
            X509v3 Extended Key Usage: 
                Code Signing
            Netscape Cert Type: 
                Object Signing
            X509v3 Certificate Policies: 
                Policy: 1.3.6.1.4.1.6449.1.2.1.3.2
                  CPS: https://secure.comodo.net/CPS

            X509v3 CRL Distribution Points: 

                Full Name:
                  URI:http://crl.comodoca.com/COMODORSACodeSigningCA.crl

            Authority Information Access: 
                CA Issuers - URI:http://crt.comodoca.com/COMODORSACodeSigningCA.crt
                OCSP - URI:http://ocsp.comodoca.com

            X509v3 Subject Alternative Name: 
                email:info@all-media.site
    Signature Algorithm: sha256WithRSAEncryption
         97:ca:80:4a:57:68:47:81:d6:b2:ed:04:b0:62:e0:91:f6:f9:
         e4:76:c6:7f:17:7a:a8:91:d4:39:74:95:de:46:b7:68:3d:bd:
         28:0d:05:d2:42:b0:08:72:4d:f8:97:04:9d:19:ef:8c:af:84:
         06:a4:c3:43:09:94:d7:94:f3:06:5f:ee:8a:59:76:b2:89:05:
         da:2a:f0:c9:e3:d4:5f:fe:87:b1:21:60:10:bd:ac:23:08:89:
         69:73:61:c5:8b:e6:b4:96:21:e2:59:61:b7:67:28:6d:89:6e:
         8a:7b:a7:1f:c1:1f:8d:3f:79:3a:ad:08:8e:48:f9:93:a4:a3:
         c1:44:6e:dd:85:e3:5a:93:cf:f2:73:45:62:73:5b:4b:03:ca:
         ab:61:ef:30:04:db:43:3c:f8:91:93:a6:a6:94:b1:30:09:52:
         b2:fa:a3:fe:c6:c7:d1:4c:a1:c9:5c:df:06:18:76:9e:56:01:
         d7:3c:f5:ec:96:5a:cc:25:96:8f:a3:44:8d:4b:ad:2b:ce:f8:
         3a:3d:b2:54:5e:d2:f7:65:c7:0f:e0:d0:02:52:4b:16:0e:6c:
         2b:72:11:76:15:f7:9a:e4:cc:63:5c:6d:9f:fd:b8:4b:ac:73:
         7c:eb:40:66:5c:d0:49:85:bc:52:4d:01:be:55:43:88:5e:9b:
         42:af:c9:f4
-----BEGIN CERTIFICATE-----
MIIFRzCCBC+gAwIBAgIQR1rqM5NWrW8J4H6WpyOTXTANBgkqhkiG9w0BAQsFADB9
MQswCQYDVQQGEwJHQjEbMBkGA1UECBMSR3JlYXRlciBNYW5jaGVzdGVyMRAwDgYD
VQQHEwdTYWxmb3JkMRowGAYDVQQKExFDT01PRE8gQ0EgTGltaXRlZDEjMCEGA1UE
AxMaQ09NT0RPIFJTQSBDb2RlIFNpZ25pbmcgQ0EwHhcNMTgwNDAzMDAwMDAwWhcN
MTkwMzMwMjM1OTU5WjCBkDELMAkGA1UEBhMCTFYxDzANBgNVBBEMBkxWMTAyNDEP
MA0GA1UECAwGTGF0dmlhMQ0wCwYDVQQHDARSaWdhMR4wHAYDVQQJDBUzNTktNzAg
QnJpdmliYXMgZ2F0dmUxFzAVBgNVBAoMDkFsbCBNZWRpYSwgU0lBMRcwFQYDVQQD
DA5BbGwgTWVkaWEsIFNJQTCCASIwDQYJKoZIhvcNAQEBBQADggEPADCCAQoCggEB
AOvtuXgC/dKchgMDbnO8kouVLabXqBP1N0omjZCwholiHgtnjn9pCFZC6gld1MfB
vDY75TGbsACN9kuJQqV+UpNqsrcTjhVrm5N3owvsgOtFD1dirM05KaxfUSLWds+r
0qT6scQklcSfpl6jpYURJxJPgzsFrljMVuxONwmPgLP2pmmtBhxviXEeg3S58IuZ
mVMphQk3L4XiLVHs16cRcHWyaBAFB909eQeKk65z2wNZTKSrXwnUeVPOvV3N9iA3
ZbtLmG03dMfO+4gHJLNjp/rOpclyU1T1H6LLQpzbmtPETSe4tPUQ0W6E4usVbn8D
/KRXyH6qTjnn8A7VbjNrBZsCAwEAAaOCAa0wggGpMB8GA1UdIwQYMBaAFCmRYP+K
Tfrr+aZquM/55ku9Sc4SMB0GA1UdDgQWBBRmWzBp8/ycecbeDAJPi8GAGyInfTAO
BgNVHQ8BAf8EBAMCB4AwDAYDVR0TAQH/BAIwADATBgNVHSUEDDAKBggrBgEFBQcD
AzARBglghkgBhvhCAQEEBAMCBBAwRgYDVR0gBD8wPTA7BgwrBgEEAbIxAQIBAwIw
KzApBggrBgEFBQcCARYdaHR0cHM6Ly9zZWN1cmUuY29tb2RvLm5ldC9DUFMwQwYD
VR0fBDwwOjA4oDagNIYyaHR0cDovL2NybC5jb21vZG9jYS5jb20vQ09NT0RPUlNB
Q29kZVNpZ25pbmdDQS5jcmwwdAYIKwYBBQUHAQEEaDBmMD4GCCsGAQUFBzAChjJo
dHRwOi8vY3J0LmNvbW9kb2NhLmNvbS9DT01PRE9SU0FDb2RlU2lnbmluZ0NBLmNy
dDAkBggrBgEFBQcwAYYYaHR0cDovL29jc3AuY29tb2RvY2EuY29tMB4GA1UdEQQX
MBWBE2luZm9AYWxsLW1lZGlhLnNpdGUwDQYJKoZIhvcNAQELBQADggEBAJfKgEpX
aEeB1rLtBLBi4JH2+eR2xn8XeqiR1Dl0ld5Gt2g9vSgNBdJCsAhyTfiXBJ0Z74yv
hAakw0MJlNeU8wZf7opZdrKJBdoq8Mnj1F/+h7EhYBC9rCMIiWlzYcWL5rSWIeJZ
YbdnKG2Jbop7px/BH40/eTqtCI5I+ZOko8FEbt2F41qTz/JzRWJzW0sDyqth7zAE
20M8+JGTpqaUsTAJUrL6o/7Gx9FMoclc3wYYdp5WAdc89eyWWswllo+jRI1LrSvO
+Do9slRe0vdlxw/g0AJSSxYObCtyEXYV95rkzGNcbZ/9uEusc3zrQGZc0EmFvFJN
Ab5VQ4hem0KvyfQ=
-----END CERTIFICATE-----

Certificate:
    Data:
        Version: 3 (0x2)
        Serial Number:
            2e:7c:87:cc:0e:93:4a:52:fe:94:fd:1c:b7:cd:34:af
    Signature Algorithm: sha384WithRSAEncryption
        Issuer: C=GB, ST=Greater Manchester, L=Salford, O=COMODO CA Limited, CN=COMODO RSA Certification Authority
        Validity
            Not Before: May  9 00:00:00 2013 GMT
            Not After : May  8 23:59:59 2028 GMT
        Subject: C=GB, ST=Greater Manchester, L=Salford, O=COMODO CA Limited, CN=COMODO RSA Code Signing CA
        Subject Public Key Info:
            Public Key Algorithm: rsaEncryption
                Public-Key: (2048 bit)
                Modulus:
                    00:a6:98:90:63:77:91:34:7f:8a:d1:dd:e9:67:31:
                    11:eb:cc:1e:fd:31:1d:b3:b9:62:57:3f:93:bc:5b:
                    e3:9f:1e:24:32:11:27:6b:bc:51:91:a7:cf:9e:9e:
                    25:b3:5f:81:a8:18:0f:1d:1e:20:30:0e:fb:61:7b:
                    86:09:b3:e3:fd:a2:68:9d:1c:2c:9d:bf:72:e3:e4:
                    75:a0:e5:35:23:8e:c9:8a:ee:1a:0c:64:c7:d8:42:
                    a1:7b:b5:52:03:4b:3a:b0:8e:23:4b:4b:63:e0:22:
                    94:37:7b:d5:79:90:0a:14:18:51:2c:e6:fe:c1:12:
                    f0:1c:3f:61:61:0a:8c:a2:dc:f6:c3:30:aa:cd:28:
                    18:75:48:c1:79:5a:08:cd:bb:8c:55:8c:f7:d4:76:
                    90:3a:33:46:50:73:98:5c:f4:85:4a:6b:0f:80:dd:
                    5e:d6:bd:fd:a9:2f:c0:25:f5:f9:78:d7:8d:5f:10:
                    c2:44:55:3c:90:3c:31:46:cb:70:ae:07:a9:0a:e3:
                    af:c1:01:6f:90:1a:23:e2:5f:38:db:c6:08:5d:47:
                    b3:83:41:f0:2e:00:37:14:b9:12:aa:79:92:52:cd:
                    87:0f:7b:d8:62:29:a4:7e:30:bd:1b:b5:8c:72:b4:
                    48:f2:e3:e8:21:f9:5e:4c:62:79:8b:02:06:9f:7f:
                    d5:0b
                Exponent: 65537 (0x10001)
        X509v3 extensions:
            X509v3 Authority Key Identifier: 
                keyid:BB:AF:7E:02:3D:FA:A6:F1:3C:84:8E:AD:EE:38:98:EC:D9:32:32:D4

            X509v3 Subject Key Identifier: 
                29:91:60:FF:8A:4D:FA:EB:F9:A6:6A:B8:CF:F9:E6:4B:BD:49:CE:12
            X509v3 Key Usage: critical
                Digital Signature, Certificate Sign, CRL Sign
            X509v3 Basic Constraints: critical
                CA:TRUE, pathlen:0
            X509v3 Extended Key Usage: 
                Code Signing
            X509v3 Certificate Policies: 
                Policy: X509v3 Any Policy

            X509v3 CRL Distribution Points: 

                Full Name:
                  URI:http://crl.comodoca.com/COMODORSACertificationAuthority.crl

            Authority Information Access: 
                CA Issuers - URI:http://crt.comodoca.com/COMODORSAAddTrustCA.crt
                OCSP - URI:http://ocsp.comodoca.com

    Signature Algorithm: sha384WithRSAEncryption
         02:3f:02:39:c3:ee:f8:ca:3b:89:de:0c:6d:4d:b1:f1:4e:92:
         4f:af:c2:38:2c:04:cc:c5:63:11:ab:09:63:af:ab:a2:d7:02:
         3f:cc:6f:19:c3:3d:d6:1a:08:94:ff:25:d8:a9:88:a7:2b:10:
         1a:e0:9b:b1:07:22:1a:51:1c:3a:d4:e1:e9:09:bf:e6:24:74:
         af:1e:7b:16:31:6e:23:ef:54:51:2d:52:02:e2:75:08:05:4c:
         f1:b7:51:e1:51:00:c6:87:f6:6c:ee:10:44:76:57:6a:f1:df:
         58:6b:21:aa:49:d4:7c:37:4e:bd:ff:b6:75:54:40:18:36:57:
         67:11:cd:4f:02:e4:fe:f3:da:fc:75:17:db:ec:b7:f7:65:09:
         23:49:1f:43:57:83:ea:7e:20:77:61:c8:4d:f2:bb:65:4d:a8:
         f7:85:45:07:af:7a:69:27:65:90:29:40:8b:df:7b:3a:51:39:
         8c:a8:1f:70:79:ad:6d:42:20:a2:cf:0c:6c:03:8c:4c:cd:73:
         07:94:e7:5a:8e:3a:04:ba:a2:a1:7c:1f:cb:63:3a:15:a7:d4:
         15:1b:a7:52:47:32:a9:f4:bf:64:47:d1:aa:1f:53:4e:32:30:
         73:c2:6f:b7:78:82:9d:5c:ff:46:bb:6b:22:1d:88:0b:f8:1b:
         aa:34:a6:fc:8c:f5:dd:7f:65:8c:8c:31:57:31:d0:36:ec:47:
         a1:cf:cb:8b:a8:ef:1c:18:58:c5:06:77:ca:4b:9b:51:af:4c:
         08:4a:7a:8f:e2:a3:52:e2:8e:8e:cc:26:e4:b2:d8:e5:38:c2:
         a8:ed:c6:81:9c:35:6b:a9:58:61:4a:0a:97:b4:4b:42:b6:55:
         9d:be:99:e7:70:6d:59:f8:6d:2a:0c:7f:19:60:5f:0c:9a:88:
         6c:30:ac:52:09:90:16:1b:ff:2b:9d:db:d0:20:ca:89:ea:28:
         7e:32:8e:19:df:7b:48:33:1e:d7:65:f8:ae:c9:f8:83:14:93:
         76:7d:64:d0:8e:ce:be:35:7d:ff:72:31:4d:9f:9e:bd:1e:6c:
         2f:a8:8f:0c:06:50:fb:8c:27:b3:76:c9:f4:e6:d7:c3:34:e2:
         8c:87:21:86:61:fe:bf:55:74:e1:21:77:03:0a:68:6c:bb:e4:
         c9:a9:e6:cf:59:25:eb:7c:ec:45:0e:79:66:68:e8:22:cd:b8:
         ef:98:85:4d:96:11:3c:09:8a:d0:7f:bc:28:28:13:fb:6a:ca:
         54:8d:92:5c:cd:c2:65:98:06:9e:ce:48:5b:d4:b5:37:93:46:
         41:7c:07:dd:cf:fa:43:ef:ba:67:61:ff:7d:49:e0:bb:30:7d:
         5c:80:e3:e6:16:39:4b:a7
-----BEGIN CERTIFICATE-----
MIIF4DCCA8igAwIBAgIQLnyHzA6TSlL+lP0ct800rzANBgkqhkiG9w0BAQwFADCB
hTELMAkGA1UEBhMCR0IxGzAZBgNVBAgTEkdyZWF0ZXIgTWFuY2hlc3RlcjEQMA4G
A1UEBxMHU2FsZm9yZDEaMBgGA1UEChMRQ09NT0RPIENBIExpbWl0ZWQxKzApBgNV
BAMTIkNPTU9ETyBSU0EgQ2VydGlmaWNhdGlvbiBBdXRob3JpdHkwHhcNMTMwNTA5
MDAwMDAwWhcNMjgwNTA4MjM1OTU5WjB9MQswCQYDVQQGEwJHQjEbMBkGA1UECBMS
R3JlYXRlciBNYW5jaGVzdGVyMRAwDgYDVQQHEwdTYWxmb3JkMRowGAYDVQQKExFD
T01PRE8gQ0EgTGltaXRlZDEjMCEGA1UEAxMaQ09NT0RPIFJTQSBDb2RlIFNpZ25p
bmcgQ0EwggEiMA0GCSqGSIb3DQEBAQUAA4IBDwAwggEKAoIBAQCmmJBjd5E0f4rR
3elnMRHrzB79MR2zuWJXP5O8W+OfHiQyESdrvFGRp8+eniWzX4GoGA8dHiAwDvth
e4YJs+P9omidHCydv3Lj5HWg5TUjjsmK7hoMZMfYQqF7tVIDSzqwjiNLS2PgIpQ3
e9V5kAoUGFEs5v7BEvAcP2FhCoyi3PbDMKrNKBh1SMF5WgjNu4xVjPfUdpA6M0ZQ
c5hc9IVKaw+A3V7Wvf2pL8Al9fl4141fEMJEVTyQPDFGy3CuB6kK46/BAW+QGiPi
XzjbxghdR7ODQfAuADcUuRKqeZJSzYcPe9hiKaR+ML0btYxytEjy4+gh+V5MYnmL
Agaff9ULAgMBAAGjggFRMIIBTTAfBgNVHSMEGDAWgBS7r34CPfqm8TyEjq3uOJjs
2TIy1DAdBgNVHQ4EFgQUKZFg/4pN+uv5pmq4z/nmS71JzhIwDgYDVR0PAQH/BAQD
AgGGMBIGA1UdEwEB/wQIMAYBAf8CAQAwEwYDVR0lBAwwCgYIKwYBBQUHAwMwEQYD
VR0gBAowCDAGBgRVHSAAMEwGA1UdHwRFMEMwQaA/oD2GO2h0dHA6Ly9jcmwuY29t
b2RvY2EuY29tL0NPTU9ET1JTQUNlcnRpZmljYXRpb25BdXRob3JpdHkuY3JsMHEG
CCsGAQUFBwEBBGUwYzA7BggrBgEFBQcwAoYvaHR0cDovL2NydC5jb21vZG9jYS5j
b20vQ09NT0RPUlNBQWRkVHJ1c3RDQS5jcnQwJAYIKwYBBQUHMAGGGGh0dHA6Ly9v
Y3NwLmNvbW9kb2NhLmNvbTANBgkqhkiG9w0BAQwFAAOCAgEAAj8COcPu+Mo7id4M
bU2x8U6ST6/COCwEzMVjEasJY6+rotcCP8xvGcM91hoIlP8l2KmIpysQGuCbsQci
GlEcOtTh6Qm/5iR0rx57FjFuI+9UUS1SAuJ1CAVM8bdR4VEAxof2bO4QRHZXavHf
WGshqknUfDdOvf+2dVRAGDZXZxHNTwLk/vPa/HUX2+y392UJI0kfQ1eD6n4gd2HI
TfK7ZU2o94VFB696aSdlkClAi997OlE5jKgfcHmtbUIgos8MbAOMTM1zB5TnWo46
BLqioXwfy2M6FafUFRunUkcyqfS/ZEfRqh9TTjIwc8Jvt3iCnVz/RrtrIh2IC/gb
qjSm/Iz13X9ljIwxVzHQNuxHoc/Li6jvHBhYxQZ3ykubUa9MCEp6j+KjUuKOjswm
5LLY5TjCqO3GgZw1a6lYYUoKl7RLQrZVnb6Z53BtWfhtKgx/GWBfDJqIbDCsUgmQ
Fhv/K53b0CDKieoofjKOGd97SDMe12X4rsn4gxSTdn1k0I7OvjV9/3IxTZ+evR5s
L6iPDAZQ+4wns3bJ9ObXwzTijIchhmH+v1V04SF3AwpobLvkyanmz1kl63zsRQ55
ZmjoIs2475iFTZYRPAmK0H+8KCgT+2rKVI2SXM3CZZgGns5IW9S1N5NGQXwH3c/6
Q++6Z2H/fUnguzB9XIDj5hY5S6c=
-----END CERTIFICATE-----

