Certificate:
    Data:
        Version: 3 (0x2)
        Serial Number:
             (Negative)39:56:57:c9:22:95:49:7a:b4:16:1b:d9:5f:13:9d:52
    Signature Algorithm: md5WithRSAEncryption
        Issuer: emailAddress=suporte@eratech.com.br, O=Eratech Ltda, CN=Eratech
        Validity
            Not Before: Jan  1 02:00:00 2018 GMT
            Not After : Dec 31 02:00:00 2018 GMT
        Subject: emailAddress=suporte@eratech.com.br, O=Eratech Ltda, CN=Eratech
        Subject Public Key Info:
            Public Key Algorithm: rsaEncryption
                Public-Key: (1024 bit)
                Modulus:
                    00:95:e3:25:76:c4:a5:eb:f5:08:c9:7b:b4:e2:ab:
                    84:3b:07:92:ab:1e:9c:46:fc:71:54:d8:8e:ef:15:
                    3e:df:96:a8:b2:c4:22:6c:e7:ca:d3:a8:8e:b7:e2:
                    af:0c:4b:b5:b9:83:28:c8:cb:3f:13:55:da:4f:ba:
                    7d:8a:aa:56:30:ff:fd:e9:b8:8e:87:3b:c1:d5:00:
                    39:79:ae:f5:b3:07:4a:18:b3:b5:ed:d3:92:dc:e6:
                    05:f1:6a:56:26:85:ca:fe:59:07:2d:ee:aa:00:36:
                    7e:54:43:fe:ac:a9:15:d7:52:4f:38:9d:5c:0e:d1:
                    90:13:1c:15:68:91:8b:50:9f
                Exponent: 65537 (0x10001)
        X509v3 extensions:
            2.5.29.1: 
                0x...ji6rf./.-.._l...R0P1%0#..*.H.......suporte@eratech.com.br1.0...U.
..Eratech Ltda1.0...U....Eratech.....6.j..K..&..b.
    Signature Algorithm: md5WithRSAEncryption
         10:2d:dc:4a:4a:ec:94:09:75:01:22:44:a8:95:95:f6:fc:09:
         07:75:6b:33:d3:80:4f:1f:ee:8e:50:8b:38:03:2a:e2:e1:29:
         7c:4d:f7:9b:65:43:95:59:b9:ed:3b:56:3b:fd:10:37:8a:85:
         45:ed:9f:aa:91:90:5f:14:1d:f6:79:05:56:ff:25:03:93:4c:
         d7:d4:54:6d:14:16:fa:4b:2a:f3:90:6e:00:d4:64:9e:5c:85:
         1f:8a:52:71:9e:2f:bc:ee:27:9c:d4:e8:1f:9c:4d:de:a9:f8:
         f6:a7:ca:9a:df:01:b5:2b:5a:33:54:8c:a1:04:ba:27:e1:63:
         52:42
-----BEGIN CERTIFICATE-----
MIICrTCCAhagAwIBAgIQxqmoNt1qtoVL6eQmoOxirjANBgkqhkiG9w0BAQQFADBQ
MSUwIwYJKoZIhvcNAQkBFhZzdXBvcnRlQGVyYXRlY2guY29tLmJyMRUwEwYDVQQK
EwxFcmF0ZWNoIEx0ZGExEDAOBgNVBAMTB0VyYXRlY2gwHhcNMTgwMTAxMDIwMDAw
WhcNMTgxMjMxMDIwMDAwWjBQMSUwIwYJKoZIhvcNAQkBFhZzdXBvcnRlQGVyYXRl
Y2guY29tLmJyMRUwEwYDVQQKEwxFcmF0ZWNoIEx0ZGExEDAOBgNVBAMTB0VyYXRl
Y2gwgZ8wDQYJKoZIhvcNAQEBBQADgY0AMIGJAoGBAJXjJXbEpev1CMl7tOKrhDsH
kqsenEb8cVTYju8VPt+WqLLEImznytOojrfirwxLtbmDKMjLPxNV2k+6fYqqVjD/
/em4joc7wdUAOXmu9bMHShizte3TktzmBfFqViaFyv5ZBy3uqgA2flRD/qypFddS
TzidXA7RkBMcFWiRi1CfAgMBAAGjgYcwgYQwgYEGA1UdAQR6MHiAEIpqaTZyZhEv
mi3v0l9s5OChUjBQMSUwIwYJKoZIhvcNAQkBFhZzdXBvcnRlQGVyYXRlY2guY29t
LmJyMRUwEwYDVQQKEwxFcmF0ZWNoIEx0ZGExEDAOBgNVBAMTB0VyYXRlY2iCEMap
qDbdaraFS+nkJqDsYq4wDQYJKoZIhvcNAQEEBQADgYEAEC3cSkrslAl1ASJEqJWV
9vwJB3VrM9OATx/ujlCLOAMq4uEpfE33m2VDlVm57TtWO/0QN4qFRe2fqpGQXxQd
9nkFVv8lA5NM19RUbRQW+ksq85BuANRknlyFH4pScZ4vvO4nnNToH5xN3qn49qfK
mt8BtStaM1SMoQS6J+FjUkI=
-----END CERTIFICATE-----

Certificate:
    Data:
        Version: 3 (0x2)
        Serial Number:
            16:88:f0:39:25:5e:63:8e:69:14:39:07:e6:33:0b
    Signature Algorithm: sha1WithRSAEncryption
        Issuer: C=US, ST=UT, L=Salt Lake City, O=The USERTRUST Network, OU=http://www.usertrust.com, CN=UTN-USERFirst-Object
        Validity
            Not Before: Dec 31 00:00:00 2015 GMT
            Not After : Jul  9 18:40:36 2019 GMT
        Subject: C=GB, ST=Greater Manchester, L=Salford, O=COMODO CA Limited, CN=COMODO SHA-1 Time Stamping Signer
        Subject Public Key Info:
            Public Key Algorithm: rsaEncryption
                Public-Key: (2048 bit)
                Modulus:
                    00:e9:e9:3d:df:d7:37:08:c9:1e:38:b2:52:53:42:
                    6d:22:f1:b1:c4:06:04:6b:9e:fd:82:74:50:43:7d:
                    c6:a0:bb:1f:4e:f9:02:71:26:b1:ef:43:d8:83:8c:
                    48:fc:e7:0f:97:7a:9a:eb:9c:de:a6:a3:0e:3b:1c:
                    44:18:75:8e:78:a5:17:69:fe:49:18:a4:e2:bb:5c:
                    4e:fe:8e:2a:54:7a:50:f0:d5:f6:cc:91:e7:99:79:
                    d7:de:79:94:d7:96:33:fe:0e:83:be:22:bf:63:16:
                    2c:a3:dd:28:1b:af:3d:ab:ea:97:d2:f1:bf:04:10:
                    e7:3d:48:45:fd:1f:68:65:c1:7f:59:99:69:c0:22:
                    31:0c:62:6e:a7:5c:65:01:21:b0:63:c4:22:18:27:
                    ee:e6:fc:d2:00:3d:47:2e:a8:b8:86:56:5d:04:dc:
                    13:17:25:6e:1c:df:44:0f:15:cd:b7:db:a5:57:76:
                    42:6f:00:68:82:99:d2:e3:c1:de:f0:8b:94:57:4c:
                    ec:08:90:22:21:ce:22:2b:98:0c:42:e6:42:93:94:
                    98:93:ef:fd:06:d9:3f:bc:5b:9b:54:3c:20:b1:ee:
                    6a:d6:47:7a:c5:ab:80:e9:30:9a:de:f1:a4:3f:55:
                    4d:0a:09:34:8a:75:29:d2:69:ad:97:0f:50:bf:f8:
                    ca:09
                Exponent: 65537 (0x10001)
        X509v3 extensions:
            X509v3 Authority Key Identifier: 
                keyid:DA:ED:64:74:14:9C:14:3C:AB:DD:99:A9:BD:5B:28:4D:8B:3C:C9:D8

            X509v3 Subject Key Identifier: 
                8E:6B:2D:33:6B:F4:33:A7:93:B3:13:9A:A5:E0:0A:F7:12:35:6A:88
            X509v3 Key Usage: critical
                Digital Signature, Non Repudiation
            X509v3 Basic Constraints: critical
                CA:FALSE
            X509v3 Extended Key Usage: critical
                Time Stamping
            X509v3 CRL Distribution Points: 

                Full Name:
                  URI:http://crl.usertrust.com/UTN-USERFirst-Object.crl

            Authority Information Access: 
                OCSP - URI:http://ocsp.usertrust.com

    Signature Algorithm: sha1WithRSAEncryption
         ba:33:24:40:40:8c:7c:db:58:9f:b3:60:98:b2:f5:c0:31:fe:
         eb:1f:6e:50:f6:0a:e0:e4:e6:81:ad:26:87:a2:df:fd:b3:da:
         f4:73:f3:00:fb:29:1b:89:1b:15:3e:db:6b:52:93:2b:c4:ac:
         39:81:d7:3c:67:57:9a:39:36:e0:28:08:9a:e3:39:4f:9b:89:
         09:7f:7b:c5:61:7f:59:89:32:25:0a:6a:ae:1a:3e:f0:a2:27:
         a8:b6:c3:b8:87:f7:16:04:48:41:3d:5c:d8:ec:9f:4d:20:31:
         04:d9:65:a1:ed:cd:69:07:53:16:3d:dd:36:02:0a:88:eb:40:
         e5:06:30:0b:b8:16:4b:dc:ef:bc:55:09:ff:c6:3e:12:2e:76:
         b3:dc:ce:42:ef:f9:76:57:e1:b7:0a:05:40:98:58:9a:5d:71:
         16:93:71:8c:65:81:ea:6f:f3:89:f7:fb:73:ad:b4:e7:bf:d9:
         8e:6f:aa:0b:4f:25:f3:b8:e1:d5:dd:75:98:68:81:f8:aa:c0:
         d1:80:c2:c4:c4:39:89:c1:f6:c9:9e:6c:d7:74:f9:d9:97:f8:
         4f:c2:9a:0a:cd:5e:8f:f8:19:e9:e0:a5:9f:c4:f0:92:21:e6:
         2d:79:25:c9:22:f9:c3:f0:3a:84:57:ad:3a:16:f4:63:94:10:
         1d:5d:d0:c6
-----BEGIN CERTIFICATE-----
MIIEmTCCA4GgAwIBAgIPFojwOSVeY45pFDkH5jMLMA0GCSqGSIb3DQEBBQUAMIGV
MQswCQYDVQQGEwJVUzELMAkGA1UECBMCVVQxFzAVBgNVBAcTDlNhbHQgTGFrZSBD
aXR5MR4wHAYDVQQKExVUaGUgVVNFUlRSVVNUIE5ldHdvcmsxITAfBgNVBAsTGGh0
dHA6Ly93d3cudXNlcnRydXN0LmNvbTEdMBsGA1UEAxMUVVROLVVTRVJGaXJzdC1P
YmplY3QwHhcNMTUxMjMxMDAwMDAwWhcNMTkwNzA5MTg0MDM2WjCBhDELMAkGA1UE
BhMCR0IxGzAZBgNVBAgTEkdyZWF0ZXIgTWFuY2hlc3RlcjEQMA4GA1UEBxMHU2Fs
Zm9yZDEaMBgGA1UEChMRQ09NT0RPIENBIExpbWl0ZWQxKjAoBgNVBAMTIUNPTU9E
TyBTSEEtMSBUaW1lIFN0YW1waW5nIFNpZ25lcjCCASIwDQYJKoZIhvcNAQEBBQAD
ggEPADCCAQoCggEBAOnpPd/XNwjJHjiyUlNCbSLxscQGBGue/YJ0UEN9xqC7H075
AnEmse9D2IOMSPznD5d6muuc3qajDjscRBh1jnilF2n+SRik4rtcTv6OKlR6UPDV
9syR55l51955lNeWM/4Og74iv2MWLKPdKBuvPavql9LxvwQQ5z1IRf0faGXBf1mZ
acAiMQxibqdcZQEhsGPEIhgn7ub80gA9Ry6ouIZWXQTcExclbhzfRA8VzbfbpVd2
Qm8AaIKZ0uPB3vCLlFdM7AiQIiHOIiuYDELmQpOUmJPv/QbZP7xbm1Q8ILHuatZH
esWrgOkwmt7xpD9VTQoJNIp1KdJprZcPUL/4ygkCAwEAAaOB9DCB8TAfBgNVHSME
GDAWgBTa7WR0FJwUPKvdmam9WyhNizzJ2DAdBgNVHQ4EFgQUjmstM2v0M6eTsxOa
peAK9xI1aogwDgYDVR0PAQH/BAQDAgbAMAwGA1UdEwEB/wQCMAAwFgYDVR0lAQH/
BAwwCgYIKwYBBQUHAwgwQgYDVR0fBDswOTA3oDWgM4YxaHR0cDovL2NybC51c2Vy
dHJ1c3QuY29tL1VUTi1VU0VSRmlyc3QtT2JqZWN0LmNybDA1BggrBgEFBQcBAQQp
MCcwJQYIKwYBBQUHMAGGGWh0dHA6Ly9vY3NwLnVzZXJ0cnVzdC5jb20wDQYJKoZI
hvcNAQEFBQADggEBALozJEBAjHzbWJ+zYJiy9cAx/usfblD2CuDk5oGtJoei3/2z
2vRz8wD7KRuJGxU+22tSkyvErDmB1zxnV5o5NuAoCJrjOU+biQl/e8Vhf1mJMiUK
aq4aPvCiJ6i2w7iH9xYESEE9XNjsn00gMQTZZaHtzWkHUxY93TYCCojrQOUGMAu4
Fkvc77xVCf/GPhIudrPczkLv+XZX4bcKBUCYWJpdcRaTcYxlgepv84n3+3OttOe/
2Y5vqgtPJfO44dXddZhogfiqwNGAwsTEOYnB9smebNd0+dmX+E/CmgrNXo/4Geng
pZ/E8JIh5i15Jcki+cPwOoRXrToW9GOUEB1d0MY=
-----END CERTIFICATE-----

