Certificate:
    Data:
        Version: 3 (0x2)
        Serial Number:
            36:95:9f:4f:3a:97:d8:45:85:da:4e:60:16:13:22:b9
    Signature Algorithm: sha256WithRSAEncryption
        Issuer: C=US, O=Symantec Corporation, OU=Symantec Trust Network, CN=Symantec Class 3 SHA256 Code Signing CA
        Validity
            Not Before: Oct 26 00:00:00 2015 GMT
            Not After : Oct 25 23:59:59 2017 GMT
        Subject: C=CN, ST=Shanghai, L=Shanghai, O=Shanghai XiaoCai Technology Co.,Ltd, CN=Shanghai XiaoCai Technology Co.,Ltd
        Subject Public Key Info:
            Public Key Algorithm: rsaEncryption
                Public-Key: (2048 bit)
                Modulus:
                    00:ac:5e:03:05:e9:a0:c9:3b:55:cb:42:d6:fb:bd:
                    cb:dd:b3:13:e8:22:4b:a3:72:e7:15:ec:58:64:d3:
                    78:48:e2:ba:fe:23:5f:4a:19:58:4e:96:fb:54:b1:
                    cf:c7:f4:8d:ed:d8:ac:19:d1:95:f8:6b:cd:5d:04:
                    af:93:5c:cd:da:a6:1a:a0:18:80:30:ba:9d:f0:89:
                    f1:e5:7d:b7:af:a7:72:a3:f6:03:1e:b2:a9:e8:73:
                    ba:1d:a4:aa:38:eb:88:51:d8:a1:6a:ee:d2:e3:04:
                    38:03:fa:c4:3c:4d:92:a3:2c:fa:89:49:df:36:77:
                    44:67:a4:a7:73:ac:ea:3a:04:ae:54:83:90:65:67:
                    33:e2:7f:0c:5f:e2:22:a2:29:81:55:9b:56:8f:86:
                    70:5a:63:db:d4:b7:ba:96:a4:65:22:07:d1:23:d5:
                    49:88:f5:09:c1:76:a1:72:e9:14:b4:13:72:14:9b:
                    50:fa:f2:18:21:4e:11:b3:c1:7c:c6:a0:60:fd:fd:
                    6e:58:c8:df:7a:60:8d:1c:2f:6b:f3:26:a8:6d:c6:
                    c0:3a:1a:a6:9b:31:16:3d:b2:d0:ff:57:82:92:1f:
                    a9:19:01:a8:4a:85:4f:cd:16:b6:d5:03:f8:53:ab:
                    5b:b5:26:8d:0a:da:8a:ae:c4:0a:b1:af:97:65:c0:
                    41:75
                Exponent: 65537 (0x10001)
        X509v3 extensions:
            X509v3 Basic Constraints: 
                CA:FALSE
            X509v3 Key Usage: critical
                Digital Signature
            X509v3 CRL Distribution Points: 

                Full Name:
                  URI:http://sv.symcb.com/sv.crl

            X509v3 Certificate Policies: 
                Policy: 2.16.840.1.113733.1.7.23.3
                  CPS: https://d.symcb.com/cps
                  User Notice:
                    Explicit Text: https://d.symcb.com/rpa

            X509v3 Extended Key Usage: 
                Code Signing
            Authority Information Access: 
                OCSP - URI:http://sv.symcd.com
                CA Issuers - URI:http://sv.symcb.com/sv.crt

            X509v3 Authority Key Identifier: 
                keyid:96:3B:53:F0:79:33:97:AF:7D:83:EF:2E:2B:CC:CA:B7:86:1E:72:66

            X509v3 Subject Key Identifier: 
                83:3D:FB:F0:19:FF:F0:B1:B8:1F:C2:37:78:65:1F:B2:21:46:5A:F9
    Signature Algorithm: sha256WithRSAEncryption
         44:2d:f0:5a:1c:f2:67:d3:0c:f5:b1:08:29:1a:4e:73:ab:82:
         9d:dd:c5:80:f3:85:8d:bd:f1:84:4b:0d:0c:c4:b6:a4:46:db:
         2b:e8:57:6b:3f:a9:90:79:70:d3:d8:a6:7b:e5:5b:34:78:c4:
         4c:35:d1:09:5c:0f:a0:83:1a:59:8b:1b:73:61:a4:5e:19:c8:
         2a:98:8e:43:2f:68:48:75:8e:f7:8e:74:9f:4b:be:d5:33:12:
         80:4a:65:ed:fd:cf:0e:01:09:e4:49:a6:09:78:b1:30:44:76:
         b2:5b:81:bd:fd:a7:47:86:06:0b:b1:ee:ca:f5:a8:e4:a2:84:
         41:c9:b9:f3:22:ae:19:6c:5e:be:4c:66:22:9c:0b:10:34:45:
         80:b5:71:99:97:db:c0:c4:b7:ee:91:04:55:80:47:c7:37:70:
         02:02:c9:50:54:ee:38:d4:c6:d0:ae:76:94:94:8f:f1:6a:81:
         61:0a:74:50:8d:ec:04:7f:eb:0e:3b:c6:6c:a0:52:62:82:93:
         76:5b:fe:95:8b:a5:b7:2e:7a:05:6f:75:5f:49:cb:ca:9b:7b:
         95:60:40:fd:51:cd:91:f9:c1:f4:69:18:db:41:6a:57:25:cb:
         76:e2:90:02:b2:9f:58:c6:5e:58:b3:48:12:20:ab:c1:3b:f6:
         3c:0c:94:a0
-----BEGIN CERTIFICATE-----
MIIE/TCCA+WgAwIBAgIQNpWfTzqX2EWF2k5gFhMiuTANBgkqhkiG9w0BAQsFADB/
MQswCQYDVQQGEwJVUzEdMBsGA1UEChMUU3ltYW50ZWMgQ29ycG9yYXRpb24xHzAd
BgNVBAsTFlN5bWFudGVjIFRydXN0IE5ldHdvcmsxMDAuBgNVBAMTJ1N5bWFudGVj
IENsYXNzIDMgU0hBMjU2IENvZGUgU2lnbmluZyBDQTAeFw0xNTEwMjYwMDAwMDBa
Fw0xNzEwMjUyMzU5NTlaMIGPMQswCQYDVQQGEwJDTjERMA8GA1UECBMIU2hhbmdo
YWkxETAPBgNVBAcTCFNoYW5naGFpMSwwKgYDVQQKFCNTaGFuZ2hhaSBYaWFvQ2Fp
IFRlY2hub2xvZ3kgQ28uLEx0ZDEsMCoGA1UEAxQjU2hhbmdoYWkgWGlhb0NhaSBU
ZWNobm9sb2d5IENvLixMdGQwggEiMA0GCSqGSIb3DQEBAQUAA4IBDwAwggEKAoIB
AQCsXgMF6aDJO1XLQtb7vcvdsxPoIkujcucV7Fhk03hI4rr+I19KGVhOlvtUsc/H
9I3t2KwZ0ZX4a81dBK+TXM3aphqgGIAwup3wifHlfbevp3Kj9gMesqnoc7odpKo4
64hR2KFq7tLjBDgD+sQ8TZKjLPqJSd82d0RnpKdzrOo6BK5Ug5BlZzPifwxf4iKi
KYFVm1aPhnBaY9vUt7qWpGUiB9Ej1UmI9QnBdqFy6RS0E3IUm1D68hghThGzwXzG
oGD9/W5YyN96YI0cL2vzJqhtxsA6GqabMRY9stD/V4KSH6kZAahKhU/NFrbVA/hT
q1u1Jo0K2oquxAqxr5dlwEF1AgMBAAGjggFiMIIBXjAJBgNVHRMEAjAAMA4GA1Ud
DwEB/wQEAwIHgDArBgNVHR8EJDAiMCCgHqAchhpodHRwOi8vc3Yuc3ltY2IuY29t
L3N2LmNybDBmBgNVHSAEXzBdMFsGC2CGSAGG+EUBBxcDMEwwIwYIKwYBBQUHAgEW
F2h0dHBzOi8vZC5zeW1jYi5jb20vY3BzMCUGCCsGAQUFBwICMBkMF2h0dHBzOi8v
ZC5zeW1jYi5jb20vcnBhMBMGA1UdJQQMMAoGCCsGAQUFBwMDMFcGCCsGAQUFBwEB
BEswSTAfBggrBgEFBQcwAYYTaHR0cDovL3N2LnN5bWNkLmNvbTAmBggrBgEFBQcw
AoYaaHR0cDovL3N2LnN5bWNiLmNvbS9zdi5jcnQwHwYDVR0jBBgwFoAUljtT8Hkz
l699g+8uK8zKt4YecmYwHQYDVR0OBBYEFIM9+/AZ//CxuB/CN3hlH7IhRlr5MA0G
CSqGSIb3DQEBCwUAA4IBAQBELfBaHPJn0wz1sQgpGk5zq4Kd3cWA84WNvfGESw0M
xLakRtsr6FdrP6mQeXDT2KZ75Vs0eMRMNdEJXA+ggxpZixtzYaReGcgqmI5DL2hI
dY73jnSfS77VMxKASmXt/c8OAQnkSaYJeLEwRHayW4G9/adHhgYLse7K9ajkooRB
ybnzIq4ZbF6+TGYinAsQNEWAtXGZl9vAxLfukQRVgEfHN3ACAslQVO441MbQrnaU
lI/xaoFhCnRQjewEf+sOO8ZsoFJigpN2W/6Vi6W3LnoFb3VfScvKm3uVYED9Uc2R
+cH0aRjbQWpXJct24pACsp9Yxl5Ys0gSIKvBO/Y8DJSg
-----END CERTIFICATE-----

Certificate:
    Data:
        Version: 3 (0x2)
        Serial Number:
            25:1f:5d:98:81:82:17:2e:3c:41:9e:01:4f:b0:40:4c
    Signature Algorithm: sha1WithRSAEncryption
        Issuer: C=CN, O=WoSign CA Limited, CN=Certification Authority of WoSign
        Validity
            Not Before: Aug  8 01:00:05 2009 GMT
            Not After : Aug  8 01:00:05 2024 GMT
        Subject: C=CN, O=WoSign CA Limited, CN=WoSign Time Stamping Signer
        Subject Public Key Info:
            Public Key Algorithm: rsaEncryption
                Public-Key: (2048 bit)
                Modulus:
                    00:a5:d0:68:ba:82:cb:db:a7:6d:55:b9:31:a7:da:
                    f4:9c:6b:03:54:4f:a2:1c:ef:1c:b5:96:44:1f:56:
                    41:3f:61:b0:03:59:4b:82:0e:db:15:c8:d0:cc:e0:
                    87:c6:09:75:8a:84:e3:ed:97:c2:c8:92:34:c0:f1:
                    64:53:60:51:34:48:90:b1:4f:89:69:f5:2e:a0:2a:
                    16:54:2f:c0:37:58:ff:35:52:1b:52:08:cf:b9:ec:
                    5a:27:52:5a:83:eb:68:b1:b9:f8:b2:a9:08:f3:4f:
                    ab:17:0f:2e:bd:4f:e5:12:8a:bf:7c:b7:e7:65:32:
                    3b:83:41:02:22:3a:24:3b:6a:a3:3c:af:eb:79:42:
                    17:56:74:c8:61:63:dd:8c:2f:3e:ef:3a:a3:47:52:
                    04:3b:00:18:ae:26:71:e0:7a:04:8d:75:82:2d:65:
                    4e:c1:b8:f2:8c:de:0f:63:03:d4:c3:52:60:72:8c:
                    88:cc:6f:96:d5:c7:7d:29:db:26:04:9e:a2:b4:bf:
                    5a:b5:6e:f2:46:0f:29:81:c5:c0:4f:a6:87:8c:7c:
                    21:07:54:1f:50:f0:42:5c:55:7c:cf:44:2e:41:3d:
                    18:8d:5f:d9:68:e6:47:91:8f:cf:dc:7d:90:60:ff:
                    cb:48:e4:61:5e:4f:73:45:0d:c8:34:89:03:d5:fe:
                    0b:c3
                Exponent: 65537 (0x10001)
        X509v3 extensions:
            X509v3 Key Usage: critical
                Digital Signature, Non Repudiation
            X509v3 Extended Key Usage: critical
                Time Stamping
            X509v3 Basic Constraints: critical
                CA:FALSE
            X509v3 CRL Distribution Points: 

                Full Name:
                  URI:http://crls1.wosign.com/ca1.crl

            Authority Information Access: 
                OCSP - URI:http://ocsp1.wosign.com/ca1
                CA Issuers - URI:http://aia1.wosign.com/ca1-tsa.cer

            X509v3 Subject Key Identifier: 
                DF:6E:12:D5:0C:54:2E:5A:14:CA:DE:03:DE:AB:4E:D4:98:0C:46:B5
            X509v3 Authority Key Identifier: 
                keyid:E1:66:CF:0E:D1:F1:B3:4B:B7:06:20:14:FE:87:12:D5:F6:FE:FB:3E

    Signature Algorithm: sha1WithRSAEncryption
         7c:98:2f:bb:c3:d2:ae:c2:2a:8f:a6:97:76:56:86:32:c4:cd:
         36:68:8b:ec:d7:80:1a:31:79:b0:5e:56:b9:69:eb:b9:0b:32:
         a9:83:26:dc:77:5d:7a:56:b2:46:a0:7d:15:d6:6d:f9:ac:f8:
         35:73:78:36:02:60:22:20:1c:ef:18:8f:7e:66:b2:4f:e7:71:
         93:5a:2b:e6:e5:8d:3d:5d:2e:27:4b:46:cb:1d:04:f3:0b:8c:
         3f:13:a8:0d:d4:cd:e8:28:e8:2a:9c:55:c8:e3:ff:9d:a9:22:
         49:6e:e8:e7:88:92:37:57:80:60:44:18:27:43:58:18:04:6d:
         86:c0:65:47:05:57:55:50:91:e6:73:50:ee:3f:10:a9:8f:05:
         2f:da:68:11:53:6e:1f:ad:98:f3:76:3e:85:d0:57:a3:cf:e4:
         c1:1a:4c:64:06:a6:44:ab:4e:1e:e2:4b:d5:a4:6d:71:f8:6b:
         cb:66:13:a6:47:1f:21:2a:a1:ae:4c:89:a4:7d:28:77:17:4f:
         88:8d:b1:d1:5d:b1:c4:93:5a:bf:22:92:6c:ab:67:82:68:ed:
         d7:21:cb:63:bc:93:c4:17:8e:87:19:25:ad:17:54:b4:79:d2:
         a5:93:73:bc:7c:bb:e4:80:0f:8f:cc:aa:0a:d0:e4:93:75:aa:
         6c:cf:49:7d:75:ec:82:28:5c:73:f0:42:bf:9e:a6:13:2e:de:
         6c:ee:80:03:a6:ee:88:36:a0:1b:b2:82:e8:3d:bb:a6:1a:d5:
         11:ae:0a:0b:62:d6:51:36:97:23:17:52:26:ed:f1:c5:b6:21:
         75:39:15:07:e0:42:f1:2a:89:04:77:66:ad:14:04:d2:c7:d4:
         7c:4f:6c:dd:4e:dc:ed:8e:a9:f6:86:17:e7:e1:59:66:bb:d0:
         7a:d0:94:42:eb:af:c1:54:ca:e2:1a:a4:a9:b6:a5:d4:81:ca:
         15:26:fa:6f:b4:df:78:10:04:8c:48:18:bc:28:59:66:9a:b8:
         18:f1:d9:5e:5b:82:ff:fe:11:d7:d4:04:36:30:9f:51:1d:3c:
         c8:64:40:75:7c:d8:35:83:ef:b1:e5:28:76:0a:05:3d:e9:b8:
         1e:70:50:3a:60:e2:a5:01:88:88:9c:04:cc:6a:f2:15:85:d1:
         0c:b7:4a:6d:93:4e:82:ca:29:e9:75:0b:42:e4:3a:47:24:08:
         6d:80:5c:e6:6a:67:2c:b6:13:08:c9:4f:d8:66:53:b9:b6:7f:
         e2:ea:39:95:6f:71:77:96:03:af:b9:e3:cc:e3:a1:b9:f1:01:
         c6:6e:be:fc:97:5c:b2:d1:f1:7b:fb:33:c6:65:ea:e6:18:f9:
         ab:3a:27:1a:2d:20:6b:e6
-----BEGIN CERTIFICATE-----
MIIFRTCCAy2gAwIBAgIQJR9dmIGCFy48QZ4BT7BATDANBgkqhkiG9w0BAQUFADBV
MQswCQYDVQQGEwJDTjEaMBgGA1UEChMRV29TaWduIENBIExpbWl0ZWQxKjAoBgNV
BAMTIUNlcnRpZmljYXRpb24gQXV0aG9yaXR5IG9mIFdvU2lnbjAeFw0wOTA4MDgw
MTAwMDVaFw0yNDA4MDgwMTAwMDVaME8xCzAJBgNVBAYTAkNOMRowGAYDVQQKExFX
b1NpZ24gQ0EgTGltaXRlZDEkMCIGA1UEAxMbV29TaWduIFRpbWUgU3RhbXBpbmcg
U2lnbmVyMIIBIjANBgkqhkiG9w0BAQEFAAOCAQ8AMIIBCgKCAQEApdBouoLL26dt
Vbkxp9r0nGsDVE+iHO8ctZZEH1ZBP2GwA1lLgg7bFcjQzOCHxgl1ioTj7ZfCyJI0
wPFkU2BRNEiQsU+JafUuoCoWVC/AN1j/NVIbUgjPuexaJ1Jag+tosbn4sqkI80+r
Fw8uvU/lEoq/fLfnZTI7g0ECIjokO2qjPK/reUIXVnTIYWPdjC8+7zqjR1IEOwAY
riZx4HoEjXWCLWVOwbjyjN4PYwPUw1JgcoyIzG+W1cd9KdsmBJ6itL9atW7yRg8p
gcXAT6aHjHwhB1QfUPBCXFV8z0QuQT0YjV/ZaOZHkY/P3H2QYP/LSORhXk9zRQ3I
NIkD1f4LwwIDAQABo4IBFTCCAREwDgYDVR0PAQH/BAQDAgbAMBYGA1UdJQEB/wQM
MAoGCCsGAQUFBwMIMAwGA1UdEwEB/wQCMAAwMAYDVR0fBCkwJzAloCOgIYYfaHR0
cDovL2NybHMxLndvc2lnbi5jb20vY2ExLmNybDBnBggrBgEFBQcBAQRbMFkwJwYI
KwYBBQUHMAGGG2h0dHA6Ly9vY3NwMS53b3NpZ24uY29tL2NhMTAuBggrBgEFBQcw
AoYiaHR0cDovL2FpYTEud29zaWduLmNvbS9jYTEtdHNhLmNlcjAdBgNVHQ4EFgQU
324S1QxULloUyt4D3qtO1JgMRrUwHwYDVR0jBBgwFoAU4WbPDtHxs0u3BiAU/ocS
1fb++z4wDQYJKoZIhvcNAQEFBQADggIBAHyYL7vD0q7CKo+ml3ZWhjLEzTZoi+zX
gBoxebBeVrlp67kLMqmDJtx3XXpWskagfRXWbfms+DVzeDYCYCIgHO8Yj35msk/n
cZNaK+bljT1dLidLRssdBPMLjD8TqA3Uzego6CqcVcjj/52pIklu6OeIkjdXgGBE
GCdDWBgEbYbAZUcFV1VQkeZzUO4/EKmPBS/aaBFTbh+tmPN2PoXQV6PP5MEaTGQG
pkSrTh7iS9WkbXH4a8tmE6ZHHyEqoa5MiaR9KHcXT4iNsdFdscSTWr8ikmyrZ4Jo
7dchy2O8k8QXjocZJa0XVLR50qWTc7x8u+SAD4/MqgrQ5JN1qmzPSX117IIoXHPw
Qr+ephMu3mzugAOm7og2oBuygug9u6Ya1RGuCgti1lE2lyMXUibt8cW2IXU5FQfg
QvEqiQR3Zq0UBNLH1HxPbN1O3O2OqfaGF+fhWWa70HrQlELrr8FUyuIapKm2pdSB
yhUm+m+033gQBIxIGLwoWWaauBjx2V5bgv/+EdfUBDYwn1EdPMhkQHV82DWD77Hl
KHYKBT3puB5wUDpg4qUBiIicBMxq8hWF0Qy3Sm2TToLKKel1C0LkOkckCG2AXOZq
Zyy2EwjJT9hmU7m2f+LqOZVvcXeWA6+548zjobnxAcZuvvyXXLLR8Xv7M8Zl6uYY
+as6JxotIGvm
-----END CERTIFICATE-----

Certificate:
    Data:
        Version: 3 (0x2)
        Serial Number:
            3d:78:d7:f9:76:49:60:b2:61:7d:f4:f0:1e:ca:86:2a
    Signature Algorithm: sha256WithRSAEncryption
        Issuer: C=US, O=VeriSign, Inc., OU=VeriSign Trust Network, OU=(c) 2006 VeriSign, Inc. - For authorized use only, CN=VeriSign Class 3 Public Primary Certification Authority - G5
        Validity
            Not Before: Dec 10 00:00:00 2013 GMT
            Not After : Dec  9 23:59:59 2023 GMT
        Subject: C=US, O=Symantec Corporation, OU=Symantec Trust Network, CN=Symantec Class 3 SHA256 Code Signing CA
        Subject Public Key Info:
            Public Key Algorithm: rsaEncryption
                Public-Key: (2048 bit)
                Modulus:
                    00:97:83:1e:00:16:af:2c:b1:d2:08:c4:d7:68:93:
                    51:60:1e:71:f6:e2:47:b4:db:58:4d:23:62:6a:b4:
                    bf:5a:1b:51:f7:a3:0d:18:77:68:bb:d8:36:ab:2f:
                    21:50:da:9e:f3:e7:5f:27:4e:0b:c2:97:c8:09:70:
                    93:a9:da:5c:0d:4e:a4:0d:91:a0:b4:ec:14:ce:91:
                    72:54:2e:ce:a3:db:44:e9:52:1b:3f:41:3c:ca:4a:
                    e4:aa:c0:e8:39:ab:53:cc:21:d0:cc:cf:7f:9b:e6:
                    c2:cc:58:6a:82:15:ee:3d:36:cf:1c:c5:97:07:24:
                    8e:f1:7b:be:31:2d:3d:6e:dc:b5:99:42:9f:4b:61:
                    95:5f:1c:70:ee:17:7d:db:8b:e5:61:89:78:c7:68:
                    1b:af:11:78:1a:98:ae:c4:55:47:53:d9:b3:32:d6:
                    a1:0e:46:40:c5:97:92:8a:d1:53:a7:99:5b:85:35:
                    57:d3:ea:93:62:61:20:0a:c7:30:77:24:11:4d:62:
                    83:b6:ba:7b:68:82:31:ee:65:ca:df:f9:d5:8d:b2:
                    35:dc:8c:2b:6f:6a:72:5c:60:84:9c:f2:0c:94:5e:
                    c0:56:52:00:48:cc:d3:f8:a5:7d:de:2f:d7:13:e4:
                    38:a8:84:d5:46:b8:13:86:c2:1b:9d:ea:5a:38:dd:
                    9b:db
                Exponent: 65537 (0x10001)
        X509v3 extensions:
            Authority Information Access: 
                OCSP - URI:http://s2.symcb.com

            X509v3 Basic Constraints: critical
                CA:TRUE, pathlen:0
            X509v3 Certificate Policies: 
                Policy: 2.16.840.1.113733.1.7.23.3
                  CPS: http://www.symauth.com/cps
                  User Notice:
                    Explicit Text: http://www.symauth.com/rpa

            X509v3 CRL Distribution Points: 

                Full Name:
                  URI:http://s1.symcb.com/pca3-g5.crl

            X509v3 Extended Key Usage: 
                TLS Web Client Authentication, Code Signing
            X509v3 Key Usage: critical
                Certificate Sign, CRL Sign
            X509v3 Subject Alternative Name: 
                DirName:/CN=SymantecPKI-1-567
            X509v3 Subject Key Identifier: 
                96:3B:53:F0:79:33:97:AF:7D:83:EF:2E:2B:CC:CA:B7:86:1E:72:66
            X509v3 Authority Key Identifier: 
                keyid:7F:D3:65:A7:C2:DD:EC:BB:F0:30:09:F3:43:39:FA:02:AF:33:31:33

    Signature Algorithm: sha256WithRSAEncryption
         13:85:1a:1e:69:a9:37:f7:a0:bd:a4:af:7e:1d:61:53:fe:9d:
         8c:5e:0c:a6:75:1e:78:17:23:dd:fd:ec:1a:03:55:39:fb:71:
         95:c7:65:5a:a7:8e:30:d2:44:5a:61:db:70:6f:da:21:05:c2:
         2e:73:ba:49:f1:d1:93:fe:5d:c9:cd:5e:03:e0:89:9e:3f:74:
         1e:d7:f7:38:8b:a9:d6:cf:bb:35:2f:33:58:a8:92:56:d1:c8:
         4d:3b:82:e6:79:84:16:fc:28:b0:b1:47:f3:1d:a2:3e:ee:87:
         d9:a6:7f:a4:56:a5:3f:ad:84:2e:29:de:7c:bc:a8:aa:a3:3d:
         04:01:ea:ba:93:a2:0e:50:22:29:17:4c:87:e4:3a:11:5f:d6:
         a4:25:89:9b:05:6b:2f:b4:c9:01:4c:27:7b:0b:ac:19:05:22:
         a0:60:15:3f:da:c9:fb:4d:4c:8f:fb:72:67:77:fd:27:94:c7:
         ba:35:0e:88:49:fe:8d:fd:28:af:4a:12:bd:0d:b3:97:05:de:
         44:0c:15:fa:36:2b:03:dc:c1:50:01:f1:a1:11:5d:14:e5:e2:
         bd:27:4b:54:be:2b:84:5e:0f:a6:c3:74:05:0a:ef:97:c3:89:
         22:b1:1f:77:f3:bd:cd:43:d4:f1:4c:a9:3f:b5:8b:84:af:64:
         f2:d0:14:21
-----BEGIN CERTIFICATE-----
MIIFWTCCBEGgAwIBAgIQPXjX+XZJYLJhffTwHsqGKjANBgkqhkiG9w0BAQsFADCB
yjELMAkGA1UEBhMCVVMxFzAVBgNVBAoTDlZlcmlTaWduLCBJbmMuMR8wHQYDVQQL
ExZWZXJpU2lnbiBUcnVzdCBOZXR3b3JrMTowOAYDVQQLEzEoYykgMjAwNiBWZXJp
U2lnbiwgSW5jLiAtIEZvciBhdXRob3JpemVkIHVzZSBvbmx5MUUwQwYDVQQDEzxW
ZXJpU2lnbiBDbGFzcyAzIFB1YmxpYyBQcmltYXJ5IENlcnRpZmljYXRpb24gQXV0
aG9yaXR5IC0gRzUwHhcNMTMxMjEwMDAwMDAwWhcNMjMxMjA5MjM1OTU5WjB/MQsw
CQYDVQQGEwJVUzEdMBsGA1UEChMUU3ltYW50ZWMgQ29ycG9yYXRpb24xHzAdBgNV
BAsTFlN5bWFudGVjIFRydXN0IE5ldHdvcmsxMDAuBgNVBAMTJ1N5bWFudGVjIENs
YXNzIDMgU0hBMjU2IENvZGUgU2lnbmluZyBDQTCCASIwDQYJKoZIhvcNAQEBBQAD
ggEPADCCAQoCggEBAJeDHgAWryyx0gjE12iTUWAecfbiR7TbWE0jYmq0v1obUfej
DRh3aLvYNqsvIVDanvPnXydOC8KXyAlwk6naXA1OpA2RoLTsFM6RclQuzqPbROlS
Gz9BPMpK5KrA6DmrU8wh0MzPf5vmwsxYaoIV7j02zxzFlwckjvF7vjEtPW7ctZlC
n0thlV8ccO4XfduL5WGJeMdoG68ReBqYrsRVR1PZszLWoQ5GQMWXkorRU6eZW4U1
V9Pqk2JhIArHMHckEU1ig7a6e2iCMe5lyt/51Y2yNdyMK29qclxghJzyDJRewFZS
AEjM0/ilfd4v1xPkOKiE1Ua4E4bCG53qWjjdm9sCAwEAAaOCAYMwggF/MC8GCCsG
AQUFBwEBBCMwITAfBggrBgEFBQcwAYYTaHR0cDovL3MyLnN5bWNiLmNvbTASBgNV
HRMBAf8ECDAGAQH/AgEAMGwGA1UdIARlMGMwYQYLYIZIAYb4RQEHFwMwUjAmBggr
BgEFBQcCARYaaHR0cDovL3d3dy5zeW1hdXRoLmNvbS9jcHMwKAYIKwYBBQUHAgIw
HBoaaHR0cDovL3d3dy5zeW1hdXRoLmNvbS9ycGEwMAYDVR0fBCkwJzAloCOgIYYf
aHR0cDovL3MxLnN5bWNiLmNvbS9wY2EzLWc1LmNybDAdBgNVHSUEFjAUBggrBgEF
BQcDAgYIKwYBBQUHAwMwDgYDVR0PAQH/BAQDAgEGMCkGA1UdEQQiMCCkHjAcMRow
GAYDVQQDExFTeW1hbnRlY1BLSS0xLTU2NzAdBgNVHQ4EFgQUljtT8Hkzl699g+8u
K8zKt4YecmYwHwYDVR0jBBgwFoAUf9Nlp8Ld7LvwMAnzQzn6Aq8zMTMwDQYJKoZI
hvcNAQELBQADggEBABOFGh5pqTf3oL2kr34dYVP+nYxeDKZ1HngXI9397BoDVTn7
cZXHZVqnjjDSRFph23Bv2iEFwi5zuknx0ZP+XcnNXgPgiZ4/dB7X9ziLqdbPuzUv
M1ioklbRyE07guZ5hBb8KLCxR/Mdoj7uh9mmf6RWpT+thC4p3ny8qKqjPQQB6rqT
og5QIikXTIfkOhFf1qQliZsFay+0yQFMJ3sLrBkFIqBgFT/ayftNTI/7cmd3/SeU
x7o1DohJ/o39KK9KEr0Ns5cF3kQMFfo2KwPcwVAB8aERXRTl4r0nS1S+K4ReD6bD
dAUK75fDiSKxH3fzvc1D1PFMqT+1i4SvZPLQFCE=
-----END CERTIFICATE-----

