Certificate:
    Data:
        Version: 3 (0x2)
        Serial Number:
            7e:93:eb:fb:7c:c6:4e:59:ea:4b:9a:77:d4:06:fc:3b
    Signature Algorithm: sha1WithRSAEncryption
        Issuer: C=ZA, ST=Western Cape, L=Durbanville, O=Thawte, OU=Thawte Certification, CN=Thawte Timestamping CA
        Validity
            Not Before: Dec 21 00:00:00 2012 GMT
            Not After : Dec 30 23:59:59 2020 GMT
        Subject: C=US, O=Symantec Corporation, CN=Symantec Time Stamping Services CA - G2
        Subject Public Key Info:
            Public Key Algorithm: rsaEncryption
                Public-Key: (2048 bit)
                Modulus:
                    00:b1:ac:b3:49:54:4b:97:1c:12:0a:d8:25:79:91:
                    22:57:2a:6f:dc:b8:26:c4:43:73:6b:c2:bf:2e:50:
                    5a:fb:14:c2:76:8e:43:01:25:43:b4:a1:e2:45:f4:
                    e8:b7:7b:c3:74:cc:22:d7:b4:94:00:02:f7:4d:ed:
                    bf:b4:b7:44:24:6b:cd:5f:45:3b:d1:44:ce:43:12:
                    73:17:82:8b:69:b4:2b:cb:99:1e:ac:72:1b:26:4d:
                    71:1f:b1:31:dd:fb:51:61:02:53:a6:aa:f5:49:2c:
                    05:78:45:a5:2f:89:ce:e7:99:e7:fe:8c:e2:57:3f:
                    3d:c6:92:dc:4a:f8:7b:33:e4:79:0a:fb:f0:75:88:
                    41:9c:ff:c5:03:51:99:aa:d7:6c:9f:93:69:87:65:
                    29:83:85:c2:60:14:c4:c8:c9:3b:14:da:c0:81:f0:
                    1f:0d:74:de:92:22:ab:ca:f7:fb:74:7c:27:e6:f7:
                    4a:1b:7f:a7:c3:9e:2d:ae:8a:ea:a6:e6:aa:27:16:
                    7d:61:f7:98:71:11:bc:e2:50:a1:4b:e5:5d:fa:e5:
                    0e:a7:2c:9f:aa:65:20:d3:d8:96:e8:c8:7c:a5:4e:
                    48:44:ff:19:e2:44:07:92:0b:d7:68:84:80:5d:6a:
                    78:64:45:cd:60:46:7e:54:c1:13:7c:c5:79:f1:c9:
                    c1:71
                Exponent: 65537 (0x10001)
        X509v3 extensions:
            X509v3 Subject Key Identifier: 
                5F:9A:F5:6E:5C:CC:CC:74:9A:D4:DD:7D:EF:3F:DB:EC:4C:80:2E:DD
            Authority Information Access: 
                OCSP - URI:http://ocsp.thawte.com

            X509v3 Basic Constraints: critical
                CA:TRUE, pathlen:0
            X509v3 CRL Distribution Points: 

                Full Name:
                  URI:http://crl.thawte.com/ThawteTimestampingCA.crl

            X509v3 Extended Key Usage: 
                Time Stamping
            X509v3 Key Usage: critical
                Certificate Sign, CRL Sign
            X509v3 Subject Alternative Name: 
                DirName:/CN=TimeStamp-2048-1
    Signature Algorithm: sha1WithRSAEncryption
         03:09:9b:8f:79:ef:7f:59:30:aa:ef:68:b5:fa:e3:09:1d:bb:
         4f:82:06:5d:37:5f:a6:52:9f:16:8d:ea:1c:92:09:44:6e:f5:
         6d:eb:58:7c:30:e8:f9:69:8d:23:73:0b:12:6f:47:a9:ae:39:
         11:f8:2a:b1:9b:b0:1a:c3:8e:eb:59:96:00:ad:ce:0c:4d:b2:
         d0:31:a6:08:5c:2a:7a:fc:e2:7a:1d:57:4c:a8:65:18:e9:79:
         40:62:25:96:6e:c7:c7:37:6a:83:21:08:8e:41:ea:dd:d9:57:
         3f:1d:77:49:87:2a:16:06:5e:a6:38:6a:22:12:a3:51:19:83:
         7e:b6
-----BEGIN CERTIFICATE-----
MIID7jCCA1egAwIBAgIQfpPr+3zGTlnqS5p31Ab8OzANBgkqhkiG9w0BAQUFADCB
izELMAkGA1UEBhMCWkExFTATBgNVBAgTDFdlc3Rlcm4gQ2FwZTEUMBIGA1UEBxML
RHVyYmFudmlsbGUxDzANBgNVBAoTBlRoYXd0ZTEdMBsGA1UECxMUVGhhd3RlIENl
cnRpZmljYXRpb24xHzAdBgNVBAMTFlRoYXd0ZSBUaW1lc3RhbXBpbmcgQ0EwHhcN
MTIxMjIxMDAwMDAwWhcNMjAxMjMwMjM1OTU5WjBeMQswCQYDVQQGEwJVUzEdMBsG
A1UEChMUU3ltYW50ZWMgQ29ycG9yYXRpb24xMDAuBgNVBAMTJ1N5bWFudGVjIFRp
bWUgU3RhbXBpbmcgU2VydmljZXMgQ0EgLSBHMjCCASIwDQYJKoZIhvcNAQEBBQAD
ggEPADCCAQoCggEBALGss0lUS5ccEgrYJXmRIlcqb9y4JsRDc2vCvy5QWvsUwnaO
QwElQ7Sh4kX06Ld7w3TMIte0lAAC903tv7S3RCRrzV9FO9FEzkMScxeCi2m0K8uZ
HqxyGyZNcR+xMd37UWECU6aq9UksBXhFpS+JzueZ5/6M4lc/PcaS3Er4ezPkeQr7
8HWIQZz/xQNRmarXbJ+TaYdlKYOFwmAUxMjJOxTawIHwHw103pIiq8r3+3R8J+b3
Sht/p8OeLa6K6qbmqicWfWH3mHERvOJQoUvlXfrlDqcsn6plINPYlujIfKVOSET/
GeJEB5IL12iEgF1qeGRFzWBGflTBE3zFefHJwXECAwEAAaOB+jCB9zAdBgNVHQ4E
FgQUX5r1blzMzHSa1N197z/b7EyALt0wMgYIKwYBBQUHAQEEJjAkMCIGCCsGAQUF
BzABhhZodHRwOi8vb2NzcC50aGF3dGUuY29tMBIGA1UdEwEB/wQIMAYBAf8CAQAw
PwYDVR0fBDgwNjA0oDKgMIYuaHR0cDovL2NybC50aGF3dGUuY29tL1RoYXd0ZVRp
bWVzdGFtcGluZ0NBLmNybDATBgNVHSUEDDAKBggrBgEFBQcDCDAOBgNVHQ8BAf8E
BAMCAQYwKAYDVR0RBCEwH6QdMBsxGTAXBgNVBAMTEFRpbWVTdGFtcC0yMDQ4LTEw
DQYJKoZIhvcNAQEFBQADgYEAAwmbj3nvf1kwqu9otfrjCR27T4IGXTdfplKfFo3q
HJIJRG71betYfDDo+WmNI3MLEm9Hqa45EfgqsZuwGsOO61mWAK3ODE2y0DGmCFwq
evzieh1XTKhlGOl5QGIllm7HxzdqgyEIjkHq3dlXPx13SYcqFgZepjhqIhKjURmD
frY=
-----END CERTIFICATE-----

Certificate:
    Data:
        Version: 3 (0x2)
        Serial Number:
            0e:cf:f4:38:c8:fe:bf:35:6e:04:d8:6a:98:1b:1a:50
    Signature Algorithm: sha1WithRSAEncryption
        Issuer: C=US, O=Symantec Corporation, CN=Symantec Time Stamping Services CA - G2
        Validity
            Not Before: Oct 18 00:00:00 2012 GMT
            Not After : Dec 29 23:59:59 2020 GMT
        Subject: C=US, O=Symantec Corporation, CN=Symantec Time Stamping Services Signer - G4
        Subject Public Key Info:
            Public Key Algorithm: rsaEncryption
                Public-Key: (2048 bit)
                Modulus:
                    00:a2:63:0b:39:44:b8:bb:23:a7:44:49:bb:0e:ff:
                    a1:f0:61:0a:53:93:b0:98:db:ad:2c:0f:4a:c5:6e:
                    ff:86:3c:53:55:0f:15:ce:04:3f:2b:fd:a9:96:96:
                    d9:be:61:79:0b:5b:c9:4c:86:76:e5:e0:43:4b:22:
                    95:ee:c2:2b:43:c1:9f:d8:68:b4:8e:40:4f:ee:85:
                    38:b9:11:c5:23:f2:64:58:f0:15:32:6f:4e:57:a1:
                    ae:88:a4:02:d7:2a:1e:cd:4b:e1:dd:63:d5:17:89:
                    32:5b:b0:5e:99:5a:a8:9d:28:50:0e:17:ee:96:db:
                    61:3b:45:51:1d:cf:12:56:0b:92:47:fc:ab:ae:f6:
                    66:3d:47:ac:70:72:e7:92:e7:5f:cd:10:b9:c4:83:
                    64:94:19:bd:25:80:e1:e8:d2:22:a5:d0:ba:02:7a:
                    a1:77:93:5b:65:c3:ee:17:74:bc:41:86:2a:dc:08:
                    4c:8c:92:8c:91:2d:9e:77:44:1f:68:d6:a8:74:77:
                    db:0e:5b:32:8b:56:8b:33:bd:d9:63:c8:49:9d:3a:
                    c5:c5:ea:33:0b:d2:f1:a3:1b:f4:8b:be:d9:b3:57:
                    8b:3b:de:04:a7:7a:22:b2:24:ae:2e:c7:70:c5:be:
                    4e:83:26:08:fb:0b:bd:a9:4f:99:08:e1:10:28:72:
                    aa:cd
                Exponent: 65537 (0x10001)
        X509v3 extensions:
            X509v3 Basic Constraints: critical
                CA:FALSE
            X509v3 Extended Key Usage: critical
                Time Stamping
            X509v3 Key Usage: critical
                Digital Signature
            Authority Information Access: 
                OCSP - URI:http://ts-ocsp.ws.symantec.com
                CA Issuers - URI:http://ts-aia.ws.symantec.com/tss-ca-g2.cer

            X509v3 CRL Distribution Points: 

                Full Name:
                  URI:http://ts-crl.ws.symantec.com/tss-ca-g2.crl

            X509v3 Subject Alternative Name: 
                DirName:/CN=TimeStamp-2048-2
            X509v3 Subject Key Identifier: 
                46:C6:69:A3:0E:4A:14:1E:D5:4C:DA:52:63:17:3F:5E:36:BC:0D:E6
            X509v3 Authority Key Identifier: 
                keyid:5F:9A:F5:6E:5C:CC:CC:74:9A:D4:DD:7D:EF:3F:DB:EC:4C:80:2E:DD

    Signature Algorithm: sha1WithRSAEncryption
         78:3b:b4:91:2a:00:4c:f0:8f:62:30:37:78:a3:84:27:07:6f:
         18:b2:de:25:dc:a0:d4:94:03:aa:86:4e:25:9f:9a:40:03:1c:
         dd:ce:e3:79:cb:21:68:06:da:b6:32:b4:6d:bf:f4:2c:26:63:
         33:e4:49:64:6d:0d:e6:c3:67:0e:f7:05:a4:35:6c:7c:89:16:
         c6:e9:b2:df:b2:e9:dd:20:c6:71:0f:cd:95:74:dc:b6:5c:de:
         bd:37:1f:43:78:e6:78:b5:cd:28:04:20:a3:aa:f1:4b:c4:88:
         29:91:0e:80:d1:11:fc:dd:5c:76:6e:4f:5e:0e:45:46:41:6e:
         0d:b0:ea:38:9a:b1:3a:da:09:71:10:fc:1c:79:b4:80:7b:ac:
         69:f4:fd:9c:b6:0c:16:2b:f1:7f:5b:09:3d:9b:5b:e2:16:ca:
         13:81:6d:00:2e:38:0d:a8:29:8f:2c:e1:b2:f4:5a:a9:01:af:
         15:9c:2c:2f:49:1b:db:22:bb:c3:fe:78:94:51:c3:86:b1:82:
         88:5d:f0:3d:b4:51:a1:79:33:2b:2e:7b:b9:dc:20:09:13:71:
         eb:6a:19:5b:cf:e8:a5:30:57:2c:89:49:3f:b9:cf:7f:c9:bf:
         3e:22:68:63:53:9a:bd:69:74:ac:c5:1d:3c:7f:92:e0:c3:bc:
         1c:d8:04:75
-----BEGIN CERTIFICATE-----
MIIEozCCA4ugAwIBAgIQDs/0OMj+vzVuBNhqmBsaUDANBgkqhkiG9w0BAQUFADBe
MQswCQYDVQQGEwJVUzEdMBsGA1UEChMUU3ltYW50ZWMgQ29ycG9yYXRpb24xMDAu
BgNVBAMTJ1N5bWFudGVjIFRpbWUgU3RhbXBpbmcgU2VydmljZXMgQ0EgLSBHMjAe
Fw0xMjEwMTgwMDAwMDBaFw0yMDEyMjkyMzU5NTlaMGIxCzAJBgNVBAYTAlVTMR0w
GwYDVQQKExRTeW1hbnRlYyBDb3Jwb3JhdGlvbjE0MDIGA1UEAxMrU3ltYW50ZWMg
VGltZSBTdGFtcGluZyBTZXJ2aWNlcyBTaWduZXIgLSBHNDCCASIwDQYJKoZIhvcN
AQEBBQADggEPADCCAQoCggEBAKJjCzlEuLsjp0RJuw7/ofBhClOTsJjbrSwPSsVu
/4Y8U1UPFc4EPyv9qZaW2b5heQtbyUyGduXgQ0sile7CK0PBn9hotI5AT+6FOLkR
xSPyZFjwFTJvTlehroikAtcqHs1L4d1j1ReJMluwXplaqJ0oUA4X7pbbYTtFUR3P
ElYLkkf8q672Zj1HrHBy55LnX80QucSDZJQZvSWA4ejSIqXQugJ6oXeTW2XD7hd0
vEGGKtwITIySjJEtnndEH2jWqHR32w5bMotWizO92WPISZ06xcXqMwvS8aMb9Iu+
2bNXizveBKd6IrIkri7HcMW+ToMmCPsLvalPmQjhEChyqs0CAwEAAaOCAVcwggFT
MAwGA1UdEwEB/wQCMAAwFgYDVR0lAQH/BAwwCgYIKwYBBQUHAwgwDgYDVR0PAQH/
BAQDAgeAMHMGCCsGAQUFBwEBBGcwZTAqBggrBgEFBQcwAYYeaHR0cDovL3RzLW9j
c3Aud3Muc3ltYW50ZWMuY29tMDcGCCsGAQUFBzAChitodHRwOi8vdHMtYWlhLndz
LnN5bWFudGVjLmNvbS90c3MtY2EtZzIuY2VyMDwGA1UdHwQ1MDMwMaAvoC2GK2h0
dHA6Ly90cy1jcmwud3Muc3ltYW50ZWMuY29tL3Rzcy1jYS1nMi5jcmwwKAYDVR0R
BCEwH6QdMBsxGTAXBgNVBAMTEFRpbWVTdGFtcC0yMDQ4LTIwHQYDVR0OBBYEFEbG
aaMOShQe1UzaUmMXP142vA3mMB8GA1UdIwQYMBaAFF+a9W5czMx0mtTdfe8/2+xM
gC7dMA0GCSqGSIb3DQEBBQUAA4IBAQB4O7SRKgBM8I9iMDd4o4QnB28Yst4l3KDU
lAOqhk4ln5pAAxzdzuN5yyFoBtq2MrRtv/QsJmMz5ElkbQ3mw2cO9wWkNWx8iRbG
6bLfsundIMZxD82VdNy2XN69Nx9DeOZ4tc0oBCCjqvFLxIgpkQ6A0RH83Vx2bk9e
DkVGQW4NsOo4mrE62glxEPwcebSAe6xp9P2ctgwWK/F/Wwk9m1viFsoTgW0ALjgN
qCmPLOGy9FqpAa8VnCwvSRvbIrvD/niUUcOGsYKIXfA9tFGheTMrLnu53CAJE3Hr
ahlbz+ilMFcsiUk/uc9/yb8+ImhjU5q9aXSsxR08f5Lgw7wc2AR1
-----END CERTIFICATE-----

Certificate:
    Data:
        Version: 3 (0x2)
        Serial Number:
            2a:62:6a:fe:37:b8:8e:b7:96:b9:d5:5f:96:17:3b:24
    Signature Algorithm: sha256WithRSAEncryption
        Issuer: C=US, O=Symantec Corporation, OU=Symantec Trust Network, CN=Symantec Class 3 SHA256 Code Signing CA
        Validity
            Not Before: Jun  9 00:00:00 2016 GMT
            Not After : Jun  9 23:59:59 2019 GMT
        Subject: C=IN, ST=Maharashtra, L=Mumbai, O=Continuum Managed Solutions Pvt. Ltd., OU=Continuum Managed Solutions Pvt. Ltd., CN=Continuum Managed Solutions Pvt. Ltd.
        Subject Public Key Info:
            Public Key Algorithm: rsaEncryption
                Public-Key: (2048 bit)
                Modulus:
                    00:b0:3f:95:a3:87:38:c4:27:04:61:60:e3:6b:45:
                    0b:85:8d:d8:08:f3:da:60:64:e5:ac:ee:47:44:b3:
                    40:25:ec:cb:11:65:36:fa:2d:d1:46:63:0b:7c:27:
                    64:ef:6b:d6:93:df:6a:1a:56:e8:8d:da:cf:ef:8e:
                    78:84:29:cc:c5:a9:35:f6:56:da:8d:34:5e:20:8c:
                    ae:ad:22:8d:2d:c1:7c:e1:b0:bc:e7:2c:bf:aa:bc:
                    d1:ea:b6:94:c3:1c:09:75:22:c4:40:e7:45:8c:1d:
                    f7:2c:ba:3b:6b:99:ee:5c:33:35:6c:96:73:e4:9c:
                    b6:c2:a1:a4:d5:4e:b9:ee:9f:10:fd:a9:a3:85:3a:
                    15:80:8c:66:17:cd:ee:64:69:18:eb:a9:06:51:4e:
                    46:e3:3a:89:26:6b:cb:61:be:f3:5e:cf:15:63:cb:
                    1a:7e:6f:6b:7e:1e:2e:df:3f:5e:b7:15:83:f6:55:
                    f7:d0:6a:1b:ab:1a:80:32:52:44:04:41:9e:b4:a1:
                    57:9f:a0:e4:b9:aa:ba:60:f4:a1:d7:2c:4b:fa:d5:
                    f7:7e:8f:5e:aa:ec:b0:67:46:c5:aa:bb:c2:86:6a:
                    c5:2b:f6:70:d2:eb:9e:d3:3e:df:13:dd:3f:3a:68:
                    de:5c:c5:91:fb:89:e5:8f:c7:e1:c4:f9:ae:61:be:
                    1d:05
                Exponent: 65537 (0x10001)
        X509v3 extensions:
            X509v3 Basic Constraints: 
                CA:FALSE
            X509v3 Key Usage: critical
                Digital Signature
            X509v3 CRL Distribution Points: 

                Full Name:
                  URI:http://sv.symcb.com/sv.crl

            X509v3 Certificate Policies: 
                Policy: 2.23.140.1.4.1
                  CPS: https://d.symcb.com/cps
                  User Notice:
                    Explicit Text: https://d.symcb.com/rpa

            X509v3 Extended Key Usage: 
                Code Signing
            Authority Information Access: 
                OCSP - URI:http://sv.symcd.com
                CA Issuers - URI:http://sv.symcb.com/sv.crt

            X509v3 Authority Key Identifier: 
                keyid:96:3B:53:F0:79:33:97:AF:7D:83:EF:2E:2B:CC:CA:B7:86:1E:72:66

            X509v3 Subject Key Identifier: 
                1D:CA:EE:A7:5F:CE:88:74:BC:6B:1F:1B:BF:FF:D6:F8:72:8A:B2:5E
    Signature Algorithm: sha256WithRSAEncryption
         5a:8f:d4:5f:49:f4:a7:84:1c:8c:43:0a:50:99:3c:b5:49:7e:
         4b:06:7d:7e:17:a9:d9:e8:a4:f4:38:ce:3c:68:59:e7:82:88:
         ef:ae:8a:ac:ef:03:92:c3:64:9f:b9:bd:5a:4b:36:ed:0d:1c:
         20:f9:70:0d:db:39:5d:80:9b:af:13:d3:08:ca:0e:a9:68:59:
         38:41:1d:e4:2e:79:31:e3:3d:51:c6:a3:6b:f8:a9:4a:e1:bf:
         37:62:61:ca:72:40:fe:5f:f4:a9:79:56:2a:e7:1e:d0:67:56:
         18:fd:b5:5e:50:d3:25:40:6d:88:68:dc:2d:98:7a:f8:95:af:
         e7:65:08:b5:bc:51:cd:d8:63:f9:7d:7d:dd:a0:e5:df:c7:5e:
         8c:70:9d:a7:9d:6f:b6:65:65:a3:30:72:e9:f4:92:8e:c5:44:
         1a:85:64:10:74:4a:f0:87:07:6b:54:d8:7d:49:a5:65:e4:43:
         e0:fe:03:b3:96:13:ff:51:84:07:1d:bb:9a:fa:9c:59:ce:05:
         17:a6:dc:7a:26:c6:8f:db:05:bc:97:00:46:c7:c2:4f:a0:e7:
         73:dd:d4:8a:48:fd:84:a2:dc:84:70:f5:1d:be:f7:e4:69:c6:
         ed:dd:b0:e7:1e:ba:3e:6c:a5:af:aa:d9:46:1c:19:2a:fb:96:
         53:27:e6:7b
-----BEGIN CERTIFICATE-----
MIIFLTCCBBWgAwIBAgIQKmJq/je4jreWudVflhc7JDANBgkqhkiG9w0BAQsFADB/
MQswCQYDVQQGEwJVUzEdMBsGA1UEChMUU3ltYW50ZWMgQ29ycG9yYXRpb24xHzAd
BgNVBAsTFlN5bWFudGVjIFRydXN0IE5ldHdvcmsxMDAuBgNVBAMTJ1N5bWFudGVj
IENsYXNzIDMgU0hBMjU2IENvZGUgU2lnbmluZyBDQTAeFw0xNjA2MDkwMDAwMDBa
Fw0xOTA2MDkyMzU5NTlaMIHEMQswCQYDVQQGEwJJTjEUMBIGA1UECAwLTWFoYXJh
c2h0cmExDzANBgNVBAcMBk11bWJhaTEuMCwGA1UECgwlQ29udGludXVtIE1hbmFn
ZWQgU29sdXRpb25zIFB2dC4gTHRkLjEuMCwGA1UECwwlQ29udGludXVtIE1hbmFn
ZWQgU29sdXRpb25zIFB2dC4gTHRkLjEuMCwGA1UEAwwlQ29udGludXVtIE1hbmFn
ZWQgU29sdXRpb25zIFB2dC4gTHRkLjCCASIwDQYJKoZIhvcNAQEBBQADggEPADCC
AQoCggEBALA/laOHOMQnBGFg42tFC4WN2Ajz2mBk5azuR0SzQCXsyxFlNvot0UZj
C3wnZO9r1pPfahpW6I3az++OeIQpzMWpNfZW2o00XiCMrq0ijS3BfOGwvOcsv6q8
0eq2lMMcCXUixEDnRYwd9yy6O2uZ7lwzNWyWc+SctsKhpNVOue6fEP2po4U6FYCM
ZhfN7mRpGOupBlFORuM6iSZry2G+817PFWPLGn5va34eLt8/XrcVg/ZV99BqG6sa
gDJSRARBnrShV5+g5LmqumD0odcsS/rV936PXqrssGdGxaq7woZqxSv2cNLrntM+
3xPdPzpo3lzFkfuJ5Y/H4cT5rmG+HQUCAwEAAaOCAV0wggFZMAkGA1UdEwQCMAAw
DgYDVR0PAQH/BAQDAgeAMCsGA1UdHwQkMCIwIKAeoByGGmh0dHA6Ly9zdi5zeW1j
Yi5jb20vc3YuY3JsMGEGA1UdIARaMFgwVgYGZ4EMAQQBMEwwIwYIKwYBBQUHAgEW
F2h0dHBzOi8vZC5zeW1jYi5jb20vY3BzMCUGCCsGAQUFBwICMBkMF2h0dHBzOi8v
ZC5zeW1jYi5jb20vcnBhMBMGA1UdJQQMMAoGCCsGAQUFBwMDMFcGCCsGAQUFBwEB
BEswSTAfBggrBgEFBQcwAYYTaHR0cDovL3N2LnN5bWNkLmNvbTAmBggrBgEFBQcw
AoYaaHR0cDovL3N2LnN5bWNiLmNvbS9zdi5jcnQwHwYDVR0jBBgwFoAUljtT8Hkz
l699g+8uK8zKt4YecmYwHQYDVR0OBBYEFB3K7qdfzoh0vGsfG7//1vhyirJeMA0G
CSqGSIb3DQEBCwUAA4IBAQBaj9RfSfSnhByMQwpQmTy1SX5LBn1+F6nZ6KT0OM48
aFnngojvroqs7wOSw2Sfub1aSzbtDRwg+XAN2zldgJuvE9MIyg6paFk4QR3kLnkx
4z1RxqNr+KlK4b83YmHKckD+X/SpeVYq5x7QZ1YY/bVeUNMlQG2IaNwtmHr4la/n
ZQi1vFHN2GP5fX3doOXfx16McJ2nnW+2ZWWjMHLp9JKOxUQahWQQdErwhwdrVNh9
SaVl5EPg/gOzlhP/UYQHHbua+pxZzgUXptx6JsaP2wW8lwBGx8JPoOdz3dSKSP2E
otyEcPUdvvfkacbt3bDnHro+bKWvqtlGHBkq+5ZTJ+Z7
-----END CERTIFICATE-----

Certificate:
    Data:
        Version: 3 (0x2)
        Serial Number:
            3d:78:d7:f9:76:49:60:b2:61:7d:f4:f0:1e:ca:86:2a
    Signature Algorithm: sha256WithRSAEncryption
        Issuer: C=US, O=VeriSign, Inc., OU=VeriSign Trust Network, OU=(c) 2006 VeriSign, Inc. - For authorized use only, CN=VeriSign Class 3 Public Primary Certification Authority - G5
        Validity
            Not Before: Dec 10 00:00:00 2013 GMT
            Not After : Dec  9 23:59:59 2023 GMT
        Subject: C=US, O=Symantec Corporation, OU=Symantec Trust Network, CN=Symantec Class 3 SHA256 Code Signing CA
        Subject Public Key Info:
            Public Key Algorithm: rsaEncryption
                Public-Key: (2048 bit)
                Modulus:
                    00:97:83:1e:00:16:af:2c:b1:d2:08:c4:d7:68:93:
                    51:60:1e:71:f6:e2:47:b4:db:58:4d:23:62:6a:b4:
                    bf:5a:1b:51:f7:a3:0d:18:77:68:bb:d8:36:ab:2f:
                    21:50:da:9e:f3:e7:5f:27:4e:0b:c2:97:c8:09:70:
                    93:a9:da:5c:0d:4e:a4:0d:91:a0:b4:ec:14:ce:91:
                    72:54:2e:ce:a3:db:44:e9:52:1b:3f:41:3c:ca:4a:
                    e4:aa:c0:e8:39:ab:53:cc:21:d0:cc:cf:7f:9b:e6:
                    c2:cc:58:6a:82:15:ee:3d:36:cf:1c:c5:97:07:24:
                    8e:f1:7b:be:31:2d:3d:6e:dc:b5:99:42:9f:4b:61:
                    95:5f:1c:70:ee:17:7d:db:8b:e5:61:89:78:c7:68:
                    1b:af:11:78:1a:98:ae:c4:55:47:53:d9:b3:32:d6:
                    a1:0e:46:40:c5:97:92:8a:d1:53:a7:99:5b:85:35:
                    57:d3:ea:93:62:61:20:0a:c7:30:77:24:11:4d:62:
                    83:b6:ba:7b:68:82:31:ee:65:ca:df:f9:d5:8d:b2:
                    35:dc:8c:2b:6f:6a:72:5c:60:84:9c:f2:0c:94:5e:
                    c0:56:52:00:48:cc:d3:f8:a5:7d:de:2f:d7:13:e4:
                    38:a8:84:d5:46:b8:13:86:c2:1b:9d:ea:5a:38:dd:
                    9b:db
                Exponent: 65537 (0x10001)
        X509v3 extensions:
            Authority Information Access: 
                OCSP - URI:http://s2.symcb.com

            X509v3 Basic Constraints: critical
                CA:TRUE, pathlen:0
            X509v3 Certificate Policies: 
                Policy: 2.16.840.1.113733.1.7.23.3
                  CPS: http://www.symauth.com/cps
                  User Notice:
                    Explicit Text: http://www.symauth.com/rpa

            X509v3 CRL Distribution Points: 

                Full Name:
                  URI:http://s1.symcb.com/pca3-g5.crl

            X509v3 Extended Key Usage: 
                TLS Web Client Authentication, Code Signing
            X509v3 Key Usage: critical
                Certificate Sign, CRL Sign
            X509v3 Subject Alternative Name: 
                DirName:/CN=SymantecPKI-1-567
            X509v3 Subject Key Identifier: 
                96:3B:53:F0:79:33:97:AF:7D:83:EF:2E:2B:CC:CA:B7:86:1E:72:66
            X509v3 Authority Key Identifier: 
                keyid:7F:D3:65:A7:C2:DD:EC:BB:F0:30:09:F3:43:39:FA:02:AF:33:31:33

    Signature Algorithm: sha256WithRSAEncryption
         13:85:1a:1e:69:a9:37:f7:a0:bd:a4:af:7e:1d:61:53:fe:9d:
         8c:5e:0c:a6:75:1e:78:17:23:dd:fd:ec:1a:03:55:39:fb:71:
         95:c7:65:5a:a7:8e:30:d2:44:5a:61:db:70:6f:da:21:05:c2:
         2e:73:ba:49:f1:d1:93:fe:5d:c9:cd:5e:03:e0:89:9e:3f:74:
         1e:d7:f7:38:8b:a9:d6:cf:bb:35:2f:33:58:a8:92:56:d1:c8:
         4d:3b:82:e6:79:84:16:fc:28:b0:b1:47:f3:1d:a2:3e:ee:87:
         d9:a6:7f:a4:56:a5:3f:ad:84:2e:29:de:7c:bc:a8:aa:a3:3d:
         04:01:ea:ba:93:a2:0e:50:22:29:17:4c:87:e4:3a:11:5f:d6:
         a4:25:89:9b:05:6b:2f:b4:c9:01:4c:27:7b:0b:ac:19:05:22:
         a0:60:15:3f:da:c9:fb:4d:4c:8f:fb:72:67:77:fd:27:94:c7:
         ba:35:0e:88:49:fe:8d:fd:28:af:4a:12:bd:0d:b3:97:05:de:
         44:0c:15:fa:36:2b:03:dc:c1:50:01:f1:a1:11:5d:14:e5:e2:
         bd:27:4b:54:be:2b:84:5e:0f:a6:c3:74:05:0a:ef:97:c3:89:
         22:b1:1f:77:f3:bd:cd:43:d4:f1:4c:a9:3f:b5:8b:84:af:64:
         f2:d0:14:21
-----BEGIN CERTIFICATE-----
MIIFWTCCBEGgAwIBAgIQPXjX+XZJYLJhffTwHsqGKjANBgkqhkiG9w0BAQsFADCB
yjELMAkGA1UEBhMCVVMxFzAVBgNVBAoTDlZlcmlTaWduLCBJbmMuMR8wHQYDVQQL
ExZWZXJpU2lnbiBUcnVzdCBOZXR3b3JrMTowOAYDVQQLEzEoYykgMjAwNiBWZXJp
U2lnbiwgSW5jLiAtIEZvciBhdXRob3JpemVkIHVzZSBvbmx5MUUwQwYDVQQDEzxW
ZXJpU2lnbiBDbGFzcyAzIFB1YmxpYyBQcmltYXJ5IENlcnRpZmljYXRpb24gQXV0
aG9yaXR5IC0gRzUwHhcNMTMxMjEwMDAwMDAwWhcNMjMxMjA5MjM1OTU5WjB/MQsw
CQYDVQQGEwJVUzEdMBsGA1UEChMUU3ltYW50ZWMgQ29ycG9yYXRpb24xHzAdBgNV
BAsTFlN5bWFudGVjIFRydXN0IE5ldHdvcmsxMDAuBgNVBAMTJ1N5bWFudGVjIENs
YXNzIDMgU0hBMjU2IENvZGUgU2lnbmluZyBDQTCCASIwDQYJKoZIhvcNAQEBBQAD
ggEPADCCAQoCggEBAJeDHgAWryyx0gjE12iTUWAecfbiR7TbWE0jYmq0v1obUfej
DRh3aLvYNqsvIVDanvPnXydOC8KXyAlwk6naXA1OpA2RoLTsFM6RclQuzqPbROlS
Gz9BPMpK5KrA6DmrU8wh0MzPf5vmwsxYaoIV7j02zxzFlwckjvF7vjEtPW7ctZlC
n0thlV8ccO4XfduL5WGJeMdoG68ReBqYrsRVR1PZszLWoQ5GQMWXkorRU6eZW4U1
V9Pqk2JhIArHMHckEU1ig7a6e2iCMe5lyt/51Y2yNdyMK29qclxghJzyDJRewFZS
AEjM0/ilfd4v1xPkOKiE1Ua4E4bCG53qWjjdm9sCAwEAAaOCAYMwggF/MC8GCCsG
AQUFBwEBBCMwITAfBggrBgEFBQcwAYYTaHR0cDovL3MyLnN5bWNiLmNvbTASBgNV
HRMBAf8ECDAGAQH/AgEAMGwGA1UdIARlMGMwYQYLYIZIAYb4RQEHFwMwUjAmBggr
BgEFBQcCARYaaHR0cDovL3d3dy5zeW1hdXRoLmNvbS9jcHMwKAYIKwYBBQUHAgIw
HBoaaHR0cDovL3d3dy5zeW1hdXRoLmNvbS9ycGEwMAYDVR0fBCkwJzAloCOgIYYf
aHR0cDovL3MxLnN5bWNiLmNvbS9wY2EzLWc1LmNybDAdBgNVHSUEFjAUBggrBgEF
BQcDAgYIKwYBBQUHAwMwDgYDVR0PAQH/BAQDAgEGMCkGA1UdEQQiMCCkHjAcMRow
GAYDVQQDExFTeW1hbnRlY1BLSS0xLTU2NzAdBgNVHQ4EFgQUljtT8Hkzl699g+8u
K8zKt4YecmYwHwYDVR0jBBgwFoAUf9Nlp8Ld7LvwMAnzQzn6Aq8zMTMwDQYJKoZI
hvcNAQELBQADggEBABOFGh5pqTf3oL2kr34dYVP+nYxeDKZ1HngXI9397BoDVTn7
cZXHZVqnjjDSRFph23Bv2iEFwi5zuknx0ZP+XcnNXgPgiZ4/dB7X9ziLqdbPuzUv
M1ioklbRyE07guZ5hBb8KLCxR/Mdoj7uh9mmf6RWpT+thC4p3ny8qKqjPQQB6rqT
og5QIikXTIfkOhFf1qQliZsFay+0yQFMJ3sLrBkFIqBgFT/ayftNTI/7cmd3/SeU
x7o1DohJ/o39KK9KEr0Ns5cF3kQMFfo2KwPcwVAB8aERXRTl4r0nS1S+K4ReD6bD
dAUK75fDiSKxH3fzvc1D1PFMqT+1i4SvZPLQFCE=
-----END CERTIFICATE-----

