Certificate:
    Data:
        Version: 3 (0x2)
        Serial Number:
            3d:56:ba:23:44:98:c1:5c:23:83:f5:f9:9e:6d:e0:73
    Signature Algorithm: sha256WithRSAEncryption
        Issuer: C=US, O=thawte, Inc., CN=thawte SHA256 Code Signing CA
        Validity
            Not Before: Jun  1 00:00:00 2015 GMT
            Not After : May 31 23:59:59 2016 GMT
        Subject: C=RU, ST=Moscow, L=Moscow, O=MOSCOW COMPANY, CN=MOSCOW COMPANY
        Subject Public Key Info:
            Public Key Algorithm: rsaEncryption
                Public-Key: (2048 bit)
                Modulus:
                    00:d2:f7:96:57:04:3e:bf:c1:b4:27:dd:70:64:42:
                    e5:0a:fc:a6:5f:58:bd:ec:87:ed:11:97:3b:a3:e7:
                    88:ad:bf:0f:fe:e7:b7:26:f8:cf:30:a1:f9:19:b6:
                    26:e2:08:33:cf:bb:09:65:4c:a3:e9:31:71:91:8a:
                    30:e9:1a:ed:31:1a:ea:a7:fb:9c:0c:27:6f:c2:9c:
                    7d:09:aa:a2:bb:93:be:bb:09:61:26:c2:a4:06:9e:
                    6e:b0:18:4f:0f:b2:cf:76:95:74:f3:39:51:d1:67:
                    8f:71:07:c6:4a:b9:8e:cd:0c:58:e6:66:07:2e:fe:
                    6b:3c:95:53:f8:0f:4b:53:b3:e7:a4:90:d5:0e:fe:
                    2d:bf:53:bc:53:c8:74:7c:4b:34:a6:48:e2:ea:c6:
                    83:f4:cf:ef:a3:cc:af:ba:29:ea:37:73:7c:d8:b2:
                    3a:b1:e1:b2:8d:ad:74:da:05:6e:c2:37:d2:17:ae:
                    4f:4a:2d:36:68:dc:6c:83:eb:7e:e2:26:57:21:66:
                    e0:67:9e:c2:86:1d:da:ab:42:7f:85:36:a6:5e:f2:
                    ea:bb:7a:34:bb:39:f9:08:38:e4:ae:8e:69:31:b5:
                    b7:40:3c:38:01:b2:d3:53:1d:73:da:3a:3e:8b:7c:
                    7e:54:f9:51:b0:1e:1e:a5:96:cd:60:2a:a7:c5:ca:
                    f9:ab
                Exponent: 65537 (0x10001)
        X509v3 extensions:
            X509v3 Basic Constraints: 
                CA:FALSE
            X509v3 Authority Key Identifier: 
                keyid:57:86:9B:54:B8:BE:A6:29:8A:E4:F6:C2:E2:13:18:89:85:CD:DC:B7

            X509v3 Subject Key Identifier: 
                74:3F:2E:2C:72:95:C6:CC:BD:48:72:03:65:58:59:B4:66:48:13:8D
            X509v3 CRL Distribution Points: 

                Full Name:
                  URI:http://tl.symcb.com/tl.crl

            X509v3 Key Usage: critical
                Digital Signature
            X509v3 Extended Key Usage: 
                Code Signing
            X509v3 Certificate Policies: 
                Policy: 2.16.840.1.113733.1.7.48.2
                  CPS: https://www.thawte.com/cps
                  User Notice:
                    Explicit Text: https://www.thawte.com/repository

            2.5.29.4: 
                0.0.0..
+.....7.......
            Authority Information Access: 
                OCSP - URI:http://tl.symcd.com
                CA Issuers - URI:http://tl.symcb.com/tl.crt

    Signature Algorithm: sha256WithRSAEncryption
         36:8a:cd:90:3a:99:66:86:a2:a4:a6:69:c6:2c:cc:fc:52:5c:
         3f:03:48:a1:d4:23:31:f5:ae:8b:52:33:07:59:89:cb:2a:10:
         77:27:d5:58:84:5a:88:93:c2:4a:91:95:fd:0b:48:0d:f7:45:
         86:ca:56:e0:9e:38:ae:44:25:bf:d6:37:e7:b9:58:4f:cf:12:
         fa:c1:1b:3a:37:30:9e:9f:6a:f8:dd:e5:d5:69:1f:7e:66:9f:
         04:46:88:39:89:bc:d5:04:c9:d7:4d:7e:84:b5:83:3b:a1:21:
         dd:4a:e3:67:85:d9:9c:14:18:8f:af:8b:c1:80:60:da:72:57:
         e6:ed:92:24:48:33:8a:eb:9b:e9:53:80:15:f6:55:c4:6f:76:
         79:71:a2:61:16:dc:8f:6f:ee:c9:bd:d7:f1:21:fb:c4:d7:85:
         63:2c:98:83:46:87:8d:09:0d:9e:b6:ad:b7:b0:a3:d6:32:00:
         fe:61:75:e6:ae:41:44:30:8d:13:92:05:d6:71:aa:b9:c0:9d:
         8e:f9:f7:79:28:20:76:aa:b8:24:08:4c:d8:77:92:b8:92:65:
         dc:b2:75:70:ee:49:f3:2d:2a:c9:c6:7c:e2:a8:8f:c3:b6:d1:
         a1:37:78:d9:dc:4f:9c:5f:88:3d:49:df:3d:13:12:71:cb:ef:
         23:33:95:9c
-----BEGIN CERTIFICATE-----
MIIExzCCA6+gAwIBAgIQPVa6I0SYwVwjg/X5nm3gczANBgkqhkiG9w0BAQsFADBM
MQswCQYDVQQGEwJVUzEVMBMGA1UEChMMdGhhd3RlLCBJbmMuMSYwJAYDVQQDEx10
aGF3dGUgU0hBMjU2IENvZGUgU2lnbmluZyBDQTAeFw0xNTA2MDEwMDAwMDBaFw0x
NjA1MzEyMzU5NTlaMGExCzAJBgNVBAYTAlJVMQ8wDQYDVQQIEwZNb3Njb3cxDzAN
BgNVBAcUBk1vc2NvdzEXMBUGA1UEChQOTU9TQ09XIENPTVBBTlkxFzAVBgNVBAMU
Dk1PU0NPVyBDT01QQU5ZMIIBIjANBgkqhkiG9w0BAQEFAAOCAQ8AMIIBCgKCAQEA
0veWVwQ+v8G0J91wZELlCvymX1i97IftEZc7o+eIrb8P/ue3JvjPMKH5GbYm4ggz
z7sJZUyj6TFxkYow6RrtMRrqp/ucDCdvwpx9Caqiu5O+uwlhJsKkBp5usBhPD7LP
dpV08zlR0WePcQfGSrmOzQxY5mYHLv5rPJVT+A9LU7PnpJDVDv4tv1O8U8h0fEs0
pkji6saD9M/vo8yvuinqN3N82LI6seGyja102gVuwjfSF65PSi02aNxsg+t+4iZX
IWbgZ57Chh3aq0J/hTamXvLqu3o0uzn5CDjkro5pMbW3QDw4AbLTUx1z2jo+i3x+
VPlRsB4epZbNYCqnxcr5qwIDAQABo4IBjjCCAYowCQYDVR0TBAIwADAfBgNVHSME
GDAWgBRXhptUuL6mKYrk9sLiExiJhc3ctzAdBgNVHQ4EFgQUdD8uLHKVxsy9SHID
ZVhZtGZIE40wKwYDVR0fBCQwIjAgoB6gHIYaaHR0cDovL3RsLnN5bWNiLmNvbS90
bC5jcmwwDgYDVR0PAQH/BAQDAgeAMBMGA1UdJQQMMAoGCCsGAQUFBwMDMHMGA1Ud
IARsMGowaAYLYIZIAYb4RQEHMAIwWTAmBggrBgEFBQcCARYaaHR0cHM6Ly93d3cu
dGhhd3RlLmNvbS9jcHMwLwYIKwYBBQUHAgIwIwwhaHR0cHM6Ly93d3cudGhhd3Rl
LmNvbS9yZXBvc2l0b3J5MB0GA1UdBAQWMBQwDjAMBgorBgEEAYI3AgEWAwIHgDBX
BggrBgEFBQcBAQRLMEkwHwYIKwYBBQUHMAGGE2h0dHA6Ly90bC5zeW1jZC5jb20w
JgYIKwYBBQUHMAKGGmh0dHA6Ly90bC5zeW1jYi5jb20vdGwuY3J0MA0GCSqGSIb3
DQEBCwUAA4IBAQA2is2QOplmhqKkpmnGLMz8Ulw/A0ih1CMx9a6LUjMHWYnLKhB3
J9VYhFqIk8JKkZX9C0gN90WGylbgnjiuRCW/1jfnuVhPzxL6wRs6NzCen2r43eXV
aR9+Zp8ERog5ibzVBMnXTX6EtYM7oSHdSuNnhdmcFBiPr4vBgGDaclfm7ZIkSDOK
65vpU4AV9lXEb3Z5caJhFtyPb+7JvdfxIfvE14VjLJiDRoeNCQ2etq23sKPWMgD+
YXXmrkFEMI0TkgXWcaq5wJ2O+fd5KCB2qrgkCEzYd5K4kmXcsnVw7knzLSrJxnzi
qI/DttGhN3jZ3E+cX4g9Sd89ExJxy+8jM5Wc
-----END CERTIFICATE-----

