Certificate:
    Data:
        Version: 3 (0x2)
        Serial Number: 0 (0x0)
    Signature Algorithm: md5WithRSAEncryption
        Issuer: C=us, ST=Calfi, O=Marketing.com, L=Orlando, OU=Marketing, CN=www.Marketing.com/emailAddress=contact@Marketing.com
        Validity
            Not Before: Jul 13 01:49:31 2015 GMT
            Not After : Jul 12 01:49:31 2016 GMT
        Subject: C=us, ST=Calfi, O=Marketing.com, L=Orlando, OU=Marketing, CN=www.Marketing.com/emailAddress=contact@Marketing.com
        Subject Public Key Info:
            Public Key Algorithm: rsaEncryption
                Public-Key: (2048 bit)
                Modulus:
                    00:b6:cc:aa:29:53:ad:dd:82:c2:5d:1e:d7:ef:49:
                    1f:da:be:83:3d:e7:a6:e7:12:7b:fd:d0:dd:d2:1f:
                    13:84:80:73:de:df:3c:34:d2:a2:91:9a:c9:44:b8:
                    56:dc:b4:1a:0f:78:4d:8a:ff:4b:82:16:7f:44:f0:
                    18:d6:b3:44:7c:1d:58:34:62:ae:3a:a8:3b:b6:0e:
                    3b:e2:90:e7:66:57:ae:d2:40:c5:48:ed:a2:f3:5e:
                    fb:f3:c4:85:18:2f:cf:58:f3:37:db:a2:00:c7:8a:
                    7b:5a:c3:b8:54:e3:61:27:85:d4:9c:cb:16:e2:7d:
                    d7:9f:a7:83:4a:77:ae:75:6d:86:45:78:78:46:3e:
                    08:e1:ba:5c:31:00:4c:0f:ea:f0:ba:19:97:39:d6:
                    01:93:99:c6:9c:bc:a3:9a:98:b2:e7:ee:b3:6c:22:
                    af:38:09:83:47:79:47:72:5d:2e:ed:2b:35:5e:c1:
                    e5:b9:a1:d8:cc:87:79:6d:9f:ba:58:eb:fb:56:f4:
                    61:57:47:1b:d4:7d:1a:60:d4:89:b6:5c:15:cf:50:
                    27:19:6a:53:b9:74:d4:56:90:fc:8d:16:57:a9:c1:
                    9b:a2:fa:6e:d7:29:27:9f:9a:e8:a4:ef:32:fa:f6:
                    35:b4:88:d7:d1:2d:74:16:bb:44:46:61:3c:38:b5:
                    3c:2d
                Exponent: 65537 (0x10001)
        X509v3 extensions:
            X509v3 Subject Key Identifier: 
                39:B0:08:1D:FA:66:8D:68:E8:17:B5:60:A7:A7:48:26:9E:CC:B2:69
            X509v3 Authority Key Identifier: 
                keyid:39:B0:08:1D:FA:66:8D:68:E8:17:B5:60:A7:A7:48:26:9E:CC:B2:69
                DirName:/C=us/ST=Calfi/O=Marketing.com/L=Orlando/OU=Marketing/CN=www.Marketing.com/emailAddress=contact@Marketing.com
                serial:00

            X509v3 Basic Constraints: 
                CA:TRUE
    Signature Algorithm: md5WithRSAEncryption
         05:1f:8f:32:14:f2:09:20:30:e1:f0:3c:8e:53:b2:ec:94:56:
         c9:d9:c9:10:b0:88:8c:74:1f:2e:64:d2:df:70:55:1f:7e:79:
         65:e8:48:ac:6a:07:32:5b:f1:b4:a1:d3:e7:a4:e4:50:f0:8d:
         12:79:c5:e8:42:47:fa:ea:9f:01:02:9f:52:98:9c:a6:88:22:
         26:a0:c6:b0:3c:d3:db:54:2e:45:8b:54:96:7d:19:c7:e2:14:
         9d:5a:3f:7a:97:67:80:93:63:6f:dc:87:6a:1f:30:d7:c1:21:
         39:43:52:1a:69:7a:31:d7:8f:e8:07:5a:96:d8:ac:ce:63:81:
         b6:e4:6f:06:af:26:5e:57:cf:04:37:08:e0:9a:dd:a0:6d:2a:
         9a:17:5c:e6:b9:c7:5e:db:a8:d4:fb:25:27:79:2a:a2:b9:8a:
         f5:d8:ae:0c:6a:bf:72:72:8a:c0:72:86:03:19:d5:20:92:5a:
         7e:0a:a0:74:d6:bb:d5:e7:a5:9f:d1:86:54:f2:61:c8:f9:aa:
         ad:2a:ae:e6:ec:16:20:c9:89:a3:b4:e5:00:fe:ef:96:b6:93:
         f8:7d:c2:d7:73:1d:74:b5:d4:c5:1e:95:ed:ac:55:12:c4:23:
         ce:92:fb:b0:3f:0b:72:93:b7:b5:89:14:a1:56:67:eb:e2:d4:
         e4:98:60:0d
-----BEGIN CERTIFICATE-----
MIIEtTCCA52gAwIBAgIBADANBgkqhkiG9w0BAQQFADCBnTELMAkGA1UEBhMCdXMx
DjAMBgNVBAgTBUNhbGZpMRYwFAYDVQQKEw1NYXJrZXRpbmcuY29tMRAwDgYDVQQH
EwdPcmxhbmRvMRIwEAYDVQQLEwlNYXJrZXRpbmcxGjAYBgNVBAMTEXd3dy5NYXJr
ZXRpbmcuY29tMSQwIgYJKoZIhvcNAQkBFhVjb250YWN0QE1hcmtldGluZy5jb20w
HhcNMTUwNzEzMDE0OTMxWhcNMTYwNzEyMDE0OTMxWjCBnTELMAkGA1UEBhMCdXMx
DjAMBgNVBAgTBUNhbGZpMRYwFAYDVQQKEw1NYXJrZXRpbmcuY29tMRAwDgYDVQQH
EwdPcmxhbmRvMRIwEAYDVQQLEwlNYXJrZXRpbmcxGjAYBgNVBAMTEXd3dy5NYXJr
ZXRpbmcuY29tMSQwIgYJKoZIhvcNAQkBFhVjb250YWN0QE1hcmtldGluZy5jb20w
ggEiMA0GCSqGSIb3DQEBAQUAA4IBDwAwggEKAoIBAQC2zKopU63dgsJdHtfvSR/a
voM956bnEnv90N3SHxOEgHPe3zw00qKRmslEuFbctBoPeE2K/0uCFn9E8BjWs0R8
HVg0Yq46qDu2DjvikOdmV67SQMVI7aLzXvvzxIUYL89Y8zfbogDHintaw7hU42En
hdScyxbifdefp4NKd651bYZFeHhGPgjhulwxAEwP6vC6GZc51gGTmcacvKOamLLn
7rNsIq84CYNHeUdyXS7tKzVeweW5odjMh3ltn7pY6/tW9GFXRxvUfRpg1Im2XBXP
UCcZalO5dNRWkPyNFlepwZui+m7XKSefmuik7zL69jW0iNfRLXQWu0RGYTw4tTwt
AgMBAAGjgf0wgfowHQYDVR0OBBYEFDmwCB36Zo1o6Be1YKenSCaezLJpMIHKBgNV
HSMEgcIwgb+AFDmwCB36Zo1o6Be1YKenSCaezLJpoYGjpIGgMIGdMQswCQYDVQQG
EwJ1czEOMAwGA1UECBMFQ2FsZmkxFjAUBgNVBAoTDU1hcmtldGluZy5jb20xEDAO
BgNVBAcTB09ybGFuZG8xEjAQBgNVBAsTCU1hcmtldGluZzEaMBgGA1UEAxMRd3d3
Lk1hcmtldGluZy5jb20xJDAiBgkqhkiG9w0BCQEWFWNvbnRhY3RATWFya2V0aW5n
LmNvbYIBADAMBgNVHRMEBTADAQH/MA0GCSqGSIb3DQEBBAUAA4IBAQAFH48yFPIJ
IDDh8DyOU7LslFbJ2ckQsIiMdB8uZNLfcFUffnll6EisagcyW/G0odPnpORQ8I0S
ecXoQkf66p8BAp9SmJymiCImoMawPNPbVC5Fi1SWfRnH4hSdWj96l2eAk2Nv3Idq
HzDXwSE5Q1IaaXox14/oB1qW2KzOY4G25G8GryZeV88ENwjgmt2gbSqaF1zmucde
26jU+yUneSqiuYr12K4Mar9ycorAcoYDGdUgklp+CqB01rvV56Wf0YZU8mHI+aqt
Kq7m7BYgyYmjtOUA/u+WtpP4fcLXcx10tdTFHpXtrFUSxCPOkvuwPwtyk7e1iRSh
Vmfr4tTkmGAN
-----END CERTIFICATE-----

