Certificate:
    Data:
        Version: 3 (0x2)
        Serial Number:
            16:88:f0:39:25:5e:63:8e:69:14:39:07:e6:33:0b
    Signature Algorithm: sha1WithRSAEncryption
        Issuer: C=US, ST=UT, L=Salt Lake City, O=The USERTRUST Network, OU=http://www.usertrust.com, CN=UTN-USERFirst-Object
        Validity
            Not Before: Dec 31 00:00:00 2015 GMT
            Not After : Jul  9 18:40:36 2019 GMT
        Subject: C=GB, ST=Greater Manchester, L=Salford, O=COMODO CA Limited, CN=COMODO SHA-1 Time Stamping Signer
        Subject Public Key Info:
            Public Key Algorithm: rsaEncryption
                Public-Key: (2048 bit)
                Modulus:
                    00:e9:e9:3d:df:d7:37:08:c9:1e:38:b2:52:53:42:
                    6d:22:f1:b1:c4:06:04:6b:9e:fd:82:74:50:43:7d:
                    c6:a0:bb:1f:4e:f9:02:71:26:b1:ef:43:d8:83:8c:
                    48:fc:e7:0f:97:7a:9a:eb:9c:de:a6:a3:0e:3b:1c:
                    44:18:75:8e:78:a5:17:69:fe:49:18:a4:e2:bb:5c:
                    4e:fe:8e:2a:54:7a:50:f0:d5:f6:cc:91:e7:99:79:
                    d7:de:79:94:d7:96:33:fe:0e:83:be:22:bf:63:16:
                    2c:a3:dd:28:1b:af:3d:ab:ea:97:d2:f1:bf:04:10:
                    e7:3d:48:45:fd:1f:68:65:c1:7f:59:99:69:c0:22:
                    31:0c:62:6e:a7:5c:65:01:21:b0:63:c4:22:18:27:
                    ee:e6:fc:d2:00:3d:47:2e:a8:b8:86:56:5d:04:dc:
                    13:17:25:6e:1c:df:44:0f:15:cd:b7:db:a5:57:76:
                    42:6f:00:68:82:99:d2:e3:c1:de:f0:8b:94:57:4c:
                    ec:08:90:22:21:ce:22:2b:98:0c:42:e6:42:93:94:
                    98:93:ef:fd:06:d9:3f:bc:5b:9b:54:3c:20:b1:ee:
                    6a:d6:47:7a:c5:ab:80:e9:30:9a:de:f1:a4:3f:55:
                    4d:0a:09:34:8a:75:29:d2:69:ad:97:0f:50:bf:f8:
                    ca:09
                Exponent: 65537 (0x10001)
        X509v3 extensions:
            X509v3 Authority Key Identifier: 
                keyid:DA:ED:64:74:14:9C:14:3C:AB:DD:99:A9:BD:5B:28:4D:8B:3C:C9:D8

            X509v3 Subject Key Identifier: 
                8E:6B:2D:33:6B:F4:33:A7:93:B3:13:9A:A5:E0:0A:F7:12:35:6A:88
            X509v3 Key Usage: critical
                Digital Signature, Non Repudiation
            X509v3 Basic Constraints: critical
                CA:FALSE
            X509v3 Extended Key Usage: critical
                Time Stamping
            X509v3 CRL Distribution Points: 

                Full Name:
                  URI:http://crl.usertrust.com/UTN-USERFirst-Object.crl

            Authority Information Access: 
                OCSP - URI:http://ocsp.usertrust.com

    Signature Algorithm: sha1WithRSAEncryption
         ba:33:24:40:40:8c:7c:db:58:9f:b3:60:98:b2:f5:c0:31:fe:
         eb:1f:6e:50:f6:0a:e0:e4:e6:81:ad:26:87:a2:df:fd:b3:da:
         f4:73:f3:00:fb:29:1b:89:1b:15:3e:db:6b:52:93:2b:c4:ac:
         39:81:d7:3c:67:57:9a:39:36:e0:28:08:9a:e3:39:4f:9b:89:
         09:7f:7b:c5:61:7f:59:89:32:25:0a:6a:ae:1a:3e:f0:a2:27:
         a8:b6:c3:b8:87:f7:16:04:48:41:3d:5c:d8:ec:9f:4d:20:31:
         04:d9:65:a1:ed:cd:69:07:53:16:3d:dd:36:02:0a:88:eb:40:
         e5:06:30:0b:b8:16:4b:dc:ef:bc:55:09:ff:c6:3e:12:2e:76:
         b3:dc:ce:42:ef:f9:76:57:e1:b7:0a:05:40:98:58:9a:5d:71:
         16:93:71:8c:65:81:ea:6f:f3:89:f7:fb:73:ad:b4:e7:bf:d9:
         8e:6f:aa:0b:4f:25:f3:b8:e1:d5:dd:75:98:68:81:f8:aa:c0:
         d1:80:c2:c4:c4:39:89:c1:f6:c9:9e:6c:d7:74:f9:d9:97:f8:
         4f:c2:9a:0a:cd:5e:8f:f8:19:e9:e0:a5:9f:c4:f0:92:21:e6:
         2d:79:25:c9:22:f9:c3:f0:3a:84:57:ad:3a:16:f4:63:94:10:
         1d:5d:d0:c6
-----BEGIN CERTIFICATE-----
MIIEmTCCA4GgAwIBAgIPFojwOSVeY45pFDkH5jMLMA0GCSqGSIb3DQEBBQUAMIGV
MQswCQYDVQQGEwJVUzELMAkGA1UECBMCVVQxFzAVBgNVBAcTDlNhbHQgTGFrZSBD
aXR5MR4wHAYDVQQKExVUaGUgVVNFUlRSVVNUIE5ldHdvcmsxITAfBgNVBAsTGGh0
dHA6Ly93d3cudXNlcnRydXN0LmNvbTEdMBsGA1UEAxMUVVROLVVTRVJGaXJzdC1P
YmplY3QwHhcNMTUxMjMxMDAwMDAwWhcNMTkwNzA5MTg0MDM2WjCBhDELMAkGA1UE
BhMCR0IxGzAZBgNVBAgTEkdyZWF0ZXIgTWFuY2hlc3RlcjEQMA4GA1UEBxMHU2Fs
Zm9yZDEaMBgGA1UEChMRQ09NT0RPIENBIExpbWl0ZWQxKjAoBgNVBAMTIUNPTU9E
TyBTSEEtMSBUaW1lIFN0YW1waW5nIFNpZ25lcjCCASIwDQYJKoZIhvcNAQEBBQAD
ggEPADCCAQoCggEBAOnpPd/XNwjJHjiyUlNCbSLxscQGBGue/YJ0UEN9xqC7H075
AnEmse9D2IOMSPznD5d6muuc3qajDjscRBh1jnilF2n+SRik4rtcTv6OKlR6UPDV
9syR55l51955lNeWM/4Og74iv2MWLKPdKBuvPavql9LxvwQQ5z1IRf0faGXBf1mZ
acAiMQxibqdcZQEhsGPEIhgn7ub80gA9Ry6ouIZWXQTcExclbhzfRA8VzbfbpVd2
Qm8AaIKZ0uPB3vCLlFdM7AiQIiHOIiuYDELmQpOUmJPv/QbZP7xbm1Q8ILHuatZH
esWrgOkwmt7xpD9VTQoJNIp1KdJprZcPUL/4ygkCAwEAAaOB9DCB8TAfBgNVHSME
GDAWgBTa7WR0FJwUPKvdmam9WyhNizzJ2DAdBgNVHQ4EFgQUjmstM2v0M6eTsxOa
peAK9xI1aogwDgYDVR0PAQH/BAQDAgbAMAwGA1UdEwEB/wQCMAAwFgYDVR0lAQH/
BAwwCgYIKwYBBQUHAwgwQgYDVR0fBDswOTA3oDWgM4YxaHR0cDovL2NybC51c2Vy
dHJ1c3QuY29tL1VUTi1VU0VSRmlyc3QtT2JqZWN0LmNybDA1BggrBgEFBQcBAQQp
MCcwJQYIKwYBBQUHMAGGGWh0dHA6Ly9vY3NwLnVzZXJ0cnVzdC5jb20wDQYJKoZI
hvcNAQEFBQADggEBALozJEBAjHzbWJ+zYJiy9cAx/usfblD2CuDk5oGtJoei3/2z
2vRz8wD7KRuJGxU+22tSkyvErDmB1zxnV5o5NuAoCJrjOU+biQl/e8Vhf1mJMiUK
aq4aPvCiJ6i2w7iH9xYESEE9XNjsn00gMQTZZaHtzWkHUxY93TYCCojrQOUGMAu4
Fkvc77xVCf/GPhIudrPczkLv+XZX4bcKBUCYWJpdcRaTcYxlgepv84n3+3OttOe/
2Y5vqgtPJfO44dXddZhogfiqwNGAwsTEOYnB9smebNd0+dmX+E/CmgrNXo/4Geng
pZ/E8JIh5i15Jcki+cPwOoRXrToW9GOUEB1d0MY=
-----END CERTIFICATE-----

Certificate:
    Data:
        Version: 3 (0x2)
        Serial Number:
            e1:9e:24:d2:c3:57:e4:60:3a:a6:d2:16:a2:67:71:7b
    Signature Algorithm: sha256WithRSAEncryption
        Issuer: C=GB, ST=Greater Manchester, L=Salford, O=COMODO CA Limited, CN=COMODO RSA Code Signing CA
        Validity
            Not Before: Dec 16 00:00:00 2014 GMT
            Not After : Dec 15 23:59:59 2016 GMT
        Subject: C=US/postalCode=84105, ST=UT, L=Salt Lake City/street=1545 South 1100 East STE 1, O=Igage Mapping Corporation, CN=Igage Mapping Corporation
        Subject Public Key Info:
            Public Key Algorithm: rsaEncryption
                Public-Key: (2048 bit)
                Modulus:
                    00:c1:b4:9b:32:76:b5:8c:47:30:e5:d5:12:4b:f8:
                    65:22:54:ff:be:f8:99:2a:0b:af:f4:15:3d:1c:fd:
                    6e:0a:fc:e5:23:89:bd:77:4a:5a:c6:2b:3e:90:16:
                    6a:29:d4:2d:5a:3f:9e:a5:72:2e:61:8a:68:9f:4c:
                    93:9f:03:f2:90:7c:88:9b:b8:54:94:e1:6c:55:7c:
                    8c:b4:8d:ba:a0:a5:ba:db:28:d5:54:a7:4c:be:68:
                    3b:56:c8:36:01:45:44:df:ed:7f:f8:ee:ff:53:5b:
                    da:49:97:0a:c2:93:3f:ec:7d:ac:31:93:a2:7a:51:
                    c4:5b:94:90:50:a7:d3:be:fb:30:ff:6b:0d:1e:1e:
                    a8:7b:5d:84:d9:53:6e:4b:10:f7:42:54:34:31:a4:
                    0f:b9:f7:ef:96:47:dd:a3:7d:64:31:fd:8e:76:fc:
                    b1:8a:fb:5e:3f:00:55:a2:dc:08:32:a4:f7:50:0e:
                    90:69:7b:ad:96:9b:52:30:b2:91:6f:ed:bf:6d:78:
                    90:cc:41:3d:a3:28:53:86:9f:47:cf:71:ce:94:ad:
                    f4:77:e7:36:ba:fb:a4:7f:57:b2:c3:ca:21:5b:47:
                    33:fa:8a:e3:05:b1:6b:2d:45:9f:92:a7:7c:44:ed:
                    7a:83:6d:65:39:6c:b0:23:26:71:54:c3:31:9b:e8:
                    1f:11
                Exponent: 65537 (0x10001)
        X509v3 extensions:
            X509v3 Authority Key Identifier: 
                keyid:29:91:60:FF:8A:4D:FA:EB:F9:A6:6A:B8:CF:F9:E6:4B:BD:49:CE:12

            X509v3 Subject Key Identifier: 
                06:45:42:AB:B4:B0:7A:EC:7B:3F:0E:52:32:7B:36:1F:AE:37:1A:9A
            X509v3 Key Usage: critical
                Digital Signature
            X509v3 Basic Constraints: critical
                CA:FALSE
            X509v3 Extended Key Usage: 
                Code Signing
            Netscape Cert Type: 
                Object Signing
            X509v3 Certificate Policies: 
                Policy: 1.3.6.1.4.1.6449.1.2.1.3.2
                  CPS: https://secure.comodo.net/CPS

            X509v3 CRL Distribution Points: 

                Full Name:
                  URI:http://crl.comodoca.com/COMODORSACodeSigningCA.crl

            Authority Information Access: 
                CA Issuers - URI:http://crt.comodoca.com/COMODORSACodeSigningCA.crt
                OCSP - URI:http://ocsp.comodoca.com

            X509v3 Subject Alternative Name: 
                email:ms@igage.com
    Signature Algorithm: sha256WithRSAEncryption
         95:24:89:37:76:3c:a2:50:ec:88:ef:94:03:e1:97:d7:23:1b:
         a7:e5:4e:1a:cf:80:97:08:ef:18:61:ed:42:f1:0b:30:af:cc:
         5d:05:09:1a:29:75:6c:46:11:fa:a0:97:b7:03:2d:f5:b7:f6:
         fe:8e:24:f1:9f:fe:4a:6f:09:bd:f7:6d:53:78:9c:08:99:82:
         19:58:27:f1:56:1c:1c:a2:84:be:d6:a4:53:bc:81:b3:bb:06:
         a8:c6:19:4e:e8:c9:a5:3d:a5:55:f4:4b:2c:42:8b:b0:d5:81:
         35:95:fe:b6:8d:85:68:83:c2:c6:00:cd:46:7c:ac:8d:2b:8e:
         bb:af:ca:49:72:d4:b9:d7:50:52:42:89:c1:38:24:5b:2d:85:
         40:4f:27:a7:15:b6:20:dd:f1:df:f8:f7:02:b3:a0:42:21:4c:
         42:59:d1:a4:ed:6f:88:fb:1c:19:23:d7:e3:90:58:8c:3b:4c:
         a5:6c:eb:4c:b3:53:1c:61:c5:2a:5d:50:5c:68:da:8a:36:60:
         32:c0:dc:9a:c6:bc:30:65:f3:de:c0:55:b1:ef:2f:70:2c:1d:
         25:5f:f9:4e:b2:86:ee:cb:6d:f0:c7:76:f6:13:af:b6:8e:08:
         8c:94:fa:3c:39:8a:0d:3f:ac:4a:a6:d5:fe:19:d9:3b:ef:a8:
         dd:c4:a8:f6
-----BEGIN CERTIFICATE-----
MIIFYTCCBEmgAwIBAgIRAOGeJNLDV+RgOqbSFqJncXswDQYJKoZIhvcNAQELBQAw
fTELMAkGA1UEBhMCR0IxGzAZBgNVBAgTEkdyZWF0ZXIgTWFuY2hlc3RlcjEQMA4G
A1UEBxMHU2FsZm9yZDEaMBgGA1UEChMRQ09NT0RPIENBIExpbWl0ZWQxIzAhBgNV
BAMTGkNPTU9ETyBSU0EgQ29kZSBTaWduaW5nIENBMB4XDTE0MTIxNjAwMDAwMFoX
DTE2MTIxNTIzNTk1OVowgbAxCzAJBgNVBAYTAlVTMQ4wDAYDVQQRDAU4NDEwNTEL
MAkGA1UECAwCVVQxFzAVBgNVBAcMDlNhbHQgTGFrZSBDaXR5MSMwIQYDVQQJDBox
NTQ1IFNvdXRoIDExMDAgRWFzdCBTVEUgMTEiMCAGA1UECgwZSWdhZ2UgTWFwcGlu
ZyBDb3Jwb3JhdGlvbjEiMCAGA1UEAwwZSWdhZ2UgTWFwcGluZyBDb3Jwb3JhdGlv
bjCCASIwDQYJKoZIhvcNAQEBBQADggEPADCCAQoCggEBAMG0mzJ2tYxHMOXVEkv4
ZSJU/774mSoLr/QVPRz9bgr85SOJvXdKWsYrPpAWainULVo/nqVyLmGKaJ9Mk58D
8pB8iJu4VJThbFV8jLSNuqClutso1VSnTL5oO1bINgFFRN/tf/ju/1Nb2kmXCsKT
P+x9rDGTonpRxFuUkFCn0777MP9rDR4eqHtdhNlTbksQ90JUNDGkD7n375ZH3aN9
ZDH9jnb8sYr7Xj8AVaLcCDKk91AOkGl7rZabUjCykW/tv214kMxBPaMoU4afR89x
zpSt9HfnNrr7pH9XssPKIVtHM/qK4wWxay1Fn5KnfETteoNtZTlssCMmcVTDMZvo
HxECAwEAAaOCAaYwggGiMB8GA1UdIwQYMBaAFCmRYP+KTfrr+aZquM/55ku9Sc4S
MB0GA1UdDgQWBBQGRUKrtLB67Hs/DlIyezYfrjcamjAOBgNVHQ8BAf8EBAMCB4Aw
DAYDVR0TAQH/BAIwADATBgNVHSUEDDAKBggrBgEFBQcDAzARBglghkgBhvhCAQEE
BAMCBBAwRgYDVR0gBD8wPTA7BgwrBgEEAbIxAQIBAwIwKzApBggrBgEFBQcCARYd
aHR0cHM6Ly9zZWN1cmUuY29tb2RvLm5ldC9DUFMwQwYDVR0fBDwwOjA4oDagNIYy
aHR0cDovL2NybC5jb21vZG9jYS5jb20vQ09NT0RPUlNBQ29kZVNpZ25pbmdDQS5j
cmwwdAYIKwYBBQUHAQEEaDBmMD4GCCsGAQUFBzAChjJodHRwOi8vY3J0LmNvbW9k
b2NhLmNvbS9DT01PRE9SU0FDb2RlU2lnbmluZ0NBLmNydDAkBggrBgEFBQcwAYYY
aHR0cDovL29jc3AuY29tb2RvY2EuY29tMBcGA1UdEQQQMA6BDG1zQGlnYWdlLmNv
bTANBgkqhkiG9w0BAQsFAAOCAQEAlSSJN3Y8olDsiO+UA+GX1yMbp+VOGs+Alwjv
GGHtQvELMK/MXQUJGil1bEYR+qCXtwMt9bf2/o4k8Z/+Sm8JvfdtU3icCJmCGVgn
8VYcHKKEvtakU7yBs7sGqMYZTujJpT2lVfRLLEKLsNWBNZX+to2FaIPCxgDNRnys
jSuOu6/KSXLUuddQUkKJwTgkWy2FQE8npxW2IN3x3/j3ArOgQiFMQlnRpO1viPsc
GSPX45BYjDtMpWzrTLNTHGHFKl1QXGjaijZgMsDcmsa8MGXz3sBVse8vcCwdJV/5
TrKG7stt8Md29hOvto4IjJT6PDmKDT+sSqbV/hnZO++o3cSo9g==
-----END CERTIFICATE-----

