Certificate:
    Data:
        Version: 3 (0x2)
        Serial Number:
            25:1f:5d:98:81:82:17:2e:3c:41:9e:01:4f:b0:40:4c
    Signature Algorithm: sha1WithRSAEncryption
        Issuer: C=CN, O=WoSign CA Limited, CN=Certification Authority of WoSign
        Validity
            Not Before: Aug  8 01:00:05 2009 GMT
            Not After : Aug  8 01:00:05 2024 GMT
        Subject: C=CN, O=WoSign CA Limited, CN=WoSign Time Stamping Signer
        Subject Public Key Info:
            Public Key Algorithm: rsaEncryption
                Public-Key: (2048 bit)
                Modulus:
                    00:a5:d0:68:ba:82:cb:db:a7:6d:55:b9:31:a7:da:
                    f4:9c:6b:03:54:4f:a2:1c:ef:1c:b5:96:44:1f:56:
                    41:3f:61:b0:03:59:4b:82:0e:db:15:c8:d0:cc:e0:
                    87:c6:09:75:8a:84:e3:ed:97:c2:c8:92:34:c0:f1:
                    64:53:60:51:34:48:90:b1:4f:89:69:f5:2e:a0:2a:
                    16:54:2f:c0:37:58:ff:35:52:1b:52:08:cf:b9:ec:
                    5a:27:52:5a:83:eb:68:b1:b9:f8:b2:a9:08:f3:4f:
                    ab:17:0f:2e:bd:4f:e5:12:8a:bf:7c:b7:e7:65:32:
                    3b:83:41:02:22:3a:24:3b:6a:a3:3c:af:eb:79:42:
                    17:56:74:c8:61:63:dd:8c:2f:3e:ef:3a:a3:47:52:
                    04:3b:00:18:ae:26:71:e0:7a:04:8d:75:82:2d:65:
                    4e:c1:b8:f2:8c:de:0f:63:03:d4:c3:52:60:72:8c:
                    88:cc:6f:96:d5:c7:7d:29:db:26:04:9e:a2:b4:bf:
                    5a:b5:6e:f2:46:0f:29:81:c5:c0:4f:a6:87:8c:7c:
                    21:07:54:1f:50:f0:42:5c:55:7c:cf:44:2e:41:3d:
                    18:8d:5f:d9:68:e6:47:91:8f:cf:dc:7d:90:60:ff:
                    cb:48:e4:61:5e:4f:73:45:0d:c8:34:89:03:d5:fe:
                    0b:c3
                Exponent: 65537 (0x10001)
        X509v3 extensions:
            X509v3 Key Usage: critical
                Digital Signature, Non Repudiation
            X509v3 Extended Key Usage: critical
                Time Stamping
            X509v3 Basic Constraints: critical
                CA:FALSE
            X509v3 CRL Distribution Points: 

                Full Name:
                  URI:http://crls1.wosign.com/ca1.crl

            Authority Information Access: 
                OCSP - URI:http://ocsp1.wosign.com/ca1
                CA Issuers - URI:http://aia1.wosign.com/ca1-tsa.cer

            X509v3 Subject Key Identifier: 
                DF:6E:12:D5:0C:54:2E:5A:14:CA:DE:03:DE:AB:4E:D4:98:0C:46:B5
            X509v3 Authority Key Identifier: 
                keyid:E1:66:CF:0E:D1:F1:B3:4B:B7:06:20:14:FE:87:12:D5:F6:FE:FB:3E

    Signature Algorithm: sha1WithRSAEncryption
         7c:98:2f:bb:c3:d2:ae:c2:2a:8f:a6:97:76:56:86:32:c4:cd:
         36:68:8b:ec:d7:80:1a:31:79:b0:5e:56:b9:69:eb:b9:0b:32:
         a9:83:26:dc:77:5d:7a:56:b2:46:a0:7d:15:d6:6d:f9:ac:f8:
         35:73:78:36:02:60:22:20:1c:ef:18:8f:7e:66:b2:4f:e7:71:
         93:5a:2b:e6:e5:8d:3d:5d:2e:27:4b:46:cb:1d:04:f3:0b:8c:
         3f:13:a8:0d:d4:cd:e8:28:e8:2a:9c:55:c8:e3:ff:9d:a9:22:
         49:6e:e8:e7:88:92:37:57:80:60:44:18:27:43:58:18:04:6d:
         86:c0:65:47:05:57:55:50:91:e6:73:50:ee:3f:10:a9:8f:05:
         2f:da:68:11:53:6e:1f:ad:98:f3:76:3e:85:d0:57:a3:cf:e4:
         c1:1a:4c:64:06:a6:44:ab:4e:1e:e2:4b:d5:a4:6d:71:f8:6b:
         cb:66:13:a6:47:1f:21:2a:a1:ae:4c:89:a4:7d:28:77:17:4f:
         88:8d:b1:d1:5d:b1:c4:93:5a:bf:22:92:6c:ab:67:82:68:ed:
         d7:21:cb:63:bc:93:c4:17:8e:87:19:25:ad:17:54:b4:79:d2:
         a5:93:73:bc:7c:bb:e4:80:0f:8f:cc:aa:0a:d0:e4:93:75:aa:
         6c:cf:49:7d:75:ec:82:28:5c:73:f0:42:bf:9e:a6:13:2e:de:
         6c:ee:80:03:a6:ee:88:36:a0:1b:b2:82:e8:3d:bb:a6:1a:d5:
         11:ae:0a:0b:62:d6:51:36:97:23:17:52:26:ed:f1:c5:b6:21:
         75:39:15:07:e0:42:f1:2a:89:04:77:66:ad:14:04:d2:c7:d4:
         7c:4f:6c:dd:4e:dc:ed:8e:a9:f6:86:17:e7:e1:59:66:bb:d0:
         7a:d0:94:42:eb:af:c1:54:ca:e2:1a:a4:a9:b6:a5:d4:81:ca:
         15:26:fa:6f:b4:df:78:10:04:8c:48:18:bc:28:59:66:9a:b8:
         18:f1:d9:5e:5b:82:ff:fe:11:d7:d4:04:36:30:9f:51:1d:3c:
         c8:64:40:75:7c:d8:35:83:ef:b1:e5:28:76:0a:05:3d:e9:b8:
         1e:70:50:3a:60:e2:a5:01:88:88:9c:04:cc:6a:f2:15:85:d1:
         0c:b7:4a:6d:93:4e:82:ca:29:e9:75:0b:42:e4:3a:47:24:08:
         6d:80:5c:e6:6a:67:2c:b6:13:08:c9:4f:d8:66:53:b9:b6:7f:
         e2:ea:39:95:6f:71:77:96:03:af:b9:e3:cc:e3:a1:b9:f1:01:
         c6:6e:be:fc:97:5c:b2:d1:f1:7b:fb:33:c6:65:ea:e6:18:f9:
         ab:3a:27:1a:2d:20:6b:e6
-----BEGIN CERTIFICATE-----
MIIFRTCCAy2gAwIBAgIQJR9dmIGCFy48QZ4BT7BATDANBgkqhkiG9w0BAQUFADBV
MQswCQYDVQQGEwJDTjEaMBgGA1UEChMRV29TaWduIENBIExpbWl0ZWQxKjAoBgNV
BAMTIUNlcnRpZmljYXRpb24gQXV0aG9yaXR5IG9mIFdvU2lnbjAeFw0wOTA4MDgw
MTAwMDVaFw0yNDA4MDgwMTAwMDVaME8xCzAJBgNVBAYTAkNOMRowGAYDVQQKExFX
b1NpZ24gQ0EgTGltaXRlZDEkMCIGA1UEAxMbV29TaWduIFRpbWUgU3RhbXBpbmcg
U2lnbmVyMIIBIjANBgkqhkiG9w0BAQEFAAOCAQ8AMIIBCgKCAQEApdBouoLL26dt
Vbkxp9r0nGsDVE+iHO8ctZZEH1ZBP2GwA1lLgg7bFcjQzOCHxgl1ioTj7ZfCyJI0
wPFkU2BRNEiQsU+JafUuoCoWVC/AN1j/NVIbUgjPuexaJ1Jag+tosbn4sqkI80+r
Fw8uvU/lEoq/fLfnZTI7g0ECIjokO2qjPK/reUIXVnTIYWPdjC8+7zqjR1IEOwAY
riZx4HoEjXWCLWVOwbjyjN4PYwPUw1JgcoyIzG+W1cd9KdsmBJ6itL9atW7yRg8p
gcXAT6aHjHwhB1QfUPBCXFV8z0QuQT0YjV/ZaOZHkY/P3H2QYP/LSORhXk9zRQ3I
NIkD1f4LwwIDAQABo4IBFTCCAREwDgYDVR0PAQH/BAQDAgbAMBYGA1UdJQEB/wQM
MAoGCCsGAQUFBwMIMAwGA1UdEwEB/wQCMAAwMAYDVR0fBCkwJzAloCOgIYYfaHR0
cDovL2NybHMxLndvc2lnbi5jb20vY2ExLmNybDBnBggrBgEFBQcBAQRbMFkwJwYI
KwYBBQUHMAGGG2h0dHA6Ly9vY3NwMS53b3NpZ24uY29tL2NhMTAuBggrBgEFBQcw
AoYiaHR0cDovL2FpYTEud29zaWduLmNvbS9jYTEtdHNhLmNlcjAdBgNVHQ4EFgQU
324S1QxULloUyt4D3qtO1JgMRrUwHwYDVR0jBBgwFoAU4WbPDtHxs0u3BiAU/ocS
1fb++z4wDQYJKoZIhvcNAQEFBQADggIBAHyYL7vD0q7CKo+ml3ZWhjLEzTZoi+zX
gBoxebBeVrlp67kLMqmDJtx3XXpWskagfRXWbfms+DVzeDYCYCIgHO8Yj35msk/n
cZNaK+bljT1dLidLRssdBPMLjD8TqA3Uzego6CqcVcjj/52pIklu6OeIkjdXgGBE
GCdDWBgEbYbAZUcFV1VQkeZzUO4/EKmPBS/aaBFTbh+tmPN2PoXQV6PP5MEaTGQG
pkSrTh7iS9WkbXH4a8tmE6ZHHyEqoa5MiaR9KHcXT4iNsdFdscSTWr8ikmyrZ4Jo
7dchy2O8k8QXjocZJa0XVLR50qWTc7x8u+SAD4/MqgrQ5JN1qmzPSX117IIoXHPw
Qr+ephMu3mzugAOm7og2oBuygug9u6Ya1RGuCgti1lE2lyMXUibt8cW2IXU5FQfg
QvEqiQR3Zq0UBNLH1HxPbN1O3O2OqfaGF+fhWWa70HrQlELrr8FUyuIapKm2pdSB
yhUm+m+033gQBIxIGLwoWWaauBjx2V5bgv/+EdfUBDYwn1EdPMhkQHV82DWD77Hl
KHYKBT3puB5wUDpg4qUBiIicBMxq8hWF0Qy3Sm2TToLKKel1C0LkOkckCG2AXOZq
Zyy2EwjJT9hmU7m2f+LqOZVvcXeWA6+548zjobnxAcZuvvyXXLLR8Xv7M8Zl6uYY
+as6JxotIGvm
-----END CERTIFICATE-----

Certificate:
    Data:
        Version: 3 (0x2)
        Serial Number: 429783198 (0x199df89e)
    Signature Algorithm: sha1WithRSAEncryption
        Issuer: C=CN, O=WoSign eCommerce Services Limited, CN=Certification Authority of WoSign
        Validity
            Not Before: Aug  8 01:00:01 2009 GMT
            Not After : Aug  8 01:00:01 2024 GMT
        Subject: C=CN, O=WoSign eCommerce Services Limited, CN=WoSign Class 3 Code Signing CA
        Subject Public Key Info:
            Public Key Algorithm: rsaEncryption
                Public-Key: (2048 bit)
                Modulus:
                    00:d1:49:a4:48:63:b9:dd:28:60:6a:d9:17:0d:01:
                    c0:b2:58:86:4e:26:08:44:af:5f:37:84:25:44:45:
                    65:33:46:a3:8a:9f:f6:99:51:ce:d9:43:a4:7a:0e:
                    d6:f1:bf:91:24:ca:d4:24:11:01:5d:a3:3f:f3:d4:
                    9d:6f:d6:99:b1:89:ce:6a:c1:65:a1:f0:df:a3:3a:
                    93:90:80:21:2c:ba:2e:c1:67:31:1e:6b:55:38:85:
                    a8:50:47:6a:49:c4:a5:0b:0c:4b:39:35:8f:80:9d:
                    95:8c:e2:0d:63:55:6d:d6:8d:c4:3e:99:31:03:ea:
                    42:00:1c:b0:16:61:36:80:f5:df:65:3f:e2:9f:8e:
                    ec:3d:49:1b:36:e8:ea:93:d9:83:35:46:18:a5:a4:
                    16:5e:34:68:71:b7:61:5b:3a:5e:40:e2:7f:c8:e6:
                    05:85:8d:c6:db:21:ca:20:3e:2d:00:15:55:8a:7a:
                    ca:dc:90:0a:5a:92:06:90:06:d6:6c:04:2c:8c:d5:
                    9b:0e:b2:d4:a7:e3:30:bf:4e:b8:67:c1:69:c6:70:
                    34:46:6c:66:ab:f2:ff:5f:35:da:13:3f:79:19:19:
                    99:c2:3f:57:db:5a:40:fd:53:bd:08:63:d7:c9:79:
                    cf:d3:b4:a2:09:e0:3f:55:c1:2b:1b:9f:37:fb:e1:
                    b3:ad
                Exponent: 65537 (0x10001)
        X509v3 extensions:
            X509v3 Basic Constraints: critical
                CA:TRUE, pathlen:0
            X509v3 Key Usage: critical
                Certificate Sign, CRL Sign
            X509v3 Subject Key Identifier: 
                F5:02:AA:4B:D3:E0:1A:8E:77:50:D6:1A:BB:EB:DF:B9:83:70:B0:4E
            X509v3 Authority Key Identifier: 
                keyid:E1:66:CF:0E:D1:F1:B3:4B:B7:06:20:14:FE:87:12:D5:F6:FE:FB:3E

            Authority Information Access: 
                OCSP - URI:http://ocsp.wosign.com/ca
                CA Issuers - URI:http://aia.wosign.com/class3-code.cer

            X509v3 CRL Distribution Points: 

                Full Name:
                  URI:http://crls.wosign.com/ca.crl

            X509v3 Certificate Policies: 
                Policy: 0.0
                  CPS: http://www.wosign.com/policy/

    Signature Algorithm: sha1WithRSAEncryption
         48:0e:f1:13:f5:78:69:92:d2:1a:32:b9:7a:4d:eb:cd:5e:6d:
         f7:b5:53:ec:f4:00:a9:fa:af:86:12:0d:f5:e1:d2:e4:72:f9:
         58:c4:56:02:a9:b9:c2:b5:4a:7b:73:ec:57:1e:6b:48:56:54:
         f3:78:53:61:4b:a8:af:33:26:66:6f:6b:dc:34:36:45:52:00:
         ab:24:ce:d0:f5:37:f9:6c:04:8e:47:1a:de:db:64:5e:c0:d3:
         0d:2d:af:a4:dd:72:96:b9:f1:bc:aa:ba:bc:2c:3e:70:54:2a:
         e6:56:ed:81:45:80:b5:fe:c8:67:29:13:11:fe:5c:4b:29:73:
         79:2d:49:dd:7b:e0:74:f5:99:96:ac:8d:f5:16:6e:b7:c7:55:
         f7:53:ae:d6:77:12:58:df:ee:82:2d:84:93:8d:7d:60:2b:eb:
         30:eb:1f:b5:b3:29:3b:77:34:dd:5b:da:92:1b:f1:30:57:77:
         f2:d6:f9:00:12:24:4e:00:90:e9:e3:7b:f3:6f:57:b5:ef:0d:
         bb:57:12:00:c2:f6:c7:37:d5:8e:78:af:dc:78:45:bd:44:d6:
         1e:9e:17:cd:4d:bf:53:4c:ab:b5:67:9c:d2:75:3d:8f:57:4d:
         b8:64:5d:2f:08:5c:e1:a7:93:4c:72:00:6f:05:aa:69:67:0f:
         7d:09:9e:48:e1:c4:54:87:07:54:31:67:ec:79:84:ec:14:7a:
         c3:2e:4a:65:03:01:3a:8d:70:07:e4:f4:f5:50:d6:e9:e6:97:
         17:87:1c:84:9f:8a:ec:24:4e:6f:0d:4d:44:28:6c:41:16:6d:
         27:9f:df:29:e5:f7:d7:bf:28:6d:00:3f:6b:2b:d7:f3:ef:ed:
         49:04:6f:ed:7c:3e:4f:a6:f0:1d:4c:f5:99:18:c7:4b:f4:82:
         c6:00:41:b9:e8:55:d6:1e:ec:33:fe:f1:9f:0f:bf:77:4b:65:
         dc:5c:ef:8d:10:a8:72:25:7e:cc:93:01:de:d2:97:89:f9:df:
         7d:24:58:69:40:51:e0:e3:e0:d7:b8:cc:ca:7e:42:00:93:8a:
         00:26:c0:da:6f:1e:e0:b4:ad:a5:af:49:5c:02:28:e8:eb:80:
         8e:1d:64:a0:35:ca:b6:20:72:fe:d5:bf:51:2b:5b:bd:3f:3d:
         9c:3a:08:6e:17:4c:0c:c5:90:9e:0b:74:6a:23:d6:61:25:80:
         1a:49:8b:e4:40:6e:e6:97:41:25:cf:bc:ae:04:77:f5:0e:c4:
         e5:0b:37:ac:ae:b0:ff:3c:3e:73:8c:6e:91:7f:49:f2:28:64:
         46:c6:30:93:71:dd:17:10:d8:a4:bb:50:99:81:54:8d:9b:e1:
         b6:e9:a4:24:b7:a6:1c:b9
-----BEGIN CERTIFICATE-----
MIIFhjCCA26gAwIBAgIEGZ34njANBgkqhkiG9w0BAQUFADBlMQswCQYDVQQGEwJD
TjEqMCgGA1UEChMhV29TaWduIGVDb21tZXJjZSBTZXJ2aWNlcyBMaW1pdGVkMSow
KAYDVQQDEyFDZXJ0aWZpY2F0aW9uIEF1dGhvcml0eSBvZiBXb1NpZ24wHhcNMDkw
ODA4MDEwMDAxWhcNMjQwODA4MDEwMDAxWjBiMQswCQYDVQQGEwJDTjEqMCgGA1UE
ChMhV29TaWduIGVDb21tZXJjZSBTZXJ2aWNlcyBMaW1pdGVkMScwJQYDVQQDEx5X
b1NpZ24gQ2xhc3MgMyBDb2RlIFNpZ25pbmcgQ0EwggEiMA0GCSqGSIb3DQEBAQUA
A4IBDwAwggEKAoIBAQDRSaRIY7ndKGBq2RcNAcCyWIZOJghEr183hCVERWUzRqOK
n/aZUc7ZQ6R6Dtbxv5EkytQkEQFdoz/z1J1v1pmxic5qwWWh8N+jOpOQgCEsui7B
ZzEea1U4hahQR2pJxKULDEs5NY+AnZWM4g1jVW3WjcQ+mTED6kIAHLAWYTaA9d9l
P+Kfjuw9SRs26OqT2YM1RhilpBZeNGhxt2FbOl5A4n/I5gWFjcbbIcogPi0AFVWK
esrckApakgaQBtZsBCyM1ZsOstSn4zC/TrhnwWnGcDRGbGar8v9fNdoTP3kZGZnC
P1fbWkD9U70IY9fJec/TtKIJ4D9VwSsbnzf74bOtAgMBAAGjggE/MIIBOzASBgNV
HRMBAf8ECDAGAQH/AgEAMA4GA1UdDwEB/wQEAwIBBjAdBgNVHQ4EFgQU9QKqS9Pg
Go53UNYau+vfuYNwsE4wHwYDVR0jBBgwFoAU4WbPDtHxs0u3BiAU/ocS1fb++z4w
aAYIKwYBBQUHAQEEXDBaMCUGCCsGAQUFBzABhhlodHRwOi8vb2NzcC53b3NpZ24u
Y29tL2NhMDEGCCsGAQUFBzAChiVodHRwOi8vYWlhLndvc2lnbi5jb20vY2xhc3Mz
LWNvZGUuY2VyMC4GA1UdHwQnMCUwI6AhoB+GHWh0dHA6Ly9jcmxzLndvc2lnbi5j
b20vY2EuY3JsMDsGA1UdIAQ0MDIwMAYBADArMCkGCCsGAQUFBwIBFh1odHRwOi8v
d3d3Lndvc2lnbi5jb20vcG9saWN5LzANBgkqhkiG9w0BAQUFAAOCAgEASA7xE/V4
aZLSGjK5ek3rzV5t97VT7PQAqfqvhhIN9eHS5HL5WMRWAqm5wrVKe3PsVx5rSFZU
83hTYUuorzMmZm9r3DQ2RVIAqyTO0PU3+WwEjkca3ttkXsDTDS2vpN1ylrnxvKq6
vCw+cFQq5lbtgUWAtf7IZykTEf5cSylzeS1J3XvgdPWZlqyN9RZut8dV91Ou1ncS
WN/ugi2Ek419YCvrMOsftbMpO3c03VvakhvxMFd38tb5ABIkTgCQ6eN7829Xte8N
u1cSAML2xzfVjniv3HhFvUTWHp4XzU2/U0yrtWec0nU9j1dNuGRdLwhc4aeTTHIA
bwWqaWcPfQmeSOHEVIcHVDFn7HmE7BR6wy5KZQMBOo1wB+T09VDW6eaXF4cchJ+K
7CRObw1NRChsQRZtJ5/fKeX3178obQA/ayvX8+/tSQRv7Xw+T6bwHUz1mRjHS/SC
xgBBuehV1h7sM/7xnw+/d0tl3FzvjRCociV+zJMB3tKXifnffSRYaUBR4OPg17jM
yn5CAJOKACbA2m8e4LStpa9JXAIo6OuAjh1koDXKtiBy/tW/UStbvT89nDoIbhdM
DMWQngt0aiPWYSWAGkmL5EBu5pdBJc+8rgR39Q7E5Qs3rK6w/zw+c4xukX9J8ihk
RsYwk3HdFxDYpLtQmYFUjZvhtumkJLemHLk=
-----END CERTIFICATE-----

Certificate:
    Data:
        Version: 3 (0x2)
        Serial Number: 9521927624239086 (0x21d424899ea7ee)
    Signature Algorithm: sha1WithRSAEncryption
        Issuer: C=CN, O=WoSign eCommerce Services Limited, CN=WoSign Class 3 Code Signing CA
        Validity
            Not Before: Jul  9 20:17:03 2013 GMT
            Not After : Oct 13 03:04:31 2016 GMT
        Subject: C=CN, ST=\xE4\xB8\x8A\xE6\xB5\xB7\xE5\xB8\x82, L=\xE4\xB8\x8A\xE6\xB5\xB7\xE5\xB8\x82, O=\xE4\xB8\x8A\xE6\xB5\xB7\xE5\xA4\xA9\xE6\x88\x8F\xE7\xBD\x91\xE7\xBB\x9C\xE6\x8A\x80\xE6\x9C\xAF\xE6\x9C\x89\xE9\x99\x90\xE5\x85\xAC\xE5\x8F\xB8, CN=\xE4\xB8\x8A\xE6\xB5\xB7\xE5\xA4\xA9\xE6\x88\x8F\xE7\xBD\x91\xE7\xBB\x9C\xE6\x8A\x80\xE6\x9C\xAF\xE6\x9C\x89\xE9\x99\x90\xE5\x85\xAC\xE5\x8F\xB8/emailAddress=tci@10sea.com
        Subject Public Key Info:
            Public Key Algorithm: rsaEncryption
                Public-Key: (2048 bit)
                Modulus:
                    00:a6:06:02:dd:a2:ed:7d:71:10:80:7b:c3:2f:04:
                    16:e8:b3:3d:38:e7:2d:d4:2e:d6:43:fe:bc:99:11:
                    3c:b0:6e:ec:70:8c:60:26:28:6d:4f:a3:b3:e1:6b:
                    5c:a8:e8:79:26:3a:b3:8f:56:e2:b3:7a:30:6b:60:
                    8b:8c:85:3f:26:5f:b6:a4:d3:ef:0f:46:2a:36:cb:
                    d6:0e:88:8a:9c:ee:72:f5:a5:59:b3:a7:2b:91:d7:
                    4f:10:7f:5b:f5:6a:cc:e1:bd:c9:8c:a9:a0:7a:ef:
                    e9:68:bc:b0:7b:4c:79:08:08:52:5a:8e:f1:4f:ce:
                    1a:e5:67:cb:9c:fd:26:23:36:18:4f:14:70:4a:bd:
                    5a:f3:21:8e:dd:28:22:cb:07:58:12:b2:5a:49:db:
                    3c:23:a2:78:88:8e:74:78:5f:92:a5:3e:36:f5:36:
                    3c:de:81:91:77:2d:5c:d2:1d:f8:59:7d:46:f7:14:
                    d7:50:27:77:bb:58:40:5a:7b:45:23:c8:e2:41:9b:
                    7c:68:f0:18:bf:a6:69:51:3e:a0:ee:04:81:5b:7b:
                    1a:d7:1b:72:c4:76:28:0a:f4:0b:49:15:25:82:a1:
                    66:5d:9d:4f:54:8b:eb:03:f7:0e:21:e3:f0:ff:d2:
                    db:80:f6:83:df:bc:09:c7:b3:b3:44:96:21:95:b0:
                    39:2d
                Exponent: 65537 (0x10001)
        X509v3 extensions:
            X509v3 Basic Constraints: critical
                CA:FALSE, pathlen:0
            X509v3 Key Usage: critical
                Digital Signature
            X509v3 Extended Key Usage: 
                Code Signing, Microsoft Commercial Code Signing
            X509v3 Subject Key Identifier: 
                5B:54:D2:77:37:73:C0:38:4A:F0:BA:C8:1B:8E:25:3C:C2:EC:E8:76
            X509v3 Authority Key Identifier: 
                keyid:F5:02:AA:4B:D3:E0:1A:8E:77:50:D6:1A:BB:EB:DF:B9:83:70:B0:4E

            X509v3 Certificate Policies: 
                Policy: 1.3.6.1.4.1.36305.1.3.3.1.2
                  CPS: http://www.wosign.com/policy/
                  User Notice:
                    Organization: WoSign eCommerce Services Limited
                    Number: 1
                    Explicit Text: Limited Liability, see the WoSign Certification Authority Policy at http://www.wosign.com/policy/

            X509v3 CRL Distribution Points: 

                Full Name:
                  URI:http://crls.wosign.com/code-3.crl

            Authority Information Access: 
                OCSP - URI:http://ocsp.wosign.com/class3/code/ca
                CA Issuers - URI:http://aia.wosign.com/class3.code.ca.cer

            X509v3 Issuer Alternative Name: 
                URI:http://www.wosign.com/
    Signature Algorithm: sha1WithRSAEncryption
         1d:c5:32:76:81:e4:c1:99:b5:1f:cf:6e:89:9d:c8:54:9a:12:
         78:02:0a:e2:61:b7:8e:82:fb:ee:d9:be:15:65:a0:ca:2d:dc:
         e6:11:b7:1c:e8:64:a7:b1:51:24:c5:a5:df:8a:02:5e:31:7f:
         ea:8a:b7:38:12:e5:ba:a5:94:e4:eb:2f:d2:70:5b:ba:19:fb:
         88:c6:ca:87:15:33:a2:4e:21:17:bb:58:37:0a:2a:3a:7e:8b:
         49:b8:32:b6:9d:40:90:3e:23:fa:cd:45:94:35:8b:30:60:89:
         54:5d:25:e0:63:02:f5:2e:92:94:82:50:0b:b8:7b:1a:4e:fd:
         65:fd:31:02:a9:ad:c5:66:c6:da:6e:44:5a:3a:cb:84:48:b0:
         7c:54:f1:47:7d:c1:02:17:3b:33:b4:dd:9f:f1:1d:19:65:cd:
         c8:71:7c:bc:ed:42:c6:33:d9:08:36:fe:ff:42:19:f2:d9:76:
         46:87:b2:3a:bb:05:66:97:ff:05:db:68:8b:19:9a:1b:59:d7:
         1c:60:cf:5f:82:d4:da:26:4b:93:98:23:b7:83:e6:2b:d3:f3:
         50:f2:4e:2d:5e:b2:1f:af:ba:1d:1f:b9:4e:01:88:5b:f8:af:
         a1:bd:42:6a:fe:f0:32:45:ff:f0:84:af:b5:6c:e3:4b:39:08:
         c8:e3:fb:e4
-----BEGIN CERTIFICATE-----
MIIF2DCCBMCgAwIBAgIHIdQkiZ6n7jANBgkqhkiG9w0BAQUFADBiMQswCQYDVQQG
EwJDTjEqMCgGA1UEChMhV29TaWduIGVDb21tZXJjZSBTZXJ2aWNlcyBMaW1pdGVk
MScwJQYDVQQDEx5Xb1NpZ24gQ2xhc3MgMyBDb2RlIFNpZ25pbmcgQ0EwHhcNMTMw
NzA5MjAxNzAzWhcNMTYxMDEzMDMwNDMxWjCBsTELMAkGA1UEBhMCQ04xEjAQBgNV
BAgMCeS4iua1t+W4gjESMBAGA1UEBwwJ5LiK5rW35biCMS0wKwYDVQQKDCTkuIrm
tbflpKnmiI/nvZHnu5zmioDmnK/mnInpmZDlhazlj7gxLTArBgNVBAMMJOS4iua1
t+WkqeaIj+e9kee7nOaKgOacr+aciemZkOWFrOWPuDEcMBoGCSqGSIb3DQEJARYN
dGNpQDEwc2VhLmNvbTCCASIwDQYJKoZIhvcNAQEBBQADggEPADCCAQoCggEBAKYG
At2i7X1xEIB7wy8EFuizPTjnLdQu1kP+vJkRPLBu7HCMYCYobU+js+FrXKjoeSY6
s49W4rN6MGtgi4yFPyZftqTT7w9GKjbL1g6IipzucvWlWbOnK5HXTxB/W/VqzOG9
yYypoHrv6Wi8sHtMeQgIUlqO8U/OGuVny5z9JiM2GE8UcEq9WvMhjt0oIssHWBKy
WknbPCOieIiOdHhfkqU+NvU2PN6BkXctXNId+Fl9RvcU11And7tYQFp7RSPI4kGb
fGjwGL+maVE+oO4EgVt7GtcbcsR2KAr0C0kVJYKhZl2dT1SL6wP3DiHj8P/S24D2
g9+8Ccezs0SWIZWwOS0CAwEAAaOCAkEwggI9MA8GA1UdEwEB/wQFMAMCAQAwDgYD
VR0PAQH/BAQDAgeAMB8GA1UdJQQYMBYGCCsGAQUFBwMDBgorBgEEAYI3AgEWMB0G
A1UdDgQWBBRbVNJ3N3PAOErwusgbjiU8wuzodjAfBgNVHSMEGDAWgBT1AqpL0+Aa
jndQ1hq769+5g3CwTjCB6AYDVR0gBIHgMIHdMIHaBg0rBgEEAYKbUQEDAwECMIHI
MCkGCCsGAQUFBwIBFh1odHRwOi8vd3d3Lndvc2lnbi5jb20vcG9saWN5LzCBmgYI
KwYBBQUHAgIwgY0wKBYhV29TaWduIGVDb21tZXJjZSBTZXJ2aWNlcyBMaW1pdGVk
MAMCAQEaYUxpbWl0ZWQgTGlhYmlsaXR5LCBzZWUgdGhlIFdvU2lnbiBDZXJ0aWZp
Y2F0aW9uIEF1dGhvcml0eSBQb2xpY3kgYXQgaHR0cDovL3d3dy53b3NpZ24uY29t
L3BvbGljeS8wMgYDVR0fBCswKTAnoCWgI4YhaHR0cDovL2NybHMud29zaWduLmNv
bS9jb2RlLTMuY3JsMHcGCCsGAQUFBwEBBGswaTAxBggrBgEFBQcwAYYlaHR0cDov
L29jc3Aud29zaWduLmNvbS9jbGFzczMvY29kZS9jYTA0BggrBgEFBQcwAoYoaHR0
cDovL2FpYS53b3NpZ24uY29tL2NsYXNzMy5jb2RlLmNhLmNlcjAhBgNVHRIEGjAY
hhZodHRwOi8vd3d3Lndvc2lnbi5jb20vMA0GCSqGSIb3DQEBBQUAA4IBAQAdxTJ2
geTBmbUfz26JnchUmhJ4AgriYbeOgvvu2b4VZaDKLdzmEbcc6GSnsVEkxaXfigJe
MX/qirc4EuW6pZTk6y/ScFu6GfuIxsqHFTOiTiEXu1g3Cio6fotJuDK2nUCQPiP6
zUWUNYswYIlUXSXgYwL1LpKUglALuHsaTv1l/TECqa3FZsbabkRaOsuESLB8VPFH
fcECFzsztN2f8R0ZZc3IcXy87ULGM9kINv7/Qhny2XZGh7I6uwVml/8F22iLGZob
WdccYM9fgtTaJkuTmCO3g+Yr0/NQ8k4tXrIfr7odH7lOAYhb+K+hvUJq/vAyRf/w
hK+1bONLOQjI4/vk
-----END CERTIFICATE-----

Certificate:
    Data:
        Version: 3 (0x2)
        Serial Number: 61 (0x3d)
    Signature Algorithm: sha1WithRSAEncryption
        Issuer: C=IL, O=StartCom Ltd., OU=Secure Digital Certificate Signing, CN=StartCom Certification Authority
        Validity
            Not Before: Mar  1 01:00:01 2011 GMT
            Not After : Mar  1 01:00:01 2016 GMT
        Subject: C=CN, O=WoSign eCommerce Services Limited, CN=Certification Authority of WoSign
        Subject Public Key Info:
            Public Key Algorithm: rsaEncryption
                Public-Key: (4096 bit)
                Modulus:
                    00:bd:ca:8d:ac:b8:91:15:56:97:7b:6b:5c:7a:c2:
                    de:6b:d9:a1:b0:c3:10:23:fa:a7:a1:b2:cc:31:fa:
                    3e:d9:a6:29:6f:16:3d:e0:6b:f8:b8:40:5f:db:39:
                    a8:00:7a:8b:a0:4d:54:7d:c2:22:78:fc:8e:09:b8:
                    a8:85:d7:cc:95:97:4b:74:d8:9e:7e:f0:00:e4:0e:
                    89:ae:49:28:44:1a:10:99:32:0f:25:88:53:a4:0d:
                    b3:0f:12:08:16:0b:03:71:27:1c:7f:e1:db:d2:fd:
                    67:68:c4:05:5d:0a:0e:5d:70:d7:d8:97:a0:bc:53:
                    41:9a:91:8d:f4:9e:36:66:7a:7e:56:c1:90:5f:e6:
                    b1:68:20:36:a4:8c:24:2c:2c:47:0b:59:76:66:30:
                    b5:be:de:ed:8f:f8:9d:d3:bb:01:30:e6:f2:f3:0e:
                    e0:2c:92:80:f3:85:f9:28:8a:b4:54:2e:9a:ed:f7:
                    76:fc:15:68:16:eb:4a:6c:eb:2e:12:8f:d4:cf:fe:
                    0c:c7:5c:1d:0b:7e:05:32:be:5e:b0:09:2a:42:d5:
                    c9:4e:90:b3:59:0d:bb:7a:7e:cd:d5:08:5a:b4:7f:
                    d8:1c:69:11:f9:27:0f:7b:06:af:54:83:18:7b:e1:
                    dd:54:7a:51:68:6e:77:fc:c6:bf:52:4a:66:46:a1:
                    b2:67:1a:bb:a3:4f:77:a0:be:5d:ff:fc:56:0b:43:
                    72:77:90:ca:9e:f9:f2:39:f5:0d:a9:f4:ea:d7:e7:
                    b3:10:2f:30:42:37:21:cc:30:70:c9:86:98:0f:cc:
                    58:4d:83:bb:7d:e5:1a:a5:37:8d:b6:ac:32:97:00:
                    3a:63:71:24:1e:9e:37:c4:ff:74:d4:37:c0:e2:fe:
                    88:46:60:11:dd:08:3f:50:36:ab:b8:7a:a4:95:62:
                    6a:6e:b0:ca:6a:21:5a:69:f3:f3:fb:1d:70:39:95:
                    f3:a7:6e:a6:81:89:a1:88:c5:3b:71:ca:a3:52:ee:
                    83:bb:fd:a0:77:f4:e4:6f:e7:42:db:6d:4a:99:8a:
                    34:48:bc:17:dc:e4:80:08:22:b6:f2:31:c0:3f:04:
                    3e:eb:9f:20:79:d6:b8:06:64:64:02:31:d7:a9:cd:
                    52:fb:84:45:69:09:00:2a:dc:55:8b:c4:06:46:4b:
                    c0:4a:1d:09:5b:39:28:fd:a9:ab:ce:00:f9:2e:48:
                    4b:26:e6:30:4c:a5:58:ca:b4:44:82:4f:e7:91:1e:
                    33:c3:b0:93:ff:11:fc:81:d2:ca:1f:71:29:dd:76:
                    4f:92:25:af:1d:81:b7:0f:2f:8c:c3:06:cc:2f:27:
                    a3:4a:e4:0e:99:ba:7c:1e:45:1f:7f:aa:19:45:96:
                    fd:fc:3d
                Exponent: 65537 (0x10001)
        X509v3 extensions:
            X509v3 Basic Constraints: critical
                CA:TRUE, pathlen:2
            X509v3 Key Usage: critical
                Certificate Sign, CRL Sign
            X509v3 Subject Key Identifier: 
                E1:66:CF:0E:D1:F1:B3:4B:B7:06:20:14:FE:87:12:D5:F6:FE:FB:3E
            X509v3 Authority Key Identifier: 
                keyid:4E:0B:EF:1A:A4:40:5B:A5:17:69:87:30:CA:34:68:43:D0:41:AE:F2

            Authority Information Access: 
                OCSP - URI:http://ocsp.startssl.com/ca
                CA Issuers - URI:http://aia.startssl.com/certs/ca.crt

            X509v3 CRL Distribution Points: 

                Full Name:
                  URI:http://crl.startssl.com/sfsca.crl

    Signature Algorithm: sha1WithRSAEncryption
         39:d0:c2:56:05:6d:c4:a1:32:f8:bf:c6:55:e0:6a:4d:82:99:
         dd:27:68:6d:69:15:dc:ff:7e:eb:51:bd:b6:b7:a6:3d:85:ff:
         82:15:5c:6a:0b:c1:05:6b:8a:4d:1a:3e:ba:77:7f:93:db:86:
         13:bb:ca:d9:1c:9e:20:60:38:46:5f:9a:c9:fb:ac:01:e4:5b:
         18:48:dd:e0:70:ac:5d:51:ba:e9:c2:7d:73:4f:c2:ff:3a:ba:
         21:9b:3e:e0:a6:a3:4d:f9:db:b4:15:26:53:6c:1a:c0:af:31:
         89:09:ce:fc:f0:72:e8:8a:2e:c0:89:07:f7:e8:86:1c:b3:b0:
         ff:22:c5:a6:64:2b:24:4e:f6:c2:b1:c3:d4:18:26:f2:66:46:
         9b:f2:38:97:58:ee:af:05:cb:bd:42:f2:d5:73:62:7a:0b:a8:
         a9:3e:ee:74:25:e7:a8:58:ef:59:eb:7f:48:ed:1a:dd:ba:7b:
         ce:0c:08:7b:20:b1:88:04:df:7f:7e:f2:ed:81:5a:a3:68:18:
         9f:ce:75:38:30:21:95:34:5d:64:e0:9e:52:2a:50:f7:3a:25:
         53:6f:da:39:e8:f3:b7:be:6f:5d:96:12:1b:b1:f1:c0:ef:63:
         0e:b5:ab:64:9c:4e:28:d5:47:a1:d2:e4:03:4b:ff:f6:6a:14:
         56:1b:09:87:c5:ce:23:95:e2:25:70:c4:50:67:c2:e4:29:a1:
         8c:10:7f:7b:d7:3b:5e:c3:d3:fc:71:a1:d1:07:d1:e2:12:5a:
         74:6c:2c:d7:f1:0d:87:21:ea:c3:cb:e0:46:90:41:2b:23:e0:
         02:c4:20:d9:ef:8e:f6:76:c9:e6:67:0d:1c:27:ca:c1:e9:a5:
         3d:f1:11:4c:fc:8b:a3:52:44:f0:90:39:94:6c:f0:48:2f:c1:
         e9:54:92:66:bb:57:35:1f:2f:62:39:55:aa:f0:93:bb:23:b1:
         b4:68:51:89:81:2d:0f:bb:ec:60:1c:de:d9:dc:c9:e4:6e:91:
         af:9c:6d:84:5e:1a:13:48:8d:c1:db:da:d2:7f:80:72:11:e2:
         5a:32:e3:16:0b:73:5e:9b:8c:54:47:c3:b9:cf:6c:88:a4:4e:
         c2:b3:fa:1e:d3:14:5d:6d:5a:ae:7f:a1:70:ad:ca:24:d6:4f:
         88:e1:14:33:44:0e:91:0b:e0:2f:56:ae:b4:92:86:ee:e4:3e:
         e2:65:a9:c2:2d:a8:2b:51:41:61:23:0e:d1:dc:6b:4f:1c:4d:
         57:e7:53:b0:5d:6a:93:c4:00:a2:09:19:ee:e6:2c:1e:d1:6f:
         34:c3:6c:07:dc:12:91:b3:bf:9d:26:15:35:24:7b:36:db:be:
         23:8c:53:3e:21:6b:85:f8
-----BEGIN CERTIFICATE-----
MIIGZjCCBE6gAwIBAgIBPTANBgkqhkiG9w0BAQUFADB9MQswCQYDVQQGEwJJTDEW
MBQGA1UEChMNU3RhcnRDb20gTHRkLjErMCkGA1UECxMiU2VjdXJlIERpZ2l0YWwg
Q2VydGlmaWNhdGUgU2lnbmluZzEpMCcGA1UEAxMgU3RhcnRDb20gQ2VydGlmaWNh
dGlvbiBBdXRob3JpdHkwHhcNMTEwMzAxMDEwMDAxWhcNMTYwMzAxMDEwMDAxWjBl
MQswCQYDVQQGEwJDTjEqMCgGA1UEChMhV29TaWduIGVDb21tZXJjZSBTZXJ2aWNl
cyBMaW1pdGVkMSowKAYDVQQDEyFDZXJ0aWZpY2F0aW9uIEF1dGhvcml0eSBvZiBX
b1NpZ24wggIiMA0GCSqGSIb3DQEBAQUAA4ICDwAwggIKAoICAQC9yo2suJEVVpd7
a1x6wt5r2aGwwxAj+qehsswx+j7ZpilvFj3ga/i4QF/bOagAeougTVR9wiJ4/I4J
uKiF18yVl0t02J5+8ADkDomuSShEGhCZMg8liFOkDbMPEggWCwNxJxx/4dvS/Wdo
xAVdCg5dcNfYl6C8U0GakY30njZmen5WwZBf5rFoIDakjCQsLEcLWXZmMLW+3u2P
+J3TuwEw5vLzDuAskoDzhfkoirRULprt93b8FWgW60ps6y4Sj9TP/gzHXB0LfgUy
vl6wCSpC1clOkLNZDbt6fs3VCFq0f9gcaRH5Jw97Bq9Ugxh74d1UelFobnf8xr9S
SmZGobJnGrujT3egvl3//FYLQ3J3kMqe+fI59Q2p9OrX57MQLzBCNyHMMHDJhpgP
zFhNg7t95RqlN422rDKXADpjcSQenjfE/3TUN8Di/ohGYBHdCD9QNqu4eqSVYmpu
sMpqIVpp8/P7HXA5lfOnbqaBiaGIxTtxyqNS7oO7/aB39ORv50LbbUqZijRIvBfc
5IAIIrbyMcA/BD7rnyB51rgGZGQCMdepzVL7hEVpCQAq3FWLxAZGS8BKHQlbOSj9
qavOAPkuSEsm5jBMpVjKtESCT+eRHjPDsJP/EfyB0sofcSnddk+SJa8dgbcPL4zD
BswvJ6NK5A6ZunweRR9/qhlFlv38PQIDAQABo4IBBzCCAQMwEgYDVR0TAQH/BAgw
BgEB/wIBAjAOBgNVHQ8BAf8EBAMCAQYwHQYDVR0OBBYEFOFmzw7R8bNLtwYgFP6H
EtX2/vs+MB8GA1UdIwQYMBaAFE4L7xqkQFulF2mHMMo0aEPQQa7yMGkGCCsGAQUF
BwEBBF0wWzAnBggrBgEFBQcwAYYbaHR0cDovL29jc3Auc3RhcnRzc2wuY29tL2Nh
MDAGCCsGAQUFBzAChiRodHRwOi8vYWlhLnN0YXJ0c3NsLmNvbS9jZXJ0cy9jYS5j
cnQwMgYDVR0fBCswKTAnoCWgI4YhaHR0cDovL2NybC5zdGFydHNzbC5jb20vc2Zz
Y2EuY3JsMA0GCSqGSIb3DQEBBQUAA4ICAQA50MJWBW3EoTL4v8ZV4GpNgpndJ2ht
aRXc/37rUb22t6Y9hf+CFVxqC8EFa4pNGj66d3+T24YTu8rZHJ4gYDhGX5rJ+6wB
5FsYSN3gcKxdUbrpwn1zT8L/Orohmz7gpqNN+du0FSZTbBrArzGJCc788HLoii7A
iQf36IYcs7D/IsWmZCskTvbCscPUGCbyZkab8jiXWO6vBcu9QvLVc2J6C6ipPu50
JeeoWO9Z639I7RrdunvODAh7ILGIBN9/fvLtgVqjaBifznU4MCGVNF1k4J5SKlD3
OiVTb9o56PO3vm9dlhIbsfHA72MOtatknE4o1Ueh0uQDS//2ahRWGwmHxc4jleIl
cMRQZ8LkKaGMEH971ztew9P8caHRB9HiElp0bCzX8Q2HIerDy+BGkEErI+ACxCDZ
7472dsnmZw0cJ8rB6aU98RFM/IujUkTwkDmUbPBIL8HpVJJmu1c1Hy9iOVWq8JO7
I7G0aFGJgS0Pu+xgHN7Z3MnkbpGvnG2EXhoTSI3B29rSf4ByEeJaMuMWC3Nem4xU
R8O5z2yIpE7Cs/oe0xRdbVquf6Fwrcok1k+I4RQzRA6RC+AvVq60kobu5D7iZanC
LagrUUFhIw7R3GtPHE1X51OwXWqTxACiCRnu5iwe0W80w2wH3BKRs7+dJhU1JHs2
274jjFM+IWuF+A==
-----END CERTIFICATE-----

