Certificate:
    Data:
        Version: 3 (0x2)
        Serial Number:
            19:88:94:69:f6:67:12:e6:65:45:78:c5:38:44:c7:c1
    Signature Algorithm: sha256WithRSAEncryption
        Issuer: C=US, O=Symantec Corporation, OU=Symantec Trust Network, CN=Symantec Class 3 SHA256 Code Signing CA
        Validity
            Not Before: Jan 13 00:00:00 2016 GMT
            Not After : Aug 19 23:59:59 2017 GMT
        Subject: C=CN, ST=HuNan, L=ChangSha, O=Driver Information Technology Co., Ltd., CN=Driver Information Technology Co., Ltd.
        Subject Public Key Info:
            Public Key Algorithm: rsaEncryption
                Public-Key: (2048 bit)
                Modulus:
                    00:9e:4a:17:bf:1f:77:2c:87:16:a7:47:e0:b4:5f:
                    71:0c:8e:c4:53:88:c1:87:2d:ed:f3:fe:2f:84:b8:
                    85:41:01:66:73:91:21:fd:7b:56:52:c7:d4:59:b6:
                    34:3b:d7:d8:5e:21:b4:51:2d:7e:48:5a:75:1a:fa:
                    1a:4d:86:c5:4e:1f:95:88:ac:76:ee:17:e0:2c:6e:
                    d8:9f:9a:57:f9:e9:a4:4c:6a:b3:88:5a:af:9b:51:
                    4a:d4:73:5d:5c:b3:2b:7c:b1:af:2a:d7:dd:b6:8b:
                    87:bd:a5:8b:3d:e0:62:a7:11:5f:1e:0f:12:b8:5b:
                    10:4e:e1:d5:f7:25:e7:77:d6:cd:e5:66:20:19:61:
                    2e:c9:64:a9:b8:f3:d7:34:d5:6c:ff:9b:93:48:2f:
                    2f:ca:52:c6:31:0a:57:36:8c:14:b2:b7:19:ca:d6:
                    a5:c1:0b:90:4c:81:50:f1:14:5b:4e:a7:20:c7:31:
                    b3:98:3a:c9:28:95:5c:c5:7a:ce:11:3e:c1:b7:42:
                    9e:1a:0d:06:89:7e:82:bc:53:27:24:b1:11:eb:45:
                    f4:dd:02:df:c8:61:25:5e:dd:5d:43:74:e1:1f:31:
                    71:23:6a:66:cf:9b:49:d5:94:2b:65:0c:5f:8b:34:
                    72:b5:00:37:92:34:ce:55:bf:3b:59:9b:76:8f:45:
                    0f:9f
                Exponent: 65537 (0x10001)
        X509v3 extensions:
            X509v3 Basic Constraints: 
                CA:FALSE
            X509v3 Key Usage: critical
                Digital Signature
            X509v3 CRL Distribution Points: 

                Full Name:
                  URI:http://sv.symcb.com/sv.crl

            X509v3 Certificate Policies: 
                Policy: 2.16.840.1.113733.1.7.23.3
                  CPS: https://d.symcb.com/cps
                  User Notice:
                    Explicit Text: https://d.symcb.com/rpa

            X509v3 Extended Key Usage: 
                Code Signing
            Authority Information Access: 
                OCSP - URI:http://sv.symcd.com
                CA Issuers - URI:http://sv.symcb.com/sv.crt

            X509v3 Authority Key Identifier: 
                keyid:96:3B:53:F0:79:33:97:AF:7D:83:EF:2E:2B:CC:CA:B7:86:1E:72:66

            X509v3 Subject Key Identifier: 
                37:A8:CA:0A:A2:05:14:57:8F:1D:83:C0:C9:A3:D1:5C:D7:DE:EB:B9
    Signature Algorithm: sha256WithRSAEncryption
         15:53:5a:62:e9:33:37:0e:23:47:a4:0a:47:ef:88:a0:64:be:
         1e:a0:fb:71:21:09:a6:fd:38:56:f4:f3:47:62:77:a2:06:62:
         07:58:65:c2:58:fb:38:a2:8b:8e:e0:e5:b5:c9:82:2c:c3:7b:
         d8:51:0b:69:cb:91:59:b5:fe:0a:17:4e:6c:b3:ca:fd:6b:22:
         0c:8f:46:8b:18:49:5f:95:09:af:8d:ef:8f:46:70:e2:df:a4:
         ff:be:2a:68:a4:81:b2:0a:bd:f3:bd:e3:32:08:cd:76:e5:6c:
         90:0d:3a:62:18:e0:c7:73:f9:ea:dd:bb:2a:9e:28:95:9e:94:
         1f:84:96:5b:80:7b:75:90:d5:28:46:c9:2a:66:1f:13:82:d5:
         b5:7c:96:55:e1:48:42:a9:82:8a:28:5a:cb:95:43:14:7c:6d:
         0b:9c:44:d2:74:9b:e3:5e:ce:1d:dd:26:8b:b1:b0:bb:02:ec:
         1b:a9:e1:6f:6e:76:fe:0a:39:a4:bc:7c:7e:b6:8f:dc:c8:63:
         3e:54:2e:4b:ce:9b:37:1c:4f:89:6b:bd:7f:e6:62:bc:1b:e3:
         b7:56:0d:3a:75:3d:69:3f:5a:d7:92:48:26:a8:d5:c2:ca:87:
         3c:95:41:43:41:1b:42:17:63:b1:a5:64:00:b8:c8:ce:a4:cc:
         b9:4a:5d:97
-----BEGIN CERTIFICATE-----
MIIFAjCCA+qgAwIBAgIQGYiUafZnEuZlRXjFOETHwTANBgkqhkiG9w0BAQsFADB/
MQswCQYDVQQGEwJVUzEdMBsGA1UEChMUU3ltYW50ZWMgQ29ycG9yYXRpb24xHzAd
BgNVBAsTFlN5bWFudGVjIFRydXN0IE5ldHdvcmsxMDAuBgNVBAMTJ1N5bWFudGVj
IENsYXNzIDMgU0hBMjU2IENvZGUgU2lnbmluZyBDQTAeFw0xNjAxMTMwMDAwMDBa
Fw0xNzA4MTkyMzU5NTlaMIGUMQswCQYDVQQGEwJDTjEOMAwGA1UECBMFSHVOYW4x
ETAPBgNVBAcTCENoYW5nU2hhMTAwLgYDVQQKFCdEcml2ZXIgSW5mb3JtYXRpb24g
VGVjaG5vbG9neSBDby4sIEx0ZC4xMDAuBgNVBAMUJ0RyaXZlciBJbmZvcm1hdGlv
biBUZWNobm9sb2d5IENvLiwgTHRkLjCCASIwDQYJKoZIhvcNAQEBBQADggEPADCC
AQoCggEBAJ5KF78fdyyHFqdH4LRfcQyOxFOIwYct7fP+L4S4hUEBZnORIf17VlLH
1Fm2NDvX2F4htFEtfkhadRr6Gk2GxU4flYisdu4X4Cxu2J+aV/nppExqs4har5tR
StRzXVyzK3yxryrX3baLh72liz3gYqcRXx4PErhbEE7h1fcl53fWzeVmIBlhLslk
qbjz1zTVbP+bk0gvL8pSxjEKVzaMFLK3GcrWpcELkEyBUPEUW06nIMcxs5g6ySiV
XMV6zhE+wbdCnhoNBol+grxTJySxEetF9N0C38hhJV7dXUN04R8xcSNqZs+bSdWU
K2UMX4s0crUAN5I0zlW/O1mbdo9FD58CAwEAAaOCAWIwggFeMAkGA1UdEwQCMAAw
DgYDVR0PAQH/BAQDAgeAMCsGA1UdHwQkMCIwIKAeoByGGmh0dHA6Ly9zdi5zeW1j
Yi5jb20vc3YuY3JsMGYGA1UdIARfMF0wWwYLYIZIAYb4RQEHFwMwTDAjBggrBgEF
BQcCARYXaHR0cHM6Ly9kLnN5bWNiLmNvbS9jcHMwJQYIKwYBBQUHAgIwGQwXaHR0
cHM6Ly9kLnN5bWNiLmNvbS9ycGEwEwYDVR0lBAwwCgYIKwYBBQUHAwMwVwYIKwYB
BQUHAQEESzBJMB8GCCsGAQUFBzABhhNodHRwOi8vc3Yuc3ltY2QuY29tMCYGCCsG
AQUFBzAChhpodHRwOi8vc3Yuc3ltY2IuY29tL3N2LmNydDAfBgNVHSMEGDAWgBSW
O1PweTOXr32D7y4rzMq3hh5yZjAdBgNVHQ4EFgQUN6jKCqIFFFePHYPAyaPRXNfe
67kwDQYJKoZIhvcNAQELBQADggEBABVTWmLpMzcOI0ekCkfviKBkvh6g+3EhCab9
OFb080did6IGYgdYZcJY+ziii47g5bXJgizDe9hRC2nLkVm1/goXTmyzyv1rIgyP
RosYSV+VCa+N749GcOLfpP++KmikgbIKvfO94zIIzXblbJANOmIY4Mdz+erduyqe
KJWelB+ElluAe3WQ1ShGySpmHxOC1bV8llXhSEKpgoooWsuVQxR8bQucRNJ0m+Ne
zh3dJouxsLsC7Bup4W9udv4KOaS8fH62j9zIYz5ULkvOmzccT4lrvX/mYrwb47dW
DTp1PWk/WteSSCao1cLKhzyVQUNBG0IXY7GlZAC4yM6kzLlKXZc=
-----END CERTIFICATE-----

Certificate:
    Data:
        Version: 3 (0x2)
        Serial Number:
            3d:78:d7:f9:76:49:60:b2:61:7d:f4:f0:1e:ca:86:2a
    Signature Algorithm: sha256WithRSAEncryption
        Issuer: C=US, O=VeriSign, Inc., OU=VeriSign Trust Network, OU=(c) 2006 VeriSign, Inc. - For authorized use only, CN=VeriSign Class 3 Public Primary Certification Authority - G5
        Validity
            Not Before: Dec 10 00:00:00 2013 GMT
            Not After : Dec  9 23:59:59 2023 GMT
        Subject: C=US, O=Symantec Corporation, OU=Symantec Trust Network, CN=Symantec Class 3 SHA256 Code Signing CA
        Subject Public Key Info:
            Public Key Algorithm: rsaEncryption
                Public-Key: (2048 bit)
                Modulus:
                    00:97:83:1e:00:16:af:2c:b1:d2:08:c4:d7:68:93:
                    51:60:1e:71:f6:e2:47:b4:db:58:4d:23:62:6a:b4:
                    bf:5a:1b:51:f7:a3:0d:18:77:68:bb:d8:36:ab:2f:
                    21:50:da:9e:f3:e7:5f:27:4e:0b:c2:97:c8:09:70:
                    93:a9:da:5c:0d:4e:a4:0d:91:a0:b4:ec:14:ce:91:
                    72:54:2e:ce:a3:db:44:e9:52:1b:3f:41:3c:ca:4a:
                    e4:aa:c0:e8:39:ab:53:cc:21:d0:cc:cf:7f:9b:e6:
                    c2:cc:58:6a:82:15:ee:3d:36:cf:1c:c5:97:07:24:
                    8e:f1:7b:be:31:2d:3d:6e:dc:b5:99:42:9f:4b:61:
                    95:5f:1c:70:ee:17:7d:db:8b:e5:61:89:78:c7:68:
                    1b:af:11:78:1a:98:ae:c4:55:47:53:d9:b3:32:d6:
                    a1:0e:46:40:c5:97:92:8a:d1:53:a7:99:5b:85:35:
                    57:d3:ea:93:62:61:20:0a:c7:30:77:24:11:4d:62:
                    83:b6:ba:7b:68:82:31:ee:65:ca:df:f9:d5:8d:b2:
                    35:dc:8c:2b:6f:6a:72:5c:60:84:9c:f2:0c:94:5e:
                    c0:56:52:00:48:cc:d3:f8:a5:7d:de:2f:d7:13:e4:
                    38:a8:84:d5:46:b8:13:86:c2:1b:9d:ea:5a:38:dd:
                    9b:db
                Exponent: 65537 (0x10001)
        X509v3 extensions:
            Authority Information Access: 
                OCSP - URI:http://s2.symcb.com

            X509v3 Basic Constraints: critical
                CA:TRUE, pathlen:0
            X509v3 Certificate Policies: 
                Policy: 2.16.840.1.113733.1.7.23.3
                  CPS: http://www.symauth.com/cps
                  User Notice:
                    Explicit Text: http://www.symauth.com/rpa

            X509v3 CRL Distribution Points: 

                Full Name:
                  URI:http://s1.symcb.com/pca3-g5.crl

            X509v3 Extended Key Usage: 
                TLS Web Client Authentication, Code Signing
            X509v3 Key Usage: critical
                Certificate Sign, CRL Sign
            X509v3 Subject Alternative Name: 
                DirName:/CN=SymantecPKI-1-567
            X509v3 Subject Key Identifier: 
                96:3B:53:F0:79:33:97:AF:7D:83:EF:2E:2B:CC:CA:B7:86:1E:72:66
            X509v3 Authority Key Identifier: 
                keyid:7F:D3:65:A7:C2:DD:EC:BB:F0:30:09:F3:43:39:FA:02:AF:33:31:33

    Signature Algorithm: sha256WithRSAEncryption
         13:85:1a:1e:69:a9:37:f7:a0:bd:a4:af:7e:1d:61:53:fe:9d:
         8c:5e:0c:a6:75:1e:78:17:23:dd:fd:ec:1a:03:55:39:fb:71:
         95:c7:65:5a:a7:8e:30:d2:44:5a:61:db:70:6f:da:21:05:c2:
         2e:73:ba:49:f1:d1:93:fe:5d:c9:cd:5e:03:e0:89:9e:3f:74:
         1e:d7:f7:38:8b:a9:d6:cf:bb:35:2f:33:58:a8:92:56:d1:c8:
         4d:3b:82:e6:79:84:16:fc:28:b0:b1:47:f3:1d:a2:3e:ee:87:
         d9:a6:7f:a4:56:a5:3f:ad:84:2e:29:de:7c:bc:a8:aa:a3:3d:
         04:01:ea:ba:93:a2:0e:50:22:29:17:4c:87:e4:3a:11:5f:d6:
         a4:25:89:9b:05:6b:2f:b4:c9:01:4c:27:7b:0b:ac:19:05:22:
         a0:60:15:3f:da:c9:fb:4d:4c:8f:fb:72:67:77:fd:27:94:c7:
         ba:35:0e:88:49:fe:8d:fd:28:af:4a:12:bd:0d:b3:97:05:de:
         44:0c:15:fa:36:2b:03:dc:c1:50:01:f1:a1:11:5d:14:e5:e2:
         bd:27:4b:54:be:2b:84:5e:0f:a6:c3:74:05:0a:ef:97:c3:89:
         22:b1:1f:77:f3:bd:cd:43:d4:f1:4c:a9:3f:b5:8b:84:af:64:
         f2:d0:14:21
-----BEGIN CERTIFICATE-----
MIIFWTCCBEGgAwIBAgIQPXjX+XZJYLJhffTwHsqGKjANBgkqhkiG9w0BAQsFADCB
yjELMAkGA1UEBhMCVVMxFzAVBgNVBAoTDlZlcmlTaWduLCBJbmMuMR8wHQYDVQQL
ExZWZXJpU2lnbiBUcnVzdCBOZXR3b3JrMTowOAYDVQQLEzEoYykgMjAwNiBWZXJp
U2lnbiwgSW5jLiAtIEZvciBhdXRob3JpemVkIHVzZSBvbmx5MUUwQwYDVQQDEzxW
ZXJpU2lnbiBDbGFzcyAzIFB1YmxpYyBQcmltYXJ5IENlcnRpZmljYXRpb24gQXV0
aG9yaXR5IC0gRzUwHhcNMTMxMjEwMDAwMDAwWhcNMjMxMjA5MjM1OTU5WjB/MQsw
CQYDVQQGEwJVUzEdMBsGA1UEChMUU3ltYW50ZWMgQ29ycG9yYXRpb24xHzAdBgNV
BAsTFlN5bWFudGVjIFRydXN0IE5ldHdvcmsxMDAuBgNVBAMTJ1N5bWFudGVjIENs
YXNzIDMgU0hBMjU2IENvZGUgU2lnbmluZyBDQTCCASIwDQYJKoZIhvcNAQEBBQAD
ggEPADCCAQoCggEBAJeDHgAWryyx0gjE12iTUWAecfbiR7TbWE0jYmq0v1obUfej
DRh3aLvYNqsvIVDanvPnXydOC8KXyAlwk6naXA1OpA2RoLTsFM6RclQuzqPbROlS
Gz9BPMpK5KrA6DmrU8wh0MzPf5vmwsxYaoIV7j02zxzFlwckjvF7vjEtPW7ctZlC
n0thlV8ccO4XfduL5WGJeMdoG68ReBqYrsRVR1PZszLWoQ5GQMWXkorRU6eZW4U1
V9Pqk2JhIArHMHckEU1ig7a6e2iCMe5lyt/51Y2yNdyMK29qclxghJzyDJRewFZS
AEjM0/ilfd4v1xPkOKiE1Ua4E4bCG53qWjjdm9sCAwEAAaOCAYMwggF/MC8GCCsG
AQUFBwEBBCMwITAfBggrBgEFBQcwAYYTaHR0cDovL3MyLnN5bWNiLmNvbTASBgNV
HRMBAf8ECDAGAQH/AgEAMGwGA1UdIARlMGMwYQYLYIZIAYb4RQEHFwMwUjAmBggr
BgEFBQcCARYaaHR0cDovL3d3dy5zeW1hdXRoLmNvbS9jcHMwKAYIKwYBBQUHAgIw
HBoaaHR0cDovL3d3dy5zeW1hdXRoLmNvbS9ycGEwMAYDVR0fBCkwJzAloCOgIYYf
aHR0cDovL3MxLnN5bWNiLmNvbS9wY2EzLWc1LmNybDAdBgNVHSUEFjAUBggrBgEF
BQcDAgYIKwYBBQUHAwMwDgYDVR0PAQH/BAQDAgEGMCkGA1UdEQQiMCCkHjAcMRow
GAYDVQQDExFTeW1hbnRlY1BLSS0xLTU2NzAdBgNVHQ4EFgQUljtT8Hkzl699g+8u
K8zKt4YecmYwHwYDVR0jBBgwFoAUf9Nlp8Ld7LvwMAnzQzn6Aq8zMTMwDQYJKoZI
hvcNAQELBQADggEBABOFGh5pqTf3oL2kr34dYVP+nYxeDKZ1HngXI9397BoDVTn7
cZXHZVqnjjDSRFph23Bv2iEFwi5zuknx0ZP+XcnNXgPgiZ4/dB7X9ziLqdbPuzUv
M1ioklbRyE07guZ5hBb8KLCxR/Mdoj7uh9mmf6RWpT+thC4p3ny8qKqjPQQB6rqT
og5QIikXTIfkOhFf1qQliZsFay+0yQFMJ3sLrBkFIqBgFT/ayftNTI/7cmd3/SeU
x7o1DohJ/o39KK9KEr0Ns5cF3kQMFfo2KwPcwVAB8aERXRTl4r0nS1S+K4ReD6bD
dAUK75fDiSKxH3fzvc1D1PFMqT+1i4SvZPLQFCE=
-----END CERTIFICATE-----

