Certificate:
    Data:
        Version: 3 (0x2)
        Serial Number:
            79:a2:a5:85:f9:d1:15:42:13:d9:b8:3e:f6:b6:8d:ed
    Signature Algorithm: sha1WithRSAEncryption
        Issuer: C=US, O=VeriSign, Inc., CN=VeriSign Time Stamping Services CA
        Validity
            Not Before: May  1 00:00:00 2012 GMT
            Not After : Dec 31 23:59:59 2012 GMT
        Subject: C=US, O=Symantec Corporation, CN=Symantec Time Stamping Services Signer - G3
        Subject Public Key Info:
            Public Key Algorithm: rsaEncryption
                Public-Key: (1024 bit)
                Modulus:
                    00:a9:59:66:74:da:3d:8a:7d:7a:d8:fc:f5:80:44:
                    7b:fe:47:6a:14:55:4e:50:47:0b:ec:d3:ed:ce:f6:
                    38:f7:4f:69:b9:b1:f0:b6:78:82:0a:8c:76:16:67:
                    e2:02:ad:b7:0d:a5:8a:f6:03:fc:66:d3:fc:08:2d:
                    cc:b5:73:59:7b:89:dc:33:6e:66:5a:5e:52:37:b4:
                    62:d1:92:59:35:14:8b:45:ac:59:b2:4d:24:a2:98:
                    94:68:42:72:9f:3a:68:e2:6b:8b:9e:22:2d:f4:98:
                    4e:9a:c6:af:b3:e4:a0:ab:3c:28:bf:23:e1:d7:72:
                    a4:f2:10:53:67:ae:77:af:51
                Exponent: 65537 (0x10001)
        X509v3 extensions:
            X509v3 Basic Constraints: critical
                CA:FALSE
            X509v3 CRL Distribution Points: 

                Full Name:
                  URI:http://crl.verisign.com/tss-ca.crl

            X509v3 Extended Key Usage: critical
                Time Stamping
            Authority Information Access: 
                OCSP - URI:http://ocsp.verisign.com

            X509v3 Key Usage: critical
                Digital Signature
            X509v3 Subject Alternative Name: 
                DirName:/CN=TSA1-3
            X509v3 Subject Key Identifier: 
                B4:B7:F1:89:49:26:60:E7:65:EA:73:AE:DC:D3:38:CD:BF:57:92:6F
    Signature Algorithm: sha1WithRSAEncryption
         1e:98:aa:27:b7:78:b5:08:b5:c9:72:6d:b7:df:c0:0e:98:a6:
         35:c4:88:c9:d2:f6:6d:f1:4b:1a:fb:d5:f9:2d:99:00:9e:d1:
         e7:9b:8b:e1:3f:bd:39:80:0c:66:cd:07:bc:5c:98:54:a6:94:
         ba:10:d1:4e:8b:ab:f5:6f:65:cc:67:09:a2:80:7c:52:e8:0e:
         03:d6:6b:7a:c6:05:18:ec:c8:ac:42:7c:07:2c:a7:3d:08:66:
         dc:00:ed:fd:94:1d:73:f2:72:98:93:b1:11:d6:8f:ef:8e:ea:
         ac:f4:96:51:0c:d0:8d:df:31:52:4f:5e:af:7d:a7:4a:75:e6:
         4e:ce:2b:9f:29:2b:e7:cf:5d:9f:03:7e:6e:27:7b:23:ad:62:
         29:66:af:92:e8:2c:ce:bd:9c:7f:dc:cd:17:3c:43:c2:09:3f:
         75:45:c7:9e:e4:d7:60:7f:97:c6:e4:aa:c7:69:f5:fc:cd:74:
         ac:2c:b0:48:c1:50:4e:70:56:1e:b5:35:d3:8e:be:b1:ed:ac:
         bd:fe:0c:ec:85:7d:d5:bb:85:66:44:19:5d:9f:93:eb:82:ba:
         63:9e:d3:7c:61:ff:c8:1b:d9:23:58:7f:30:a3:66:a1:39:26:
         5e:92:c3:3c:cb:37:32:fa:f5:a3:8d:dc:d5:b0:a3:e9:25:36:
         55:d7:81:fa
-----BEGIN CERTIFICATE-----
MIIDnzCCAoegAwIBAgIQeaKlhfnRFUIT2bg+9raN7TANBgkqhkiG9w0BAQUFADBT
MQswCQYDVQQGEwJVUzEXMBUGA1UEChMOVmVyaVNpZ24sIEluYy4xKzApBgNVBAMT
IlZlcmlTaWduIFRpbWUgU3RhbXBpbmcgU2VydmljZXMgQ0EwHhcNMTIwNTAxMDAw
MDAwWhcNMTIxMjMxMjM1OTU5WjBiMQswCQYDVQQGEwJVUzEdMBsGA1UEChMUU3lt
YW50ZWMgQ29ycG9yYXRpb24xNDAyBgNVBAMTK1N5bWFudGVjIFRpbWUgU3RhbXBp
bmcgU2VydmljZXMgU2lnbmVyIC0gRzMwgZ8wDQYJKoZIhvcNAQEBBQADgY0AMIGJ
AoGBAKlZZnTaPYp9etj89YBEe/5HahRVTlBHC+zT7c72OPdPabmx8LZ4ggqMdhZn
4gKttw2livYD/GbT/AgtzLVzWXuJ3DNuZlpeUje0YtGSWTUUi0WsWbJNJKKYlGhC
cp86aOJri54iLfSYTprGr7PkoKs8KL8j4ddypPIQU2eud69RAgMBAAGjgeMwgeAw
DAYDVR0TAQH/BAIwADAzBgNVHR8ELDAqMCigJqAkhiJodHRwOi8vY3JsLnZlcmlz
aWduLmNvbS90c3MtY2EuY3JsMBYGA1UdJQEB/wQMMAoGCCsGAQUFBwMIMDQGCCsG
AQUFBwEBBCgwJjAkBggrBgEFBQcwAYYYaHR0cDovL29jc3AudmVyaXNpZ24uY29t
MA4GA1UdDwEB/wQEAwIHgDAeBgNVHREEFzAVpBMwETEPMA0GA1UEAxMGVFNBMS0z
MB0GA1UdDgQWBBS0t/GJSSZg52Xqc67c0zjNv1eSbzANBgkqhkiG9w0BAQUFAAOC
AQEAHpiqJ7d4tQi1yXJtt9/ADpimNcSIydL2bfFLGvvV+S2ZAJ7R55uL4T+9OYAM
Zs0HvFyYVKaUuhDRTour9W9lzGcJooB8UugOA9ZresYFGOzIrEJ8ByynPQhm3ADt
/ZQdc/JymJOxEdaP747qrPSWUQzQjd8xUk9er32nSnXmTs4rnykr589dnwN+bid7
I61iKWavkugszr2cf9zNFzxDwgk/dUXHnuTXYH+XxuSqx2n1/M10rCywSMFQTnBW
HrU1046+se2svf4M7IV91buFZkQZXZ+T64K6Y57TfGH/yBvZI1h/MKNmoTkmXpLD
PMs3Mvr1o43c1bCj6SU2VdeB+g==
-----END CERTIFICATE-----

Certificate:
    Data:
        Version: 3 (0x2)
        Serial Number:
            47:bf:19:95:df:8d:52:46:43:f7:db:6d:48:0d:31:a4
    Signature Algorithm: sha1WithRSAEncryption
        Issuer: C=ZA, ST=Western Cape, L=Durbanville, O=Thawte, OU=Thawte Certification, CN=Thawte Timestamping CA
        Validity
            Not Before: Dec  4 00:00:00 2003 GMT
            Not After : Dec  3 23:59:59 2013 GMT
        Subject: C=US, O=VeriSign, Inc., CN=VeriSign Time Stamping Services CA
        Subject Public Key Info:
            Public Key Algorithm: rsaEncryption
                Public-Key: (2048 bit)
                Modulus:
                    00:a9:ca:b2:a4:cc:cd:20:af:0a:7d:89:ac:87:75:
                    f0:b4:4e:f1:df:c1:0f:bf:67:61:bd:a3:64:1c:da:
                    bb:f9:ca:33:ab:84:30:89:58:7e:8c:db:6b:dd:36:
                    9e:0f:bf:d1:ec:78:f2:77:a6:7e:6f:3c:bf:93:af:
                    0d:ba:68:f4:6c:94:ca:bd:52:2d:ab:48:3d:f5:b6:
                    d5:5d:5f:1b:02:9f:fa:2f:6b:1e:a4:f7:a3:9a:a6:
                    1a:c8:02:e1:7f:4c:52:e3:0e:60:ec:40:1c:7e:b9:
                    0d:de:3f:c7:b4:df:87:bd:5f:7a:6a:31:2e:03:99:
                    81:13:a8:47:20:ce:31:73:0d:57:2d:cd:78:34:33:
                    95:12:99:12:b9:de:68:2f:aa:e6:e3:c2:8a:8c:2a:
                    c3:8b:21:87:66:bd:83:58:57:6f:75:bf:3c:aa:26:
                    87:5d:ca:10:15:3c:9f:84:ea:54:c1:0a:6e:c4:fe:
                    c5:4a:dd:b9:07:11:97:22:7c:db:3e:27:d1:1e:78:
                    ec:9f:31:c9:f1:e6:22:19:db:c4:b3:47:43:9a:1a:
                    5f:a0:1e:90:e4:5e:f5:ee:7c:f1:7d:ab:62:01:8f:
                    f5:4d:0b:de:d0:22:56:a8:95:cd:ae:88:76:ae:ee:
                    ba:0d:f3:e4:4d:d9:a0:fb:68:a0:ae:14:3b:b3:87:
                    c1:bb
                Exponent: 65537 (0x10001)
        X509v3 extensions:
            Authority Information Access: 
                OCSP - URI:http://ocsp.verisign.com

            X509v3 Basic Constraints: critical
                CA:TRUE, pathlen:0
            X509v3 CRL Distribution Points: 

                Full Name:
                  URI:http://crl.verisign.com/ThawteTimestampingCA.crl

            X509v3 Extended Key Usage: 
                Time Stamping
            X509v3 Key Usage: critical
                Certificate Sign, CRL Sign
            X509v3 Subject Alternative Name: 
                DirName:/CN=TSA2048-1-53
    Signature Algorithm: sha1WithRSAEncryption
         4a:6b:f9:ea:58:c2:44:1c:31:89:79:99:2b:96:bf:82:ac:01:
         d6:1c:4c:cd:b0:8a:58:6e:df:08:29:a3:5e:c8:ca:93:13:e7:
         04:52:0d:ef:47:27:2f:00:38:b0:e4:c9:93:4e:9a:d4:22:62:
         15:f7:3f:37:21:4f:70:31:80:f1:8b:38:87:b3:e8:e8:97:00:
         fe:cf:55:96:4e:24:d2:a9:27:4e:7a:ae:b7:61:41:f3:2a:ce:
         e7:c9:d9:5e:dd:bb:2b:85:3e:b5:9d:b5:d9:e1:57:ff:be:b4:
         c5:7e:f5:cf:0c:9e:f0:97:fe:2b:d3:3b:52:1b:1b:38:27:f7:
         3f:4a
-----BEGIN CERTIFICATE-----
MIIDxDCCAy2gAwIBAgIQR78Zld+NUkZD99ttSA0xpDANBgkqhkiG9w0BAQUFADCB
izELMAkGA1UEBhMCWkExFTATBgNVBAgTDFdlc3Rlcm4gQ2FwZTEUMBIGA1UEBxML
RHVyYmFudmlsbGUxDzANBgNVBAoTBlRoYXd0ZTEdMBsGA1UECxMUVGhhd3RlIENl
cnRpZmljYXRpb24xHzAdBgNVBAMTFlRoYXd0ZSBUaW1lc3RhbXBpbmcgQ0EwHhcN
MDMxMjA0MDAwMDAwWhcNMTMxMjAzMjM1OTU5WjBTMQswCQYDVQQGEwJVUzEXMBUG
A1UEChMOVmVyaVNpZ24sIEluYy4xKzApBgNVBAMTIlZlcmlTaWduIFRpbWUgU3Rh
bXBpbmcgU2VydmljZXMgQ0EwggEiMA0GCSqGSIb3DQEBAQUAA4IBDwAwggEKAoIB
AQCpyrKkzM0grwp9iayHdfC0TvHfwQ+/Z2G9o2Qc2rv5yjOrhDCJWH6M22vdNp4P
v9HsePJ3pn5vPL+Trw26aPRslMq9Ui2rSD31ttVdXxsCn/ovax6k96OaphrIAuF/
TFLjDmDsQBx+uQ3eP8e034e9X3pqMS4DmYETqEcgzjFzDVctzXg0M5USmRK53mgv
qubjwoqMKsOLIYdmvYNYV291vzyqJoddyhAVPJ+E6lTBCm7E/sVK3bkHEZcifNs+
J9EeeOyfMcnx5iIZ28SzR0OaGl+gHpDkXvXufPF9q2IBj/VNC97QIlaolc2uiHau
7roN8+RN2aD7aKCuFDuzh8G7AgMBAAGjgdswgdgwNAYIKwYBBQUHAQEEKDAmMCQG
CCsGAQUFBzABhhhodHRwOi8vb2NzcC52ZXJpc2lnbi5jb20wEgYDVR0TAQH/BAgw
BgEB/wIBADBBBgNVHR8EOjA4MDagNKAyhjBodHRwOi8vY3JsLnZlcmlzaWduLmNv
bS9UaGF3dGVUaW1lc3RhbXBpbmdDQS5jcmwwEwYDVR0lBAwwCgYIKwYBBQUHAwgw
DgYDVR0PAQH/BAQDAgEGMCQGA1UdEQQdMBukGTAXMRUwEwYDVQQDEwxUU0EyMDQ4
LTEtNTMwDQYJKoZIhvcNAQEFBQADgYEASmv56ljCRBwxiXmZK5a/gqwB1hxMzbCK
WG7fCCmjXsjKkxPnBFIN70cnLwA4sOTJk06a1CJiFfc/NyFPcDGA8Ys4h7Po6JcA
/s9Vlk4k0qknTnqut2FB8yrO58nZXt27K4U+tZ212eFX/760xX71zwye8Jf+K9M7
UhsbOCf3P0o=
-----END CERTIFICATE-----

Certificate:
    Data:
        Version: 3 (0x2)
        Serial Number:
            42:1a:f2:94:09:84:19:1f:52:0a:4b:c6:24:26:a7:4b
    Signature Algorithm: sha1WithRSAEncryption
        Issuer: C=SE, O=AddTrust AB, OU=AddTrust External TTP Network, CN=AddTrust External CA Root
        Validity
            Not Before: Jun  7 08:09:10 2005 GMT
            Not After : May 30 10:48:38 2020 GMT
        Subject: C=US, ST=UT, L=Salt Lake City, O=The USERTRUST Network, OU=http://www.usertrust.com, CN=UTN-USERFirst-Object
        Subject Public Key Info:
            Public Key Algorithm: rsaEncryption
                Public-Key: (2048 bit)
                Modulus:
                    00:ce:aa:81:3f:a3:a3:61:78:aa:31:00:55:95:11:
                    9e:27:0f:1f:1c:df:3a:9b:82:68:30:c0:4a:61:1d:
                    f1:2f:0e:fa:be:79:f7:a5:23:ef:55:51:96:84:cd:
                    db:e3:b9:6e:3e:31:d8:0a:20:67:c7:f4:d9:bf:94:
                    eb:47:04:3e:02:ce:2a:a2:5d:87:04:09:f6:30:9d:
                    18:8a:97:b2:aa:1c:fc:41:d2:a1:36:cb:fb:3d:91:
                    ba:e7:d9:70:35:fa:e4:e7:90:c3:9b:a3:9b:d3:3c:
                    f5:12:99:77:b1:b7:09:e0:68:e6:1c:b8:f3:94:63:
                    88:6a:6a:fe:0b:76:c9:be:f4:22:e4:67:b9:ab:1a:
                    5e:77:c1:85:07:dd:0d:6c:bf:ee:06:c7:77:6a:41:
                    9e:a7:0f:d7:fb:ee:94:17:b7:fc:85:be:a4:ab:c4:
                    1c:31:dd:d7:b6:d1:e4:f0:ef:df:16:8f:b2:52:93:
                    d7:a1:d4:89:a1:07:2e:bf:e1:01:12:42:1e:1a:e1:
                    d8:95:34:db:64:79:28:ff:ba:2e:11:c2:e5:e8:5b:
                    92:48:fb:47:0b:c2:6c:da:ad:32:83:41:f3:a5:e5:
                    41:70:fd:65:90:6d:fa:fa:51:c4:f9:bd:96:2b:19:
                    04:2c:d3:6d:a7:dc:f0:7f:6f:83:65:e2:6a:ab:87:
                    86:75
                Exponent: 65537 (0x10001)
        X509v3 extensions:
            X509v3 Authority Key Identifier: 
                keyid:AD:BD:98:7A:34:B4:26:F7:FA:C4:26:54:EF:03:BD:E0:24:CB:54:1A

            X509v3 Subject Key Identifier: 
                DA:ED:64:74:14:9C:14:3C:AB:DD:99:A9:BD:5B:28:4D:8B:3C:C9:D8
            X509v3 Key Usage: critical
                Certificate Sign, CRL Sign
            X509v3 Basic Constraints: critical
                CA:TRUE
            X509v3 Certificate Policies: 
                Policy: X509v3 Any Policy

            X509v3 CRL Distribution Points: 

                Full Name:
                  URI:http://crl.usertrust.com/AddTrustExternalCARoot.crl

            Authority Information Access: 
                OCSP - URI:http://ocsp.usertrust.com

    Signature Algorithm: sha1WithRSAEncryption
         4d:42:2f:a6:c1:8a:eb:07:80:90:58:46:8c:f8:19:39:66:2a:
         3c:5a:2c:6d:cf:d4:d9:87:55:8d:79:0b:12:88:7b:40:8f:d5:
         c7:f8:4b:8d:55:16:63:ad:b7:57:dc:3b:2b:bd:d3:c1:4f:1e:
         03:87:4b:44:9b:e3:e2:40:45:26:f3:26:49:2b:6a:84:f1:54:
         7a:d4:42:da:fc:d3:6a:bb:66:7e:ca:9e:ea:e9:bb:dc:07:c7:
         c3:92:4e:83:3c:81:49:9f:92:d5:32:09:ea:49:2e:a1:11:71:
         9a:36:d2:c5:4e:68:b6:cb:0e:1b:25:16:af:6c:de:5d:76:d8:
         1f:72:b1:93:26:86:17:db:18:de:af:45:e9:df:fb:98:af:14:
         18:ed:a4:5e:f6:89:94:45:f0:55:04:4a:dd:ff:27:dd:06:4a:
         40:f6:b4:bc:f1:e4:0f:99:02:bb:fd:5d:0e:2e:28:c1:be:3b:
         5f:1a:3f:97:10:84:bc:16:3e:d8:a3:9c:63:1d:66:cb:5c:5f:
         da:3e:f3:0f:0a:09:35:22:db:db:c0:3f:00:f9:e6:0d:5d:67:
         d1:fd:a0:1e:03:2b:d9:40:f7:be:cc:87:66:54:80:a6:a3:b8:
         f5:19:62:d5:d2:26:b1:98:26:ee:9a:cb:44:a7:45:5a:81:95:
         15:1a:f5:51
-----BEGIN CERTIFICATE-----
MIIEhDCCA2ygAwIBAgIQQhrylAmEGR9SCkvGJCanSzANBgkqhkiG9w0BAQUFADBv
MQswCQYDVQQGEwJTRTEUMBIGA1UEChMLQWRkVHJ1c3QgQUIxJjAkBgNVBAsTHUFk
ZFRydXN0IEV4dGVybmFsIFRUUCBOZXR3b3JrMSIwIAYDVQQDExlBZGRUcnVzdCBF
eHRlcm5hbCBDQSBSb290MB4XDTA1MDYwNzA4MDkxMFoXDTIwMDUzMDEwNDgzOFow
gZUxCzAJBgNVBAYTAlVTMQswCQYDVQQIEwJVVDEXMBUGA1UEBxMOU2FsdCBMYWtl
IENpdHkxHjAcBgNVBAoTFVRoZSBVU0VSVFJVU1QgTmV0d29yazEhMB8GA1UECxMY
aHR0cDovL3d3dy51c2VydHJ1c3QuY29tMR0wGwYDVQQDExRVVE4tVVNFUkZpcnN0
LU9iamVjdDCCASIwDQYJKoZIhvcNAQEBBQADggEPADCCAQoCggEBAM6qgT+jo2F4
qjEAVZURnicPHxzfOpuCaDDASmEd8S8O+r5596Uj71VRloTN2+O5bj4x2AogZ8f0
2b+U60cEPgLOKqJdhwQJ9jCdGIqXsqoc/EHSoTbL+z2RuufZcDX65OeQw5ujm9M8
9RKZd7G3CeBo5hy485RjiGpq/gt2yb70IuRnuasaXnfBhQfdDWy/7gbHd2pBnqcP
1/vulBe3/IW+pKvEHDHd17bR5PDv3xaPslKT16HUiaEHLr/hARJCHhrh2JU022R5
KP+6LhHC5ehbkkj7RwvCbNqtMoNB86XlQXD9ZZBt+vpRxPm9lisZBCzTbafc8H9v
g2XiaquHhnUCAwEAAaOB9DCB8TAfBgNVHSMEGDAWgBStvZh6NLQm9/rEJlTvA73g
JMtUGjAdBgNVHQ4EFgQU2u1kdBScFDyr3ZmpvVsoTYs8ydgwDgYDVR0PAQH/BAQD
AgEGMA8GA1UdEwEB/wQFMAMBAf8wEQYDVR0gBAowCDAGBgRVHSAAMEQGA1UdHwQ9
MDswOaA3oDWGM2h0dHA6Ly9jcmwudXNlcnRydXN0LmNvbS9BZGRUcnVzdEV4dGVy
bmFsQ0FSb290LmNybDA1BggrBgEFBQcBAQQpMCcwJQYIKwYBBQUHMAGGGWh0dHA6
Ly9vY3NwLnVzZXJ0cnVzdC5jb20wDQYJKoZIhvcNAQEFBQADggEBAE1CL6bBiusH
gJBYRoz4GTlmKjxaLG3P1NmHVY15CxKIe0CP1cf4S41VFmOtt1fcOyu908FPHgOH
S0Sb4+JARSbzJkkraoTxVHrUQtr802q7Zn7Knurpu9wHx8OSToM8gUmfktUyCepJ
LqERcZo20sVOaLbLDhslFq9s3l122B9ysZMmhhfbGN6vRenf+5ivFBjtpF72iZRF
8FUESt3/J90GSkD2tLzx5A+ZArv9XQ4uKMG+O18aP5cQhLwWPtijnGMdZstcX9o+
8w8KCTUi29vAPwD55g1dZ9H9oB4DK9lA977Mh2ZUgKajuPUZYtXSJrGYJu6ay0Sn
RVqBlRUa9VE=
-----END CERTIFICATE-----

Certificate:
    Data:
        Version: 3 (0x2)
        Serial Number:
            73:57:8c:71:6d:b3:95:53:13:7d:f3:09:73:18:ab:fe
    Signature Algorithm: sha1WithRSAEncryption
        Issuer: C=US, ST=UT, L=Salt Lake City, O=The USERTRUST Network, OU=http://www.usertrust.com, CN=UTN-USERFirst-Object
        Validity
            Not Before: Apr 27 00:00:00 2011 GMT
            Not After : May 30 10:48:38 2020 GMT
        Subject: C=GB, ST=Greater Manchester, L=Salford, O=COMODO CA Limited, CN=COMODO Code Signing CA
        Subject Public Key Info:
            Public Key Algorithm: rsaEncryption
                Public-Key: (2048 bit)
                Modulus:
                    00:95:e3:33:eb:06:32:99:a3:22:f4:53:40:6b:50:
                    5f:5e:3b:c0:2a:0e:7e:94:b9:b9:9b:fa:e1:5e:e7:
                    0a:9c:74:3e:d6:8c:5f:7e:38:a2:47:6b:a0:1e:0b:
                    c0:fd:07:ef:10:bc:4c:db:2b:db:96:26:d1:3c:52:
                    0e:3e:2b:8e:de:12:d2:66:9a:8c:48:8a:56:38:cb:
                    5d:70:6e:b3:68:8f:9b:e7:97:b0:60:bd:bb:9c:47:
                    7d:00:d8:bf:48:24:61:7e:13:84:e1:6a:06:dc:69:
                    74:2d:65:b2:5c:96:c2:39:df:4d:50:71:88:50:5b:
                    21:67:8d:74:9b:73:05:28:b7:86:1f:05:26:c2:80:
                    0e:18:47:b1:0d:5d:7e:19:cb:42:bf:a9:b6:c3:36:
                    5b:f8:5c:d7:cf:eb:42:b0:44:cc:4a:8a:7d:a8:b0:
                    cf:83:2f:ae:88:dc:de:5e:44:4e:bc:9f:d3:5c:31:
                    84:76:f6:7e:9e:9b:77:bc:e3:81:a4:5e:dd:40:e0:
                    e8:af:9c:42:5b:f9:c9:8e:65:a5:91:ea:ee:27:1c:
                    df:98:b7:b0:4a:58:35:95:fe:b0:3a:73:46:7e:56:
                    45:b1:d5:c0:9c:96:ed:c0:6e:f8:94:9c:bb:ef:26:
                    c1:cb:6d:dd:1e:67:91:7a:79:c9:7c:08:66:76:d8:
                    45:b9
                Exponent: 65537 (0x10001)
        X509v3 extensions:
            X509v3 Authority Key Identifier: 
                keyid:DA:ED:64:74:14:9C:14:3C:AB:DD:99:A9:BD:5B:28:4D:8B:3C:C9:D8

            X509v3 Subject Key Identifier: 
                20:25:23:17:11:BF:D0:0D:A0:E7:2B:BC:9E:D5:9A:42:09:4F:2A:C5
            X509v3 Key Usage: critical
                Certificate Sign, CRL Sign
            X509v3 Basic Constraints: critical
                CA:TRUE, pathlen:0
            X509v3 Certificate Policies: 
                Policy: X509v3 Any Policy

            X509v3 CRL Distribution Points: 

                Full Name:
                  URI:http://crl.usertrust.com/UTN-USERFirst-Object.crl

            Authority Information Access: 
                CA Issuers - URI:http://crt.usertrust.com/UTNAddTrustObject_CA.crt
                OCSP - URI:http://ocsp.usertrust.com

    Signature Algorithm: sha1WithRSAEncryption
         b3:95:f2:40:c3:d3:c4:a4:7f:52:9e:60:ae:88:c3:e1:4e:c5:
         7f:cd:65:7e:8c:ef:15:2e:5f:30:f0:bb:18:33:78:32:45:9e:
         03:15:7f:9d:68:8b:bc:41:67:e0:03:2b:9f:03:3c:b5:2b:d6:
         4e:57:7c:20:45:73:97:4c:a1:b0:07:e9:4f:d3:8d:8c:25:ea:
         1a:88:35:30:fe:62:94:01:2a:ba:1c:d5:d8:16:04:16:a9:34:
         dc:0e:e3:05:c8:92:9c:41:c4:82:e6:f1:66:ac:3d:3c:1d:d0:
         f1:2e:e4:96:8a:12:fd:7e:03:4a:e6:f4:59:a0:6e:99:d2:e9:
         c4:0d:62:d6:ab:3b:6b:6b:c2:1c:ce:d5:d8:66:8f:e4:6e:3f:
         01:75:cb:37:8c:6d:4a:59:95:ca:e8:68:9e:8d:9c:28:c1:39:
         c1:69:07:fd:8f:af:9c:84:9d:0b:4e:f2:d2:99:f5:d4:a8:17:
         09:16:c6:17:a8:67:da:50:1a:21:ea:75:cf:25:3e:bb:bc:81:
         22:14:04:e9:3b:b1:2e:91:3a:ac:9c:23:bc:87:3b:1e:ce:ae:
         25:b3:a1:b1:83:00:ef:2e:c3:de:db:c5:71:c5:2f:2f:f9:b0:
         85:bf:60:d4:75:f8:69:2f:6b:7e:a3:af:5a:ce:94:f2:6c:d0:
         e0:24:d6:c6
-----BEGIN CERTIFICATE-----
MIIE0DCCA7igAwIBAgIQc1eMcW2zlVMTffMJcxir/jANBgkqhkiG9w0BAQUFADCB
lTELMAkGA1UEBhMCVVMxCzAJBgNVBAgTAlVUMRcwFQYDVQQHEw5TYWx0IExha2Ug
Q2l0eTEeMBwGA1UEChMVVGhlIFVTRVJUUlVTVCBOZXR3b3JrMSEwHwYDVQQLExho
dHRwOi8vd3d3LnVzZXJ0cnVzdC5jb20xHTAbBgNVBAMTFFVUTi1VU0VSRmlyc3Qt
T2JqZWN0MB4XDTExMDQyNzAwMDAwMFoXDTIwMDUzMDEwNDgzOFoweTELMAkGA1UE
BhMCR0IxGzAZBgNVBAgTEkdyZWF0ZXIgTWFuY2hlc3RlcjEQMA4GA1UEBxMHU2Fs
Zm9yZDEaMBgGA1UEChMRQ09NT0RPIENBIExpbWl0ZWQxHzAdBgNVBAMTFkNPTU9E
TyBDb2RlIFNpZ25pbmcgQ0EwggEiMA0GCSqGSIb3DQEBAQUAA4IBDwAwggEKAoIB
AQCV4zPrBjKZoyL0U0BrUF9eO8AqDn6Uubmb+uFe5wqcdD7WjF9+OKJHa6AeC8D9
B+8QvEzbK9uWJtE8Ug4+K47eEtJmmoxIilY4y11wbrNoj5vnl7BgvbucR30A2L9I
JGF+E4ThagbcaXQtZbJclsI5301QcYhQWyFnjXSbcwUot4YfBSbCgA4YR7ENXX4Z
y0K/qbbDNlv4XNfP60KwRMxKin2osM+DL66I3N5eRE68n9NcMYR29n6em3e844Gk
Xt1A4OivnEJb+cmOZaWR6u4nHN+Yt7BKWDWV/rA6c0Z+VkWx1cCclu3AbviUnLvv
JsHLbd0eZ5F6ecl8CGZ22EW5AgMBAAGjggE1MIIBMTAfBgNVHSMEGDAWgBTa7WR0
FJwUPKvdmam9WyhNizzJ2DAdBgNVHQ4EFgQUICUjFxG/0A2g5yu8ntWaQglPKsUw
DgYDVR0PAQH/BAQDAgEGMBIGA1UdEwEB/wQIMAYBAf8CAQAwEQYDVR0gBAowCDAG
BgRVHSAAMEIGA1UdHwQ7MDkwN6A1oDOGMWh0dHA6Ly9jcmwudXNlcnRydXN0LmNv
bS9VVE4tVVNFUkZpcnN0LU9iamVjdC5jcmwwdAYIKwYBBQUHAQEEaDBmMD0GCCsG
AQUFBzAChjFodHRwOi8vY3J0LnVzZXJ0cnVzdC5jb20vVVROQWRkVHJ1c3RPYmpl
Y3RfQ0EuY3J0MCUGCCsGAQUFBzABhhlodHRwOi8vb2NzcC51c2VydHJ1c3QuY29t
MA0GCSqGSIb3DQEBBQUAA4IBAQCzlfJAw9PEpH9SnmCuiMPhTsV/zWV+jO8VLl8w
8LsYM3gyRZ4DFX+daIu8QWfgAyufAzy1K9ZOV3wgRXOXTKGwB+lP042MJeoaiDUw
/mKUASq6HNXYFgQWqTTcDuMFyJKcQcSC5vFmrD08HdDxLuSWihL9fgNK5vRZoG6Z
0unEDWLWqztra8IcztXYZo/kbj8Bdcs3jG1KWZXK6GiejZwowTnBaQf9j6+chJ0L
TvLSmfXUqBcJFsYXqGfaUBoh6nXPJT67vIEiFATpO7EukTqsnCO8hzsezq4ls6Gx
gwDvLsPe28VxxS8v+bCFv2DUdfhpL2t+o69azpTybNDgJNbG
-----END CERTIFICATE-----

Certificate:
    Data:
        Version: 3 (0x2)
        Serial Number:
            d0:ee:c1:4c:b8:27:b1:42:8c:34:24:94:a8:80:07:1e
    Signature Algorithm: sha1WithRSAEncryption
        Issuer: C=GB, ST=Greater Manchester, L=Salford, O=COMODO CA Limited, CN=COMODO Code Signing CA
        Validity
            Not Before: Aug 11 00:00:00 2011 GMT
            Not After : Aug 10 23:59:59 2016 GMT
        Subject: C=PL/postalCode=80-462, ST=Gdansk, L=Gdansk/street=Dywizjonu 303 15C/12, O=Doblon, CN=Doblon
        Subject Public Key Info:
            Public Key Algorithm: rsaEncryption
                Public-Key: (2048 bit)
                Modulus:
                    00:a7:c4:70:ff:a0:9f:78:42:b8:fc:44:dd:9d:2e:
                    7a:1a:30:e0:f5:c3:63:cd:9f:82:b5:52:06:70:cf:
                    58:41:60:a8:d7:16:9a:e3:4c:f6:72:db:07:38:00:
                    26:77:49:a0:1a:14:d9:c9:04:9b:bc:d1:2e:84:6c:
                    92:f4:69:d8:16:5b:9c:82:80:2c:21:9b:97:ef:93:
                    26:5c:4a:98:d0:fd:ce:fb:54:4c:b7:ab:32:8d:b4:
                    6a:97:d0:0b:94:f0:a5:77:7d:39:c5:69:df:1a:12:
                    b4:a0:a6:18:89:0c:1b:90:f8:fa:ba:28:6a:eb:f7:
                    bb:6b:6b:80:82:74:fc:f2:2c:24:af:61:44:a8:59:
                    a6:6c:ed:45:67:44:e4:18:28:70:9a:fd:da:52:64:
                    c3:79:98:12:e0:15:fd:3e:41:3d:e3:9c:45:22:78:
                    8d:82:90:6c:23:71:13:50:7d:d9:12:b5:ea:2c:13:
                    f2:68:f2:9f:1f:b8:fa:dc:3e:41:f9:ad:44:42:4f:
                    24:21:71:d5:a1:38:07:00:df:43:3f:45:ac:df:af:
                    e7:5c:f8:ff:6c:8d:d7:ca:ce:09:1d:49:5d:2f:dd:
                    50:0d:67:58:2b:97:ff:e5:ac:33:90:2c:6d:dd:e6:
                    62:9c:f1:4f:a3:52:ed:a7:8c:13:95:93:19:2a:7f:
                    b8:1f
                Exponent: 65537 (0x10001)
        X509v3 extensions:
            X509v3 Authority Key Identifier: 
                keyid:20:25:23:17:11:BF:D0:0D:A0:E7:2B:BC:9E:D5:9A:42:09:4F:2A:C5

            X509v3 Subject Key Identifier: 
                64:DC:8D:EA:50:96:0A:AA:A4:B7:2A:9A:1A:58:A1:97:8C:12:17:26
            X509v3 Key Usage: critical
                Digital Signature
            X509v3 Basic Constraints: critical
                CA:FALSE
            X509v3 Extended Key Usage: 
                Code Signing
            Netscape Cert Type: 
                Object Signing
            X509v3 Certificate Policies: 
                Policy: 1.3.6.1.4.1.6449.1.2.1.3.2
                  CPS: https://secure.comodo.net/CPS

            X509v3 CRL Distribution Points: 

                Full Name:
                  URI:http://crl.comodoca.com/COMODOCodeSigningCA.crl

            Authority Information Access: 
                CA Issuers - URI:http://crt.comodoca.com/COMODOCodeSigningCA.crt
                OCSP - URI:http://ocsp.comodoca.com

            X509v3 Subject Alternative Name: 
                email:piotr@powerkaraoke.com
    Signature Algorithm: sha1WithRSAEncryption
         87:64:21:b8:3e:96:92:e5:cb:7b:67:1a:52:17:0a:81:af:80:
         d5:2b:94:36:6e:98:bb:0f:05:de:f3:23:f8:d1:e0:1b:54:76:
         d3:cd:b8:75:05:20:ce:d4:78:20:e1:c3:4e:29:4c:50:0e:1f:
         50:22:fd:b3:e0:fe:87:47:94:b5:8e:7e:be:e8:89:6e:92:1b:
         dd:93:f4:88:76:e6:a9:79:d0:7b:9d:fd:12:c5:11:ed:3e:d3:
         38:2f:d8:47:3d:45:aa:68:a5:50:68:f8:89:4a:5f:f9:94:50:
         8b:e6:0f:4f:fd:fd:60:cb:33:a3:2b:4a:17:1b:73:8e:23:0d:
         79:2a:30:03:af:2b:a9:08:ae:97:6e:f7:75:ce:19:13:7a:9b:
         6f:c5:8b:f9:50:9b:e2:22:a1:62:e0:1f:a6:3b:19:34:07:d2:
         07:ee:10:15:18:5d:af:74:5b:b0:83:e7:60:56:46:15:d0:bf:
         9f:64:77:33:03:f8:d3:d4:0e:1d:8e:09:2c:d9:3c:6a:9b:56:
         25:6d:0d:f2:a4:01:61:ed:84:20:6e:e7:ec:32:ca:a9:1b:db:
         9f:0c:ab:25:b9:f9:d9:ce:46:2a:e9:6f:fb:06:1b:03:80:46:
         5b:cb:9c:47:76:37:af:44:64:81:b9:6f:fe:ba:4f:1a:36:8a:
         08:2f:8c:02
-----BEGIN CERTIFICATE-----
MIIFMjCCBBqgAwIBAgIRANDuwUy4J7FCjDQklKiABx4wDQYJKoZIhvcNAQEFBQAw
eTELMAkGA1UEBhMCR0IxGzAZBgNVBAgTEkdyZWF0ZXIgTWFuY2hlc3RlcjEQMA4G
A1UEBxMHU2FsZm9yZDEaMBgGA1UEChMRQ09NT0RPIENBIExpbWl0ZWQxHzAdBgNV
BAMTFkNPTU9ETyBDb2RlIFNpZ25pbmcgQ0EwHhcNMTEwODExMDAwMDAwWhcNMTYw
ODEwMjM1OTU5WjCBgTELMAkGA1UEBhMCUEwxDzANBgNVBBEMBjgwLTQ2MjEPMA0G
A1UECAwGR2RhbnNrMQ8wDQYDVQQHDAZHZGFuc2sxHTAbBgNVBAkMFER5d2l6am9u
dSAzMDMgMTVDLzEyMQ8wDQYDVQQKDAZEb2Jsb24xDzANBgNVBAMMBkRvYmxvbjCC
ASIwDQYJKoZIhvcNAQEBBQADggEPADCCAQoCggEBAKfEcP+gn3hCuPxE3Z0uehow
4PXDY82fgrVSBnDPWEFgqNcWmuNM9nLbBzgAJndJoBoU2ckEm7zRLoRskvRp2BZb
nIKALCGbl++TJlxKmND9zvtUTLerMo20apfQC5TwpXd9OcVp3xoStKCmGIkMG5D4
+rooauv3u2trgIJ0/PIsJK9hRKhZpmztRWdE5BgocJr92lJkw3mYEuAV/T5BPeOc
RSJ4jYKQbCNxE1B92RK16iwT8mjynx+4+tw+QfmtREJPJCFx1aE4BwDfQz9FrN+v
51z4/2yN18rOCR1JXS/dUA1nWCuX/+WsM5Asbd3mYpzxT6NS7aeME5WTGSp/uB8C
AwEAAaOCAaowggGmMB8GA1UdIwQYMBaAFCAlIxcRv9ANoOcrvJ7VmkIJTyrFMB0G
A1UdDgQWBBRk3I3qUJYKqqS3KpoaWKGXjBIXJjAOBgNVHQ8BAf8EBAMCB4AwDAYD
VR0TAQH/BAIwADATBgNVHSUEDDAKBggrBgEFBQcDAzARBglghkgBhvhCAQEEBAMC
BBAwRgYDVR0gBD8wPTA7BgwrBgEEAbIxAQIBAwIwKzApBggrBgEFBQcCARYdaHR0
cHM6Ly9zZWN1cmUuY29tb2RvLm5ldC9DUFMwQAYDVR0fBDkwNzA1oDOgMYYvaHR0
cDovL2NybC5jb21vZG9jYS5jb20vQ09NT0RPQ29kZVNpZ25pbmdDQS5jcmwwcQYI
KwYBBQUHAQEEZTBjMDsGCCsGAQUFBzAChi9odHRwOi8vY3J0LmNvbW9kb2NhLmNv
bS9DT01PRE9Db2RlU2lnbmluZ0NBLmNydDAkBggrBgEFBQcwAYYYaHR0cDovL29j
c3AuY29tb2RvY2EuY29tMCEGA1UdEQQaMBiBFnBpb3RyQHBvd2Vya2FyYW9rZS5j
b20wDQYJKoZIhvcNAQEFBQADggEBAIdkIbg+lpLly3tnGlIXCoGvgNUrlDZumLsP
Bd7zI/jR4BtUdtPNuHUFIM7UeCDhw04pTFAOH1Ai/bPg/odHlLWOfr7oiW6SG92T
9Ih25ql50Hud/RLFEe0+0zgv2Ec9RapopVBo+IlKX/mUUIvmD0/9/WDLM6MrShcb
c44jDXkqMAOvK6kIrpdu93XOGRN6m2/Fi/lQm+IioWLgH6Y7GTQH0gfuEBUYXa90
W7CD52BWRhXQv59kdzMD+NPUDh2OCSzZPGqbViVtDfKkAWHthCBu5+wyyqkb258M
qyW5+dnORirpb/sGGwOARlvLnEd2N69EZIG5b/66Txo2iggvjAI=
-----END CERTIFICATE-----

