Certificate:
    Data:
        Version: 3 (0x2)
        Serial Number:
            7e:93:eb:fb:7c:c6:4e:59:ea:4b:9a:77:d4:06:fc:3b
    Signature Algorithm: sha1WithRSAEncryption
        Issuer: C=ZA, ST=Western Cape, L=Durbanville, O=Thawte, OU=Thawte Certification, CN=Thawte Timestamping CA
        Validity
            Not Before: Dec 21 00:00:00 2012 GMT
            Not After : Dec 30 23:59:59 2020 GMT
        Subject: C=US, O=Symantec Corporation, CN=Symantec Time Stamping Services CA - G2
        Subject Public Key Info:
            Public Key Algorithm: rsaEncryption
                Public-Key: (2048 bit)
                Modulus:
                    00:b1:ac:b3:49:54:4b:97:1c:12:0a:d8:25:79:91:
                    22:57:2a:6f:dc:b8:26:c4:43:73:6b:c2:bf:2e:50:
                    5a:fb:14:c2:76:8e:43:01:25:43:b4:a1:e2:45:f4:
                    e8:b7:7b:c3:74:cc:22:d7:b4:94:00:02:f7:4d:ed:
                    bf:b4:b7:44:24:6b:cd:5f:45:3b:d1:44:ce:43:12:
                    73:17:82:8b:69:b4:2b:cb:99:1e:ac:72:1b:26:4d:
                    71:1f:b1:31:dd:fb:51:61:02:53:a6:aa:f5:49:2c:
                    05:78:45:a5:2f:89:ce:e7:99:e7:fe:8c:e2:57:3f:
                    3d:c6:92:dc:4a:f8:7b:33:e4:79:0a:fb:f0:75:88:
                    41:9c:ff:c5:03:51:99:aa:d7:6c:9f:93:69:87:65:
                    29:83:85:c2:60:14:c4:c8:c9:3b:14:da:c0:81:f0:
                    1f:0d:74:de:92:22:ab:ca:f7:fb:74:7c:27:e6:f7:
                    4a:1b:7f:a7:c3:9e:2d:ae:8a:ea:a6:e6:aa:27:16:
                    7d:61:f7:98:71:11:bc:e2:50:a1:4b:e5:5d:fa:e5:
                    0e:a7:2c:9f:aa:65:20:d3:d8:96:e8:c8:7c:a5:4e:
                    48:44:ff:19:e2:44:07:92:0b:d7:68:84:80:5d:6a:
                    78:64:45:cd:60:46:7e:54:c1:13:7c:c5:79:f1:c9:
                    c1:71
                Exponent: 65537 (0x10001)
        X509v3 extensions:
            X509v3 Subject Key Identifier: 
                5F:9A:F5:6E:5C:CC:CC:74:9A:D4:DD:7D:EF:3F:DB:EC:4C:80:2E:DD
            Authority Information Access: 
                OCSP - URI:http://ocsp.thawte.com

            X509v3 Basic Constraints: critical
                CA:TRUE, pathlen:0
            X509v3 CRL Distribution Points: 

                Full Name:
                  URI:http://crl.thawte.com/ThawteTimestampingCA.crl

            X509v3 Extended Key Usage: 
                Time Stamping
            X509v3 Key Usage: critical
                Certificate Sign, CRL Sign
            X509v3 Subject Alternative Name: 
                DirName:/CN=TimeStamp-2048-1
    Signature Algorithm: sha1WithRSAEncryption
         03:09:9b:8f:79:ef:7f:59:30:aa:ef:68:b5:fa:e3:09:1d:bb:
         4f:82:06:5d:37:5f:a6:52:9f:16:8d:ea:1c:92:09:44:6e:f5:
         6d:eb:58:7c:30:e8:f9:69:8d:23:73:0b:12:6f:47:a9:ae:39:
         11:f8:2a:b1:9b:b0:1a:c3:8e:eb:59:96:00:ad:ce:0c:4d:b2:
         d0:31:a6:08:5c:2a:7a:fc:e2:7a:1d:57:4c:a8:65:18:e9:79:
         40:62:25:96:6e:c7:c7:37:6a:83:21:08:8e:41:ea:dd:d9:57:
         3f:1d:77:49:87:2a:16:06:5e:a6:38:6a:22:12:a3:51:19:83:
         7e:b6
-----BEGIN CERTIFICATE-----
MIID7jCCA1egAwIBAgIQfpPr+3zGTlnqS5p31Ab8OzANBgkqhkiG9w0BAQUFADCB
izELMAkGA1UEBhMCWkExFTATBgNVBAgTDFdlc3Rlcm4gQ2FwZTEUMBIGA1UEBxML
RHVyYmFudmlsbGUxDzANBgNVBAoTBlRoYXd0ZTEdMBsGA1UECxMUVGhhd3RlIENl
cnRpZmljYXRpb24xHzAdBgNVBAMTFlRoYXd0ZSBUaW1lc3RhbXBpbmcgQ0EwHhcN
MTIxMjIxMDAwMDAwWhcNMjAxMjMwMjM1OTU5WjBeMQswCQYDVQQGEwJVUzEdMBsG
A1UEChMUU3ltYW50ZWMgQ29ycG9yYXRpb24xMDAuBgNVBAMTJ1N5bWFudGVjIFRp
bWUgU3RhbXBpbmcgU2VydmljZXMgQ0EgLSBHMjCCASIwDQYJKoZIhvcNAQEBBQAD
ggEPADCCAQoCggEBALGss0lUS5ccEgrYJXmRIlcqb9y4JsRDc2vCvy5QWvsUwnaO
QwElQ7Sh4kX06Ld7w3TMIte0lAAC903tv7S3RCRrzV9FO9FEzkMScxeCi2m0K8uZ
HqxyGyZNcR+xMd37UWECU6aq9UksBXhFpS+JzueZ5/6M4lc/PcaS3Er4ezPkeQr7
8HWIQZz/xQNRmarXbJ+TaYdlKYOFwmAUxMjJOxTawIHwHw103pIiq8r3+3R8J+b3
Sht/p8OeLa6K6qbmqicWfWH3mHERvOJQoUvlXfrlDqcsn6plINPYlujIfKVOSET/
GeJEB5IL12iEgF1qeGRFzWBGflTBE3zFefHJwXECAwEAAaOB+jCB9zAdBgNVHQ4E
FgQUX5r1blzMzHSa1N197z/b7EyALt0wMgYIKwYBBQUHAQEEJjAkMCIGCCsGAQUF
BzABhhZodHRwOi8vb2NzcC50aGF3dGUuY29tMBIGA1UdEwEB/wQIMAYBAf8CAQAw
PwYDVR0fBDgwNjA0oDKgMIYuaHR0cDovL2NybC50aGF3dGUuY29tL1RoYXd0ZVRp
bWVzdGFtcGluZ0NBLmNybDATBgNVHSUEDDAKBggrBgEFBQcDCDAOBgNVHQ8BAf8E
BAMCAQYwKAYDVR0RBCEwH6QdMBsxGTAXBgNVBAMTEFRpbWVTdGFtcC0yMDQ4LTEw
DQYJKoZIhvcNAQEFBQADgYEAAwmbj3nvf1kwqu9otfrjCR27T4IGXTdfplKfFo3q
HJIJRG71betYfDDo+WmNI3MLEm9Hqa45EfgqsZuwGsOO61mWAK3ODE2y0DGmCFwq
evzieh1XTKhlGOl5QGIllm7HxzdqgyEIjkHq3dlXPx13SYcqFgZepjhqIhKjURmD
frY=
-----END CERTIFICATE-----

Certificate:
    Data:
        Version: 3 (0x2)
        Serial Number:
            47:c3:0f:fe:fc:22:bb:28:0f:96:fe:a7:52:51
    Signature Algorithm: sha1WithRSAEncryption
        Issuer: C=BE, O=GlobalSign nv-sa, OU=Root CA, CN=GlobalSign Root CA
        Validity
            Not Before: Mar 16 00:00:00 2016 GMT
            Not After : Mar 16 00:00:00 2024 GMT
        Subject: C=BE, O=GlobalSign nv-sa, CN=GlobalSign CodeSigning CA - G3
        Subject Public Key Info:
            Public Key Algorithm: rsaEncryption
                Public-Key: (2048 bit)
                Modulus:
                    00:c6:a0:35:88:53:57:8b:f0:ec:ac:86:40:64:9b:
                    7e:4e:a7:4d:2a:4b:cf:30:4e:53:0b:80:87:f3:fc:
                    0d:1d:cd:5e:e2:aa:11:b8:cb:cc:19:8e:99:e2:13:
                    4b:be:76:5d:9f:91:47:57:5c:4d:aa:07:2d:45:55:
                    ee:a6:37:f4:b0:50:aa:36:36:25:3a:29:60:77:3e:
                    b1:71:f3:a4:44:e8:31:4a:a0:71:76:11:26:10:c5:
                    ab:87:ec:b0:59:09:8d:bc:32:ff:47:b3:77:02:52:
                    31:fe:bc:f8:67:5b:f1:7e:28:bc:82:c7:e9:fa:94:
                    de:68:ab:45:1c:a2:8b:b5:01:c6:ed:cb:85:d5:35:
                    b5:b7:18:13:ae:47:5f:6e:52:02:47:72:4a:6a:e7:
                    36:cf:5a:e2:44:ed:f1:d0:b6:08:3b:f7:49:ec:ff:
                    b7:39:3d:b9:92:ec:71:8f:39:c7:ed:88:53:48:85:
                    58:4b:3e:12:b9:00:48:41:56:bc:a3:52:3a:64:2c:
                    ae:3a:0c:29:a4:30:f7:c6:64:50:bd:fc:57:d0:1d:
                    05:0c:7b:cc:bc:43:6e:65:24:50:72:3f:b5:f3:e7:
                    e6:55:e1:49:78:b7:43:43:4a:a7:d8:1c:8e:c0:d2:
                    9b:dd:d3:d7:cc:b4:51:86:5f:31:c9:2c:34:66:38:
                    72:5b
                Exponent: 65537 (0x10001)
        X509v3 extensions:
            X509v3 Key Usage: critical
                Certificate Sign, CRL Sign
            X509v3 Extended Key Usage: 
                Code Signing, OCSP Signing
            X509v3 Basic Constraints: critical
                CA:TRUE, pathlen:0
            X509v3 Subject Key Identifier: 
                B3:D3:E6:D5:71:56:7D:39:58:B3:78:D2:2B:B8:F7:A1:1F:FD:4B:9B
            X509v3 Authority Key Identifier: 
                keyid:60:7B:66:1A:45:0D:97:CA:89:50:2F:7D:04:CD:34:A8:FF:FC:FD:4B

            Authority Information Access: 
                OCSP - URI:http://ocsp.globalsign.com/rootr1

            X509v3 CRL Distribution Points: 

                Full Name:
                  URI:http://crl.globalsign.com/root.crl

            X509v3 Certificate Policies: 
                Policy: 1.3.6.1.4.1.4146.1.50
                Policy: 1.3.6.1.4.1.4146.1.95
                  CPS: https://www.globalsign.com/repository/

    Signature Algorithm: sha1WithRSAEncryption
         3b:41:bb:c8:4f:56:11:82:b7:19:e3:d9:6d:c1:85:ae:9e:69:
         0e:c8:43:26:23:4b:8d:44:c8:e8:7d:5f:07:0e:53:41:d5:63:
         44:4a:89:0b:b8:74:ac:7d:b5:78:79:2f:84:26:e2:d7:f7:ba:
         d1:ae:2d:fd:69:cf:fa:7c:64:dc:24:16:2a:4a:da:c0:97:a9:
         bb:d5:dd:88:e7:a1:92:9a:0a:a5:f6:f7:ba:ce:85:d6:e4:e3:
         d4:55:de:ed:dc:3e:21:1f:1b:c8:77:88:cf:fc:65:fb:05:b4:
         8f:12:a6:30:d3:0d:66:98:2f:6c:2e:6f:85:18:7c:8f:f5:f6:
         fb:b1:ab:10:e1:83:27:08:85:b0:73:21:ba:5d:2c:ba:83:30:
         b7:39:84:dd:5d:b6:7f:d2:8b:b4:55:53:4c:42:a2:bc:4a:6c:
         78:39:5b:63:1c:a3:78:27:bf:be:34:83:6b:6d:7b:1e:60:fb:
         c2:9b:0d:88:ac:8c:72:54:6b:dc:3b:88:ba:81:52:5e:68:97:
         83:b8:ce:7f:a3:cd:f9:ea:2f:26:76:fa:cd:0b:06:ac:43:44:
         49:7b:f6:4c:94:42:b2:ab:cf:d5:42:d5:19:42:69:6e:61:86:
         64:c7:b3:7d:07:8b:db:e5:76:7b:6e:5f:65:a9:16:90:a2:ce:
         e4:ae:64:92
-----BEGIN CERTIFICATE-----
MIIEiDCCA3CgAwIBAgIOR8MP/vwiuygPlv6nUlEwDQYJKoZIhvcNAQEFBQAwVzEL
MAkGA1UEBhMCQkUxGTAXBgNVBAoTEEdsb2JhbFNpZ24gbnYtc2ExEDAOBgNVBAsT
B1Jvb3QgQ0ExGzAZBgNVBAMTEkdsb2JhbFNpZ24gUm9vdCBDQTAeFw0xNjAzMTYw
MDAwMDBaFw0yNDAzMTYwMDAwMDBaMFExCzAJBgNVBAYTAkJFMRkwFwYDVQQKExBH
bG9iYWxTaWduIG52LXNhMScwJQYDVQQDEx5HbG9iYWxTaWduIENvZGVTaWduaW5n
IENBIC0gRzMwggEiMA0GCSqGSIb3DQEBAQUAA4IBDwAwggEKAoIBAQDGoDWIU1eL
8OyshkBkm35Op00qS88wTlMLgIfz/A0dzV7iqhG4y8wZjpniE0u+dl2fkUdXXE2q
By1FVe6mN/SwUKo2NiU6KWB3PrFx86RE6DFKoHF2ESYQxauH7LBZCY28Mv9Hs3cC
UjH+vPhnW/F+KLyCx+n6lN5oq0Ucoou1Acbty4XVNbW3GBOuR19uUgJHckpq5zbP
WuJE7fHQtgg790ns/7c5PbmS7HGPOcftiFNIhVhLPhK5AEhBVryjUjpkLK46DCmk
MPfGZFC9/FfQHQUMe8y8Q25lJFByP7Xz5+ZV4Ul4t0NDSqfYHI7A0pvd09fMtFGG
XzHJLDRmOHJbAgMBAAGjggFWMIIBUjAOBgNVHQ8BAf8EBAMCAQYwHQYDVR0lBBYw
FAYIKwYBBQUHAwMGCCsGAQUFBwMJMBIGA1UdEwEB/wQIMAYBAf8CAQAwHQYDVR0O
BBYEFLPT5tVxVn05WLN40iu496Ef/UubMB8GA1UdIwQYMBaAFGB7ZhpFDZfKiVAv
fQTNNKj//P1LMD0GCCsGAQUFBwEBBDEwLzAtBggrBgEFBQcwAYYhaHR0cDovL29j
c3AuZ2xvYmFsc2lnbi5jb20vcm9vdHIxMDMGA1UdHwQsMCowKKAmoCSGImh0dHA6
Ly9jcmwuZ2xvYmFsc2lnbi5jb20vcm9vdC5jcmwwWQYDVR0gBFIwUDALBgkrBgEE
AaAyATIwQQYJKwYBBAGgMgFfMDQwMgYIKwYBBQUHAgEWJmh0dHBzOi8vd3d3Lmds
b2JhbHNpZ24uY29tL3JlcG9zaXRvcnkvMA0GCSqGSIb3DQEBBQUAA4IBAQA7QbvI
T1YRgrcZ49ltwYWunmkOyEMmI0uNRMjofV8HDlNB1WNESokLuHSsfbV4eS+EJuLX
97rRri39ac/6fGTcJBYqStrAl6m71d2I56GSmgql9ve6zoXW5OPUVd7t3D4hHxvI
d4jP/GX7BbSPEqYw0w1mmC9sLm+FGHyP9fb7sasQ4YMnCIWwcyG6XSy6gzC3OYTd
XbZ/0ou0VVNMQqK8Smx4OVtjHKN4J7++NINrbXseYPvCmw2IrIxyVGvcO4i6gVJe
aJeDuM5/o8356i8mdvrNCwasQ0RJe/ZMlEKyq8/VQtUZQmluYYZkx7N9B4vb5XZ7
bl9lqRaQos7krmSS
-----END CERTIFICATE-----

Certificate:
    Data:
        Version: 3 (0x2)
        Serial Number:
            0e:cf:f4:38:c8:fe:bf:35:6e:04:d8:6a:98:1b:1a:50
    Signature Algorithm: sha1WithRSAEncryption
        Issuer: C=US, O=Symantec Corporation, CN=Symantec Time Stamping Services CA - G2
        Validity
            Not Before: Oct 18 00:00:00 2012 GMT
            Not After : Dec 29 23:59:59 2020 GMT
        Subject: C=US, O=Symantec Corporation, CN=Symantec Time Stamping Services Signer - G4
        Subject Public Key Info:
            Public Key Algorithm: rsaEncryption
                Public-Key: (2048 bit)
                Modulus:
                    00:a2:63:0b:39:44:b8:bb:23:a7:44:49:bb:0e:ff:
                    a1:f0:61:0a:53:93:b0:98:db:ad:2c:0f:4a:c5:6e:
                    ff:86:3c:53:55:0f:15:ce:04:3f:2b:fd:a9:96:96:
                    d9:be:61:79:0b:5b:c9:4c:86:76:e5:e0:43:4b:22:
                    95:ee:c2:2b:43:c1:9f:d8:68:b4:8e:40:4f:ee:85:
                    38:b9:11:c5:23:f2:64:58:f0:15:32:6f:4e:57:a1:
                    ae:88:a4:02:d7:2a:1e:cd:4b:e1:dd:63:d5:17:89:
                    32:5b:b0:5e:99:5a:a8:9d:28:50:0e:17:ee:96:db:
                    61:3b:45:51:1d:cf:12:56:0b:92:47:fc:ab:ae:f6:
                    66:3d:47:ac:70:72:e7:92:e7:5f:cd:10:b9:c4:83:
                    64:94:19:bd:25:80:e1:e8:d2:22:a5:d0:ba:02:7a:
                    a1:77:93:5b:65:c3:ee:17:74:bc:41:86:2a:dc:08:
                    4c:8c:92:8c:91:2d:9e:77:44:1f:68:d6:a8:74:77:
                    db:0e:5b:32:8b:56:8b:33:bd:d9:63:c8:49:9d:3a:
                    c5:c5:ea:33:0b:d2:f1:a3:1b:f4:8b:be:d9:b3:57:
                    8b:3b:de:04:a7:7a:22:b2:24:ae:2e:c7:70:c5:be:
                    4e:83:26:08:fb:0b:bd:a9:4f:99:08:e1:10:28:72:
                    aa:cd
                Exponent: 65537 (0x10001)
        X509v3 extensions:
            X509v3 Basic Constraints: critical
                CA:FALSE
            X509v3 Extended Key Usage: critical
                Time Stamping
            X509v3 Key Usage: critical
                Digital Signature
            Authority Information Access: 
                OCSP - URI:http://ts-ocsp.ws.symantec.com
                CA Issuers - URI:http://ts-aia.ws.symantec.com/tss-ca-g2.cer

            X509v3 CRL Distribution Points: 

                Full Name:
                  URI:http://ts-crl.ws.symantec.com/tss-ca-g2.crl

            X509v3 Subject Alternative Name: 
                DirName:/CN=TimeStamp-2048-2
            X509v3 Subject Key Identifier: 
                46:C6:69:A3:0E:4A:14:1E:D5:4C:DA:52:63:17:3F:5E:36:BC:0D:E6
            X509v3 Authority Key Identifier: 
                keyid:5F:9A:F5:6E:5C:CC:CC:74:9A:D4:DD:7D:EF:3F:DB:EC:4C:80:2E:DD

    Signature Algorithm: sha1WithRSAEncryption
         78:3b:b4:91:2a:00:4c:f0:8f:62:30:37:78:a3:84:27:07:6f:
         18:b2:de:25:dc:a0:d4:94:03:aa:86:4e:25:9f:9a:40:03:1c:
         dd:ce:e3:79:cb:21:68:06:da:b6:32:b4:6d:bf:f4:2c:26:63:
         33:e4:49:64:6d:0d:e6:c3:67:0e:f7:05:a4:35:6c:7c:89:16:
         c6:e9:b2:df:b2:e9:dd:20:c6:71:0f:cd:95:74:dc:b6:5c:de:
         bd:37:1f:43:78:e6:78:b5:cd:28:04:20:a3:aa:f1:4b:c4:88:
         29:91:0e:80:d1:11:fc:dd:5c:76:6e:4f:5e:0e:45:46:41:6e:
         0d:b0:ea:38:9a:b1:3a:da:09:71:10:fc:1c:79:b4:80:7b:ac:
         69:f4:fd:9c:b6:0c:16:2b:f1:7f:5b:09:3d:9b:5b:e2:16:ca:
         13:81:6d:00:2e:38:0d:a8:29:8f:2c:e1:b2:f4:5a:a9:01:af:
         15:9c:2c:2f:49:1b:db:22:bb:c3:fe:78:94:51:c3:86:b1:82:
         88:5d:f0:3d:b4:51:a1:79:33:2b:2e:7b:b9:dc:20:09:13:71:
         eb:6a:19:5b:cf:e8:a5:30:57:2c:89:49:3f:b9:cf:7f:c9:bf:
         3e:22:68:63:53:9a:bd:69:74:ac:c5:1d:3c:7f:92:e0:c3:bc:
         1c:d8:04:75
-----BEGIN CERTIFICATE-----
MIIEozCCA4ugAwIBAgIQDs/0OMj+vzVuBNhqmBsaUDANBgkqhkiG9w0BAQUFADBe
MQswCQYDVQQGEwJVUzEdMBsGA1UEChMUU3ltYW50ZWMgQ29ycG9yYXRpb24xMDAu
BgNVBAMTJ1N5bWFudGVjIFRpbWUgU3RhbXBpbmcgU2VydmljZXMgQ0EgLSBHMjAe
Fw0xMjEwMTgwMDAwMDBaFw0yMDEyMjkyMzU5NTlaMGIxCzAJBgNVBAYTAlVTMR0w
GwYDVQQKExRTeW1hbnRlYyBDb3Jwb3JhdGlvbjE0MDIGA1UEAxMrU3ltYW50ZWMg
VGltZSBTdGFtcGluZyBTZXJ2aWNlcyBTaWduZXIgLSBHNDCCASIwDQYJKoZIhvcN
AQEBBQADggEPADCCAQoCggEBAKJjCzlEuLsjp0RJuw7/ofBhClOTsJjbrSwPSsVu
/4Y8U1UPFc4EPyv9qZaW2b5heQtbyUyGduXgQ0sile7CK0PBn9hotI5AT+6FOLkR
xSPyZFjwFTJvTlehroikAtcqHs1L4d1j1ReJMluwXplaqJ0oUA4X7pbbYTtFUR3P
ElYLkkf8q672Zj1HrHBy55LnX80QucSDZJQZvSWA4ejSIqXQugJ6oXeTW2XD7hd0
vEGGKtwITIySjJEtnndEH2jWqHR32w5bMotWizO92WPISZ06xcXqMwvS8aMb9Iu+
2bNXizveBKd6IrIkri7HcMW+ToMmCPsLvalPmQjhEChyqs0CAwEAAaOCAVcwggFT
MAwGA1UdEwEB/wQCMAAwFgYDVR0lAQH/BAwwCgYIKwYBBQUHAwgwDgYDVR0PAQH/
BAQDAgeAMHMGCCsGAQUFBwEBBGcwZTAqBggrBgEFBQcwAYYeaHR0cDovL3RzLW9j
c3Aud3Muc3ltYW50ZWMuY29tMDcGCCsGAQUFBzAChitodHRwOi8vdHMtYWlhLndz
LnN5bWFudGVjLmNvbS90c3MtY2EtZzIuY2VyMDwGA1UdHwQ1MDMwMaAvoC2GK2h0
dHA6Ly90cy1jcmwud3Muc3ltYW50ZWMuY29tL3Rzcy1jYS1nMi5jcmwwKAYDVR0R
BCEwH6QdMBsxGTAXBgNVBAMTEFRpbWVTdGFtcC0yMDQ4LTIwHQYDVR0OBBYEFEbG
aaMOShQe1UzaUmMXP142vA3mMB8GA1UdIwQYMBaAFF+a9W5czMx0mtTdfe8/2+xM
gC7dMA0GCSqGSIb3DQEBBQUAA4IBAQB4O7SRKgBM8I9iMDd4o4QnB28Yst4l3KDU
lAOqhk4ln5pAAxzdzuN5yyFoBtq2MrRtv/QsJmMz5ElkbQ3mw2cO9wWkNWx8iRbG
6bLfsundIMZxD82VdNy2XN69Nx9DeOZ4tc0oBCCjqvFLxIgpkQ6A0RH83Vx2bk9e
DkVGQW4NsOo4mrE62glxEPwcebSAe6xp9P2ctgwWK/F/Wwk9m1viFsoTgW0ALjgN
qCmPLOGy9FqpAa8VnCwvSRvbIrvD/niUUcOGsYKIXfA9tFGheTMrLnu53CAJE3Hr
ahlbz+ilMFcsiUk/uc9/yb8+ImhjU5q9aXSsxR08f5Lgw7wc2AR1
-----END CERTIFICATE-----

Certificate:
    Data:
        Version: 3 (0x2)
        Serial Number:
            6d:e4:1f:88:9c:f8:46:43:f3:24:b3:d5
    Signature Algorithm: sha1WithRSAEncryption
        Issuer: C=BE, O=GlobalSign nv-sa, CN=GlobalSign CodeSigning CA - G3
        Validity
            Not Before: Jul 20 14:12:37 2016 GMT
            Not After : Jul 21 14:12:37 2018 GMT
        Subject: C=CA, ST=Quebec, L=Saint-Laurent, O=Lavasoft Software Canada, CN=Lavasoft Software Canada/emailAddress=itcontracts@lavasoft.com
        Subject Public Key Info:
            Public Key Algorithm: rsaEncryption
                Public-Key: (2048 bit)
                Modulus:
                    00:da:b7:b8:78:98:90:48:a7:55:99:b1:cb:3e:ef:
                    2c:61:10:67:9b:61:bf:47:54:2d:91:79:9a:a6:cf:
                    cf:fe:02:3b:24:51:25:5f:5b:36:8b:3d:dd:a7:bf:
                    ca:4c:04:fd:6f:45:02:71:9c:e6:21:4f:29:1b:82:
                    9d:5c:61:e0:62:c2:00:d8:e5:6c:43:70:e9:52:ed:
                    15:8b:c4:82:62:4c:fe:f2:79:67:20:89:b2:42:b5:
                    59:e3:a3:04:a2:c5:45:de:3b:97:32:94:d6:17:4b:
                    a4:16:e4:37:26:0a:3d:85:d9:d1:52:a6:b0:d6:f8:
                    bd:a6:6d:bf:0d:47:6a:58:f2:56:b4:be:f7:7b:ed:
                    67:0a:d9:f3:49:c8:93:ab:16:93:8d:e4:c7:88:58:
                    a9:5e:7c:5c:3b:2f:c1:c5:e6:5b:fb:d0:5f:0d:65:
                    2f:84:76:07:0b:9e:c0:d0:00:cf:ab:21:f7:ae:53:
                    df:8d:a2:8c:f8:b3:c5:f9:89:74:f8:42:d1:ab:c5:
                    81:50:68:7b:57:e6:cc:85:eb:97:97:52:72:21:7d:
                    98:fa:04:95:c3:1e:f7:fb:a6:e8:e1:7f:45:4d:cc:
                    59:4d:3b:69:88:56:34:a8:06:d2:f9:5c:94:39:f0:
                    d4:ae:10:55:a0:19:ae:8a:51:25:c6:03:16:3a:66:
                    95:4b
                Exponent: 65537 (0x10001)
        X509v3 extensions:
            X509v3 Key Usage: critical
                Digital Signature
            Authority Information Access: 
                CA Issuers - URI:http://secure.globalsign.com/cacert/gscodesigng3ocsp.crt
                OCSP - URI:http://ocsp2.globalsign.com/gscodesigng3

            X509v3 Certificate Policies: 
                Policy: 1.3.6.1.4.1.4146.1.50
                  CPS: https://www.globalsign.com/repository/
                Policy: 2.23.140.1.4.1

            X509v3 Basic Constraints: 
                CA:FALSE
            X509v3 CRL Distribution Points: 

                Full Name:
                  URI:http://crl.globalsign.com/gs/gscodesigng3.crl

            X509v3 Extended Key Usage: 
                Code Signing
            X509v3 Subject Key Identifier: 
                23:A1:26:F5:ED:2E:78:31:97:3B:C1:F1:A1:DC:4B:EC:D1:F6:98:E7
            X509v3 Authority Key Identifier: 
                keyid:B3:D3:E6:D5:71:56:7D:39:58:B3:78:D2:2B:B8:F7:A1:1F:FD:4B:9B

    Signature Algorithm: sha1WithRSAEncryption
         80:53:85:4b:06:7f:e6:87:af:e5:db:9f:bd:b3:be:06:ea:72:
         98:b4:49:06:90:c1:7a:33:85:d1:c8:0d:b1:8f:d6:58:01:71:
         c6:7e:0c:eb:8c:b9:38:1f:77:a8:68:4b:0c:93:b3:a8:3e:d0:
         cc:46:0e:0b:b4:c4:4f:fe:f3:a9:5e:84:1e:13:b2:ae:34:e4:
         68:e4:b9:5b:f7:70:13:0d:16:e3:ad:b4:53:0c:69:9f:59:4c:
         27:8e:e6:19:06:f8:2a:ab:51:48:da:a1:3c:57:90:cd:a7:8f:
         cb:ee:b4:b4:64:89:95:bb:0f:fa:4f:5e:41:09:55:bc:07:52:
         09:a5:ac:b9:61:01:4e:a2:12:02:2d:fb:d5:9a:1d:4d:ee:ec:
         7d:b9:0b:d2:66:a5:6d:d6:9a:2b:b2:3a:4d:ca:8f:29:1c:8b:
         35:60:45:2e:3a:fb:e0:60:01:f5:14:54:87:28:a0:12:50:ef:
         de:54:c9:0c:cf:6d:4b:7a:25:81:26:2f:9a:05:dc:d2:2d:67:
         e3:15:75:c3:89:94:3a:7c:68:c2:f7:c4:28:83:32:88:a2:fe:
         80:7b:ab:2f:b9:66:5b:99:83:c4:a6:a5:8b:38:2b:38:4a:41:
         8c:1e:62:aa:ad:09:76:cb:ce:9b:36:1c:db:a3:34:5e:3d:c5:
         7f:44:ee:fd
-----BEGIN CERTIFICATE-----
MIIFGDCCBACgAwIBAgIMbeQfiJz4RkPzJLPVMA0GCSqGSIb3DQEBBQUAMFExCzAJ
BgNVBAYTAkJFMRkwFwYDVQQKExBHbG9iYWxTaWduIG52LXNhMScwJQYDVQQDEx5H
bG9iYWxTaWduIENvZGVTaWduaW5nIENBIC0gRzMwHhcNMTYwNzIwMTQxMjM3WhcN
MTgwNzIxMTQxMjM3WjCBpTELMAkGA1UEBhMCQ0ExDzANBgNVBAgTBlF1ZWJlYzEW
MBQGA1UEBxMNU2FpbnQtTGF1cmVudDEhMB8GA1UEChMYTGF2YXNvZnQgU29mdHdh
cmUgQ2FuYWRhMSEwHwYDVQQDExhMYXZhc29mdCBTb2Z0d2FyZSBDYW5hZGExJzAl
BgkqhkiG9w0BCQEWGGl0Y29udHJhY3RzQGxhdmFzb2Z0LmNvbTCCASIwDQYJKoZI
hvcNAQEBBQADggEPADCCAQoCggEBANq3uHiYkEinVZmxyz7vLGEQZ5thv0dULZF5
mqbPz/4COyRRJV9bNos93ae/ykwE/W9FAnGc5iFPKRuCnVxh4GLCANjlbENw6VLt
FYvEgmJM/vJ5ZyCJskK1WeOjBKLFRd47lzKU1hdLpBbkNyYKPYXZ0VKmsNb4vaZt
vw1HaljyVrS+93vtZwrZ80nIk6sWk43kx4hYqV58XDsvwcXmW/vQXw1lL4R2Bwue
wNAAz6sh965T342ijPizxfmJdPhC0avFgVBoe1fmzIXrl5dSciF9mPoElcMe9/um
6OF/RU3MWU07aYhWNKgG0vlclDnw1K4QVaAZropRJcYDFjpmlUsCAwEAAaOCAZkw
ggGVMA4GA1UdDwEB/wQEAwIHgDCBigYIKwYBBQUHAQEEfjB8MEQGCCsGAQUFBzAC
hjhodHRwOi8vc2VjdXJlLmdsb2JhbHNpZ24uY29tL2NhY2VydC9nc2NvZGVzaWdu
ZzNvY3NwLmNydDA0BggrBgEFBQcwAYYoaHR0cDovL29jc3AyLmdsb2JhbHNpZ24u
Y29tL2dzY29kZXNpZ25nMzBWBgNVHSAETzBNMEEGCSsGAQQBoDIBMjA0MDIGCCsG
AQUFBwIBFiZodHRwczovL3d3dy5nbG9iYWxzaWduLmNvbS9yZXBvc2l0b3J5LzAI
BgZngQwBBAEwCQYDVR0TBAIwADA+BgNVHR8ENzA1MDOgMaAvhi1odHRwOi8vY3Js
Lmdsb2JhbHNpZ24uY29tL2dzL2dzY29kZXNpZ25nMy5jcmwwEwYDVR0lBAwwCgYI
KwYBBQUHAwMwHQYDVR0OBBYEFCOhJvXtLngxlzvB8aHcS+zR9pjnMB8GA1UdIwQY
MBaAFLPT5tVxVn05WLN40iu496Ef/UubMA0GCSqGSIb3DQEBBQUAA4IBAQCAU4VL
Bn/mh6/l25+9s74G6nKYtEkGkMF6M4XRyA2xj9ZYAXHGfgzrjLk4H3eoaEsMk7Oo
PtDMRg4LtMRP/vOpXoQeE7KuNORo5Llb93ATDRbjrbRTDGmfWUwnjuYZBvgqq1FI
2qE8V5DNp4/L7rS0ZImVuw/6T15BCVW8B1IJpay5YQFOohICLfvVmh1N7ux9uQvS
ZqVt1porsjpNyo8pHIs1YEUuOvvgYAH1FFSHKKASUO/eVMkMz21LeiWBJi+aBdzS
LWfjFXXDiZQ6fGjC98QogzKIov6Ae6svuWZbmYPEpqWLOCs4SkGMHmKqrQl2y86b
NhzbozRePcV/RO79
-----END CERTIFICATE-----

