Certificate:
    Data:
        Version: 3 (0x2)
        Serial Number:
            05:6b:70:7c:ca:06:07:70:4a:a2:d9:ea:08:22:5d:78
    Signature Algorithm: sha256WithRSAEncryption
        Issuer: C=US, O=DigiCert Inc, OU=www.digicert.com, CN=DigiCert EV Code Signing CA (SHA2)
        Validity
            Not Before: Oct 31 00:00:00 2017 GMT
            Not After : Nov  7 12:00:00 2018 GMT
        Subject: jurisdictionC=US/jurisdictionST=Florida/businessCategory=Private Organization/serialNumber=P17000085125, C=US, ST=Florida, L=Punta Gorda, O=PARADISE ISLAND PARTNERS INC., CN=PARADISE ISLAND PARTNERS INC.
        Subject Public Key Info:
            Public Key Algorithm: rsaEncryption
                Public-Key: (2048 bit)
                Modulus:
                    00:c5:9c:83:14:33:2a:69:66:e5:d7:fa:c2:f5:04:
                    77:1d:3b:fb:7d:64:95:38:4e:2f:08:13:7b:94:f4:
                    35:32:08:6a:c8:a7:40:0e:3a:b3:4e:17:17:41:c0:
                    4b:23:e0:16:d0:07:45:58:9b:9b:3c:54:0f:6a:42:
                    13:7d:70:4b:3d:80:3a:4b:6b:a0:15:73:4d:78:4b:
                    f4:44:d5:83:8f:bd:a4:3b:ff:9a:4c:1f:94:6b:b3:
                    14:e3:60:d0:cb:69:39:44:3e:22:b0:b1:ad:95:01:
                    9c:03:1c:e7:82:8c:84:df:4c:64:97:eb:ab:e0:13:
                    cd:02:5e:71:98:be:5e:1f:ba:40:d1:79:b5:1f:64:
                    4f:04:a3:79:72:0b:aa:dd:8e:84:33:6e:10:65:1c:
                    2c:b6:e1:3e:7a:88:76:86:0a:e5:4b:c6:1c:d5:e4:
                    23:fb:bd:b6:29:b9:98:a2:b1:04:08:35:af:a2:a8:
                    d3:91:6f:4d:d4:13:c3:1e:aa:88:01:c3:23:8b:9a:
                    c4:82:26:7f:73:a2:5c:1e:a9:32:b2:c6:f1:1f:2b:
                    be:f0:ec:f3:27:59:84:d0:cd:a2:83:73:19:98:78:
                    af:03:51:55:0b:e6:89:92:d8:a0:ac:93:c6:92:fb:
                    32:f0:37:f7:d4:8c:a3:7a:f4:10:7a:4a:16:95:0a:
                    35:4d
                Exponent: 65537 (0x10001)
        X509v3 extensions:
            X509v3 Authority Key Identifier: 
                keyid:8F:E8:7E:F0:6D:32:6A:00:05:23:C7:70:97:6A:3A:90:FF:6B:EA:D4

            X509v3 Subject Key Identifier: 
                28:29:EF:C9:1D:F9:C9:8E:71:37:3C:52:22:18:A0:F1:E8:59:15:3C
            X509v3 Subject Alternative Name: 
                othername:<unsupported>
            X509v3 Key Usage: critical
                Digital Signature
            X509v3 Extended Key Usage: 
                Code Signing
            X509v3 CRL Distribution Points: 

                Full Name:
                  URI:http://crl3.digicert.com/EVCodeSigningSHA2-g1.crl

                Full Name:
                  URI:http://crl4.digicert.com/EVCodeSigningSHA2-g1.crl

            X509v3 Certificate Policies: 
                Policy: 2.16.840.1.114412.3.2
                  CPS: https://www.digicert.com/CPS
                Policy: 2.23.140.1.3

            Authority Information Access: 
                OCSP - URI:http://ocsp.digicert.com
                CA Issuers - URI:http://cacerts.digicert.com/DigiCertEVCodeSigningCA-SHA2.crt

            X509v3 Basic Constraints: critical
                CA:FALSE
    Signature Algorithm: sha256WithRSAEncryption
         3f:19:8e:de:a4:4e:6d:6b:b1:cf:e0:b6:04:b3:95:3a:30:6b:
         8b:a2:20:d8:de:cd:ab:70:10:58:9c:40:5a:f7:d7:cb:77:2f:
         15:0d:bb:4e:d8:d1:7e:81:01:fb:bb:32:39:6c:7f:9b:03:bf:
         48:88:dc:99:55:56:56:61:f6:df:f9:62:70:19:97:79:ed:a7:
         fb:80:b4:3a:a1:73:c9:fe:cf:b0:e5:3f:35:a3:69:ff:c4:d9:
         fe:0a:44:44:f9:1b:d8:30:b5:1b:e2:b8:c5:7a:86:79:38:92:
         0f:32:d4:67:18:2e:de:ad:e4:5b:bc:89:c0:57:d1:0f:7b:38:
         0a:fa:22:29:3d:92:51:cb:4e:fd:21:7b:78:9a:51:05:9f:3d:
         cc:24:79:49:3a:c7:76:84:97:30:47:eb:0e:46:42:96:56:fd:
         48:c7:5b:b5:67:2c:8b:4b:49:02:43:c3:f1:18:86:cf:46:e2:
         53:e7:9e:6e:44:fd:b9:88:d3:e7:4a:56:11:31:49:09:1a:9b:
         6c:cd:18:ec:14:5d:76:12:5c:78:f6:7a:be:37:87:56:28:f9:
         59:06:8b:b8:13:53:59:39:71:d2:47:92:58:de:09:a1:f1:e5:
         ff:5a:5b:45:d5:34:c3:b3:8b:be:2c:44:39:01:a6:5f:41:27:
         a8:55:52:cf
-----BEGIN CERTIFICATE-----
MIIF2DCCBMCgAwIBAgIQBWtwfMoGB3BKotnqCCJdeDANBgkqhkiG9w0BAQsFADBs
MQswCQYDVQQGEwJVUzEVMBMGA1UEChMMRGlnaUNlcnQgSW5jMRkwFwYDVQQLExB3
d3cuZGlnaWNlcnQuY29tMSswKQYDVQQDEyJEaWdpQ2VydCBFViBDb2RlIFNpZ25p
bmcgQ0EgKFNIQTIpMB4XDTE3MTAzMTAwMDAwMFoXDTE4MTEwNzEyMDAwMFowgeox
EzARBgsrBgEEAYI3PAIBAxMCVVMxGDAWBgsrBgEEAYI3PAIBAhMHRmxvcmlkYTEd
MBsGA1UEDwwUUHJpdmF0ZSBPcmdhbml6YXRpb24xFTATBgNVBAUTDFAxNzAwMDA4
NTEyNTELMAkGA1UEBhMCVVMxEDAOBgNVBAgTB0Zsb3JpZGExFDASBgNVBAcTC1B1
bnRhIEdvcmRhMSYwJAYDVQQKEx1QQVJBRElTRSBJU0xBTkQgUEFSVE5FUlMgSU5D
LjEmMCQGA1UEAxMdUEFSQURJU0UgSVNMQU5EIFBBUlRORVJTIElOQy4wggEiMA0G
CSqGSIb3DQEBAQUAA4IBDwAwggEKAoIBAQDFnIMUMyppZuXX+sL1BHcdO/t9ZJU4
Ti8IE3uU9DUyCGrIp0AOOrNOFxdBwEsj4BbQB0VYm5s8VA9qQhN9cEs9gDpLa6AV
c014S/RE1YOPvaQ7/5pMH5RrsxTjYNDLaTlEPiKwsa2VAZwDHOeCjITfTGSX66vg
E80CXnGYvl4fukDRebUfZE8Eo3lyC6rdjoQzbhBlHCy24T56iHaGCuVLxhzV5CP7
vbYpuZiisQQINa+iqNORb03UE8MeqogBwyOLmsSCJn9zolweqTKyxvEfK77w7PMn
WYTQzaKDcxmYeK8DUVUL5omS2KCsk8aS+zLwN/fUjKN69BB6ShaVCjVNAgMBAAGj
ggH1MIIB8TAfBgNVHSMEGDAWgBSP6H7wbTJqAAUjx3CXajqQ/2vq1DAdBgNVHQ4E
FgQUKCnvyR35yY5xNzxSIhig8ehZFTwwMgYDVR0RBCswKaAnBggrBgEFBQcIA6Ab
MBkMF1VTLUZMT1JJREEtUDE3MDAwMDg1MTI1MA4GA1UdDwEB/wQEAwIHgDATBgNV
HSUEDDAKBggrBgEFBQcDAzB7BgNVHR8EdDByMDegNaAzhjFodHRwOi8vY3JsMy5k
aWdpY2VydC5jb20vRVZDb2RlU2lnbmluZ1NIQTItZzEuY3JsMDegNaAzhjFodHRw
Oi8vY3JsNC5kaWdpY2VydC5jb20vRVZDb2RlU2lnbmluZ1NIQTItZzEuY3JsMEsG
A1UdIAREMEIwNwYJYIZIAYb9bAMCMCowKAYIKwYBBQUHAgEWHGh0dHBzOi8vd3d3
LmRpZ2ljZXJ0LmNvbS9DUFMwBwYFZ4EMAQMwfgYIKwYBBQUHAQEEcjBwMCQGCCsG
AQUFBzABhhhodHRwOi8vb2NzcC5kaWdpY2VydC5jb20wSAYIKwYBBQUHMAKGPGh0
dHA6Ly9jYWNlcnRzLmRpZ2ljZXJ0LmNvbS9EaWdpQ2VydEVWQ29kZVNpZ25pbmdD
QS1TSEEyLmNydDAMBgNVHRMBAf8EAjAAMA0GCSqGSIb3DQEBCwUAA4IBAQA/GY7e
pE5ta7HP4LYEs5U6MGuLoiDY3s2rcBBYnEBa99fLdy8VDbtO2NF+gQH7uzI5bH+b
A79IiNyZVVZWYfbf+WJwGZd57af7gLQ6oXPJ/s+w5T81o2n/xNn+CkRE+RvYMLUb
4rjFeoZ5OJIPMtRnGC7ereRbvInAV9EPezgK+iIpPZJRy079IXt4mlEFnz3MJHlJ
Osd2hJcwR+sORkKWVv1Ix1u1ZyyLS0kCQ8PxGIbPRuJT555uRP25iNPnSlYRMUkJ
GptszRjsFF12Elx49nq+N4dWKPlZBou4E1NZOXHSR5JY3gmh8eX/WltF1TTDs4u+
LEQ5AaZfQSeoVVLP
-----END CERTIFICATE-----

Certificate:
    Data:
        Version: 3 (0x2)
        Serial Number:
            03:f1:b4:e1:5f:3a:82:f1:14:96:78:b3:d7:d8:47:5c
    Signature Algorithm: sha256WithRSAEncryption
        Issuer: C=US, O=DigiCert Inc, OU=www.digicert.com, CN=DigiCert High Assurance EV Root CA
        Validity
            Not Before: Apr 18 12:00:00 2012 GMT
            Not After : Apr 18 12:00:00 2027 GMT
        Subject: C=US, O=DigiCert Inc, OU=www.digicert.com, CN=DigiCert EV Code Signing CA (SHA2)
        Subject Public Key Info:
            Public Key Algorithm: rsaEncryption
                Public-Key: (2048 bit)
                Modulus:
                    00:a7:53:fa:0f:b2:b5:13:f1:64:cf:84:80:fc:ae:
                    80:35:d1:b6:d7:c7:a3:2c:ac:1a:2c:ac:f1:84:ac:
                    3a:35:12:3a:92:91:ba:57:e4:c4:c9:f3:2f:a8:48:
                    3c:b7:d6:6e:dc:97:22:ba:51:79:61:af:43:2f:0d:
                    b7:9b:b4:49:31:ae:44:58:3e:a4:a1:96:a7:87:4f:
                    23:7e:c3:6c:65:24:90:55:3e:a1:ca:23:7c:c5:42:
                    e9:c4:7a:62:45:9b:7d:de:63:74:cb:9e:63:25:f8:
                    84:9a:9a:ad:45:4f:ae:7d:1f:c8:13:cb:75:9b:c9:
                    e1:e1:8a:f8:0b:0c:98:f4:ca:3e:d0:45:aa:7a:1e:
                    a5:58:93:36:34:be:2b:2e:2b:31:58:66:b4:32:10:
                    9f:9d:f0:52:a1:ef:e8:3e:d3:76:f2:40:5a:dc:fa:
                    6a:3d:1b:4b:ad:76:b0:8c:5c:ee:36:ba:83:ea:30:
                    a8:4c:de:f1:0b:2a:58:41:88:ae:00:89:ab:03:d1:
                    16:82:20:22:76:eb:5e:54:38:12:62:e1:d2:70:24:
                    db:ed:1f:70:d2:64:09:80:2d:e2:b6:9d:ce:1f:f2:
                    bb:21:f3:6c:db:d8:b3:19:7b:8a:50:9f:ef:ec:36:
                    0a:5c:9a:b7:4a:d3:08:a0:39:79:fd:dd:bf:3d:3a:
                    09:25
                Exponent: 65537 (0x10001)
        X509v3 extensions:
            X509v3 Basic Constraints: critical
                CA:TRUE, pathlen:0
            X509v3 Key Usage: critical
                Digital Signature, Certificate Sign, CRL Sign
            X509v3 Extended Key Usage: 
                Code Signing
            Authority Information Access: 
                OCSP - URI:http://ocsp.digicert.com
                CA Issuers - URI:http://cacerts.digicert.com/DigiCertHighAssuranceEVRootCA.crt

            X509v3 CRL Distribution Points: 

                Full Name:
                  URI:http://crl3.digicert.com/DigiCertHighAssuranceEVRootCA.crl

                Full Name:
                  URI:http://crl4.digicert.com/DigiCertHighAssuranceEVRootCA.crl

            X509v3 Certificate Policies: 
                Policy: 2.16.840.1.114412.3.2
                  CPS: http://www.digicert.com/ssl-cps-repository.htm
                  User Notice:
                    Explicit Text: 

            X509v3 Subject Key Identifier: 
                8F:E8:7E:F0:6D:32:6A:00:05:23:C7:70:97:6A:3A:90:FF:6B:EA:D4
            X509v3 Authority Key Identifier: 
                keyid:B1:3E:C3:69:03:F8:BF:47:01:D4:98:26:1A:08:02:EF:63:64:2B:C3

    Signature Algorithm: sha256WithRSAEncryption
         19:33:4a:0c:81:33:37:db:ad:36:c9:e4:c9:3a:bb:b5:1b:2e:
         7a:a2:e2:f4:43:42:17:9e:bf:4e:a1:4d:e1:b1:db:e9:81:dd:
         9f:01:f2:e4:88:d5:e9:fe:09:fd:21:c1:ec:5d:80:d2:f0:d6:
         c1:43:c2:fe:77:2b:db:f9:d7:91:33:ce:6c:d5:b2:19:3b:e6:
         2e:d6:c9:93:4f:88:40:8e:cd:e1:f5:7e:f1:0f:c6:59:56:72:
         e8:eb:6a:41:bd:1c:d5:46:d5:7c:49:ca:66:38:15:c1:bf:e0:
         91:70:77:87:dc:c9:8d:31:c9:0c:29:a2:33:ed:8d:e2:87:cd:
         89:8d:3f:1b:ff:d5:e0:1a:97:8b:7c:da:6d:fb:a8:c6:b2:3a:
         66:6b:7b:01:b3:cd:d8:a6:34:ec:12:01:ab:95:58:a5:c4:53:
         57:a8:60:e6:e7:02:12:a0:b9:23:64:a2:4d:bb:7c:81:25:64:
         21:be:cf:ee:42:18:43:97:bb:a5:37:06:af:4d:ff:26:a5:4d:
         61:4b:ec:46:41:b8:65:ce:b8:79:9e:08:96:0b:81:8c:8a:3b:
         8f:c7:99:8c:a3:2a:6e:98:6d:5e:61:c6:96:b7:8a:b9:61:2d:
         93:b8:eb:0e:04:43:d7:f5:fe:a6:f0:62:d4:99:6a:a5:c1:c1:
         f0:64:94:80
-----BEGIN CERTIFICATE-----
MIIGvDCCBaSgAwIBAgIQA/G04V86gvEUlniz19hHXDANBgkqhkiG9w0BAQsFADBs
MQswCQYDVQQGEwJVUzEVMBMGA1UEChMMRGlnaUNlcnQgSW5jMRkwFwYDVQQLExB3
d3cuZGlnaWNlcnQuY29tMSswKQYDVQQDEyJEaWdpQ2VydCBIaWdoIEFzc3VyYW5j
ZSBFViBSb290IENBMB4XDTEyMDQxODEyMDAwMFoXDTI3MDQxODEyMDAwMFowbDEL
MAkGA1UEBhMCVVMxFTATBgNVBAoTDERpZ2lDZXJ0IEluYzEZMBcGA1UECxMQd3d3
LmRpZ2ljZXJ0LmNvbTErMCkGA1UEAxMiRGlnaUNlcnQgRVYgQ29kZSBTaWduaW5n
IENBIChTSEEyKTCCASIwDQYJKoZIhvcNAQEBBQADggEPADCCAQoCggEBAKdT+g+y
tRPxZM+EgPyugDXRttfHoyysGiys8YSsOjUSOpKRulfkxMnzL6hIPLfWbtyXIrpR
eWGvQy8Nt5u0STGuRFg+pKGWp4dPI37DbGUkkFU+ocojfMVC6cR6YkWbfd5jdMue
YyX4hJqarUVPrn0fyBPLdZvJ4eGK+AsMmPTKPtBFqnoepViTNjS+Ky4rMVhmtDIQ
n53wUqHv6D7TdvJAWtz6aj0bS612sIxc7ja6g+owqEze8QsqWEGIrgCJqwPRFoIg
InbrXlQ4EmLh0nAk2+0fcNJkCYAt4radzh/yuyHzbNvYsxl7ilCf7+w2Clyat0rT
CKA5ef3dvz06CSUCAwEAAaOCA1gwggNUMBIGA1UdEwEB/wQIMAYBAf8CAQAwDgYD
VR0PAQH/BAQDAgGGMBMGA1UdJQQMMAoGCCsGAQUFBwMDMH8GCCsGAQUFBwEBBHMw
cTAkBggrBgEFBQcwAYYYaHR0cDovL29jc3AuZGlnaWNlcnQuY29tMEkGCCsGAQUF
BzAChj1odHRwOi8vY2FjZXJ0cy5kaWdpY2VydC5jb20vRGlnaUNlcnRIaWdoQXNz
dXJhbmNlRVZSb290Q0EuY3J0MIGPBgNVHR8EgYcwgYQwQKA+oDyGOmh0dHA6Ly9j
cmwzLmRpZ2ljZXJ0LmNvbS9EaWdpQ2VydEhpZ2hBc3N1cmFuY2VFVlJvb3RDQS5j
cmwwQKA+oDyGOmh0dHA6Ly9jcmw0LmRpZ2ljZXJ0LmNvbS9EaWdpQ2VydEhpZ2hB
c3N1cmFuY2VFVlJvb3RDQS5jcmwwggHEBgNVHSAEggG7MIIBtzCCAbMGCWCGSAGG
/WwDAjCCAaQwOgYIKwYBBQUHAgEWLmh0dHA6Ly93d3cuZGlnaWNlcnQuY29tL3Nz
bC1jcHMtcmVwb3NpdG9yeS5odG0wggFkBggrBgEFBQcCAjCCAVYeggFSAEEAbgB5
ACAAdQBzAGUAIABvAGYAIAB0AGgAaQBzACAAQwBlAHIAdABpAGYAaQBjAGEAdABl
ACAAYwBvAG4AcwB0AGkAdAB1AHQAZQBzACAAYQBjAGMAZQBwAHQAYQBuAGMAZQAg
AG8AZgAgAHQAaABlACAARABpAGcAaQBDAGUAcgB0ACAAQwBQAC8AQwBQAFMAIABh
AG4AZAAgAHQAaABlACAAUgBlAGwAeQBpAG4AZwAgAFAAYQByAHQAeQAgAEEAZwBy
AGUAZQBtAGUAbgB0ACAAdwBoAGkAYwBoACAAbABpAG0AaQB0ACAAbABpAGEAYgBp
AGwAaQB0AHkAIABhAG4AZAAgAGEAcgBlACAAaQBuAGMAbwByAHAAbwByAGEAdABl
AGQAIABoAGUAcgBlAGkAbgAgAGIAeQAgAHIAZQBmAGUAcgBlAG4AYwBlAC4wHQYD
VR0OBBYEFI/ofvBtMmoABSPHcJdqOpD/a+rUMB8GA1UdIwQYMBaAFLE+w2kD+L9H
AdSYJhoIAu9jZCvDMA0GCSqGSIb3DQEBCwUAA4IBAQAZM0oMgTM32602yeTJOru1
Gy56ouL0Q0IXnr9OoU3hsdvpgd2fAfLkiNXp/gn9IcHsXYDS8NbBQ8L+dyvb+deR
M85s1bIZO+Yu1smTT4hAjs3h9X7xD8ZZVnLo62pBvRzVRtV8ScpmOBXBv+CRcHeH
3MmNMckMKaIz7Y3ih82JjT8b/9XgGpeLfNpt+6jGsjpma3sBs83YpjTsEgGrlVil
xFNXqGDm5wISoLkjZKJNu3yBJWQhvs/uQhhDl7ulNwavTf8mpU1hS+xGQbhlzrh5
ngiWC4GMijuPx5mMoypumG1eYcaWt4q5YS2TuOsOBEPX9f6m8GLUmWqlwcHwZJSA
-----END CERTIFICATE-----

