Certificate:
    Data:
        Version: 3 (0x2)
        Serial Number:
             (Negative)21:1c:2d:ac:1e:85:28:64:ba:ae:dc:6c:aa:9b:17:28
    Signature Algorithm: sha256WithRSAEncryption
        Issuer: CN=Symantec Class 3 Extended Validation Code Signing CA - G2
        Validity
            Not Before: Oct  7 21:08:08 2017 GMT
            Not After : Dec 31 23:59:59 2039 GMT
        Subject: CN=\x00@\x00B\x00y\x00E\x00L\x00D\x00I
        Subject Public Key Info:
            Public Key Algorithm: rsaEncryption
                Public-Key: (1024 bit)
                Modulus:
                    00:b5:5e:2a:4c:cd:62:ef:94:a5:35:e2:6b:ba:5d:
                    4b:49:e0:13:91:82:fb:72:e1:10:d5:02:0c:58:c7:
                    b0:c7:8a:75:4f:2c:dd:ac:69:d9:b0:61:c2:fb:6f:
                    d0:8e:87:4d:62:4b:b4:dd:e3:07:69:ab:25:bd:c4:
                    68:fa:0b:ff:46:4c:9b:d5:61:39:71:c4:af:38:08:
                    0d:21:de:22:67:2a:22:7c:b5:a1:0b:bb:61:39:e0:
                    de:d6:7e:25:ee:11:4b:f2:7a:70:9d:d1:b2:e9:0b:
                    44:e9:50:51:0a:e1:92:df:1a:59:bf:73:6c:01:f8:
                    7b:b4:0a:6f:85:88:d5:04:a1
                Exponent: 65537 (0x10001)
        X509v3 extensions:
            X509v3 Basic Constraints: critical
                CA:FALSE
            2.5.29.1: 
                0l...... .E]9Q.fH....F0D1B0@..U...9Symantec Class 3 Extended Validation Code Signing CA - G2..N.....@.H..._..`
    Signature Algorithm: sha256WithRSAEncryption
         5b:9f:ab:52:51:1c:94:74:d4:d8:74:22:29:93:71:4f:5c:bd:
         ce:a9:d4:80:7a:e6:8a:16:8b:69:2f:63:3f:a7:d3:52:ba:93:
         ed:0d:6a:20:14:98:a6:f3:e6:33:f1:10:20:32:d6:7b:cd:03:
         0c:69:d5:6e:b5:d0:d6:6d:4d:94:f5:90:28:79:4a:8c:91:d0:
         17:14:04:37:43:af:c6:ef:9d:61:1b:53:16:56:59:8f:54:d8:
         cf:6b:12:80:13:3a:d6:b3:e0:52:69:25:83:b4:6f:59:23:2c:
         eb:72:36:f1:cb:40:c5:9a:87:52:28:f3:e6:22:cb:af:3e:61:
         77:2a
-----BEGIN CERTIFICATE-----
MIICazCCAdSgAwIBAgIQ3uPSU+F615tFUSOTVWTo2DANBgkqhkiG9w0BAQsFADBE
MUIwQAYDVQQDEzlTeW1hbnRlYyBDbGFzcyAzIEV4dGVuZGVkIFZhbGlkYXRpb24g
Q29kZSBTaWduaW5nIENBIC0gRzIwHhcNMTcxMDA3MjEwODA4WhcNMzkxMjMxMjM1
OTU5WjAZMRcwFQYDVQQDHg4AQABCAHkARQBMAEQASTCBnzANBgkqhkiG9w0BAQEF
AAOBjQAwgYkCgYEAtV4qTM1i75SlNeJrul1LSeATkYL7cuEQ1QIMWMewx4p1Tyzd
rGnZsGHC+2/QjodNYku03eMHaaslvcRo+gv/Rkyb1WE5ccSvOAgNId4iZyoifLWh
C7thOeDe1n4l7hFL8npwndGy6QtE6VBRCuGS3xpZv3NsAfh7tApvhYjVBKECAwEA
AaOBiDCBhTAMBgNVHRMBAf8EAjAAMHUGA1UdAQRuMGyAEByyleEg10VdOVGGZkis
+7qhRjBEMUIwQAYDVQQDEzlTeW1hbnRlYyBDbGFzcyAzIEV4dGVuZGVkIFZhbGlk
YXRpb24gQ29kZSBTaWduaW5nIENBIC0gRzKCEE72E5UDs0C8SLrJ41/a02AwDQYJ
KoZIhvcNAQELBQADgYEAW5+rUlEclHTU2HQiKZNxT1y9zqnUgHrmihaLaS9jP6fT
UrqT7Q1qIBSYpvPmM/EQIDLWe80DDGnVbrXQ1m1NlPWQKHlKjJHQFxQEN0Ovxu+d
YRtTFlZZj1TYz2sSgBM61rPgUmklg7RvWSMs63I28ctAxZqHUijz5iLLrz5hdyo=
-----END CERTIFICATE-----

Certificate:
    Data:
        Version: 3 (0x2)
        Serial Number:
            7e:93:eb:fb:7c:c6:4e:59:ea:4b:9a:77:d4:06:fc:3b
    Signature Algorithm: sha1WithRSAEncryption
        Issuer: C=ZA, ST=Western Cape, L=Durbanville, O=Thawte, OU=Thawte Certification, CN=Thawte Timestamping CA
        Validity
            Not Before: Dec 21 00:00:00 2012 GMT
            Not After : Dec 30 23:59:59 2020 GMT
        Subject: C=US, O=Symantec Corporation, CN=Symantec Time Stamping Services CA - G2
        Subject Public Key Info:
            Public Key Algorithm: rsaEncryption
                Public-Key: (2048 bit)
                Modulus:
                    00:b1:ac:b3:49:54:4b:97:1c:12:0a:d8:25:79:91:
                    22:57:2a:6f:dc:b8:26:c4:43:73:6b:c2:bf:2e:50:
                    5a:fb:14:c2:76:8e:43:01:25:43:b4:a1:e2:45:f4:
                    e8:b7:7b:c3:74:cc:22:d7:b4:94:00:02:f7:4d:ed:
                    bf:b4:b7:44:24:6b:cd:5f:45:3b:d1:44:ce:43:12:
                    73:17:82:8b:69:b4:2b:cb:99:1e:ac:72:1b:26:4d:
                    71:1f:b1:31:dd:fb:51:61:02:53:a6:aa:f5:49:2c:
                    05:78:45:a5:2f:89:ce:e7:99:e7:fe:8c:e2:57:3f:
                    3d:c6:92:dc:4a:f8:7b:33:e4:79:0a:fb:f0:75:88:
                    41:9c:ff:c5:03:51:99:aa:d7:6c:9f:93:69:87:65:
                    29:83:85:c2:60:14:c4:c8:c9:3b:14:da:c0:81:f0:
                    1f:0d:74:de:92:22:ab:ca:f7:fb:74:7c:27:e6:f7:
                    4a:1b:7f:a7:c3:9e:2d:ae:8a:ea:a6:e6:aa:27:16:
                    7d:61:f7:98:71:11:bc:e2:50:a1:4b:e5:5d:fa:e5:
                    0e:a7:2c:9f:aa:65:20:d3:d8:96:e8:c8:7c:a5:4e:
                    48:44:ff:19:e2:44:07:92:0b:d7:68:84:80:5d:6a:
                    78:64:45:cd:60:46:7e:54:c1:13:7c:c5:79:f1:c9:
                    c1:71
                Exponent: 65537 (0x10001)
        X509v3 extensions:
            X509v3 Subject Key Identifier: 
                5F:9A:F5:6E:5C:CC:CC:74:9A:D4:DD:7D:EF:3F:DB:EC:4C:80:2E:DD
            Authority Information Access: 
                OCSP - URI:http://ocsp.thawte.com

            X509v3 Basic Constraints: critical
                CA:TRUE, pathlen:0
            X509v3 CRL Distribution Points: 

                Full Name:
                  URI:http://crl.thawte.com/ThawteTimestampingCA.crl

            X509v3 Extended Key Usage: 
                Time Stamping
            X509v3 Key Usage: critical
                Certificate Sign, CRL Sign
            X509v3 Subject Alternative Name: 
                DirName:/CN=TimeStamp-2048-1
    Signature Algorithm: sha1WithRSAEncryption
         03:09:9b:8f:79:ef:7f:59:30:aa:ef:68:b5:fa:e3:09:1d:bb:
         4f:82:06:5d:37:5f:a6:52:9f:16:8d:ea:1c:92:09:44:6e:f5:
         6d:eb:58:7c:30:e8:f9:69:8d:23:73:0b:12:6f:47:a9:ae:39:
         11:f8:2a:b1:9b:b0:1a:c3:8e:eb:59:96:00:ad:ce:0c:4d:b2:
         d0:31:a6:08:5c:2a:7a:fc:e2:7a:1d:57:4c:a8:65:18:e9:79:
         40:62:25:96:6e:c7:c7:37:6a:83:21:08:8e:41:ea:dd:d9:57:
         3f:1d:77:49:87:2a:16:06:5e:a6:38:6a:22:12:a3:51:19:83:
         7e:b6
-----BEGIN CERTIFICATE-----
MIID7jCCA1egAwIBAgIQfpPr+3zGTlnqS5p31Ab8OzANBgkqhkiG9w0BAQUFADCB
izELMAkGA1UEBhMCWkExFTATBgNVBAgTDFdlc3Rlcm4gQ2FwZTEUMBIGA1UEBxML
RHVyYmFudmlsbGUxDzANBgNVBAoTBlRoYXd0ZTEdMBsGA1UECxMUVGhhd3RlIENl
cnRpZmljYXRpb24xHzAdBgNVBAMTFlRoYXd0ZSBUaW1lc3RhbXBpbmcgQ0EwHhcN
MTIxMjIxMDAwMDAwWhcNMjAxMjMwMjM1OTU5WjBeMQswCQYDVQQGEwJVUzEdMBsG
A1UEChMUU3ltYW50ZWMgQ29ycG9yYXRpb24xMDAuBgNVBAMTJ1N5bWFudGVjIFRp
bWUgU3RhbXBpbmcgU2VydmljZXMgQ0EgLSBHMjCCASIwDQYJKoZIhvcNAQEBBQAD
ggEPADCCAQoCggEBALGss0lUS5ccEgrYJXmRIlcqb9y4JsRDc2vCvy5QWvsUwnaO
QwElQ7Sh4kX06Ld7w3TMIte0lAAC903tv7S3RCRrzV9FO9FEzkMScxeCi2m0K8uZ
HqxyGyZNcR+xMd37UWECU6aq9UksBXhFpS+JzueZ5/6M4lc/PcaS3Er4ezPkeQr7
8HWIQZz/xQNRmarXbJ+TaYdlKYOFwmAUxMjJOxTawIHwHw103pIiq8r3+3R8J+b3
Sht/p8OeLa6K6qbmqicWfWH3mHERvOJQoUvlXfrlDqcsn6plINPYlujIfKVOSET/
GeJEB5IL12iEgF1qeGRFzWBGflTBE3zFefHJwXECAwEAAaOB+jCB9zAdBgNVHQ4E
FgQUX5r1blzMzHSa1N197z/b7EyALt0wMgYIKwYBBQUHAQEEJjAkMCIGCCsGAQUF
BzABhhZodHRwOi8vb2NzcC50aGF3dGUuY29tMBIGA1UdEwEB/wQIMAYBAf8CAQAw
PwYDVR0fBDgwNjA0oDKgMIYuaHR0cDovL2NybC50aGF3dGUuY29tL1RoYXd0ZVRp
bWVzdGFtcGluZ0NBLmNybDATBgNVHSUEDDAKBggrBgEFBQcDCDAOBgNVHQ8BAf8E
BAMCAQYwKAYDVR0RBCEwH6QdMBsxGTAXBgNVBAMTEFRpbWVTdGFtcC0yMDQ4LTEw
DQYJKoZIhvcNAQEFBQADgYEAAwmbj3nvf1kwqu9otfrjCR27T4IGXTdfplKfFo3q
HJIJRG71betYfDDo+WmNI3MLEm9Hqa45EfgqsZuwGsOO61mWAK3ODE2y0DGmCFwq
evzieh1XTKhlGOl5QGIllm7HxzdqgyEIjkHq3dlXPx13SYcqFgZepjhqIhKjURmD
frY=
-----END CERTIFICATE-----

Certificate:
    Data:
        Version: 3 (0x2)
        Serial Number:
            0e:cf:f4:38:c8:fe:bf:35:6e:04:d8:6a:98:1b:1a:50
    Signature Algorithm: sha1WithRSAEncryption
        Issuer: C=US, O=Symantec Corporation, CN=Symantec Time Stamping Services CA - G2
        Validity
            Not Before: Oct 18 00:00:00 2012 GMT
            Not After : Dec 29 23:59:59 2020 GMT
        Subject: C=US, O=Symantec Corporation, CN=Symantec Time Stamping Services Signer - G4
        Subject Public Key Info:
            Public Key Algorithm: rsaEncryption
                Public-Key: (2048 bit)
                Modulus:
                    00:a2:63:0b:39:44:b8:bb:23:a7:44:49:bb:0e:ff:
                    a1:f0:61:0a:53:93:b0:98:db:ad:2c:0f:4a:c5:6e:
                    ff:86:3c:53:55:0f:15:ce:04:3f:2b:fd:a9:96:96:
                    d9:be:61:79:0b:5b:c9:4c:86:76:e5:e0:43:4b:22:
                    95:ee:c2:2b:43:c1:9f:d8:68:b4:8e:40:4f:ee:85:
                    38:b9:11:c5:23:f2:64:58:f0:15:32:6f:4e:57:a1:
                    ae:88:a4:02:d7:2a:1e:cd:4b:e1:dd:63:d5:17:89:
                    32:5b:b0:5e:99:5a:a8:9d:28:50:0e:17:ee:96:db:
                    61:3b:45:51:1d:cf:12:56:0b:92:47:fc:ab:ae:f6:
                    66:3d:47:ac:70:72:e7:92:e7:5f:cd:10:b9:c4:83:
                    64:94:19:bd:25:80:e1:e8:d2:22:a5:d0:ba:02:7a:
                    a1:77:93:5b:65:c3:ee:17:74:bc:41:86:2a:dc:08:
                    4c:8c:92:8c:91:2d:9e:77:44:1f:68:d6:a8:74:77:
                    db:0e:5b:32:8b:56:8b:33:bd:d9:63:c8:49:9d:3a:
                    c5:c5:ea:33:0b:d2:f1:a3:1b:f4:8b:be:d9:b3:57:
                    8b:3b:de:04:a7:7a:22:b2:24:ae:2e:c7:70:c5:be:
                    4e:83:26:08:fb:0b:bd:a9:4f:99:08:e1:10:28:72:
                    aa:cd
                Exponent: 65537 (0x10001)
        X509v3 extensions:
            X509v3 Basic Constraints: critical
                CA:FALSE
            X509v3 Extended Key Usage: critical
                Time Stamping
            X509v3 Key Usage: critical
                Digital Signature
            Authority Information Access: 
                OCSP - URI:http://ts-ocsp.ws.symantec.com
                CA Issuers - URI:http://ts-aia.ws.symantec.com/tss-ca-g2.cer

            X509v3 CRL Distribution Points: 

                Full Name:
                  URI:http://ts-crl.ws.symantec.com/tss-ca-g2.crl

            X509v3 Subject Alternative Name: 
                DirName:/CN=TimeStamp-2048-2
            X509v3 Subject Key Identifier: 
                46:C6:69:A3:0E:4A:14:1E:D5:4C:DA:52:63:17:3F:5E:36:BC:0D:E6
            X509v3 Authority Key Identifier: 
                keyid:5F:9A:F5:6E:5C:CC:CC:74:9A:D4:DD:7D:EF:3F:DB:EC:4C:80:2E:DD

    Signature Algorithm: sha1WithRSAEncryption
         78:3b:b4:91:2a:00:4c:f0:8f:62:30:37:78:a3:84:27:07:6f:
         18:b2:de:25:dc:a0:d4:94:03:aa:86:4e:25:9f:9a:40:03:1c:
         dd:ce:e3:79:cb:21:68:06:da:b6:32:b4:6d:bf:f4:2c:26:63:
         33:e4:49:64:6d:0d:e6:c3:67:0e:f7:05:a4:35:6c:7c:89:16:
         c6:e9:b2:df:b2:e9:dd:20:c6:71:0f:cd:95:74:dc:b6:5c:de:
         bd:37:1f:43:78:e6:78:b5:cd:28:04:20:a3:aa:f1:4b:c4:88:
         29:91:0e:80:d1:11:fc:dd:5c:76:6e:4f:5e:0e:45:46:41:6e:
         0d:b0:ea:38:9a:b1:3a:da:09:71:10:fc:1c:79:b4:80:7b:ac:
         69:f4:fd:9c:b6:0c:16:2b:f1:7f:5b:09:3d:9b:5b:e2:16:ca:
         13:81:6d:00:2e:38:0d:a8:29:8f:2c:e1:b2:f4:5a:a9:01:af:
         15:9c:2c:2f:49:1b:db:22:bb:c3:fe:78:94:51:c3:86:b1:82:
         88:5d:f0:3d:b4:51:a1:79:33:2b:2e:7b:b9:dc:20:09:13:71:
         eb:6a:19:5b:cf:e8:a5:30:57:2c:89:49:3f:b9:cf:7f:c9:bf:
         3e:22:68:63:53:9a:bd:69:74:ac:c5:1d:3c:7f:92:e0:c3:bc:
         1c:d8:04:75
-----BEGIN CERTIFICATE-----
MIIEozCCA4ugAwIBAgIQDs/0OMj+vzVuBNhqmBsaUDANBgkqhkiG9w0BAQUFADBe
MQswCQYDVQQGEwJVUzEdMBsGA1UEChMUU3ltYW50ZWMgQ29ycG9yYXRpb24xMDAu
BgNVBAMTJ1N5bWFudGVjIFRpbWUgU3RhbXBpbmcgU2VydmljZXMgQ0EgLSBHMjAe
Fw0xMjEwMTgwMDAwMDBaFw0yMDEyMjkyMzU5NTlaMGIxCzAJBgNVBAYTAlVTMR0w
GwYDVQQKExRTeW1hbnRlYyBDb3Jwb3JhdGlvbjE0MDIGA1UEAxMrU3ltYW50ZWMg
VGltZSBTdGFtcGluZyBTZXJ2aWNlcyBTaWduZXIgLSBHNDCCASIwDQYJKoZIhvcN
AQEBBQADggEPADCCAQoCggEBAKJjCzlEuLsjp0RJuw7/ofBhClOTsJjbrSwPSsVu
/4Y8U1UPFc4EPyv9qZaW2b5heQtbyUyGduXgQ0sile7CK0PBn9hotI5AT+6FOLkR
xSPyZFjwFTJvTlehroikAtcqHs1L4d1j1ReJMluwXplaqJ0oUA4X7pbbYTtFUR3P
ElYLkkf8q672Zj1HrHBy55LnX80QucSDZJQZvSWA4ejSIqXQugJ6oXeTW2XD7hd0
vEGGKtwITIySjJEtnndEH2jWqHR32w5bMotWizO92WPISZ06xcXqMwvS8aMb9Iu+
2bNXizveBKd6IrIkri7HcMW+ToMmCPsLvalPmQjhEChyqs0CAwEAAaOCAVcwggFT
MAwGA1UdEwEB/wQCMAAwFgYDVR0lAQH/BAwwCgYIKwYBBQUHAwgwDgYDVR0PAQH/
BAQDAgeAMHMGCCsGAQUFBwEBBGcwZTAqBggrBgEFBQcwAYYeaHR0cDovL3RzLW9j
c3Aud3Muc3ltYW50ZWMuY29tMDcGCCsGAQUFBzAChitodHRwOi8vdHMtYWlhLndz
LnN5bWFudGVjLmNvbS90c3MtY2EtZzIuY2VyMDwGA1UdHwQ1MDMwMaAvoC2GK2h0
dHA6Ly90cy1jcmwud3Muc3ltYW50ZWMuY29tL3Rzcy1jYS1nMi5jcmwwKAYDVR0R
BCEwH6QdMBsxGTAXBgNVBAMTEFRpbWVTdGFtcC0yMDQ4LTIwHQYDVR0OBBYEFEbG
aaMOShQe1UzaUmMXP142vA3mMB8GA1UdIwQYMBaAFF+a9W5czMx0mtTdfe8/2+xM
gC7dMA0GCSqGSIb3DQEBBQUAA4IBAQB4O7SRKgBM8I9iMDd4o4QnB28Yst4l3KDU
lAOqhk4ln5pAAxzdzuN5yyFoBtq2MrRtv/QsJmMz5ElkbQ3mw2cO9wWkNWx8iRbG
6bLfsundIMZxD82VdNy2XN69Nx9DeOZ4tc0oBCCjqvFLxIgpkQ6A0RH83Vx2bk9e
DkVGQW4NsOo4mrE62glxEPwcebSAe6xp9P2ctgwWK/F/Wwk9m1viFsoTgW0ALjgN
qCmPLOGy9FqpAa8VnCwvSRvbIrvD/niUUcOGsYKIXfA9tFGheTMrLnu53CAJE3Hr
ahlbz+ilMFcsiUk/uc9/yb8+ImhjU5q9aXSsxR08f5Lgw7wc2AR1
-----END CERTIFICATE-----

