Certificate:
    Data:
        Version: 3 (0x2)
        Serial Number:
            03:01:9a:02:3a:ff:58:b1:6b:d6:d5:ea:e6:17:f0:66
    Signature Algorithm: sha1WithRSAEncryption
        Issuer: C=US, O=DigiCert Inc, OU=www.digicert.com, CN=DigiCert Assured ID CA-1
        Validity
            Not Before: Oct 22 00:00:00 2014 GMT
            Not After : Oct 22 00:00:00 2024 GMT
        Subject: C=US, O=DigiCert, CN=DigiCert Timestamp Responder
        Subject Public Key Info:
            Public Key Algorithm: rsaEncryption
                Public-Key: (2048 bit)
                Modulus:
                    00:a3:64:5d:fc:7c:b3:e0:82:35:e0:e0:f6:c6:2a:
                    e6:49:75:3b:cc:6e:e0:53:a9:9f:1f:64:59:e6:7c:
                    6b:7f:6b:8c:9d:55:f8:92:e3:9e:d5:5a:63:5b:02:
                    49:50:d9:83:ce:6f:66:ee:dd:cb:85:e9:5f:a5:f9:
                    d4:87:74:88:44:3b:19:c9:e5:f5:91:9f:c6:14:39:
                    ac:24:ea:a8:4b:2c:91:89:cc:5e:28:f4:64:b6:50:
                    b7:f5:12:b3:73:96:0a:67:a3:be:61:9f:ae:f3:fd:
                    12:78:75:0e:a6:5b:14:fd:45:23:8e:86:44:55:7d:
                    18:86:05:8c:55:87:79:48:46:f7:ca:0e:8d:a7:de:
                    4e:5f:e2:a8:b6:2d:59:02:61:88:61:72:18:68:b9:
                    b8:7c:ee:e6:e7:34:2f:31:77:81:30:1f:bb:36:01:
                    8d:ef:27:e3:f7:9a:f0:4c:31:64:8d:e3:eb:fa:19:
                    87:a8:7e:cf:ec:8c:0c:36:5b:7a:c1:7a:b8:78:c7:
                    c9:06:2e:46:10:c8:8d:e8:04:60:db:bc:73:74:fa:
                    4e:d8:fe:aa:40:f1:b2:ce:70:46:83:e9:da:40:a1:
                    59:3a:d9:15:09:57:99:56:30:93:f3:c9:61:cc:d0:
                    08:cc:6b:ec:62:42:91:ac:02:c0:ef:a4:f0:89:11:
                    8f:77
                Exponent: 65537 (0x10001)
        X509v3 extensions:
            X509v3 Key Usage: critical
                Digital Signature
            X509v3 Basic Constraints: critical
                CA:FALSE
            X509v3 Extended Key Usage: critical
                Time Stamping
            X509v3 Certificate Policies: 
                Policy: 2.16.840.1.114412.7.1
                  CPS: https://www.digicert.com/CPS
                  User Notice:
                    Explicit Text: 
                Policy: 2.16.840.1.114412.3.21

            X509v3 Authority Key Identifier: 
                keyid:15:00:12:2B:13:98:B2:99:07:ED:1E:DF:A2:BE:57:0D:2B:67:02:CD

            X509v3 Subject Key Identifier: 
                61:5A:4D:24:B6:49:32:9D:4A:2A:79:1A:83:4B:F4:1E:89:C1:CA:7D
            X509v3 CRL Distribution Points: 

                Full Name:
                  URI:http://crl3.digicert.com/DigiCertAssuredIDCA-1.crl

                Full Name:
                  URI:http://crl4.digicert.com/DigiCertAssuredIDCA-1.crl

            Authority Information Access: 
                OCSP - URI:http://ocsp.digicert.com
                CA Issuers - URI:http://cacerts.digicert.com/DigiCertAssuredIDCA-1.crt

    Signature Algorithm: sha1WithRSAEncryption
         9d:25:7e:1b:33:4d:b2:26:81:5c:9b:86:ce:23:20:0f:80:87:
         e5:88:ff:ff:b1:d4:6a:2c:31:ed:3a:17:19:71:17:cd:a9:1b:
         bc:5a:16:39:00:9d:e3:6c:84:e4:5a:40:fb:de:06:01:8c:37:
         fa:9b:b1:9d:24:7e:fe:20:a4:57:ad:5b:b7:9a:b0:60:26:ea:
         69:57:21:5d:34:2f:1f:71:b0:83:94:19:05:6b:35:90:10:a0:
         7b:97:c7:f6:3f:e7:e2:11:41:a6:bd:62:d9:f0:27:3d:38:1d:
         28:6f:3a:52:09:f0:ec:70:62:d3:62:4b:b0:e0:73:a6:92:c0:
         d3:8e:31:d8:2f:e3:6d:17:13:06:ee:e4:03:b6:14:ab:f3:8f:
         43:a7:71:9d:21:dd:14:ca:15:5d:92:41:da:f9:0f:81:d1:99:
         74:0d:26:c4:0e:7f:1b:b5:f5:a0:f1:c6:77:06:28:15:e9:d8:
         93:e5:55:16:f0:bb:0a:ab:1c:db:5c:48:27:66:c8:a3:8b:0a:
         1c:e5:95:da:ae:c4:2e:59:a0:61:dd:da:f3:6d:a2:61:e9:8a:
         0b:6d:ec:12:18:bd:f7:55:54:40:03:92:2b:6b:c2:51:c2:0a:
         48:af:b0:d4:6e:e0:f4:14:0a:3a:1b:e3:8f:3d:ca:af:6a:8d:
         7b:dc:d8:44
-----BEGIN CERTIFICATE-----
MIIGajCCBVKgAwIBAgIQAwGaAjr/WLFr1tXq5hfwZjANBgkqhkiG9w0BAQUFADBi
MQswCQYDVQQGEwJVUzEVMBMGA1UEChMMRGlnaUNlcnQgSW5jMRkwFwYDVQQLExB3
d3cuZGlnaWNlcnQuY29tMSEwHwYDVQQDExhEaWdpQ2VydCBBc3N1cmVkIElEIENB
LTEwHhcNMTQxMDIyMDAwMDAwWhcNMjQxMDIyMDAwMDAwWjBHMQswCQYDVQQGEwJV
UzERMA8GA1UEChMIRGlnaUNlcnQxJTAjBgNVBAMTHERpZ2lDZXJ0IFRpbWVzdGFt
cCBSZXNwb25kZXIwggEiMA0GCSqGSIb3DQEBAQUAA4IBDwAwggEKAoIBAQCjZF38
fLPggjXg4PbGKuZJdTvMbuBTqZ8fZFnmfGt/a4ydVfiS457VWmNbAklQ2YPOb2bu
3cuF6V+l+dSHdIhEOxnJ5fWRn8YUOawk6qhLLJGJzF4o9GS2ULf1ErNzlgpno75h
n67z/RJ4dQ6mWxT9RSOOhkRVfRiGBYxVh3lIRvfKDo2n3k5f4qi2LVkCYYhhchho
ubh87ubnNC8xd4EwH7s2AY3vJ+P3mvBMMWSN4+v6GYeofs/sjAw2W3rBerh4x8kG
LkYQyI3oBGDbvHN0+k7Y/qpA8bLOcEaD6dpAoVk62RUJV5lWMJPzyWHM0AjMa+xi
QpGsAsDvpPCJEY93AgMBAAGjggM1MIIDMTAOBgNVHQ8BAf8EBAMCB4AwDAYDVR0T
AQH/BAIwADAWBgNVHSUBAf8EDDAKBggrBgEFBQcDCDCCAb8GA1UdIASCAbYwggGy
MIIBoQYJYIZIAYb9bAcBMIIBkjAoBggrBgEFBQcCARYcaHR0cHM6Ly93d3cuZGln
aWNlcnQuY29tL0NQUzCCAWQGCCsGAQUFBwICMIIBVh6CAVIAQQBuAHkAIAB1AHMA
ZQAgAG8AZgAgAHQAaABpAHMAIABDAGUAcgB0AGkAZgBpAGMAYQB0AGUAIABjAG8A
bgBzAHQAaQB0AHUAdABlAHMAIABhAGMAYwBlAHAAdABhAG4AYwBlACAAbwBmACAA
dABoAGUAIABEAGkAZwBpAEMAZQByAHQAIABDAFAALwBDAFAAUwAgAGEAbgBkACAA
dABoAGUAIABSAGUAbAB5AGkAbgBnACAAUABhAHIAdAB5ACAAQQBnAHIAZQBlAG0A
ZQBuAHQAIAB3AGgAaQBjAGgAIABsAGkAbQBpAHQAIABsAGkAYQBiAGkAbABpAHQA
eQAgAGEAbgBkACAAYQByAGUAIABpAG4AYwBvAHIAcABvAHIAYQB0AGUAZAAgAGgA
ZQByAGUAaQBuACAAYgB5ACAAcgBlAGYAZQByAGUAbgBjAGUALjALBglghkgBhv1s
AxUwHwYDVR0jBBgwFoAUFQASKxOYspkH7R7for5XDStnAs0wHQYDVR0OBBYEFGFa
TSS2STKdSip5GoNL9B6Jwcp9MH0GA1UdHwR2MHQwOKA2oDSGMmh0dHA6Ly9jcmwz
LmRpZ2ljZXJ0LmNvbS9EaWdpQ2VydEFzc3VyZWRJRENBLTEuY3JsMDigNqA0hjJo
dHRwOi8vY3JsNC5kaWdpY2VydC5jb20vRGlnaUNlcnRBc3N1cmVkSURDQS0xLmNy
bDB3BggrBgEFBQcBAQRrMGkwJAYIKwYBBQUHMAGGGGh0dHA6Ly9vY3NwLmRpZ2lj
ZXJ0LmNvbTBBBggrBgEFBQcwAoY1aHR0cDovL2NhY2VydHMuZGlnaWNlcnQuY29t
L0RpZ2lDZXJ0QXNzdXJlZElEQ0EtMS5jcnQwDQYJKoZIhvcNAQEFBQADggEBAJ0l
fhszTbImgVybhs4jIA+Ah+WI//+x1GosMe06FxlxF82pG7xaFjkAneNshORaQPve
BgGMN/qbsZ0kfv4gpFetW7easGAm6mlXIV00Lx9xsIOUGQVrNZAQoHuXx/Y/5+IR
Qaa9YtnwJz04HShvOlIJ8OxwYtNiS7Dgc6aSwNOOMdgv420XEwbu5AO2FKvzj0On
cZ0h3RTKFV2SQdr5D4HRmXQNJsQOfxu19aDxxncGKBXp2JPlVRbwuwqrHNtcSCdm
yKOLChzlldquxC5ZoGHd2vNtomHpigtt7BIYvfdVVEADkitrwlHCCkivsNRu4PQU
Cjob4489yq9qjXvc2EQ=
-----END CERTIFICATE-----

Certificate:
    Data:
        Version: 3 (0x2)
        Serial Number:
            03:e9:01:7d:54:cd:93:f0:94:d0:a2:ab:7f:c0:e3:f5
    Signature Algorithm: sha1WithRSAEncryption
        Issuer: C=US, O=DigiCert Inc, OU=www.digicert.com, CN=DigiCert High Assurance Code Signing CA-1
        Validity
            Not Before: Oct 30 00:00:00 2013 GMT
            Not After : Nov  4 12:00:00 2015 GMT
        Subject: C=AU, ST=New South Wales, L=Sydney, O=Wen Jia Liu, CN=Wen Jia Liu
        Subject Public Key Info:
            Public Key Algorithm: rsaEncryption
                Public-Key: (2048 bit)
                Modulus:
                    00:d3:1d:c2:e0:3f:42:5c:ad:9e:41:16:88:ef:79:
                    4a:73:7d:58:94:fb:f5:d6:c5:8b:b9:81:57:59:82:
                    af:2c:3e:87:da:cf:25:c6:34:23:33:95:f7:10:ae:
                    18:f7:a6:ff:51:42:ff:da:14:e6:2f:01:cb:3a:a4:
                    b5:0d:da:e0:33:09:c6:57:f3:62:e3:57:98:72:bf:
                    88:05:90:31:3f:45:be:7f:0a:82:16:1d:b9:c3:f7:
                    00:40:d4:37:9c:fa:94:aa:db:22:bc:61:a8:75:b6:
                    c7:45:49:16:e1:de:ba:51:50:00:f6:76:a6:43:27:
                    b0:3c:e4:a2:21:64:38:48:ac:89:83:f5:2b:fd:41:
                    bb:5a:30:d3:bf:35:cb:89:eb:9c:10:c6:5d:d5:e3:
                    6b:2d:e7:fd:6c:f9:da:b3:17:ff:c3:82:da:24:4e:
                    76:6d:a5:28:33:52:78:27:40:fb:fb:f8:6d:38:97:
                    03:81:83:52:dc:ec:87:a2:e0:ab:3f:87:a9:67:5c:
                    5a:dc:21:6a:5b:09:26:1e:19:1f:09:d3:83:0c:11:
                    a7:ca:7e:bd:71:44:cc:9b:b9:55:67:ee:29:e2:c2:
                    2c:57:6c:dd:b0:96:b3:06:59:99:0b:92:03:24:ae:
                    a3:35:27:aa:4b:3a:b8:ea:94:fd:c9:1a:a9:b7:b6:
                    cc:6b
                Exponent: 65537 (0x10001)
        X509v3 extensions:
            X509v3 Authority Key Identifier: 
                keyid:97:48:03:EB:15:08:6B:B9:B2:58:23:CC:94:2E:F1:C6:65:D2:64:8E

            X509v3 Subject Key Identifier: 
                A8:A3:4D:2A:8E:A5:2E:70:45:B6:FA:5B:FA:AD:22:25:ED:BA:8B:6C
            X509v3 Key Usage: critical
                Digital Signature
            X509v3 Extended Key Usage: 
                Code Signing
            X509v3 CRL Distribution Points: 

                Full Name:
                  URI:http://crl3.digicert.com/ha-cs-2011a.crl

                Full Name:
                  URI:http://crl4.digicert.com/ha-cs-2011a.crl

            X509v3 Certificate Policies: 
                Policy: 2.16.840.1.114412.3.1
                  CPS: http://www.digicert.com/ssl-cps-repository.htm
                  User Notice:
                    Explicit Text: 

            Authority Information Access: 
                OCSP - URI:http://ocsp.digicert.com
                CA Issuers - URI:http://cacerts.digicert.com/DigiCertHighAssuranceCodeSigningCA-1.crt

            X509v3 Basic Constraints: critical
                CA:FALSE
    Signature Algorithm: sha1WithRSAEncryption
         bb:c0:31:b3:dd:6b:1c:6e:be:c7:7b:8d:c1:ec:fa:93:81:49:
         c6:4e:0c:95:9e:58:57:db:5c:28:ef:54:9d:df:0b:e9:20:cc:
         b7:ec:51:5a:ae:b1:80:a2:8d:64:a1:f4:06:5d:38:cb:99:7d:
         b5:92:95:f1:23:85:13:92:90:3c:67:3e:d6:d1:db:93:0e:c1:
         61:8a:dd:99:89:f0:f1:fc:8d:06:ec:5a:94:52:42:cd:74:32:
         d6:83:8e:33:b4:c3:e4:78:4e:75:4b:64:dc:e0:78:68:6a:b2:
         e6:62:68:48:ff:7d:cd:6f:b7:ef:eb:ff:df:da:d1:ee:fc:1e:
         98:f9:c3:38:ff:25:65:f0:50:39:17:6b:24:14:8a:84:16:14:
         63:51:57:da:5f:61:a1:7b:bd:6d:47:98:15:71:4e:8d:30:67:
         f0:32:0d:5e:8b:fa:a6:e3:57:31:80:49:25:df:9b:85:ba:32:
         c0:d9:f4:cc:d4:84:d6:d1:b2:79:ba:d0:ef:22:b0:da:37:58:
         26:ea:2e:11:9d:5c:84:8d:9a:92:75:b9:3a:bb:08:4c:02:af:
         9f:1b:46:c5:35:76:52:f1:13:f5:56:fd:b9:d1:90:02:23:34:
         15:03:f4:e8:9b:98:ba:e1:34:f7:cc:9d:64:09:fc:f7:2d:2c:
         74:6c:71:4a
-----BEGIN CERTIFICATE-----
MIIGljCCBX6gAwIBAgIQA+kBfVTNk/CU0KKrf8Dj9TANBgkqhkiG9w0BAQUFADBz
MQswCQYDVQQGEwJVUzEVMBMGA1UEChMMRGlnaUNlcnQgSW5jMRkwFwYDVQQLExB3
d3cuZGlnaWNlcnQuY29tMTIwMAYDVQQDEylEaWdpQ2VydCBIaWdoIEFzc3VyYW5j
ZSBDb2RlIFNpZ25pbmcgQ0EtMTAeFw0xMzEwMzAwMDAwMDBaFw0xNTExMDQxMjAw
MDBaMGQxCzAJBgNVBAYTAkFVMRgwFgYDVQQIEw9OZXcgU291dGggV2FsZXMxDzAN
BgNVBAcTBlN5ZG5leTEUMBIGA1UEChMLV2VuIEppYSBMaXUxFDASBgNVBAMTC1dl
biBKaWEgTGl1MIIBIjANBgkqhkiG9w0BAQEFAAOCAQ8AMIIBCgKCAQEA0x3C4D9C
XK2eQRaI73lKc31YlPv11sWLuYFXWYKvLD6H2s8lxjQjM5X3EK4Y96b/UUL/2hTm
LwHLOqS1DdrgMwnGV/Ni41eYcr+IBZAxP0W+fwqCFh25w/cAQNQ3nPqUqtsivGGo
dbbHRUkW4d66UVAA9namQyewPOSiIWQ4SKyJg/Ur/UG7WjDTvzXLieucEMZd1eNr
Lef9bPnasxf/w4LaJE52baUoM1J4J0D7+/htOJcDgYNS3OyHouCrP4epZ1xa3CFq
WwkmHhkfCdODDBGnyn69cUTMm7lVZ+4p4sIsV2zdsJazBlmZC5IDJK6jNSeqSzq4
6pT9yRqpt7bMawIDAQABo4IDMzCCAy8wHwYDVR0jBBgwFoAUl0gD6xUIa7myWCPM
lC7xxmXSZI4wHQYDVR0OBBYEFKijTSqOpS5wRbb6W/qtIiXtuotsMA4GA1UdDwEB
/wQEAwIHgDATBgNVHSUEDDAKBggrBgEFBQcDAzBpBgNVHR8EYjBgMC6gLKAqhiho
dHRwOi8vY3JsMy5kaWdpY2VydC5jb20vaGEtY3MtMjAxMWEuY3JsMC6gLKAqhiho
dHRwOi8vY3JsNC5kaWdpY2VydC5jb20vaGEtY3MtMjAxMWEuY3JsMIIBxAYDVR0g
BIIBuzCCAbcwggGzBglghkgBhv1sAwEwggGkMDoGCCsGAQUFBwIBFi5odHRwOi8v
d3d3LmRpZ2ljZXJ0LmNvbS9zc2wtY3BzLXJlcG9zaXRvcnkuaHRtMIIBZAYIKwYB
BQUHAgIwggFWHoIBUgBBAG4AeQAgAHUAcwBlACAAbwBmACAAdABoAGkAcwAgAEMA
ZQByAHQAaQBmAGkAYwBhAHQAZQAgAGMAbwBuAHMAdABpAHQAdQB0AGUAcwAgAGEA
YwBjAGUAcAB0AGEAbgBjAGUAIABvAGYAIAB0AGgAZQAgAEQAaQBnAGkAQwBlAHIA
dAAgAEMAUAAvAEMAUABTACAAYQBuAGQAIAB0AGgAZQAgAFIAZQBsAHkAaQBuAGcA
IABQAGEAcgB0AHkAIABBAGcAcgBlAGUAbQBlAG4AdAAgAHcAaABpAGMAaAAgAGwA
aQBtAGkAdAAgAGwAaQBhAGIAaQBsAGkAdAB5ACAAYQBuAGQAIABhAHIAZQAgAGkA
bgBjAG8AcgBwAG8AcgBhAHQAZQBkACAAaABlAHIAZQBpAG4AIABiAHkAIAByAGUA
ZgBlAHIAZQBuAGMAZQAuMIGGBggrBgEFBQcBAQR6MHgwJAYIKwYBBQUHMAGGGGh0
dHA6Ly9vY3NwLmRpZ2ljZXJ0LmNvbTBQBggrBgEFBQcwAoZEaHR0cDovL2NhY2Vy
dHMuZGlnaWNlcnQuY29tL0RpZ2lDZXJ0SGlnaEFzc3VyYW5jZUNvZGVTaWduaW5n
Q0EtMS5jcnQwDAYDVR0TAQH/BAIwADANBgkqhkiG9w0BAQUFAAOCAQEAu8Axs91r
HG6+x3uNwez6k4FJxk4MlZ5YV9tcKO9Und8L6SDMt+xRWq6xgKKNZKH0Bl04y5l9
tZKV8SOFE5KQPGc+1tHbkw7BYYrdmYnw8fyNBuxalFJCzXQy1oOOM7TD5HhOdUtk
3OB4aGqy5mJoSP99zW+37+v/39rR7vwemPnDOP8lZfBQORdrJBSKhBYUY1FX2l9h
oXu9bUeYFXFOjTBn8DINXov6puNXMYBJJd+bhboywNn0zNSE1tGyebrQ7yKw2jdY
JuouEZ1chI2aknW5OrsITAKvnxtGxTV2UvET9Vb9udGQAiM0FQP06JuYuuE098yd
ZAn89y0sdGxxSg==
-----END CERTIFICATE-----

Certificate:
    Data:
        Version: 3 (0x2)
        Serial Number:
            02:c4:d1:e5:8a:4a:68:0c:56:8d:a3:04:7e:7e:4d:5f
    Signature Algorithm: sha1WithRSAEncryption
        Issuer: C=US, O=DigiCert Inc, OU=www.digicert.com, CN=DigiCert High Assurance EV Root CA
        Validity
            Not Before: Feb 11 12:00:00 2011 GMT
            Not After : Feb 10 12:00:00 2026 GMT
        Subject: C=US, O=DigiCert Inc, OU=www.digicert.com, CN=DigiCert High Assurance Code Signing CA-1
        Subject Public Key Info:
            Public Key Algorithm: rsaEncryption
                Public-Key: (2048 bit)
                Modulus:
                    00:c5:f9:23:e6:94:27:c4:80:14:a4:80:32:5f:40:
                    a3:8d:6f:70:c0:e5:36:71:71:3a:75:a4:aa:1a:92:
                    94:89:5e:ac:23:71:cb:4e:67:7d:41:3f:aa:e3:4b:
                    b7:7b:be:9d:c1:a8:38:8f:69:2f:3a:24:e9:77:59:
                    12:c7:66:04:43:c2:0d:26:82:89:40:19:f2:2c:ea:
                    e7:4c:e7:7c:05:1a:b8:ff:88:09:4f:26:37:ef:3a:
                    a4:fa:22:6c:88:c9:4a:1b:61:f2:ae:10:5e:6f:bc:
                    d1:79:9b:59:18:60:e5:ee:29:b5:03:2a:a4:ce:f1:
                    83:19:4f:69:05:73:28:09:fb:22:10:93:22:a0:90:
                    19:1a:4c:31:f2:d3:2b:d8:84:43:af:3c:63:ff:98:
                    db:20:d2:09:2b:54:c1:ea:fd:6a:83:e7:10:a3:12:
                    71:f5:d6:d7:e1:12:7a:d5:e0:56:5a:ce:ea:01:5b:
                    68:65:5b:c1:3f:58:52:33:a9:35:61:4e:22:cb:81:
                    ca:36:a3:12:cb:06:d6:cf:1b:4d:18:7e:b9:92:b9:
                    12:cf:40:26:d8:9a:36:85:b3:15:aa:47:93:84:6b:
                    07:bb:bc:d5:b3:de:25:00:11:89:00:68:c1:29:3c:
                    ea:3e:2d:ee:50:ab:d7:1c:30:06:78:3c:a5:10:23:
                    67:91
                Exponent: 65537 (0x10001)
        X509v3 extensions:
            X509v3 Key Usage: critical
                Digital Signature, Certificate Sign, CRL Sign
            X509v3 Extended Key Usage: 
                Code Signing
            X509v3 Certificate Policies: 
                Policy: 2.16.840.1.114412.3
                  CPS: http://www.digicert.com/ssl-cps-repository.htm
                  User Notice:
                    Explicit Text: 

            X509v3 Basic Constraints: critical
                CA:TRUE, pathlen:0
            Authority Information Access: 
                OCSP - URI:http://ocsp.digicert.com
                CA Issuers - URI:http://cacerts.digicert.com/DigiCertHighAssuranceEVRootCA.crt

            X509v3 CRL Distribution Points: 

                Full Name:
                  URI:http://crl3.digicert.com/DigiCertHighAssuranceEVRootCA.crl

                Full Name:
                  URI:http://crl4.digicert.com/DigiCertHighAssuranceEVRootCA.crl

            X509v3 Subject Key Identifier: 
                97:48:03:EB:15:08:6B:B9:B2:58:23:CC:94:2E:F1:C6:65:D2:64:8E
            X509v3 Authority Key Identifier: 
                keyid:B1:3E:C3:69:03:F8:BF:47:01:D4:98:26:1A:08:02:EF:63:64:2B:C3

    Signature Algorithm: sha1WithRSAEncryption
         49:eb:7c:60:be:ae:ef:c9:7c:b3:c5:ba:4b:64:df:16:69:e2:
         86:fa:29:d9:de:98:85:7d:40:66:26:33:2f:44:55:aa:aa:90:
         e9:35:70:0a:34:be:d3:ae:54:2e:8e:65:00:d6:7a:32:20:3e:
         6c:26:b8:98:a9:39:b1:bc:95:c7:aa:e9:f5:ee:46:66:c6:b3:
         e8:12:f8:b3:97:9d:ff:74:58:82:34:99:75:50:ac:44:8f:e8:
         92:ce:7d:8b:0f:31:96:c7:dc:d3:11:30:98:74:16:c6:e5:6b:
         45:76:a3:94:01:cd:33:00:7a:48:f6:6f:86:31:c9:56:2b:33:
         22:d5:f8:01:b6:44:ce:8c:b4:ca:88:d2:e4:16:e3:e7:f6:e2:
         3e:e1:09:c0:9d:79:43:43:7f:55:5c:05:ad:93:10:c6:2c:0d:
         6b:c0:9e:ea:78:e5:d2:77:d6:b8:da:9a:98:7f:ba:4c:92:2b:
         9d:bd:a4:88:b1:dd:af:c3:4c:d2:97:9b:03:c6:ae:5f:1b:44:
         0f:33:37:15:e3:cb:ff:2f:56:d3:16:a4:5b:55:67:9d:a2:ca:
         db:34:6c:0c:73:4a:b5:7b:a4:b6:b3:e9:35:02:78:70:ec:00:
         7a:cb:fc:4b:4f:22:36:bb:14:84:c9:8f:91:dd:0f:3c:75:8c:
         ca:0b:88:e7
-----BEGIN CERTIFICATE-----
MIIGwjCCBaqgAwIBAgIQAsTR5YpKaAxWjaMEfn5NXzANBgkqhkiG9w0BAQUFADBs
MQswCQYDVQQGEwJVUzEVMBMGA1UEChMMRGlnaUNlcnQgSW5jMRkwFwYDVQQLExB3
d3cuZGlnaWNlcnQuY29tMSswKQYDVQQDEyJEaWdpQ2VydCBIaWdoIEFzc3VyYW5j
ZSBFViBSb290IENBMB4XDTExMDIxMTEyMDAwMFoXDTI2MDIxMDEyMDAwMFowczEL
MAkGA1UEBhMCVVMxFTATBgNVBAoTDERpZ2lDZXJ0IEluYzEZMBcGA1UECxMQd3d3
LmRpZ2ljZXJ0LmNvbTEyMDAGA1UEAxMpRGlnaUNlcnQgSGlnaCBBc3N1cmFuY2Ug
Q29kZSBTaWduaW5nIENBLTEwggEiMA0GCSqGSIb3DQEBAQUAA4IBDwAwggEKAoIB
AQDF+SPmlCfEgBSkgDJfQKONb3DA5TZxcTp1pKoakpSJXqwjcctOZ31BP6rjS7d7
vp3BqDiPaS86JOl3WRLHZgRDwg0mgolAGfIs6udM53wFGrj/iAlPJjfvOqT6ImyI
yUobYfKuEF5vvNF5m1kYYOXuKbUDKqTO8YMZT2kFcygJ+yIQkyKgkBkaTDHy0yvY
hEOvPGP/mNsg0gkrVMHq/WqD5xCjEnH11tfhEnrV4FZazuoBW2hlW8E/WFIzqTVh
TiLLgco2oxLLBtbPG00YfrmSuRLPQCbYmjaFsxWqR5OEawe7vNWz3iUAEYkAaMEp
POo+Le5Qq9ccMAZ4PKUQI2eRAgMBAAGjggNXMIIDUzAOBgNVHQ8BAf8EBAMCAYYw
EwYDVR0lBAwwCgYIKwYBBQUHAwMwggHDBgNVHSAEggG6MIIBtjCCAbIGCGCGSAGG
/WwDMIIBpDA6BggrBgEFBQcCARYuaHR0cDovL3d3dy5kaWdpY2VydC5jb20vc3Ns
LWNwcy1yZXBvc2l0b3J5Lmh0bTCCAWQGCCsGAQUFBwICMIIBVh6CAVIAQQBuAHkA
IAB1AHMAZQAgAG8AZgAgAHQAaABpAHMAIABDAGUAcgB0AGkAZgBpAGMAYQB0AGUA
IABjAG8AbgBzAHQAaQB0AHUAdABlAHMAIABhAGMAYwBlAHAAdABhAG4AYwBlACAA
bwBmACAAdABoAGUAIABEAGkAZwBpAEMAZQByAHQAIABDAFAALwBDAFAAUwAgAGEA
bgBkACAAdABoAGUAIABSAGUAbAB5AGkAbgBnACAAUABhAHIAdAB5ACAAQQBnAHIA
ZQBlAG0AZQBuAHQAIAB3AGgAaQBjAGgAIABsAGkAbQBpAHQAIABsAGkAYQBiAGkA
bABpAHQAeQAgAGEAbgBkACAAYQByAGUAIABpAG4AYwBvAHIAcABvAHIAYQB0AGUA
ZAAgAGgAZQByAGUAaQBuACAAYgB5ACAAcgBlAGYAZQByAGUAbgBjAGUALjASBgNV
HRMBAf8ECDAGAQH/AgEAMH8GCCsGAQUFBwEBBHMwcTAkBggrBgEFBQcwAYYYaHR0
cDovL29jc3AuZGlnaWNlcnQuY29tMEkGCCsGAQUFBzAChj1odHRwOi8vY2FjZXJ0
cy5kaWdpY2VydC5jb20vRGlnaUNlcnRIaWdoQXNzdXJhbmNlRVZSb290Q0EuY3J0
MIGPBgNVHR8EgYcwgYQwQKA+oDyGOmh0dHA6Ly9jcmwzLmRpZ2ljZXJ0LmNvbS9E
aWdpQ2VydEhpZ2hBc3N1cmFuY2VFVlJvb3RDQS5jcmwwQKA+oDyGOmh0dHA6Ly9j
cmw0LmRpZ2ljZXJ0LmNvbS9EaWdpQ2VydEhpZ2hBc3N1cmFuY2VFVlJvb3RDQS5j
cmwwHQYDVR0OBBYEFJdIA+sVCGu5slgjzJQu8cZl0mSOMB8GA1UdIwQYMBaAFLE+
w2kD+L9HAdSYJhoIAu9jZCvDMA0GCSqGSIb3DQEBBQUAA4IBAQBJ63xgvq7vyXyz
xbpLZN8WaeKG+inZ3piFfUBmJjMvRFWqqpDpNXAKNL7TrlQujmUA1noyID5sJriY
qTmxvJXHqun17kZmxrPoEvizl53/dFiCNJl1UKxEj+iSzn2LDzGWx9zTETCYdBbG
5WtFdqOUAc0zAHpI9m+GMclWKzMi1fgBtkTOjLTKiNLkFuPn9uI+4QnAnXlDQ39V
XAWtkxDGLA1rwJ7qeOXSd9a42pqYf7pMkiudvaSIsd2vw0zSl5sDxq5fG0QPMzcV
48v/L1bTFqRbVWedosrbNGwMc0q1e6S2s+k1Anhw7AB6y/xLTyI2uxSEyY+R3Q88
dYzKC4jn
-----END CERTIFICATE-----

Certificate:
    Data:
        Version: 3 (0x2)
        Serial Number:
            06:fd:f9:03:96:03:ad:ea:00:0a:eb:3f:27:bb:ba:1b
    Signature Algorithm: sha1WithRSAEncryption
        Issuer: C=US, O=DigiCert Inc, OU=www.digicert.com, CN=DigiCert Assured ID Root CA
        Validity
            Not Before: Nov 10 00:00:00 2006 GMT
            Not After : Nov 10 00:00:00 2021 GMT
        Subject: C=US, O=DigiCert Inc, OU=www.digicert.com, CN=DigiCert Assured ID CA-1
        Subject Public Key Info:
            Public Key Algorithm: rsaEncryption
                Public-Key: (2048 bit)
                Modulus:
                    00:e8:82:2d:99:f9:ca:c2:42:95:a5:80:73:40:70:
                    d2:9e:56:54:5c:a9:c4:d2:41:06:8f:c9:33:fc:4d:
                    45:91:5c:81:9f:ed:2c:9c:f8:16:59:df:9e:b5:24:
                    15:c2:98:b9:b4:77:49:dc:89:c4:0a:da:af:cb:5e:
                    6b:ed:ad:b0:71:31:eb:cf:3a:40:0c:46:4d:93:ec:
                    8b:7a:36:08:03:ab:0c:34:fe:18:49:82:fe:c7:c7:
                    31:48:80:7c:1e:a2:0f:92:0e:50:c9:c6:87:eb:36:
                    3f:d8:30:c3:ff:a6:f7:fb:a2:cd:6f:73:23:fe:ac:
                    56:05:90:f0:32:21:16:89:c6:70:88:f9:05:97:7d:
                    a3:c7:43:dd:02:e8:3b:3d:ed:b1:41:a3:ed:3f:be:
                    db:95:48:c4:ee:1e:b3:f2:bc:0c:2b:99:d0:c6:5d:
                    12:42:81:e1:83:6e:82:73:3f:26:4b:14:90:ae:59:
                    66:0a:c4:8d:be:d2:ce:06:ae:ad:84:6f:48:84:9b:
                    4f:40:b9:f1:4c:f2:af:98:fb:f6:ce:40:5d:5c:f6:
                    a8:f1:2f:af:ec:89:22:f2:6b:18:65:b1:c1:73:ad:
                    d7:f1:d8:cf:1e:0a:74:5c:42:b8:68:7e:b7:d5:77:
                    0a:27:56:7c:0f:62:a4:3f:32:14:60:95:fd:07:04:
                    a2:09
                Exponent: 65537 (0x10001)
        X509v3 extensions:
            X509v3 Key Usage: critical
                Digital Signature, Certificate Sign, CRL Sign
            X509v3 Extended Key Usage: 
                TLS Web Server Authentication, TLS Web Client Authentication, Code Signing, E-mail Protection, Time Stamping
            X509v3 Certificate Policies: 
                Policy: 2.16.840.1.114412.0.1.4
                  CPS: http://www.digicert.com/ssl-cps-repository.htm
                  User Notice:
                    Explicit Text: 
                Policy: 2.16.840.1.114412.3.21

            X509v3 Basic Constraints: critical
                CA:TRUE, pathlen:0
            Authority Information Access: 
                OCSP - URI:http://ocsp.digicert.com
                CA Issuers - URI:http://cacerts.digicert.com/DigiCertAssuredIDRootCA.crt

            X509v3 CRL Distribution Points: 

                Full Name:
                  URI:http://crl3.digicert.com/DigiCertAssuredIDRootCA.crl

                Full Name:
                  URI:http://crl4.digicert.com/DigiCertAssuredIDRootCA.crl

            X509v3 Subject Key Identifier: 
                15:00:12:2B:13:98:B2:99:07:ED:1E:DF:A2:BE:57:0D:2B:67:02:CD
            X509v3 Authority Key Identifier: 
                keyid:45:EB:A2:AF:F4:92:CB:82:31:2D:51:8B:A7:A7:21:9D:F3:6D:C8:0F

    Signature Algorithm: sha1WithRSAEncryption
         46:50:3e:c9:b7:28:24:a7:38:1d:b6:5b:29:af:52:cf:52:e9:
         31:47:ab:56:5c:7b:d5:0d:0b:41:b3:ef:ec:75:1f:74:38:f2:
         b2:5c:61:a2:9c:95:c3:50:e4:82:b9:23:d1:ba:3a:86:72:ad:
         38:78:ac:75:5d:17:17:34:72:47:85:94:56:d1:eb:bb:36:84:
         77:cc:24:a5:f3:04:19:55:a9:e7:e3:e7:ab:62:cd:fb:8b:2d:
         90:c2:c0:d2:b5:94:bd:5e:4f:b1:05:d2:0e:3d:1a:a9:14:5b:
         a6:86:31:62:a8:a8:33:e4:9b:39:a7:c4:f5:ce:1d:78:76:94:
         25:73:e4:2a:ab:cf:9c:76:4b:ed:5f:c2:4b:16:e4:4b:70:4c:
         00:89:1e:fc:c5:79:bc:4c:12:57:fe:5f:e1:1e:bc:02:5d:a8:
         fe:fb:07:38:4f:0d:c6:5d:91:b9:0f:67:45:cd:d6:83:ed:e7:
         92:0d:8d:b1:69:8c:4f:fb:59:e0:23:0f:d2:aa:ae:00:7c:ee:
         9c:42:0e:cf:91:d7:27:b7:16:ee:0f:c3:bd:7c:0a:a0:ee:2c:
         08:55:85:22:b8:eb:18:1a:4d:fc:2a:21:ad:49:31:83:47:95:
         77:71:dc:b1:1b:4b:4b:1c:10:9c:77:14:c1:9d:4f:2f:5a:95:
         08:29:10:26
-----BEGIN CERTIFICATE-----
MIIGzTCCBbWgAwIBAgIQBv35A5YDreoACus/J7u6GzANBgkqhkiG9w0BAQUFADBl
MQswCQYDVQQGEwJVUzEVMBMGA1UEChMMRGlnaUNlcnQgSW5jMRkwFwYDVQQLExB3
d3cuZGlnaWNlcnQuY29tMSQwIgYDVQQDExtEaWdpQ2VydCBBc3N1cmVkIElEIFJv
b3QgQ0EwHhcNMDYxMTEwMDAwMDAwWhcNMjExMTEwMDAwMDAwWjBiMQswCQYDVQQG
EwJVUzEVMBMGA1UEChMMRGlnaUNlcnQgSW5jMRkwFwYDVQQLExB3d3cuZGlnaWNl
cnQuY29tMSEwHwYDVQQDExhEaWdpQ2VydCBBc3N1cmVkIElEIENBLTEwggEiMA0G
CSqGSIb3DQEBAQUAA4IBDwAwggEKAoIBAQDogi2Z+crCQpWlgHNAcNKeVlRcqcTS
QQaPyTP8TUWRXIGf7Syc+BZZ3561JBXCmLm0d0ncicQK2q/LXmvtrbBxMevPOkAM
Rk2T7It6NggDqww0/hhJgv7HxzFIgHweog+SDlDJxofrNj/YMMP/pvf7os1vcyP+
rFYFkPAyIRaJxnCI+QWXfaPHQ90C6Ds97bFBo+0/vtuVSMTuHrPyvAwrmdDGXRJC
geGDboJzPyZLFJCuWWYKxI2+0s4Grq2Eb0iEm09AufFM8q+Y+/bOQF1c9qjxL6/s
iSLyaxhlscFzrdfx2M8eCnRcQrhofrfVdwonVnwPYqQ/MhRglf0HBKIJAgMBAAGj
ggN6MIIDdjAOBgNVHQ8BAf8EBAMCAYYwOwYDVR0lBDQwMgYIKwYBBQUHAwEGCCsG
AQUFBwMCBggrBgEFBQcDAwYIKwYBBQUHAwQGCCsGAQUFBwMIMIIB0gYDVR0gBIIB
yTCCAcUwggG0BgpghkgBhv1sAAEEMIIBpDA6BggrBgEFBQcCARYuaHR0cDovL3d3
dy5kaWdpY2VydC5jb20vc3NsLWNwcy1yZXBvc2l0b3J5Lmh0bTCCAWQGCCsGAQUF
BwICMIIBVh6CAVIAQQBuAHkAIAB1AHMAZQAgAG8AZgAgAHQAaABpAHMAIABDAGUA
cgB0AGkAZgBpAGMAYQB0AGUAIABjAG8AbgBzAHQAaQB0AHUAdABlAHMAIABhAGMA
YwBlAHAAdABhAG4AYwBlACAAbwBmACAAdABoAGUAIABEAGkAZwBpAEMAZQByAHQA
IABDAFAALwBDAFAAUwAgAGEAbgBkACAAdABoAGUAIABSAGUAbAB5AGkAbgBnACAA
UABhAHIAdAB5ACAAQQBnAHIAZQBlAG0AZQBuAHQAIAB3AGgAaQBjAGgAIABsAGkA
bQBpAHQAIABsAGkAYQBiAGkAbABpAHQAeQAgAGEAbgBkACAAYQByAGUAIABpAG4A
YwBvAHIAcABvAHIAYQB0AGUAZAAgAGgAZQByAGUAaQBuACAAYgB5ACAAcgBlAGYA
ZQByAGUAbgBjAGUALjALBglghkgBhv1sAxUwEgYDVR0TAQH/BAgwBgEB/wIBADB5
BggrBgEFBQcBAQRtMGswJAYIKwYBBQUHMAGGGGh0dHA6Ly9vY3NwLmRpZ2ljZXJ0
LmNvbTBDBggrBgEFBQcwAoY3aHR0cDovL2NhY2VydHMuZGlnaWNlcnQuY29tL0Rp
Z2lDZXJ0QXNzdXJlZElEUm9vdENBLmNydDCBgQYDVR0fBHoweDA6oDigNoY0aHR0
cDovL2NybDMuZGlnaWNlcnQuY29tL0RpZ2lDZXJ0QXNzdXJlZElEUm9vdENBLmNy
bDA6oDigNoY0aHR0cDovL2NybDQuZGlnaWNlcnQuY29tL0RpZ2lDZXJ0QXNzdXJl
ZElEUm9vdENBLmNybDAdBgNVHQ4EFgQUFQASKxOYspkH7R7for5XDStnAs0wHwYD
VR0jBBgwFoAUReuir/SSy4IxLVGLp6chnfNtyA8wDQYJKoZIhvcNAQEFBQADggEB
AEZQPsm3KCSnOB22WymvUs9S6TFHq1Zce9UNC0Gz7+x1H3Q48rJcYaKclcNQ5IK5
I9G6OoZyrTh4rHVdFxc0ckeFlFbR67s2hHfMJKXzBBlVqefj56tizfuLLZDCwNK1
lL1eT7EF0g49GqkUW6aGMWKoqDPkmzmnxPXOHXh2lCVz5Cqrz5x2S+1fwksW5Etw
TACJHvzFebxMElf+X+EevAJdqP77BzhPDcZdkbkPZ0XN1oPt55INjbFpjE/7WeAj
D9KqrgB87pxCDs+R1ye3Fu4Pw718CqDuLAhVhSK46xgaTfwqIa1JMYNHlXdx3LEb
S0scEJx3FMGdTy9alQgpECY=
-----END CERTIFICATE-----

