Certificate:
    Data:
        Version: 3 (0x2)
        Serial Number:
            04:00:00:00:00:01:2f:4e:e1:52:d7
    Signature Algorithm: sha1WithRSAEncryption
        Issuer: C=BE, O=GlobalSign nv-sa, OU=Root CA, CN=GlobalSign Root CA
        Validity
            Not Before: Apr 13 10:00:00 2011 GMT
            Not After : Jan 28 12:00:00 2028 GMT
        Subject: C=BE, O=GlobalSign nv-sa, CN=GlobalSign Timestamping CA - G2
        Subject Public Key Info:
            Public Key Algorithm: rsaEncryption
                Public-Key: (2048 bit)
                Modulus:
                    00:94:ef:65:f8:b5:57:9f:a0:53:0d:34:06:eb:09:
                    1f:b7:47:18:6a:cb:f0:5b:e4:ff:27:a5:34:d1:f7:
                    89:1a:bf:9e:b1:cd:12:41:6e:66:d4:81:a0:85:8b:
                    64:5a:46:2f:99:a0:8d:77:b1:e2:bc:5c:dd:22:d7:
                    6a:67:d0:bb:e8:ca:74:de:8b:4f:0d:b0:52:e5:90:
                    5b:eb:47:0e:f1:e7:9f:9c:0b:90:65:3e:17:96:30:
                    45:72:6d:39:a1:17:36:ca:b9:a0:8c:1b:4f:08:19:
                    f6:81:31:ad:61:16:a4:62:e6:b4:40:9e:c3:fc:fb:
                    95:f6:fb:b5:2e:95:81:98:e0:ef:c5:eb:d8:02:59:
                    78:77:f7:aa:e3:52:6b:50:91:29:c5:fc:f7:cd:93:
                    65:d2:60:61:22:f2:06:fb:32:dd:16:51:fa:0e:fd:
                    8a:30:f0:17:09:a7:bb:f3:04:ae:ab:90:e7:6c:df:
                    7a:a9:f4:ef:c4:62:27:5f:6f:99:6d:38:74:aa:11:
                    8b:da:df:c7:14:4c:e9:85:b2:ec:c2:7d:4a:26:8f:
                    e7:56:ba:a6:e0:cf:92:53:80:74:f4:03:ec:68:b2:
                    60:bc:84:20:00:83:1b:a1:ee:b4:74:05:c1:29:8e:
                    62:d0:47:b1:fa:f0:53:cc:18:f9:2e:3b:f9:70:7e:
                    b4:25
                Exponent: 65537 (0x10001)
        X509v3 extensions:
            X509v3 Key Usage: critical
                Certificate Sign, CRL Sign
            X509v3 Basic Constraints: critical
                CA:TRUE, pathlen:0
            X509v3 Subject Key Identifier: 
                46:D8:3E:FF:DC:E3:BE:FF:83:E6:F4:85:9B:B0:DD:6A:D6:14:A9:C1
            X509v3 Certificate Policies: 
                Policy: X509v3 Any Policy
                  CPS: https://www.globalsign.com/repository/

            X509v3 CRL Distribution Points: 

                Full Name:
                  URI:http://crl.globalsign.net/root.crl

            X509v3 Authority Key Identifier: 
                keyid:60:7B:66:1A:45:0D:97:CA:89:50:2F:7D:04:CD:34:A8:FF:FC:FD:4B

    Signature Algorithm: sha1WithRSAEncryption
         4e:5e:56:90:1e:46:b4:d9:49:31:f3:bb:17:39:28:1b:c2:16:
         dd:fd:41:dc:09:05:04:9b:6f:b2:a2:9a:d6:99:2e:40:99:00:
         55:b5:ea:3f:a5:20:76:d3:86:34:d4:17:cc:55:3a:c7:82:ee:
         ef:a8:ba:bc:d8:06:9f:15:50:df:cd:16:7b:52:3a:02:d7:19:
         1a:fd:af:f0:78:5c:e0:4b:c5:18:df:3a:24:1e:da:ac:b8:a9:
         58:04:02:07:30:db:b0:12:5e:fe:31:be:f0:04:48:f4:f0:70:
         f8:3a:5e:56:83:cf:3d:fb:0d:bc:f4:c5:ed:97:9d:b9:d4:db:
         a5:27:84:e3:38:9b:8b:a7:35:86:44:20:a4:3b:6d:a4:6a:0b:
         a1:83:fd:28:eb:da:ef:28:f6:cc:88:5d:fb:0a:3b:00:ab:e0:
         21:eb:e2:2f:35:6c:0f:8e:34:45:97:eb:a2:f7:99:33:35:7e:
         cb:9a:8a:bb:45:4d:e7:3f:9f:c2:d9:8a:fa:65:b2:6e:c7:7e:
         65:ff:e8:92:e1:2c:31:a2:f7:b0:27:36:48:8f:26:6f:3b:ee:
         4d:76:1f:79:c3:e5:7f:96:35:bc:2d:0e:cc:01:b0:8e:7f:ff:
         51:80:80:a7:92:d4:b3:44:46:64:8c:87:4f:16:63:07:31:4b:
         63:b0:df:f3
-----BEGIN CERTIFICATE-----
MIIEFDCCAvygAwIBAgILBAAAAAABL07hUtcwDQYJKoZIhvcNAQEFBQAwVzELMAkG
A1UEBhMCQkUxGTAXBgNVBAoTEEdsb2JhbFNpZ24gbnYtc2ExEDAOBgNVBAsTB1Jv
b3QgQ0ExGzAZBgNVBAMTEkdsb2JhbFNpZ24gUm9vdCBDQTAeFw0xMTA0MTMxMDAw
MDBaFw0yODAxMjgxMjAwMDBaMFIxCzAJBgNVBAYTAkJFMRkwFwYDVQQKExBHbG9i
YWxTaWduIG52LXNhMSgwJgYDVQQDEx9HbG9iYWxTaWduIFRpbWVzdGFtcGluZyBD
QSAtIEcyMIIBIjANBgkqhkiG9w0BAQEFAAOCAQ8AMIIBCgKCAQEAlO9l+LVXn6BT
DTQG6wkft0cYasvwW+T/J6U00feJGr+esc0SQW5m1IGghYtkWkYvmaCNd7HivFzd
ItdqZ9C76Mp03otPDbBS5ZBb60cO8eefnAuQZT4XljBFcm05oRc2yrmgjBtPCBn2
gTGtYRakYua0QJ7D/PuV9vu1LpWBmODvxevYAll4d/eq41JrUJEpxfz3zZNl0mBh
IvIG+zLdFlH6Dv2KMPAXCae78wSuq5DnbN96qfTvxGInX2+ZbTh0qhGL2t/HFEzp
hbLswn1KJo/nVrqm4M+SU4B09APsaLJgvIQgAIMboe60dAXBKY5i0Eex+vBTzBj5
Ljv5cH60JQIDAQABo4HlMIHiMA4GA1UdDwEB/wQEAwIBBjASBgNVHRMBAf8ECDAG
AQH/AgEAMB0GA1UdDgQWBBRG2D7/3OO+/4Pm9IWbsN1q1hSpwTBHBgNVHSAEQDA+
MDwGBFUdIAAwNDAyBggrBgEFBQcCARYmaHR0cHM6Ly93d3cuZ2xvYmFsc2lnbi5j
b20vcmVwb3NpdG9yeS8wMwYDVR0fBCwwKjAooCagJIYiaHR0cDovL2NybC5nbG9i
YWxzaWduLm5ldC9yb290LmNybDAfBgNVHSMEGDAWgBRge2YaRQ2XyolQL30EzTSo
//z9SzANBgkqhkiG9w0BAQUFAAOCAQEATl5WkB5GtNlJMfO7FzkoG8IW3f1B3AkF
BJtvsqKa1pkuQJkAVbXqP6UgdtOGNNQXzFU6x4Lu76i6vNgGnxVQ380We1I6AtcZ
Gv2v8Hhc4EvFGN86JB7arLipWAQCBzDbsBJe/jG+8ARI9PBw+DpeVoPPPfsNvPTF
7ZedudTbpSeE4zibi6c1hkQgpDttpGoLoYP9KOva7yj2zIhd+wo7AKvgIeviLzVs
D440RZfroveZMzV+y5qKu0VN5z+fwtmK+mWybsd+Zf/okuEsMaL3sCc2SI8mbzvu
TXYfecPlf5Y1vC0OzAGwjn//UYCAp5LUs0RGZIyHTxZjBzFLY7Df8w==
-----END CERTIFICATE-----

Certificate:
    Data:
        Version: 3 (0x2)
        Serial Number:
            04:00:00:00:00:01:2f:4e:e1:35:5c
    Signature Algorithm: sha1WithRSAEncryption
        Issuer: C=BE, O=GlobalSign nv-sa, OU=Root CA, CN=GlobalSign Root CA
        Validity
            Not Before: Apr 13 10:00:00 2011 GMT
            Not After : Apr 13 10:00:00 2019 GMT
        Subject: C=BE, O=GlobalSign nv-sa, CN=GlobalSign CodeSigning CA - G2
        Subject Public Key Info:
            Public Key Algorithm: rsaEncryption
                Public-Key: (2048 bit)
                Modulus:
                    00:b2:4f:14:e7:10:be:d7:26:72:ab:36:97:ef:53:
                    bf:42:84:5e:58:d1:8a:28:fc:43:46:6f:7e:28:44:
                    50:0b:75:5d:00:d7:3c:0a:44:9e:20:6a:a4:f7:45:
                    4a:37:60:a3:6e:3f:12:fa:6d:fa:b6:46:c3:6a:a3:
                    b8:0c:27:28:02:57:28:d1:50:f7:61:39:55:b8:c3:
                    e1:25:86:52:3c:bf:05:1d:d7:b3:9a:f8:9a:24:31:
                    49:d5:a2:a9:e2:d3:91:ab:3e:3c:73:ef:f6:29:f1:
                    c8:35:d0:30:7b:7f:4e:92:a5:06:8f:87:e2:ce:f5:
                    c1:63:66:ac:18:69:2a:c1:5e:bb:5a:e8:6e:95:ff:
                    3b:80:62:9d:99:c7:c7:2f:66:d5:fd:62:1a:82:55:
                    5a:c6:fa:40:77:8e:c9:30:3c:1b:f0:f2:35:b8:6c:
                    59:9c:fd:e9:d6:ca:b4:40:1e:f7:04:ca:d1:67:a9:
                    74:e3:a5:08:54:d9:83:35:3b:8e:8c:23:0c:75:b6:
                    de:86:4a:9e:1a:3e:0a:50:49:38:9c:d2:a8:90:bf:
                    98:fa:c8:8c:2b:27:11:7e:2a:fb:ce:de:a9:ae:38:
                    93:22:fa:a6:ec:fb:5c:61:76:c3:44:d6:cc:0c:7e:
                    2f:6d:06:80:a2:74:40:bb:b7:1f:f4:3b:d7:73:54:
                    1f:f3
                Exponent: 65537 (0x10001)
        X509v3 extensions:
            X509v3 Key Usage: critical
                Certificate Sign, CRL Sign
            X509v3 Basic Constraints: critical
                CA:TRUE, pathlen:0
            X509v3 Subject Key Identifier: 
                08:6E:D8:B6:9C:8A:BF:ED:3E:D7:C3:74:5D:CC:80:1F:A8:2F:50:7A
            X509v3 Certificate Policies: 
                Policy: X509v3 Any Policy
                  CPS: https://www.globalsign.com/repository/

            X509v3 CRL Distribution Points: 

                Full Name:
                  URI:http://crl.globalsign.net/root.crl

            X509v3 Extended Key Usage: 
                Code Signing
            X509v3 Authority Key Identifier: 
                keyid:60:7B:66:1A:45:0D:97:CA:89:50:2F:7D:04:CD:34:A8:FF:FC:FD:4B

    Signature Algorithm: sha1WithRSAEncryption
         22:5c:c5:dd:3d:f4:0b:70:d8:e3:f5:e7:c5:8e:09:01:bb:b1:
         96:36:5c:5a:07:ad:c7:a8:44:49:51:25:7a:ae:0d:a4:19:3b:
         92:9c:cf:b9:42:26:bb:3b:6c:97:e7:c7:ce:11:6d:68:91:da:
         8d:6d:f1:53:4d:54:38:8c:61:f3:c8:82:76:69:be:81:32:0b:
         31:c3:6c:c9:9e:20:0a:58:2f:f0:48:fe:7e:48:07:aa:d7:43:
         58:94:73:54:04:31:a9:78:0d:3b:8c:b0:70:c1:3d:7e:d7:bd:
         2f:2a:c3:e2:f5:8f:0c:90:dc:6b:a5:c8:be:68:5e:5d:6d:f8:
         78:d2:be:49:95:1e:15:78:08:91:fb:34:c8:be:84:ad:bc:e0:
         c6:dd:18:db:f3:ca:f0:7b:c2:14:3c:18:b8:03:ba:95:3e:21:
         1e:3f:60:69:7a:7f:6a:03:9e:8d:4a:f9:f0:28:2c:30:84:5e:
         ec:26:72:42:b1:6d:cb:64:c3:12:8c:d6:84:4b:67:41:7c:b1:
         03:17:78:09:e3:ad:a8:b6:96:2d:a4:7e:80:03:4f:88:f7:c1:
         6b:5a:46:15:cd:2c:19:8b:d8:70:9c:e5:2d:49:88:60:72:a8:
         a4:19:52:70:43:5e:da:d6:46:03:b0:68:0e:24:ef:4a:f6:0b:
         25:24:ef:24
-----BEGIN CERTIFICATE-----
MIIEKDCCAxCgAwIBAgILBAAAAAABL07hNVwwDQYJKoZIhvcNAQEFBQAwVzELMAkG
A1UEBhMCQkUxGTAXBgNVBAoTEEdsb2JhbFNpZ24gbnYtc2ExEDAOBgNVBAsTB1Jv
b3QgQ0ExGzAZBgNVBAMTEkdsb2JhbFNpZ24gUm9vdCBDQTAeFw0xMTA0MTMxMDAw
MDBaFw0xOTA0MTMxMDAwMDBaMFExCzAJBgNVBAYTAkJFMRkwFwYDVQQKExBHbG9i
YWxTaWduIG52LXNhMScwJQYDVQQDEx5HbG9iYWxTaWduIENvZGVTaWduaW5nIENB
IC0gRzIwggEiMA0GCSqGSIb3DQEBAQUAA4IBDwAwggEKAoIBAQCyTxTnEL7XJnKr
NpfvU79ChF5Y0Yoo/ENGb34oRFALdV0A1zwKRJ4gaqT3RUo3YKNuPxL6bfq2RsNq
o7gMJygCVyjRUPdhOVW4w+ElhlI8vwUd17Oa+JokMUnVoqni05GrPjxz7/Yp8cg1
0DB7f06SpQaPh+LO9cFjZqwYaSrBXrta6G6V/zuAYp2Zx8cvZtX9YhqCVVrG+kB3
jskwPBvw8jW4bFmc/enWyrRAHvcEytFnqXTjpQhU2YM1O46MIwx1tt6GSp4aPgpQ
STic0qiQv5j6yIwrJxF+KvvO3qmuOJMi+qbs+1xhdsNE1swMfi9tBoCidEC7tx/0
O9dzVB/zAgMBAAGjgfowgfcwDgYDVR0PAQH/BAQDAgEGMBIGA1UdEwEB/wQIMAYB
Af8CAQAwHQYDVR0OBBYEFAhu2Lacir/tPtfDdF3MgB+oL1B6MEcGA1UdIARAMD4w
PAYEVR0gADA0MDIGCCsGAQUFBwIBFiZodHRwczovL3d3dy5nbG9iYWxzaWduLmNv
bS9yZXBvc2l0b3J5LzAzBgNVHR8ELDAqMCigJqAkhiJodHRwOi8vY3JsLmdsb2Jh
bHNpZ24ubmV0L3Jvb3QuY3JsMBMGA1UdJQQMMAoGCCsGAQUFBwMDMB8GA1UdIwQY
MBaAFGB7ZhpFDZfKiVAvfQTNNKj//P1LMA0GCSqGSIb3DQEBBQUAA4IBAQAiXMXd
PfQLcNjj9efFjgkBu7GWNlxaB63HqERJUSV6rg2kGTuSnM+5Qia7O2yX58fOEW1o
kdqNbfFTTVQ4jGHzyIJ2ab6BMgsxw2zJniAKWC/wSP5+SAeq10NYlHNUBDGpeA07
jLBwwT1+170vKsPi9Y8MkNxrpci+aF5dbfh40r5JlR4VeAiR+zTIvoStvODG3Rjb
88rwe8IUPBi4A7qVPiEeP2Bpen9qA56NSvnwKCwwhF7sJnJCsW3LZMMSjNaES2dB
fLEDF3gJ462otpYtpH6AA0+I98FrWkYVzSwZi9hwnOUtSYhgcqikGVJwQ17a1kYD
sGgOJO9K9gslJO8k
-----END CERTIFICATE-----

Certificate:
    Data:
        Version: 3 (0x2)
        Serial Number:
            11:21:8c:d7:b9:26:3b:ad:98:b3:f3:bd:78:af:bd:c7:73:e5
    Signature Algorithm: sha1WithRSAEncryption
        Issuer: C=BE, O=GlobalSign nv-sa, CN=GlobalSign CodeSigning CA - G2
        Validity
            Not Before: Aug 10 12:21:43 2011 GMT
            Not After : Aug 10 12:21:43 2014 GMT
        Subject: C=HK, ST=Hong Kong, L=Hong Kong, O=TechPowerUp Ltd, CN=TechPowerUp Ltd
        Subject Public Key Info:
            Public Key Algorithm: rsaEncryption
                Public-Key: (2048 bit)
                Modulus:
                    00:ea:97:3b:c9:86:ae:9d:c7:bd:48:e0:6d:96:bc:
                    af:74:4a:fc:e8:17:85:99:3a:2e:31:28:b5:a6:a3:
                    5c:e9:ed:f3:c7:38:15:c6:76:05:5c:c6:67:cb:b1:
                    86:20:b1:0d:63:b9:89:95:b6:39:62:90:0d:07:f3:
                    dc:97:1e:6e:01:78:ae:eb:19:f8:1b:5e:bc:ca:80:
                    13:47:d3:b4:ca:26:da:44:ad:73:c8:37:17:51:0c:
                    db:6e:f8:46:e6:a3:c6:b5:84:e6:ee:5e:9c:a3:4e:
                    20:9f:77:e4:ed:c7:78:37:c3:01:a6:bc:b6:bc:cb:
                    7c:28:2a:c5:a2:ab:b0:59:3a:b7:b0:cb:ec:99:8f:
                    7c:09:fc:9c:35:1a:b4:2e:b7:93:05:52:78:9c:36:
                    71:63:4d:dd:63:32:49:af:c8:e5:d9:b7:6f:5d:f6:
                    3e:38:4e:92:40:1e:e3:e8:66:07:33:1c:5b:d6:a1:
                    7c:f0:a1:e1:7a:35:22:a2:8b:85:54:76:18:cb:2e:
                    61:b7:a5:23:c2:2d:d1:74:35:1b:26:ad:c1:74:66:
                    53:a5:d6:f1:d4:e9:cc:37:31:56:f9:75:6f:7d:bd:
                    a7:f6:ce:7c:af:c5:f4:d7:ac:10:ae:75:11:0f:19:
                    c8:3e:cf:fe:3e:5b:be:02:eb:93:f8:f4:be:2e:59:
                    12:85
                Exponent: 65537 (0x10001)
        X509v3 extensions:
            X509v3 Key Usage: critical
                Digital Signature
            X509v3 Certificate Policies: 
                Policy: 1.3.6.1.4.1.4146.1.50
                  CPS: https://www.globalsign.com/repository/

            X509v3 Basic Constraints: 
                CA:FALSE
            X509v3 Extended Key Usage: 
                Code Signing
            X509v3 CRL Distribution Points: 

                Full Name:
                  URI:http://crl.globalsign.com/gs/gscodesigng2.crl

            Authority Information Access: 
                CA Issuers - URI:http://secure.globalsign.com/cacert/gscodesigng2.crt

            X509v3 Subject Key Identifier: 
                90:69:CA:D2:FC:C1:07:76:94:BA:7D:6B:26:63:5D:E8:BE:12:31:6E
            X509v3 Authority Key Identifier: 
                keyid:08:6E:D8:B6:9C:8A:BF:ED:3E:D7:C3:74:5D:CC:80:1F:A8:2F:50:7A

    Signature Algorithm: sha1WithRSAEncryption
         10:d4:66:67:64:32:d5:bd:f3:bd:86:3f:af:53:49:0a:46:fa:
         d7:cb:e7:58:af:97:19:18:62:ab:48:f6:ba:14:1d:24:c4:f9:
         46:ef:fa:ad:b8:c7:34:85:d6:84:29:a6:0e:b6:10:a0:b1:35:
         01:86:8f:16:95:7d:0e:29:a6:26:54:58:18:df:b7:ad:94:2d:
         2c:49:cd:5e:1d:26:e9:ea:c7:88:19:8f:4a:07:b0:69:7a:e9:
         b6:3f:33:0d:10:2e:ab:5c:42:ad:01:db:97:e8:8e:ca:99:91:
         7a:78:7c:09:00:dc:0f:10:42:d2:5a:3e:06:a0:b8:7b:33:53:
         db:7e:0c:72:33:ad:6b:82:5b:96:01:44:b5:91:eb:53:fe:60:
         8a:45:91:e4:dd:23:52:70:95:5d:a7:32:91:d4:3a:39:67:e2:
         ea:44:d6:0f:5c:8c:57:4d:1c:f8:4a:7c:32:e3:a8:55:a1:3b:
         d2:ab:1c:80:b5:7c:94:15:c7:7f:6b:33:e8:2f:b9:ef:49:8e:
         17:79:f7:17:52:b4:e9:e1:0d:01:a6:a3:14:f6:aa:0b:bd:33:
         c0:24:05:d4:f9:39:a2:76:57:51:48:fd:6c:82:34:76:31:41:
         f5:55:17:98:f8:c3:b3:9e:58:f8:b2:b3:3d:83:d9:77:5f:0a:
         56:25:f7:c3
-----BEGIN CERTIFICATE-----
MIIEnDCCA4SgAwIBAgISESGM17kmO62Ys/O9eK+9x3PlMA0GCSqGSIb3DQEBBQUA
MFExCzAJBgNVBAYTAkJFMRkwFwYDVQQKExBHbG9iYWxTaWduIG52LXNhMScwJQYD
VQQDEx5HbG9iYWxTaWduIENvZGVTaWduaW5nIENBIC0gRzIwHhcNMTEwODEwMTIy
MTQzWhcNMTQwODEwMTIyMTQzWjBpMQswCQYDVQQGEwJISzESMBAGA1UECBMJSG9u
ZyBLb25nMRIwEAYDVQQHEwlIb25nIEtvbmcxGDAWBgNVBAoTD1RlY2hQb3dlclVw
IEx0ZDEYMBYGA1UEAxMPVGVjaFBvd2VyVXAgTHRkMIIBIjANBgkqhkiG9w0BAQEF
AAOCAQ8AMIIBCgKCAQEA6pc7yYaunce9SOBtlryvdEr86BeFmTouMSi1pqNc6e3z
xzgVxnYFXMZny7GGILENY7mJlbY5YpANB/Pclx5uAXiu6xn4G168yoATR9O0yiba
RK1zyDcXUQzbbvhG5qPGtYTm7l6co04gn3fk7cd4N8MBpry2vMt8KCrFoquwWTq3
sMvsmY98CfycNRq0LreTBVJ4nDZxY03dYzJJr8jl2bdvXfY+OE6SQB7j6GYHMxxb
1qF88KHhejUioouFVHYYyy5ht6Ujwi3RdDUbJq3BdGZTpdbx1OnMNzFW+XVvfb2n
9s58r8X016wQrnURDxnIPs/+Plu+AuuT+PS+LlkShQIDAQABo4IBVDCCAVAwDgYD
VR0PAQH/BAQDAgeAMEwGA1UdIARFMEMwQQYJKwYBBAGgMgEyMDQwMgYIKwYBBQUH
AgEWJmh0dHBzOi8vd3d3Lmdsb2JhbHNpZ24uY29tL3JlcG9zaXRvcnkvMAkGA1Ud
EwQCMAAwEwYDVR0lBAwwCgYIKwYBBQUHAwMwPgYDVR0fBDcwNTAzoDGgL4YtaHR0
cDovL2NybC5nbG9iYWxzaWduLmNvbS9ncy9nc2NvZGVzaWduZzIuY3JsMFAGCCsG
AQUFBwEBBEQwQjBABggrBgEFBQcwAoY0aHR0cDovL3NlY3VyZS5nbG9iYWxzaWdu
LmNvbS9jYWNlcnQvZ3Njb2Rlc2lnbmcyLmNydDAdBgNVHQ4EFgQUkGnK0vzBB3aU
un1rJmNd6L4SMW4wHwYDVR0jBBgwFoAUCG7YtpyKv+0+18N0XcyAH6gvUHowDQYJ
KoZIhvcNAQEFBQADggEBABDUZmdkMtW9872GP69TSQpG+tfL51ivlxkYYqtI9roU
HSTE+Ubv+q24xzSF1oQppg62EKCxNQGGjxaVfQ4ppiZUWBjft62ULSxJzV4dJunq
x4gZj0oHsGl66bY/Mw0QLqtcQq0B25fojsqZkXp4fAkA3A8QQtJaPgaguHszU9t+
DHIzrWuCW5YBRLWR61P+YIpFkeTdI1JwlV2nMpHUOjln4upE1g9cjFdNHPhKfDLj
qFWhO9KrHIC1fJQVx39rM+gvue9Jjhd59xdStOnhDQGmoxT2qgu9M8AkBdT5OaJ2
V1FI/WyCNHYxQfVVF5j4w7OeWPiysz2D2XdfClYl98M=
-----END CERTIFICATE-----

Certificate:
    Data:
        Version: 3 (0x2)
        Serial Number:
            11:21:40:5c:1f:0e:d2:58:88:2b:e5:4d:86:86:ba:11:ea:45
    Signature Algorithm: sha1WithRSAEncryption
        Issuer: C=BE, O=GlobalSign nv-sa, CN=GlobalSign Timestamping CA - G2
        Validity
            Not Before: Aug 23 00:00:00 2013 GMT
            Not After : Sep 23 00:00:00 2024 GMT
        Subject: C=SG, O=GMO GlobalSign Pte Ltd, CN=GlobalSign TSA for MS Authenticode - G1
        Subject Public Key Info:
            Public Key Algorithm: rsaEncryption
                Public-Key: (2048 bit)
                Modulus:
                    00:b0:17:ae:a2:d3:b6:04:30:56:1e:58:0f:b1:ed:
                    55:a4:d6:54:cb:d8:f6:73:3a:ec:5d:5e:ab:25:fd:
                    36:a5:fa:84:c3:61:40:c5:46:b5:59:52:3b:42:a2:
                    2e:5f:13:62:10:a9:5b:e6:73:d6:92:25:b1:7d:23:
                    e3:06:b3:87:3a:0e:43:f0:d7:00:89:53:a2:11:31:
                    52:28:6e:5d:40:72:3c:f2:09:77:a7:49:92:97:d4:
                    6c:90:a0:76:a7:fd:b8:dc:b3:9d:f2:07:60:2c:4f:
                    58:98:00:6b:d3:15:54:e0:fa:dd:ff:80:2c:5f:18:
                    a6:98:ff:d4:ab:ec:a1:45:59:b2:2e:6f:62:5d:e0:
                    d9:19:ac:8b:57:9c:a8:26:2b:d9:17:a5:10:d2:47:
                    08:1a:70:2c:33:8b:7f:68:80:2a:b5:a1:5d:6b:dd:
                    8d:02:02:29:03:aa:7c:37:bb:bb:29:4e:3d:53:93:
                    b3:a6:fa:8f:d2:58:93:15:4c:b9:2d:ab:80:a3:a3:
                    25:fb:af:f7:08:64:b0:7a:44:0f:5c:10:d7:5f:61:
                    37:aa:4e:6b:d3:d2:53:25:9d:82:73:fa:2c:f9:72:
                    b0:a9:19:39:2a:50:fa:a9:d0:3c:3a:ca:e8:5b:ef:
                    f5:5f:51:f4:f9:0a:d9:97:35:de:6a:85:e6:23:04:
                    42:af
                Exponent: 65537 (0x10001)
        X509v3 extensions:
            X509v3 Key Usage: critical
                Digital Signature
            X509v3 Certificate Policies: 
                Policy: 1.3.6.1.4.1.4146.1.30
                  CPS: https://www.globalsign.com/repository/

            X509v3 Basic Constraints: 
                CA:FALSE
            X509v3 Extended Key Usage: critical
                Time Stamping
            X509v3 CRL Distribution Points: 

                Full Name:
                  URI:http://crl.globalsign.com/gs/gstimestampingg2.crl

            Authority Information Access: 
                CA Issuers - URI:http://secure.globalsign.com/cacert/gstimestampingg2.crt

            X509v3 Subject Key Identifier: 
                D4:A2:84:4A:38:5A:18:7F:BA:4F:30:50:BD:9D:D5:7A:87:D6:09:F7
            X509v3 Authority Key Identifier: 
                keyid:46:D8:3E:FF:DC:E3:BE:FF:83:E6:F4:85:9B:B0:DD:6A:D6:14:A9:C1

    Signature Algorithm: sha1WithRSAEncryption
         02:31:14:2e:58:57:64:41:85:e8:af:12:75:3c:88:1c:c3:5e:
         ec:2c:e9:a1:3c:f5:ba:aa:53:1d:b9:d1:29:63:dc:43:67:86:
         d4:39:da:de:c6:c9:ff:be:45:85:f4:a4:d7:c1:51:ea:18:ee:
         40:58:5e:e6:7b:cc:a2:41:29:13:38:c8:ea:21:16:9c:ce:90:
         a6:2e:fb:a6:ca:d9:94:df:40:1d:f9:02:18:2b:be:f6:5d:4f:
         9f:ff:9a:48:db:c5:05:09:ca:80:ce:a0:f9:dc:4b:c3:23:e6:
         03:8f:b4:b4:af:5b:71:29:61:91:18:1a:6b:7a:f2:fd:0d:d1:
         cd:7d:5e:98:eb:ba:70:5e:e5:f4:ea:43:de:35:3d:c5:14:81:
         8a:db:3e:10:5e:bb:72:fa:a1:a0:93:ab:03:1c:c1:65:3c:91:
         13:8b:04:5d:2b:c4:b9:16:1b:cc:55:c5:0c:e8:ab:e7:43:c9:
         b2:83:28:a5:53:13:47:ab:39:64:b9:1c:ea:34:30:b1:76:00:
         95:21:f1:d4:3d:a8:fd:a0:00:32:d7:6e:98:3c:a6:9c:3b:0b:
         83:be:cb:b8:bb:2a:26:8c:59:b8:b9:ae:af:26:ac:e2:34:a2:
         dc:21:0d:81:0b:38:13:f7:45:a3:e3:db:c4:ac:a1:6d:1b:b7:
         e5:61:5c:d7
-----BEGIN CERTIFICATE-----
MIIEnzCCA4egAwIBAgISESFAXB8O0liIK+VNhoa6EepFMA0GCSqGSIb3DQEBBQUA
MFIxCzAJBgNVBAYTAkJFMRkwFwYDVQQKExBHbG9iYWxTaWduIG52LXNhMSgwJgYD
VQQDEx9HbG9iYWxTaWduIFRpbWVzdGFtcGluZyBDQSAtIEcyMB4XDTEzMDgyMzAw
MDAwMFoXDTI0MDkyMzAwMDAwMFowYDELMAkGA1UEBhMCU0cxHzAdBgNVBAoTFkdN
TyBHbG9iYWxTaWduIFB0ZSBMdGQxMDAuBgNVBAMTJ0dsb2JhbFNpZ24gVFNBIGZv
ciBNUyBBdXRoZW50aWNvZGUgLSBHMTCCASIwDQYJKoZIhvcNAQEBBQADggEPADCC
AQoCggEBALAXrqLTtgQwVh5YD7HtVaTWVMvY9nM67F1eqyX9NqX6hMNhQMVGtVlS
O0KiLl8TYhCpW+Zz1pIlsX0j4wazhzoOQ/DXAIlTohExUihuXUByPPIJd6dJkpfU
bJCgdqf9uNyznfIHYCxPWJgAa9MVVOD63f+ALF8Yppj/1KvsoUVZsi5vYl3g2Rms
i1ecqCYr2RelENJHCBpwLDOLf2iAKrWhXWvdjQICKQOqfDe7uylOPVOTs6b6j9JY
kxVMuS2rgKOjJfuv9whksHpED1wQ119hN6pOa9PSUyWdgnP6LPlysKkZOSpQ+qnQ
PDrK6Fvv9V9R9PkK2Zc13mqF5iMEQq8CAwEAAaOCAV8wggFbMA4GA1UdDwEB/wQE
AwIHgDBMBgNVHSAERTBDMEEGCSsGAQQBoDIBHjA0MDIGCCsGAQUFBwIBFiZodHRw
czovL3d3dy5nbG9iYWxzaWduLmNvbS9yZXBvc2l0b3J5LzAJBgNVHRMEAjAAMBYG
A1UdJQEB/wQMMAoGCCsGAQUFBwMIMEIGA1UdHwQ7MDkwN6A1oDOGMWh0dHA6Ly9j
cmwuZ2xvYmFsc2lnbi5jb20vZ3MvZ3N0aW1lc3RhbXBpbmdnMi5jcmwwVAYIKwYB
BQUHAQEESDBGMEQGCCsGAQUFBzAChjhodHRwOi8vc2VjdXJlLmdsb2JhbHNpZ24u
Y29tL2NhY2VydC9nc3RpbWVzdGFtcGluZ2cyLmNydDAdBgNVHQ4EFgQU1KKESjha
GH+6TzBQvZ3VeofWCfcwHwYDVR0jBBgwFoAURtg+/9zjvv+D5vSFm7DdatYUqcEw
DQYJKoZIhvcNAQEFBQADggEBAAIxFC5YV2RBheivEnU8iBzDXuws6aE89bqqUx25
0Slj3ENnhtQ52t7Gyf++RYX0pNfBUeoY7kBYXuZ7zKJBKRM4yOohFpzOkKYu+6bK
2ZTfQB35AhgrvvZdT5//mkjbxQUJyoDOoPncS8Mj5gOPtLSvW3EpYZEYGmt68v0N
0c19XpjrunBe5fTqQ941PcUUgYrbPhBeu3L6oaCTqwMcwWU8kROLBF0rxLkWG8xV
xQzoq+dDybKDKKVTE0erOWS5HOo0MLF2AJUh8dQ9qP2gADLXbpg8ppw7C4O+y7i7
KiaMWbi5rq8mrOI0otwhDYELOBP3RaPj28SsoW0bt+VhXNc=
-----END CERTIFICATE-----

Certificate:
    Data:
        Version: 3 (0x2)
        Serial Number:
            61:0b:7f:6b:00:00:00:00:00:19
    Signature Algorithm: sha1WithRSAEncryption
        Issuer: C=US, ST=Washington, L=Redmond, O=Microsoft Corporation, CN=Microsoft Code Verification Root
        Validity
            Not Before: May 23 17:00:51 2006 GMT
            Not After : May 23 17:10:51 2016 GMT
        Subject: C=BE, O=GlobalSign nv-sa, OU=Root CA, CN=GlobalSign Root CA
        Subject Public Key Info:
            Public Key Algorithm: rsaEncryption
                Public-Key: (2048 bit)
                Modulus:
                    00:da:0e:e6:99:8d:ce:a3:e3:4f:8a:7e:fb:f1:8b:
                    83:25:6b:ea:48:1f:f1:2a:b0:b9:95:11:04:bd:f0:
                    63:d1:e2:67:66:cf:1c:dd:cf:1b:48:2b:ee:8d:89:
                    8e:9a:af:29:80:65:ab:e9:c7:2d:12:cb:ab:1c:4c:
                    70:07:a1:3d:0a:30:cd:15:8d:4f:f8:dd:d4:8c:50:
                    15:1c:ef:50:ee:c4:2e:f7:fc:e9:52:f2:91:7d:e0:
                    6d:d5:35:30:8e:5e:43:73:f2:41:e9:d5:6a:e3:b2:
                    89:3a:56:39:38:6f:06:3c:88:69:5b:2a:4d:c5:a7:
                    54:b8:6c:89:cc:9b:f9:3c:ca:e5:fd:89:f5:12:3c:
                    92:78:96:d6:dc:74:6e:93:44:61:d1:8d:c7:46:b2:
                    75:0e:86:e8:19:8a:d5:6d:6c:d5:78:16:95:a2:e9:
                    c8:0a:38:eb:f2:24:13:4f:73:54:93:13:85:3a:1b:
                    bc:1e:34:b5:8b:05:8c:b9:77:8b:b1:db:1f:20:91:
                    ab:09:53:6e:90:ce:7b:37:74:b9:70:47:91:22:51:
                    63:16:79:ae:b1:ae:41:26:08:c8:19:2b:d1:46:aa:
                    48:d6:64:2a:d7:83:34:ff:2c:2a:c1:6c:19:43:4a:
                    07:85:e7:d3:7c:f6:21:68:ef:ea:f2:52:9f:7f:93:
                    90:cf
                Exponent: 65537 (0x10001)
        X509v3 extensions:
            X509v3 Certificate Policies: 
                Policy: X509v3 Any Policy

            1.3.6.1.4.1.311.21.7: 
                0'..+.....7......N...................n...
            X509v3 Key Usage: 
                Digital Signature, Certificate Sign, CRL Sign
            X509v3 Basic Constraints: critical
                CA:TRUE
            X509v3 Subject Key Identifier: 
                60:7B:66:1A:45:0D:97:CA:89:50:2F:7D:04:CD:34:A8:FF:FC:FD:4B
            1.3.6.1.4.1.311.20.2: 
                ...C.r.o.s.s.C.A
            X509v3 Authority Key Identifier: 
                keyid:62:FB:0A:21:5B:7F:43:6E:11:DA:09:54:50:6B:F5:D2:96:71:F1:9E

            X509v3 CRL Distribution Points: 

                Full Name:
                  URI:http://crl.microsoft.com/pki/crl/products/MicrosoftCodeVerifRoot.crl

    Signature Algorithm: sha1WithRSAEncryption
         13:c5:6c:5e:07:7f:3c:57:ff:9b:31:5f:3f:bd:95:54:25:c6:
         79:f9:2c:31:03:4d:64:69:4b:56:d9:5b:97:6f:7c:f3:f0:d0:
         24:65:75:38:63:98:13:70:16:13:f7:a7:01:f1:c6:23:e0:85:
         86:6c:0b:f0:80:94:5a:75:e8:7c:e4:1e:92:b4:73:bf:c1:b3:
         a7:b0:0b:d3:18:84:cb:cc:09:a3:5c:9c:4f:3e:b0:3a:9c:2d:
         1b:c4:04:ef:97:37:96:6f:e5:ec:ba:ac:6a:b3:d4:e2:3c:df:
         8b:25:e7:ac:bc:62:45:31:dd:a4:0a:72:e4:1b:f8:78:43:01:
         cc:ba:39:14:de:5d:90:ae:d8:5a:cf:5e:ca:46:81:51:33:d5:
         a6:0e:58:67:d3:d8:66:58:88:16:9b:ee:b1:1a:ca:ad:91:13:
         84:21:da:9a:6e:20:ef:da:00:74:28:ba:c9:5f:f3:4d:5d:c3:
         da:25:69:25:54:ea:44:bc:c3:9b:29:33:1c:d6:3c:96:1f:87:
         81:c5:53:d7:2a:27:33:d4:2e:19:7c:08:58:6d:db:4e:19:99:
         a9:ea:5f:f3:9a:9d:8c:51:3a:5a:5c:bd:2f:a9:08:35:9b:54:
         a7:db:35:1a:52:16:33:34:3a:a3:80:04:6a:fd:b4:83:8c:ad:
         90:cf:0c:3a:65:96:ec:33:4e:18:26:b8:49:bb:eb:81:92:ff:
         13:4d:32:4b:23:c7:33:e7:b6:71:6b:15:f6:9c:80:e6:bc:b7:
         6c:be:41:d5:03:3a:71:33:15:00:50:74:3b:0e:5d:f9:96:aa:
         ed:90:3e:ab:13:4c:80:99:26:bc:38:a5:eb:02:36:89:1d:b6:
         20:be:83:ab:10:f8:19:9e:d7:63:79:d4:ae:b1:2f:61:36:f9:
         4a:4b:a8:33:c7:0e:72:41:f9:f1:b1:90:7e:ae:46:ef:de:39:
         7b:75:a0:41:14:59:04:1d:42:bc:47:88:b8:13:0e:05:fa:1d:
         f0:80:8d:ff:70:c6:77:d8:4b:dc:46:0e:23:1a:72:d5:bf:de:
         fe:aa:ae:69:58:3c:fc:5c:46:e4:d5:81:9a:8b:6e:65:59:77:
         1a:32:a5:90:a6:b6:64:93:64:fd:07:53:c9:a0:de:28:ad:2a:
         6c:c6:38:d1:81:ce:98:f5:40:19:e9:2c:17:43:a4:26:5f:d3:
         44:30:53:e4:1d:02:ba:a4:0a:2f:16:dd:7a:60:27:52:42:bb:
         ad:98:37:28:97:e4:b8:d2:79:11:e3:10:8c:48:d5:30:5d:0a:
         0c:52:de:f5:88:ea:8d:1a:2d:67:c9:f4:80:14:84:b7:85:0c:
         d1:66:28:a5:c6:6f:24:61
-----BEGIN CERTIFICATE-----
MIIFfzCCA2egAwIBAgIKYQt/awAAAAAAGTANBgkqhkiG9w0BAQUFADB/MQswCQYD
VQQGEwJVUzETMBEGA1UECBMKV2FzaGluZ3RvbjEQMA4GA1UEBxMHUmVkbW9uZDEe
MBwGA1UEChMVTWljcm9zb2Z0IENvcnBvcmF0aW9uMSkwJwYDVQQDEyBNaWNyb3Nv
ZnQgQ29kZSBWZXJpZmljYXRpb24gUm9vdDAeFw0wNjA1MjMxNzAwNTFaFw0xNjA1
MjMxNzEwNTFaMFcxCzAJBgNVBAYTAkJFMRkwFwYDVQQKExBHbG9iYWxTaWduIG52
LXNhMRAwDgYDVQQLEwdSb290IENBMRswGQYDVQQDExJHbG9iYWxTaWduIFJvb3Qg
Q0EwggEiMA0GCSqGSIb3DQEBAQUAA4IBDwAwggEKAoIBAQDaDuaZjc6j40+Kfvvx
i4Mla+pIH/EqsLmVEQS98GPR4mdmzxzdzxtIK+6NiY6arymAZavpxy0Sy6scTHAH
oT0KMM0VjU/43dSMUBUc71DuxC73/OlS8pF94G3VNTCOXkNz8kHp1Wrjsok6Vjk4
bwY8iGlbKk3Fp1S4bInMm/k8yuX9ifUSPJJ4ltbcdG6TRGHRjcdGsnUOhugZitVt
bNV4FpWi6cgKOOvyJBNPc1STE4U6G7weNLWLBYy5d4ux2x8gkasJU26Qzns3dLlw
R5EiUWMWea6xrkEmCMgZK9FGqkjWZCrXgzT/LCrBbBlDSgeF59N89iFo7+ryUp9/
k5DPAgMBAAGjggEjMIIBHzARBgNVHSAECjAIMAYGBFUdIAAwNgYJKwYBBAGCNxUH
BCkwJwYfKwYBBAGCNxUIjeDRiU6E15zDB4amhvscj9O/phUBGQIBbgIBADALBgNV
HQ8EBAMCAYYwDwYDVR0TAQH/BAUwAwEB/zAdBgNVHQ4EFgQUYHtmGkUNl8qJUC99
BM00qP/8/UswHQYJKwYBBAGCNxQCBBAeDgBDAHIAbwBzAHMAQwBBMB8GA1UdIwQY
MBaAFGL7CiFbf0NuEdoJVFBr9dKWcfGeMFUGA1UdHwROMEwwSqBIoEaGRGh0dHA6
Ly9jcmwubWljcm9zb2Z0LmNvbS9wa2kvY3JsL3Byb2R1Y3RzL01pY3Jvc29mdENv
ZGVWZXJpZlJvb3QuY3JsMA0GCSqGSIb3DQEBBQUAA4ICAQATxWxeB388V/+bMV8/
vZVUJcZ5+SwxA01kaUtW2VuXb3zz8NAkZXU4Y5gTcBYT96cB8cYj4IWGbAvwgJRa
deh85B6StHO/wbOnsAvTGITLzAmjXJxPPrA6nC0bxATvlzeWb+Xsuqxqs9TiPN+L
JeesvGJFMd2kCnLkG/h4QwHMujkU3l2Qrthaz17KRoFRM9WmDlhn09hmWIgWm+6x
GsqtkROEIdqabiDv2gB0KLrJX/NNXcPaJWklVOpEvMObKTMc1jyWH4eBxVPXKicz
1C4ZfAhYbdtOGZmp6l/zmp2MUTpaXL0vqQg1m1Sn2zUaUhYzNDqjgARq/bSDjK2Q
zww6ZZbsM04YJrhJu+uBkv8TTTJLI8cz57ZxaxX2nIDmvLdsvkHVAzpxMxUAUHQ7
Dl35lqrtkD6rE0yAmSa8OKXrAjaJHbYgvoOrEPgZntdjedSusS9hNvlKS6gzxw5y
QfnxsZB+rkbv3jl7daBBFFkEHUK8R4i4Ew4F+h3wgI3/cMZ32EvcRg4jGnLVv97+
qq5pWDz8XEbk1YGai25lWXcaMqWQprZkk2T9B1PJoN4orSpsxjjRgc6Y9UAZ6SwX
Q6QmX9NEMFPkHQK6pAovFt16YCdSQrutmDcol+S40nkR4xCMSNUwXQoMUt71iOqN
Gi1nyfSAFIS3hQzRZiilxm8kYQ==
-----END CERTIFICATE-----

