Certificate:
    Data:
        Version: 3 (0x2)
        Serial Number:
            71:a0:b7:36:95:dd:b1:af:c2:3b:2b:9a:18:ee:54:cb
    Signature Algorithm: sha256WithRSAEncryption
        Issuer: C=US, O=thawte, Inc., OU=Certification Services Division, OU=(c) 2006 thawte, Inc. - For authorized use only, CN=thawte Primary Root CA
        Validity
            Not Before: Dec 10 00:00:00 2013 GMT
            Not After : Dec  9 23:59:59 2023 GMT
        Subject: C=US, O=thawte, Inc., CN=thawte SHA256 Code Signing CA
        Subject Public Key Info:
            Public Key Algorithm: rsaEncryption
                Public-Key: (2048 bit)
                Modulus:
                    00:9b:55:02:4c:17:05:e9:d0:66:c3:fc:28:ad:d3:
                    c0:fe:ef:e0:e9:7e:d4:1e:f6:aa:1b:91:46:fd:f5:
                    16:ed:98:07:53:fa:ba:87:1b:7d:9e:1f:01:27:ab:
                    b9:d2:67:ca:b7:10:25:53:f4:e3:be:9b:90:b8:ed:
                    23:5c:42:ef:64:25:58:e5:88:22:1a:be:f5:c7:ae:
                    f5:be:8a:b1:11:11:93:1a:22:a9:74:69:c1:74:b6:
                    68:87:a7:83:30:f9:64:f1:b1:e3:38:3e:f4:d6:c1:
                    fc:12:fe:73:57:17:35:57:8a:dd:50:8d:03:f8:66:
                    cd:ca:76:83:13:c8:d7:0e:71:1d:e4:63:c9:ba:17:
                    f8:d1:b9:e4:88:d2:2c:28:c8:21:20:0d:41:b7:0b:
                    e2:2f:c2:80:e6:88:7b:53:6c:c3:44:63:81:7f:68:
                    47:8c:2b:2a:cf:5b:f4:8c:49:61:ba:69:85:fd:6b:
                    00:78:05:26:69:13:30:80:38:4e:f1:5a:55:c9:c5:
                    50:d6:aa:38:89:47:43:5c:fe:4d:73:a5:49:c5:93:
                    69:fe:77:96:9a:af:f3:8c:0e:57:ba:33:d9:0e:c6:
                    42:d3:03:77:c4:bb:39:ad:91:f9:f3:f7:96:5c:3a:
                    64:a6:ed:27:57:c1:e8:40:f3:53:f2:be:29:34:fe:
                    5f:f9
                Exponent: 65537 (0x10001)
        X509v3 extensions:
            Authority Information Access: 
                OCSP - URI:http://t2.symcb.com

            X509v3 Basic Constraints: critical
                CA:TRUE, pathlen:0
            X509v3 CRL Distribution Points: 

                Full Name:
                  URI:http://t1.symcb.com/ThawtePCA.crl

            X509v3 Extended Key Usage: 
                TLS Web Client Authentication, Code Signing
            X509v3 Key Usage: critical
                Certificate Sign, CRL Sign
            X509v3 Subject Alternative Name: 
                DirName:/CN=SymantecPKI-1-568
            X509v3 Subject Key Identifier: 
                57:86:9B:54:B8:BE:A6:29:8A:E4:F6:C2:E2:13:18:89:85:CD:DC:B7
            X509v3 Authority Key Identifier: 
                keyid:7B:5B:45:CF:AF:CE:CB:7A:FD:31:92:1A:6A:B6:F3:46:EB:57:48:50

    Signature Algorithm: sha256WithRSAEncryption
         24:3b:f5:d7:a0:36:13:c7:43:fe:f0:09:87:68:d1:98:31:6e:
         12:e4:3f:1e:1f:96:7b:6b:4c:1e:87:9e:8b:c5:6c:a3:b1:0c:
         7b:50:92:d5:81:9c:b1:8f:2c:29:b7:ee:f9:91:05:b9:8e:41:
         f1:2c:f6:d0:59:2d:98:e0:b9:ea:80:01:47:40:95:b8:3d:9d:
         03:bd:79:bb:35:b6:ad:9c:4c:27:f6:67:45:10:c9:c5:bc:87:
         4e:55:7b:d2:87:bb:dd:dc:30:ef:c6:d4:6c:cc:99:35:6d:1c:
         e0:60:d3:cd:68:8f:29:59:4b:89:96:08:46:c9:8e:fc:75:4f:
         c5:dc:09:cc:4e:27:8b:44:cd:07:bc:ac:04:e0:b5:33:a5:87:
         9f:f4:dd:73:0c:91:ea:12:81:6f:e3:75:f0:1e:b5:93:6c:44:
         17:d5:3e:97:c9:bd:07:2c:56:77:1f:85:dd:46:e8:bf:de:2c:
         81:94:a3:f7:e5:b7:a7:c1:37:9f:75:ca:55:77:4d:5e:36:29:
         ca:85:d8:45:41:72:57:75:c0:79:5b:fa:34:10:06:6d:64:20:
         42:b7:3a:c8:1f:1d:46:64:02:5f:c6:47:be:f0:c4:3a:28:54:
         da:f6:1e:4f:9a:a2:19:43:a4:6f:49:f8:fc:5e:42:20:28:84:
         8b:47:20:6e
-----BEGIN CERTIFICATE-----
MIIEmTCCA4GgAwIBAgIQcaC3NpXdsa/COyuaGO5UyzANBgkqhkiG9w0BAQsFADCB
qTELMAkGA1UEBhMCVVMxFTATBgNVBAoTDHRoYXd0ZSwgSW5jLjEoMCYGA1UECxMf
Q2VydGlmaWNhdGlvbiBTZXJ2aWNlcyBEaXZpc2lvbjE4MDYGA1UECxMvKGMpIDIw
MDYgdGhhd3RlLCBJbmMuIC0gRm9yIGF1dGhvcml6ZWQgdXNlIG9ubHkxHzAdBgNV
BAMTFnRoYXd0ZSBQcmltYXJ5IFJvb3QgQ0EwHhcNMTMxMjEwMDAwMDAwWhcNMjMx
MjA5MjM1OTU5WjBMMQswCQYDVQQGEwJVUzEVMBMGA1UEChMMdGhhd3RlLCBJbmMu
MSYwJAYDVQQDEx10aGF3dGUgU0hBMjU2IENvZGUgU2lnbmluZyBDQTCCASIwDQYJ
KoZIhvcNAQEBBQADggEPADCCAQoCggEBAJtVAkwXBenQZsP8KK3TwP7v4Ol+1B72
qhuRRv31Fu2YB1P6uocbfZ4fASerudJnyrcQJVP0476bkLjtI1xC72QlWOWIIhq+
9ceu9b6KsRERkxoiqXRpwXS2aIengzD5ZPGx4zg+9NbB/BL+c1cXNVeK3VCNA/hm
zcp2gxPI1w5xHeRjyboX+NG55IjSLCjIISANQbcL4i/CgOaIe1Nsw0RjgX9oR4wr
Ks9b9IxJYbpphf1rAHgFJmkTMIA4TvFaVcnFUNaqOIlHQ1z+TXOlScWTaf53lpqv
84wOV7oz2Q7GQtMDd8S7Oa2R+fP3llw6ZKbtJ1fB6EDzU/K+KTT+X/kCAwEAAaOC
ARcwggETMC8GCCsGAQUFBwEBBCMwITAfBggrBgEFBQcwAYYTaHR0cDovL3QyLnN5
bWNiLmNvbTASBgNVHRMBAf8ECDAGAQH/AgEAMDIGA1UdHwQrMCkwJ6AloCOGIWh0
dHA6Ly90MS5zeW1jYi5jb20vVGhhd3RlUENBLmNybDAdBgNVHSUEFjAUBggrBgEF
BQcDAgYIKwYBBQUHAwMwDgYDVR0PAQH/BAQDAgEGMCkGA1UdEQQiMCCkHjAcMRow
GAYDVQQDExFTeW1hbnRlY1BLSS0xLTU2ODAdBgNVHQ4EFgQUV4abVLi+pimK5PbC
4hMYiYXN3LcwHwYDVR0jBBgwFoAUe1tFz6/Oy3r9MZIaarbzRutXSFAwDQYJKoZI
hvcNAQELBQADggEBACQ79degNhPHQ/7wCYdo0ZgxbhLkPx4flntrTB6HnovFbKOx
DHtQktWBnLGPLCm37vmRBbmOQfEs9tBZLZjgueqAAUdAlbg9nQO9ebs1tq2cTCf2
Z0UQycW8h05Ve9KHu93cMO/G1GzMmTVtHOBg081ojylZS4mWCEbJjvx1T8XcCcxO
J4tEzQe8rATgtTOlh5/03XMMkeoSgW/jdfAetZNsRBfVPpfJvQcsVncfhd1G6L/e
LIGUo/flt6fBN591ylV3TV42KcqF2EVBcld1wHlb+jQQBm1kIEK3OsgfHUZkAl/G
R77wxDooVNr2Hk+aohlDpG9J+PxeQiAohItHIG4=
-----END CERTIFICATE-----

Certificate:
    Data:
        Version: 3 (0x2)
        Serial Number:
            04:68:d9:71:a6:22:ba:bc:57:de:0e:f9:3f:d5:73:ee
    Signature Algorithm: sha256WithRSAEncryption
        Issuer: C=US, O=thawte, Inc., CN=thawte SHA256 Code Signing CA
        Validity
            Not Before: Oct 18 00:00:00 2016 GMT
            Not After : Oct 18 23:59:59 2018 GMT
        Subject: C=DE, ST=Hessen, L=Darmstadt, O=Str\xC3\xB6er Digital Publishing GmbH, CN=Str\xC3\xB6er Digital Publishing GmbH
        Subject Public Key Info:
            Public Key Algorithm: rsaEncryption
                Public-Key: (2048 bit)
                Modulus:
                    00:97:3b:99:44:ba:be:69:2d:2e:95:f4:bd:0a:19:
                    68:5f:35:f1:d6:7a:76:5b:35:95:50:ff:6c:64:70:
                    df:f8:ef:1e:8e:58:14:4f:50:00:e5:fa:54:25:da:
                    92:b3:bb:5d:f0:ab:1a:06:42:7b:73:3a:23:f4:af:
                    82:ee:7f:98:76:b7:06:e0:e1:d1:2c:c2:85:9e:f4:
                    9c:0e:e6:85:0d:a9:63:b5:8d:99:0c:f2:86:96:d3:
                    54:ac:5a:fa:8b:30:5d:8a:d6:2e:9f:60:60:e8:fb:
                    d8:b8:6e:84:32:71:82:81:57:72:40:f6:3e:73:d9:
                    e3:3c:b9:45:b4:a9:61:e3:95:8b:6c:49:64:24:8e:
                    2a:8d:b5:35:1a:ff:b9:37:a2:b8:72:bd:cb:fe:85:
                    49:26:82:56:f6:3d:93:fe:dd:75:69:96:3c:dc:a9:
                    db:40:59:b1:90:b7:72:90:e7:b2:c7:5d:e7:19:82:
                    9d:0a:ea:f8:16:cf:0e:49:e0:ec:12:ef:9c:63:8e:
                    24:ac:d7:0b:45:73:c1:ba:f7:e0:c8:04:56:89:6d:
                    28:15:73:b6:10:ec:f4:26:6c:eb:0f:95:f6:81:5c:
                    ad:07:77:35:b6:fc:9b:9f:2d:f8:fd:62:7b:e3:a3:
                    0f:57:00:65:e8:50:52:69:94:67:1b:1a:1b:67:78:
                    b5:43
                Exponent: 65537 (0x10001)
        X509v3 extensions:
            X509v3 Basic Constraints: 
                CA:FALSE
            X509v3 Authority Key Identifier: 
                keyid:57:86:9B:54:B8:BE:A6:29:8A:E4:F6:C2:E2:13:18:89:85:CD:DC:B7

            X509v3 Subject Key Identifier: 
                9C:FA:AC:23:A2:AE:DD:9A:E7:FE:17:8C:54:E6:A1:C9:31:A9:4D:A4
            X509v3 CRL Distribution Points: 

                Full Name:
                  URI:http://tl.symcb.com/tl.crl

            X509v3 Key Usage: critical
                Digital Signature
            X509v3 Extended Key Usage: 
                Code Signing
            X509v3 Certificate Policies: 
                Policy: 2.23.140.1.4.1
                  CPS: https://www.thawte.com/cps
                  User Notice:
                    Explicit Text: https://www.thawte.com/repository

            Authority Information Access: 
                OCSP - URI:http://tl.symcd.com
                CA Issuers - URI:http://tl.symcb.com/tl.crt

    Signature Algorithm: sha256WithRSAEncryption
         7f:20:a0:6c:15:9b:b5:41:57:5b:e8:a2:d9:d1:4c:9f:4b:51:
         8f:92:eb:61:4f:a3:59:3b:e8:21:4e:18:33:67:eb:da:a4:b2:
         5e:ed:a2:06:d8:58:57:f1:6d:81:8b:be:5d:d9:0b:e2:af:38:
         52:82:c3:83:8f:b1:aa:d2:33:36:20:54:ca:bb:48:c0:da:3d:
         df:8d:07:27:4a:2e:5c:89:aa:b0:bc:a5:1e:75:90:43:a0:12:
         47:8e:c6:5f:68:59:fe:27:4e:3b:e3:c4:3f:8c:2b:6b:a6:7a:
         c0:84:88:16:96:f0:c9:25:cd:e1:f5:7a:72:c9:e3:70:24:6c:
         df:77:e7:5f:b5:b9:9e:eb:b7:42:72:82:14:67:78:bf:b4:c6:
         8f:0a:48:c2:3e:44:bd:5d:d9:6a:92:b6:23:a9:35:e9:25:67:
         8e:b6:4d:dc:cc:21:93:af:65:b4:50:bf:17:2d:b6:5c:b6:18:
         16:03:d8:c1:0b:a4:02:9d:b0:e1:07:20:76:fc:3b:cf:27:e9:
         5c:d8:8b:a0:8a:01:33:fa:5e:75:f7:54:90:b8:69:4e:48:0c:
         c7:56:53:96:41:73:c0:1d:c0:be:27:40:64:fa:e4:5d:2a:04:
         5a:7a:4c:49:26:51:a3:cc:c5:c8:c4:5b:7c:82:e7:ea:81:30:
         b8:7a:96:d4
-----BEGIN CERTIFICATE-----
MIIEyTCCA7GgAwIBAgIQBGjZcaYiurxX3g75P9Vz7jANBgkqhkiG9w0BAQsFADBM
MQswCQYDVQQGEwJVUzEVMBMGA1UEChMMdGhhd3RlLCBJbmMuMSYwJAYDVQQDEx10
aGF3dGUgU0hBMjU2IENvZGUgU2lnbmluZyBDQTAeFw0xNjEwMTgwMDAwMDBaFw0x
ODEwMTgyMzU5NTlaMIGGMQswCQYDVQQGEwJERTEPMA0GA1UECAwGSGVzc2VuMRIw
EAYDVQQHDAlEYXJtc3RhZHQxKDAmBgNVBAoMH1N0csO2ZXIgRGlnaXRhbCBQdWJs
aXNoaW5nIEdtYkgxKDAmBgNVBAMMH1N0csO2ZXIgRGlnaXRhbCBQdWJsaXNoaW5n
IEdtYkgwggEiMA0GCSqGSIb3DQEBAQUAA4IBDwAwggEKAoIBAQCXO5lEur5pLS6V
9L0KGWhfNfHWenZbNZVQ/2xkcN/47x6OWBRPUADl+lQl2pKzu13wqxoGQntzOiP0
r4Luf5h2twbg4dEswoWe9JwO5oUNqWO1jZkM8oaW01SsWvqLMF2K1i6fYGDo+9i4
boQycYKBV3JA9j5z2eM8uUW0qWHjlYtsSWQkjiqNtTUa/7k3orhyvcv+hUkmglb2
PZP+3XVpljzcqdtAWbGQt3KQ57LHXecZgp0K6vgWzw5J4OwS75xjjiSs1wtFc8G6
9+DIBFaJbSgVc7YQ7PQmbOsPlfaBXK0HdzW2/JufLfj9Ynvjow9XAGXoUFJplGcb
GhtneLVDAgMBAAGjggFqMIIBZjAJBgNVHRMEAjAAMB8GA1UdIwQYMBaAFFeGm1S4
vqYpiuT2wuITGImFzdy3MB0GA1UdDgQWBBSc+qwjoq7dmuf+F4xU5qHJMalNpDAr
BgNVHR8EJDAiMCCgHqAchhpodHRwOi8vdGwuc3ltY2IuY29tL3RsLmNybDAOBgNV
HQ8BAf8EBAMCB4AwEwYDVR0lBAwwCgYIKwYBBQUHAwMwbgYDVR0gBGcwZTBjBgZn
gQwBBAEwWTAmBggrBgEFBQcCARYaaHR0cHM6Ly93d3cudGhhd3RlLmNvbS9jcHMw
LwYIKwYBBQUHAgIwIwwhaHR0cHM6Ly93d3cudGhhd3RlLmNvbS9yZXBvc2l0b3J5
MFcGCCsGAQUFBwEBBEswSTAfBggrBgEFBQcwAYYTaHR0cDovL3RsLnN5bWNkLmNv
bTAmBggrBgEFBQcwAoYaaHR0cDovL3RsLnN5bWNiLmNvbS90bC5jcnQwDQYJKoZI
hvcNAQELBQADggEBAH8goGwVm7VBV1vootnRTJ9LUY+S62FPo1k76CFOGDNn69qk
sl7togbYWFfxbYGLvl3ZC+KvOFKCw4OPsarSMzYgVMq7SMDaPd+NBydKLlyJqrC8
pR51kEOgEkeOxl9oWf4nTjvjxD+MK2umesCEiBaW8MklzeH1enLJ43AkbN9351+1
uZ7rt0JyghRneL+0xo8KSMI+RL1d2WqStiOpNeklZ462TdzMIZOvZbRQvxcttly2
GBYD2MELpAKdsOEHIHb8O88n6VzYi6CKATP6XnX3VJC4aU5IDMdWU5ZBc8AdwL4n
QGT65F0qBFp6TEkmUaPMxcjEW3yC5+qBMLh6ltQ=
-----END CERTIFICATE-----

