Certificate:
    Data:
        Version: 3 (0x2)
        Serial Number:
            69:89:3c:90:69:6d:5b:07:1a:21:9f:be:2c:05:29:37
    Signature Algorithm: sha1WithRSAEncryption
        Issuer: C=US, O=VeriSign, Inc., OU=VeriSign Trust Network, OU=Terms of use at https://www.verisign.com/rpa (c)10, CN=VeriSign Class 3 Code Signing 2010 CA
        Validity
            Not Before: Jul 10 00:00:00 2012 GMT
            Not After : Jul 10 23:59:59 2013 GMT
        Subject: C=CN, ST=GuangDong, L=ShenZhen, O=Shenzhen Moyea Software, OU=Digital ID Class 3 - Microsoft Software Validation v2, CN=Shenzhen Moyea Software
        Subject Public Key Info:
            Public Key Algorithm: rsaEncryption
                Public-Key: (2048 bit)
                Modulus:
                    00:d7:32:d4:62:2a:4a:72:7e:10:9e:86:84:27:66:
                    f7:a0:d4:36:4c:2a:8a:25:c3:e0:3b:48:a8:90:33:
                    c0:04:c5:16:a9:cd:69:66:4e:08:15:bd:c1:cb:8f:
                    c4:16:c6:95:75:57:3a:00:25:bc:ff:26:04:b0:d1:
                    0d:e2:fe:f5:cd:91:77:7c:18:e1:fc:6c:46:9a:33:
                    38:8e:27:49:02:14:a0:26:3f:b7:fc:70:45:66:98:
                    65:a6:fe:75:e1:25:48:32:7b:26:5c:8d:12:41:1d:
                    5d:21:e4:14:6a:fe:ac:4e:a4:0f:3e:c1:19:72:a1:
                    2b:eb:4b:e3:cf:a6:00:98:8b:f4:a3:01:4c:b5:f4:
                    bc:3b:6f:4b:d8:15:4b:ae:a7:1f:01:c4:d9:d3:46:
                    00:76:ec:90:ec:9a:c3:9a:ba:9c:8f:c9:75:50:b7:
                    13:46:b2:f1:df:e2:03:aa:67:4f:80:c1:08:d8:4f:
                    44:77:04:43:89:28:7f:1d:ce:ec:a0:d3:43:56:ee:
                    a2:8d:9b:01:a4:ea:4d:ba:12:2b:eb:ef:ff:5b:aa:
                    e8:37:b3:8c:1c:f8:f6:3f:dd:f7:1c:83:cc:96:56:
                    09:3d:55:a4:15:4e:4d:80:dd:44:0f:50:5a:1d:5b:
                    ee:c8:29:ae:23:ba:0e:f5:6c:08:c9:29:13:a5:10:
                    03:61
                Exponent: 65537 (0x10001)
        X509v3 extensions:
            X509v3 Basic Constraints: 
                CA:FALSE
            X509v3 Key Usage: critical
                Digital Signature
            X509v3 CRL Distribution Points: 

                Full Name:
                  URI:http://csc3-2010-crl.verisign.com/CSC3-2010.crl

            X509v3 Certificate Policies: 
                Policy: 2.16.840.1.113733.1.7.23.3
                  CPS: https://www.verisign.com/rpa

            X509v3 Extended Key Usage: 
                Code Signing
            Authority Information Access: 
                OCSP - URI:http://ocsp.verisign.com
                CA Issuers - URI:http://csc3-2010-aia.verisign.com/CSC3-2010.cer

            X509v3 Authority Key Identifier: 
                keyid:CF:99:A9:EA:7B:26:F4:4B:C9:8E:8F:D7:F0:05:26:EF:E3:D2:A7:9D

            Netscape Cert Type: 
                Object Signing
            1.3.6.1.4.1.311.2.1.27: 
                0.......
    Signature Algorithm: sha1WithRSAEncryption
         9c:45:88:93:11:ff:81:e5:d7:4b:c5:4f:1d:58:53:81:b7:95:
         85:8d:c5:10:0b:97:cc:b9:3c:c6:ab:57:a7:f3:dd:fc:5a:e8:
         ee:16:71:db:bf:a3:6a:8d:36:c3:ec:c3:b2:5b:54:8c:e5:7d:
         72:c2:22:48:d2:1e:0d:b1:6c:59:0a:60:70:d8:4b:a1:7a:da:
         19:55:3b:66:54:19:8f:75:d6:a7:af:c4:2c:a6:87:47:23:8e:
         ca:90:ce:9d:7c:80:bd:58:2e:b5:11:82:96:ee:7e:33:c5:b2:
         7c:87:30:18:be:89:2a:17:1c:28:12:89:ab:cb:bb:06:69:80:
         a0:d1:cf:2e:38:9b:14:d0:28:20:b5:46:d2:ae:f3:1b:4d:50:
         b5:f5:b0:8b:cc:8a:74:79:cf:ca:47:7c:1f:c4:74:b7:59:aa:
         b6:8a:b1:e4:d6:f2:c4:9f:39:59:0e:23:49:6f:8f:42:1c:a6:
         db:40:38:66:79:dc:88:e2:f1:21:f4:53:a4:bc:4a:7a:9b:8f:
         b5:14:ad:4e:5e:a2:a1:c0:cd:b5:b8:19:84:79:a9:de:64:22:
         76:7b:52:06:35:d5:68:fe:ee:95:4d:19:4b:b3:e0:53:b6:54:
         df:bc:23:62:81:3b:cc:45:aa:c9:52:63:a8:35:76:95:52:36:
         a7:32:2e:c3
-----BEGIN CERTIFICATE-----
MIIFdTCCBF2gAwIBAgIQaYk8kGltWwcaIZ++LAUpNzANBgkqhkiG9w0BAQUFADCB
tDELMAkGA1UEBhMCVVMxFzAVBgNVBAoTDlZlcmlTaWduLCBJbmMuMR8wHQYDVQQL
ExZWZXJpU2lnbiBUcnVzdCBOZXR3b3JrMTswOQYDVQQLEzJUZXJtcyBvZiB1c2Ug
YXQgaHR0cHM6Ly93d3cudmVyaXNpZ24uY29tL3JwYSAoYykxMDEuMCwGA1UEAxMl
VmVyaVNpZ24gQ2xhc3MgMyBDb2RlIFNpZ25pbmcgMjAxMCBDQTAeFw0xMjA3MTAw
MDAwMDBaFw0xMzA3MTAyMzU5NTlaMIG4MQswCQYDVQQGEwJDTjESMBAGA1UECBMJ
R3VhbmdEb25nMREwDwYDVQQHEwhTaGVuWmhlbjEgMB4GA1UEChQXU2hlbnpoZW4g
TW95ZWEgU29mdHdhcmUxPjA8BgNVBAsTNURpZ2l0YWwgSUQgQ2xhc3MgMyAtIE1p
Y3Jvc29mdCBTb2Z0d2FyZSBWYWxpZGF0aW9uIHYyMSAwHgYDVQQDFBdTaGVuemhl
biBNb3llYSBTb2Z0d2FyZTCCASIwDQYJKoZIhvcNAQEBBQADggEPADCCAQoCggEB
ANcy1GIqSnJ+EJ6GhCdm96DUNkwqiiXD4DtIqJAzwATFFqnNaWZOCBW9wcuPxBbG
lXVXOgAlvP8mBLDRDeL+9c2Rd3wY4fxsRpozOI4nSQIUoCY/t/xwRWaYZab+deEl
SDJ7JlyNEkEdXSHkFGr+rE6kDz7BGXKhK+tL48+mAJiL9KMBTLX0vDtvS9gVS66n
HwHE2dNGAHbskOyaw5q6nI/JdVC3E0ay8d/iA6pnT4DBCNhPRHcEQ4kofx3O7KDT
Q1buoo2bAaTqTboSK+vv/1uq6DezjBz49j/d9xyDzJZWCT1VpBVOTYDdRA9QWh1b
7sgpriO6DvVsCMkpE6UQA2ECAwEAAaOCAXswggF3MAkGA1UdEwQCMAAwDgYDVR0P
AQH/BAQDAgeAMEAGA1UdHwQ5MDcwNaAzoDGGL2h0dHA6Ly9jc2MzLTIwMTAtY3Js
LnZlcmlzaWduLmNvbS9DU0MzLTIwMTAuY3JsMEQGA1UdIAQ9MDswOQYLYIZIAYb4
RQEHFwMwKjAoBggrBgEFBQcCARYcaHR0cHM6Ly93d3cudmVyaXNpZ24uY29tL3Jw
YTATBgNVHSUEDDAKBggrBgEFBQcDAzBxBggrBgEFBQcBAQRlMGMwJAYIKwYBBQUH
MAGGGGh0dHA6Ly9vY3NwLnZlcmlzaWduLmNvbTA7BggrBgEFBQcwAoYvaHR0cDov
L2NzYzMtMjAxMC1haWEudmVyaXNpZ24uY29tL0NTQzMtMjAxMC5jZXIwHwYDVR0j
BBgwFoAUz5mp6nsm9EvJjo/X8AUm7+PSp50wEQYJYIZIAYb4QgEBBAQDAgQQMBYG
CisGAQQBgjcCARsECDAGAQEAAQH/MA0GCSqGSIb3DQEBBQUAA4IBAQCcRYiTEf+B
5ddLxU8dWFOBt5WFjcUQC5fMuTzGq1en8938WujuFnHbv6NqjTbD7MOyW1SM5X1y
wiJI0h4NsWxZCmBw2EuhetoZVTtmVBmPddanr8QspodHI47KkM6dfIC9WC61EYKW
7n4zxbJ8hzAYvokqFxwoEomry7sGaYCg0c8uOJsU0CggtUbSrvMbTVC19bCLzIp0
ec/KR3wfxHS3Waq2irHk1vLEnzlZDiNJb49CHKbbQDhmedyI4vEh9FOkvEp6m4+1
FK1OXqKhwM21uBmEeaneZCJ2e1IGNdVo/u6VTRlLs+BTtlTfvCNigTvMRarJUmOo
NXaVUjanMi7D
-----END CERTIFICATE-----

Certificate:
    Data:
        Version: 3 (0x2)
        Serial Number:
            52:00:e5:aa:25:56:fc:1a:86:ed:96:c9:d4:4b:33:c7
    Signature Algorithm: sha1WithRSAEncryption
        Issuer: C=US, O=VeriSign, Inc., OU=VeriSign Trust Network, OU=(c) 2006 VeriSign, Inc. - For authorized use only, CN=VeriSign Class 3 Public Primary Certification Authority - G5
        Validity
            Not Before: Feb  8 00:00:00 2010 GMT
            Not After : Feb  7 23:59:59 2020 GMT
        Subject: C=US, O=VeriSign, Inc., OU=VeriSign Trust Network, OU=Terms of use at https://www.verisign.com/rpa (c)10, CN=VeriSign Class 3 Code Signing 2010 CA
        Subject Public Key Info:
            Public Key Algorithm: rsaEncryption
                Public-Key: (2048 bit)
                Modulus:
                    00:f5:23:4b:5e:a5:d7:8a:bb:32:e9:d4:57:f7:ef:
                    e4:c7:26:7e:ad:19:98:fe:a8:9d:7d:94:f6:36:6b:
                    10:d7:75:81:30:7f:04:68:7f:cb:2b:75:1e:cd:1d:
                    08:8c:df:69:94:a7:37:a3:9c:7b:80:e0:99:e1:ee:
                    37:4d:5f:ce:3b:14:ee:86:d4:d0:f5:27:35:bc:25:
                    0b:38:a7:8c:63:9d:17:a3:08:a5:ab:b0:fb:cd:6a:
                    62:82:4c:d5:21:da:1b:d9:f1:e3:84:3b:8a:2a:4f:
                    85:5b:90:01:4f:c9:a7:76:10:7f:27:03:7c:be:ae:
                    7e:7d:c1:dd:f9:05:bc:1b:48:9c:69:e7:c0:a4:3c:
                    3c:41:00:3e:df:96:e5:c5:e4:94:71:d6:55:01:c7:
                    00:26:4a:40:3c:b5:a1:26:a9:0c:a7:6d:80:8e:90:
                    25:7b:cf:bf:3f:1c:eb:2f:96:fa:e5:87:77:c6:b5:
                    56:b2:7a:3b:54:30:53:1b:df:62:34:ff:1e:d1:f4:
                    5a:93:28:85:e5:4c:17:4e:7e:5b:fd:a4:93:99:7f:
                    df:cd:ef:a4:75:ef:ef:15:f6:47:e7:f8:19:72:d8:
                    2e:34:1a:a6:b4:a7:4c:7e:bd:bb:4f:0c:3d:57:f1:
                    30:d6:a6:36:8e:d6:80:76:d7:19:2e:a5:cd:7e:34:
                    2d:89
                Exponent: 65537 (0x10001)
        X509v3 extensions:
            X509v3 Basic Constraints: critical
                CA:TRUE, pathlen:0
            X509v3 Certificate Policies: 
                Policy: 2.16.840.1.113733.1.7.23.3
                  CPS: https://www.verisign.com/cps
                  User Notice:
                    Explicit Text: https://www.verisign.com/rpa

            X509v3 Key Usage: critical
                Certificate Sign, CRL Sign
            1.3.6.1.5.5.7.1.12: 
                0_.].[0Y0W0U..image/gif0!0.0...+..............k...j.H.,{..0%.#http://logo.verisign.com/vslogo.gif
            X509v3 CRL Distribution Points: 

                Full Name:
                  URI:http://crl.verisign.com/pca3-g5.crl

            Authority Information Access: 
                OCSP - URI:http://ocsp.verisign.com

            X509v3 Extended Key Usage: 
                TLS Web Client Authentication, Code Signing
            X509v3 Subject Alternative Name: 
                DirName:/CN=VeriSignMPKI-2-8
            X509v3 Subject Key Identifier: 
                CF:99:A9:EA:7B:26:F4:4B:C9:8E:8F:D7:F0:05:26:EF:E3:D2:A7:9D
            X509v3 Authority Key Identifier: 
                keyid:7F:D3:65:A7:C2:DD:EC:BB:F0:30:09:F3:43:39:FA:02:AF:33:31:33

    Signature Algorithm: sha1WithRSAEncryption
         56:22:e6:34:a4:c4:61:cb:48:b9:01:ad:56:a8:64:0f:d9:8c:
         91:c4:bb:cc:0c:e5:ad:7a:a0:22:7f:df:47:38:4a:2d:6c:d1:
         7f:71:1a:7c:ec:70:a9:b1:f0:4f:e4:0f:0c:53:fa:15:5e:fe:
         74:98:49:24:85:81:26:1c:91:14:47:b0:4c:63:8c:bb:a1:34:
         d4:c6:45:e8:0d:85:26:73:03:d0:a9:8c:64:6d:dc:71:92:e6:
         45:05:60:15:59:51:39:fc:58:14:6b:fe:d4:a4:ed:79:6b:08:
         0c:41:72:e7:37:22:06:09:be:23:e9:3f:44:9a:1e:e9:61:9d:
         cc:b1:90:5c:fc:3d:d2:8d:ac:42:3d:65:36:d4:b4:3d:40:28:
         8f:9b:10:cf:23:26:cc:4b:20:cb:90:1f:5d:8c:4c:34:ca:3c:
         d8:e5:37:d6:6f:a5:20:bd:34:eb:26:d9:ae:0d:e7:c5:9a:f7:
         a1:b4:21:91:33:6f:86:e8:58:bb:25:7c:74:0e:58:fe:75:1b:
         63:3f:ce:31:7c:9b:8f:1b:96:9e:c5:53:76:84:5b:9c:ad:91:
         fa:ac:ed:93:ba:5d:c8:21:53:c2:82:53:63:af:12:0d:50:87:
         11:1b:3d:54:52:96:8a:2c:9c:3d:92:1a:08:9a:05:2e:c7:93:
         a5:48:91:d3
-----BEGIN CERTIFICATE-----
MIIGCjCCBPKgAwIBAgIQUgDlqiVW/BqG7ZbJ1EszxzANBgkqhkiG9w0BAQUFADCB
yjELMAkGA1UEBhMCVVMxFzAVBgNVBAoTDlZlcmlTaWduLCBJbmMuMR8wHQYDVQQL
ExZWZXJpU2lnbiBUcnVzdCBOZXR3b3JrMTowOAYDVQQLEzEoYykgMjAwNiBWZXJp
U2lnbiwgSW5jLiAtIEZvciBhdXRob3JpemVkIHVzZSBvbmx5MUUwQwYDVQQDEzxW
ZXJpU2lnbiBDbGFzcyAzIFB1YmxpYyBQcmltYXJ5IENlcnRpZmljYXRpb24gQXV0
aG9yaXR5IC0gRzUwHhcNMTAwMjA4MDAwMDAwWhcNMjAwMjA3MjM1OTU5WjCBtDEL
MAkGA1UEBhMCVVMxFzAVBgNVBAoTDlZlcmlTaWduLCBJbmMuMR8wHQYDVQQLExZW
ZXJpU2lnbiBUcnVzdCBOZXR3b3JrMTswOQYDVQQLEzJUZXJtcyBvZiB1c2UgYXQg
aHR0cHM6Ly93d3cudmVyaXNpZ24uY29tL3JwYSAoYykxMDEuMCwGA1UEAxMlVmVy
aVNpZ24gQ2xhc3MgMyBDb2RlIFNpZ25pbmcgMjAxMCBDQTCCASIwDQYJKoZIhvcN
AQEBBQADggEPADCCAQoCggEBAPUjS16l14q7MunUV/fv5Mcmfq0ZmP6onX2U9jZr
ENd1gTB/BGh/yyt1Hs0dCIzfaZSnN6Oce4DgmeHuN01fzjsU7obU0PUnNbwlCzin
jGOdF6MIpauw+81qYoJM1SHaG9nx44Q7iipPhVuQAU/Jp3YQfycDfL6ufn3B3fkF
vBtInGnnwKQ8PEEAPt+W5cXklHHWVQHHACZKQDy1oSapDKdtgI6QJXvPvz8c6y+W
+uWHd8a1VrJ6O1QwUxvfYjT/HtH0WpMoheVMF05+W/2kk5l/383vpHXv7xX2R+f4
GXLYLjQaprSnTH69u08MPVfxMNamNo7WgHbXGS6lzX40LYkCAwEAAaOCAf4wggH6
MBIGA1UdEwEB/wQIMAYBAf8CAQAwcAYDVR0gBGkwZzBlBgtghkgBhvhFAQcXAzBW
MCgGCCsGAQUFBwIBFhxodHRwczovL3d3dy52ZXJpc2lnbi5jb20vY3BzMCoGCCsG
AQUFBwICMB4aHGh0dHBzOi8vd3d3LnZlcmlzaWduLmNvbS9ycGEwDgYDVR0PAQH/
BAQDAgEGMG0GCCsGAQUFBwEMBGEwX6FdoFswWTBXMFUWCWltYWdlL2dpZjAhMB8w
BwYFKw4DAhoEFI/l0xqGrI2Oa8PPgGrUSBgsexkuMCUWI2h0dHA6Ly9sb2dvLnZl
cmlzaWduLmNvbS92c2xvZ28uZ2lmMDQGA1UdHwQtMCswKaAnoCWGI2h0dHA6Ly9j
cmwudmVyaXNpZ24uY29tL3BjYTMtZzUuY3JsMDQGCCsGAQUFBwEBBCgwJjAkBggr
BgEFBQcwAYYYaHR0cDovL29jc3AudmVyaXNpZ24uY29tMB0GA1UdJQQWMBQGCCsG
AQUFBwMCBggrBgEFBQcDAzAoBgNVHREEITAfpB0wGzEZMBcGA1UEAxMQVmVyaVNp
Z25NUEtJLTItODAdBgNVHQ4EFgQUz5mp6nsm9EvJjo/X8AUm7+PSp50wHwYDVR0j
BBgwFoAUf9Nlp8Ld7LvwMAnzQzn6Aq8zMTMwDQYJKoZIhvcNAQEFBQADggEBAFYi
5jSkxGHLSLkBrVaoZA/ZjJHEu8wM5a16oCJ/30c4Si1s0X9xGnzscKmx8E/kDwxT
+hVe/nSYSSSFgSYckRRHsExjjLuhNNTGRegNhSZzA9CpjGRt3HGS5kUFYBVZUTn8
WBRr/tSk7XlrCAxBcuc3IgYJviPpP0SaHulhncyxkFz8PdKNrEI9ZTbUtD1AKI+b
EM8jJsxLIMuQH12MTDTKPNjlN9ZvpSC9NOsm2a4N58Wa96G0IZEzb4boWLslfHQO
WP51G2M/zjF8m48blp7FU3aEW5ytkfqs7ZO6XcghU8KCU2OvEg1QhxEbPVRSloos
nD2SGgiaBS7Hk6VIkdM=
-----END CERTIFICATE-----

