Certificate:
    Data:
        Version: 3 (0x2)
        Serial Number:
            7e:93:eb:fb:7c:c6:4e:59:ea:4b:9a:77:d4:06:fc:3b
    Signature Algorithm: sha1WithRSAEncryption
        Issuer: C=ZA, ST=Western Cape, L=Durbanville, O=Thawte, OU=Thawte Certification, CN=Thawte Timestamping CA
        Validity
            Not Before: Dec 21 00:00:00 2012 GMT
            Not After : Dec 30 23:59:59 2020 GMT
        Subject: C=US, O=Symantec Corporation, CN=Symantec Time Stamping Services CA - G2
        Subject Public Key Info:
            Public Key Algorithm: rsaEncryption
                Public-Key: (2048 bit)
                Modulus:
                    00:b1:ac:b3:49:54:4b:97:1c:12:0a:d8:25:79:91:
                    22:57:2a:6f:dc:b8:26:c4:43:73:6b:c2:bf:2e:50:
                    5a:fb:14:c2:76:8e:43:01:25:43:b4:a1:e2:45:f4:
                    e8:b7:7b:c3:74:cc:22:d7:b4:94:00:02:f7:4d:ed:
                    bf:b4:b7:44:24:6b:cd:5f:45:3b:d1:44:ce:43:12:
                    73:17:82:8b:69:b4:2b:cb:99:1e:ac:72:1b:26:4d:
                    71:1f:b1:31:dd:fb:51:61:02:53:a6:aa:f5:49:2c:
                    05:78:45:a5:2f:89:ce:e7:99:e7:fe:8c:e2:57:3f:
                    3d:c6:92:dc:4a:f8:7b:33:e4:79:0a:fb:f0:75:88:
                    41:9c:ff:c5:03:51:99:aa:d7:6c:9f:93:69:87:65:
                    29:83:85:c2:60:14:c4:c8:c9:3b:14:da:c0:81:f0:
                    1f:0d:74:de:92:22:ab:ca:f7:fb:74:7c:27:e6:f7:
                    4a:1b:7f:a7:c3:9e:2d:ae:8a:ea:a6:e6:aa:27:16:
                    7d:61:f7:98:71:11:bc:e2:50:a1:4b:e5:5d:fa:e5:
                    0e:a7:2c:9f:aa:65:20:d3:d8:96:e8:c8:7c:a5:4e:
                    48:44:ff:19:e2:44:07:92:0b:d7:68:84:80:5d:6a:
                    78:64:45:cd:60:46:7e:54:c1:13:7c:c5:79:f1:c9:
                    c1:71
                Exponent: 65537 (0x10001)
        X509v3 extensions:
            X509v3 Subject Key Identifier: 
                5F:9A:F5:6E:5C:CC:CC:74:9A:D4:DD:7D:EF:3F:DB:EC:4C:80:2E:DD
            Authority Information Access: 
                OCSP - URI:http://ocsp.thawte.com

            X509v3 Basic Constraints: critical
                CA:TRUE, pathlen:0
            X509v3 CRL Distribution Points: 

                Full Name:
                  URI:http://crl.thawte.com/ThawteTimestampingCA.crl

            X509v3 Extended Key Usage: 
                Time Stamping
            X509v3 Key Usage: critical
                Certificate Sign, CRL Sign
            X509v3 Subject Alternative Name: 
                DirName:/CN=TimeStamp-2048-1
    Signature Algorithm: sha1WithRSAEncryption
         03:09:9b:8f:79:ef:7f:59:30:aa:ef:68:b5:fa:e3:09:1d:bb:
         4f:82:06:5d:37:5f:a6:52:9f:16:8d:ea:1c:92:09:44:6e:f5:
         6d:eb:58:7c:30:e8:f9:69:8d:23:73:0b:12:6f:47:a9:ae:39:
         11:f8:2a:b1:9b:b0:1a:c3:8e:eb:59:96:00:ad:ce:0c:4d:b2:
         d0:31:a6:08:5c:2a:7a:fc:e2:7a:1d:57:4c:a8:65:18:e9:79:
         40:62:25:96:6e:c7:c7:37:6a:83:21:08:8e:41:ea:dd:d9:57:
         3f:1d:77:49:87:2a:16:06:5e:a6:38:6a:22:12:a3:51:19:83:
         7e:b6
-----BEGIN CERTIFICATE-----
MIID7jCCA1egAwIBAgIQfpPr+3zGTlnqS5p31Ab8OzANBgkqhkiG9w0BAQUFADCB
izELMAkGA1UEBhMCWkExFTATBgNVBAgTDFdlc3Rlcm4gQ2FwZTEUMBIGA1UEBxML
RHVyYmFudmlsbGUxDzANBgNVBAoTBlRoYXd0ZTEdMBsGA1UECxMUVGhhd3RlIENl
cnRpZmljYXRpb24xHzAdBgNVBAMTFlRoYXd0ZSBUaW1lc3RhbXBpbmcgQ0EwHhcN
MTIxMjIxMDAwMDAwWhcNMjAxMjMwMjM1OTU5WjBeMQswCQYDVQQGEwJVUzEdMBsG
A1UEChMUU3ltYW50ZWMgQ29ycG9yYXRpb24xMDAuBgNVBAMTJ1N5bWFudGVjIFRp
bWUgU3RhbXBpbmcgU2VydmljZXMgQ0EgLSBHMjCCASIwDQYJKoZIhvcNAQEBBQAD
ggEPADCCAQoCggEBALGss0lUS5ccEgrYJXmRIlcqb9y4JsRDc2vCvy5QWvsUwnaO
QwElQ7Sh4kX06Ld7w3TMIte0lAAC903tv7S3RCRrzV9FO9FEzkMScxeCi2m0K8uZ
HqxyGyZNcR+xMd37UWECU6aq9UksBXhFpS+JzueZ5/6M4lc/PcaS3Er4ezPkeQr7
8HWIQZz/xQNRmarXbJ+TaYdlKYOFwmAUxMjJOxTawIHwHw103pIiq8r3+3R8J+b3
Sht/p8OeLa6K6qbmqicWfWH3mHERvOJQoUvlXfrlDqcsn6plINPYlujIfKVOSET/
GeJEB5IL12iEgF1qeGRFzWBGflTBE3zFefHJwXECAwEAAaOB+jCB9zAdBgNVHQ4E
FgQUX5r1blzMzHSa1N197z/b7EyALt0wMgYIKwYBBQUHAQEEJjAkMCIGCCsGAQUF
BzABhhZodHRwOi8vb2NzcC50aGF3dGUuY29tMBIGA1UdEwEB/wQIMAYBAf8CAQAw
PwYDVR0fBDgwNjA0oDKgMIYuaHR0cDovL2NybC50aGF3dGUuY29tL1RoYXd0ZVRp
bWVzdGFtcGluZ0NBLmNybDATBgNVHSUEDDAKBggrBgEFBQcDCDAOBgNVHQ8BAf8E
BAMCAQYwKAYDVR0RBCEwH6QdMBsxGTAXBgNVBAMTEFRpbWVTdGFtcC0yMDQ4LTEw
DQYJKoZIhvcNAQEFBQADgYEAAwmbj3nvf1kwqu9otfrjCR27T4IGXTdfplKfFo3q
HJIJRG71betYfDDo+WmNI3MLEm9Hqa45EfgqsZuwGsOO61mWAK3ODE2y0DGmCFwq
evzieh1XTKhlGOl5QGIllm7HxzdqgyEIjkHq3dlXPx13SYcqFgZepjhqIhKjURmD
frY=
-----END CERTIFICATE-----

Certificate:
    Data:
        Version: 3 (0x2)
        Serial Number:
            0e:cf:f4:38:c8:fe:bf:35:6e:04:d8:6a:98:1b:1a:50
    Signature Algorithm: sha1WithRSAEncryption
        Issuer: C=US, O=Symantec Corporation, CN=Symantec Time Stamping Services CA - G2
        Validity
            Not Before: Oct 18 00:00:00 2012 GMT
            Not After : Dec 29 23:59:59 2020 GMT
        Subject: C=US, O=Symantec Corporation, CN=Symantec Time Stamping Services Signer - G4
        Subject Public Key Info:
            Public Key Algorithm: rsaEncryption
                Public-Key: (2048 bit)
                Modulus:
                    00:a2:63:0b:39:44:b8:bb:23:a7:44:49:bb:0e:ff:
                    a1:f0:61:0a:53:93:b0:98:db:ad:2c:0f:4a:c5:6e:
                    ff:86:3c:53:55:0f:15:ce:04:3f:2b:fd:a9:96:96:
                    d9:be:61:79:0b:5b:c9:4c:86:76:e5:e0:43:4b:22:
                    95:ee:c2:2b:43:c1:9f:d8:68:b4:8e:40:4f:ee:85:
                    38:b9:11:c5:23:f2:64:58:f0:15:32:6f:4e:57:a1:
                    ae:88:a4:02:d7:2a:1e:cd:4b:e1:dd:63:d5:17:89:
                    32:5b:b0:5e:99:5a:a8:9d:28:50:0e:17:ee:96:db:
                    61:3b:45:51:1d:cf:12:56:0b:92:47:fc:ab:ae:f6:
                    66:3d:47:ac:70:72:e7:92:e7:5f:cd:10:b9:c4:83:
                    64:94:19:bd:25:80:e1:e8:d2:22:a5:d0:ba:02:7a:
                    a1:77:93:5b:65:c3:ee:17:74:bc:41:86:2a:dc:08:
                    4c:8c:92:8c:91:2d:9e:77:44:1f:68:d6:a8:74:77:
                    db:0e:5b:32:8b:56:8b:33:bd:d9:63:c8:49:9d:3a:
                    c5:c5:ea:33:0b:d2:f1:a3:1b:f4:8b:be:d9:b3:57:
                    8b:3b:de:04:a7:7a:22:b2:24:ae:2e:c7:70:c5:be:
                    4e:83:26:08:fb:0b:bd:a9:4f:99:08:e1:10:28:72:
                    aa:cd
                Exponent: 65537 (0x10001)
        X509v3 extensions:
            X509v3 Basic Constraints: critical
                CA:FALSE
            X509v3 Extended Key Usage: critical
                Time Stamping
            X509v3 Key Usage: critical
                Digital Signature
            Authority Information Access: 
                OCSP - URI:http://ts-ocsp.ws.symantec.com
                CA Issuers - URI:http://ts-aia.ws.symantec.com/tss-ca-g2.cer

            X509v3 CRL Distribution Points: 

                Full Name:
                  URI:http://ts-crl.ws.symantec.com/tss-ca-g2.crl

            X509v3 Subject Alternative Name: 
                DirName:/CN=TimeStamp-2048-2
            X509v3 Subject Key Identifier: 
                46:C6:69:A3:0E:4A:14:1E:D5:4C:DA:52:63:17:3F:5E:36:BC:0D:E6
            X509v3 Authority Key Identifier: 
                keyid:5F:9A:F5:6E:5C:CC:CC:74:9A:D4:DD:7D:EF:3F:DB:EC:4C:80:2E:DD

    Signature Algorithm: sha1WithRSAEncryption
         78:3b:b4:91:2a:00:4c:f0:8f:62:30:37:78:a3:84:27:07:6f:
         18:b2:de:25:dc:a0:d4:94:03:aa:86:4e:25:9f:9a:40:03:1c:
         dd:ce:e3:79:cb:21:68:06:da:b6:32:b4:6d:bf:f4:2c:26:63:
         33:e4:49:64:6d:0d:e6:c3:67:0e:f7:05:a4:35:6c:7c:89:16:
         c6:e9:b2:df:b2:e9:dd:20:c6:71:0f:cd:95:74:dc:b6:5c:de:
         bd:37:1f:43:78:e6:78:b5:cd:28:04:20:a3:aa:f1:4b:c4:88:
         29:91:0e:80:d1:11:fc:dd:5c:76:6e:4f:5e:0e:45:46:41:6e:
         0d:b0:ea:38:9a:b1:3a:da:09:71:10:fc:1c:79:b4:80:7b:ac:
         69:f4:fd:9c:b6:0c:16:2b:f1:7f:5b:09:3d:9b:5b:e2:16:ca:
         13:81:6d:00:2e:38:0d:a8:29:8f:2c:e1:b2:f4:5a:a9:01:af:
         15:9c:2c:2f:49:1b:db:22:bb:c3:fe:78:94:51:c3:86:b1:82:
         88:5d:f0:3d:b4:51:a1:79:33:2b:2e:7b:b9:dc:20:09:13:71:
         eb:6a:19:5b:cf:e8:a5:30:57:2c:89:49:3f:b9:cf:7f:c9:bf:
         3e:22:68:63:53:9a:bd:69:74:ac:c5:1d:3c:7f:92:e0:c3:bc:
         1c:d8:04:75
-----BEGIN CERTIFICATE-----
MIIEozCCA4ugAwIBAgIQDs/0OMj+vzVuBNhqmBsaUDANBgkqhkiG9w0BAQUFADBe
MQswCQYDVQQGEwJVUzEdMBsGA1UEChMUU3ltYW50ZWMgQ29ycG9yYXRpb24xMDAu
BgNVBAMTJ1N5bWFudGVjIFRpbWUgU3RhbXBpbmcgU2VydmljZXMgQ0EgLSBHMjAe
Fw0xMjEwMTgwMDAwMDBaFw0yMDEyMjkyMzU5NTlaMGIxCzAJBgNVBAYTAlVTMR0w
GwYDVQQKExRTeW1hbnRlYyBDb3Jwb3JhdGlvbjE0MDIGA1UEAxMrU3ltYW50ZWMg
VGltZSBTdGFtcGluZyBTZXJ2aWNlcyBTaWduZXIgLSBHNDCCASIwDQYJKoZIhvcN
AQEBBQADggEPADCCAQoCggEBAKJjCzlEuLsjp0RJuw7/ofBhClOTsJjbrSwPSsVu
/4Y8U1UPFc4EPyv9qZaW2b5heQtbyUyGduXgQ0sile7CK0PBn9hotI5AT+6FOLkR
xSPyZFjwFTJvTlehroikAtcqHs1L4d1j1ReJMluwXplaqJ0oUA4X7pbbYTtFUR3P
ElYLkkf8q672Zj1HrHBy55LnX80QucSDZJQZvSWA4ejSIqXQugJ6oXeTW2XD7hd0
vEGGKtwITIySjJEtnndEH2jWqHR32w5bMotWizO92WPISZ06xcXqMwvS8aMb9Iu+
2bNXizveBKd6IrIkri7HcMW+ToMmCPsLvalPmQjhEChyqs0CAwEAAaOCAVcwggFT
MAwGA1UdEwEB/wQCMAAwFgYDVR0lAQH/BAwwCgYIKwYBBQUHAwgwDgYDVR0PAQH/
BAQDAgeAMHMGCCsGAQUFBwEBBGcwZTAqBggrBgEFBQcwAYYeaHR0cDovL3RzLW9j
c3Aud3Muc3ltYW50ZWMuY29tMDcGCCsGAQUFBzAChitodHRwOi8vdHMtYWlhLndz
LnN5bWFudGVjLmNvbS90c3MtY2EtZzIuY2VyMDwGA1UdHwQ1MDMwMaAvoC2GK2h0
dHA6Ly90cy1jcmwud3Muc3ltYW50ZWMuY29tL3Rzcy1jYS1nMi5jcmwwKAYDVR0R
BCEwH6QdMBsxGTAXBgNVBAMTEFRpbWVTdGFtcC0yMDQ4LTIwHQYDVR0OBBYEFEbG
aaMOShQe1UzaUmMXP142vA3mMB8GA1UdIwQYMBaAFF+a9W5czMx0mtTdfe8/2+xM
gC7dMA0GCSqGSIb3DQEBBQUAA4IBAQB4O7SRKgBM8I9iMDd4o4QnB28Yst4l3KDU
lAOqhk4ln5pAAxzdzuN5yyFoBtq2MrRtv/QsJmMz5ElkbQ3mw2cO9wWkNWx8iRbG
6bLfsundIMZxD82VdNy2XN69Nx9DeOZ4tc0oBCCjqvFLxIgpkQ6A0RH83Vx2bk9e
DkVGQW4NsOo4mrE62glxEPwcebSAe6xp9P2ctgwWK/F/Wwk9m1viFsoTgW0ALjgN
qCmPLOGy9FqpAa8VnCwvSRvbIrvD/niUUcOGsYKIXfA9tFGheTMrLnu53CAJE3Hr
ahlbz+ilMFcsiUk/uc9/yb8+ImhjU5q9aXSsxR08f5Lgw7wc2AR1
-----END CERTIFICATE-----

Certificate:
    Data:
        Version: 3 (0x2)
        Serial Number: 4504655851698499 (0x1000f5ebe03943)
    Signature Algorithm: sha256WithRSAEncryption
        Issuer: C=IL, O=StartCom Ltd., OU=Secure Digital Certificate Signing, CN=StartCom Certification Authority
        Validity
            Not Before: Oct 14 22:01:46 2007 GMT
            Not After : Oct 14 22:01:46 2022 GMT
        Subject: C=IL, O=StartCom Ltd., OU=Secure Digital Certificate Signing, CN=StartCom Class 2 Primary Intermediate Object CA
        Subject Public Key Info:
            Public Key Algorithm: rsaEncryption
                Public-Key: (2048 bit)
                Modulus:
                    00:ca:23:8b:22:35:1e:9a:a0:1b:3c:9d:49:d0:3f:
                    0c:97:38:16:29:ba:f8:7d:89:5b:45:58:ef:84:70:
                    ed:7e:11:4d:e9:14:31:ab:43:e3:4d:0c:51:81:6c:
                    f0:15:03:4a:24:27:54:e5:fb:4a:a0:ce:4d:e1:84:
                    a3:21:de:99:35:ab:dc:49:ae:bf:31:c5:67:84:30:
                    10:9b:ef:07:dc:75:a8:0f:4d:f4:35:53:b1:6e:38:
                    03:fc:88:77:1d:a5:77:ff:3f:75:e7:d9:e7:bf:2c:
                    50:11:c9:11:65:fa:49:07:62:9f:93:a6:87:a9:6d:
                    c9:9d:2b:d1:7b:e5:d5:65:2b:9f:0d:50:9e:fe:fb:
                    71:19:21:30:28:26:8d:ae:c2:dc:f6:96:e8:52:86:
                    08:0b:7a:32:cd:6a:14:4d:9e:b9:f9:cd:07:e2:96:
                    91:f1:cf:1e:2b:f9:82:f7:5e:26:06:8e:8d:d1:d4:
                    39:d7:6f:db:91:27:5a:79:8f:58:69:0a:46:b5:6f:
                    e1:fd:6f:c5:91:b4:11:4f:7b:02:a6:db:4b:56:52:
                    23:9e:4b:98:e2:bf:7e:ce:fa:a1:4e:83:e3:c5:c7:
                    c3:60:47:fe:5c:3f:15:1a:40:2a:95:ef:00:6b:c8:
                    50:f8:cd:6a:19:d4:23:03:27:bc:3b:36:d5:b9:43:
                    b0:ef
                Exponent: 65537 (0x10001)
        X509v3 extensions:
            X509v3 Basic Constraints: critical
                CA:TRUE, pathlen:0
            X509v3 Key Usage: critical
                Certificate Sign, CRL Sign
            X509v3 Subject Key Identifier: 
                D0:4E:0F:40:99:6C:B8:4B:19:6F:3B:28:B8:E0:E3:88:07:34:AA:B7
            X509v3 Authority Key Identifier: 
                keyid:4E:0B:EF:1A:A4:40:5B:A5:17:69:87:30:CA:34:68:43:D0:41:AE:F2

            Authority Information Access: 
                OCSP - URI:http://ocsp.startssl.com/ca
                CA Issuers - URI:http://aia.startssl.com/certs/ca.crt

            X509v3 CRL Distribution Points: 

                Full Name:
                  URI:http://crl.startssl.com/sfsca.crl

            X509v3 Certificate Policies: 
                Policy: X509v3 Any Policy
                  CPS: http://www.startssl.com/policy.pdf

    Signature Algorithm: sha256WithRSAEncryption
         35:b2:e5:66:17:94:26:f4:31:40:56:73:47:e9:dc:63:22:39:
         67:dc:47:68:b6:96:69:4d:20:d6:a3:3e:cc:22:2d:ac:93:ea:
         47:b3:b2:a6:d3:00:24:d8:23:7b:c1:2a:4e:20:06:cc:9f:a0:
         1e:74:56:e6:5b:dc:1c:8f:c9:51:94:d1:a7:5b:3a:42:30:0b:
         e6:9e:ef:f6:fa:b1:0a:8c:8e:30:3c:b0:d4:2a:f2:fb:a4:7d:
         55:76:a9:25:0d:52:77:85:93:2a:c1:fc:63:a5:e9:1a:19:a2:
         16:b8:d8:4b:d0:d5:9c:18:7a:7f:de:cd:69:5a:34:88:86:e1:
         34:fd:e8:d4:9d:90:69:6b:37:d0:93:6a:0f:ee:e4:e4:3e:67:
         c6:e2:9b:2f:81:91:55:ba:17:25:7c:cc:ca:ee:16:6a:f3:31:
         bf:3a:8f:50:39:d6:85:ce:03:81:14:b3:24:43:c9:a7:25:86:
         5c:64:11:a8:eb:95:76:6a:6f:da:0c:36:66:4d:6d:7f:1d:8f:
         ce:76:b6:30:ed:a6:d9:09:8f:e3:96:21:c3:b6:f2:f0:5a:11:
         0d:a3:05:04:9b:a2:c3:35:3b:a5:be:07:13:3c:b4:17:98:be:
         2a:c3:bf:ab:17:b1:42:cc:c6:5d:a7:f4:31:2a:82:1a:e4:2c:
         be:1d:90:dc:13:2a:f5:ef:fb:29:80:fa:89:65:8a:4d:3e:aa:
         29:eb:33:a0:fa:8d:5c:a3:ce:0d:5f:3c:8c:da:d7:73:57:36:
         3a:09:86:07:21:d3:72:10:77:ba:69:40:e7:40:d3:2c:92:92:
         a8:42:06:ab:2d:68:53:4e:68:b7:c4:2c:7c:ea:77:60:9d:de:
         b0:14:f1:93:e5:7f:09:f1:1e:4e:73:ff:93:19:1c:40:a3:9d:
         bd:e9:ca:b6:52:75:02:f0:aa:76:98:b7:71:84:18:7d:cc:c6:
         24:72:7a:37:ab:bd:fc:18:13:2a:07:7f:da:48:78:b0:02:6d:
         86:0e:ff:7b:97:76:3e:bc:28:a1:89:cc:96:ef:41:ad:4a:28:
         cc:0d:7e:2d:1b:b5:8c:d3:10:40:a2:94:d8:4e:2a:c7:69:2f:
         87:41:69:32:c6:0e:b9:0f:40:90:77:05:90:4b:aa:e9:15:68:
         f0:e2:7a:72:12:e0:7b:31:cb:41:60:60:3d:4f:b4:51:81:d1:
         e8:36:25:f7:01:86:ec:95:96:81:c1:2d:9c:2e:25:71:84:8c:
         08:72:28:4f:38:80:10:ca:c9:a5:47:37:8d:5c:32:04:99:75:
         0e:a3:51:c7:d9:63:15:95:d0:c6:f1:0c:93:28:da:d2:d9:f2:
         c8:c1:f9:a3:db:e4:88:a9
-----BEGIN CERTIFICATE-----
MIIF2TCCA8GgAwIBAgIHEAD16+A5QzANBgkqhkiG9w0BAQsFADB9MQswCQYDVQQG
EwJJTDEWMBQGA1UEChMNU3RhcnRDb20gTHRkLjErMCkGA1UECxMiU2VjdXJlIERp
Z2l0YWwgQ2VydGlmaWNhdGUgU2lnbmluZzEpMCcGA1UEAxMgU3RhcnRDb20gQ2Vy
dGlmaWNhdGlvbiBBdXRob3JpdHkwHhcNMDcxMDE0MjIwMTQ2WhcNMjIxMDE0MjIw
MTQ2WjCBjDELMAkGA1UEBhMCSUwxFjAUBgNVBAoTDVN0YXJ0Q29tIEx0ZC4xKzAp
BgNVBAsTIlNlY3VyZSBEaWdpdGFsIENlcnRpZmljYXRlIFNpZ25pbmcxODA2BgNV
BAMTL1N0YXJ0Q29tIENsYXNzIDIgUHJpbWFyeSBJbnRlcm1lZGlhdGUgT2JqZWN0
IENBMIIBIjANBgkqhkiG9w0BAQEFAAOCAQ8AMIIBCgKCAQEAyiOLIjUemqAbPJ1J
0D8MlzgWKbr4fYlbRVjvhHDtfhFN6RQxq0PjTQxRgWzwFQNKJCdU5ftKoM5N4YSj
Id6ZNavcSa6/McVnhDAQm+8H3HWoD030NVOxbjgD/Ih3HaV3/z9159nnvyxQEckR
ZfpJB2Kfk6aHqW3JnSvRe+XVZSufDVCe/vtxGSEwKCaNrsLc9pboUoYIC3oyzWoU
TZ65+c0H4paR8c8eK/mC914mBo6N0dQ512/bkSdaeY9YaQpGtW/h/W/FkbQRT3sC
pttLVlIjnkuY4r9+zvqhToPjxcfDYEf+XD8VGkAqle8Aa8hQ+M1qGdQjAye8OzbV
uUOw7wIDAQABo4IBTDCCAUgwEgYDVR0TAQH/BAgwBgEB/wIBADAOBgNVHQ8BAf8E
BAMCAQYwHQYDVR0OBBYEFNBOD0CZbLhLGW87KLjg44gHNKq3MB8GA1UdIwQYMBaA
FE4L7xqkQFulF2mHMMo0aEPQQa7yMGkGCCsGAQUFBwEBBF0wWzAnBggrBgEFBQcw
AYYbaHR0cDovL29jc3Auc3RhcnRzc2wuY29tL2NhMDAGCCsGAQUFBzAChiRodHRw
Oi8vYWlhLnN0YXJ0c3NsLmNvbS9jZXJ0cy9jYS5jcnQwMgYDVR0fBCswKTAnoCWg
I4YhaHR0cDovL2NybC5zdGFydHNzbC5jb20vc2ZzY2EuY3JsMEMGA1UdIAQ8MDow
OAYEVR0gADAwMC4GCCsGAQUFBwIBFiJodHRwOi8vd3d3LnN0YXJ0c3NsLmNvbS9w
b2xpY3kucGRmMA0GCSqGSIb3DQEBCwUAA4ICAQA1suVmF5Qm9DFAVnNH6dxjIjln
3EdotpZpTSDWoz7MIi2sk+pHs7Km0wAk2CN7wSpOIAbMn6AedFbmW9wcj8lRlNGn
WzpCMAvmnu/2+rEKjI4wPLDUKvL7pH1VdqklDVJ3hZMqwfxjpekaGaIWuNhL0NWc
GHp/3s1pWjSIhuE0/ejUnZBpazfQk2oP7uTkPmfG4psvgZFVuhclfMzK7hZq8zG/
Oo9QOdaFzgOBFLMkQ8mnJYZcZBGo65V2am/aDDZmTW1/HY/OdrYw7abZCY/jliHD
tvLwWhENowUEm6LDNTulvgcTPLQXmL4qw7+rF7FCzMZdp/QxKoIa5Cy+HZDcEyr1
7/spgPqJZYpNPqop6zOg+o1co84NXzyM2tdzVzY6CYYHIdNyEHe6aUDnQNMskpKo
QgarLWhTTmi3xCx86ndgnd6wFPGT5X8J8R5Oc/+TGRxAo5296cq2UnUC8Kp2mLdx
hBh9zMYkcno3q738GBMqB3/aSHiwAm2GDv97l3Y+vCihicyW70GtSijMDX4tG7WM
0xBAopTYTirHaS+HQWkyxg65D0CQdwWQS6rpFWjw4npyEuB7MctBYGA9T7RRgdHo
NiX3AYbslZaBwS2cLiVxhIwIcihPOIAQysmlRzeNXDIEmXUOo1HH2WMVldDG8QyT
KNrS2fLIwfmj2+SIqQ==
-----END CERTIFICATE-----

Certificate:
    Data:
        Version: 3 (0x2)
        Serial Number: 5080783755760085 (0x120cf226f151d5)
    Signature Algorithm: sha256WithRSAEncryption
        Issuer: C=IL, O=StartCom Ltd., OU=Secure Digital Certificate Signing, CN=StartCom Class 2 Primary Intermediate Object CA
        Validity
            Not Before: Jun 22 16:50:31 2015 GMT
            Not After : Jun 23 02:10:38 2017 GMT
        Subject: C=RU, ST=Moskva Oblast, L=Korolev, CN=Viacheslav Vasiliev/emailAddress=etimosoft@gmail.com
        Subject Public Key Info:
            Public Key Algorithm: rsaEncryption
                Public-Key: (2048 bit)
                Modulus:
                    00:c0:d7:79:fb:2c:e3:4e:74:03:fa:c5:53:03:e0:
                    9c:9c:1d:90:e5:3e:b3:37:49:a2:67:9e:33:d0:41:
                    19:42:55:f5:3d:fd:76:4d:40:2f:c1:bf:65:37:bf:
                    1c:4c:88:ef:86:b8:c1:c4:e5:21:77:02:f6:93:92:
                    c9:d7:ee:70:e9:1f:7b:65:71:a6:0b:69:bd:f1:c6:
                    ef:fc:d6:5c:42:a3:dc:e1:a9:0f:7a:ca:ab:7e:f5:
                    e0:bc:07:fa:9d:be:0d:b8:37:6d:ab:42:e7:53:bd:
                    3f:fd:dd:fc:ce:71:2f:54:fd:da:bf:03:a8:f4:a1:
                    ab:6f:1e:aa:4b:ab:87:56:aa:06:1d:b1:b2:c1:f2:
                    8b:3c:bb:23:47:93:b5:50:c6:90:c4:e4:32:04:46:
                    3e:e3:9e:c8:be:34:4f:b9:4f:c3:f7:4d:51:fe:21:
                    a5:aa:53:c6:f5:b5:17:3c:8a:70:85:5b:e0:fb:f0:
                    1f:7d:27:03:e5:a7:43:80:40:52:c8:c6:53:52:90:
                    86:f5:33:46:48:5b:8a:eb:d6:97:47:ec:3c:6e:64:
                    41:56:05:c2:62:25:26:09:d6:9a:79:4f:53:7d:4e:
                    fc:89:e0:33:ad:80:21:bd:df:c3:c6:5b:1b:3d:1b:
                    10:43:2f:65:49:96:44:7a:12:26:4b:2b:a7:c3:5d:
                    38:1d
                Exponent: 65537 (0x10001)
        X509v3 extensions:
            X509v3 Basic Constraints: 
                CA:FALSE
            X509v3 Key Usage: critical
                Digital Signature
            X509v3 Extended Key Usage: critical
                Code Signing, 1.3.6.1.4.1.311.10.3.13
            X509v3 Subject Key Identifier: 
                3D:C9:C7:50:42:1A:7D:59:8E:13:B4:AD:93:6C:71:B4:F2:EF:54:DB
            X509v3 Authority Key Identifier: 
                keyid:D0:4E:0F:40:99:6C:B8:4B:19:6F:3B:28:B8:E0:E3:88:07:34:AA:B7

            X509v3 Certificate Policies: 
                Policy: 1.3.6.1.4.1.23223.1.2.3
                  CPS: http://www.startssl.com/policy.pdf
                  User Notice:
                    Organization: StartCom Certification Authority
                    Number: 1
                    Explicit Text: This certificate was issued according to the Class 2 Validation requirements of the StartCom CA policy, reliance only for the intended purpose in compliance of the relying party obligations.

            X509v3 CRL Distribution Points: 

                Full Name:
                  URI:http://crl.startssl.com/crtc2-crl.crl

            Authority Information Access: 
                OCSP - URI:http://ocsp.startssl.com/sub/class2/code/ca
                CA Issuers - URI:http://aia.startssl.com/certs/sub.class2.code.ca.crt

            X509v3 Issuer Alternative Name: 
                URI:http://www.startssl.com/
    Signature Algorithm: sha256WithRSAEncryption
         04:3b:3d:f3:cf:c0:2b:53:eb:81:fd:b2:19:4a:9a:ff:06:ba:
         33:17:c8:89:e4:bb:7d:f4:d0:30:e4:31:d9:34:4d:01:7a:b1:
         44:10:2b:65:19:7a:fa:71:75:65:01:ba:ee:c8:de:3f:99:8d:
         2f:98:4b:a3:2f:34:64:38:2f:a6:d6:3a:46:8e:75:b5:5a:87:
         8d:87:81:5a:63:f1:f0:81:f0:a8:54:49:81:4b:d6:bc:45:72:
         fe:c8:bc:51:34:37:64:fc:ad:4b:b8:08:b2:d1:2f:a8:e8:6b:
         17:8a:33:73:6e:e0:12:f9:64:d6:8e:a1:a2:18:57:d4:4c:a8:
         f9:e0:87:d5:87:ca:94:c9:9b:98:1c:f1:ce:cc:15:c9:f2:39:
         eb:12:c8:96:a6:12:4d:d0:2f:95:2c:2a:e9:17:e4:43:95:81:
         bc:e7:fd:07:8d:e7:aa:7f:38:f3:50:28:c6:d8:94:e5:1e:af:
         a7:c9:eb:21:3c:19:f3:ca:36:6d:a3:e7:95:7a:24:99:f9:ee:
         39:8b:92:c3:80:8b:23:f7:22:78:f6:c8:4e:3e:9d:2c:f0:c7:
         00:00:13:03:c6:98:80:fb:d3:15:dd:c5:05:de:36:da:61:45:
         90:c9:2d:b4:89:60:52:8c:38:85:d4:6a:81:36:79:7a:69:f5:
         81:d6:59:8f
-----BEGIN CERTIFICATE-----
MIIGRTCCBS2gAwIBAgIHEgzyJvFR1TANBgkqhkiG9w0BAQsFADCBjDELMAkGA1UE
BhMCSUwxFjAUBgNVBAoTDVN0YXJ0Q29tIEx0ZC4xKzApBgNVBAsTIlNlY3VyZSBE
aWdpdGFsIENlcnRpZmljYXRlIFNpZ25pbmcxODA2BgNVBAMTL1N0YXJ0Q29tIENs
YXNzIDIgUHJpbWFyeSBJbnRlcm1lZGlhdGUgT2JqZWN0IENBMB4XDTE1MDYyMjE2
NTAzMVoXDTE3MDYyMzAyMTAzOFoweTELMAkGA1UEBhMCUlUxFjAUBgNVBAgTDU1v
c2t2YSBPYmxhc3QxEDAOBgNVBAcTB0tvcm9sZXYxHDAaBgNVBAMTE1ZpYWNoZXNs
YXYgVmFzaWxpZXYxIjAgBgkqhkiG9w0BCQEWE2V0aW1vc29mdEBnbWFpbC5jb20w
ggEiMA0GCSqGSIb3DQEBAQUAA4IBDwAwggEKAoIBAQDA13n7LONOdAP6xVMD4Jyc
HZDlPrM3SaJnnjPQQRlCVfU9/XZNQC/Bv2U3vxxMiO+GuMHE5SF3AvaTksnX7nDp
H3tlcaYLab3xxu/81lxCo9zhqQ96yqt+9eC8B/qdvg24N22rQudTvT/93fzOcS9U
/dq/A6j0oatvHqpLq4dWqgYdsbLB8os8uyNHk7VQxpDE5DIERj7jnsi+NE+5T8P3
TVH+IaWqU8b1tRc8inCFW+D78B99JwPlp0OAQFLIxlNSkIb1M0ZIW4rr1pdH7Dxu
ZEFWBcJiJSYJ1pp5T1N9TvyJ4DOtgCG938PGWxs9GxBDL2VJlkR6EiZLK6fDXTgd
AgMBAAGjggK8MIICuDAJBgNVHRMEAjAAMA4GA1UdDwEB/wQEAwIHgDAiBgNVHSUB
Af8EGDAWBggrBgEFBQcDAwYKKwYBBAGCNwoDDTAdBgNVHQ4EFgQUPcnHUEIafVmO
E7Stk2xxtPLvVNswHwYDVR0jBBgwFoAU0E4PQJlsuEsZbzsouODjiAc0qrcwggFM
BgNVHSAEggFDMIIBPzCCATsGCysGAQQBgbU3AQIDMIIBKjAuBggrBgEFBQcCARYi
aHR0cDovL3d3dy5zdGFydHNzbC5jb20vcG9saWN5LnBkZjCB9wYIKwYBBQUHAgIw
geowJxYgU3RhcnRDb20gQ2VydGlmaWNhdGlvbiBBdXRob3JpdHkwAwIBARqBvlRo
aXMgY2VydGlmaWNhdGUgd2FzIGlzc3VlZCBhY2NvcmRpbmcgdG8gdGhlIENsYXNz
IDIgVmFsaWRhdGlvbiByZXF1aXJlbWVudHMgb2YgdGhlIFN0YXJ0Q29tIENBIHBv
bGljeSwgcmVsaWFuY2Ugb25seSBmb3IgdGhlIGludGVuZGVkIHB1cnBvc2UgaW4g
Y29tcGxpYW5jZSBvZiB0aGUgcmVseWluZyBwYXJ0eSBvYmxpZ2F0aW9ucy4wNgYD
VR0fBC8wLTAroCmgJ4YlaHR0cDovL2NybC5zdGFydHNzbC5jb20vY3J0YzItY3Js
LmNybDCBiQYIKwYBBQUHAQEEfTB7MDcGCCsGAQUFBzABhitodHRwOi8vb2NzcC5z
dGFydHNzbC5jb20vc3ViL2NsYXNzMi9jb2RlL2NhMEAGCCsGAQUFBzAChjRodHRw
Oi8vYWlhLnN0YXJ0c3NsLmNvbS9jZXJ0cy9zdWIuY2xhc3MyLmNvZGUuY2EuY3J0
MCMGA1UdEgQcMBqGGGh0dHA6Ly93d3cuc3RhcnRzc2wuY29tLzANBgkqhkiG9w0B
AQsFAAOCAQEABDs988/AK1Prgf2yGUqa/wa6MxfIieS7ffTQMOQx2TRNAXqxRBAr
ZRl6+nF1ZQG67sjeP5mNL5hLoy80ZDgvptY6Ro51tVqHjYeBWmPx8IHwqFRJgUvW
vEVy/si8UTQ3ZPytS7gIstEvqOhrF4ozc27gEvlk1o6hohhX1Eyo+eCH1YfKlMmb
mBzxzswVyfI56xLIlqYSTdAvlSwq6RfkQ5WBvOf9B43nqn8481AoxtiU5R6vp8nr
ITwZ88o2baPnlXokmfnuOYuSw4CLI/ciePbITj6dLPDHAAATA8aYgPvTFd3FBd42
2mFFkMkttIlgUow4hdRqgTZ5emn1gdZZjw==
-----END CERTIFICATE-----

