Certificate:
    Data:
        Version: 3 (0x2)
        Serial Number:
            9f:ea:c8:11:b0:f1:62:47:a5:fc:20:d8:05:23:ac:e6
    Signature Algorithm: sha1WithRSAEncryption
        Issuer: C=US, ST=UT, L=Salt Lake City, O=The USERTRUST Network, OU=http://www.usertrust.com, CN=UTN-USERFirst-Object
        Validity
            Not Before: May  5 00:00:00 2015 GMT
            Not After : Dec 31 23:59:59 2015 GMT
        Subject: C=GB, ST=Greater Manchester, L=Salford, O=COMODO CA Limited, CN=COMODO Time Stamping Signer
        Subject Public Key Info:
            Public Key Algorithm: rsaEncryption
                Public-Key: (2048 bit)
                Modulus:
                    00:bc:35:a0:36:70:22:81:11:c3:b2:83:b9:d3:28:
                    c6:36:cd:25:6b:a9:7b:b2:1c:f6:9b:51:9c:ef:35:
                    f4:ed:08:8e:5e:38:08:f8:77:3c:0a:42:e0:f3:70:
                    dc:a3:d7:ca:f5:4c:0b:cf:ff:22:9c:0a:7e:68:d6:
                    09:a2:2a:84:7b:a6:9d:b4:a9:c1:33:e2:ef:1f:17:
                    48:ca:3a:cd:46:e6:c5:aa:77:bd:e3:77:9a:fa:47:
                    53:40:28:59:43:93:f1:a4:81:ea:ef:80:b5:4f:a7:
                    08:ce:ba:6e:bc:ca:76:0c:97:64:59:86:24:bb:3d:
                    82:90:a8:55:b1:92:d3:a0:a7:05:ac:9f:53:25:08:
                    10:47:99:cd:98:de:68:e5:b4:50:78:a3:af:01:cc:
                    59:43:58:e4:76:6e:7e:ac:c7:e2:9e:1f:4f:b0:47:
                    2d:c8:0c:a3:49:27:80:75:8c:bb:06:91:65:0f:90:
                    9b:f4:ba:d1:81:c8:5c:6a:ec:14:e9:25:09:bf:23:
                    16:f4:95:46:40:40:21:bb:83:96:fd:86:1f:7a:c8:
                    0d:10:8e:a2:f8:19:07:58:7f:9f:bd:37:02:60:f2:
                    a4:e9:9d:44:3f:30:05:e4:a7:70:99:51:9a:e8:17:
                    f1:55:ca:b2:61:89:65:46:a7:6a:f2:58:46:7e:aa:
                    a0:07
                Exponent: 65537 (0x10001)
        X509v3 extensions:
            X509v3 Authority Key Identifier: 
                keyid:DA:ED:64:74:14:9C:14:3C:AB:DD:99:A9:BD:5B:28:4D:8B:3C:C9:D8

            X509v3 Subject Key Identifier: 
                2E:2D:B0:0A:44:4A:D3:87:C0:02:07:CE:97:7D:50:62:20:FD:0F:83
            X509v3 Key Usage: critical
                Digital Signature, Non Repudiation
            X509v3 Basic Constraints: critical
                CA:FALSE
            X509v3 Extended Key Usage: critical
                Time Stamping
            X509v3 CRL Distribution Points: 

                Full Name:
                  URI:http://crl.usertrust.com/UTN-USERFirst-Object.crl

            Authority Information Access: 
                OCSP - URI:http://ocsp.usertrust.com

    Signature Algorithm: sha1WithRSAEncryption
         0d:bb:ad:60:11:1b:b5:f0:0d:cc:e6:48:3a:7a:3e:0e:33:dc:
         1c:b9:ea:d6:20:fe:a3:4d:d0:cc:76:4e:e8:18:d8:79:df:d3:
         4f:9a:42:64:23:8a:29:72:8a:3a:6c:66:a6:3c:3a:17:a8:70:
         45:65:c6:73:c3:d0:ce:89:54:fb:ac:69:0f:58:b0:19:cb:86:
         9f:7e:b9:7e:eb:51:92:bf:9b:dd:eb:d1:65:f0:25:7b:88:7c:
         de:bd:a5:c8:b5:14:51:bc:c0:81:30:8a:85:38:7b:e6:79:fe:
         67:55:93:87:fe:4f:e8:8d:0e:ed:f3:72:92:b5:c2:89:80:6d:
         d1:59:e3:1d:0d:ea:b1:38:ee:03:9d:00:19:a5:ab:21:9b:79:
         c3:cc:c2:3e:68:7e:bd:c9:4d:69:4d:b4:64:51:fb:b2:28:74:
         e2:53:89:ce:9d:fa:ad:e2:db:ce:ab:7b:7e:06:44:74:fd:0a:
         a3:c9:b7:a7:30:cd:49:d2:92:64:f1:22:a6:b8:28:45:74:79:
         e9:a7:ce:3b:33:f9:83:50:94:7d:68:c0:1d:49:c7:60:78:7a:
         3c:64:26:d5:be:fa:0a:6d:e4:1e:e1:09:53:8f:a9:c5:23:ac:
         c7:9d:61:42:21:f0:2c:16:71:49:3b:10:af:2c:6f:1a:e6:31:
         f1:14:fd:6c
-----BEGIN CERTIFICATE-----
MIIElDCCA3ygAwIBAgIRAJ/qyBGw8WJHpfwg2AUjrOYwDQYJKoZIhvcNAQEFBQAw
gZUxCzAJBgNVBAYTAlVTMQswCQYDVQQIEwJVVDEXMBUGA1UEBxMOU2FsdCBMYWtl
IENpdHkxHjAcBgNVBAoTFVRoZSBVU0VSVFJVU1QgTmV0d29yazEhMB8GA1UECxMY
aHR0cDovL3d3dy51c2VydHJ1c3QuY29tMR0wGwYDVQQDExRVVE4tVVNFUkZpcnN0
LU9iamVjdDAeFw0xNTA1MDUwMDAwMDBaFw0xNTEyMzEyMzU5NTlaMH4xCzAJBgNV
BAYTAkdCMRswGQYDVQQIExJHcmVhdGVyIE1hbmNoZXN0ZXIxEDAOBgNVBAcTB1Nh
bGZvcmQxGjAYBgNVBAoTEUNPTU9ETyBDQSBMaW1pdGVkMSQwIgYDVQQDExtDT01P
RE8gVGltZSBTdGFtcGluZyBTaWduZXIwggEiMA0GCSqGSIb3DQEBAQUAA4IBDwAw
ggEKAoIBAQC8NaA2cCKBEcOyg7nTKMY2zSVrqXuyHPabUZzvNfTtCI5eOAj4dzwK
QuDzcNyj18r1TAvP/yKcCn5o1gmiKoR7pp20qcEz4u8fF0jKOs1G5sWqd73jd5r6
R1NAKFlDk/GkgervgLVPpwjOum68ynYMl2RZhiS7PYKQqFWxktOgpwWsn1MlCBBH
mc2Y3mjltFB4o68BzFlDWOR2bn6sx+KeH0+wRy3IDKNJJ4B1jLsGkWUPkJv0utGB
yFxq7BTpJQm/Ixb0lUZAQCG7g5b9hh96yA0QjqL4GQdYf5+9NwJg8qTpnUQ/MAXk
p3CZUZroF/FVyrJhiWVGp2ryWEZ+qqAHAgMBAAGjgfQwgfEwHwYDVR0jBBgwFoAU
2u1kdBScFDyr3ZmpvVsoTYs8ydgwHQYDVR0OBBYEFC4tsApEStOHwAIHzpd9UGIg
/Q+DMA4GA1UdDwEB/wQEAwIGwDAMBgNVHRMBAf8EAjAAMBYGA1UdJQEB/wQMMAoG
CCsGAQUFBwMIMEIGA1UdHwQ7MDkwN6A1oDOGMWh0dHA6Ly9jcmwudXNlcnRydXN0
LmNvbS9VVE4tVVNFUkZpcnN0LU9iamVjdC5jcmwwNQYIKwYBBQUHAQEEKTAnMCUG
CCsGAQUFBzABhhlodHRwOi8vb2NzcC51c2VydHJ1c3QuY29tMA0GCSqGSIb3DQEB
BQUAA4IBAQANu61gERu18A3M5kg6ej4OM9wcuerWIP6jTdDMdk7oGNh539NPmkJk
I4opcoo6bGamPDoXqHBFZcZzw9DOiVT7rGkPWLAZy4affrl+61GSv5vd69Fl8CV7
iHzevaXItRRRvMCBMIqFOHvmef5nVZOH/k/ojQ7t83KStcKJgG3RWeMdDeqxOO4D
nQAZpashm3nDzMI+aH69yU1pTbRkUfuyKHTiU4nOnfqt4tvOq3t+BkR0/Qqjyben
MM1J0pJk8SKmuChFdHnpp847M/mDUJR9aMAdScdgeHo8ZCbVvvoKbeQe4QlTj6nF
I6zHnWFCIfAsFnFJOxCvLG8a5jHxFP1s
-----END CERTIFICATE-----

Certificate:
    Data:
        Version: 3 (0x2)
        Serial Number:
            1a:37:e6:93:0f:57:f3:07:62:23:1b:be:07:dd:4a:36
    Signature Algorithm: sha1WithRSAEncryption
        Issuer: C=US, O=VeriSign, Inc., OU=VeriSign Trust Network, OU=Terms of use at https://www.verisign.com/rpa (c)10, CN=VeriSign Class 3 Code Signing 2010 CA
        Validity
            Not Before: May 21 00:00:00 2013 GMT
            Not After : May 20 23:59:59 2016 GMT
        Subject: C=CN, ST=Fujian, L=Xiamen, O=Xiamen Tongbu Networks Ltd., OU=Digital ID Class 3 - Microsoft Software Validation v2, OU=IT, CN=Xiamen Tongbu Networks Ltd.
        Subject Public Key Info:
            Public Key Algorithm: rsaEncryption
                Public-Key: (2048 bit)
                Modulus:
                    00:a3:9a:9a:d0:27:ba:c8:26:4f:6c:8d:a5:67:31:
                    17:3f:a7:41:03:90:05:66:70:93:e9:71:dd:31:f5:
                    b4:1c:0d:85:e8:c6:78:2b:07:48:37:ad:ec:35:02:
                    a0:f2:af:85:33:84:a8:1c:73:27:9c:b7:a8:d1:bc:
                    59:2b:ac:76:80:fa:ba:b5:db:e5:27:81:24:f8:50:
                    fb:84:5a:b3:a1:03:e6:b6:6b:e3:85:35:42:3c:b0:
                    d7:52:86:8d:fd:3d:9a:30:f0:14:69:42:65:c6:93:
                    02:47:c3:21:80:c5:1f:5f:06:d2:ba:73:0f:e9:6e:
                    36:7d:57:17:e3:ce:5a:ce:df:18:b8:c9:23:0d:c0:
                    d9:0a:ee:54:b3:7e:3b:58:22:41:54:f4:1e:4a:4e:
                    82:52:5c:78:b1:e6:ff:b8:70:20:e2:e7:e2:c7:c9:
                    39:6d:79:06:61:3a:b8:74:a4:d4:94:6a:e1:db:d3:
                    46:e3:b9:a4:a0:16:98:17:5f:b2:5b:96:be:72:87:
                    41:d2:6b:ed:77:e5:af:24:78:cd:14:0a:51:a4:0c:
                    00:fe:a4:e8:d1:66:5d:7c:85:d7:9d:96:9c:66:41:
                    80:ee:ac:83:49:86:1a:1a:95:63:9a:17:1c:f0:7d:
                    f8:b5:54:25:18:ed:25:33:68:a3:af:7c:38:9c:29:
                    81:45
                Exponent: 65537 (0x10001)
        X509v3 extensions:
            X509v3 Basic Constraints: 
                CA:FALSE
            X509v3 Key Usage: critical
                Digital Signature
            X509v3 CRL Distribution Points: 

                Full Name:
                  URI:http://csc3-2010-crl.verisign.com/CSC3-2010.crl

            X509v3 Certificate Policies: 
                Policy: 2.16.840.1.113733.1.7.23.3
                  CPS: https://www.verisign.com/rpa

            X509v3 Extended Key Usage: 
                Code Signing
            Authority Information Access: 
                OCSP - URI:http://ocsp.verisign.com
                CA Issuers - URI:http://csc3-2010-aia.verisign.com/CSC3-2010.cer

            X509v3 Authority Key Identifier: 
                keyid:CF:99:A9:EA:7B:26:F4:4B:C9:8E:8F:D7:F0:05:26:EF:E3:D2:A7:9D

            Netscape Cert Type: 
                Object Signing
            1.3.6.1.4.1.311.2.1.27: 
                0.......
    Signature Algorithm: sha1WithRSAEncryption
         a1:4a:66:37:67:89:9e:12:46:02:e9:d5:dd:60:39:ff:b7:f0:
         98:3c:a7:25:55:32:89:72:be:c8:f8:c7:85:57:76:1f:6c:67:
         05:7e:97:3d:d7:9b:d3:03:83:6d:33:86:fe:36:d6:be:52:15:
         29:c1:95:31:f7:cc:af:85:04:58:1e:61:42:a2:c4:bf:c5:0d:
         b8:47:3e:ed:b9:e5:3a:aa:22:f7:8f:dc:a0:47:d8:61:78:98:
         9f:f6:78:02:a3:00:89:8a:dd:bc:6e:57:ec:8f:9a:f0:21:29:
         e6:9b:a9:d5:e5:90:1f:71:50:0e:7b:bd:60:9d:70:0c:88:02:
         e5:2e:ee:09:bf:54:79:82:4d:5d:fe:5b:3e:2c:1c:d3:11:34:
         7f:fa:5e:7b:55:65:a8:46:44:3a:5a:09:a6:c6:40:8f:0b:3a:
         41:d6:e4:9a:9b:e2:25:55:3a:32:02:61:54:e7:7e:33:26:d0:
         32:b8:73:90:03:b5:30:cc:34:fa:d3:ab:1b:04:7e:94:56:34:
         50:b8:32:b9:c9:af:f5:da:3e:f1:00:3d:d9:1c:f2:03:5d:2d:
         18:89:2e:0c:49:b1:4a:dc:f9:d7:1d:17:ba:b1:dc:c3:9f:c4:
         49:25:0b:ef:34:6e:40:3f:6d:1f:b0:e1:cf:1a:36:2d:f6:b3:
         d2:46:08:c5
-----BEGIN CERTIFICATE-----
MIIFhTCCBG2gAwIBAgIQGjfmkw9X8wdiIxu+B91KNjANBgkqhkiG9w0BAQUFADCB
tDELMAkGA1UEBhMCVVMxFzAVBgNVBAoTDlZlcmlTaWduLCBJbmMuMR8wHQYDVQQL
ExZWZXJpU2lnbiBUcnVzdCBOZXR3b3JrMTswOQYDVQQLEzJUZXJtcyBvZiB1c2Ug
YXQgaHR0cHM6Ly93d3cudmVyaXNpZ24uY29tL3JwYSAoYykxMDEuMCwGA1UEAxMl
VmVyaVNpZ24gQ2xhc3MgMyBDb2RlIFNpZ25pbmcgMjAxMCBDQTAeFw0xMzA1MjEw
MDAwMDBaFw0xNjA1MjAyMzU5NTlaMIHIMQswCQYDVQQGEwJDTjEPMA0GA1UECBMG
RnVqaWFuMQ8wDQYDVQQHEwZYaWFtZW4xJDAiBgNVBAoUG1hpYW1lbiBUb25nYnUg
TmV0d29ya3MgTHRkLjE+MDwGA1UECxM1RGlnaXRhbCBJRCBDbGFzcyAzIC0gTWlj
cm9zb2Z0IFNvZnR3YXJlIFZhbGlkYXRpb24gdjIxCzAJBgNVBAsUAklUMSQwIgYD
VQQDFBtYaWFtZW4gVG9uZ2J1IE5ldHdvcmtzIEx0ZC4wggEiMA0GCSqGSIb3DQEB
AQUAA4IBDwAwggEKAoIBAQCjmprQJ7rIJk9sjaVnMRc/p0EDkAVmcJPpcd0x9bQc
DYXoxngrB0g3rew1AqDyr4UzhKgccyect6jRvFkrrHaA+rq12+UngST4UPuEWrOh
A+a2a+OFNUI8sNdSho39PZow8BRpQmXGkwJHwyGAxR9fBtK6cw/pbjZ9VxfjzlrO
3xi4ySMNwNkK7lSzfjtYIkFU9B5KToJSXHix5v+4cCDi5+LHyTlteQZhOrh0pNSU
auHb00bjuaSgFpgXX7Jblr5yh0HSa+135a8keM0UClGkDAD+pOjRZl18hdedlpxm
QYDurINJhhoalWOaFxzwffi1VCUY7SUzaKOvfDicKYFFAgMBAAGjggF7MIIBdzAJ
BgNVHRMEAjAAMA4GA1UdDwEB/wQEAwIHgDBABgNVHR8EOTA3MDWgM6Axhi9odHRw
Oi8vY3NjMy0yMDEwLWNybC52ZXJpc2lnbi5jb20vQ1NDMy0yMDEwLmNybDBEBgNV
HSAEPTA7MDkGC2CGSAGG+EUBBxcDMCowKAYIKwYBBQUHAgEWHGh0dHBzOi8vd3d3
LnZlcmlzaWduLmNvbS9ycGEwEwYDVR0lBAwwCgYIKwYBBQUHAwMwcQYIKwYBBQUH
AQEEZTBjMCQGCCsGAQUFBzABhhhodHRwOi8vb2NzcC52ZXJpc2lnbi5jb20wOwYI
KwYBBQUHMAKGL2h0dHA6Ly9jc2MzLTIwMTAtYWlhLnZlcmlzaWduLmNvbS9DU0Mz
LTIwMTAuY2VyMB8GA1UdIwQYMBaAFM+Zqep7JvRLyY6P1/AFJu/j0qedMBEGCWCG
SAGG+EIBAQQEAwIEEDAWBgorBgEEAYI3AgEbBAgwBgEBAAEB/zANBgkqhkiG9w0B
AQUFAAOCAQEAoUpmN2eJnhJGAunV3WA5/7fwmDynJVUyiXK+yPjHhVd2H2xnBX6X
Pdeb0wODbTOG/jbWvlIVKcGVMffMr4UEWB5hQqLEv8UNuEc+7bnlOqoi94/coEfY
YXiYn/Z4AqMAiYrdvG5X7I+a8CEp5pup1eWQH3FQDnu9YJ1wDIgC5S7uCb9UeYJN
Xf5bPiwc0xE0f/pee1VlqEZEOloJpsZAjws6QdbkmpviJVU6MgJhVOd+MybQMrhz
kAO1MMw0+tOrGwR+lFY0ULgyucmv9do+8QA92RzyA10tGIkuDEmxStz51x0XurHc
w5/ESSUL7zRuQD9tH7Dhzxo2Lfaz0kYIxQ==
-----END CERTIFICATE-----

Certificate:
    Data:
        Version: 3 (0x2)
        Serial Number:
            52:00:e5:aa:25:56:fc:1a:86:ed:96:c9:d4:4b:33:c7
    Signature Algorithm: sha1WithRSAEncryption
        Issuer: C=US, O=VeriSign, Inc., OU=VeriSign Trust Network, OU=(c) 2006 VeriSign, Inc. - For authorized use only, CN=VeriSign Class 3 Public Primary Certification Authority - G5
        Validity
            Not Before: Feb  8 00:00:00 2010 GMT
            Not After : Feb  7 23:59:59 2020 GMT
        Subject: C=US, O=VeriSign, Inc., OU=VeriSign Trust Network, OU=Terms of use at https://www.verisign.com/rpa (c)10, CN=VeriSign Class 3 Code Signing 2010 CA
        Subject Public Key Info:
            Public Key Algorithm: rsaEncryption
                Public-Key: (2048 bit)
                Modulus:
                    00:f5:23:4b:5e:a5:d7:8a:bb:32:e9:d4:57:f7:ef:
                    e4:c7:26:7e:ad:19:98:fe:a8:9d:7d:94:f6:36:6b:
                    10:d7:75:81:30:7f:04:68:7f:cb:2b:75:1e:cd:1d:
                    08:8c:df:69:94:a7:37:a3:9c:7b:80:e0:99:e1:ee:
                    37:4d:5f:ce:3b:14:ee:86:d4:d0:f5:27:35:bc:25:
                    0b:38:a7:8c:63:9d:17:a3:08:a5:ab:b0:fb:cd:6a:
                    62:82:4c:d5:21:da:1b:d9:f1:e3:84:3b:8a:2a:4f:
                    85:5b:90:01:4f:c9:a7:76:10:7f:27:03:7c:be:ae:
                    7e:7d:c1:dd:f9:05:bc:1b:48:9c:69:e7:c0:a4:3c:
                    3c:41:00:3e:df:96:e5:c5:e4:94:71:d6:55:01:c7:
                    00:26:4a:40:3c:b5:a1:26:a9:0c:a7:6d:80:8e:90:
                    25:7b:cf:bf:3f:1c:eb:2f:96:fa:e5:87:77:c6:b5:
                    56:b2:7a:3b:54:30:53:1b:df:62:34:ff:1e:d1:f4:
                    5a:93:28:85:e5:4c:17:4e:7e:5b:fd:a4:93:99:7f:
                    df:cd:ef:a4:75:ef:ef:15:f6:47:e7:f8:19:72:d8:
                    2e:34:1a:a6:b4:a7:4c:7e:bd:bb:4f:0c:3d:57:f1:
                    30:d6:a6:36:8e:d6:80:76:d7:19:2e:a5:cd:7e:34:
                    2d:89
                Exponent: 65537 (0x10001)
        X509v3 extensions:
            X509v3 Basic Constraints: critical
                CA:TRUE, pathlen:0
            X509v3 Certificate Policies: 
                Policy: 2.16.840.1.113733.1.7.23.3
                  CPS: https://www.verisign.com/cps
                  User Notice:
                    Explicit Text: https://www.verisign.com/rpa

            X509v3 Key Usage: critical
                Certificate Sign, CRL Sign
            1.3.6.1.5.5.7.1.12: 
                0_.].[0Y0W0U..image/gif0!0.0...+..............k...j.H.,{..0%.#http://logo.verisign.com/vslogo.gif
            X509v3 CRL Distribution Points: 

                Full Name:
                  URI:http://crl.verisign.com/pca3-g5.crl

            Authority Information Access: 
                OCSP - URI:http://ocsp.verisign.com

            X509v3 Extended Key Usage: 
                TLS Web Client Authentication, Code Signing
            X509v3 Subject Alternative Name: 
                DirName:/CN=VeriSignMPKI-2-8
            X509v3 Subject Key Identifier: 
                CF:99:A9:EA:7B:26:F4:4B:C9:8E:8F:D7:F0:05:26:EF:E3:D2:A7:9D
            X509v3 Authority Key Identifier: 
                keyid:7F:D3:65:A7:C2:DD:EC:BB:F0:30:09:F3:43:39:FA:02:AF:33:31:33

    Signature Algorithm: sha1WithRSAEncryption
         56:22:e6:34:a4:c4:61:cb:48:b9:01:ad:56:a8:64:0f:d9:8c:
         91:c4:bb:cc:0c:e5:ad:7a:a0:22:7f:df:47:38:4a:2d:6c:d1:
         7f:71:1a:7c:ec:70:a9:b1:f0:4f:e4:0f:0c:53:fa:15:5e:fe:
         74:98:49:24:85:81:26:1c:91:14:47:b0:4c:63:8c:bb:a1:34:
         d4:c6:45:e8:0d:85:26:73:03:d0:a9:8c:64:6d:dc:71:92:e6:
         45:05:60:15:59:51:39:fc:58:14:6b:fe:d4:a4:ed:79:6b:08:
         0c:41:72:e7:37:22:06:09:be:23:e9:3f:44:9a:1e:e9:61:9d:
         cc:b1:90:5c:fc:3d:d2:8d:ac:42:3d:65:36:d4:b4:3d:40:28:
         8f:9b:10:cf:23:26:cc:4b:20:cb:90:1f:5d:8c:4c:34:ca:3c:
         d8:e5:37:d6:6f:a5:20:bd:34:eb:26:d9:ae:0d:e7:c5:9a:f7:
         a1:b4:21:91:33:6f:86:e8:58:bb:25:7c:74:0e:58:fe:75:1b:
         63:3f:ce:31:7c:9b:8f:1b:96:9e:c5:53:76:84:5b:9c:ad:91:
         fa:ac:ed:93:ba:5d:c8:21:53:c2:82:53:63:af:12:0d:50:87:
         11:1b:3d:54:52:96:8a:2c:9c:3d:92:1a:08:9a:05:2e:c7:93:
         a5:48:91:d3
-----BEGIN CERTIFICATE-----
MIIGCjCCBPKgAwIBAgIQUgDlqiVW/BqG7ZbJ1EszxzANBgkqhkiG9w0BAQUFADCB
yjELMAkGA1UEBhMCVVMxFzAVBgNVBAoTDlZlcmlTaWduLCBJbmMuMR8wHQYDVQQL
ExZWZXJpU2lnbiBUcnVzdCBOZXR3b3JrMTowOAYDVQQLEzEoYykgMjAwNiBWZXJp
U2lnbiwgSW5jLiAtIEZvciBhdXRob3JpemVkIHVzZSBvbmx5MUUwQwYDVQQDEzxW
ZXJpU2lnbiBDbGFzcyAzIFB1YmxpYyBQcmltYXJ5IENlcnRpZmljYXRpb24gQXV0
aG9yaXR5IC0gRzUwHhcNMTAwMjA4MDAwMDAwWhcNMjAwMjA3MjM1OTU5WjCBtDEL
MAkGA1UEBhMCVVMxFzAVBgNVBAoTDlZlcmlTaWduLCBJbmMuMR8wHQYDVQQLExZW
ZXJpU2lnbiBUcnVzdCBOZXR3b3JrMTswOQYDVQQLEzJUZXJtcyBvZiB1c2UgYXQg
aHR0cHM6Ly93d3cudmVyaXNpZ24uY29tL3JwYSAoYykxMDEuMCwGA1UEAxMlVmVy
aVNpZ24gQ2xhc3MgMyBDb2RlIFNpZ25pbmcgMjAxMCBDQTCCASIwDQYJKoZIhvcN
AQEBBQADggEPADCCAQoCggEBAPUjS16l14q7MunUV/fv5Mcmfq0ZmP6onX2U9jZr
ENd1gTB/BGh/yyt1Hs0dCIzfaZSnN6Oce4DgmeHuN01fzjsU7obU0PUnNbwlCzin
jGOdF6MIpauw+81qYoJM1SHaG9nx44Q7iipPhVuQAU/Jp3YQfycDfL6ufn3B3fkF
vBtInGnnwKQ8PEEAPt+W5cXklHHWVQHHACZKQDy1oSapDKdtgI6QJXvPvz8c6y+W
+uWHd8a1VrJ6O1QwUxvfYjT/HtH0WpMoheVMF05+W/2kk5l/383vpHXv7xX2R+f4
GXLYLjQaprSnTH69u08MPVfxMNamNo7WgHbXGS6lzX40LYkCAwEAAaOCAf4wggH6
MBIGA1UdEwEB/wQIMAYBAf8CAQAwcAYDVR0gBGkwZzBlBgtghkgBhvhFAQcXAzBW
MCgGCCsGAQUFBwIBFhxodHRwczovL3d3dy52ZXJpc2lnbi5jb20vY3BzMCoGCCsG
AQUFBwICMB4aHGh0dHBzOi8vd3d3LnZlcmlzaWduLmNvbS9ycGEwDgYDVR0PAQH/
BAQDAgEGMG0GCCsGAQUFBwEMBGEwX6FdoFswWTBXMFUWCWltYWdlL2dpZjAhMB8w
BwYFKw4DAhoEFI/l0xqGrI2Oa8PPgGrUSBgsexkuMCUWI2h0dHA6Ly9sb2dvLnZl
cmlzaWduLmNvbS92c2xvZ28uZ2lmMDQGA1UdHwQtMCswKaAnoCWGI2h0dHA6Ly9j
cmwudmVyaXNpZ24uY29tL3BjYTMtZzUuY3JsMDQGCCsGAQUFBwEBBCgwJjAkBggr
BgEFBQcwAYYYaHR0cDovL29jc3AudmVyaXNpZ24uY29tMB0GA1UdJQQWMBQGCCsG
AQUFBwMCBggrBgEFBQcDAzAoBgNVHREEITAfpB0wGzEZMBcGA1UEAxMQVmVyaVNp
Z25NUEtJLTItODAdBgNVHQ4EFgQUz5mp6nsm9EvJjo/X8AUm7+PSp50wHwYDVR0j
BBgwFoAUf9Nlp8Ld7LvwMAnzQzn6Aq8zMTMwDQYJKoZIhvcNAQEFBQADggEBAFYi
5jSkxGHLSLkBrVaoZA/ZjJHEu8wM5a16oCJ/30c4Si1s0X9xGnzscKmx8E/kDwxT
+hVe/nSYSSSFgSYckRRHsExjjLuhNNTGRegNhSZzA9CpjGRt3HGS5kUFYBVZUTn8
WBRr/tSk7XlrCAxBcuc3IgYJviPpP0SaHulhncyxkFz8PdKNrEI9ZTbUtD1AKI+b
EM8jJsxLIMuQH12MTDTKPNjlN9ZvpSC9NOsm2a4N58Wa96G0IZEzb4boWLslfHQO
WP51G2M/zjF8m48blp7FU3aEW5ytkfqs7ZO6XcghU8KCU2OvEg1QhxEbPVRSloos
nD2SGgiaBS7Hk6VIkdM=
-----END CERTIFICATE-----

