Certificate:
    Data:
        Version: 3 (0x2)
        Serial Number:
            28:e0:d4:ca:9d:b9:87:b3:47:0d:71:7c:2b:90:ed:0d
    Signature Algorithm: md5WithRSAEncryption
        Issuer: CN=GaGaKTV
        Validity
            Not Before: Dec 31 16:00:00 2011 GMT
            Not After : Dec 31 16:00:00 2019 GMT
        Subject: CN=GaGaKTV
        Subject Public Key Info:
            Public Key Algorithm: rsaEncryption
                Public-Key: (1024 bit)
                Modulus:
                    00:af:8b:ac:35:ec:af:d7:b8:bd:bd:3c:ef:53:84:
                    fd:35:7d:73:09:73:06:ae:38:97:9a:fb:84:ba:e8:
                    c3:e0:d5:19:76:1b:dd:6d:cc:2b:ad:0d:9c:83:86:
                    50:d7:e0:ff:b3:4b:2e:6c:43:31:20:89:35:67:1b:
                    88:6f:c3:52:c2:92:5e:49:54:fc:e9:54:50:2e:8b:
                    f4:e9:66:78:fd:d1:af:47:f7:7d:6d:41:77:86:8b:
                    50:89:01:b2:b4:9f:72:2b:38:e8:7b:0d:4b:17:5d:
                    a3:27:77:09:06:e8:9e:65:13:a0:31:0e:51:a5:22:
                    62:28:f6:04:95:f3:1d:93:b7
                Exponent: 65537 (0x10001)
        X509v3 extensions:
            2.5.29.1: 
                0:..l..i
V...k....)..0.1.0...U....GaGaKTV..(.......Gq|+..
    Signature Algorithm: md5WithRSAEncryption
         71:cb:8a:19:a7:23:0b:a5:b3:72:2b:b8:a6:89:ef:ec:64:8f:
         ce:89:c8:59:2b:ef:5d:73:38:ae:7d:e7:cc:b7:8b:54:e9:64:
         15:be:10:32:e0:69:42:5d:6c:93:3e:89:b6:d0:2e:e1:46:ad:
         e2:ca:8d:3b:98:89:33:a8:11:e0:6d:a8:59:f2:9d:34:3c:c0:
         b7:5f:eb:01:48:6c:6e:3b:00:04:5e:5a:98:6c:ca:27:00:29:
         3b:f8:40:8e:67:ce:c6:a5:03:c2:f6:c2:9c:ae:40:4e:f8:3d:
         66:62:77:88:a4:04:68:a5:73:45:d2:77:7f:53:52:9c:6d:fc:
         02:1b
-----BEGIN CERTIFICATE-----
MIIB8DCCAVmgAwIBAgIQKODUyp25h7NHDXF8K5DtDTANBgkqhkiG9w0BAQQFADAS
MRAwDgYDVQQDEwdHYUdhS1RWMB4XDTExMTIzMTE2MDAwMFoXDTE5MTIzMTE2MDAw
MFowEjEQMA4GA1UEAxMHR2FHYUtUVjCBnzANBgkqhkiG9w0BAQEFAAOBjQAwgYkC
gYEAr4usNeyv17i9vTzvU4T9NX1zCXMGrjiXmvuEuujD4NUZdhvdbcwrrQ2cg4ZQ
1+D/s0subEMxIIk1ZxuIb8NSwpJeSVT86VRQLov06WZ4/dGvR/d9bUF3hotQiQGy
tJ9yKzjoew1LF12jJ3cJBuieZROgMQ5RpSJiKPYElfMdk7cCAwEAAaNHMEUwQwYD
VR0BBDwwOoAQbLnCaQoNVtYQz2uE4huCKaEUMBIxEDAOBgNVBAMTB0dhR2FLVFaC
ECjg1MqduYezRw1xfCuQ7Q0wDQYJKoZIhvcNAQEEBQADgYEAccuKGacjC6Wzciu4
ponv7GSPzonIWSvvXXM4rn3nzLeLVOlkFb4QMuBpQl1skz6JttAu4Uat4sqNO5iJ
M6gR4G2oWfKdNDzAt1/rAUhsbjsABF5amGzKJwApO/hAjmfOxqUDwvbCnK5ATvg9
ZmJ3iKQEaKVzRdJ3f1NSnG38Ahs=
-----END CERTIFICATE-----

Certificate:
    Data:
        Version: 3 (0x2)
        Serial Number:
            d3:7a:a6:dd:b5:cc:32:da:00:00:00:00:4c:18:16:3e
    Signature Algorithm: sha1WithRSAEncryption
        Issuer: C=US, O=Entrust, Inc., OU=www.entrust.net/rpa is incorporated by reference, OU=(c) 2009 Entrust, Inc., CN=Entrust Code Signing Certification Authority - L1D
        Validity
            Not Before: Nov  9 16:27:20 2017 GMT
            Not After : Nov  9 16:57:20 2020 GMT
        Subject: C=CA, ST=Ontario, L=Ottawa, O=Entrust, Inc., CN=Entrust Time Stamping Authority
        Subject Public Key Info:
            Public Key Algorithm: rsaEncryption
                Public-Key: (2048 bit)
                Modulus:
                    00:c7:41:db:d9:8f:fe:23:b8:f7:ec:46:07:0c:cf:
                    c9:cf:68:45:91:9a:fc:e4:d0:67:80:c4:f6:a2:54:
                    46:65:0e:8b:34:97:b8:50:da:2b:0d:d9:aa:b9:3a:
                    de:4c:cd:e5:d1:b9:c9:bf:2a:0b:26:1f:6f:ed:b3:
                    68:b4:62:c6:d8:c5:9f:41:81:3e:bc:80:6e:bd:e5:
                    02:1c:ef:c4:98:01:6a:6e:e3:e5:5f:62:32:e0:f1:
                    6d:e1:9b:a7:12:db:2e:45:50:08:27:5a:38:ee:bd:
                    0c:24:eb:e4:9e:67:c1:85:c0:a8:ff:c8:e5:48:d5:
                    c9:fd:fc:ef:bb:b0:04:20:9a:ff:ef:7a:99:30:a2:
                    96:97:22:36:48:c4:6e:8f:15:c1:cf:98:63:87:6b:
                    af:0e:51:85:00:87:e5:9e:30:f2:16:ed:f5:02:d4:
                    ae:00:e7:d8:16:45:64:8e:6e:1f:59:60:71:3c:f8:
                    ff:15:fd:86:76:96:0b:b7:2a:b2:9a:c0:d0:19:76:
                    fd:0e:3d:29:54:d0:66:ed:93:7a:15:1b:ef:27:52:
                    d7:6f:62:8c:44:2f:5b:35:8b:2f:27:05:df:e3:ab:
                    27:26:37:49:0b:a1:84:06:75:8d:d4:36:b5:65:22:
                    a3:14:01:0d:16:97:82:b7:cb:7c:bc:25:83:0a:64:
                    39:67
                Exponent: 65537 (0x10001)
        X509v3 extensions:
            X509v3 Key Usage: critical
                Digital Signature
            X509v3 Extended Key Usage: critical
                Time Stamping
            X509v3 CRL Distribution Points: 

                Full Name:
                  URI:http://crl.entrust.net/level1d.crl

            Authority Information Access: 
                OCSP - URI:http://ocsp.entrust.net

            X509v3 Certificate Policies: 
                Policy: 2.16.840.1.114028.10.1.7
                  CPS: http://www.entrust.net/rpa

            X509v3 Authority Key Identifier: 
                keyid:A7:B1:AA:C4:B6:06:ED:DD:CA:9F:88:94:96:82:D5:E7:43:41:D1:25

            X509v3 Subject Key Identifier: 
                58:07:DB:59:70:DD:6B:8F:4A:9D:F4:1D:BB:02:93:8B:57:10:55:DD
            X509v3 Basic Constraints: 
                CA:FALSE
    Signature Algorithm: sha1WithRSAEncryption
         52:91:84:74:92:53:36:e7:f4:29:8d:2a:dd:cd:c0:bf:ff:4c:
         87:c7:2f:87:f8:de:af:0c:6a:0c:a4:9d:14:09:5b:c5:44:b9:
         69:61:8a:8a:6d:6d:ff:ed:03:5d:45:36:07:cc:d5:82:26:3c:
         a2:a9:8c:0a:86:fb:f5:98:3e:34:6e:16:2e:7c:01:bf:ec:c9:
         d6:a6:53:5e:a9:0f:f9:b7:94:7a:89:00:93:58:a6:18:2a:54:
         c7:4b:86:55:09:52:91:5b:b4:fb:b7:42:ad:12:a8:95:68:bb:
         c2:b9:fc:2a:6f:e0:f9:d1:a0:32:25:30:e3:6e:20:92:b5:11:
         b5:74:3c:f4:25:0a:f9:8e:c7:b0:06:cf:40:a5:0c:61:f7:d8:
         f3:06:26:5a:b5:02:ca:ba:ba:76:6e:ef:87:d3:31:53:ae:a0:
         51:9e:74:db:97:91:d3:0c:18:e0:4c:ab:84:77:8c:96:89:26:
         57:93:1c:37:e5:fe:fc:30:ca:61:1d:e5:f4:e1:89:76:72:c8:
         a4:b5:a3:04:5a:c5:e0:51:7f:04:71:70:d5:0b:4b:2a:5d:34:
         0a:46:11:a3:52:4b:44:bc:c5:22:5f:e2:84:dd:62:3c:34:df:
         29:9a:ec:5c:3c:83:7b:d8:92:da:39:6f:13:c2:8a:3f:8e:79:
         11:69:a0:70
-----BEGIN CERTIFICATE-----
MIIE4jCCA8qgAwIBAgIRANN6pt21zDLaAAAAAEwYFj4wDQYJKoZIhvcNAQEFBQAw
gb4xCzAJBgNVBAYTAlVTMRYwFAYDVQQKEw1FbnRydXN0LCBJbmMuMTkwNwYDVQQL
EzB3d3cuZW50cnVzdC5uZXQvcnBhIGlzIGluY29ycG9yYXRlZCBieSByZWZlcmVu
Y2UxHzAdBgNVBAsTFihjKSAyMDA5IEVudHJ1c3QsIEluYy4xOzA5BgNVBAMTMkVu
dHJ1c3QgQ29kZSBTaWduaW5nIENlcnRpZmljYXRpb24gQXV0aG9yaXR5IC0gTDFE
MB4XDTE3MTEwOTE2MjcyMFoXDTIwMTEwOTE2NTcyMFowcjELMAkGA1UEBhMCQ0Ex
EDAOBgNVBAgTB09udGFyaW8xDzANBgNVBAcTBk90dGF3YTEWMBQGA1UEChMNRW50
cnVzdCwgSW5jLjEoMCYGA1UEAxMfRW50cnVzdCBUaW1lIFN0YW1waW5nIEF1dGhv
cml0eTCCASIwDQYJKoZIhvcNAQEBBQADggEPADCCAQoCggEBAMdB29mP/iO49+xG
BwzPyc9oRZGa/OTQZ4DE9qJURmUOizSXuFDaKw3Zqrk63kzN5dG5yb8qCyYfb+2z
aLRixtjFn0GBPryAbr3lAhzvxJgBam7j5V9iMuDxbeGbpxLbLkVQCCdaOO69DCTr
5J5nwYXAqP/I5UjVyf3877uwBCCa/+96mTCilpciNkjEbo8Vwc+YY4drrw5RhQCH
5Z4w8hbt9QLUrgDn2BZFZI5uH1lgcTz4/xX9hnaWC7cqsprA0Bl2/Q49KVTQZu2T
ehUb7ydS129ijEQvWzWLLycF3+OrJyY3SQuhhAZ1jdQ2tWUioxQBDRaXgrfLfLwl
gwpkOWcCAwEAAaOCASQwggEgMA4GA1UdDwEB/wQEAwIHgDAWBgNVHSUBAf8EDDAK
BggrBgEFBQcDCDAzBgNVHR8ELDAqMCigJqAkhiJodHRwOi8vY3JsLmVudHJ1c3Qu
bmV0L2xldmVsMWQuY3JsMDMGCCsGAQUFBwEBBCcwJTAjBggrBgEFBQcwAYYXaHR0
cDovL29jc3AuZW50cnVzdC5uZXQwQQYDVR0gBDowODA2BgpghkgBhvpsCgEHMCgw
JgYIKwYBBQUHAgEWGmh0dHA6Ly93d3cuZW50cnVzdC5uZXQvcnBhMB8GA1UdIwQY
MBaAFKexqsS2Bu3dyp+IlJaC1edDQdElMB0GA1UdDgQWBBRYB9tZcN1rj0qd9B27
ApOLVxBV3TAJBgNVHRMEAjAAMA0GCSqGSIb3DQEBBQUAA4IBAQBSkYR0klM25/Qp
jSrdzcC//0yHxy+H+N6vDGoMpJ0UCVvFRLlpYYqKbW3/7QNdRTYHzNWCJjyiqYwK
hvv1mD40bhYufAG/7MnWplNeqQ/5t5R6iQCTWKYYKlTHS4ZVCVKRW7T7t0KtEqiV
aLvCufwqb+D50aAyJTDjbiCStRG1dDz0JQr5jsewBs9ApQxh99jzBiZatQLKurp2
bu+H0zFTrqBRnnTbl5HTDBjgTKuEd4yWiSZXkxw35f78MMphHeX04Yl2csiktaME
WsXgUX8EcXDVC0sqXTQKRhGjUktEvMUiX+KE3WI8NN8pmuxcPIN72JLaOW8Twoo/
jnkRaaBw
-----END CERTIFICATE-----

Certificate:
    Data:
        Version: 3 (0x2)
        Serial Number: 946070242 (0x3863e2e2)
    Signature Algorithm: sha1WithRSAEncryption
        Issuer: O=Entrust.net, OU=www.entrust.net/CPS_2048 incorp. by ref. (limits liab.), OU=(c) 1999 Entrust.net Limited, CN=Entrust.net Certification Authority (2048)
        Validity
            Not Before: Sep 10 21:59:57 2009 GMT
            Not After : Sep 10 22:29:57 2019 GMT
        Subject: C=US, O=Entrust, Inc., OU=www.entrust.net/rpa is incorporated by reference, OU=(c) 2009 Entrust, Inc., CN=Entrust Code Signing Certification Authority - L1D
        Subject Public Key Info:
            Public Key Algorithm: rsaEncryption
                Public-Key: (2048 bit)
                Modulus:
                    00:e5:0c:cd:bb:27:c1:16:e0:0f:e3:2f:a5:24:ee:
                    1b:71:d2:5a:c1:61:54:e5:25:94:55:04:78:24:45:
                    40:81:37:84:c9:d4:a6:b7:0d:4c:12:fb:77:4e:68:
                    8f:04:f5:db:b3:7c:1c:ab:ac:14:cf:f6:ac:4c:a6:
                    72:7a:2a:6c:ff:fa:90:b5:0d:ee:2c:9a:2d:86:2c:
                    50:02:1b:e4:42:64:33:c6:e7:59:90:ad:00:a3:f0:
                    49:65:a2:c3:5a:73:96:75:b5:ec:f9:2d:e6:97:3a:
                    bc:13:39:82:71:36:0b:4e:10:0a:0b:fb:34:ab:3f:
                    3c:73:cd:6f:4c:a4:93:31:53:be:61:94:77:6e:a5:
                    f1:72:77:1e:65:4d:d1:d6:52:4c:dd:93:6d:96:58:
                    c6:c7:5b:f3:e8:f8:5a:bf:68:d1:28:ef:61:72:d9:
                    1e:6a:01:ab:bc:9d:83:4c:d3:b0:3b:06:ba:b7:ec:
                    95:86:04:51:8b:78:c1:91:c2:aa:6e:3d:be:fa:ec:
                    66:7d:3c:3c:1b:99:e6:2a:bd:40:29:27:19:f7:7d:
                    67:4d:1f:f1:d3:a3:93:c8:1d:c9:fc:ec:ca:1f:f7:
                    5c:70:d8:f1:5c:06:d4:63:ac:f0:b3:33:0c:7f:83:
                    e4:91:86:a5:9f:14:1a:08:79:e5:76:02:8e:09:79:
                    ae:39
                Exponent: 65537 (0x10001)
        X509v3 extensions:
            X509v3 Key Usage: critical
                Certificate Sign, CRL Sign
            X509v3 Basic Constraints: critical
                CA:TRUE
            Authority Information Access: 
                OCSP - URI:http://ocsp.entrust.net

            X509v3 CRL Distribution Points: 

                Full Name:
                  URI:http://crl.entrust.net/2048ca.crl

            X509v3 Certificate Policies: 
                Policy: X509v3 Any Policy
                  CPS: http://www.entrust.net/rpa

            X509v3 Subject Key Identifier: 
                A7:B1:AA:C4:B6:06:ED:DD:CA:9F:88:94:96:82:D5:E7:43:41:D1:25
            X509v3 Authority Key Identifier: 
                keyid:55:E4:81:D1:11:80:BE:D8:89:B9:08:A3:31:F9:A1:24:09:16:B9:70

    Signature Algorithm: sha1WithRSAEncryption
         50:29:87:0f:13:8c:b1:c5:82:f2:ea:16:ca:51:a0:c5:8b:c1:
         cb:88:2d:11:0f:e2:10:18:3a:ea:61:c3:20:0f:fe:ee:b8:39:
         43:c8:ec:fd:ea:c1:6d:c9:03:ff:e8:2c:2c:90:a1:a6:ce:66:
         db:60:a5:21:64:8c:cd:fc:b1:5a:69:db:36:7d:1c:da:f1:2e:
         93:c1:2a:e7:ad:38:e8:f2:02:fe:ba:67:4a:15:8b:0d:ff:65:
         a3:a9:f8:a6:e9:05:ab:be:d7:73:ca:bd:c7:a2:b0:8a:50:e0:
         30:c3:99:70:57:1d:7c:04:50:19:e5:c3:a9:b5:4d:59:65:09:
         1b:98:02:9b:81:e3:96:7c:63:5b:3f:d3:f2:6b:21:86:d6:1d:
         66:a2:07:f7:13:a8:09:97:7e:bd:ff:68:68:b1:85:02:2f:90:
         95:80:b8:7b:78:26:66:cf:f7:88:0b:65:ae:14:9a:07:84:ae:
         77:30:17:eb:95:25:d3:48:d8:d8:47:c9:36:41:bd:18:51:8b:
         4e:bc:79:82:9f:80:b0:79:0e:e0:a5:a8:f7:4a:dc:43:56:6c:
         c4:c9:e4:25:52:e6:ba:9b:41:b4:90:bc:8b:ee:b4:48:0c:0d:
         48:af:79:f4:88:d0:96:c6:d5:01:e8:ad:ad:03:e7:02:3a:98:
         63:33:b9:dd
-----BEGIN CERTIFICATE-----
MIIE/zCCA+egAwIBAgIEOGPi4jANBgkqhkiG9w0BAQUFADCBtDEUMBIGA1UEChML
RW50cnVzdC5uZXQxQDA+BgNVBAsUN3d3dy5lbnRydXN0Lm5ldC9DUFNfMjA0OCBp
bmNvcnAuIGJ5IHJlZi4gKGxpbWl0cyBsaWFiLikxJTAjBgNVBAsTHChjKSAxOTk5
IEVudHJ1c3QubmV0IExpbWl0ZWQxMzAxBgNVBAMTKkVudHJ1c3QubmV0IENlcnRp
ZmljYXRpb24gQXV0aG9yaXR5ICgyMDQ4KTAeFw0wOTA5MTAyMTU5NTdaFw0xOTA5
MTAyMjI5NTdaMIG+MQswCQYDVQQGEwJVUzEWMBQGA1UEChMNRW50cnVzdCwgSW5j
LjE5MDcGA1UECxMwd3d3LmVudHJ1c3QubmV0L3JwYSBpcyBpbmNvcnBvcmF0ZWQg
YnkgcmVmZXJlbmNlMR8wHQYDVQQLExYoYykgMjAwOSBFbnRydXN0LCBJbmMuMTsw
OQYDVQQDEzJFbnRydXN0IENvZGUgU2lnbmluZyBDZXJ0aWZpY2F0aW9uIEF1dGhv
cml0eSAtIEwxRDCCASIwDQYJKoZIhvcNAQEBBQADggEPADCCAQoCggEBAOUMzbsn
wRbgD+MvpSTuG3HSWsFhVOUllFUEeCRFQIE3hMnUprcNTBL7d05ojwT127N8HKus
FM/2rEymcnoqbP/6kLUN7iyaLYYsUAIb5EJkM8bnWZCtAKPwSWWiw1pzlnW17Pkt
5pc6vBM5gnE2C04QCgv7NKs/PHPNb0ykkzFTvmGUd26l8XJ3HmVN0dZSTN2TbZZY
xsdb8+j4Wr9o0SjvYXLZHmoBq7ydg0zTsDsGurfslYYEUYt4wZHCqm49vvrsZn08
PBuZ5iq9QCknGfd9Z00f8dOjk8gdyfzsyh/3XHDY8VwG1GOs8LMzDH+D5JGGpZ8U
Ggh55XYCjgl5rjkCAwEAAaOCAQswggEHMA4GA1UdDwEB/wQEAwIBBjAPBgNVHRMB
Af8EBTADAQH/MDMGCCsGAQUFBwEBBCcwJTAjBggrBgEFBQcwAYYXaHR0cDovL29j
c3AuZW50cnVzdC5uZXQwMgYDVR0fBCswKTAnoCWgI4YhaHR0cDovL2NybC5lbnRy
dXN0Lm5ldC8yMDQ4Y2EuY3JsMDsGA1UdIAQ0MDIwMAYEVR0gADAoMCYGCCsGAQUF
BwIBFhpodHRwOi8vd3d3LmVudHJ1c3QubmV0L3JwYTAdBgNVHQ4EFgQUp7GqxLYG
7d3Kn4iUloLV50NB0SUwHwYDVR0jBBgwFoAUVeSB0RGAvtiJuQijMfmhJAkWuXAw
DQYJKoZIhvcNAQEFBQADggEBAFAphw8TjLHFgvLqFspRoMWLwcuILREP4hAYOuph
wyAP/u64OUPI7P3qwW3JA//oLCyQoabOZttgpSFkjM38sVpp2zZ9HNrxLpPBKuet
OOjyAv66Z0oViw3/ZaOp+KbpBau+13PKvceisIpQ4DDDmXBXHXwEUBnlw6m1TVll
CRuYApuB45Z8Y1s/0/JrIYbWHWaiB/cTqAmXfr3/aGixhQIvkJWAuHt4JmbP94gL
Za4UmgeErncwF+uVJdNI2NhHyTZBvRhRi068eYKfgLB5DuClqPdK3ENWbMTJ5CVS
5rqbQbSQvIvutEgMDUivefSI0JbG1QHora0D5wI6mGMzud0=
-----END CERTIFICATE-----

