Certificate:
    Data:
        Version: 3 (0x2)
        Serial Number:
            48:1b:6a:07:26:d2:e8:3f:26:02:d4:82:5a:cd
    Signature Algorithm: sha256WithRSAEncryption
        Issuer: OU=GlobalSign Root CA - R3, O=GlobalSign, CN=GlobalSign
        Validity
            Not Before: Jun 15 00:00:00 2016 GMT
            Not After : Jun 15 00:00:00 2024 GMT
        Subject: C=BE, O=GlobalSign nv-sa, CN=GlobalSign CodeSigning CA - SHA256 - G3
        Subject Public Key Info:
            Public Key Algorithm: rsaEncryption
                Public-Key: (2048 bit)
                Modulus:
                    00:8d:85:55:23:a9:1f:53:af:c9:ed:36:c2:29:b5:
                    6e:d8:f9:42:f5:21:8b:87:f0:43:a1:2f:c0:3f:97:
                    e3:18:47:d4:96:4e:88:ab:c6:63:e9:b6:49:15:85:
                    f1:d9:9b:7b:1b:fd:d8:4a:cc:6d:4e:86:40:17:cd:
                    7b:ba:47:28:b5:d6:14:40:0c:86:ee:1e:4b:33:f3:
                    2c:55:ee:21:8c:da:b6:c1:fe:b0:4e:3a:ae:51:9f:
                    a5:14:e3:10:e6:93:ca:fa:f9:5d:b1:90:87:ef:f8:
                    35:2d:fc:a2:5c:26:ee:7b:15:8b:1f:d9:c3:a1:97:
                    35:41:b3:30:fd:72:13:ad:91:97:3a:ce:72:9d:06:
                    0a:75:3c:1f:98:e3:cb:18:2f:8c:9f:08:4a:91:0a:
                    d9:d9:35:d9:83:92:76:62:5e:df:83:ae:e4:d6:01:
                    4e:cc:f3:3c:70:61:58:37:1f:14:e3:6a:a0:af:6b:
                    f4:d9:d2:6c:2c:19:30:5d:a0:6f:52:df:d1:9c:c9:
                    e0:0d:d9:75:11:65:96:d9:43:b4:a7:90:39:ae:47:
                    1c:54:cb:b1:95:6e:25:de:8e:f1:12:1c:f0:d7:6e:
                    e7:14:4d:b3:1a:65:d6:84:4a:57:ee:04:af:62:38:
                    c5:10:9b:43:8e:52:b8:3e:b6:ae:9e:2c:97:ff:8e:
                    74:ef
                Exponent: 65537 (0x10001)
        X509v3 extensions:
            X509v3 Key Usage: critical
                Certificate Sign, CRL Sign
            X509v3 Extended Key Usage: 
                Code Signing, OCSP Signing
            X509v3 Basic Constraints: critical
                CA:TRUE, pathlen:0
            X509v3 Subject Key Identifier: 
                0F:3A:E7:AC:94:91:74:2D:96:02:73:83:AD:9C:2E:49:3F:19:AA:54
            X509v3 Authority Key Identifier: 
                keyid:8F:F0:4B:7F:A8:2E:45:24:AE:4D:50:FA:63:9A:8B:DE:E2:DD:1B:BC

            Authority Information Access: 
                OCSP - URI:http://ocsp2.globalsign.com/rootr3

            X509v3 CRL Distribution Points: 

                Full Name:
                  URI:http://crl.globalsign.com/root-r3.crl

            X509v3 Certificate Policies: 
                Policy: 1.3.6.1.4.1.4146.1.50
                Policy: 2.23.140.1.4.1
                Policy: 1.3.6.1.4.1.4146.1.95
                  CPS: https://www.globalsign.com/repository/

    Signature Algorithm: sha256WithRSAEncryption
         15:84:28:0c:ed:a1:c3:19:82:db:63:27:41:d7:cc:63:7d:d6:
         bc:cf:36:9b:cf:d2:5d:4c:02:8b:58:1a:16:08:7a:b1:98:99:
         7f:d8:33:8a:5c:9e:62:0a:9a:ea:90:c2:c5:63:04:0b:e8:87:
         58:06:00:07:82:59:c3:a8:94:32:d9:e0:14:4d:a0:d5:23:e0:
         c7:dd:ba:f0:69:e2:4a:45:65:2d:4d:49:90:78:66:32:0e:b0:
         68:c0:b0:88:b0:8e:ed:5c:06:f8:5c:10:48:3f:23:73:ba:3b:
         53:84:52:80:cd:f0:b3:15:c8:11:0a:8b:05:78:46:59:08:d4:
         be:b7:ff:4b:f5:9c:6a:4c:9c:76:a2:11:85:45:8c:d4:37:ee:
         50:dd:e1:33:34:a9:a1:1f:3a:0b:f1:56:44:8a:6f:b3:33:d0:
         b1:8e:d1:0c:60:07:ee:32:c2:f0:24:6f:bf:af:fb:81:01:76:
         67:c4:a3:e8:e0:ab:dc:33:55:28:e3:67:47:3c:eb:6a:a4:df:
         94:e9:f4:a6:c0:81:d1:52:98:51:a6:d6:02:b7:3c:ea:4a:ef:
         d0:ba:65:d2:37:83:53:4b:7e:67:7c:8c:40:f6:07:1c:b0:af:
         04:06:dc:f8:6c:46:88:72:9c:eb:4e:9d:c3:b0:b9:54:a3:b9:
         4e:97:ca:14
-----BEGIN CERTIFICATE-----
MIIElDCCA3ygAwIBAgIOSBtqBybS6D8mAtSCWs0wDQYJKoZIhvcNAQELBQAwTDEg
MB4GA1UECxMXR2xvYmFsU2lnbiBSb290IENBIC0gUjMxEzARBgNVBAoTCkdsb2Jh
bFNpZ24xEzARBgNVBAMTCkdsb2JhbFNpZ24wHhcNMTYwNjE1MDAwMDAwWhcNMjQw
NjE1MDAwMDAwWjBaMQswCQYDVQQGEwJCRTEZMBcGA1UEChMQR2xvYmFsU2lnbiBu
di1zYTEwMC4GA1UEAxMnR2xvYmFsU2lnbiBDb2RlU2lnbmluZyBDQSAtIFNIQTI1
NiAtIEczMIIBIjANBgkqhkiG9w0BAQEFAAOCAQ8AMIIBCgKCAQEAjYVVI6kfU6/J
7TbCKbVu2PlC9SGLh/BDoS/AP5fjGEfUlk6Iq8Zj6bZJFYXx2Zt7G/3YSsxtToZA
F817ukcotdYUQAyG7h5LM/MsVe4hjNq2wf6wTjquUZ+lFOMQ5pPK+vldsZCH7/g1
LfyiXCbuexWLH9nDoZc1QbMw/XITrZGXOs5ynQYKdTwfmOPLGC+MnwhKkQrZ2TXZ
g5J2Yl7fg67k1gFOzPM8cGFYNx8U42qgr2v02dJsLBkwXaBvUt/RnMngDdl1EWWW
2UO0p5A5rkccVMuxlW4l3o7xEhzw127nFE2zGmXWhEpX7gSvYjjFEJtDjlK4Prau
niyX/4507wIDAQABo4IBZDCCAWAwDgYDVR0PAQH/BAQDAgEGMB0GA1UdJQQWMBQG
CCsGAQUFBwMDBggrBgEFBQcDCTASBgNVHRMBAf8ECDAGAQH/AgEAMB0GA1UdDgQW
BBQPOueslJF0LZYCc4OtnC5JPxmqVDAfBgNVHSMEGDAWgBSP8Et/qC5FJK5NUPpj
move4t0bvDA+BggrBgEFBQcBAQQyMDAwLgYIKwYBBQUHMAGGImh0dHA6Ly9vY3Nw
Mi5nbG9iYWxzaWduLmNvbS9yb290cjMwNgYDVR0fBC8wLTAroCmgJ4YlaHR0cDov
L2NybC5nbG9iYWxzaWduLmNvbS9yb290LXIzLmNybDBjBgNVHSAEXDBaMAsGCSsG
AQQBoDIBMjAIBgZngQwBBAEwQQYJKwYBBAGgMgFfMDQwMgYIKwYBBQUHAgEWJmh0
dHBzOi8vd3d3Lmdsb2JhbHNpZ24uY29tL3JlcG9zaXRvcnkvMA0GCSqGSIb3DQEB
CwUAA4IBAQAVhCgM7aHDGYLbYydB18xjfda8zzabz9JdTAKLWBoWCHqxmJl/2DOK
XJ5iCprqkMLFYwQL6IdYBgAHglnDqJQy2eAUTaDVI+DH3brwaeJKRWUtTUmQeGYy
DrBowLCIsI7tXAb4XBBIPyNzujtThFKAzfCzFcgRCosFeEZZCNS+t/9L9ZxqTJx2
ohGFRYzUN+5Q3eEzNKmhHzoL8VZEim+zM9CxjtEMYAfuMsLwJG+/r/uBAXZnxKPo
4KvcM1Uo42dHPOtqpN+U6fSmwIHRUphRptYCtzzqSu/QumXSN4NTS35nfIxA9gcc
sK8EBtz4bEaIcpzrTp3DsLlUo7lOl8oU
-----END CERTIFICATE-----

Certificate:
    Data:
        Version: 3 (0x2)
        Serial Number:
            44:49:84:eb:75:6c:a9:ca:a0:a8:2f:c3
    Signature Algorithm: sha256WithRSAEncryption
        Issuer: C=BE, O=GlobalSign nv-sa, CN=GlobalSign CodeSigning CA - SHA256 - G3
        Validity
            Not Before: May 26 17:33:59 2017 GMT
            Not After : Jul 16 19:34:24 2018 GMT
        Subject: C=US, ST=Nevada, L=Incline Village, O=Architecture Software, CN=Architecture Software
        Subject Public Key Info:
            Public Key Algorithm: rsaEncryption
                Public-Key: (2048 bit)
                Modulus:
                    00:8f:41:6f:83:28:c0:97:76:09:8e:22:81:05:35:
                    9e:22:0c:c5:69:48:48:1a:13:e7:63:a3:78:eb:56:
                    22:c3:f6:d5:ea:57:bd:09:4f:32:74:40:4d:4c:70:
                    ea:0b:11:a9:7f:8f:46:a5:df:19:14:60:f1:54:fa:
                    1a:16:2e:e3:db:04:79:c7:0d:6f:ed:f5:70:f6:5b:
                    b2:b4:3e:a8:c2:e1:0c:4b:63:f2:cf:b9:e0:40:7e:
                    3d:b1:80:5a:00:1a:31:a4:5d:5a:75:96:08:90:37:
                    bd:38:ad:44:64:08:a0:2c:da:d7:dd:14:ad:0b:11:
                    7b:bc:ba:b4:66:53:76:f4:0a:8e:7a:78:96:26:0d:
                    d6:fb:53:e2:66:21:63:b1:71:e3:a4:cc:8e:03:78:
                    12:c5:77:46:a4:c4:81:0d:ee:43:24:65:e2:58:a1:
                    ce:a1:21:81:5f:87:83:4c:3b:44:ad:86:78:3e:af:
                    0f:a6:29:18:2a:f9:c8:63:a0:d2:c1:7f:e4:ef:3f:
                    33:b8:80:74:5e:fd:a7:b1:f1:2a:1f:cd:6b:d0:16:
                    c7:fd:b1:1c:18:43:65:36:db:a9:46:9e:f9:c6:ff:
                    5d:29:82:eb:b5:7b:2b:55:1a:de:62:37:44:02:d0:
                    db:8f:a1:68:5c:8a:8f:76:04:a9:02:c9:73:5d:54:
                    a2:2d
                Exponent: 65537 (0x10001)
        X509v3 extensions:
            X509v3 Key Usage: critical
                Digital Signature
            Authority Information Access: 
                CA Issuers - URI:http://secure.globalsign.com/cacert/gscodesignsha2g3ocsp.crt
                OCSP - URI:http://ocsp2.globalsign.com/gscodesignsha2g3

            X509v3 Certificate Policies: 
                Policy: 1.3.6.1.4.1.4146.1.50
                  CPS: https://www.globalsign.com/repository/
                Policy: 2.23.140.1.4.1

            X509v3 Basic Constraints: 
                CA:FALSE
            X509v3 CRL Distribution Points: 

                Full Name:
                  URI:http://crl.globalsign.com/gscodesignsha2g3.crl

            X509v3 Extended Key Usage: 
                Code Signing
            X509v3 Subject Key Identifier: 
                CA:2C:38:08:02:1A:8E:D8:CA:62:71:21:4F:5D:F1:FD:F1:9B:1A:3D
            X509v3 Authority Key Identifier: 
                keyid:0F:3A:E7:AC:94:91:74:2D:96:02:73:83:AD:9C:2E:49:3F:19:AA:54

    Signature Algorithm: sha256WithRSAEncryption
         86:23:7d:24:72:e1:f3:7d:f4:e1:c7:79:bd:5c:a7:4c:98:b4:
         33:ce:77:93:cc:80:97:f1:59:98:b9:3d:cb:34:df:43:a8:75:
         88:74:16:3b:b1:4a:68:76:60:e7:8f:7d:48:52:dc:24:01:4d:
         f5:50:bd:22:4e:63:4f:40:a2:45:72:01:58:d7:83:cd:5b:57:
         fa:59:4f:8e:9f:ac:05:58:99:e9:99:88:d2:5a:d6:ff:b5:35:
         03:9e:ac:c1:7a:95:3c:5e:89:cb:e9:9d:78:64:ab:de:9d:03:
         ed:26:0f:03:f4:5a:71:95:f3:98:bd:b3:d8:84:7e:44:41:88:
         8f:81:0a:4d:15:e9:65:22:6a:ff:09:62:41:43:ba:e9:60:0c:
         b8:4f:0e:48:b7:3f:20:0a:c7:bb:f4:38:8c:ca:ef:8e:cd:91:
         f5:cf:50:37:7a:27:fb:23:4a:14:85:49:f7:6b:bc:86:21:d4:
         2e:03:ce:df:38:8e:dd:bd:7a:6d:85:df:86:fd:67:f7:8d:11:
         40:24:8c:2f:e2:a1:e5:60:9e:e2:be:02:49:72:18:94:a4:0f:
         9f:14:59:c4:27:e7:12:73:22:13:c6:1c:46:1a:78:e4:8b:ca:
         e2:57:0b:93:45:84:41:38:3e:68:44:ef:14:b0:d9:5e:b7:94:
         b9:6b:49:7d
-----BEGIN CERTIFICATE-----
MIIE/jCCA+agAwIBAgIMREmE63VsqcqgqC/DMA0GCSqGSIb3DQEBCwUAMFoxCzAJ
BgNVBAYTAkJFMRkwFwYDVQQKExBHbG9iYWxTaWduIG52LXNhMTAwLgYDVQQDEydH
bG9iYWxTaWduIENvZGVTaWduaW5nIENBIC0gU0hBMjU2IC0gRzMwHhcNMTcwNTI2
MTczMzU5WhcNMTgwNzE2MTkzNDI0WjB4MQswCQYDVQQGEwJVUzEPMA0GA1UECBMG
TmV2YWRhMRgwFgYDVQQHEw9JbmNsaW5lIFZpbGxhZ2UxHjAcBgNVBAoTFUFyY2hp
dGVjdHVyZSBTb2Z0d2FyZTEeMBwGA1UEAxMVQXJjaGl0ZWN0dXJlIFNvZnR3YXJl
MIIBIjANBgkqhkiG9w0BAQEFAAOCAQ8AMIIBCgKCAQEAj0FvgyjAl3YJjiKBBTWe
IgzFaUhIGhPnY6N461Yiw/bV6le9CU8ydEBNTHDqCxGpf49Gpd8ZFGDxVPoaFi7j
2wR5xw1v7fVw9luytD6owuEMS2Pyz7ngQH49sYBaABoxpF1adZYIkDe9OK1EZAig
LNrX3RStCxF7vLq0ZlN29AqOeniWJg3W+1PiZiFjsXHjpMyOA3gSxXdGpMSBDe5D
JGXiWKHOoSGBX4eDTDtErYZ4Pq8PpikYKvnIY6DSwX/k7z8zuIB0Xv2nsfEqH81r
0BbH/bEcGENlNtupRp75xv9dKYLrtXsrVRreYjdEAtDbj6FoXIqPdgSpAslzXVSi
LQIDAQABo4IBpDCCAaAwDgYDVR0PAQH/BAQDAgeAMIGUBggrBgEFBQcBAQSBhzCB
hDBIBggrBgEFBQcwAoY8aHR0cDovL3NlY3VyZS5nbG9iYWxzaWduLmNvbS9jYWNl
cnQvZ3Njb2Rlc2lnbnNoYTJnM29jc3AuY3J0MDgGCCsGAQUFBzABhixodHRwOi8v
b2NzcDIuZ2xvYmFsc2lnbi5jb20vZ3Njb2Rlc2lnbnNoYTJnMzBWBgNVHSAETzBN
MEEGCSsGAQQBoDIBMjA0MDIGCCsGAQUFBwIBFiZodHRwczovL3d3dy5nbG9iYWxz
aWduLmNvbS9yZXBvc2l0b3J5LzAIBgZngQwBBAEwCQYDVR0TBAIwADA/BgNVHR8E
ODA2MDSgMqAwhi5odHRwOi8vY3JsLmdsb2JhbHNpZ24uY29tL2dzY29kZXNpZ25z
aGEyZzMuY3JsMBMGA1UdJQQMMAoGCCsGAQUFBwMDMB0GA1UdDgQWBBTKLDgIAhqO
2MpicSFPXfH98ZsaPTAfBgNVHSMEGDAWgBQPOueslJF0LZYCc4OtnC5JPxmqVDAN
BgkqhkiG9w0BAQsFAAOCAQEAhiN9JHLh83304cd5vVynTJi0M853k8yAl/FZmLk9
yzTfQ6h1iHQWO7FKaHZg5499SFLcJAFN9VC9Ik5jT0CiRXIBWNeDzVtX+llPjp+s
BViZ6ZmI0lrW/7U1A56swXqVPF6Jy+mdeGSr3p0D7SYPA/RacZXzmL2z2IR+REGI
j4EKTRXpZSJq/wliQUO66WAMuE8OSLc/IArHu/Q4jMrvjs2R9c9QN3on+yNKFIVJ
92u8hiHULgPO3ziO3b16bYXfhv1n940RQCSML+Kh5WCe4r4CSXIYlKQPnxRZxCfn
EnMiE8YcRhp45IvK4lcLk0WEQTg+aETvFLDZXreUuWtJfQ==
-----END CERTIFICATE-----

