Certificate:
    Data:
        Version: 3 (0x2)
        Serial Number: 1828629 (0x1be715)
    Signature Algorithm: sha256WithRSAEncryption
        Issuer: C=US, O=The Go Daddy Group, Inc., OU=Go Daddy Class 2 Certification Authority
        Validity
            Not Before: Jan  1 07:00:00 2014 GMT
            Not After : May 30 07:00:00 2031 GMT
        Subject: C=US, ST=Arizona, L=Scottsdale, O=GoDaddy.com, Inc., CN=Go Daddy Root Certificate Authority - G2
        Subject Public Key Info:
            Public Key Algorithm: rsaEncryption
                Public-Key: (2048 bit)
                Modulus:
                    00:bf:71:62:08:f1:fa:59:34:f7:1b:c9:18:a3:f7:
                    80:49:58:e9:22:83:13:a6:c5:20:43:01:3b:84:f1:
                    e6:85:49:9f:27:ea:f6:84:1b:4e:a0:b4:db:70:98:
                    c7:32:01:b1:05:3e:07:4e:ee:f4:fa:4f:2f:59:30:
                    22:e7:ab:19:56:6b:e2:80:07:fc:f3:16:75:80:39:
                    51:7b:e5:f9:35:b6:74:4e:a9:8d:82:13:e4:b6:3f:
                    a9:03:83:fa:a2:be:8a:15:6a:7f:de:0b:c3:b6:19:
                    14:05:ca:ea:c3:a8:04:94:3b:46:7c:32:0d:f3:00:
                    66:22:c8:8d:69:6d:36:8c:11:18:b7:d3:b2:1c:60:
                    b4:38:fa:02:8c:ce:d3:dd:46:07:de:0a:3e:eb:5d:
                    7c:c8:7c:fb:b0:2b:53:a4:92:62:69:51:25:05:61:
                    1a:44:81:8c:2c:a9:43:96:23:df:ac:3a:81:9a:0e:
                    29:c5:1c:a9:e9:5d:1e:b6:9e:9e:30:0a:39:ce:f1:
                    88:80:fb:4b:5d:cc:32:ec:85:62:43:25:34:02:56:
                    27:01:91:b4:3b:70:2a:3f:6e:b1:e8:9c:88:01:7d:
                    9f:d4:f9:db:53:6d:60:9d:bf:2c:e7:58:ab:b8:5f:
                    46:fc:ce:c4:1b:03:3c:09:eb:49:31:5c:69:46:b3:
                    e0:47
                Exponent: 65537 (0x10001)
        X509v3 extensions:
            X509v3 Basic Constraints: critical
                CA:TRUE
            X509v3 Key Usage: critical
                Certificate Sign, CRL Sign
            X509v3 Subject Key Identifier: 
                3A:9A:85:07:10:67:28:B6:EF:F6:BD:05:41:6E:20:C1:94:DA:0F:DE
            X509v3 Authority Key Identifier: 
                keyid:D2:C4:B0:D2:91:D4:4C:11:71:B3:61:CB:3D:A1:FE:DD:A8:6A:D4:E3

            Authority Information Access: 
                OCSP - URI:http://ocsp.godaddy.com/

            X509v3 CRL Distribution Points: 

                Full Name:
                  URI:http://crl.godaddy.com/gdroot.crl

            X509v3 Certificate Policies: 
                Policy: X509v3 Any Policy
                  CPS: https://certs.godaddy.com/repository/

    Signature Algorithm: sha256WithRSAEncryption
         59:0b:53:bd:92:86:11:a7:24:7b:ed:5b:31:cf:1d:1f:6c:70:
         c5:b8:6e:be:4e:bb:f6:be:97:50:e1:30:7f:ba:28:5c:62:94:
         c2:e3:7e:33:f7:fb:42:76:85:db:95:1c:8c:22:58:75:09:0c:
         88:65:67:39:0a:16:09:c5:a0:38:97:a4:c5:23:93:3f:b4:18:
         a6:01:06:44:91:e3:a7:69:27:b4:5a:25:7f:3a:b7:32:cd:dd:
         84:ff:2a:38:29:33:a4:dd:67:b2:85:fe:a1:88:20:1c:50:89:
         c8:dc:2a:f6:42:03:37:4c:e6:88:df:d5:af:24:f2:b1:c3:df:
         cc:b5:ec:e0:99:5e:b7:49:54:20:3c:94:18:0c:c7:1c:52:18:
         49:a4:6d:e1:b3:58:0b:c9:d8:ec:d9:ae:1c:32:8e:28:70:0d:
         e2:fe:a6:17:9e:84:0f:bd:57:70:b3:5a:e9:1f:a0:86:53:bb:
         ef:7c:ff:69:0b:e0:48:c3:b7:93:0b:c8:0a:54:c4:ac:5d:14:
         67:37:6c:ca:a5:2f:31:08:37:aa:6e:6f:8c:bc:9b:e2:57:5d:
         24:81:af:97:97:9c:84:ad:6c:ac:37:4c:66:f3:61:91:11:20:
         e4:be:30:9f:7a:a4:29:09:b0:e1:34:5f:64:77:18:40:51:df:
         8c:30:a6:af
-----BEGIN CERTIFICATE-----
MIIEfTCCA2WgAwIBAgIDG+cVMA0GCSqGSIb3DQEBCwUAMGMxCzAJBgNVBAYTAlVT
MSEwHwYDVQQKExhUaGUgR28gRGFkZHkgR3JvdXAsIEluYy4xMTAvBgNVBAsTKEdv
IERhZGR5IENsYXNzIDIgQ2VydGlmaWNhdGlvbiBBdXRob3JpdHkwHhcNMTQwMTAx
MDcwMDAwWhcNMzEwNTMwMDcwMDAwWjCBgzELMAkGA1UEBhMCVVMxEDAOBgNVBAgT
B0FyaXpvbmExEzARBgNVBAcTClNjb3R0c2RhbGUxGjAYBgNVBAoTEUdvRGFkZHku
Y29tLCBJbmMuMTEwLwYDVQQDEyhHbyBEYWRkeSBSb290IENlcnRpZmljYXRlIEF1
dGhvcml0eSAtIEcyMIIBIjANBgkqhkiG9w0BAQEFAAOCAQ8AMIIBCgKCAQEAv3Fi
CPH6WTT3G8kYo/eASVjpIoMTpsUgQwE7hPHmhUmfJ+r2hBtOoLTbcJjHMgGxBT4H
Tu70+k8vWTAi56sZVmvigAf88xZ1gDlRe+X5NbZ0TqmNghPktj+pA4P6or6KFWp/
3gvDthkUBcrqw6gElDtGfDIN8wBmIsiNaW02jBEYt9OyHGC0OPoCjM7T3UYH3go+
6118yHz7sCtTpJJiaVElBWEaRIGMLKlDliPfrDqBmg4pxRyp6V0etp6eMAo5zvGI
gPtLXcwy7IViQyU0AlYnAZG0O3AqP26x6JyIAX2f1PnbU21gnb8s51iruF9G/M7E
GwM8CetJMVxpRrPgRwIDAQABo4IBFzCCARMwDwYDVR0TAQH/BAUwAwEB/zAOBgNV
HQ8BAf8EBAMCAQYwHQYDVR0OBBYEFDqahQcQZyi27/a9BUFuIMGU2g/eMB8GA1Ud
IwQYMBaAFNLEsNKR1EwRcbNhyz2h/t2oatTjMDQGCCsGAQUFBwEBBCgwJjAkBggr
BgEFBQcwAYYYaHR0cDovL29jc3AuZ29kYWRkeS5jb20vMDIGA1UdHwQrMCkwJ6Al
oCOGIWh0dHA6Ly9jcmwuZ29kYWRkeS5jb20vZ2Ryb290LmNybDBGBgNVHSAEPzA9
MDsGBFUdIAAwMzAxBggrBgEFBQcCARYlaHR0cHM6Ly9jZXJ0cy5nb2RhZGR5LmNv
bS9yZXBvc2l0b3J5LzANBgkqhkiG9w0BAQsFAAOCAQEAWQtTvZKGEacke+1bMc8d
H2xwxbhuvk679r6XUOEwf7ooXGKUwuN+M/f7QnaF25UcjCJYdQkMiGVnOQoWCcWg
OJekxSOTP7QYpgEGRJHjp2kntFolfzq3Ms3dhP8qOCkzpN1nsoX+oYggHFCJyNwq
9kIDN0zmiN/VryTyscPfzLXs4Jlet0lUIDyUGAzHHFIYSaRt4bNYC8nY7NmuHDKO
KHAN4v6mF56ED71XcLNa6R+ghlO773z/aQvgSMO3kwvIClTErF0UZzdsyqUvMQg3
qm5vjLyb4lddJIGvl5echK1srDdMZvNhkREg5L4wn3qkKQmw4TRfZHcYQFHfjDCm
rw==
-----END CERTIFICATE-----

Certificate:
    Data:
        Version: 3 (0x2)
        Serial Number: 7 (0x7)
    Signature Algorithm: sha256WithRSAEncryption
        Issuer: C=US, ST=Arizona, L=Scottsdale, O=GoDaddy.com, Inc., CN=Go Daddy Root Certificate Authority - G2
        Validity
            Not Before: May  3 07:00:00 2011 GMT
            Not After : May  3 07:00:00 2031 GMT
        Subject: C=US, ST=Arizona, L=Scottsdale, O=GoDaddy.com, Inc., OU=http://certs.godaddy.com/repository/, CN=Go Daddy Secure Certificate Authority - G2
        Subject Public Key Info:
            Public Key Algorithm: rsaEncryption
                Public-Key: (2048 bit)
                Modulus:
                    00:b9:e0:cb:10:d4:af:76:bd:d4:93:62:eb:30:64:
                    b8:81:08:6c:c3:04:d9:62:17:8e:2f:ff:3e:65:cf:
                    8f:ce:62:e6:3c:52:1c:da:16:45:4b:55:ab:78:6b:
                    63:83:62:90:ce:0f:69:6c:99:c8:1a:14:8b:4c:cc:
                    45:33:ea:88:dc:9e:a3:af:2b:fe:80:61:9d:79:57:
                    c4:cf:2e:f4:3f:30:3c:5d:47:fc:9a:16:bc:c3:37:
                    96:41:51:8e:11:4b:54:f8:28:be:d0:8c:be:f0:30:
                    38:1e:f3:b0:26:f8:66:47:63:6d:de:71:26:47:8f:
                    38:47:53:d1:46:1d:b4:e3:dc:00:ea:45:ac:bd:bc:
                    71:d9:aa:6f:00:db:db:cd:30:3a:79:4f:5f:4c:47:
                    f8:1d:ef:5b:c2:c4:9d:60:3b:b1:b2:43:91:d8:a4:
                    33:4e:ea:b3:d6:27:4f:ad:25:8a:a5:c6:f4:d5:d0:
                    a6:ae:74:05:64:57:88:b5:44:55:d4:2d:2a:3a:3e:
                    f8:b8:bd:e9:32:0a:02:94:64:c4:16:3a:50:f1:4a:
                    ae:e7:79:33:af:0c:20:07:7f:e8:df:04:39:c2:69:
                    02:6c:63:52:fa:77:c1:1b:c8:74:87:c8:b9:93:18:
                    50:54:35:4b:69:4e:bc:3b:d3:49:2e:1f:dc:c1:d2:
                    52:fb
                Exponent: 65537 (0x10001)
        X509v3 extensions:
            X509v3 Basic Constraints: critical
                CA:TRUE
            X509v3 Key Usage: critical
                Certificate Sign, CRL Sign
            X509v3 Subject Key Identifier: 
                40:C2:BD:27:8E:CC:34:83:30:A2:33:D7:FB:6C:B3:F0:B4:2C:80:CE
            X509v3 Authority Key Identifier: 
                keyid:3A:9A:85:07:10:67:28:B6:EF:F6:BD:05:41:6E:20:C1:94:DA:0F:DE

            Authority Information Access: 
                OCSP - URI:http://ocsp.godaddy.com/

            X509v3 CRL Distribution Points: 

                Full Name:
                  URI:http://crl.godaddy.com/gdroot-g2.crl

            X509v3 Certificate Policies: 
                Policy: X509v3 Any Policy
                  CPS: https://certs.godaddy.com/repository/

    Signature Algorithm: sha256WithRSAEncryption
         08:7e:6c:93:10:c8:38:b8:96:a9:90:4b:ff:a1:5f:4f:04:ef:
         6c:3e:9c:88:06:c9:50:8f:a6:73:f7:57:31:1b:be:bc:e4:2f:
         db:f8:ba:d3:5b:e0:b4:e7:e6:79:62:0e:0c:a2:d7:6a:63:73:
         31:b5:f5:a8:48:a4:3b:08:2d:a2:5d:90:d7:b4:7c:25:4f:11:
         56:30:c4:b6:44:9d:7b:2c:9d:e5:5e:e6:ef:0c:61:aa:bf:e4:
         2a:1b:ee:84:9e:b8:83:7d:c1:43:ce:44:a7:13:70:0d:91:1f:
         f4:c8:13:ad:83:60:d9:d8:72:a8:73:24:1e:b5:ac:22:0e:ca:
         17:89:62:58:44:1b:ab:89:25:01:00:0f:cd:c4:1b:62:db:51:
         b4:d3:0f:51:2a:9b:f4:bc:73:fc:76:ce:36:a4:cd:d9:d8:2c:
         ea:ae:9b:f5:2a:b2:90:d1:4d:75:18:8a:3f:8a:41:90:23:7d:
         5b:4b:fe:a4:03:58:9b:46:b2:c3:60:60:83:f8:7d:50:41:ce:
         c2:a1:90:c3:bb:ef:02:2f:d2:15:54:ee:44:15:d9:0a:ae:a7:
         8a:33:ed:b1:2d:76:36:26:dc:04:eb:9f:f7:61:1f:15:dc:87:
         6f:ee:46:96:28:ad:a1:26:7d:0a:09:a7:2e:04:a3:8d:bc:f8:
         bc:04:30:01
-----BEGIN CERTIFICATE-----
MIIE0DCCA7igAwIBAgIBBzANBgkqhkiG9w0BAQsFADCBgzELMAkGA1UEBhMCVVMx
EDAOBgNVBAgTB0FyaXpvbmExEzARBgNVBAcTClNjb3R0c2RhbGUxGjAYBgNVBAoT
EUdvRGFkZHkuY29tLCBJbmMuMTEwLwYDVQQDEyhHbyBEYWRkeSBSb290IENlcnRp
ZmljYXRlIEF1dGhvcml0eSAtIEcyMB4XDTExMDUwMzA3MDAwMFoXDTMxMDUwMzA3
MDAwMFowgbQxCzAJBgNVBAYTAlVTMRAwDgYDVQQIEwdBcml6b25hMRMwEQYDVQQH
EwpTY290dHNkYWxlMRowGAYDVQQKExFHb0RhZGR5LmNvbSwgSW5jLjEtMCsGA1UE
CxMkaHR0cDovL2NlcnRzLmdvZGFkZHkuY29tL3JlcG9zaXRvcnkvMTMwMQYDVQQD
EypHbyBEYWRkeSBTZWN1cmUgQ2VydGlmaWNhdGUgQXV0aG9yaXR5IC0gRzIwggEi
MA0GCSqGSIb3DQEBAQUAA4IBDwAwggEKAoIBAQC54MsQ1K92vdSTYuswZLiBCGzD
BNliF44v/z5lz4/OYuY8UhzaFkVLVat4a2ODYpDOD2lsmcgaFItMzEUz6ojcnqOv
K/6AYZ15V8TPLvQ/MDxdR/yaFrzDN5ZBUY4RS1T4KL7QjL7wMDge87Am+GZHY23e
cSZHjzhHU9FGHbTj3ADqRay9vHHZqm8A29vNMDp5T19MR/gd71vCxJ1gO7GyQ5HY
pDNO6rPWJ0+tJYqlxvTV0KaudAVkV4i1RFXULSo6Pvi4vekyCgKUZMQWOlDxSq7n
eTOvDCAHf+jfBDnCaQJsY1L6d8EbyHSHyLmTGFBUNUtpTrw700kuH9zB0lL7AgMB
AAGjggEaMIIBFjAPBgNVHRMBAf8EBTADAQH/MA4GA1UdDwEB/wQEAwIBBjAdBgNV
HQ4EFgQUQMK9J47MNIMwojPX+2yz8LQsgM4wHwYDVR0jBBgwFoAUOpqFBxBnKLbv
9r0FQW4gwZTaD94wNAYIKwYBBQUHAQEEKDAmMCQGCCsGAQUFBzABhhhodHRwOi8v
b2NzcC5nb2RhZGR5LmNvbS8wNQYDVR0fBC4wLDAqoCigJoYkaHR0cDovL2NybC5n
b2RhZGR5LmNvbS9nZHJvb3QtZzIuY3JsMEYGA1UdIAQ/MD0wOwYEVR0gADAzMDEG
CCsGAQUFBwIBFiVodHRwczovL2NlcnRzLmdvZGFkZHkuY29tL3JlcG9zaXRvcnkv
MA0GCSqGSIb3DQEBCwUAA4IBAQAIfmyTEMg4uJapkEv/oV9PBO9sPpyIBslQj6Zz
91cxG7685C/b+LrTW+C05+Z5Yg4MotdqY3MxtfWoSKQ7CC2iXZDXtHwlTxFWMMS2
RJ17LJ3lXubvDGGqv+QqG+6EnriDfcFDzkSnE3ANkR/0yBOtg2DZ2HKocyQetawi
DsoXiWJYRBuriSUBAA/NxBti21G00w9RKpv0vHP8ds42pM3Z2Czqrpv1KrKQ0U11
GIo/ikGQI31bS/6kA1ibRrLDYGCD+H1QQc7CoZDDu+8CL9IVVO5EFdkKrqeKM+2x
LXY2JtwE65/3YR8V3Idv7kaWKK2hJn0KCacuBKONvPi8BDAB
-----END CERTIFICATE-----

Certificate:
    Data:
        Version: 3 (0x2)
        Serial Number: 7108543278131904072 (0x62a69e72e38afe48)
    Signature Algorithm: sha256WithRSAEncryption
        Issuer: C=US, ST=Arizona, L=Scottsdale, O=GoDaddy.com, Inc., OU=http://certs.godaddy.com/repository/, CN=Go Daddy Secure Certificate Authority - G2
        Validity
            Not Before: Dec  8 18:56:38 2015 GMT
            Not After : Dec  8 18:56:38 2016 GMT
        Subject: C=US, ST=California, L=San Francisco, O=Super Click Interactive, CN=Super Click Interactive
        Subject Public Key Info:
            Public Key Algorithm: rsaEncryption
                Public-Key: (2048 bit)
                Modulus:
                    00:f1:c7:80:e6:f5:80:4e:48:e1:5e:07:86:e8:59:
                    25:bb:13:f4:e8:53:fd:b0:be:b5:a2:5a:e6:a9:99:
                    49:48:36:77:d5:90:6b:a1:08:88:20:03:02:36:cf:
                    bf:eb:bd:60:4e:8c:15:27:83:f5:ad:00:dd:5a:76:
                    60:e7:ea:89:6e:2f:0f:98:61:94:60:2c:ba:6b:45:
                    16:16:a9:cf:2b:b7:0f:f9:28:d6:51:64:4a:84:a6:
                    f6:15:e0:7f:07:76:56:35:5c:ab:90:2c:e3:77:11:
                    a9:b7:0d:68:70:30:fe:69:2d:ba:67:22:9a:c0:ca:
                    1b:54:c5:4c:8d:38:51:89:ba:f2:18:68:ec:05:dc:
                    8f:94:03:3d:6e:43:2c:1e:af:4a:d5:1c:be:1d:d3:
                    3d:a0:73:f9:64:ee:f1:ef:af:32:49:00:da:67:2c:
                    8b:ef:9b:6a:cb:b0:e9:0d:a4:bf:ab:39:b7:94:3b:
                    3b:70:d0:77:57:70:ab:02:1f:c0:58:cd:65:a9:b4:
                    13:3b:19:0f:94:d4:48:60:0b:86:68:15:d5:85:20:
                    fd:da:b9:cd:fb:5a:9a:96:23:00:d4:6d:38:9b:f7:
                    24:7a:dc:8a:a9:73:07:7f:5a:c7:e1:ff:7e:79:3c:
                    07:8d:f4:84:57:31:12:ec:b4:0c:bd:fe:3c:f5:b5:
                    fe:1f
                Exponent: 65537 (0x10001)
        X509v3 extensions:
            X509v3 Basic Constraints: critical
                CA:FALSE
            X509v3 Extended Key Usage: 
                Code Signing
            X509v3 Key Usage: critical
                Digital Signature
            X509v3 CRL Distribution Points: 

                Full Name:
                  URI:http://crl.godaddy.com/gdig2s5-1.crl

            X509v3 Certificate Policies: 
                Policy: 2.16.840.1.114413.1.7.23.2
                  CPS: http://certificates.godaddy.com/repository/

            Authority Information Access: 
                OCSP - URI:http://ocsp.godaddy.com/
                CA Issuers - URI:http://certificates.godaddy.com/repository/gdig2.crt

            X509v3 Authority Key Identifier: 
                keyid:40:C2:BD:27:8E:CC:34:83:30:A2:33:D7:FB:6C:B3:F0:B4:2C:80:CE

            X509v3 Subject Key Identifier: 
                0A:AF:C8:8B:F6:11:AD:A5:C8:AF:A3:29:62:AF:0E:C9:52:A9:09:C3
    Signature Algorithm: sha256WithRSAEncryption
         0b:45:ac:68:c6:ba:8a:2f:64:66:3f:9b:9e:19:43:d2:1d:56:
         2a:5b:3d:39:e4:ff:15:71:b1:70:36:df:0c:f2:e6:93:22:f5:
         22:a8:d6:c0:1b:ff:f8:b7:95:1d:21:a4:84:34:6f:0a:a9:5f:
         c5:eb:b0:11:c6:ec:6d:45:88:6e:2f:ef:12:23:78:f9:88:1d:
         db:2c:d4:56:8e:63:53:4e:58:e3:da:e2:df:d5:f5:c1:e1:7b:
         e8:35:09:81:95:80:2c:34:78:85:55:07:21:84:27:40:d3:74:
         82:53:61:62:9b:a2:08:5d:08:10:78:1f:dc:96:12:4d:30:bd:
         58:5a:67:8b:a3:5a:60:26:1c:9a:04:e2:d6:e4:f4:6a:27:a5:
         2a:a1:02:24:64:d1:68:58:ae:b6:ba:53:55:15:11:ad:d1:77:
         35:e6:05:5c:6a:19:a4:86:72:b9:74:b4:9c:54:e4:4b:ce:74:
         10:d4:3c:47:f7:13:a8:f0:c5:1c:29:7f:e2:65:04:fc:a3:04:
         67:21:e2:73:37:66:0a:1c:5f:bf:6a:ec:ff:cb:28:5a:2e:a5:
         f0:3c:bc:b3:7b:30:79:a1:cb:43:0a:6a:14:ac:44:28:ed:80:
         2c:5d:e3:d0:fb:7c:c8:d8:69:4b:d6:22:08:8d:ba:b8:8b:bb:
         cf:83:ec:aa
-----BEGIN CERTIFICATE-----
MIIFMjCCBBqgAwIBAgIIYqaecuOK/kgwDQYJKoZIhvcNAQELBQAwgbQxCzAJBgNV
BAYTAlVTMRAwDgYDVQQIEwdBcml6b25hMRMwEQYDVQQHEwpTY290dHNkYWxlMRow
GAYDVQQKExFHb0RhZGR5LmNvbSwgSW5jLjEtMCsGA1UECxMkaHR0cDovL2NlcnRz
LmdvZGFkZHkuY29tL3JlcG9zaXRvcnkvMTMwMQYDVQQDEypHbyBEYWRkeSBTZWN1
cmUgQ2VydGlmaWNhdGUgQXV0aG9yaXR5IC0gRzIwHhcNMTUxMjA4MTg1NjM4WhcN
MTYxMjA4MTg1NjM4WjB+MQswCQYDVQQGEwJVUzETMBEGA1UECBMKQ2FsaWZvcm5p
YTEWMBQGA1UEBxMNU2FuIEZyYW5jaXNjbzEgMB4GA1UEChMXU3VwZXIgQ2xpY2sg
SW50ZXJhY3RpdmUxIDAeBgNVBAMTF1N1cGVyIENsaWNrIEludGVyYWN0aXZlMIIB
IjANBgkqhkiG9w0BAQEFAAOCAQ8AMIIBCgKCAQEA8ceA5vWATkjhXgeG6FkluxP0
6FP9sL61olrmqZlJSDZ31ZBroQiIIAMCNs+/671gTowVJ4P1rQDdWnZg5+qJbi8P
mGGUYCy6a0UWFqnPK7cP+SjWUWRKhKb2FeB/B3ZWNVyrkCzjdxGptw1ocDD+aS26
ZyKawMobVMVMjThRibryGGjsBdyPlAM9bkMsHq9K1Ry+HdM9oHP5ZO7x768ySQDa
ZyyL75tqy7DpDaS/qzm3lDs7cNB3V3CrAh/AWM1lqbQTOxkPlNRIYAuGaBXVhSD9
2rnN+1qaliMA1G04m/cketyKqXMHf1rH4f9+eTwHjfSEVzES7LQMvf489bX+HwID
AQABo4IBezCCAXcwDAYDVR0TAQH/BAIwADATBgNVHSUEDDAKBggrBgEFBQcDAzAO
BgNVHQ8BAf8EBAMCB4AwNQYDVR0fBC4wLDAqoCigJoYkaHR0cDovL2NybC5nb2Rh
ZGR5LmNvbS9nZGlnMnM1LTEuY3JsMFMGA1UdIARMMEowSAYLYIZIAYb9bQEHFwIw
OTA3BggrBgEFBQcCARYraHR0cDovL2NlcnRpZmljYXRlcy5nb2RhZGR5LmNvbS9y
ZXBvc2l0b3J5LzB2BggrBgEFBQcBAQRqMGgwJAYIKwYBBQUHMAGGGGh0dHA6Ly9v
Y3NwLmdvZGFkZHkuY29tLzBABggrBgEFBQcwAoY0aHR0cDovL2NlcnRpZmljYXRl
cy5nb2RhZGR5LmNvbS9yZXBvc2l0b3J5L2dkaWcyLmNydDAfBgNVHSMEGDAWgBRA
wr0njsw0gzCiM9f7bLPwtCyAzjAdBgNVHQ4EFgQUCq/Ii/YRraXIr6MpYq8OyVKp
CcMwDQYJKoZIhvcNAQELBQADggEBAAtFrGjGuoovZGY/m54ZQ9IdVipbPTnk/xVx
sXA23wzy5pMi9SKo1sAb//i3lR0hpIQ0bwqpX8XrsBHG7G1FiG4v7xIjePmIHdss
1FaOY1NOWOPa4t/V9cHhe+g1CYGVgCw0eIVVByGEJ0DTdIJTYWKboghdCBB4H9yW
Ek0wvVhaZ4ujWmAmHJoE4tbk9GonpSqhAiRk0WhYrra6U1UVEa3RdzXmBVxqGaSG
crl0tJxU5EvOdBDUPEf3E6jwxRwpf+JlBPyjBGch4nM3ZgocX79q7P/LKFoupfA8
vLN7MHmhy0MKahSsRCjtgCxd49D7fMjYaUvWIgiNuriLu8+D7Ko=
-----END CERTIFICATE-----

