Certificate:
    Data:
        Version: 3 (0x2)
        Serial Number:
            69:7d:1e:44:53:95:de:77:b0:1b:cd:0a:89:c6:29:85
    Signature Algorithm: sha256WithRSAEncryption
        Issuer: C=US, O=Symantec Corporation, OU=Symantec Trust Network, CN=Symantec Class 3 SHA256 Code Signing CA
        Validity
            Not Before: Feb  7 00:00:00 2017 GMT
            Not After : Apr  7 23:59:59 2020 GMT
        Subject: C=HK, ST=Kowloon, L=Mongkok, O=UUMART LIMITED, CN=UUMART LIMITED
        Subject Public Key Info:
            Public Key Algorithm: rsaEncryption
                Public-Key: (2048 bit)
                Modulus:
                    00:ad:2f:62:0f:f7:0a:bb:c8:51:fd:5d:4a:c9:9d:
                    5e:96:d8:f3:0e:b8:df:d1:3f:6a:43:a2:1c:3d:ce:
                    3a:5c:26:cc:ca:99:8f:f4:6e:62:c8:d4:30:d8:99:
                    60:0b:0f:e8:6b:4d:97:e2:83:dc:8e:75:26:80:3b:
                    84:06:a5:5c:54:3c:50:18:89:1b:81:a5:65:65:b4:
                    99:89:b8:18:e8:84:64:bf:11:5e:1d:41:66:99:0e:
                    10:8f:99:28:1b:47:ff:b6:1c:34:1e:90:8b:dc:ce:
                    c5:17:d1:84:4d:98:6a:bd:98:fb:2e:05:68:14:aa:
                    80:52:fb:79:1c:ec:93:6e:b4:cf:24:e4:5c:d5:c1:
                    72:01:7e:04:84:9e:19:d6:a4:0c:bc:57:dd:88:86:
                    c0:7c:d3:dc:dc:e4:01:01:b2:ee:98:54:6e:9e:83:
                    cc:f8:c6:e5:8d:21:85:cb:c9:7a:81:c0:30:d9:e4:
                    08:b2:0f:7a:f7:cd:19:db:ae:db:23:6c:1a:9f:17:
                    bf:55:b6:b0:7b:98:7f:4a:b5:bf:86:da:d8:6f:53:
                    31:58:1a:62:56:06:46:98:44:96:c4:bf:21:81:3e:
                    f1:86:64:3c:23:94:64:24:60:20:e5:2a:68:09:14:
                    14:05:82:51:57:be:a9:f2:32:0d:8d:27:7b:ed:6c:
                    e5:d5
                Exponent: 65537 (0x10001)
        X509v3 extensions:
            X509v3 Basic Constraints: 
                CA:FALSE
            X509v3 Key Usage: critical
                Digital Signature
            X509v3 CRL Distribution Points: 

                Full Name:
                  URI:http://sv.symcb.com/sv.crl

            X509v3 Certificate Policies: 
                Policy: 2.23.140.1.4.1
                  CPS: https://d.symcb.com/cps
                  User Notice:
                    Explicit Text: https://d.symcb.com/rpa

            X509v3 Extended Key Usage: 
                Code Signing
            Authority Information Access: 
                OCSP - URI:http://sv.symcd.com
                CA Issuers - URI:http://sv.symcb.com/sv.crt

            X509v3 Authority Key Identifier: 
                keyid:96:3B:53:F0:79:33:97:AF:7D:83:EF:2E:2B:CC:CA:B7:86:1E:72:66

            X509v3 Subject Key Identifier: 
                A9:22:6F:17:AC:BA:0D:B2:09:42:A6:D1:2B:EF:D2:07:FC:73:32:F6
    Signature Algorithm: sha256WithRSAEncryption
         8b:cd:23:5e:24:4d:e4:97:95:02:03:5c:3e:43:11:b7:d8:99:
         65:67:ce:1c:86:19:cd:50:43:f5:99:7b:62:90:09:b4:96:95:
         e1:29:98:89:36:b3:88:69:e9:45:0f:9f:b9:b9:aa:56:10:a3:
         5f:16:66:05:61:b9:c1:8d:db:75:84:00:25:9d:23:b8:e6:54:
         dc:67:17:07:0b:91:8c:63:b6:3c:31:bc:a1:0a:53:fd:98:1b:
         e2:e2:17:f9:bf:c2:e3:ee:60:89:1f:09:28:e5:f0:9b:a8:d8:
         b1:a7:27:b4:9d:29:d9:39:7b:7f:21:09:61:f9:e5:9b:12:c4:
         46:91:5c:6a:48:52:23:20:fb:30:6c:6f:db:36:aa:27:6a:ad:
         e0:ee:9e:a5:49:44:61:4d:63:bf:69:13:89:51:2a:9a:2c:15:
         c5:67:99:a9:95:1f:67:70:21:c0:a0:c3:28:fb:ad:58:cb:09:
         a1:57:c8:cd:2c:98:25:fa:d3:91:f9:3d:ff:51:93:a7:6a:f0:
         c4:22:bc:2f:57:10:8a:a3:f2:7d:22:37:b4:e1:db:68:37:5e:
         c9:f2:ea:b0:dd:c3:06:c2:3e:5c:00:3c:9c:31:ed:3c:37:ee:
         9b:ef:a8:7a:36:13:84:e4:06:6c:8c:1f:85:13:17:70:10:27:
         8d:eb:4b:e6
-----BEGIN CERTIFICATE-----
MIIEyzCCA7OgAwIBAgIQaX0eRFOV3newG80KicYphTANBgkqhkiG9w0BAQsFADB/
MQswCQYDVQQGEwJVUzEdMBsGA1UEChMUU3ltYW50ZWMgQ29ycG9yYXRpb24xHzAd
BgNVBAsTFlN5bWFudGVjIFRydXN0IE5ldHdvcmsxMDAuBgNVBAMTJ1N5bWFudGVj
IENsYXNzIDMgU0hBMjU2IENvZGUgU2lnbmluZyBDQTAeFw0xNzAyMDcwMDAwMDBa
Fw0yMDA0MDcyMzU5NTlaMGMxCzAJBgNVBAYTAkhLMRAwDgYDVQQIDAdLb3dsb29u
MRAwDgYDVQQHDAdNb25na29rMRcwFQYDVQQKDA5VVU1BUlQgTElNSVRFRDEXMBUG
A1UEAwwOVVVNQVJUIExJTUlURUQwggEiMA0GCSqGSIb3DQEBAQUAA4IBDwAwggEK
AoIBAQCtL2IP9wq7yFH9XUrJnV6W2PMOuN/RP2pDohw9zjpcJszKmY/0bmLI1DDY
mWALD+hrTZfig9yOdSaAO4QGpVxUPFAYiRuBpWVltJmJuBjohGS/EV4dQWaZDhCP
mSgbR/+2HDQekIvczsUX0YRNmGq9mPsuBWgUqoBS+3kc7JNutM8k5FzVwXIBfgSE
nhnWpAy8V92IhsB809zc5AEBsu6YVG6eg8z4xuWNIYXLyXqBwDDZ5AiyD3r3zRnb
rtsjbBqfF79VtrB7mH9Ktb+G2thvUzFYGmJWBkaYRJbEvyGBPvGGZDwjlGQkYCDl
KmgJFBQFglFXvqnyMg2NJ3vtbOXVAgMBAAGjggFdMIIBWTAJBgNVHRMEAjAAMA4G
A1UdDwEB/wQEAwIHgDArBgNVHR8EJDAiMCCgHqAchhpodHRwOi8vc3Yuc3ltY2Iu
Y29tL3N2LmNybDBhBgNVHSAEWjBYMFYGBmeBDAEEATBMMCMGCCsGAQUFBwIBFhdo
dHRwczovL2Quc3ltY2IuY29tL2NwczAlBggrBgEFBQcCAjAZDBdodHRwczovL2Qu
c3ltY2IuY29tL3JwYTATBgNVHSUEDDAKBggrBgEFBQcDAzBXBggrBgEFBQcBAQRL
MEkwHwYIKwYBBQUHMAGGE2h0dHA6Ly9zdi5zeW1jZC5jb20wJgYIKwYBBQUHMAKG
Gmh0dHA6Ly9zdi5zeW1jYi5jb20vc3YuY3J0MB8GA1UdIwQYMBaAFJY7U/B5M5ev
fYPvLivMyreGHnJmMB0GA1UdDgQWBBSpIm8XrLoNsglCptEr79IH/HMy9jANBgkq
hkiG9w0BAQsFAAOCAQEAi80jXiRN5JeVAgNcPkMRt9iZZWfOHIYZzVBD9Zl7YpAJ
tJaV4SmYiTaziGnpRQ+fubmqVhCjXxZmBWG5wY3bdYQAJZ0juOZU3GcXBwuRjGO2
PDG8oQpT/Zgb4uIX+b/C4+5giR8JKOXwm6jYsacntJ0p2Tl7fyEJYfnlmxLERpFc
akhSIyD7MGxv2zaqJ2qt4O6epUlEYU1jv2kTiVEqmiwVxWeZqZUfZ3AhwKDDKPut
WMsJoVfIzSyYJfrTkfk9/1GTp2rwxCK8L1cQiqPyfSI3tOHbaDdeyfLqsN3DBsI+
XAA8nDHtPDfum++oejYThOQGbIwfhRMXcBAnjetL5g==
-----END CERTIFICATE-----

Certificate:
    Data:
        Version: 3 (0x2)
        Serial Number:
            3d:78:d7:f9:76:49:60:b2:61:7d:f4:f0:1e:ca:86:2a
    Signature Algorithm: sha256WithRSAEncryption
        Issuer: C=US, O=VeriSign, Inc., OU=VeriSign Trust Network, OU=(c) 2006 VeriSign, Inc. - For authorized use only, CN=VeriSign Class 3 Public Primary Certification Authority - G5
        Validity
            Not Before: Dec 10 00:00:00 2013 GMT
            Not After : Dec  9 23:59:59 2023 GMT
        Subject: C=US, O=Symantec Corporation, OU=Symantec Trust Network, CN=Symantec Class 3 SHA256 Code Signing CA
        Subject Public Key Info:
            Public Key Algorithm: rsaEncryption
                Public-Key: (2048 bit)
                Modulus:
                    00:97:83:1e:00:16:af:2c:b1:d2:08:c4:d7:68:93:
                    51:60:1e:71:f6:e2:47:b4:db:58:4d:23:62:6a:b4:
                    bf:5a:1b:51:f7:a3:0d:18:77:68:bb:d8:36:ab:2f:
                    21:50:da:9e:f3:e7:5f:27:4e:0b:c2:97:c8:09:70:
                    93:a9:da:5c:0d:4e:a4:0d:91:a0:b4:ec:14:ce:91:
                    72:54:2e:ce:a3:db:44:e9:52:1b:3f:41:3c:ca:4a:
                    e4:aa:c0:e8:39:ab:53:cc:21:d0:cc:cf:7f:9b:e6:
                    c2:cc:58:6a:82:15:ee:3d:36:cf:1c:c5:97:07:24:
                    8e:f1:7b:be:31:2d:3d:6e:dc:b5:99:42:9f:4b:61:
                    95:5f:1c:70:ee:17:7d:db:8b:e5:61:89:78:c7:68:
                    1b:af:11:78:1a:98:ae:c4:55:47:53:d9:b3:32:d6:
                    a1:0e:46:40:c5:97:92:8a:d1:53:a7:99:5b:85:35:
                    57:d3:ea:93:62:61:20:0a:c7:30:77:24:11:4d:62:
                    83:b6:ba:7b:68:82:31:ee:65:ca:df:f9:d5:8d:b2:
                    35:dc:8c:2b:6f:6a:72:5c:60:84:9c:f2:0c:94:5e:
                    c0:56:52:00:48:cc:d3:f8:a5:7d:de:2f:d7:13:e4:
                    38:a8:84:d5:46:b8:13:86:c2:1b:9d:ea:5a:38:dd:
                    9b:db
                Exponent: 65537 (0x10001)
        X509v3 extensions:
            Authority Information Access: 
                OCSP - URI:http://s2.symcb.com

            X509v3 Basic Constraints: critical
                CA:TRUE, pathlen:0
            X509v3 Certificate Policies: 
                Policy: 2.16.840.1.113733.1.7.23.3
                  CPS: http://www.symauth.com/cps
                  User Notice:
                    Explicit Text: http://www.symauth.com/rpa

            X509v3 CRL Distribution Points: 

                Full Name:
                  URI:http://s1.symcb.com/pca3-g5.crl

            X509v3 Extended Key Usage: 
                TLS Web Client Authentication, Code Signing
            X509v3 Key Usage: critical
                Certificate Sign, CRL Sign
            X509v3 Subject Alternative Name: 
                DirName:/CN=SymantecPKI-1-567
            X509v3 Subject Key Identifier: 
                96:3B:53:F0:79:33:97:AF:7D:83:EF:2E:2B:CC:CA:B7:86:1E:72:66
            X509v3 Authority Key Identifier: 
                keyid:7F:D3:65:A7:C2:DD:EC:BB:F0:30:09:F3:43:39:FA:02:AF:33:31:33

    Signature Algorithm: sha256WithRSAEncryption
         13:85:1a:1e:69:a9:37:f7:a0:bd:a4:af:7e:1d:61:53:fe:9d:
         8c:5e:0c:a6:75:1e:78:17:23:dd:fd:ec:1a:03:55:39:fb:71:
         95:c7:65:5a:a7:8e:30:d2:44:5a:61:db:70:6f:da:21:05:c2:
         2e:73:ba:49:f1:d1:93:fe:5d:c9:cd:5e:03:e0:89:9e:3f:74:
         1e:d7:f7:38:8b:a9:d6:cf:bb:35:2f:33:58:a8:92:56:d1:c8:
         4d:3b:82:e6:79:84:16:fc:28:b0:b1:47:f3:1d:a2:3e:ee:87:
         d9:a6:7f:a4:56:a5:3f:ad:84:2e:29:de:7c:bc:a8:aa:a3:3d:
         04:01:ea:ba:93:a2:0e:50:22:29:17:4c:87:e4:3a:11:5f:d6:
         a4:25:89:9b:05:6b:2f:b4:c9:01:4c:27:7b:0b:ac:19:05:22:
         a0:60:15:3f:da:c9:fb:4d:4c:8f:fb:72:67:77:fd:27:94:c7:
         ba:35:0e:88:49:fe:8d:fd:28:af:4a:12:bd:0d:b3:97:05:de:
         44:0c:15:fa:36:2b:03:dc:c1:50:01:f1:a1:11:5d:14:e5:e2:
         bd:27:4b:54:be:2b:84:5e:0f:a6:c3:74:05:0a:ef:97:c3:89:
         22:b1:1f:77:f3:bd:cd:43:d4:f1:4c:a9:3f:b5:8b:84:af:64:
         f2:d0:14:21
-----BEGIN CERTIFICATE-----
MIIFWTCCBEGgAwIBAgIQPXjX+XZJYLJhffTwHsqGKjANBgkqhkiG9w0BAQsFADCB
yjELMAkGA1UEBhMCVVMxFzAVBgNVBAoTDlZlcmlTaWduLCBJbmMuMR8wHQYDVQQL
ExZWZXJpU2lnbiBUcnVzdCBOZXR3b3JrMTowOAYDVQQLEzEoYykgMjAwNiBWZXJp
U2lnbiwgSW5jLiAtIEZvciBhdXRob3JpemVkIHVzZSBvbmx5MUUwQwYDVQQDEzxW
ZXJpU2lnbiBDbGFzcyAzIFB1YmxpYyBQcmltYXJ5IENlcnRpZmljYXRpb24gQXV0
aG9yaXR5IC0gRzUwHhcNMTMxMjEwMDAwMDAwWhcNMjMxMjA5MjM1OTU5WjB/MQsw
CQYDVQQGEwJVUzEdMBsGA1UEChMUU3ltYW50ZWMgQ29ycG9yYXRpb24xHzAdBgNV
BAsTFlN5bWFudGVjIFRydXN0IE5ldHdvcmsxMDAuBgNVBAMTJ1N5bWFudGVjIENs
YXNzIDMgU0hBMjU2IENvZGUgU2lnbmluZyBDQTCCASIwDQYJKoZIhvcNAQEBBQAD
ggEPADCCAQoCggEBAJeDHgAWryyx0gjE12iTUWAecfbiR7TbWE0jYmq0v1obUfej
DRh3aLvYNqsvIVDanvPnXydOC8KXyAlwk6naXA1OpA2RoLTsFM6RclQuzqPbROlS
Gz9BPMpK5KrA6DmrU8wh0MzPf5vmwsxYaoIV7j02zxzFlwckjvF7vjEtPW7ctZlC
n0thlV8ccO4XfduL5WGJeMdoG68ReBqYrsRVR1PZszLWoQ5GQMWXkorRU6eZW4U1
V9Pqk2JhIArHMHckEU1ig7a6e2iCMe5lyt/51Y2yNdyMK29qclxghJzyDJRewFZS
AEjM0/ilfd4v1xPkOKiE1Ua4E4bCG53qWjjdm9sCAwEAAaOCAYMwggF/MC8GCCsG
AQUFBwEBBCMwITAfBggrBgEFBQcwAYYTaHR0cDovL3MyLnN5bWNiLmNvbTASBgNV
HRMBAf8ECDAGAQH/AgEAMGwGA1UdIARlMGMwYQYLYIZIAYb4RQEHFwMwUjAmBggr
BgEFBQcCARYaaHR0cDovL3d3dy5zeW1hdXRoLmNvbS9jcHMwKAYIKwYBBQUHAgIw
HBoaaHR0cDovL3d3dy5zeW1hdXRoLmNvbS9ycGEwMAYDVR0fBCkwJzAloCOgIYYf
aHR0cDovL3MxLnN5bWNiLmNvbS9wY2EzLWc1LmNybDAdBgNVHSUEFjAUBggrBgEF
BQcDAgYIKwYBBQUHAwMwDgYDVR0PAQH/BAQDAgEGMCkGA1UdEQQiMCCkHjAcMRow
GAYDVQQDExFTeW1hbnRlY1BLSS0xLTU2NzAdBgNVHQ4EFgQUljtT8Hkzl699g+8u
K8zKt4YecmYwHwYDVR0jBBgwFoAUf9Nlp8Ld7LvwMAnzQzn6Aq8zMTMwDQYJKoZI
hvcNAQELBQADggEBABOFGh5pqTf3oL2kr34dYVP+nYxeDKZ1HngXI9397BoDVTn7
cZXHZVqnjjDSRFph23Bv2iEFwi5zuknx0ZP+XcnNXgPgiZ4/dB7X9ziLqdbPuzUv
M1ioklbRyE07guZ5hBb8KLCxR/Mdoj7uh9mmf6RWpT+thC4p3ny8qKqjPQQB6rqT
og5QIikXTIfkOhFf1qQliZsFay+0yQFMJ3sLrBkFIqBgFT/ayftNTI/7cmd3/SeU
x7o1DohJ/o39KK9KEr0Ns5cF3kQMFfo2KwPcwVAB8aERXRTl4r0nS1S+K4ReD6bD
dAUK75fDiSKxH3fzvc1D1PFMqT+1i4SvZPLQFCE=
-----END CERTIFICATE-----

