Certificate:
    Data:
        Version: 3 (0x2)
        Serial Number:
            04:00:00:00:00:01:2f:4e:e1:52:d7
    Signature Algorithm: sha1WithRSAEncryption
        Issuer: C=BE, O=GlobalSign nv-sa, OU=Root CA, CN=GlobalSign Root CA
        Validity
            Not Before: Apr 13 10:00:00 2011 GMT
            Not After : Jan 28 12:00:00 2028 GMT
        Subject: C=BE, O=GlobalSign nv-sa, CN=GlobalSign Timestamping CA - G2
        Subject Public Key Info:
            Public Key Algorithm: rsaEncryption
                Public-Key: (2048 bit)
                Modulus:
                    00:94:ef:65:f8:b5:57:9f:a0:53:0d:34:06:eb:09:
                    1f:b7:47:18:6a:cb:f0:5b:e4:ff:27:a5:34:d1:f7:
                    89:1a:bf:9e:b1:cd:12:41:6e:66:d4:81:a0:85:8b:
                    64:5a:46:2f:99:a0:8d:77:b1:e2:bc:5c:dd:22:d7:
                    6a:67:d0:bb:e8:ca:74:de:8b:4f:0d:b0:52:e5:90:
                    5b:eb:47:0e:f1:e7:9f:9c:0b:90:65:3e:17:96:30:
                    45:72:6d:39:a1:17:36:ca:b9:a0:8c:1b:4f:08:19:
                    f6:81:31:ad:61:16:a4:62:e6:b4:40:9e:c3:fc:fb:
                    95:f6:fb:b5:2e:95:81:98:e0:ef:c5:eb:d8:02:59:
                    78:77:f7:aa:e3:52:6b:50:91:29:c5:fc:f7:cd:93:
                    65:d2:60:61:22:f2:06:fb:32:dd:16:51:fa:0e:fd:
                    8a:30:f0:17:09:a7:bb:f3:04:ae:ab:90:e7:6c:df:
                    7a:a9:f4:ef:c4:62:27:5f:6f:99:6d:38:74:aa:11:
                    8b:da:df:c7:14:4c:e9:85:b2:ec:c2:7d:4a:26:8f:
                    e7:56:ba:a6:e0:cf:92:53:80:74:f4:03:ec:68:b2:
                    60:bc:84:20:00:83:1b:a1:ee:b4:74:05:c1:29:8e:
                    62:d0:47:b1:fa:f0:53:cc:18:f9:2e:3b:f9:70:7e:
                    b4:25
                Exponent: 65537 (0x10001)
        X509v3 extensions:
            X509v3 Key Usage: critical
                Certificate Sign, CRL Sign
            X509v3 Basic Constraints: critical
                CA:TRUE, pathlen:0
            X509v3 Subject Key Identifier: 
                46:D8:3E:FF:DC:E3:BE:FF:83:E6:F4:85:9B:B0:DD:6A:D6:14:A9:C1
            X509v3 Certificate Policies: 
                Policy: X509v3 Any Policy
                  CPS: https://www.globalsign.com/repository/

            X509v3 CRL Distribution Points: 

                Full Name:
                  URI:http://crl.globalsign.net/root.crl

            X509v3 Authority Key Identifier: 
                keyid:60:7B:66:1A:45:0D:97:CA:89:50:2F:7D:04:CD:34:A8:FF:FC:FD:4B

    Signature Algorithm: sha1WithRSAEncryption
         4e:5e:56:90:1e:46:b4:d9:49:31:f3:bb:17:39:28:1b:c2:16:
         dd:fd:41:dc:09:05:04:9b:6f:b2:a2:9a:d6:99:2e:40:99:00:
         55:b5:ea:3f:a5:20:76:d3:86:34:d4:17:cc:55:3a:c7:82:ee:
         ef:a8:ba:bc:d8:06:9f:15:50:df:cd:16:7b:52:3a:02:d7:19:
         1a:fd:af:f0:78:5c:e0:4b:c5:18:df:3a:24:1e:da:ac:b8:a9:
         58:04:02:07:30:db:b0:12:5e:fe:31:be:f0:04:48:f4:f0:70:
         f8:3a:5e:56:83:cf:3d:fb:0d:bc:f4:c5:ed:97:9d:b9:d4:db:
         a5:27:84:e3:38:9b:8b:a7:35:86:44:20:a4:3b:6d:a4:6a:0b:
         a1:83:fd:28:eb:da:ef:28:f6:cc:88:5d:fb:0a:3b:00:ab:e0:
         21:eb:e2:2f:35:6c:0f:8e:34:45:97:eb:a2:f7:99:33:35:7e:
         cb:9a:8a:bb:45:4d:e7:3f:9f:c2:d9:8a:fa:65:b2:6e:c7:7e:
         65:ff:e8:92:e1:2c:31:a2:f7:b0:27:36:48:8f:26:6f:3b:ee:
         4d:76:1f:79:c3:e5:7f:96:35:bc:2d:0e:cc:01:b0:8e:7f:ff:
         51:80:80:a7:92:d4:b3:44:46:64:8c:87:4f:16:63:07:31:4b:
         63:b0:df:f3
-----BEGIN CERTIFICATE-----
MIIEFDCCAvygAwIBAgILBAAAAAABL07hUtcwDQYJKoZIhvcNAQEFBQAwVzELMAkG
A1UEBhMCQkUxGTAXBgNVBAoTEEdsb2JhbFNpZ24gbnYtc2ExEDAOBgNVBAsTB1Jv
b3QgQ0ExGzAZBgNVBAMTEkdsb2JhbFNpZ24gUm9vdCBDQTAeFw0xMTA0MTMxMDAw
MDBaFw0yODAxMjgxMjAwMDBaMFIxCzAJBgNVBAYTAkJFMRkwFwYDVQQKExBHbG9i
YWxTaWduIG52LXNhMSgwJgYDVQQDEx9HbG9iYWxTaWduIFRpbWVzdGFtcGluZyBD
QSAtIEcyMIIBIjANBgkqhkiG9w0BAQEFAAOCAQ8AMIIBCgKCAQEAlO9l+LVXn6BT
DTQG6wkft0cYasvwW+T/J6U00feJGr+esc0SQW5m1IGghYtkWkYvmaCNd7HivFzd
ItdqZ9C76Mp03otPDbBS5ZBb60cO8eefnAuQZT4XljBFcm05oRc2yrmgjBtPCBn2
gTGtYRakYua0QJ7D/PuV9vu1LpWBmODvxevYAll4d/eq41JrUJEpxfz3zZNl0mBh
IvIG+zLdFlH6Dv2KMPAXCae78wSuq5DnbN96qfTvxGInX2+ZbTh0qhGL2t/HFEzp
hbLswn1KJo/nVrqm4M+SU4B09APsaLJgvIQgAIMboe60dAXBKY5i0Eex+vBTzBj5
Ljv5cH60JQIDAQABo4HlMIHiMA4GA1UdDwEB/wQEAwIBBjASBgNVHRMBAf8ECDAG
AQH/AgEAMB0GA1UdDgQWBBRG2D7/3OO+/4Pm9IWbsN1q1hSpwTBHBgNVHSAEQDA+
MDwGBFUdIAAwNDAyBggrBgEFBQcCARYmaHR0cHM6Ly93d3cuZ2xvYmFsc2lnbi5j
b20vcmVwb3NpdG9yeS8wMwYDVR0fBCwwKjAooCagJIYiaHR0cDovL2NybC5nbG9i
YWxzaWduLm5ldC9yb290LmNybDAfBgNVHSMEGDAWgBRge2YaRQ2XyolQL30EzTSo
//z9SzANBgkqhkiG9w0BAQUFAAOCAQEATl5WkB5GtNlJMfO7FzkoG8IW3f1B3AkF
BJtvsqKa1pkuQJkAVbXqP6UgdtOGNNQXzFU6x4Lu76i6vNgGnxVQ380We1I6AtcZ
Gv2v8Hhc4EvFGN86JB7arLipWAQCBzDbsBJe/jG+8ARI9PBw+DpeVoPPPfsNvPTF
7ZedudTbpSeE4zibi6c1hkQgpDttpGoLoYP9KOva7yj2zIhd+wo7AKvgIeviLzVs
D440RZfroveZMzV+y5qKu0VN5z+fwtmK+mWybsd+Zf/okuEsMaL3sCc2SI8mbzvu
TXYfecPlf5Y1vC0OzAGwjn//UYCAp5LUs0RGZIyHTxZjBzFLY7Df8w==
-----END CERTIFICATE-----

Certificate:
    Data:
        Version: 3 (0x2)
        Serial Number:
            04:00:00:00:00:01:2f:4e:e1:35:5c
    Signature Algorithm: sha1WithRSAEncryption
        Issuer: C=BE, O=GlobalSign nv-sa, OU=Root CA, CN=GlobalSign Root CA
        Validity
            Not Before: Apr 13 10:00:00 2011 GMT
            Not After : Apr 13 10:00:00 2019 GMT
        Subject: C=BE, O=GlobalSign nv-sa, CN=GlobalSign CodeSigning CA - G2
        Subject Public Key Info:
            Public Key Algorithm: rsaEncryption
                Public-Key: (2048 bit)
                Modulus:
                    00:b2:4f:14:e7:10:be:d7:26:72:ab:36:97:ef:53:
                    bf:42:84:5e:58:d1:8a:28:fc:43:46:6f:7e:28:44:
                    50:0b:75:5d:00:d7:3c:0a:44:9e:20:6a:a4:f7:45:
                    4a:37:60:a3:6e:3f:12:fa:6d:fa:b6:46:c3:6a:a3:
                    b8:0c:27:28:02:57:28:d1:50:f7:61:39:55:b8:c3:
                    e1:25:86:52:3c:bf:05:1d:d7:b3:9a:f8:9a:24:31:
                    49:d5:a2:a9:e2:d3:91:ab:3e:3c:73:ef:f6:29:f1:
                    c8:35:d0:30:7b:7f:4e:92:a5:06:8f:87:e2:ce:f5:
                    c1:63:66:ac:18:69:2a:c1:5e:bb:5a:e8:6e:95:ff:
                    3b:80:62:9d:99:c7:c7:2f:66:d5:fd:62:1a:82:55:
                    5a:c6:fa:40:77:8e:c9:30:3c:1b:f0:f2:35:b8:6c:
                    59:9c:fd:e9:d6:ca:b4:40:1e:f7:04:ca:d1:67:a9:
                    74:e3:a5:08:54:d9:83:35:3b:8e:8c:23:0c:75:b6:
                    de:86:4a:9e:1a:3e:0a:50:49:38:9c:d2:a8:90:bf:
                    98:fa:c8:8c:2b:27:11:7e:2a:fb:ce:de:a9:ae:38:
                    93:22:fa:a6:ec:fb:5c:61:76:c3:44:d6:cc:0c:7e:
                    2f:6d:06:80:a2:74:40:bb:b7:1f:f4:3b:d7:73:54:
                    1f:f3
                Exponent: 65537 (0x10001)
        X509v3 extensions:
            X509v3 Key Usage: critical
                Certificate Sign, CRL Sign
            X509v3 Basic Constraints: critical
                CA:TRUE, pathlen:0
            X509v3 Subject Key Identifier: 
                08:6E:D8:B6:9C:8A:BF:ED:3E:D7:C3:74:5D:CC:80:1F:A8:2F:50:7A
            X509v3 Certificate Policies: 
                Policy: X509v3 Any Policy
                  CPS: https://www.globalsign.com/repository/

            X509v3 CRL Distribution Points: 

                Full Name:
                  URI:http://crl.globalsign.net/root.crl

            X509v3 Extended Key Usage: 
                Code Signing
            X509v3 Authority Key Identifier: 
                keyid:60:7B:66:1A:45:0D:97:CA:89:50:2F:7D:04:CD:34:A8:FF:FC:FD:4B

    Signature Algorithm: sha1WithRSAEncryption
         22:5c:c5:dd:3d:f4:0b:70:d8:e3:f5:e7:c5:8e:09:01:bb:b1:
         96:36:5c:5a:07:ad:c7:a8:44:49:51:25:7a:ae:0d:a4:19:3b:
         92:9c:cf:b9:42:26:bb:3b:6c:97:e7:c7:ce:11:6d:68:91:da:
         8d:6d:f1:53:4d:54:38:8c:61:f3:c8:82:76:69:be:81:32:0b:
         31:c3:6c:c9:9e:20:0a:58:2f:f0:48:fe:7e:48:07:aa:d7:43:
         58:94:73:54:04:31:a9:78:0d:3b:8c:b0:70:c1:3d:7e:d7:bd:
         2f:2a:c3:e2:f5:8f:0c:90:dc:6b:a5:c8:be:68:5e:5d:6d:f8:
         78:d2:be:49:95:1e:15:78:08:91:fb:34:c8:be:84:ad:bc:e0:
         c6:dd:18:db:f3:ca:f0:7b:c2:14:3c:18:b8:03:ba:95:3e:21:
         1e:3f:60:69:7a:7f:6a:03:9e:8d:4a:f9:f0:28:2c:30:84:5e:
         ec:26:72:42:b1:6d:cb:64:c3:12:8c:d6:84:4b:67:41:7c:b1:
         03:17:78:09:e3:ad:a8:b6:96:2d:a4:7e:80:03:4f:88:f7:c1:
         6b:5a:46:15:cd:2c:19:8b:d8:70:9c:e5:2d:49:88:60:72:a8:
         a4:19:52:70:43:5e:da:d6:46:03:b0:68:0e:24:ef:4a:f6:0b:
         25:24:ef:24
-----BEGIN CERTIFICATE-----
MIIEKDCCAxCgAwIBAgILBAAAAAABL07hNVwwDQYJKoZIhvcNAQEFBQAwVzELMAkG
A1UEBhMCQkUxGTAXBgNVBAoTEEdsb2JhbFNpZ24gbnYtc2ExEDAOBgNVBAsTB1Jv
b3QgQ0ExGzAZBgNVBAMTEkdsb2JhbFNpZ24gUm9vdCBDQTAeFw0xMTA0MTMxMDAw
MDBaFw0xOTA0MTMxMDAwMDBaMFExCzAJBgNVBAYTAkJFMRkwFwYDVQQKExBHbG9i
YWxTaWduIG52LXNhMScwJQYDVQQDEx5HbG9iYWxTaWduIENvZGVTaWduaW5nIENB
IC0gRzIwggEiMA0GCSqGSIb3DQEBAQUAA4IBDwAwggEKAoIBAQCyTxTnEL7XJnKr
NpfvU79ChF5Y0Yoo/ENGb34oRFALdV0A1zwKRJ4gaqT3RUo3YKNuPxL6bfq2RsNq
o7gMJygCVyjRUPdhOVW4w+ElhlI8vwUd17Oa+JokMUnVoqni05GrPjxz7/Yp8cg1
0DB7f06SpQaPh+LO9cFjZqwYaSrBXrta6G6V/zuAYp2Zx8cvZtX9YhqCVVrG+kB3
jskwPBvw8jW4bFmc/enWyrRAHvcEytFnqXTjpQhU2YM1O46MIwx1tt6GSp4aPgpQ
STic0qiQv5j6yIwrJxF+KvvO3qmuOJMi+qbs+1xhdsNE1swMfi9tBoCidEC7tx/0
O9dzVB/zAgMBAAGjgfowgfcwDgYDVR0PAQH/BAQDAgEGMBIGA1UdEwEB/wQIMAYB
Af8CAQAwHQYDVR0OBBYEFAhu2Lacir/tPtfDdF3MgB+oL1B6MEcGA1UdIARAMD4w
PAYEVR0gADA0MDIGCCsGAQUFBwIBFiZodHRwczovL3d3dy5nbG9iYWxzaWduLmNv
bS9yZXBvc2l0b3J5LzAzBgNVHR8ELDAqMCigJqAkhiJodHRwOi8vY3JsLmdsb2Jh
bHNpZ24ubmV0L3Jvb3QuY3JsMBMGA1UdJQQMMAoGCCsGAQUFBwMDMB8GA1UdIwQY
MBaAFGB7ZhpFDZfKiVAvfQTNNKj//P1LMA0GCSqGSIb3DQEBBQUAA4IBAQAiXMXd
PfQLcNjj9efFjgkBu7GWNlxaB63HqERJUSV6rg2kGTuSnM+5Qia7O2yX58fOEW1o
kdqNbfFTTVQ4jGHzyIJ2ab6BMgsxw2zJniAKWC/wSP5+SAeq10NYlHNUBDGpeA07
jLBwwT1+170vKsPi9Y8MkNxrpci+aF5dbfh40r5JlR4VeAiR+zTIvoStvODG3Rjb
88rwe8IUPBi4A7qVPiEeP2Bpen9qA56NSvnwKCwwhF7sJnJCsW3LZMMSjNaES2dB
fLEDF3gJ462otpYtpH6AA0+I98FrWkYVzSwZi9hwnOUtSYhgcqikGVJwQ17a1kYD
sGgOJO9K9gslJO8k
-----END CERTIFICATE-----

Certificate:
    Data:
        Version: 3 (0x2)
        Serial Number:
            11:21:40:5c:1f:0e:d2:58:88:2b:e5:4d:86:86:ba:11:ea:45
    Signature Algorithm: sha1WithRSAEncryption
        Issuer: C=BE, O=GlobalSign nv-sa, CN=GlobalSign Timestamping CA - G2
        Validity
            Not Before: Aug 23 00:00:00 2013 GMT
            Not After : Sep 23 00:00:00 2024 GMT
        Subject: C=SG, O=GMO GlobalSign Pte Ltd, CN=GlobalSign TSA for MS Authenticode - G1
        Subject Public Key Info:
            Public Key Algorithm: rsaEncryption
                Public-Key: (2048 bit)
                Modulus:
                    00:b0:17:ae:a2:d3:b6:04:30:56:1e:58:0f:b1:ed:
                    55:a4:d6:54:cb:d8:f6:73:3a:ec:5d:5e:ab:25:fd:
                    36:a5:fa:84:c3:61:40:c5:46:b5:59:52:3b:42:a2:
                    2e:5f:13:62:10:a9:5b:e6:73:d6:92:25:b1:7d:23:
                    e3:06:b3:87:3a:0e:43:f0:d7:00:89:53:a2:11:31:
                    52:28:6e:5d:40:72:3c:f2:09:77:a7:49:92:97:d4:
                    6c:90:a0:76:a7:fd:b8:dc:b3:9d:f2:07:60:2c:4f:
                    58:98:00:6b:d3:15:54:e0:fa:dd:ff:80:2c:5f:18:
                    a6:98:ff:d4:ab:ec:a1:45:59:b2:2e:6f:62:5d:e0:
                    d9:19:ac:8b:57:9c:a8:26:2b:d9:17:a5:10:d2:47:
                    08:1a:70:2c:33:8b:7f:68:80:2a:b5:a1:5d:6b:dd:
                    8d:02:02:29:03:aa:7c:37:bb:bb:29:4e:3d:53:93:
                    b3:a6:fa:8f:d2:58:93:15:4c:b9:2d:ab:80:a3:a3:
                    25:fb:af:f7:08:64:b0:7a:44:0f:5c:10:d7:5f:61:
                    37:aa:4e:6b:d3:d2:53:25:9d:82:73:fa:2c:f9:72:
                    b0:a9:19:39:2a:50:fa:a9:d0:3c:3a:ca:e8:5b:ef:
                    f5:5f:51:f4:f9:0a:d9:97:35:de:6a:85:e6:23:04:
                    42:af
                Exponent: 65537 (0x10001)
        X509v3 extensions:
            X509v3 Key Usage: critical
                Digital Signature
            X509v3 Certificate Policies: 
                Policy: 1.3.6.1.4.1.4146.1.30
                  CPS: https://www.globalsign.com/repository/

            X509v3 Basic Constraints: 
                CA:FALSE
            X509v3 Extended Key Usage: critical
                Time Stamping
            X509v3 CRL Distribution Points: 

                Full Name:
                  URI:http://crl.globalsign.com/gs/gstimestampingg2.crl

            Authority Information Access: 
                CA Issuers - URI:http://secure.globalsign.com/cacert/gstimestampingg2.crt

            X509v3 Subject Key Identifier: 
                D4:A2:84:4A:38:5A:18:7F:BA:4F:30:50:BD:9D:D5:7A:87:D6:09:F7
            X509v3 Authority Key Identifier: 
                keyid:46:D8:3E:FF:DC:E3:BE:FF:83:E6:F4:85:9B:B0:DD:6A:D6:14:A9:C1

    Signature Algorithm: sha1WithRSAEncryption
         02:31:14:2e:58:57:64:41:85:e8:af:12:75:3c:88:1c:c3:5e:
         ec:2c:e9:a1:3c:f5:ba:aa:53:1d:b9:d1:29:63:dc:43:67:86:
         d4:39:da:de:c6:c9:ff:be:45:85:f4:a4:d7:c1:51:ea:18:ee:
         40:58:5e:e6:7b:cc:a2:41:29:13:38:c8:ea:21:16:9c:ce:90:
         a6:2e:fb:a6:ca:d9:94:df:40:1d:f9:02:18:2b:be:f6:5d:4f:
         9f:ff:9a:48:db:c5:05:09:ca:80:ce:a0:f9:dc:4b:c3:23:e6:
         03:8f:b4:b4:af:5b:71:29:61:91:18:1a:6b:7a:f2:fd:0d:d1:
         cd:7d:5e:98:eb:ba:70:5e:e5:f4:ea:43:de:35:3d:c5:14:81:
         8a:db:3e:10:5e:bb:72:fa:a1:a0:93:ab:03:1c:c1:65:3c:91:
         13:8b:04:5d:2b:c4:b9:16:1b:cc:55:c5:0c:e8:ab:e7:43:c9:
         b2:83:28:a5:53:13:47:ab:39:64:b9:1c:ea:34:30:b1:76:00:
         95:21:f1:d4:3d:a8:fd:a0:00:32:d7:6e:98:3c:a6:9c:3b:0b:
         83:be:cb:b8:bb:2a:26:8c:59:b8:b9:ae:af:26:ac:e2:34:a2:
         dc:21:0d:81:0b:38:13:f7:45:a3:e3:db:c4:ac:a1:6d:1b:b7:
         e5:61:5c:d7
-----BEGIN CERTIFICATE-----
MIIEnzCCA4egAwIBAgISESFAXB8O0liIK+VNhoa6EepFMA0GCSqGSIb3DQEBBQUA
MFIxCzAJBgNVBAYTAkJFMRkwFwYDVQQKExBHbG9iYWxTaWduIG52LXNhMSgwJgYD
VQQDEx9HbG9iYWxTaWduIFRpbWVzdGFtcGluZyBDQSAtIEcyMB4XDTEzMDgyMzAw
MDAwMFoXDTI0MDkyMzAwMDAwMFowYDELMAkGA1UEBhMCU0cxHzAdBgNVBAoTFkdN
TyBHbG9iYWxTaWduIFB0ZSBMdGQxMDAuBgNVBAMTJ0dsb2JhbFNpZ24gVFNBIGZv
ciBNUyBBdXRoZW50aWNvZGUgLSBHMTCCASIwDQYJKoZIhvcNAQEBBQADggEPADCC
AQoCggEBALAXrqLTtgQwVh5YD7HtVaTWVMvY9nM67F1eqyX9NqX6hMNhQMVGtVlS
O0KiLl8TYhCpW+Zz1pIlsX0j4wazhzoOQ/DXAIlTohExUihuXUByPPIJd6dJkpfU
bJCgdqf9uNyznfIHYCxPWJgAa9MVVOD63f+ALF8Yppj/1KvsoUVZsi5vYl3g2Rms
i1ecqCYr2RelENJHCBpwLDOLf2iAKrWhXWvdjQICKQOqfDe7uylOPVOTs6b6j9JY
kxVMuS2rgKOjJfuv9whksHpED1wQ119hN6pOa9PSUyWdgnP6LPlysKkZOSpQ+qnQ
PDrK6Fvv9V9R9PkK2Zc13mqF5iMEQq8CAwEAAaOCAV8wggFbMA4GA1UdDwEB/wQE
AwIHgDBMBgNVHSAERTBDMEEGCSsGAQQBoDIBHjA0MDIGCCsGAQUFBwIBFiZodHRw
czovL3d3dy5nbG9iYWxzaWduLmNvbS9yZXBvc2l0b3J5LzAJBgNVHRMEAjAAMBYG
A1UdJQEB/wQMMAoGCCsGAQUFBwMIMEIGA1UdHwQ7MDkwN6A1oDOGMWh0dHA6Ly9j
cmwuZ2xvYmFsc2lnbi5jb20vZ3MvZ3N0aW1lc3RhbXBpbmdnMi5jcmwwVAYIKwYB
BQUHAQEESDBGMEQGCCsGAQUFBzAChjhodHRwOi8vc2VjdXJlLmdsb2JhbHNpZ24u
Y29tL2NhY2VydC9nc3RpbWVzdGFtcGluZ2cyLmNydDAdBgNVHQ4EFgQU1KKESjha
GH+6TzBQvZ3VeofWCfcwHwYDVR0jBBgwFoAURtg+/9zjvv+D5vSFm7DdatYUqcEw
DQYJKoZIhvcNAQEFBQADggEBAAIxFC5YV2RBheivEnU8iBzDXuws6aE89bqqUx25
0Slj3ENnhtQ52t7Gyf++RYX0pNfBUeoY7kBYXuZ7zKJBKRM4yOohFpzOkKYu+6bK
2ZTfQB35AhgrvvZdT5//mkjbxQUJyoDOoPncS8Mj5gOPtLSvW3EpYZEYGmt68v0N
0c19XpjrunBe5fTqQ941PcUUgYrbPhBeu3L6oaCTqwMcwWU8kROLBF0rxLkWG8xV
xQzoq+dDybKDKKVTE0erOWS5HOo0MLF2AJUh8dQ9qP2gADLXbpg8ppw7C4O+y7i7
KiaMWbi5rq8mrOI0otwhDYELOBP3RaPj28SsoW0bt+VhXNc=
-----END CERTIFICATE-----

Certificate:
    Data:
        Version: 3 (0x2)
        Serial Number:
            11:21:47:6b:54:73:07:01:22:1e:6b:e1:28:2a:07:b2:82:cb
    Signature Algorithm: sha1WithRSAEncryption
        Issuer: C=BE, O=GlobalSign nv-sa, CN=GlobalSign CodeSigning CA - G2
        Validity
            Not Before: Mar  7 21:09:48 2012 GMT
            Not After : Mar  8 21:09:48 2015 GMT
        Subject: C=MY, ST=Kuala Lumpur, L=Kuala Lumpur, O=Newsoftwares.net, Inc SDN BHD, CN=Newsoftwares.net, Inc SDN BHD
        Subject Public Key Info:
            Public Key Algorithm: rsaEncryption
                Public-Key: (2048 bit)
                Modulus:
                    00:c2:f8:ee:98:3d:8b:b8:2a:08:90:48:60:82:3b:
                    56:e1:8c:3e:d4:20:f1:ac:92:f5:b4:d2:9c:eb:d4:
                    35:dd:4a:81:a2:79:ae:71:d4:e8:ec:e8:80:d7:a5:
                    ce:b9:74:58:e9:b3:29:c9:73:00:a0:76:77:88:33:
                    f0:28:83:30:b4:b6:78:d4:fb:56:2a:ef:b3:ea:b4:
                    bb:8e:89:ce:7d:ef:2c:fd:2b:21:66:2c:94:8b:2a:
                    18:01:a6:b4:6e:2a:28:43:ae:65:37:2a:15:a7:43:
                    0e:ff:b9:3d:85:5e:4c:ea:26:43:93:f9:1f:fb:5b:
                    fc:e9:e5:57:c8:1a:fa:44:7f:a3:d0:7b:78:57:94:
                    cd:80:30:11:13:ba:89:c7:b7:9d:c9:78:98:90:b9:
                    de:b6:14:0f:40:8f:39:c8:4e:7f:63:64:33:0f:a6:
                    00:94:22:50:9b:83:c5:33:69:e2:73:28:34:c2:be:
                    13:11:ed:85:f9:cf:a1:b2:86:91:59:c3:6e:7c:1f:
                    96:d3:96:f5:43:58:d6:59:13:14:10:c6:94:e1:f5:
                    5b:38:ba:0d:4d:24:2f:bc:c3:6c:73:4b:48:96:6e:
                    95:c2:50:a3:27:22:fe:9d:8b:ce:c5:c4:87:89:f1:
                    83:8e:dd:42:e5:9c:63:a8:e1:a5:80:24:e0:04:2e:
                    6f:ed
                Exponent: 65537 (0x10001)
        X509v3 extensions:
            X509v3 Key Usage: critical
                Digital Signature
            X509v3 Certificate Policies: 
                Policy: 1.3.6.1.4.1.4146.1.50
                  CPS: https://www.globalsign.com/repository/

            X509v3 Basic Constraints: 
                CA:FALSE
            X509v3 Extended Key Usage: 
                Code Signing
            X509v3 CRL Distribution Points: 

                Full Name:
                  URI:http://crl.globalsign.com/gs/gscodesigng2.crl

            Authority Information Access: 
                CA Issuers - URI:http://secure.globalsign.com/cacert/gscodesigng2.crt

            X509v3 Subject Key Identifier: 
                36:DB:1A:ED:70:B9:AA:6B:BD:E0:C4:03:1A:C7:9C:B1:06:00:B4:93
            X509v3 Authority Key Identifier: 
                keyid:08:6E:D8:B6:9C:8A:BF:ED:3E:D7:C3:74:5D:CC:80:1F:A8:2F:50:7A

    Signature Algorithm: sha1WithRSAEncryption
         58:f1:86:58:2e:80:87:0d:95:74:79:48:09:73:0c:d1:43:36:
         dc:20:15:5d:a0:af:eb:e8:00:36:b3:0e:d6:89:1d:32:87:23:
         72:55:5a:7a:b0:8e:5b:ea:91:58:ac:5c:34:07:5c:c5:31:fa:
         f9:6b:49:12:8d:86:d1:7e:9f:2e:10:d2:a2:29:35:41:1c:4f:
         9a:d4:ce:b9:0c:a8:78:26:e7:a4:e3:c9:91:a1:1a:e5:fc:d4:
         f1:f1:e2:1f:98:93:0f:48:4f:92:8c:56:e5:87:46:0a:33:ce:
         28:63:6d:e5:fb:5f:ce:07:4e:82:b7:b5:aa:4f:5e:a3:50:5f:
         97:bb:39:79:41:18:96:4a:f1:40:7a:71:f7:4e:a3:8b:71:20:
         aa:59:f1:70:7c:c0:50:85:7c:25:03:98:bf:91:1f:39:a7:88:
         6e:78:d9:b9:cf:a3:b5:e9:91:a4:3a:a7:63:02:34:6e:8d:a5:
         5c:fb:a5:6b:cd:a0:76:81:41:f5:ac:ea:b6:8f:9c:32:3f:1d:
         b9:5e:de:d7:72:37:6d:c3:9c:8c:85:3e:1b:63:af:de:6a:a3:
         93:d5:2e:9c:57:23:1d:fe:07:7e:1c:e8:b2:6e:d1:77:b6:57:
         c7:08:e0:92:90:2e:78:bb:03:32:97:d9:3a:86:02:15:fb:2c:
         bc:77:68:2c
-----BEGIN CERTIFICATE-----
MIIEvzCCA6egAwIBAgISESFHa1RzBwEiHmvhKCoHsoLLMA0GCSqGSIb3DQEBBQUA
MFExCzAJBgNVBAYTAkJFMRkwFwYDVQQKExBHbG9iYWxTaWduIG52LXNhMScwJQYD
VQQDEx5HbG9iYWxTaWduIENvZGVTaWduaW5nIENBIC0gRzIwHhcNMTIwMzA3MjEw
OTQ4WhcNMTUwMzA4MjEwOTQ4WjCBizELMAkGA1UEBhMCTVkxFTATBgNVBAgTDEt1
YWxhIEx1bXB1cjEVMBMGA1UEBxMMS3VhbGEgTHVtcHVyMSYwJAYDVQQKEx1OZXdz
b2Z0d2FyZXMubmV0LCBJbmMgU0ROIEJIRDEmMCQGA1UEAxMdTmV3c29mdHdhcmVz
Lm5ldCwgSW5jIFNETiBCSEQwggEiMA0GCSqGSIb3DQEBAQUAA4IBDwAwggEKAoIB
AQDC+O6YPYu4KgiQSGCCO1bhjD7UIPGskvW00pzr1DXdSoGiea5x1Ojs6IDXpc65
dFjpsynJcwCgdneIM/AogzC0tnjU+1Yq77PqtLuOic597yz9KyFmLJSLKhgBprRu
KihDrmU3KhWnQw7/uT2FXkzqJkOT+R/7W/zp5VfIGvpEf6PQe3hXlM2AMBETuonH
t53JeJiQud62FA9AjznITn9jZDMPpgCUIlCbg8UzaeJzKDTCvhMR7YX5z6GyhpFZ
w258H5bTlvVDWNZZExQQxpTh9Vs4ug1NJC+8w2xzS0iWbpXCUKMnIv6di87FxIeJ
8YOO3ULlnGOo4aWAJOAELm/tAgMBAAGjggFUMIIBUDAOBgNVHQ8BAf8EBAMCB4Aw
TAYDVR0gBEUwQzBBBgkrBgEEAaAyATIwNDAyBggrBgEFBQcCARYmaHR0cHM6Ly93
d3cuZ2xvYmFsc2lnbi5jb20vcmVwb3NpdG9yeS8wCQYDVR0TBAIwADATBgNVHSUE
DDAKBggrBgEFBQcDAzA+BgNVHR8ENzA1MDOgMaAvhi1odHRwOi8vY3JsLmdsb2Jh
bHNpZ24uY29tL2dzL2dzY29kZXNpZ25nMi5jcmwwUAYIKwYBBQUHAQEERDBCMEAG
CCsGAQUFBzAChjRodHRwOi8vc2VjdXJlLmdsb2JhbHNpZ24uY29tL2NhY2VydC9n
c2NvZGVzaWduZzIuY3J0MB0GA1UdDgQWBBQ22xrtcLmqa73gxAMax5yxBgC0kzAf
BgNVHSMEGDAWgBQIbti2nIq/7T7Xw3RdzIAfqC9QejANBgkqhkiG9w0BAQUFAAOC
AQEAWPGGWC6Ahw2VdHlICXMM0UM23CAVXaCv6+gANrMO1okdMocjclVaerCOW+qR
WKxcNAdcxTH6+WtJEo2G0X6fLhDSoik1QRxPmtTOuQyoeCbnpOPJkaEa5fzU8fHi
H5iTD0hPkoxW5YdGCjPOKGNt5ftfzgdOgre1qk9eo1Bfl7s5eUEYlkrxQHpx906j
i3EgqlnxcHzAUIV8JQOYv5EfOaeIbnjZuc+jtemRpDqnYwI0bo2lXPula82gdoFB
9azqto+cMj8duV7e13I3bcOcjIU+G2Ov3mqjk9UunFcjHf4Hfhzosm7Rd7ZXxwjg
kpAueLsDMpfZOoYCFfssvHdoLA==
-----END CERTIFICATE-----

