Certificate:
    Data:
        Version: 3 (0x2)
        Serial Number:
            6f:5e:8c:5c:82:ef:19:ad:18:4d:77:ee:33:a1:5c:bc
    Signature Algorithm: sha256WithRSAEncryption
        Issuer: C=GB, ST=Greater Manchester, L=Salford, O=COMODO CA Limited, CN=COMODO RSA Code Signing CA
        Validity
            Not Before: Jun 12 00:00:00 2017 GMT
            Not After : Jun 12 23:59:59 2018 GMT
        Subject: C=RU/postalCode=117556, ST=Russia, L=Moscow/street=Fructovaya St, 5-1, O=INTELLIDZHENT KONVERTERS, OOO, CN=INTELLIDZHENT KONVERTERS, OOO
        Subject Public Key Info:
            Public Key Algorithm: rsaEncryption
                Public-Key: (2048 bit)
                Modulus:
                    00:b3:a6:bf:56:98:13:af:74:71:49:3e:95:b5:64:
                    b5:80:ad:27:59:15:5f:89:8d:ed:67:ee:ff:87:02:
                    f3:54:cd:a4:68:b4:4f:05:54:49:4c:99:bb:7e:ca:
                    5c:64:c2:db:76:c7:e4:c3:31:78:19:47:0e:99:0f:
                    f9:13:8e:8c:9f:da:9c:be:4f:20:14:37:2b:2c:ff:
                    37:5b:36:bd:25:76:44:0f:4b:d8:22:09:d9:81:98:
                    b0:12:54:a1:a9:41:15:5b:b9:c5:d6:fd:5a:4f:f8:
                    72:67:7d:00:4d:22:7e:a7:20:a6:e6:65:10:79:3c:
                    9c:51:5c:38:5a:2c:9d:d1:7d:78:cb:c7:c2:7a:da:
                    59:bd:72:95:9f:6f:8e:2f:a3:4e:a4:2d:c4:3b:5f:
                    0b:60:36:5b:a8:0e:53:97:91:0d:31:b9:22:cf:06:
                    73:19:77:76:b9:d4:43:c4:63:36:d1:47:1c:ef:1c:
                    94:3c:59:ba:38:1d:cc:e6:dd:cc:ee:39:ca:d3:85:
                    d0:d2:36:66:26:9e:4b:ec:4c:2d:db:61:3d:80:d7:
                    30:cb:7a:09:4f:c9:35:38:54:a9:a4:3e:45:67:27:
                    ea:41:73:b4:0f:10:ac:b6:0a:01:1c:ab:2d:9c:06:
                    94:48:9e:c3:51:d7:ac:02:0d:5b:d9:d4:5c:8a:c1:
                    f2:19
                Exponent: 65537 (0x10001)
        X509v3 extensions:
            X509v3 Authority Key Identifier: 
                keyid:29:91:60:FF:8A:4D:FA:EB:F9:A6:6A:B8:CF:F9:E6:4B:BD:49:CE:12

            X509v3 Subject Key Identifier: 
                46:72:FC:99:42:B5:B4:EB:05:13:94:1E:1A:4F:0E:EB:D2:0B:3D:0C
            X509v3 Key Usage: critical
                Digital Signature
            X509v3 Basic Constraints: critical
                CA:FALSE
            X509v3 Extended Key Usage: 
                Code Signing
            Netscape Cert Type: 
                Object Signing
            X509v3 Certificate Policies: 
                Policy: 1.3.6.1.4.1.6449.1.2.1.3.2
                  CPS: https://secure.comodo.net/CPS

            X509v3 CRL Distribution Points: 

                Full Name:
                  URI:http://crl.comodoca.com/COMODORSACodeSigningCA.crl

            Authority Information Access: 
                CA Issuers - URI:http://crt.comodoca.com/COMODORSACodeSigningCA.crt
                OCSP - URI:http://ocsp.comodoca.com

    Signature Algorithm: sha256WithRSAEncryption
         88:5c:7e:41:f7:44:63:19:c7:38:b8:1b:f5:17:73:db:f7:0d:
         b9:75:47:14:ec:dd:af:41:1b:c0:db:93:b5:33:a9:af:53:cb:
         1a:44:92:cf:81:51:59:7e:1e:71:d7:b6:3c:d7:46:3e:4c:54:
         4c:5f:83:95:87:71:11:c2:5f:25:a0:15:fd:9c:7c:7b:c5:ae:
         a0:be:aa:c4:4b:42:40:3a:c0:37:fa:86:eb:46:db:b2:f8:cc:
         b6:16:f6:e6:ae:52:7b:70:e1:de:5d:a1:71:c5:de:2c:69:66:
         a9:4b:7c:30:90:2b:07:59:7e:bb:61:f4:70:eb:f4:4a:4a:87:
         0e:32:a8:c4:eb:af:8d:1b:d3:2c:6c:0e:7c:43:53:f1:2e:a1:
         b4:bd:16:46:17:c1:b0:01:21:37:18:3a:ca:6f:2f:60:e2:d6:
         e5:a9:af:d7:85:da:64:3c:ad:8b:e6:df:94:cf:73:fa:bf:c1:
         a1:5f:d8:da:34:65:94:95:f6:fe:67:71:f0:8f:7c:54:b9:0e:
         00:c2:e1:bf:34:e4:16:2e:5b:71:67:ea:ea:03:b3:36:7d:90:
         4b:68:a3:34:3b:78:64:d2:5e:e7:9f:70:3b:53:f7:bb:13:fa:
         9f:1a:e0:04:27:75:c0:66:5f:47:a3:e6:84:90:6d:ab:1b:93:
         f3:5a:63:a2
-----BEGIN CERTIFICATE-----
MIIFRDCCBCygAwIBAgIQb16MXILvGa0YTXfuM6FcvDANBgkqhkiG9w0BAQsFADB9
MQswCQYDVQQGEwJHQjEbMBkGA1UECBMSR3JlYXRlciBNYW5jaGVzdGVyMRAwDgYD
VQQHEwdTYWxmb3JkMRowGAYDVQQKExFDT01PRE8gQ0EgTGltaXRlZDEjMCEGA1UE
AxMaQ09NT0RPIFJTQSBDb2RlIFNpZ25pbmcgQ0EwHhcNMTcwNjEyMDAwMDAwWhcN
MTgwNjEyMjM1OTU5WjCBrTELMAkGA1UEBhMCUlUxDzANBgNVBBEMBjExNzU1NjEP
MA0GA1UECAwGUnVzc2lhMQ8wDQYDVQQHDAZNb3Njb3cxGzAZBgNVBAkMEkZydWN0
b3ZheWEgU3QsIDUtMTEmMCQGA1UECgwdSU5URUxMSURaSEVOVCBLT05WRVJURVJT
LCBPT08xJjAkBgNVBAMMHUlOVEVMTElEWkhFTlQgS09OVkVSVEVSUywgT09PMIIB
IjANBgkqhkiG9w0BAQEFAAOCAQ8AMIIBCgKCAQEAs6a/VpgTr3RxST6VtWS1gK0n
WRVfiY3tZ+7/hwLzVM2kaLRPBVRJTJm7fspcZMLbdsfkwzF4GUcOmQ/5E46Mn9qc
vk8gFDcrLP83Wza9JXZED0vYIgnZgZiwElShqUEVW7nF1v1aT/hyZ30ATSJ+pyCm
5mUQeTycUVw4Wiyd0X14y8fCetpZvXKVn2+OL6NOpC3EO18LYDZbqA5Tl5ENMbki
zwZzGXd2udRDxGM20Ucc7xyUPFm6OB3M5t3M7jnK04XQ0jZmJp5L7Ewt22E9gNcw
y3oJT8k1OFSppD5FZyfqQXO0DxCstgoBHKstnAaUSJ7DUdesAg1b2dRcisHyGQID
AQABo4IBjTCCAYkwHwYDVR0jBBgwFoAUKZFg/4pN+uv5pmq4z/nmS71JzhIwHQYD
VR0OBBYEFEZy/JlCtbTrBROUHhpPDuvSCz0MMA4GA1UdDwEB/wQEAwIHgDAMBgNV
HRMBAf8EAjAAMBMGA1UdJQQMMAoGCCsGAQUFBwMDMBEGCWCGSAGG+EIBAQQEAwIE
EDBGBgNVHSAEPzA9MDsGDCsGAQQBsjEBAgEDAjArMCkGCCsGAQUFBwIBFh1odHRw
czovL3NlY3VyZS5jb21vZG8ubmV0L0NQUzBDBgNVHR8EPDA6MDigNqA0hjJodHRw
Oi8vY3JsLmNvbW9kb2NhLmNvbS9DT01PRE9SU0FDb2RlU2lnbmluZ0NBLmNybDB0
BggrBgEFBQcBAQRoMGYwPgYIKwYBBQUHMAKGMmh0dHA6Ly9jcnQuY29tb2RvY2Eu
Y29tL0NPTU9ET1JTQUNvZGVTaWduaW5nQ0EuY3J0MCQGCCsGAQUFBzABhhhodHRw
Oi8vb2NzcC5jb21vZG9jYS5jb20wDQYJKoZIhvcNAQELBQADggEBAIhcfkH3RGMZ
xzi4G/UXc9v3Dbl1RxTs3a9BG8Dbk7Uzqa9TyxpEks+BUVl+HnHXtjzXRj5MVExf
g5WHcRHCXyWgFf2cfHvFrqC+qsRLQkA6wDf6hutG27L4zLYW9uauUntw4d5doXHF
3ixpZqlLfDCQKwdZfrth9HDr9EpKhw4yqMTrr40b0yxsDnxDU/EuobS9FkYXwbAB
ITcYOspvL2Di1uWpr9eF2mQ8rYvm35TPc/q/waFf2No0ZZSV9v5ncfCPfFS5DgDC
4b805BYuW3Fn6uoDszZ9kEtoozQ7eGTSXuefcDtT97sT+p8a4AQndcBmX0ej5oSQ
basbk/NaY6I=
-----END CERTIFICATE-----

Certificate:
    Data:
        Version: 3 (0x2)
        Serial Number:
            2e:7c:87:cc:0e:93:4a:52:fe:94:fd:1c:b7:cd:34:af
    Signature Algorithm: sha384WithRSAEncryption
        Issuer: C=GB, ST=Greater Manchester, L=Salford, O=COMODO CA Limited, CN=COMODO RSA Certification Authority
        Validity
            Not Before: May  9 00:00:00 2013 GMT
            Not After : May  8 23:59:59 2028 GMT
        Subject: C=GB, ST=Greater Manchester, L=Salford, O=COMODO CA Limited, CN=COMODO RSA Code Signing CA
        Subject Public Key Info:
            Public Key Algorithm: rsaEncryption
                Public-Key: (2048 bit)
                Modulus:
                    00:a6:98:90:63:77:91:34:7f:8a:d1:dd:e9:67:31:
                    11:eb:cc:1e:fd:31:1d:b3:b9:62:57:3f:93:bc:5b:
                    e3:9f:1e:24:32:11:27:6b:bc:51:91:a7:cf:9e:9e:
                    25:b3:5f:81:a8:18:0f:1d:1e:20:30:0e:fb:61:7b:
                    86:09:b3:e3:fd:a2:68:9d:1c:2c:9d:bf:72:e3:e4:
                    75:a0:e5:35:23:8e:c9:8a:ee:1a:0c:64:c7:d8:42:
                    a1:7b:b5:52:03:4b:3a:b0:8e:23:4b:4b:63:e0:22:
                    94:37:7b:d5:79:90:0a:14:18:51:2c:e6:fe:c1:12:
                    f0:1c:3f:61:61:0a:8c:a2:dc:f6:c3:30:aa:cd:28:
                    18:75:48:c1:79:5a:08:cd:bb:8c:55:8c:f7:d4:76:
                    90:3a:33:46:50:73:98:5c:f4:85:4a:6b:0f:80:dd:
                    5e:d6:bd:fd:a9:2f:c0:25:f5:f9:78:d7:8d:5f:10:
                    c2:44:55:3c:90:3c:31:46:cb:70:ae:07:a9:0a:e3:
                    af:c1:01:6f:90:1a:23:e2:5f:38:db:c6:08:5d:47:
                    b3:83:41:f0:2e:00:37:14:b9:12:aa:79:92:52:cd:
                    87:0f:7b:d8:62:29:a4:7e:30:bd:1b:b5:8c:72:b4:
                    48:f2:e3:e8:21:f9:5e:4c:62:79:8b:02:06:9f:7f:
                    d5:0b
                Exponent: 65537 (0x10001)
        X509v3 extensions:
            X509v3 Authority Key Identifier: 
                keyid:BB:AF:7E:02:3D:FA:A6:F1:3C:84:8E:AD:EE:38:98:EC:D9:32:32:D4

            X509v3 Subject Key Identifier: 
                29:91:60:FF:8A:4D:FA:EB:F9:A6:6A:B8:CF:F9:E6:4B:BD:49:CE:12
            X509v3 Key Usage: critical
                Digital Signature, Certificate Sign, CRL Sign
            X509v3 Basic Constraints: critical
                CA:TRUE, pathlen:0
            X509v3 Extended Key Usage: 
                Code Signing
            X509v3 Certificate Policies: 
                Policy: X509v3 Any Policy

            X509v3 CRL Distribution Points: 

                Full Name:
                  URI:http://crl.comodoca.com/COMODORSACertificationAuthority.crl

            Authority Information Access: 
                CA Issuers - URI:http://crt.comodoca.com/COMODORSAAddTrustCA.crt
                OCSP - URI:http://ocsp.comodoca.com

    Signature Algorithm: sha384WithRSAEncryption
         02:3f:02:39:c3:ee:f8:ca:3b:89:de:0c:6d:4d:b1:f1:4e:92:
         4f:af:c2:38:2c:04:cc:c5:63:11:ab:09:63:af:ab:a2:d7:02:
         3f:cc:6f:19:c3:3d:d6:1a:08:94:ff:25:d8:a9:88:a7:2b:10:
         1a:e0:9b:b1:07:22:1a:51:1c:3a:d4:e1:e9:09:bf:e6:24:74:
         af:1e:7b:16:31:6e:23:ef:54:51:2d:52:02:e2:75:08:05:4c:
         f1:b7:51:e1:51:00:c6:87:f6:6c:ee:10:44:76:57:6a:f1:df:
         58:6b:21:aa:49:d4:7c:37:4e:bd:ff:b6:75:54:40:18:36:57:
         67:11:cd:4f:02:e4:fe:f3:da:fc:75:17:db:ec:b7:f7:65:09:
         23:49:1f:43:57:83:ea:7e:20:77:61:c8:4d:f2:bb:65:4d:a8:
         f7:85:45:07:af:7a:69:27:65:90:29:40:8b:df:7b:3a:51:39:
         8c:a8:1f:70:79:ad:6d:42:20:a2:cf:0c:6c:03:8c:4c:cd:73:
         07:94:e7:5a:8e:3a:04:ba:a2:a1:7c:1f:cb:63:3a:15:a7:d4:
         15:1b:a7:52:47:32:a9:f4:bf:64:47:d1:aa:1f:53:4e:32:30:
         73:c2:6f:b7:78:82:9d:5c:ff:46:bb:6b:22:1d:88:0b:f8:1b:
         aa:34:a6:fc:8c:f5:dd:7f:65:8c:8c:31:57:31:d0:36:ec:47:
         a1:cf:cb:8b:a8:ef:1c:18:58:c5:06:77:ca:4b:9b:51:af:4c:
         08:4a:7a:8f:e2:a3:52:e2:8e:8e:cc:26:e4:b2:d8:e5:38:c2:
         a8:ed:c6:81:9c:35:6b:a9:58:61:4a:0a:97:b4:4b:42:b6:55:
         9d:be:99:e7:70:6d:59:f8:6d:2a:0c:7f:19:60:5f:0c:9a:88:
         6c:30:ac:52:09:90:16:1b:ff:2b:9d:db:d0:20:ca:89:ea:28:
         7e:32:8e:19:df:7b:48:33:1e:d7:65:f8:ae:c9:f8:83:14:93:
         76:7d:64:d0:8e:ce:be:35:7d:ff:72:31:4d:9f:9e:bd:1e:6c:
         2f:a8:8f:0c:06:50:fb:8c:27:b3:76:c9:f4:e6:d7:c3:34:e2:
         8c:87:21:86:61:fe:bf:55:74:e1:21:77:03:0a:68:6c:bb:e4:
         c9:a9:e6:cf:59:25:eb:7c:ec:45:0e:79:66:68:e8:22:cd:b8:
         ef:98:85:4d:96:11:3c:09:8a:d0:7f:bc:28:28:13:fb:6a:ca:
         54:8d:92:5c:cd:c2:65:98:06:9e:ce:48:5b:d4:b5:37:93:46:
         41:7c:07:dd:cf:fa:43:ef:ba:67:61:ff:7d:49:e0:bb:30:7d:
         5c:80:e3:e6:16:39:4b:a7
-----BEGIN CERTIFICATE-----
MIIF4DCCA8igAwIBAgIQLnyHzA6TSlL+lP0ct800rzANBgkqhkiG9w0BAQwFADCB
hTELMAkGA1UEBhMCR0IxGzAZBgNVBAgTEkdyZWF0ZXIgTWFuY2hlc3RlcjEQMA4G
A1UEBxMHU2FsZm9yZDEaMBgGA1UEChMRQ09NT0RPIENBIExpbWl0ZWQxKzApBgNV
BAMTIkNPTU9ETyBSU0EgQ2VydGlmaWNhdGlvbiBBdXRob3JpdHkwHhcNMTMwNTA5
MDAwMDAwWhcNMjgwNTA4MjM1OTU5WjB9MQswCQYDVQQGEwJHQjEbMBkGA1UECBMS
R3JlYXRlciBNYW5jaGVzdGVyMRAwDgYDVQQHEwdTYWxmb3JkMRowGAYDVQQKExFD
T01PRE8gQ0EgTGltaXRlZDEjMCEGA1UEAxMaQ09NT0RPIFJTQSBDb2RlIFNpZ25p
bmcgQ0EwggEiMA0GCSqGSIb3DQEBAQUAA4IBDwAwggEKAoIBAQCmmJBjd5E0f4rR
3elnMRHrzB79MR2zuWJXP5O8W+OfHiQyESdrvFGRp8+eniWzX4GoGA8dHiAwDvth
e4YJs+P9omidHCydv3Lj5HWg5TUjjsmK7hoMZMfYQqF7tVIDSzqwjiNLS2PgIpQ3
e9V5kAoUGFEs5v7BEvAcP2FhCoyi3PbDMKrNKBh1SMF5WgjNu4xVjPfUdpA6M0ZQ
c5hc9IVKaw+A3V7Wvf2pL8Al9fl4141fEMJEVTyQPDFGy3CuB6kK46/BAW+QGiPi
XzjbxghdR7ODQfAuADcUuRKqeZJSzYcPe9hiKaR+ML0btYxytEjy4+gh+V5MYnmL
Agaff9ULAgMBAAGjggFRMIIBTTAfBgNVHSMEGDAWgBS7r34CPfqm8TyEjq3uOJjs
2TIy1DAdBgNVHQ4EFgQUKZFg/4pN+uv5pmq4z/nmS71JzhIwDgYDVR0PAQH/BAQD
AgGGMBIGA1UdEwEB/wQIMAYBAf8CAQAwEwYDVR0lBAwwCgYIKwYBBQUHAwMwEQYD
VR0gBAowCDAGBgRVHSAAMEwGA1UdHwRFMEMwQaA/oD2GO2h0dHA6Ly9jcmwuY29t
b2RvY2EuY29tL0NPTU9ET1JTQUNlcnRpZmljYXRpb25BdXRob3JpdHkuY3JsMHEG
CCsGAQUFBwEBBGUwYzA7BggrBgEFBQcwAoYvaHR0cDovL2NydC5jb21vZG9jYS5j
b20vQ09NT0RPUlNBQWRkVHJ1c3RDQS5jcnQwJAYIKwYBBQUHMAGGGGh0dHA6Ly9v
Y3NwLmNvbW9kb2NhLmNvbTANBgkqhkiG9w0BAQwFAAOCAgEAAj8COcPu+Mo7id4M
bU2x8U6ST6/COCwEzMVjEasJY6+rotcCP8xvGcM91hoIlP8l2KmIpysQGuCbsQci
GlEcOtTh6Qm/5iR0rx57FjFuI+9UUS1SAuJ1CAVM8bdR4VEAxof2bO4QRHZXavHf
WGshqknUfDdOvf+2dVRAGDZXZxHNTwLk/vPa/HUX2+y392UJI0kfQ1eD6n4gd2HI
TfK7ZU2o94VFB696aSdlkClAi997OlE5jKgfcHmtbUIgos8MbAOMTM1zB5TnWo46
BLqioXwfy2M6FafUFRunUkcyqfS/ZEfRqh9TTjIwc8Jvt3iCnVz/RrtrIh2IC/gb
qjSm/Iz13X9ljIwxVzHQNuxHoc/Li6jvHBhYxQZ3ykubUa9MCEp6j+KjUuKOjswm
5LLY5TjCqO3GgZw1a6lYYUoKl7RLQrZVnb6Z53BtWfhtKgx/GWBfDJqIbDCsUgmQ
Fhv/K53b0CDKieoofjKOGd97SDMe12X4rsn4gxSTdn1k0I7OvjV9/3IxTZ+evR5s
L6iPDAZQ+4wns3bJ9ObXwzTijIchhmH+v1V04SF3AwpobLvkyanmz1kl63zsRQ55
ZmjoIs2475iFTZYRPAmK0H+8KCgT+2rKVI2SXM3CZZgGns5IW9S1N5NGQXwH3c/6
Q++6Z2H/fUnguzB9XIDj5hY5S6c=
-----END CERTIFICATE-----

