Certificate:
    Data:
        Version: 3 (0x2)
        Serial Number:
            86:fe:1d:5f:c3:81:f8:47:d7:33:2c:73:94:75:7b:37
    Signature Algorithm: sha1WithRSAEncryption
        Issuer: C=FR, O=Certplus, CN=Class 1 Primary CA
        Validity
            Not Before: Jul  7 17:01:00 1999 GMT
            Not After : Jul  6 23:59:59 2020 GMT
        Subject: C=FR, O=Certplus, CN=Class 1 Primary CA
        Subject Public Key Info:
            Public Key Algorithm: rsaEncryption
                Public-Key: (2048 bit)
                Modulus:
                    00:c3:6b:29:c8:2e:c7:ae:7c:52:05:e9:93:89:56:
                    0a:5a:79:c9:cc:dc:25:ef:87:8a:2d:05:d8:81:17:
                    04:1b:3a:45:f8:79:0e:0d:49:d4:81:41:c8:ab:45:
                    fb:75:c8:15:f2:e2:d0:bc:d9:61:6c:84:a4:13:19:
                    a7:d9:f9:f2:49:dc:4c:0f:c6:7d:57:b4:13:dc:1e:
                    09:71:29:36:9d:80:58:f4:1b:d8:89:14:eb:d3:d2:
                    93:4b:2a:f1:77:e7:6a:65:bd:19:e5:aa:fd:0c:4a:
                    63:e1:c2:99:b4:0f:04:b6:5a:1b:36:3c:37:3c:bf:
                    c5:e5:5e:f1:5f:57:0e:1f:c7:fd:2c:e7:e4:6f:6a:
                    9b:62:96:39:11:9b:66:f0:2c:b6:52:dc:e1:27:ff:
                    db:6d:fe:eb:ab:63:14:1d:63:88:63:e2:16:0c:f9:
                    20:54:0f:9b:dd:15:6a:76:83:4f:bd:27:8b:53:a6:
                    37:d2:87:f2:47:50:52:3b:66:e9:d1:78:1a:1b:b2:
                    3b:69:f0:59:3c:38:5b:d1:2a:4c:33:5e:0e:ca:56:
                    a5:ed:2d:5b:82:83:4d:d6:38:4e:8a:56:b6:6a:2f:
                    24:6b:12:30:a6:2a:de:af:0c:bb:aa:44:12:1c:13:
                    c5:65:0f:e3:fd:d8:1a:31:4b:e4:3f:0c:7c:45:e8:
                    16:33
                Exponent: 65537 (0x10001)
        X509v3 extensions:
            X509v3 Basic Constraints: 
                CA:TRUE, pathlen:10
            X509v3 Key Usage: 
                Certificate Sign, CRL Sign
            X509v3 Subject Key Identifier: 
                23:2E:DF:E9:81:B4:D0:84:FD:8E:BB:A9:DD:F9:0C:A3:E3:F3:49:53
            Netscape Cert Type: 
                SSL CA, S/MIME CA
            X509v3 CRL Distribution Points: 

                Full Name:
                  URI:http://www.certplus.com/CRL/class1.crl

    Signature Algorithm: sha1WithRSAEncryption
         be:26:53:d6:5e:9f:90:3f:01:94:02:ec:08:c1:88:9a:d0:a7:
         fa:50:0d:da:fc:94:1d:a8:d4:50:23:d0:9f:1c:8b:61:b1:b2:
         aa:44:0f:ac:d8:13:0d:d5:d6:a1:e8:31:78:d0:ef:1e:83:40:
         9a:e5:fd:41:e9:92:fd:ee:a3:95:90:f3:c0:b8:6f:7e:f7:34:
         a5:a1:df:3c:f3:de:56:b2:c7:df:87:26:44:c7:e2:83:b9:13:
         6f:30:45:71:29:22:15:ab:c4:db:3f:4f:f3:77:f9:99:18:34:
         f5:73:92:7d:37:66:67:49:6e:33:9a:4d:29:94:8b:bd:50:39:
         63:65:0f:10:e7:7b:10:6a:d1:47:f9:9e:25:0c:27:29:c2:db:
         08:88:e7:aa:89:3a:45:aa:9f:49:b2:7d:ea:68:8a:40:fe:91:
         c1:c2:49:ff:21:d1:67:0e:1a:12:1d:4a:2e:1c:fb:94:f9:6d:
         3b:79:32:f9:1e:29:91:0a:42:96:45:f1:ef:ca:58:0f:72:9d:
         0c:a9:83:bc:32:dd:98:04:d1:59:e1:64:17:bd:cc:81:a3:03:
         5e:96:60:e5:7f:16:38:0a:6b:d1:fa:b3:84:9d:2a:ca:3e:fb:
         42:f8:4f:e8:a7:5b:28:19:18:ad:e0:a6:66:1e:b0:29:21:f2:
         b8:99:8f:ff
-----BEGIN CERTIFICATE-----
MIIDkjCCAnqgAwIBAgIRAIb+HV/DgfhH1zMsc5R1ezcwDQYJKoZIhvcNAQEFBQAw
PTELMAkGA1UEBhMCRlIxETAPBgNVBAoTCENlcnRwbHVzMRswGQYDVQQDExJDbGFz
cyAxIFByaW1hcnkgQ0EwHhcNOTkwNzA3MTcwMTAwWhcNMjAwNzA2MjM1OTU5WjA9
MQswCQYDVQQGEwJGUjERMA8GA1UEChMIQ2VydHBsdXMxGzAZBgNVBAMTEkNsYXNz
IDEgUHJpbWFyeSBDQTCCASIwDQYJKoZIhvcNAQEBBQADggEPADCCAQoCggEBAMNr
Kcgux658UgXpk4lWClp5yczcJe+Hii0F2IEXBBs6Rfh5Dg1J1IFByKtF+3XIFfLi
0LzZYWyEpBMZp9n58kncTA/GfVe0E9weCXEpNp2AWPQb2IkU69PSk0sq8XfnamW9
GeWq/QxKY+HCmbQPBLZaGzY8Nzy/xeVe8V9XDh/H/Szn5G9qm2KWORGbZvAstlLc
4Sf/223+66tjFB1jiGPiFgz5IFQPm90VanaDT70ni1OmN9KH8kdQUjtm6dF4Ghuy
O2nwWTw4W9EqTDNeDspWpe0tW4KDTdY4TopWtmovJGsSMKYq3q8Mu6pEEhwTxWUP
4/3YGjFL5D8MfEXoFjMCAwEAAaOBjDCBiTAPBgNVHRMECDAGAQH/AgEKMAsGA1Ud
DwQEAwIBBjAdBgNVHQ4EFgQUIy7f6YG00IT9jrup3fkMo+PzSVMwEQYJYIZIAYb4
QgEBBAQDAgEGMDcGA1UdHwQwMC4wLKAqoCiGJmh0dHA6Ly93d3cuY2VydHBsdXMu
Y29tL0NSTC9jbGFzczEuY3JsMA0GCSqGSIb3DQEBBQUAA4IBAQC+JlPWXp+QPwGU
AuwIwYia0Kf6UA3a/JQdqNRQI9CfHIthsbKqRA+s2BMN1dah6DF40O8eg0Ca5f1B
6ZL97qOVkPPAuG9+9zSlod88895WssffhyZEx+KDuRNvMEVxKSIVq8TbP0/zd/mZ
GDT1c5J9N2ZnSW4zmk0plIu9UDljZQ8Q53sQatFH+Z4lDCcpwtsIiOeqiTpFqp9J
sn3qaIpA/pHBwkn/IdFnDhoSHUouHPuU+W07eTL5HimRCkKWRfHvylgPcp0MqYO8
Mt2YBNFZ4WQXvcyBowNelmDlfxY4CmvR+rOEnSrKPvtC+E/op1soGRit4KZmHrAp
IfK4mY//
-----END CERTIFICATE-----

Certificate:
    Data:
        Version: 3 (0x2)
        Serial Number:
            50:0a:6b:d9:49:72:bd:a8:c7:2e:97:11:e6:66:ad:d4
    Signature Algorithm: sha1WithRSAEncryption
        Issuer: C=CN, O=WoSign CA Limited, CN=WoSign Class 3 Code Signing CA
        Validity
            Not Before: Dec 23 07:51:13 2014 GMT
            Not After : Jan 23 07:51:13 2016 GMT
        Subject: C=CN, ST=Sichuan, L=Chengdu, O=Chengdu Lianhua Telecom Technology Co. ,Ltd., CN=Chengdu Lianhua Telecom Technology Co. ,Ltd.
        Subject Public Key Info:
            Public Key Algorithm: rsaEncryption
                Public-Key: (2048 bit)
                Modulus:
                    00:cc:d9:db:76:68:e9:f6:33:1e:5f:e2:21:18:23:
                    33:a8:1b:41:5f:61:f3:e6:f5:e4:80:68:e3:7b:c0:
                    24:7d:4d:d3:2a:87:b6:43:8e:27:67:cc:bd:a5:9f:
                    4d:48:bf:5d:c5:9b:3e:7d:76:da:d3:eb:1a:42:a7:
                    80:15:1c:b9:8d:32:86:85:aa:aa:02:e8:d7:ea:5c:
                    da:33:da:8b:08:a4:4b:db:bc:4a:d1:04:94:a5:45:
                    de:32:df:6c:45:36:e1:a8:ed:7e:b5:6a:1a:14:f4:
                    51:5d:35:07:db:eb:23:30:fd:d4:3c:f2:cd:0a:25:
                    dc:ed:e5:61:49:91:1d:07:f2:90:60:95:2b:a7:8b:
                    77:2a:54:71:50:8f:ef:e3:40:bc:8d:c6:ad:ce:58:
                    f2:80:d5:cf:63:da:69:04:27:c0:8e:a1:50:1b:17:
                    e4:52:08:43:fe:fd:ae:87:98:50:8e:c5:04:80:15:
                    22:3e:a8:50:28:76:46:bb:9f:45:b0:b2:33:99:8a:
                    25:7e:6a:98:30:fa:a5:6b:06:f4:52:e5:26:04:06:
                    63:6b:9e:6e:11:3b:d1:55:75:e8:d0:c6:de:01:80:
                    fe:bb:e1:12:12:4e:fb:6a:37:65:fd:28:e8:7c:19:
                    74:fc:df:6d:bb:23:70:23:ab:70:74:ef:b2:cb:15:
                    3d:63
                Exponent: 65537 (0x10001)
        X509v3 extensions:
            X509v3 Key Usage: critical
                Digital Signature
            X509v3 Extended Key Usage: 
                Code Signing, Microsoft Commercial Code Signing
            X509v3 Basic Constraints: 
                CA:FALSE
            X509v3 Subject Key Identifier: 
                8E:33:5C:4D:C3:D1:4C:76:F7:C2:65:32:67:91:58:96:D1:48:2E:05
            X509v3 Authority Key Identifier: 
                keyid:F5:02:AA:4B:D3:E0:1A:8E:77:50:D6:1A:BB:EB:DF:B9:83:70:B0:4E

            Authority Information Access: 
                OCSP - URI:http://ocsp1.wosign.com/class3/code/ca1
                CA Issuers - URI:http://aia1.wosign.com/class3.code.ca1.cer

            X509v3 CRL Distribution Points: 

                Full Name:
                  URI:http://crls1.wosign.com/ca1-code-3.crl

            X509v3 Certificate Policies: 
                Policy: 2.23.140.1.2.2
                Policy: 1.3.6.1.4.1.36305.1.3.3.1.2
                  CPS: http://www.wosign.com/policy/

    Signature Algorithm: sha1WithRSAEncryption
         44:a9:3f:40:0f:d0:8b:fa:55:62:0d:5f:0d:e6:23:21:37:53:
         55:b9:ab:3a:a0:44:13:84:8f:36:5a:39:a0:c4:32:5e:91:bc:
         5a:f0:6c:70:1a:0f:19:b7:11:b1:99:7e:ca:cc:2d:79:74:b6:
         3a:0f:9d:c8:6b:9a:8e:43:a6:5d:7a:fd:27:6a:4c:da:03:48:
         02:5f:76:39:37:66:f4:37:af:c0:de:39:57:97:7f:35:2a:cb:
         75:13:03:1b:56:ab:c4:ae:69:2f:f4:1b:b8:7e:85:bc:14:f9:
         48:f4:6c:b7:f0:8b:db:ce:5e:28:1c:62:ad:14:75:37:53:64:
         7a:a6:0d:7d:ac:3c:59:a2:62:2b:f2:7b:0e:cb:a4:14:76:51:
         00:23:97:57:45:93:8c:78:01:3f:f9:18:ef:ac:11:26:46:67:
         65:94:c1:96:95:a5:98:83:02:85:9a:ea:3f:e8:6b:2b:7b:bd:
         70:5f:8d:1a:5d:9d:39:16:15:a7:60:b8:cf:33:00:ca:15:01:
         98:1f:cc:30:18:b3:d8:9f:48:52:6a:4c:ed:e0:0f:7a:bf:c1:
         73:82:07:14:9f:e2:a2:a4:6e:95:50:f2:71:38:26:9a:41:11:
         5f:48:78:1f:45:0c:53:49:de:52:4d:b0:51:00:0d:0d:e1:bb:
         93:0a:2c:de
-----BEGIN CERTIFICATE-----
MIIFBzCCA++gAwIBAgIQUApr2UlyvajHLpcR5mat1DANBgkqhkiG9w0BAQUFADBS
MQswCQYDVQQGEwJDTjEaMBgGA1UEChMRV29TaWduIENBIExpbWl0ZWQxJzAlBgNV
BAMTHldvU2lnbiBDbGFzcyAzIENvZGUgU2lnbmluZyBDQTAeFw0xNDEyMjMwNzUx
MTNaFw0xNjAxMjMwNzUxMTNaMIGfMQswCQYDVQQGEwJDTjEQMA4GA1UECAwHU2lj
aHVhbjEQMA4GA1UEBwwHQ2hlbmdkdTE1MDMGA1UECgwsQ2hlbmdkdSBMaWFuaHVh
IFRlbGVjb20gVGVjaG5vbG9neSBDby4gLEx0ZC4xNTAzBgNVBAMMLENoZW5nZHUg
TGlhbmh1YSBUZWxlY29tIFRlY2hub2xvZ3kgQ28uICxMdGQuMIIBIjANBgkqhkiG
9w0BAQEFAAOCAQ8AMIIBCgKCAQEAzNnbdmjp9jMeX+IhGCMzqBtBX2Hz5vXkgGjj
e8AkfU3TKoe2Q44nZ8y9pZ9NSL9dxZs+fXba0+saQqeAFRy5jTKGhaqqAujX6lza
M9qLCKRL27xK0QSUpUXeMt9sRTbhqO1+tWoaFPRRXTUH2+sjMP3UPPLNCiXc7eVh
SZEdB/KQYJUrp4t3KlRxUI/v40C8jcatzljygNXPY9ppBCfAjqFQGxfkUghD/v2u
h5hQjsUEgBUiPqhQKHZGu59FsLIzmYolfmqYMPqlawb0UuUmBAZja55uETvRVXXo
0MbeAYD+u+ESEk77ajdl/SjofBl0/N9tuyNwI6twdO+yyxU9YwIDAQABo4IBiTCC
AYUwDgYDVR0PAQH/BAQDAgeAMB8GA1UdJQQYMBYGCCsGAQUFBwMDBgorBgEEAYI3
AgEWMAkGA1UdEwQCMAAwHQYDVR0OBBYEFI4zXE3D0Ux298JlMmeRWJbRSC4FMB8G
A1UdIwQYMBaAFPUCqkvT4BqOd1DWGrvr37mDcLBOMHsGCCsGAQUFBwEBBG8wbTAz
BggrBgEFBQcwAYYnaHR0cDovL29jc3AxLndvc2lnbi5jb20vY2xhc3MzL2NvZGUv
Y2ExMDYGCCsGAQUFBzAChipodHRwOi8vYWlhMS53b3NpZ24uY29tL2NsYXNzMy5j
b2RlLmNhMS5jZXIwNwYDVR0fBDAwLjAsoCqgKIYmaHR0cDovL2NybHMxLndvc2ln
bi5jb20vY2ExLWNvZGUtMy5jcmwwUQYDVR0gBEowSDAIBgZngQwBAgIwPAYNKwYB
BAGCm1EBAwMBAjArMCkGCCsGAQUFBwIBFh1odHRwOi8vd3d3Lndvc2lnbi5jb20v
cG9saWN5LzANBgkqhkiG9w0BAQUFAAOCAQEARKk/QA/Qi/pVYg1fDeYjITdTVbmr
OqBEE4SPNlo5oMQyXpG8WvBscBoPGbcRsZl+yswteXS2Og+dyGuajkOmXXr9J2pM
2gNIAl92OTdm9DevwN45V5d/NSrLdRMDG1arxK5pL/QbuH6FvBT5SPRst/CL285e
KBxirRR1N1NkeqYNfaw8WaJiK/J7DsukFHZRACOXV0WTjHgBP/kY76wRJkZnZZTB
lpWlmIMChZrqP+hrK3u9cF+NGl2dORYVp2C4zzMAyhUBmB/MMBiz2J9IUmpM7eAP
er/Bc4IHFJ/ioqRulVDycTgmmkERX0h4H0UMU0neUk2wUQANDeG7kwos3g==
-----END CERTIFICATE-----

Certificate:
    Data:
        Version: 3 (0x2)
        Serial Number:
            11:22:b8:50:cc:6f:12:f2:44:4d:14:a8:71:b4:9d:9a:05:64
    Signature Algorithm: sha1WithRSAEncryption
        Issuer: C=FR, O=Certplus, CN=Class 1 Primary CA
        Validity
            Not Before: May 17 08:08:08 2013 GMT
            Not After : Jul  6 23:59:59 2020 GMT
        Subject: C=CN, O=WoSign eCommerce Services Limited, CN=Certification Authority of WoSign
        Subject Public Key Info:
            Public Key Algorithm: rsaEncryption
                Public-Key: (4096 bit)
                Modulus:
                    00:bd:ca:8d:ac:b8:91:15:56:97:7b:6b:5c:7a:c2:
                    de:6b:d9:a1:b0:c3:10:23:fa:a7:a1:b2:cc:31:fa:
                    3e:d9:a6:29:6f:16:3d:e0:6b:f8:b8:40:5f:db:39:
                    a8:00:7a:8b:a0:4d:54:7d:c2:22:78:fc:8e:09:b8:
                    a8:85:d7:cc:95:97:4b:74:d8:9e:7e:f0:00:e4:0e:
                    89:ae:49:28:44:1a:10:99:32:0f:25:88:53:a4:0d:
                    b3:0f:12:08:16:0b:03:71:27:1c:7f:e1:db:d2:fd:
                    67:68:c4:05:5d:0a:0e:5d:70:d7:d8:97:a0:bc:53:
                    41:9a:91:8d:f4:9e:36:66:7a:7e:56:c1:90:5f:e6:
                    b1:68:20:36:a4:8c:24:2c:2c:47:0b:59:76:66:30:
                    b5:be:de:ed:8f:f8:9d:d3:bb:01:30:e6:f2:f3:0e:
                    e0:2c:92:80:f3:85:f9:28:8a:b4:54:2e:9a:ed:f7:
                    76:fc:15:68:16:eb:4a:6c:eb:2e:12:8f:d4:cf:fe:
                    0c:c7:5c:1d:0b:7e:05:32:be:5e:b0:09:2a:42:d5:
                    c9:4e:90:b3:59:0d:bb:7a:7e:cd:d5:08:5a:b4:7f:
                    d8:1c:69:11:f9:27:0f:7b:06:af:54:83:18:7b:e1:
                    dd:54:7a:51:68:6e:77:fc:c6:bf:52:4a:66:46:a1:
                    b2:67:1a:bb:a3:4f:77:a0:be:5d:ff:fc:56:0b:43:
                    72:77:90:ca:9e:f9:f2:39:f5:0d:a9:f4:ea:d7:e7:
                    b3:10:2f:30:42:37:21:cc:30:70:c9:86:98:0f:cc:
                    58:4d:83:bb:7d:e5:1a:a5:37:8d:b6:ac:32:97:00:
                    3a:63:71:24:1e:9e:37:c4:ff:74:d4:37:c0:e2:fe:
                    88:46:60:11:dd:08:3f:50:36:ab:b8:7a:a4:95:62:
                    6a:6e:b0:ca:6a:21:5a:69:f3:f3:fb:1d:70:39:95:
                    f3:a7:6e:a6:81:89:a1:88:c5:3b:71:ca:a3:52:ee:
                    83:bb:fd:a0:77:f4:e4:6f:e7:42:db:6d:4a:99:8a:
                    34:48:bc:17:dc:e4:80:08:22:b6:f2:31:c0:3f:04:
                    3e:eb:9f:20:79:d6:b8:06:64:64:02:31:d7:a9:cd:
                    52:fb:84:45:69:09:00:2a:dc:55:8b:c4:06:46:4b:
                    c0:4a:1d:09:5b:39:28:fd:a9:ab:ce:00:f9:2e:48:
                    4b:26:e6:30:4c:a5:58:ca:b4:44:82:4f:e7:91:1e:
                    33:c3:b0:93:ff:11:fc:81:d2:ca:1f:71:29:dd:76:
                    4f:92:25:af:1d:81:b7:0f:2f:8c:c3:06:cc:2f:27:
                    a3:4a:e4:0e:99:ba:7c:1e:45:1f:7f:aa:19:45:96:
                    fd:fc:3d
                Exponent: 65537 (0x10001)
        X509v3 extensions:
            X509v3 Key Usage: critical
                Certificate Sign, CRL Sign
            X509v3 Basic Constraints: critical
                CA:TRUE, pathlen:2
            X509v3 CRL Distribution Points: 

                Full Name:
                  URI:http://www.certplus.com/CRL/class1.crl

            X509v3 Certificate Policies: 
                Policy: X509v3 Any Policy
                  CPS: http://www.wosign.com/policy/

            X509v3 Subject Key Identifier: 
                E1:66:CF:0E:D1:F1:B3:4B:B7:06:20:14:FE:87:12:D5:F6:FE:FB:3E
            X509v3 Authority Key Identifier: 
                keyid:23:2E:DF:E9:81:B4:D0:84:FD:8E:BB:A9:DD:F9:0C:A3:E3:F3:49:53

    Signature Algorithm: sha1WithRSAEncryption
         96:5c:4c:f2:0d:a1:6b:2b:b9:b7:81:71:58:c1:bb:df:78:5b:
         30:e5:9f:79:9c:dd:bb:24:16:d5:d8:49:d9:11:e2:b7:fb:e7:
         18:c8:6e:b7:ab:72:b6:44:33:48:64:86:32:d4:77:dd:77:80:
         80:d5:80:e2:b6:6e:27:99:cb:d2:fd:21:3e:86:31:20:62:91:
         e5:21:df:87:6a:03:2d:3c:0d:19:e9:00:74:ab:9c:c4:af:f1:
         75:f8:be:e4:00:25:d8:24:4a:e6:e0:43:57:a8:44:55:17:bc:
         f8:14:30:6b:1f:9c:4d:10:07:5e:5d:a3:9d:bb:59:fb:43:44:
         4a:f9:15:26:bf:69:84:4b:69:24:1b:a8:0e:c3:62:03:29:ea:
         32:1c:5c:7d:a5:14:9d:10:b5:54:1c:4d:f1:01:d9:aa:aa:5e:
         a3:53:d9:b4:76:36:a3:59:94:05:e0:46:e3:fe:64:81:29:32:
         ba:17:02:ad:a1:9b:dc:ef:8f:81:39:07:2a:2e:20:c0:e8:58:
         c5:ee:d1:a9:80:8f:b4:b4:5d:0a:ff:ab:b2:0c:73:d0:11:98:
         37:6e:14:68:9b:9a:c4:cd:7d:43:cb:30:0d:3e:ca:f2:37:08:
         54:25:e8:29:9c:38:63:46:d0:05:23:d3:b2:75:db:91:9f:ba:
         8b:b9:91:b7
-----BEGIN CERTIFICATE-----
MIIFDzCCA/egAwIBAgISESK4UMxvEvJETRSocbSdmgVkMA0GCSqGSIb3DQEBBQUA
MD0xCzAJBgNVBAYTAkZSMREwDwYDVQQKEwhDZXJ0cGx1czEbMBkGA1UEAxMSQ2xh
c3MgMSBQcmltYXJ5IENBMB4XDTEzMDUxNzA4MDgwOFoXDTIwMDcwNjIzNTk1OVow
ZTELMAkGA1UEBhMCQ04xKjAoBgNVBAoMIVdvU2lnbiBlQ29tbWVyY2UgU2Vydmlj
ZXMgTGltaXRlZDEqMCgGA1UEAwwhQ2VydGlmaWNhdGlvbiBBdXRob3JpdHkgb2Yg
V29TaWduMIICIjANBgkqhkiG9w0BAQEFAAOCAg8AMIICCgKCAgEAvcqNrLiRFVaX
e2tcesLea9mhsMMQI/qnobLMMfo+2aYpbxY94Gv4uEBf2zmoAHqLoE1UfcIiePyO
CbiohdfMlZdLdNiefvAA5A6JrkkoRBoQmTIPJYhTpA2zDxIIFgsDcSccf+Hb0v1n
aMQFXQoOXXDX2JegvFNBmpGN9J42Znp+VsGQX+axaCA2pIwkLCxHC1l2ZjC1vt7t
j/id07sBMOby8w7gLJKA84X5KIq0VC6a7fd2/BVoFutKbOsuEo/Uz/4Mx1wdC34F
Mr5esAkqQtXJTpCzWQ27en7N1QhatH/YHGkR+ScPewavVIMYe+HdVHpRaG53/Ma/
UkpmRqGyZxq7o093oL5d//xWC0Nyd5DKnvnyOfUNqfTq1+ezEC8wQjchzDBwyYaY
D8xYTYO7feUapTeNtqwylwA6Y3EkHp43xP901DfA4v6IRmAR3Qg/UDaruHqklWJq
brDKaiFaafPz+x1wOZXzp26mgYmhiMU7ccqjUu6Du/2gd/Tkb+dC221KmYo0SLwX
3OSACCK28jHAPwQ+658geda4BmRkAjHXqc1S+4RFaQkAKtxVi8QGRkvASh0JWzko
/amrzgD5LkhLJuYwTKVYyrREgk/nkR4zw7CT/xH8gdLKH3Ep3XZPkiWvHYG3Dy+M
wwbMLyejSuQOmbp8HkUff6oZRZb9/D0CAwEAAaOB4DCB3TAOBgNVHQ8BAf8EBAMC
AQYwEgYDVR0TAQH/BAgwBgEB/wIBAjA3BgNVHR8EMDAuMCygKqAohiZodHRwOi8v
d3d3LmNlcnRwbHVzLmNvbS9DUkwvY2xhc3MxLmNybDA+BgNVHSAENzA1MDMGBFUd
IAAwKzApBggrBgEFBQcCARYdaHR0cDovL3d3dy53b3NpZ24uY29tL3BvbGljeS8w
HQYDVR0OBBYEFOFmzw7R8bNLtwYgFP6HEtX2/vs+MB8GA1UdIwQYMBaAFCMu3+mB
tNCE/Y67qd35DKPj80lTMA0GCSqGSIb3DQEBBQUAA4IBAQCWXEzyDaFrK7m3gXFY
wbvfeFsw5Z95nN27JBbV2EnZEeK3++cYyG63q3K2RDNIZIYy1Hfdd4CA1YDitm4n
mcvS/SE+hjEgYpHlId+HagMtPA0Z6QB0q5zEr/F1+L7kACXYJErm4ENXqERVF7z4
FDBrH5xNEAdeXaOdu1n7Q0RK+RUmv2mES2kkG6gOw2IDKeoyHFx9pRSdELVUHE3x
Admqql6jU9m0djajWZQF4Ebj/mSBKTK6FwKtoZvc74+BOQcqLiDA6FjF7tGpgI+0
tF0K/6uyDHPQEZg3bhRom5rEzX1DyzANPsryNwhUJegpnDhjRtAFI9OydduRn7qL
uZG3
-----END CERTIFICATE-----

Certificate:
    Data:
        Version: 3 (0x2)
        Serial Number:
            25:1f:5d:98:81:82:17:2e:3c:41:9e:01:4f:b0:40:4c
    Signature Algorithm: sha1WithRSAEncryption
        Issuer: C=CN, O=WoSign CA Limited, CN=Certification Authority of WoSign
        Validity
            Not Before: Aug  8 01:00:05 2009 GMT
            Not After : Aug  8 01:00:05 2024 GMT
        Subject: C=CN, O=WoSign CA Limited, CN=WoSign Time Stamping Signer
        Subject Public Key Info:
            Public Key Algorithm: rsaEncryption
                Public-Key: (2048 bit)
                Modulus:
                    00:a5:d0:68:ba:82:cb:db:a7:6d:55:b9:31:a7:da:
                    f4:9c:6b:03:54:4f:a2:1c:ef:1c:b5:96:44:1f:56:
                    41:3f:61:b0:03:59:4b:82:0e:db:15:c8:d0:cc:e0:
                    87:c6:09:75:8a:84:e3:ed:97:c2:c8:92:34:c0:f1:
                    64:53:60:51:34:48:90:b1:4f:89:69:f5:2e:a0:2a:
                    16:54:2f:c0:37:58:ff:35:52:1b:52:08:cf:b9:ec:
                    5a:27:52:5a:83:eb:68:b1:b9:f8:b2:a9:08:f3:4f:
                    ab:17:0f:2e:bd:4f:e5:12:8a:bf:7c:b7:e7:65:32:
                    3b:83:41:02:22:3a:24:3b:6a:a3:3c:af:eb:79:42:
                    17:56:74:c8:61:63:dd:8c:2f:3e:ef:3a:a3:47:52:
                    04:3b:00:18:ae:26:71:e0:7a:04:8d:75:82:2d:65:
                    4e:c1:b8:f2:8c:de:0f:63:03:d4:c3:52:60:72:8c:
                    88:cc:6f:96:d5:c7:7d:29:db:26:04:9e:a2:b4:bf:
                    5a:b5:6e:f2:46:0f:29:81:c5:c0:4f:a6:87:8c:7c:
                    21:07:54:1f:50:f0:42:5c:55:7c:cf:44:2e:41:3d:
                    18:8d:5f:d9:68:e6:47:91:8f:cf:dc:7d:90:60:ff:
                    cb:48:e4:61:5e:4f:73:45:0d:c8:34:89:03:d5:fe:
                    0b:c3
                Exponent: 65537 (0x10001)
        X509v3 extensions:
            X509v3 Key Usage: critical
                Digital Signature, Non Repudiation
            X509v3 Extended Key Usage: critical
                Time Stamping
            X509v3 Basic Constraints: critical
                CA:FALSE
            X509v3 CRL Distribution Points: 

                Full Name:
                  URI:http://crls1.wosign.com/ca1.crl

            Authority Information Access: 
                OCSP - URI:http://ocsp1.wosign.com/ca1
                CA Issuers - URI:http://aia1.wosign.com/ca1-tsa.cer

            X509v3 Subject Key Identifier: 
                DF:6E:12:D5:0C:54:2E:5A:14:CA:DE:03:DE:AB:4E:D4:98:0C:46:B5
            X509v3 Authority Key Identifier: 
                keyid:E1:66:CF:0E:D1:F1:B3:4B:B7:06:20:14:FE:87:12:D5:F6:FE:FB:3E

    Signature Algorithm: sha1WithRSAEncryption
         7c:98:2f:bb:c3:d2:ae:c2:2a:8f:a6:97:76:56:86:32:c4:cd:
         36:68:8b:ec:d7:80:1a:31:79:b0:5e:56:b9:69:eb:b9:0b:32:
         a9:83:26:dc:77:5d:7a:56:b2:46:a0:7d:15:d6:6d:f9:ac:f8:
         35:73:78:36:02:60:22:20:1c:ef:18:8f:7e:66:b2:4f:e7:71:
         93:5a:2b:e6:e5:8d:3d:5d:2e:27:4b:46:cb:1d:04:f3:0b:8c:
         3f:13:a8:0d:d4:cd:e8:28:e8:2a:9c:55:c8:e3:ff:9d:a9:22:
         49:6e:e8:e7:88:92:37:57:80:60:44:18:27:43:58:18:04:6d:
         86:c0:65:47:05:57:55:50:91:e6:73:50:ee:3f:10:a9:8f:05:
         2f:da:68:11:53:6e:1f:ad:98:f3:76:3e:85:d0:57:a3:cf:e4:
         c1:1a:4c:64:06:a6:44:ab:4e:1e:e2:4b:d5:a4:6d:71:f8:6b:
         cb:66:13:a6:47:1f:21:2a:a1:ae:4c:89:a4:7d:28:77:17:4f:
         88:8d:b1:d1:5d:b1:c4:93:5a:bf:22:92:6c:ab:67:82:68:ed:
         d7:21:cb:63:bc:93:c4:17:8e:87:19:25:ad:17:54:b4:79:d2:
         a5:93:73:bc:7c:bb:e4:80:0f:8f:cc:aa:0a:d0:e4:93:75:aa:
         6c:cf:49:7d:75:ec:82:28:5c:73:f0:42:bf:9e:a6:13:2e:de:
         6c:ee:80:03:a6:ee:88:36:a0:1b:b2:82:e8:3d:bb:a6:1a:d5:
         11:ae:0a:0b:62:d6:51:36:97:23:17:52:26:ed:f1:c5:b6:21:
         75:39:15:07:e0:42:f1:2a:89:04:77:66:ad:14:04:d2:c7:d4:
         7c:4f:6c:dd:4e:dc:ed:8e:a9:f6:86:17:e7:e1:59:66:bb:d0:
         7a:d0:94:42:eb:af:c1:54:ca:e2:1a:a4:a9:b6:a5:d4:81:ca:
         15:26:fa:6f:b4:df:78:10:04:8c:48:18:bc:28:59:66:9a:b8:
         18:f1:d9:5e:5b:82:ff:fe:11:d7:d4:04:36:30:9f:51:1d:3c:
         c8:64:40:75:7c:d8:35:83:ef:b1:e5:28:76:0a:05:3d:e9:b8:
         1e:70:50:3a:60:e2:a5:01:88:88:9c:04:cc:6a:f2:15:85:d1:
         0c:b7:4a:6d:93:4e:82:ca:29:e9:75:0b:42:e4:3a:47:24:08:
         6d:80:5c:e6:6a:67:2c:b6:13:08:c9:4f:d8:66:53:b9:b6:7f:
         e2:ea:39:95:6f:71:77:96:03:af:b9:e3:cc:e3:a1:b9:f1:01:
         c6:6e:be:fc:97:5c:b2:d1:f1:7b:fb:33:c6:65:ea:e6:18:f9:
         ab:3a:27:1a:2d:20:6b:e6
-----BEGIN CERTIFICATE-----
MIIFRTCCAy2gAwIBAgIQJR9dmIGCFy48QZ4BT7BATDANBgkqhkiG9w0BAQUFADBV
MQswCQYDVQQGEwJDTjEaMBgGA1UEChMRV29TaWduIENBIExpbWl0ZWQxKjAoBgNV
BAMTIUNlcnRpZmljYXRpb24gQXV0aG9yaXR5IG9mIFdvU2lnbjAeFw0wOTA4MDgw
MTAwMDVaFw0yNDA4MDgwMTAwMDVaME8xCzAJBgNVBAYTAkNOMRowGAYDVQQKExFX
b1NpZ24gQ0EgTGltaXRlZDEkMCIGA1UEAxMbV29TaWduIFRpbWUgU3RhbXBpbmcg
U2lnbmVyMIIBIjANBgkqhkiG9w0BAQEFAAOCAQ8AMIIBCgKCAQEApdBouoLL26dt
Vbkxp9r0nGsDVE+iHO8ctZZEH1ZBP2GwA1lLgg7bFcjQzOCHxgl1ioTj7ZfCyJI0
wPFkU2BRNEiQsU+JafUuoCoWVC/AN1j/NVIbUgjPuexaJ1Jag+tosbn4sqkI80+r
Fw8uvU/lEoq/fLfnZTI7g0ECIjokO2qjPK/reUIXVnTIYWPdjC8+7zqjR1IEOwAY
riZx4HoEjXWCLWVOwbjyjN4PYwPUw1JgcoyIzG+W1cd9KdsmBJ6itL9atW7yRg8p
gcXAT6aHjHwhB1QfUPBCXFV8z0QuQT0YjV/ZaOZHkY/P3H2QYP/LSORhXk9zRQ3I
NIkD1f4LwwIDAQABo4IBFTCCAREwDgYDVR0PAQH/BAQDAgbAMBYGA1UdJQEB/wQM
MAoGCCsGAQUFBwMIMAwGA1UdEwEB/wQCMAAwMAYDVR0fBCkwJzAloCOgIYYfaHR0
cDovL2NybHMxLndvc2lnbi5jb20vY2ExLmNybDBnBggrBgEFBQcBAQRbMFkwJwYI
KwYBBQUHMAGGG2h0dHA6Ly9vY3NwMS53b3NpZ24uY29tL2NhMTAuBggrBgEFBQcw
AoYiaHR0cDovL2FpYTEud29zaWduLmNvbS9jYTEtdHNhLmNlcjAdBgNVHQ4EFgQU
324S1QxULloUyt4D3qtO1JgMRrUwHwYDVR0jBBgwFoAU4WbPDtHxs0u3BiAU/ocS
1fb++z4wDQYJKoZIhvcNAQEFBQADggIBAHyYL7vD0q7CKo+ml3ZWhjLEzTZoi+zX
gBoxebBeVrlp67kLMqmDJtx3XXpWskagfRXWbfms+DVzeDYCYCIgHO8Yj35msk/n
cZNaK+bljT1dLidLRssdBPMLjD8TqA3Uzego6CqcVcjj/52pIklu6OeIkjdXgGBE
GCdDWBgEbYbAZUcFV1VQkeZzUO4/EKmPBS/aaBFTbh+tmPN2PoXQV6PP5MEaTGQG
pkSrTh7iS9WkbXH4a8tmE6ZHHyEqoa5MiaR9KHcXT4iNsdFdscSTWr8ikmyrZ4Jo
7dchy2O8k8QXjocZJa0XVLR50qWTc7x8u+SAD4/MqgrQ5JN1qmzPSX117IIoXHPw
Qr+ephMu3mzugAOm7og2oBuygug9u6Ya1RGuCgti1lE2lyMXUibt8cW2IXU5FQfg
QvEqiQR3Zq0UBNLH1HxPbN1O3O2OqfaGF+fhWWa70HrQlELrr8FUyuIapKm2pdSB
yhUm+m+033gQBIxIGLwoWWaauBjx2V5bgv/+EdfUBDYwn1EdPMhkQHV82DWD77Hl
KHYKBT3puB5wUDpg4qUBiIicBMxq8hWF0Qy3Sm2TToLKKel1C0LkOkckCG2AXOZq
Zyy2EwjJT9hmU7m2f+LqOZVvcXeWA6+548zjobnxAcZuvvyXXLLR8Xv7M8Zl6uYY
+as6JxotIGvm
-----END CERTIFICATE-----

Certificate:
    Data:
        Version: 3 (0x2)
        Serial Number:
            46:bb:b3:40:fa:b9:c1:79:28:93:8c:93:da:10:86:79
    Signature Algorithm: sha1WithRSAEncryption
        Issuer: C=CN, O=WoSign CA Limited, CN=Certification Authority of WoSign
        Validity
            Not Before: Aug  8 01:00:05 2009 GMT
            Not After : Aug  8 01:00:05 2024 GMT
        Subject: C=CN, O=WoSign CA Limited, CN=WoSign Class 3 Code Signing CA
        Subject Public Key Info:
            Public Key Algorithm: rsaEncryption
                Public-Key: (2048 bit)
                Modulus:
                    00:d1:49:a4:48:63:b9:dd:28:60:6a:d9:17:0d:01:
                    c0:b2:58:86:4e:26:08:44:af:5f:37:84:25:44:45:
                    65:33:46:a3:8a:9f:f6:99:51:ce:d9:43:a4:7a:0e:
                    d6:f1:bf:91:24:ca:d4:24:11:01:5d:a3:3f:f3:d4:
                    9d:6f:d6:99:b1:89:ce:6a:c1:65:a1:f0:df:a3:3a:
                    93:90:80:21:2c:ba:2e:c1:67:31:1e:6b:55:38:85:
                    a8:50:47:6a:49:c4:a5:0b:0c:4b:39:35:8f:80:9d:
                    95:8c:e2:0d:63:55:6d:d6:8d:c4:3e:99:31:03:ea:
                    42:00:1c:b0:16:61:36:80:f5:df:65:3f:e2:9f:8e:
                    ec:3d:49:1b:36:e8:ea:93:d9:83:35:46:18:a5:a4:
                    16:5e:34:68:71:b7:61:5b:3a:5e:40:e2:7f:c8:e6:
                    05:85:8d:c6:db:21:ca:20:3e:2d:00:15:55:8a:7a:
                    ca:dc:90:0a:5a:92:06:90:06:d6:6c:04:2c:8c:d5:
                    9b:0e:b2:d4:a7:e3:30:bf:4e:b8:67:c1:69:c6:70:
                    34:46:6c:66:ab:f2:ff:5f:35:da:13:3f:79:19:19:
                    99:c2:3f:57:db:5a:40:fd:53:bd:08:63:d7:c9:79:
                    cf:d3:b4:a2:09:e0:3f:55:c1:2b:1b:9f:37:fb:e1:
                    b3:ad
                Exponent: 65537 (0x10001)
        X509v3 extensions:
            X509v3 Key Usage: critical
                Certificate Sign, CRL Sign
            X509v3 Extended Key Usage: 
                Code Signing, Microsoft Commercial Code Signing
            X509v3 Basic Constraints: critical
                CA:TRUE, pathlen:0
            X509v3 CRL Distribution Points: 

                Full Name:
                  URI:http://crls1.wosign.com/ca1.crl

            Authority Information Access: 
                OCSP - URI:http://ocsp1.wosign.com/ca1
                CA Issuers - URI:http://aia1.wosign.com/ca1-class3-code.cer

            X509v3 Subject Key Identifier: 
                F5:02:AA:4B:D3:E0:1A:8E:77:50:D6:1A:BB:EB:DF:B9:83:70:B0:4E
            X509v3 Authority Key Identifier: 
                keyid:E1:66:CF:0E:D1:F1:B3:4B:B7:06:20:14:FE:87:12:D5:F6:FE:FB:3E

            X509v3 Certificate Policies: 
                Policy: 1.3.6.1.4.1.36305.1.3.3
                  CPS: http://www.wosign.com/policy/

    Signature Algorithm: sha1WithRSAEncryption
         0e:93:a5:71:25:62:a2:82:62:7a:b5:79:ea:e1:ea:ac:ca:a5:
         8b:c7:a1:4c:dc:cc:ae:1c:e9:ea:2e:88:e2:51:e5:81:22:76:
         e9:f6:e0:66:41:c9:74:e4:de:66:7e:f9:52:99:12:fd:c5:9e:
         6a:85:a4:5d:c5:54:f2:22:1f:bc:78:61:20:c0:fe:1c:1b:24:
         ff:01:e3:dc:ad:13:79:cb:cc:3d:ae:f4:3f:6e:35:ca:cf:5d:
         c6:05:3e:43:1e:a7:8d:03:dd:6e:ab:cd:5c:6a:b8:15:50:85:
         da:b8:96:53:0f:55:7d:19:d9:a3:74:68:1a:84:d0:c2:58:09:
         d6:dd:6a:e7:85:a5:d4:ac:41:5e:de:fd:a6:ab:79:8e:24:ab:
         ed:39:6f:8f:5f:71:99:02:74:fc:42:7e:32:02:20:29:32:c2:
         90:06:c2:7e:d0:ab:06:50:17:c3:ac:fb:a6:b9:6b:be:ee:be:
         a4:1e:18:80:02:ed:44:9d:a2:c6:54:4d:ab:e1:b6:98:19:7e:
         e1:b4:ba:7c:2c:3c:47:19:cb:4a:f7:63:62:66:5e:57:09:a8:
         6c:1e:b8:4d:ec:53:94:d7:81:ff:0c:0b:ef:08:02:15:ae:d8:
         d4:9f:5c:39:87:d7:24:66:84:a0:d0:38:90:4a:4e:99:4d:93:
         60:76:f5:1a:e2:8e:46:5f:5b:12:97:b4:66:d7:7c:4f:42:16:
         23:e8:0a:ed:86:46:0f:6d:9a:e4:7b:af:37:dc:f3:80:54:4b:
         3b:22:dd:90:2c:07:bd:c0:97:f2:c3:ec:7f:7c:fb:be:46:99:
         36:6e:48:c7:81:e5:f2:8c:02:0d:c0:7c:3f:c5:43:9b:70:02:
         81:f5:b0:aa:7f:05:54:c0:c2:30:9c:c5:c2:57:f5:19:b1:90:
         bc:d9:9d:d6:26:08:d6:0c:0e:b2:68:d0:91:e3:e7:3e:27:48:
         37:47:5e:d3:51:b5:0e:59:59:c9:ba:a7:cb:84:6e:03:84:cf:
         ec:50:bb:ee:cd:75:6d:7c:3a:9b:9a:fb:15:18:90:b1:c4:a3:
         e1:98:19:77:08:96:fc:d5:48:c4:55:f7:d3:ac:20:58:ff:47:
         c3:d4:fc:7b:ae:64:18:55:ab:47:2d:84:e4:24:53:b0:00:f4:
         78:73:cb:cc:a6:22:20:2e:7f:f5:45:4d:0a:49:aa:6b:ae:6e:
         66:24:e2:c4:0a:7e:a4:2b:90:8e:90:62:1c:f5:8b:f1:45:28:
         f7:61:4a:cb:b4:8c:48:83:9e:ce:01:f3:a5:84:f4:d2:6a:fd:
         3a:25:68:f2:08:c5:cf:1c:8d:27:c0:36:db:17:13:6c:c1:da:
         21:40:35:f8:66:b3:23:27
-----BEGIN CERTIFICATE-----
MIIFpjCCA46gAwIBAgIQRruzQPq5wXkok4yT2hCGeTANBgkqhkiG9w0BAQUFADBV
MQswCQYDVQQGEwJDTjEaMBgGA1UEChMRV29TaWduIENBIExpbWl0ZWQxKjAoBgNV
BAMTIUNlcnRpZmljYXRpb24gQXV0aG9yaXR5IG9mIFdvU2lnbjAeFw0wOTA4MDgw
MTAwMDVaFw0yNDA4MDgwMTAwMDVaMFIxCzAJBgNVBAYTAkNOMRowGAYDVQQKExFX
b1NpZ24gQ0EgTGltaXRlZDEnMCUGA1UEAxMeV29TaWduIENsYXNzIDMgQ29kZSBT
aWduaW5nIENBMIIBIjANBgkqhkiG9w0BAQEFAAOCAQ8AMIIBCgKCAQEA0UmkSGO5
3ShgatkXDQHAsliGTiYIRK9fN4QlREVlM0ajip/2mVHO2UOkeg7W8b+RJMrUJBEB
XaM/89Sdb9aZsYnOasFlofDfozqTkIAhLLouwWcxHmtVOIWoUEdqScSlCwxLOTWP
gJ2VjOINY1Vt1o3EPpkxA+pCABywFmE2gPXfZT/in47sPUkbNujqk9mDNUYYpaQW
XjRocbdhWzpeQOJ/yOYFhY3G2yHKID4tABVVinrK3JAKWpIGkAbWbAQsjNWbDrLU
p+Mwv064Z8FpxnA0Rmxmq/L/XzXaEz95GRmZwj9X21pA/VO9CGPXyXnP07SiCeA/
VcErG583++GzrQIDAQABo4IBczCCAW8wDgYDVR0PAQH/BAQDAgEGMB8GA1UdJQQY
MBYGCCsGAQUFBwMDBgorBgEEAYI3AgEWMBIGA1UdEwEB/wQIMAYBAf8CAQAwMAYD
VR0fBCkwJzAloCOgIYYfaHR0cDovL2NybHMxLndvc2lnbi5jb20vY2ExLmNybDBv
BggrBgEFBQcBAQRjMGEwJwYIKwYBBQUHMAGGG2h0dHA6Ly9vY3NwMS53b3NpZ24u
Y29tL2NhMTA2BggrBgEFBQcwAoYqaHR0cDovL2FpYTEud29zaWduLmNvbS9jYTEt
Y2xhc3MzLWNvZGUuY2VyMB0GA1UdDgQWBBT1AqpL0+AajndQ1hq769+5g3CwTjAf
BgNVHSMEGDAWgBThZs8O0fGzS7cGIBT+hxLV9v77PjBFBgNVHSAEPjA8MDoGCysG
AQQBgptRAQMDMCswKQYIKwYBBQUHAgEWHWh0dHA6Ly93d3cud29zaWduLmNvbS9w
b2xpY3kvMA0GCSqGSIb3DQEBBQUAA4ICAQAOk6VxJWKigmJ6tXnq4eqsyqWLx6FM
3MyuHOnqLojiUeWBInbp9uBmQcl05N5mfvlSmRL9xZ5qhaRdxVTyIh+8eGEgwP4c
GyT/AePcrRN5y8w9rvQ/bjXKz13GBT5DHqeNA91uq81cargVUIXauJZTD1V9Gdmj
dGgahNDCWAnW3WrnhaXUrEFe3v2mq3mOJKvtOW+PX3GZAnT8Qn4yAiApMsKQBsJ+
0KsGUBfDrPumuWu+7r6kHhiAAu1EnaLGVE2r4baYGX7htLp8LDxHGctK92NiZl5X
CahsHrhN7FOU14H/DAvvCAIVrtjUn1w5h9ckZoSg0DiQSk6ZTZNgdvUa4o5GX1sS
l7Rm13xPQhYj6ArthkYPbZrke6833POAVEs7It2QLAe9wJfyw+x/fPu+Rpk2bkjH
geXyjAINwHw/xUObcAKB9bCqfwVUwMIwnMXCV/UZsZC82Z3WJgjWDA6yaNCR4+c+
J0g3R17TUbUOWVnJuqfLhG4DhM/sULvuzXVtfDqbmvsVGJCxxKPhmBl3CJb81UjE
VffTrCBY/0fD1Px7rmQYVatHLYTkJFOwAPR4c8vMpiIgLn/1RU0KSaprrm5mJOLE
Cn6kK5COkGIc9YvxRSj3YUrLtIxIg57OAfOlhPTSav06JWjyCMXPHI0nwDbbFxNs
wdohQDX4ZrMjJw==
-----END CERTIFICATE-----

