Certificate:
    Data:
        Version: 3 (0x2)
        Serial Number:
            41:91:a1:5a:39:78:df:cf:49:65:66:38:1d:4c:75:c2
    Signature Algorithm: sha1WithRSAEncryption
        Issuer: C=US, O=VeriSign, Inc., OU=Class 3 Public Primary Certification Authority
        Validity
            Not Before: Jul 16 00:00:00 2004 GMT
            Not After : Jul 15 23:59:59 2014 GMT
        Subject: C=US, O=VeriSign, Inc., OU=VeriSign Trust Network, OU=Terms of use at https://www.verisign.com/rpa (c)04, CN=VeriSign Class 3 Code Signing 2004 CA
        Subject Public Key Info:
            Public Key Algorithm: rsaEncryption
                Public-Key: (2048 bit)
                Modulus:
                    00:be:bc:ee:bc:7e:ef:83:eb:e0:37:4f:fb:03:10:
                    38:be:08:d2:8c:7d:9d:fa:92:7f:19:0c:c2:6b:ee:
                    42:52:8c:de:d3:1c:48:13:25:ea:c1:63:7a:f9:51:
                    65:ee:d3:aa:3b:f5:f0:94:9c:2b:fb:f2:66:d4:24:
                    da:f7:f5:9f:6e:19:39:36:bc:d0:a3:76:08:1e:22:
                    27:24:6c:38:91:27:e2:84:49:ae:1b:8a:a1:fd:25:
                    82:2c:10:30:e8:71:ab:28:e8:77:4a:51:f1:ec:cd:
                    f8:f0:54:d4:6f:c0:e3:6d:0a:8f:d9:d8:64:8d:63:
                    b2:2d:4e:27:f6:85:0e:fe:6d:e3:29:99:e2:85:47:
                    7c:2d:86:7f:e8:57:8f:ad:67:c2:33:32:91:13:20:
                    fc:a9:23:14:9a:6d:c2:84:4b:76:68:04:d5:71:2c:
                    5d:21:fa:88:0d:26:fd:1f:2d:91:2b:e7:01:55:4d:
                    f2:6d:35:28:82:df:d9:6b:5c:b6:d6:d9:aa:81:fd:
                    5f:cd:83:ba:63:9d:d0:22:fc:a9:3b:42:69:b2:8e:
                    3a:b5:bc:b4:9e:0f:5e:c4:ea:2c:82:8b:28:fd:53:
                    08:96:dd:b5:01:20:d1:f9:a5:18:e7:c0:ee:51:70:
                    37:e1:b6:05:48:52:48:6f:38:ea:c3:e8:6c:7b:44:
                    84:bb
                Exponent: 65537 (0x10001)
        X509v3 extensions:
            X509v3 Basic Constraints: critical
                CA:TRUE, pathlen:0
            X509v3 Certificate Policies: 
                Policy: 2.16.840.1.113733.1.7.23.3
                  CPS: https://www.verisign.com/rpa

            X509v3 CRL Distribution Points: 

                Full Name:
                  URI:http://crl.verisign.com/pca3.crl

            X509v3 Extended Key Usage: 
                TLS Web Client Authentication, Code Signing
            X509v3 Key Usage: critical
                Certificate Sign, CRL Sign
            Netscape Cert Type: 
                Object Signing CA
            X509v3 Subject Alternative Name: 
                DirName:/CN=Class3CA2048-1-43
            X509v3 Subject Key Identifier: 
                08:F5:51:E8:FB:FE:3D:3D:64:36:7C:68:CF:5B:78:A8:DF:B9:C5:37
            X509v3 Authority Key Identifier: 
                DirName:/C=US/O=VeriSign, Inc./OU=Class 3 Public Primary Certification Authority
                serial:70:BA:E4:1D:10:D9:29:34:B6:38:CA:7B:03:CC:BA:BF

    Signature Algorithm: sha1WithRSAEncryption
         ae:3a:17:b8:4a:7b:55:fa:64:55:ec:40:a4:ed:49:41:90:99:
         9c:89:bc:af:2e:1d:ca:78:23:f9:1c:19:0f:7f:eb:68:bc:32:
         d9:88:38:de:dc:3f:d3:89:b4:3f:b1:82:96:f1:a4:5a:ba:ed:
         2e:26:d3:de:7c:01:6e:00:0a:00:a4:06:92:11:48:09:40:f9:
         1c:18:79:67:23:24:e0:bb:d5:e1:50:ae:1b:f5:0e:dd:e0:2e:
         81:cd:80:a3:6c:52:4f:91:75:55:8a:ba:22:f2:d2:ea:41:75:
         88:2f:63:55:7d:1e:54:5a:95:59:ca:d9:34:81:c0:5f:5e:f6:
         7a:b5
-----BEGIN CERTIFICATE-----
MIIEvzCCBCigAwIBAgIQQZGhWjl4389JZWY4HUx1wjANBgkqhkiG9w0BAQUFADBf
MQswCQYDVQQGEwJVUzEXMBUGA1UEChMOVmVyaVNpZ24sIEluYy4xNzA1BgNVBAsT
LkNsYXNzIDMgUHVibGljIFByaW1hcnkgQ2VydGlmaWNhdGlvbiBBdXRob3JpdHkw
HhcNMDQwNzE2MDAwMDAwWhcNMTQwNzE1MjM1OTU5WjCBtDELMAkGA1UEBhMCVVMx
FzAVBgNVBAoTDlZlcmlTaWduLCBJbmMuMR8wHQYDVQQLExZWZXJpU2lnbiBUcnVz
dCBOZXR3b3JrMTswOQYDVQQLEzJUZXJtcyBvZiB1c2UgYXQgaHR0cHM6Ly93d3cu
dmVyaXNpZ24uY29tL3JwYSAoYykwNDEuMCwGA1UEAxMlVmVyaVNpZ24gQ2xhc3Mg
MyBDb2RlIFNpZ25pbmcgMjAwNCBDQTCCASIwDQYJKoZIhvcNAQEBBQADggEPADCC
AQoCggEBAL687rx+74Pr4DdP+wMQOL4I0ox9nfqSfxkMwmvuQlKM3tMcSBMl6sFj
evlRZe7Tqjv18JScK/vyZtQk2vf1n24ZOTa80KN2CB4iJyRsOJEn4oRJrhuKof0l
giwQMOhxqyjod0pR8ezN+PBU1G/A420Kj9nYZI1jsi1OJ/aFDv5t4ymZ4oVHfC2G
f+hXj61nwjMykRMg/KkjFJptwoRLdmgE1XEsXSH6iA0m/R8tkSvnAVVN8m01KILf
2WtcttbZqoH9X82DumOd0CL8qTtCabKOOrW8tJ4PXsTqLIKLKP1TCJbdtQEg0fml
GOfA7lFwN+G2BUhSSG846sPobHtEhLsCAwEAAaOCAaAwggGcMBIGA1UdEwEB/wQI
MAYBAf8CAQAwRAYDVR0gBD0wOzA5BgtghkgBhvhFAQcXAzAqMCgGCCsGAQUFBwIB
FhxodHRwczovL3d3dy52ZXJpc2lnbi5jb20vcnBhMDEGA1UdHwQqMCgwJqAkoCKG
IGh0dHA6Ly9jcmwudmVyaXNpZ24uY29tL3BjYTMuY3JsMB0GA1UdJQQWMBQGCCsG
AQUFBwMCBggrBgEFBQcDAzAOBgNVHQ8BAf8EBAMCAQYwEQYJYIZIAYb4QgEBBAQD
AgABMCkGA1UdEQQiMCCkHjAcMRowGAYDVQQDExFDbGFzczNDQTIwNDgtMS00MzAd
BgNVHQ4EFgQUCPVR6Pv+PT1kNnxoz1t4qN+5xTcwgYAGA1UdIwR5MHehY6RhMF8x
CzAJBgNVBAYTAlVTMRcwFQYDVQQKEw5WZXJpU2lnbiwgSW5jLjE3MDUGA1UECxMu
Q2xhc3MgMyBQdWJsaWMgUHJpbWFyeSBDZXJ0aWZpY2F0aW9uIEF1dGhvcml0eYIQ
cLrkHRDZKTS2OMp7A8y6vzANBgkqhkiG9w0BAQUFAAOBgQCuOhe4SntV+mRV7ECk
7UlBkJmcibyvLh3KeCP5HBkPf+tovDLZiDje3D/TibQ/sYKW8aRauu0uJtPefAFu
AAoApAaSEUgJQPkcGHlnIyTgu9XhUK4b9Q7d4C6BzYCjbFJPkXVViroi8tLqQXWI
L2NVfR5UWpVZytk0gcBfXvZ6tQ==
-----END CERTIFICATE-----

Certificate:
    Data:
        Version: 3 (0x2)
        Serial Number:
            41:ec:ed:ce:3c:0c:97:c0:50:d8:86:54:7f:f8:49:f3
    Signature Algorithm: sha1WithRSAEncryption
        Issuer: C=US, O=VeriSign, Inc., OU=VeriSign Trust Network, OU=Terms of use at https://www.verisign.com/rpa (c)04, CN=VeriSign Class 3 Code Signing 2004 CA
        Validity
            Not Before: Dec  1 00:00:00 2008 GMT
            Not After : Dec  1 23:59:59 2011 GMT
        Subject: C=GB, ST=London, L=London, O=Online Media Technologies Ltd., OU=Digital ID Class 3 - Microsoft Software Validation v2, CN=Online Media Technologies Ltd.
        Subject Public Key Info:
            Public Key Algorithm: rsaEncryption
                Public-Key: (1024 bit)
                Modulus:
                    00:b6:8b:7a:a4:be:15:46:c0:cd:64:17:1c:9c:73:
                    1b:74:3a:d4:81:39:1b:c1:e8:71:00:6f:e1:32:52:
                    34:5b:00:e2:de:97:14:30:92:d9:bd:ab:2e:f1:b9:
                    be:62:e9:65:b1:1b:05:da:df:d6:cb:10:1d:0e:52:
                    ec:7f:0f:8e:41:e8:cb:4e:4f:2a:7e:9b:88:8e:68:
                    f8:c7:ca:1f:32:4d:06:ac:3b:54:e7:6b:f5:0d:c2:
                    cc:74:dd:c0:9b:e4:75:f1:e2:1e:08:09:e5:f1:9f:
                    65:31:2b:f4:b7:69:62:27:cc:cc:c3:29:47:c2:98:
                    89:c2:cf:2e:84:1d:cf:de:87
                Exponent: 65537 (0x10001)
        X509v3 extensions:
            X509v3 Basic Constraints: 
                CA:FALSE
            X509v3 Key Usage: critical
                Digital Signature
            X509v3 CRL Distribution Points: 

                Full Name:
                  URI:http://CSC3-2004-crl.verisign.com/CSC3-2004.crl

            X509v3 Certificate Policies: 
                Policy: 2.16.840.1.113733.1.7.23.3
                  CPS: https://www.verisign.com/rpa

            X509v3 Extended Key Usage: 
                Code Signing
            Authority Information Access: 
                OCSP - URI:http://ocsp.verisign.com
                CA Issuers - URI:http://CSC3-2004-aia.verisign.com/CSC3-2004-aia.cer

            X509v3 Authority Key Identifier: 
                keyid:08:F5:51:E8:FB:FE:3D:3D:64:36:7C:68:CF:5B:78:A8:DF:B9:C5:37

            Netscape Cert Type: 
                Object Signing
            1.3.6.1.4.1.311.2.1.27: 
                0.......
    Signature Algorithm: sha1WithRSAEncryption
         2c:af:1c:7f:63:a2:c1:50:b8:00:a6:fe:4f:20:49:07:dc:2f:
         8d:7a:43:54:3a:b1:e6:cd:f5:90:ec:5f:83:54:52:2a:b4:30:
         6d:2f:bb:45:5a:a4:02:5a:af:12:8e:4e:f3:9d:b6:9c:88:a5:
         fd:b2:c0:b9:09:66:dd:7f:f2:29:4d:85:23:3d:64:6c:2d:66:
         9d:b8:a8:eb:69:7d:c4:40:56:d5:fd:00:df:fc:90:b7:b2:67:
         35:12:94:54:c9:53:87:16:ca:8d:ed:41:1b:b4:ed:35:ba:95:
         53:61:b9:43:ca:2a:e8:d0:9b:8e:8d:6d:52:1e:5c:c8:b0:b5:
         f1:b5:f1:4d:3b:de:13:be:d0:26:8f:a0:d6:7f:fd:a3:f7:7c:
         fc:af:d4:41:eb:47:e9:4f:3b:0f:80:c9:78:17:a5:1e:8d:e6:
         0a:25:2c:e6:2b:54:8e:98:48:ca:88:3f:bb:92:18:36:7b:83:
         32:30:47:d6:5b:10:97:66:35:d9:bb:4c:fc:02:3a:23:81:0a:
         2b:5b:01:ae:90:54:a7:8c:fb:b0:e8:d4:9e:6b:4c:e3:93:e1:
         91:93:92:40:ab:74:39:b0:a2:ff:d5:1b:94:69:93:e9:07:83:
         79:bb:67:40:9c:c6:61:c0:10:65:27:fe:a8:63:60:c4:d9:4b:
         94:19:57:0d
-----BEGIN CERTIFICATE-----
MIIE/jCCA+agAwIBAgIQQeztzjwMl8BQ2IZUf/hJ8zANBgkqhkiG9w0BAQUFADCB
tDELMAkGA1UEBhMCVVMxFzAVBgNVBAoTDlZlcmlTaWduLCBJbmMuMR8wHQYDVQQL
ExZWZXJpU2lnbiBUcnVzdCBOZXR3b3JrMTswOQYDVQQLEzJUZXJtcyBvZiB1c2Ug
YXQgaHR0cHM6Ly93d3cudmVyaXNpZ24uY29tL3JwYSAoYykwNDEuMCwGA1UEAxMl
VmVyaVNpZ24gQ2xhc3MgMyBDb2RlIFNpZ25pbmcgMjAwNCBDQTAeFw0wODEyMDEw
MDAwMDBaFw0xMTEyMDEyMzU5NTlaMIHBMQswCQYDVQQGEwJHQjEPMA0GA1UECBMG
TG9uZG9uMQ8wDQYDVQQHEwZMb25kb24xJzAlBgNVBAoUHk9ubGluZSBNZWRpYSBU
ZWNobm9sb2dpZXMgTHRkLjE+MDwGA1UECxM1RGlnaXRhbCBJRCBDbGFzcyAzIC0g
TWljcm9zb2Z0IFNvZnR3YXJlIFZhbGlkYXRpb24gdjIxJzAlBgNVBAMUHk9ubGlu
ZSBNZWRpYSBUZWNobm9sb2dpZXMgTHRkLjCBnzANBgkqhkiG9w0BAQEFAAOBjQAw
gYkCgYEAtot6pL4VRsDNZBccnHMbdDrUgTkbwehxAG/hMlI0WwDi3pcUMJLZvasu
8bm+YullsRsF2t/WyxAdDlLsfw+OQejLTk8qfpuIjmj4x8ofMk0GrDtU52v1DcLM
dN3Am+R18eIeCAnl8Z9lMSv0t2liJ8zMwylHwpiJws8uhB3P3ocCAwEAAaOCAX8w
ggF7MAkGA1UdEwQCMAAwDgYDVR0PAQH/BAQDAgeAMEAGA1UdHwQ5MDcwNaAzoDGG
L2h0dHA6Ly9DU0MzLTIwMDQtY3JsLnZlcmlzaWduLmNvbS9DU0MzLTIwMDQuY3Js
MEQGA1UdIAQ9MDswOQYLYIZIAYb4RQEHFwMwKjAoBggrBgEFBQcCARYcaHR0cHM6
Ly93d3cudmVyaXNpZ24uY29tL3JwYTATBgNVHSUEDDAKBggrBgEFBQcDAzB1Bggr
BgEFBQcBAQRpMGcwJAYIKwYBBQUHMAGGGGh0dHA6Ly9vY3NwLnZlcmlzaWduLmNv
bTA/BggrBgEFBQcwAoYzaHR0cDovL0NTQzMtMjAwNC1haWEudmVyaXNpZ24uY29t
L0NTQzMtMjAwNC1haWEuY2VyMB8GA1UdIwQYMBaAFAj1Uej7/j09ZDZ8aM9beKjf
ucU3MBEGCWCGSAGG+EIBAQQEAwIEEDAWBgorBgEEAYI3AgEbBAgwBgEBAAEB/zAN
BgkqhkiG9w0BAQUFAAOCAQEALK8cf2OiwVC4AKb+TyBJB9wvjXpDVDqx5s31kOxf
g1RSKrQwbS+7RVqkAlqvEo5O8522nIil/bLAuQlm3X/yKU2FIz1kbC1mnbio62l9
xEBW1f0A3/yQt7JnNRKUVMlThxbKje1BG7TtNbqVU2G5Q8oq6NCbjo1tUh5cyLC1
8bXxTTveE77QJo+g1n/9o/d8/K/UQetH6U87D4DJeBelHo3mCiUs5itUjphIyog/
u5IYNnuDMjBH1lsQl2Y12btM/AI6I4EKK1sBrpBUp4z7sOjUnmtM45PhkZOSQKt0
ObCi/9UblGmT6QeDebtnQJzGYcAQZSf+qGNgxNlLlBlXDQ==
-----END CERTIFICATE-----

