Certificate:
    Data:
        Version: 3 (0x2)
        Serial Number:
            19:c0:08:6f:bb:66:40:2d:8c:45:ea:8c:7c:6e:cd:10
    Signature Algorithm: sha256WithRSAEncryption
        Issuer: C=US, O=thawte, Inc., CN=thawte SHA256 Code Signing CA
        Validity
            Not Before: Jul 28 00:00:00 2017 GMT
            Not After : Jul 28 23:59:59 2018 GMT
        Subject: C=UA, ST=Kyiv, L=Kyiv, O=PRIVATELY OWNED ENTERPRISE "SINETEKO", CN=PRIVATELY OWNED ENTERPRISE "SINETEKO"
        Subject Public Key Info:
            Public Key Algorithm: rsaEncryption
                Public-Key: (2048 bit)
                Modulus:
                    00:c5:62:70:23:c9:7a:de:a6:47:2a:21:81:42:ee:
                    73:20:f6:7d:c3:8f:5d:d0:0c:24:33:17:ee:84:0f:
                    22:1f:fe:58:9a:3a:40:a6:04:c2:32:f8:f9:30:46:
                    9f:77:cb:70:9b:3c:74:a8:4c:ee:7c:29:e7:ca:ba:
                    26:a2:bc:85:25:7f:42:47:1f:50:ad:dc:3d:44:4c:
                    c2:a5:25:d0:b0:3d:d0:f4:28:e5:c4:7a:74:97:62:
                    bb:b6:b5:9b:5f:85:3a:3b:64:f6:11:1f:05:c2:7f:
                    45:6b:27:08:e2:b2:d2:52:5e:27:59:d3:aa:53:7c:
                    16:87:cf:c2:0a:31:37:94:b1:20:12:fe:68:a3:3e:
                    7e:cc:65:36:5b:75:08:18:d0:a0:67:db:d7:5a:92:
                    bd:22:1c:29:8a:2c:49:a4:6f:26:67:0f:5e:a8:48:
                    06:e8:09:70:a7:34:0a:0c:8a:f0:34:77:4e:3f:5a:
                    57:16:10:06:bf:7a:7e:1f:7a:e6:73:58:e2:26:2f:
                    40:15:92:ef:dd:3c:0e:48:56:92:95:41:d7:6c:ca:
                    58:cf:d9:ac:19:e5:87:b5:df:43:a6:df:64:47:38:
                    44:ac:4b:b9:11:5f:0f:66:3e:28:41:eb:0d:4f:af:
                    d2:82:67:aa:88:ab:74:6a:72:d6:f3:5c:9b:a4:f1:
                    13:db
                Exponent: 65537 (0x10001)
        X509v3 extensions:
            X509v3 Basic Constraints: 
                CA:FALSE
            X509v3 Authority Key Identifier: 
                keyid:57:86:9B:54:B8:BE:A6:29:8A:E4:F6:C2:E2:13:18:89:85:CD:DC:B7

            X509v3 Subject Key Identifier: 
                00:E8:A3:E8:94:FD:DA:05:50:F3:B0:A2:C1:7F:AD:9B:1D:57:20:6E
            X509v3 CRL Distribution Points: 

                Full Name:
                  URI:http://tl.symcb.com/tl.crl

            X509v3 Key Usage: critical
                Digital Signature
            X509v3 Extended Key Usage: 
                Code Signing
            X509v3 Certificate Policies: 
                Policy: 2.23.140.1.4.1
                  CPS: https://www.thawte.com/cps
                  User Notice:
                    Explicit Text: https://www.thawte.com/repository

            Authority Information Access: 
                OCSP - URI:http://tl.symcd.com
                CA Issuers - URI:http://tl.symcb.com/tl.crt

    Signature Algorithm: sha256WithRSAEncryption
         1f:a1:1d:44:ce:24:7f:c9:66:bd:c8:10:48:1b:08:e3:6f:69:
         ff:7c:f9:eb:fd:be:e9:8d:5c:dd:5e:14:70:36:a1:2e:1a:73:
         83:ca:6e:e2:71:74:bf:1a:ac:a4:d7:80:45:a5:11:69:a5:a7:
         27:fc:78:1f:16:d2:e8:dc:9d:67:0e:67:07:b4:eb:60:c5:40:
         3d:b1:23:cf:d0:6d:6a:41:a0:60:52:e1:e0:2f:83:6a:7f:a5:
         3a:91:20:4a:76:81:48:86:57:85:27:d7:63:d0:fe:41:da:e8:
         0b:11:1d:40:a5:3f:bb:fd:19:f7:01:fc:6f:e8:10:98:2d:23:
         c5:a9:fc:a8:86:9f:aa:79:4f:38:1b:4b:05:7e:39:18:2f:ba:
         35:35:90:d6:8a:d3:eb:e3:9b:76:9a:5b:b9:97:4f:8d:37:e4:
         4c:2c:b3:e9:7e:09:9d:dc:3e:68:4f:d3:95:ff:42:45:03:96:
         36:d0:22:8f:cc:4e:17:25:37:3b:24:70:4c:e7:50:22:7b:7d:
         82:8b:f3:55:d4:eb:a0:ba:b1:c3:36:1b:0d:af:a2:ab:1e:31:
         b3:fd:52:aa:de:92:b4:96:c2:27:24:cf:2c:ac:12:5c:16:37:
         f8:8b:ae:e6:ec:ae:d7:8a:26:ff:8b:5a:cb:c3:1e:67:65:0f:
         a9:6d:6d:26
-----BEGIN CERTIFICATE-----
MIIEzjCCA7agAwIBAgIQGcAIb7tmQC2MReqMfG7NEDANBgkqhkiG9w0BAQsFADBM
MQswCQYDVQQGEwJVUzEVMBMGA1UEChMMdGhhd3RlLCBJbmMuMSYwJAYDVQQDEx10
aGF3dGUgU0hBMjU2IENvZGUgU2lnbmluZyBDQTAeFw0xNzA3MjgwMDAwMDBaFw0x
ODA3MjgyMzU5NTlaMIGLMQswCQYDVQQGEwJVQTENMAsGA1UECAwES3lpdjENMAsG
A1UEBwwES3lpdjEuMCwGA1UECgwlUFJJVkFURUxZIE9XTkVEIEVOVEVSUFJJU0Ug
IlNJTkVURUtPIjEuMCwGA1UEAwwlUFJJVkFURUxZIE9XTkVEIEVOVEVSUFJJU0Ug
IlNJTkVURUtPIjCCASIwDQYJKoZIhvcNAQEBBQADggEPADCCAQoCggEBAMVicCPJ
et6mRyohgULucyD2fcOPXdAMJDMX7oQPIh/+WJo6QKYEwjL4+TBGn3fLcJs8dKhM
7nwp58q6JqK8hSV/QkcfUK3cPURMwqUl0LA90PQo5cR6dJdiu7a1m1+FOjtk9hEf
BcJ/RWsnCOKy0lJeJ1nTqlN8FofPwgoxN5SxIBL+aKM+fsxlNlt1CBjQoGfb11qS
vSIcKYosSaRvJmcPXqhIBugJcKc0CgyK8DR3Tj9aVxYQBr96fh965nNY4iYvQBWS
7908DkhWkpVB12zKWM/ZrBnlh7XfQ6bfZEc4RKxLuRFfD2Y+KEHrDU+v0oJnqoir
dGpy1vNcm6TxE9sCAwEAAaOCAWowggFmMAkGA1UdEwQCMAAwHwYDVR0jBBgwFoAU
V4abVLi+pimK5PbC4hMYiYXN3LcwHQYDVR0OBBYEFADoo+iU/doFUPOwosF/rZsd
VyBuMCsGA1UdHwQkMCIwIKAeoByGGmh0dHA6Ly90bC5zeW1jYi5jb20vdGwuY3Js
MA4GA1UdDwEB/wQEAwIHgDATBgNVHSUEDDAKBggrBgEFBQcDAzBuBgNVHSAEZzBl
MGMGBmeBDAEEATBZMCYGCCsGAQUFBwIBFhpodHRwczovL3d3dy50aGF3dGUuY29t
L2NwczAvBggrBgEFBQcCAjAjDCFodHRwczovL3d3dy50aGF3dGUuY29tL3JlcG9z
aXRvcnkwVwYIKwYBBQUHAQEESzBJMB8GCCsGAQUFBzABhhNodHRwOi8vdGwuc3lt
Y2QuY29tMCYGCCsGAQUFBzAChhpodHRwOi8vdGwuc3ltY2IuY29tL3RsLmNydDAN
BgkqhkiG9w0BAQsFAAOCAQEAH6EdRM4kf8lmvcgQSBsI429p/3z56/2+6Y1c3V4U
cDahLhpzg8pu4nF0vxqspNeARaURaaWnJ/x4HxbS6NydZw5nB7TrYMVAPbEjz9Bt
akGgYFLh4C+Dan+lOpEgSnaBSIZXhSfXY9D+QdroCxEdQKU/u/0Z9wH8b+gQmC0j
xan8qIafqnlPOBtLBX45GC+6NTWQ1orT6+ObdppbuZdPjTfkTCyz6X4Jndw+aE/T
lf9CRQOWNtAij8xOFyU3OyRwTOdQInt9govzVdTroLqxwzYbDa+iqx4xs/1Sqt6S
tJbCJyTPLKwSXBY3+Iuu5uyu14om/4tay8MeZ2UPqW1tJg==
-----END CERTIFICATE-----

