Certificate:
    Data:
        Version: 3 (0x2)
        Serial Number:
            04:00:00:00:00:01:2f:4e:e1:52:d7
    Signature Algorithm: sha1WithRSAEncryption
        Issuer: C=BE, O=GlobalSign nv-sa, OU=Root CA, CN=GlobalSign Root CA
        Validity
            Not Before: Apr 13 10:00:00 2011 GMT
            Not After : Jan 28 12:00:00 2028 GMT
        Subject: C=BE, O=GlobalSign nv-sa, CN=GlobalSign Timestamping CA - G2
        Subject Public Key Info:
            Public Key Algorithm: rsaEncryption
                Public-Key: (2048 bit)
                Modulus:
                    00:94:ef:65:f8:b5:57:9f:a0:53:0d:34:06:eb:09:
                    1f:b7:47:18:6a:cb:f0:5b:e4:ff:27:a5:34:d1:f7:
                    89:1a:bf:9e:b1:cd:12:41:6e:66:d4:81:a0:85:8b:
                    64:5a:46:2f:99:a0:8d:77:b1:e2:bc:5c:dd:22:d7:
                    6a:67:d0:bb:e8:ca:74:de:8b:4f:0d:b0:52:e5:90:
                    5b:eb:47:0e:f1:e7:9f:9c:0b:90:65:3e:17:96:30:
                    45:72:6d:39:a1:17:36:ca:b9:a0:8c:1b:4f:08:19:
                    f6:81:31:ad:61:16:a4:62:e6:b4:40:9e:c3:fc:fb:
                    95:f6:fb:b5:2e:95:81:98:e0:ef:c5:eb:d8:02:59:
                    78:77:f7:aa:e3:52:6b:50:91:29:c5:fc:f7:cd:93:
                    65:d2:60:61:22:f2:06:fb:32:dd:16:51:fa:0e:fd:
                    8a:30:f0:17:09:a7:bb:f3:04:ae:ab:90:e7:6c:df:
                    7a:a9:f4:ef:c4:62:27:5f:6f:99:6d:38:74:aa:11:
                    8b:da:df:c7:14:4c:e9:85:b2:ec:c2:7d:4a:26:8f:
                    e7:56:ba:a6:e0:cf:92:53:80:74:f4:03:ec:68:b2:
                    60:bc:84:20:00:83:1b:a1:ee:b4:74:05:c1:29:8e:
                    62:d0:47:b1:fa:f0:53:cc:18:f9:2e:3b:f9:70:7e:
                    b4:25
                Exponent: 65537 (0x10001)
        X509v3 extensions:
            X509v3 Key Usage: critical
                Certificate Sign, CRL Sign
            X509v3 Basic Constraints: critical
                CA:TRUE, pathlen:0
            X509v3 Subject Key Identifier: 
                46:D8:3E:FF:DC:E3:BE:FF:83:E6:F4:85:9B:B0:DD:6A:D6:14:A9:C1
            X509v3 Certificate Policies: 
                Policy: X509v3 Any Policy
                  CPS: https://www.globalsign.com/repository/

            X509v3 CRL Distribution Points: 

                Full Name:
                  URI:http://crl.globalsign.net/root.crl

            X509v3 Authority Key Identifier: 
                keyid:60:7B:66:1A:45:0D:97:CA:89:50:2F:7D:04:CD:34:A8:FF:FC:FD:4B

    Signature Algorithm: sha1WithRSAEncryption
         4e:5e:56:90:1e:46:b4:d9:49:31:f3:bb:17:39:28:1b:c2:16:
         dd:fd:41:dc:09:05:04:9b:6f:b2:a2:9a:d6:99:2e:40:99:00:
         55:b5:ea:3f:a5:20:76:d3:86:34:d4:17:cc:55:3a:c7:82:ee:
         ef:a8:ba:bc:d8:06:9f:15:50:df:cd:16:7b:52:3a:02:d7:19:
         1a:fd:af:f0:78:5c:e0:4b:c5:18:df:3a:24:1e:da:ac:b8:a9:
         58:04:02:07:30:db:b0:12:5e:fe:31:be:f0:04:48:f4:f0:70:
         f8:3a:5e:56:83:cf:3d:fb:0d:bc:f4:c5:ed:97:9d:b9:d4:db:
         a5:27:84:e3:38:9b:8b:a7:35:86:44:20:a4:3b:6d:a4:6a:0b:
         a1:83:fd:28:eb:da:ef:28:f6:cc:88:5d:fb:0a:3b:00:ab:e0:
         21:eb:e2:2f:35:6c:0f:8e:34:45:97:eb:a2:f7:99:33:35:7e:
         cb:9a:8a:bb:45:4d:e7:3f:9f:c2:d9:8a:fa:65:b2:6e:c7:7e:
         65:ff:e8:92:e1:2c:31:a2:f7:b0:27:36:48:8f:26:6f:3b:ee:
         4d:76:1f:79:c3:e5:7f:96:35:bc:2d:0e:cc:01:b0:8e:7f:ff:
         51:80:80:a7:92:d4:b3:44:46:64:8c:87:4f:16:63:07:31:4b:
         63:b0:df:f3
-----BEGIN CERTIFICATE-----
MIIEFDCCAvygAwIBAgILBAAAAAABL07hUtcwDQYJKoZIhvcNAQEFBQAwVzELMAkG
A1UEBhMCQkUxGTAXBgNVBAoTEEdsb2JhbFNpZ24gbnYtc2ExEDAOBgNVBAsTB1Jv
b3QgQ0ExGzAZBgNVBAMTEkdsb2JhbFNpZ24gUm9vdCBDQTAeFw0xMTA0MTMxMDAw
MDBaFw0yODAxMjgxMjAwMDBaMFIxCzAJBgNVBAYTAkJFMRkwFwYDVQQKExBHbG9i
YWxTaWduIG52LXNhMSgwJgYDVQQDEx9HbG9iYWxTaWduIFRpbWVzdGFtcGluZyBD
QSAtIEcyMIIBIjANBgkqhkiG9w0BAQEFAAOCAQ8AMIIBCgKCAQEAlO9l+LVXn6BT
DTQG6wkft0cYasvwW+T/J6U00feJGr+esc0SQW5m1IGghYtkWkYvmaCNd7HivFzd
ItdqZ9C76Mp03otPDbBS5ZBb60cO8eefnAuQZT4XljBFcm05oRc2yrmgjBtPCBn2
gTGtYRakYua0QJ7D/PuV9vu1LpWBmODvxevYAll4d/eq41JrUJEpxfz3zZNl0mBh
IvIG+zLdFlH6Dv2KMPAXCae78wSuq5DnbN96qfTvxGInX2+ZbTh0qhGL2t/HFEzp
hbLswn1KJo/nVrqm4M+SU4B09APsaLJgvIQgAIMboe60dAXBKY5i0Eex+vBTzBj5
Ljv5cH60JQIDAQABo4HlMIHiMA4GA1UdDwEB/wQEAwIBBjASBgNVHRMBAf8ECDAG
AQH/AgEAMB0GA1UdDgQWBBRG2D7/3OO+/4Pm9IWbsN1q1hSpwTBHBgNVHSAEQDA+
MDwGBFUdIAAwNDAyBggrBgEFBQcCARYmaHR0cHM6Ly93d3cuZ2xvYmFsc2lnbi5j
b20vcmVwb3NpdG9yeS8wMwYDVR0fBCwwKjAooCagJIYiaHR0cDovL2NybC5nbG9i
YWxzaWduLm5ldC9yb290LmNybDAfBgNVHSMEGDAWgBRge2YaRQ2XyolQL30EzTSo
//z9SzANBgkqhkiG9w0BAQUFAAOCAQEATl5WkB5GtNlJMfO7FzkoG8IW3f1B3AkF
BJtvsqKa1pkuQJkAVbXqP6UgdtOGNNQXzFU6x4Lu76i6vNgGnxVQ380We1I6AtcZ
Gv2v8Hhc4EvFGN86JB7arLipWAQCBzDbsBJe/jG+8ARI9PBw+DpeVoPPPfsNvPTF
7ZedudTbpSeE4zibi6c1hkQgpDttpGoLoYP9KOva7yj2zIhd+wo7AKvgIeviLzVs
D440RZfroveZMzV+y5qKu0VN5z+fwtmK+mWybsd+Zf/okuEsMaL3sCc2SI8mbzvu
TXYfecPlf5Y1vC0OzAGwjn//UYCAp5LUs0RGZIyHTxZjBzFLY7Df8w==
-----END CERTIFICATE-----

Certificate:
    Data:
        Version: 3 (0x2)
        Serial Number:
            11:21:d6:99:a7:64:97:3e:f1:f8:42:7e:e9:19:cc:53:41:14
    Signature Algorithm: sha1WithRSAEncryption
        Issuer: C=BE, O=GlobalSign nv-sa, CN=GlobalSign Timestamping CA - G2
        Validity
            Not Before: May 24 00:00:00 2016 GMT
            Not After : Jun 24 00:00:00 2027 GMT
        Subject: C=SG, O=GMO GlobalSign Pte Ltd, CN=GlobalSign TSA for MS Authenticode - G2
        Subject Public Key Info:
            Public Key Algorithm: rsaEncryption
                Public-Key: (2048 bit)
                Modulus:
                    00:b0:17:ae:a2:d3:b6:04:30:56:1e:58:0f:b1:ed:
                    55:a4:d6:54:cb:d8:f6:73:3a:ec:5d:5e:ab:25:fd:
                    36:a5:fa:84:c3:61:40:c5:46:b5:59:52:3b:42:a2:
                    2e:5f:13:62:10:a9:5b:e6:73:d6:92:25:b1:7d:23:
                    e3:06:b3:87:3a:0e:43:f0:d7:00:89:53:a2:11:31:
                    52:28:6e:5d:40:72:3c:f2:09:77:a7:49:92:97:d4:
                    6c:90:a0:76:a7:fd:b8:dc:b3:9d:f2:07:60:2c:4f:
                    58:98:00:6b:d3:15:54:e0:fa:dd:ff:80:2c:5f:18:
                    a6:98:ff:d4:ab:ec:a1:45:59:b2:2e:6f:62:5d:e0:
                    d9:19:ac:8b:57:9c:a8:26:2b:d9:17:a5:10:d2:47:
                    08:1a:70:2c:33:8b:7f:68:80:2a:b5:a1:5d:6b:dd:
                    8d:02:02:29:03:aa:7c:37:bb:bb:29:4e:3d:53:93:
                    b3:a6:fa:8f:d2:58:93:15:4c:b9:2d:ab:80:a3:a3:
                    25:fb:af:f7:08:64:b0:7a:44:0f:5c:10:d7:5f:61:
                    37:aa:4e:6b:d3:d2:53:25:9d:82:73:fa:2c:f9:72:
                    b0:a9:19:39:2a:50:fa:a9:d0:3c:3a:ca:e8:5b:ef:
                    f5:5f:51:f4:f9:0a:d9:97:35:de:6a:85:e6:23:04:
                    42:af
                Exponent: 65537 (0x10001)
        X509v3 extensions:
            X509v3 Key Usage: critical
                Digital Signature
            X509v3 Certificate Policies: 
                Policy: 1.3.6.1.4.1.4146.1.30
                  CPS: https://www.globalsign.com/repository/

            X509v3 Basic Constraints: 
                CA:FALSE
            X509v3 Extended Key Usage: critical
                Time Stamping
            X509v3 CRL Distribution Points: 

                Full Name:
                  URI:http://crl.globalsign.com/gs/gstimestampingg2.crl

            Authority Information Access: 
                CA Issuers - URI:http://secure.globalsign.com/cacert/gstimestampingg2.crt

            X509v3 Subject Key Identifier: 
                D4:A2:84:4A:38:5A:18:7F:BA:4F:30:50:BD:9D:D5:7A:87:D6:09:F7
            X509v3 Authority Key Identifier: 
                keyid:46:D8:3E:FF:DC:E3:BE:FF:83:E6:F4:85:9B:B0:DD:6A:D6:14:A9:C1

    Signature Algorithm: sha1WithRSAEncryption
         8f:a9:1a:91:6d:04:a6:37:20:0e:83:96:de:23:d3:6b:6e:1f:
         6e:dd:64:3d:68:21:22:b5:f8:47:36:69:8e:e1:a5:45:c7:24:
         a2:22:b7:29:09:cc:54:5a:ae:c6:bc:cd:63:8e:b3:3d:50:48:
         e5:b4:cc:ae:cd:92:8d:9e:28:8b:13:4a:11:aa:bd:a3:ef:d3:
         b2:36:fc:b4:a1:72:bf:6d:97:63:79:8c:44:bc:70:2f:7e:f3:
         bc:dd:82:53:ab:1a:f6:eb:fa:1c:97:bc:b6:37:9c:a4:1c:30:
         bc:ab:bc:2d:47:36:df:92:20:03:e8:71:c6:58:f6:75:05:9a:
         34:f0:0b:59:5a:82:44:34:aa:80:e4:2f:84:f6:47:5d:96:c9:
         b6:ca:ca:9d:b7:a6:ba:e4:50:d3:d4:37:b8:ba:20:0e:d0:d3:
         92:2a:5b:c4:59:bb:a1:6d:db:3c:ce:44:9d:c1:38:2a:ad:e3:
         8d:bd:cd:09:77:1a:10:be:67:0a:02:36:64:88:b9:b3:1b:26:
         ee:e7:9e:60:c4:46:a8:bc:61:33:6c:cf:4e:b9:9c:b9:6a:f0:
         9f:37:fe:b5:3d:4f:9a:d3:4d:ff:de:20:8e:4e:97:a6:fd:9f:
         09:bc:4d:ca:18:76:c9:b0:4d:85:50:f2:80:d2:1d:06:f5:58:
         04:07:b1:18
-----BEGIN CERTIFICATE-----
MIIEnzCCA4egAwIBAgISESHWmadklz7x+EJ+6RnMU0EUMA0GCSqGSIb3DQEBBQUA
MFIxCzAJBgNVBAYTAkJFMRkwFwYDVQQKExBHbG9iYWxTaWduIG52LXNhMSgwJgYD
VQQDEx9HbG9iYWxTaWduIFRpbWVzdGFtcGluZyBDQSAtIEcyMB4XDTE2MDUyNDAw
MDAwMFoXDTI3MDYyNDAwMDAwMFowYDELMAkGA1UEBhMCU0cxHzAdBgNVBAoTFkdN
TyBHbG9iYWxTaWduIFB0ZSBMdGQxMDAuBgNVBAMTJ0dsb2JhbFNpZ24gVFNBIGZv
ciBNUyBBdXRoZW50aWNvZGUgLSBHMjCCASIwDQYJKoZIhvcNAQEBBQADggEPADCC
AQoCggEBALAXrqLTtgQwVh5YD7HtVaTWVMvY9nM67F1eqyX9NqX6hMNhQMVGtVlS
O0KiLl8TYhCpW+Zz1pIlsX0j4wazhzoOQ/DXAIlTohExUihuXUByPPIJd6dJkpfU
bJCgdqf9uNyznfIHYCxPWJgAa9MVVOD63f+ALF8Yppj/1KvsoUVZsi5vYl3g2Rms
i1ecqCYr2RelENJHCBpwLDOLf2iAKrWhXWvdjQICKQOqfDe7uylOPVOTs6b6j9JY
kxVMuS2rgKOjJfuv9whksHpED1wQ119hN6pOa9PSUyWdgnP6LPlysKkZOSpQ+qnQ
PDrK6Fvv9V9R9PkK2Zc13mqF5iMEQq8CAwEAAaOCAV8wggFbMA4GA1UdDwEB/wQE
AwIHgDBMBgNVHSAERTBDMEEGCSsGAQQBoDIBHjA0MDIGCCsGAQUFBwIBFiZodHRw
czovL3d3dy5nbG9iYWxzaWduLmNvbS9yZXBvc2l0b3J5LzAJBgNVHRMEAjAAMBYG
A1UdJQEB/wQMMAoGCCsGAQUFBwMIMEIGA1UdHwQ7MDkwN6A1oDOGMWh0dHA6Ly9j
cmwuZ2xvYmFsc2lnbi5jb20vZ3MvZ3N0aW1lc3RhbXBpbmdnMi5jcmwwVAYIKwYB
BQUHAQEESDBGMEQGCCsGAQUFBzAChjhodHRwOi8vc2VjdXJlLmdsb2JhbHNpZ24u
Y29tL2NhY2VydC9nc3RpbWVzdGFtcGluZ2cyLmNydDAdBgNVHQ4EFgQU1KKESjha
GH+6TzBQvZ3VeofWCfcwHwYDVR0jBBgwFoAURtg+/9zjvv+D5vSFm7DdatYUqcEw
DQYJKoZIhvcNAQEFBQADggEBAI+pGpFtBKY3IA6Dlt4j02tuH27dZD1oISK1+Ec2
aY7hpUXHJKIitykJzFRarsa8zWOOsz1QSOW0zK7Nko2eKIsTShGqvaPv07I2/LSh
cr9tl2N5jES8cC9+87zdglOrGvbr+hyXvLY3nKQcMLyrvC1HNt+SIAPoccZY9nUF
mjTwC1lagkQ0qoDkL4T2R12WybbKyp23prrkUNPUN7i6IA7Q05IqW8RZu6Ft2zzO
RJ3BOCqt4429zQl3GhC+ZwoCNmSIubMbJu7nnmDERqi8YTNsz065nLlq8J83/rU9
T5rTTf/eII5Ol6b9nwm8TcoYdsmwTYVQ8oDSHQb1WAQHsRg=
-----END CERTIFICATE-----

Certificate:
    Data:
        Version: 3 (0x2)
        Serial Number:
            65:b7:13:1c:c2:71:e0:76:a5:c0:1a:a5:cf:e6:dc:a5
    Signature Algorithm: sha256WithRSAEncryption
        Issuer: C=IL, O=StartCom Ltd., OU=StartCom Certification Authority, CN=StartCom Class 2 Object CA
        Validity
            Not Before: Mar 18 02:45:10 2016 GMT
            Not After : Mar 18 02:45:10 2018 GMT
        Subject: C=RU, ST=Tomsk Oblast, L=Tomsk, O=Valeriy Sokolov, CN=Valeriy Sokolov
        Subject Public Key Info:
            Public Key Algorithm: rsaEncryption
                Public-Key: (2048 bit)
                Modulus:
                    00:b9:5e:78:4e:3f:92:35:ed:ac:51:f8:86:d7:99:
                    39:e0:97:fc:38:4f:ea:a4:de:07:00:41:a5:30:ae:
                    08:4b:c4:27:ec:67:b6:1c:28:f4:0a:c3:cc:f6:69:
                    ff:03:60:9f:75:a7:59:44:06:3c:a7:d8:d8:be:a0:
                    1d:87:0a:35:d3:e1:fe:4b:f7:ec:cd:c6:8c:8c:9f:
                    eb:e4:c0:6a:06:90:37:e5:40:0b:09:28:c2:37:ec:
                    79:78:22:73:e8:88:a6:d9:55:a5:13:7a:be:53:64:
                    fa:56:6b:d6:db:77:81:11:40:26:31:6a:3f:07:93:
                    ef:ff:34:46:54:de:31:56:b3:e2:1c:b7:2c:08:eb:
                    04:92:d0:5a:59:d3:e0:85:ac:ae:92:26:cc:ff:a7:
                    23:b4:ac:07:5d:21:cf:49:7f:67:67:99:43:d9:04:
                    ec:19:ea:b1:cf:36:aa:ea:1d:ee:b7:5c:04:79:74:
                    3f:8b:24:32:19:8d:42:8e:11:7f:a6:83:c6:5f:09:
                    75:c5:8a:21:47:c8:c1:d8:99:2d:53:0e:3d:e2:cd:
                    a2:84:ca:31:68:a2:48:91:03:3a:0b:e6:b0:be:19:
                    d3:41:46:27:e3:a3:ee:6b:69:ac:cf:13:7c:46:e4:
                    09:fd:61:ce:b8:da:3f:f3:10:1f:88:53:0e:bf:02:
                    3d:e7
                Exponent: 65537 (0x10001)
        X509v3 extensions:
            X509v3 Key Usage: critical
                Digital Signature
            X509v3 Extended Key Usage: 
                Code Signing
            X509v3 Basic Constraints: 
                CA:FALSE
            X509v3 Subject Key Identifier: 
                4E:06:7C:42:B6:80:FD:DD:21:04:34:16:03:A6:0D:B3:9D:6D:D3:61
            X509v3 Authority Key Identifier: 
                keyid:3E:62:93:9A:D7:C7:19:EE:3E:8F:49:10:85:55:15:20:E3:94:84:1C

            Authority Information Access: 
                OCSP - URI:http://ocsp.startssl.com
                CA Issuers - URI:http://aia.startssl.com/certs/sca.code2.crt

            X509v3 CRL Distribution Points: 

                Full Name:
                  URI:http://crl.startssl.com/sca-code2.crl

            X509v3 Issuer Alternative Name: 
                URI:http://www.startssl.com/
            X509v3 Certificate Policies: 
                Policy: 2.23.140.1.4.1
                Policy: 1.3.6.1.4.1.23223.1.2.4
                  CPS: http://www.startssl.com/policy

    Signature Algorithm: sha256WithRSAEncryption
         97:b4:63:af:ca:48:e3:9e:9c:e1:48:06:31:00:74:f6:0e:a1:
         90:3a:de:a1:d8:f7:19:8e:04:f4:22:39:76:f9:18:68:b8:73:
         92:9d:02:0b:93:ca:01:cd:39:a0:0b:7e:fe:47:31:5c:63:79:
         ef:6d:23:a9:1d:ed:3e:78:1a:83:00:a7:64:d9:b6:9f:35:f1:
         e5:62:2f:8a:c4:f3:40:7a:78:9f:ab:2c:21:05:a0:8b:30:c8:
         33:52:e3:8e:fa:31:ee:c8:fc:af:e1:ab:8f:b5:6c:0e:9a:1a:
         17:bd:14:e6:d8:24:d6:43:4c:9c:95:39:65:59:5f:e6:30:f2:
         b8:06:ca:bf:14:79:68:93:ec:7e:c7:84:1b:64:75:28:61:ff:
         a3:c3:03:69:93:e1:92:f7:b4:7c:83:50:88:d1:aa:49:fb:43:
         e8:a5:08:ec:52:24:c2:46:f6:e1:32:6b:4f:1a:80:6f:57:ba:
         c8:96:a7:23:d0:fc:60:ff:51:d9:27:e1:22:12:95:e6:fe:af:
         ed:7b:02:3e:0f:8c:8c:e2:f2:3f:d2:35:10:20:df:61:c6:50:
         da:1a:0b:23:9b:5c:9e:2d:06:de:08:b5:be:29:78:35:4f:c5:
         e7:9e:f7:76:1c:f6:76:61:a8:cf:10:74:03:a7:b5:cc:50:e3:
         3c:c9:7f:e1
-----BEGIN CERTIFICATE-----
MIIE+zCCA+OgAwIBAgIQZbcTHMJx4HalwBqlz+bcpTANBgkqhkiG9w0BAQsFADB1
MQswCQYDVQQGEwJJTDEWMBQGA1UEChMNU3RhcnRDb20gTHRkLjEpMCcGA1UECxMg
U3RhcnRDb20gQ2VydGlmaWNhdGlvbiBBdXRob3JpdHkxIzAhBgNVBAMTGlN0YXJ0
Q29tIENsYXNzIDIgT2JqZWN0IENBMB4XDTE2MDMxODAyNDUxMFoXDTE4MDMxODAy
NDUxMFowaDELMAkGA1UEBhMCUlUxFTATBgNVBAgMDFRvbXNrIE9ibGFzdDEOMAwG
A1UEBwwFVG9tc2sxGDAWBgNVBAoMD1ZhbGVyaXkgU29rb2xvdjEYMBYGA1UEAwwP
VmFsZXJpeSBTb2tvbG92MIIBIjANBgkqhkiG9w0BAQEFAAOCAQ8AMIIBCgKCAQEA
uV54Tj+SNe2sUfiG15k54Jf8OE/qpN4HAEGlMK4IS8Qn7Ge2HCj0CsPM9mn/A2Cf
dadZRAY8p9jYvqAdhwo10+H+S/fszcaMjJ/r5MBqBpA35UALCSjCN+x5eCJz6Iim
2VWlE3q+U2T6VmvW23eBEUAmMWo/B5Pv/zRGVN4xVrPiHLcsCOsEktBaWdPghayu
kibM/6cjtKwHXSHPSX9nZ5lD2QTsGeqxzzaq6h3ut1wEeXQ/iyQyGY1CjhF/poPG
Xwl1xYohR8jB2JktUw494s2ihMoxaKJIkQM6C+awvhnTQUYn46Pua2mszxN8RuQJ
/WHOuNo/8xAfiFMOvwI95wIDAQABo4IBkjCCAY4wDgYDVR0PAQH/BAQDAgeAMBMG
A1UdJQQMMAoGCCsGAQUFBwMDMAkGA1UdEwQCMAAwHQYDVR0OBBYEFE4GfEK2gP3d
IQQ0FgOmDbOdbdNhMB8GA1UdIwQYMBaAFD5ik5rXxxnuPo9JEIVVFSDjlIQcMG0G
CCsGAQUFBwEBBGEwXzAkBggrBgEFBQcwAYYYaHR0cDovL29jc3Auc3RhcnRzc2wu
Y29tMDcGCCsGAQUFBzAChitodHRwOi8vYWlhLnN0YXJ0c3NsLmNvbS9jZXJ0cy9z
Y2EuY29kZTIuY3J0MDYGA1UdHwQvMC0wK6ApoCeGJWh0dHA6Ly9jcmwuc3RhcnRz
c2wuY29tL3NjYS1jb2RlMi5jcmwwIwYDVR0SBBwwGoYYaHR0cDovL3d3dy5zdGFy
dHNzbC5jb20vMFAGA1UdIARJMEcwCAYGZ4EMAQQBMDsGCysGAQQBgbU3AQIEMCww
KgYIKwYBBQUHAgEWHmh0dHA6Ly93d3cuc3RhcnRzc2wuY29tL3BvbGljeTANBgkq
hkiG9w0BAQsFAAOCAQEAl7Rjr8pI456c4UgGMQB09g6hkDreodj3GY4E9CI5dvkY
aLhzkp0CC5PKAc05oAt+/kcxXGN5720jqR3tPngagwCnZNm2nzXx5WIvisTzQHp4
n6ssIQWgizDIM1Ljjvox7sj8r+Grj7VsDpoaF70U5tgk1kNMnJU5ZVlf5jDyuAbK
vxR5aJPsfseEG2R1KGH/o8MDaZPhkve0fINQiNGqSftD6KUI7FIkwkb24TJrTxqA
b1e6yJanI9D8YP9R2SfhIhKV5v6v7XsCPg+MjOLyP9I1ECDfYcZQ2hoLI5tcni0G
3gi1vil4NU/F5573dhz2dmGozxB0A6e1zFDjPMl/4Q==
-----END CERTIFICATE-----

