Certificate:
    Data:
        Version: 3 (0x2)
        Serial Number:
            7e:93:eb:fb:7c:c6:4e:59:ea:4b:9a:77:d4:06:fc:3b
    Signature Algorithm: sha1WithRSAEncryption
        Issuer: C=ZA, ST=Western Cape, L=Durbanville, O=Thawte, OU=Thawte Certification, CN=Thawte Timestamping CA
        Validity
            Not Before: Dec 21 00:00:00 2012 GMT
            Not After : Dec 30 23:59:59 2020 GMT
        Subject: C=US, O=Symantec Corporation, CN=Symantec Time Stamping Services CA - G2
        Subject Public Key Info:
            Public Key Algorithm: rsaEncryption
                Public-Key: (2048 bit)
                Modulus:
                    00:b1:ac:b3:49:54:4b:97:1c:12:0a:d8:25:79:91:
                    22:57:2a:6f:dc:b8:26:c4:43:73:6b:c2:bf:2e:50:
                    5a:fb:14:c2:76:8e:43:01:25:43:b4:a1:e2:45:f4:
                    e8:b7:7b:c3:74:cc:22:d7:b4:94:00:02:f7:4d:ed:
                    bf:b4:b7:44:24:6b:cd:5f:45:3b:d1:44:ce:43:12:
                    73:17:82:8b:69:b4:2b:cb:99:1e:ac:72:1b:26:4d:
                    71:1f:b1:31:dd:fb:51:61:02:53:a6:aa:f5:49:2c:
                    05:78:45:a5:2f:89:ce:e7:99:e7:fe:8c:e2:57:3f:
                    3d:c6:92:dc:4a:f8:7b:33:e4:79:0a:fb:f0:75:88:
                    41:9c:ff:c5:03:51:99:aa:d7:6c:9f:93:69:87:65:
                    29:83:85:c2:60:14:c4:c8:c9:3b:14:da:c0:81:f0:
                    1f:0d:74:de:92:22:ab:ca:f7:fb:74:7c:27:e6:f7:
                    4a:1b:7f:a7:c3:9e:2d:ae:8a:ea:a6:e6:aa:27:16:
                    7d:61:f7:98:71:11:bc:e2:50:a1:4b:e5:5d:fa:e5:
                    0e:a7:2c:9f:aa:65:20:d3:d8:96:e8:c8:7c:a5:4e:
                    48:44:ff:19:e2:44:07:92:0b:d7:68:84:80:5d:6a:
                    78:64:45:cd:60:46:7e:54:c1:13:7c:c5:79:f1:c9:
                    c1:71
                Exponent: 65537 (0x10001)
        X509v3 extensions:
            X509v3 Subject Key Identifier: 
                5F:9A:F5:6E:5C:CC:CC:74:9A:D4:DD:7D:EF:3F:DB:EC:4C:80:2E:DD
            Authority Information Access: 
                OCSP - URI:http://ocsp.thawte.com

            X509v3 Basic Constraints: critical
                CA:TRUE, pathlen:0
            X509v3 CRL Distribution Points: 

                Full Name:
                  URI:http://crl.thawte.com/ThawteTimestampingCA.crl

            X509v3 Extended Key Usage: 
                Time Stamping
            X509v3 Key Usage: critical
                Certificate Sign, CRL Sign
            X509v3 Subject Alternative Name: 
                DirName:/CN=TimeStamp-2048-1
    Signature Algorithm: sha1WithRSAEncryption
         03:09:9b:8f:79:ef:7f:59:30:aa:ef:68:b5:fa:e3:09:1d:bb:
         4f:82:06:5d:37:5f:a6:52:9f:16:8d:ea:1c:92:09:44:6e:f5:
         6d:eb:58:7c:30:e8:f9:69:8d:23:73:0b:12:6f:47:a9:ae:39:
         11:f8:2a:b1:9b:b0:1a:c3:8e:eb:59:96:00:ad:ce:0c:4d:b2:
         d0:31:a6:08:5c:2a:7a:fc:e2:7a:1d:57:4c:a8:65:18:e9:79:
         40:62:25:96:6e:c7:c7:37:6a:83:21:08:8e:41:ea:dd:d9:57:
         3f:1d:77:49:87:2a:16:06:5e:a6:38:6a:22:12:a3:51:19:83:
         7e:b6
-----BEGIN CERTIFICATE-----
MIID7jCCA1egAwIBAgIQfpPr+3zGTlnqS5p31Ab8OzANBgkqhkiG9w0BAQUFADCB
izELMAkGA1UEBhMCWkExFTATBgNVBAgTDFdlc3Rlcm4gQ2FwZTEUMBIGA1UEBxML
RHVyYmFudmlsbGUxDzANBgNVBAoTBlRoYXd0ZTEdMBsGA1UECxMUVGhhd3RlIENl
cnRpZmljYXRpb24xHzAdBgNVBAMTFlRoYXd0ZSBUaW1lc3RhbXBpbmcgQ0EwHhcN
MTIxMjIxMDAwMDAwWhcNMjAxMjMwMjM1OTU5WjBeMQswCQYDVQQGEwJVUzEdMBsG
A1UEChMUU3ltYW50ZWMgQ29ycG9yYXRpb24xMDAuBgNVBAMTJ1N5bWFudGVjIFRp
bWUgU3RhbXBpbmcgU2VydmljZXMgQ0EgLSBHMjCCASIwDQYJKoZIhvcNAQEBBQAD
ggEPADCCAQoCggEBALGss0lUS5ccEgrYJXmRIlcqb9y4JsRDc2vCvy5QWvsUwnaO
QwElQ7Sh4kX06Ld7w3TMIte0lAAC903tv7S3RCRrzV9FO9FEzkMScxeCi2m0K8uZ
HqxyGyZNcR+xMd37UWECU6aq9UksBXhFpS+JzueZ5/6M4lc/PcaS3Er4ezPkeQr7
8HWIQZz/xQNRmarXbJ+TaYdlKYOFwmAUxMjJOxTawIHwHw103pIiq8r3+3R8J+b3
Sht/p8OeLa6K6qbmqicWfWH3mHERvOJQoUvlXfrlDqcsn6plINPYlujIfKVOSET/
GeJEB5IL12iEgF1qeGRFzWBGflTBE3zFefHJwXECAwEAAaOB+jCB9zAdBgNVHQ4E
FgQUX5r1blzMzHSa1N197z/b7EyALt0wMgYIKwYBBQUHAQEEJjAkMCIGCCsGAQUF
BzABhhZodHRwOi8vb2NzcC50aGF3dGUuY29tMBIGA1UdEwEB/wQIMAYBAf8CAQAw
PwYDVR0fBDgwNjA0oDKgMIYuaHR0cDovL2NybC50aGF3dGUuY29tL1RoYXd0ZVRp
bWVzdGFtcGluZ0NBLmNybDATBgNVHSUEDDAKBggrBgEFBQcDCDAOBgNVHQ8BAf8E
BAMCAQYwKAYDVR0RBCEwH6QdMBsxGTAXBgNVBAMTEFRpbWVTdGFtcC0yMDQ4LTEw
DQYJKoZIhvcNAQEFBQADgYEAAwmbj3nvf1kwqu9otfrjCR27T4IGXTdfplKfFo3q
HJIJRG71betYfDDo+WmNI3MLEm9Hqa45EfgqsZuwGsOO61mWAK3ODE2y0DGmCFwq
evzieh1XTKhlGOl5QGIllm7HxzdqgyEIjkHq3dlXPx13SYcqFgZepjhqIhKjURmD
frY=
-----END CERTIFICATE-----

Certificate:
    Data:
        Version: 3 (0x2)
        Serial Number:
            0e:cf:f4:38:c8:fe:bf:35:6e:04:d8:6a:98:1b:1a:50
    Signature Algorithm: sha1WithRSAEncryption
        Issuer: C=US, O=Symantec Corporation, CN=Symantec Time Stamping Services CA - G2
        Validity
            Not Before: Oct 18 00:00:00 2012 GMT
            Not After : Dec 29 23:59:59 2020 GMT
        Subject: C=US, O=Symantec Corporation, CN=Symantec Time Stamping Services Signer - G4
        Subject Public Key Info:
            Public Key Algorithm: rsaEncryption
                Public-Key: (2048 bit)
                Modulus:
                    00:a2:63:0b:39:44:b8:bb:23:a7:44:49:bb:0e:ff:
                    a1:f0:61:0a:53:93:b0:98:db:ad:2c:0f:4a:c5:6e:
                    ff:86:3c:53:55:0f:15:ce:04:3f:2b:fd:a9:96:96:
                    d9:be:61:79:0b:5b:c9:4c:86:76:e5:e0:43:4b:22:
                    95:ee:c2:2b:43:c1:9f:d8:68:b4:8e:40:4f:ee:85:
                    38:b9:11:c5:23:f2:64:58:f0:15:32:6f:4e:57:a1:
                    ae:88:a4:02:d7:2a:1e:cd:4b:e1:dd:63:d5:17:89:
                    32:5b:b0:5e:99:5a:a8:9d:28:50:0e:17:ee:96:db:
                    61:3b:45:51:1d:cf:12:56:0b:92:47:fc:ab:ae:f6:
                    66:3d:47:ac:70:72:e7:92:e7:5f:cd:10:b9:c4:83:
                    64:94:19:bd:25:80:e1:e8:d2:22:a5:d0:ba:02:7a:
                    a1:77:93:5b:65:c3:ee:17:74:bc:41:86:2a:dc:08:
                    4c:8c:92:8c:91:2d:9e:77:44:1f:68:d6:a8:74:77:
                    db:0e:5b:32:8b:56:8b:33:bd:d9:63:c8:49:9d:3a:
                    c5:c5:ea:33:0b:d2:f1:a3:1b:f4:8b:be:d9:b3:57:
                    8b:3b:de:04:a7:7a:22:b2:24:ae:2e:c7:70:c5:be:
                    4e:83:26:08:fb:0b:bd:a9:4f:99:08:e1:10:28:72:
                    aa:cd
                Exponent: 65537 (0x10001)
        X509v3 extensions:
            X509v3 Basic Constraints: critical
                CA:FALSE
            X509v3 Extended Key Usage: critical
                Time Stamping
            X509v3 Key Usage: critical
                Digital Signature
            Authority Information Access: 
                OCSP - URI:http://ts-ocsp.ws.symantec.com
                CA Issuers - URI:http://ts-aia.ws.symantec.com/tss-ca-g2.cer

            X509v3 CRL Distribution Points: 

                Full Name:
                  URI:http://ts-crl.ws.symantec.com/tss-ca-g2.crl

            X509v3 Subject Alternative Name: 
                DirName:/CN=TimeStamp-2048-2
            X509v3 Subject Key Identifier: 
                46:C6:69:A3:0E:4A:14:1E:D5:4C:DA:52:63:17:3F:5E:36:BC:0D:E6
            X509v3 Authority Key Identifier: 
                keyid:5F:9A:F5:6E:5C:CC:CC:74:9A:D4:DD:7D:EF:3F:DB:EC:4C:80:2E:DD

    Signature Algorithm: sha1WithRSAEncryption
         78:3b:b4:91:2a:00:4c:f0:8f:62:30:37:78:a3:84:27:07:6f:
         18:b2:de:25:dc:a0:d4:94:03:aa:86:4e:25:9f:9a:40:03:1c:
         dd:ce:e3:79:cb:21:68:06:da:b6:32:b4:6d:bf:f4:2c:26:63:
         33:e4:49:64:6d:0d:e6:c3:67:0e:f7:05:a4:35:6c:7c:89:16:
         c6:e9:b2:df:b2:e9:dd:20:c6:71:0f:cd:95:74:dc:b6:5c:de:
         bd:37:1f:43:78:e6:78:b5:cd:28:04:20:a3:aa:f1:4b:c4:88:
         29:91:0e:80:d1:11:fc:dd:5c:76:6e:4f:5e:0e:45:46:41:6e:
         0d:b0:ea:38:9a:b1:3a:da:09:71:10:fc:1c:79:b4:80:7b:ac:
         69:f4:fd:9c:b6:0c:16:2b:f1:7f:5b:09:3d:9b:5b:e2:16:ca:
         13:81:6d:00:2e:38:0d:a8:29:8f:2c:e1:b2:f4:5a:a9:01:af:
         15:9c:2c:2f:49:1b:db:22:bb:c3:fe:78:94:51:c3:86:b1:82:
         88:5d:f0:3d:b4:51:a1:79:33:2b:2e:7b:b9:dc:20:09:13:71:
         eb:6a:19:5b:cf:e8:a5:30:57:2c:89:49:3f:b9:cf:7f:c9:bf:
         3e:22:68:63:53:9a:bd:69:74:ac:c5:1d:3c:7f:92:e0:c3:bc:
         1c:d8:04:75
-----BEGIN CERTIFICATE-----
MIIEozCCA4ugAwIBAgIQDs/0OMj+vzVuBNhqmBsaUDANBgkqhkiG9w0BAQUFADBe
MQswCQYDVQQGEwJVUzEdMBsGA1UEChMUU3ltYW50ZWMgQ29ycG9yYXRpb24xMDAu
BgNVBAMTJ1N5bWFudGVjIFRpbWUgU3RhbXBpbmcgU2VydmljZXMgQ0EgLSBHMjAe
Fw0xMjEwMTgwMDAwMDBaFw0yMDEyMjkyMzU5NTlaMGIxCzAJBgNVBAYTAlVTMR0w
GwYDVQQKExRTeW1hbnRlYyBDb3Jwb3JhdGlvbjE0MDIGA1UEAxMrU3ltYW50ZWMg
VGltZSBTdGFtcGluZyBTZXJ2aWNlcyBTaWduZXIgLSBHNDCCASIwDQYJKoZIhvcN
AQEBBQADggEPADCCAQoCggEBAKJjCzlEuLsjp0RJuw7/ofBhClOTsJjbrSwPSsVu
/4Y8U1UPFc4EPyv9qZaW2b5heQtbyUyGduXgQ0sile7CK0PBn9hotI5AT+6FOLkR
xSPyZFjwFTJvTlehroikAtcqHs1L4d1j1ReJMluwXplaqJ0oUA4X7pbbYTtFUR3P
ElYLkkf8q672Zj1HrHBy55LnX80QucSDZJQZvSWA4ejSIqXQugJ6oXeTW2XD7hd0
vEGGKtwITIySjJEtnndEH2jWqHR32w5bMotWizO92WPISZ06xcXqMwvS8aMb9Iu+
2bNXizveBKd6IrIkri7HcMW+ToMmCPsLvalPmQjhEChyqs0CAwEAAaOCAVcwggFT
MAwGA1UdEwEB/wQCMAAwFgYDVR0lAQH/BAwwCgYIKwYBBQUHAwgwDgYDVR0PAQH/
BAQDAgeAMHMGCCsGAQUFBwEBBGcwZTAqBggrBgEFBQcwAYYeaHR0cDovL3RzLW9j
c3Aud3Muc3ltYW50ZWMuY29tMDcGCCsGAQUFBzAChitodHRwOi8vdHMtYWlhLndz
LnN5bWFudGVjLmNvbS90c3MtY2EtZzIuY2VyMDwGA1UdHwQ1MDMwMaAvoC2GK2h0
dHA6Ly90cy1jcmwud3Muc3ltYW50ZWMuY29tL3Rzcy1jYS1nMi5jcmwwKAYDVR0R
BCEwH6QdMBsxGTAXBgNVBAMTEFRpbWVTdGFtcC0yMDQ4LTIwHQYDVR0OBBYEFEbG
aaMOShQe1UzaUmMXP142vA3mMB8GA1UdIwQYMBaAFF+a9W5czMx0mtTdfe8/2+xM
gC7dMA0GCSqGSIb3DQEBBQUAA4IBAQB4O7SRKgBM8I9iMDd4o4QnB28Yst4l3KDU
lAOqhk4ln5pAAxzdzuN5yyFoBtq2MrRtv/QsJmMz5ElkbQ3mw2cO9wWkNWx8iRbG
6bLfsundIMZxD82VdNy2XN69Nx9DeOZ4tc0oBCCjqvFLxIgpkQ6A0RH83Vx2bk9e
DkVGQW4NsOo4mrE62glxEPwcebSAe6xp9P2ctgwWK/F/Wwk9m1viFsoTgW0ALjgN
qCmPLOGy9FqpAa8VnCwvSRvbIrvD/niUUcOGsYKIXfA9tFGheTMrLnu53CAJE3Hr
ahlbz+ilMFcsiUk/uc9/yb8+ImhjU5q9aXSsxR08f5Lgw7wc2AR1
-----END CERTIFICATE-----

Certificate:
    Data:
        Version: 3 (0x2)
        Serial Number:
            20:cf:59:8f:8f:36:e3:98:15:05:7e:88:45:d7:ac:b8
    Signature Algorithm: sha256WithRSAEncryption
        Issuer: C=US, O=Symantec Corporation, OU=Symantec Trust Network, CN=Symantec Class 3 SHA256 Code Signing CA
        Validity
            Not Before: Aug 22 00:00:00 2015 GMT
            Not After : Nov 20 23:59:59 2016 GMT
        Subject: C=US, ST=California, L=Pasadena, O=iolo technologies, LLC, CN=iolo technologies, LLC
        Subject Public Key Info:
            Public Key Algorithm: rsaEncryption
                Public-Key: (2048 bit)
                Modulus:
                    00:e1:3e:9d:e1:bc:8c:1c:10:90:f1:91:2b:37:93:
                    65:5e:ff:bd:c8:e9:54:f2:7d:d0:90:87:8f:48:05:
                    74:14:a9:6e:d9:44:04:a4:7e:9c:27:55:91:14:da:
                    7a:39:09:07:83:32:84:bb:df:a5:8f:1c:98:b3:75:
                    79:5e:4c:0a:e2:43:94:7b:cd:98:13:59:cb:9c:ef:
                    ff:f7:7b:1a:f4:e5:0d:c4:7f:ec:30:82:59:e7:9c:
                    f4:2f:24:44:99:e4:54:b0:92:8e:c6:07:e7:d4:07:
                    7c:d7:cd:3d:05:c7:5a:04:97:c1:db:25:2d:05:58:
                    8e:8f:37:fe:9f:e4:6e:05:3f:b5:6c:1d:24:7b:e6:
                    8a:95:b7:31:68:40:a5:75:3d:bb:0b:09:8c:f4:20:
                    ad:ba:ec:50:2c:c6:8f:8c:c6:a0:e1:58:ea:81:fd:
                    49:fb:e9:c5:7a:75:c3:8d:60:8e:15:97:87:3f:91:
                    64:6c:f7:6d:dd:de:8e:91:d8:c2:b0:96:b1:9f:0a:
                    ef:73:5e:40:df:78:99:69:16:3e:8d:b6:ea:ed:e0:
                    24:61:71:91:16:f4:3a:2c:a4:38:be:70:42:7e:af:
                    60:30:18:94:53:dc:9f:19:0d:2f:b3:2e:96:f0:f3:
                    1b:17:6a:55:29:aa:79:bc:b5:2b:c3:c5:7f:1d:a1:
                    9a:27
                Exponent: 65537 (0x10001)
        X509v3 extensions:
            X509v3 Basic Constraints: 
                CA:FALSE
            X509v3 Key Usage: critical
                Digital Signature
            X509v3 CRL Distribution Points: 

                Full Name:
                  URI:http://sv.symcb.com/sv.crl

            X509v3 Certificate Policies: 
                Policy: 2.16.840.1.113733.1.7.23.3
                  CPS: https://d.symcb.com/cps
                  User Notice:
                    Explicit Text: https://d.symcb.com/rpa

            X509v3 Extended Key Usage: 
                Code Signing
            Authority Information Access: 
                OCSP - URI:http://sv.symcd.com
                CA Issuers - URI:http://sv.symcb.com/sv.crt

            X509v3 Authority Key Identifier: 
                keyid:96:3B:53:F0:79:33:97:AF:7D:83:EF:2E:2B:CC:CA:B7:86:1E:72:66

            X509v3 Subject Key Identifier: 
                83:44:AB:3B:B6:8B:FB:BA:43:E6:14:1C:61:A1:56:BB:A8:94:FE:B4
    Signature Algorithm: sha256WithRSAEncryption
         7d:24:c9:3d:21:ea:24:3b:10:b3:8a:3a:95:b5:0a:95:64:0d:
         0b:40:2f:c8:21:f2:97:3d:b6:c1:be:50:df:cf:5f:95:4d:5a:
         44:06:22:ea:3a:2a:ce:11:67:e8:ac:67:fe:ed:07:f9:08:a0:
         05:9f:da:1e:15:86:17:be:17:dd:80:44:f0:b1:b9:98:79:5e:
         c6:eb:ac:97:5e:24:ea:2f:26:21:f1:e1:35:b2:ad:e4:7a:4a:
         ec:3e:a3:59:0c:f3:6e:6e:35:68:a3:2a:a0:cd:b7:33:6a:cb:
         41:f6:d1:ec:ff:57:bf:c1:0d:45:be:05:4e:38:c2:da:62:4f:
         43:ce:62:76:e1:f6:a8:55:22:28:f2:10:08:e5:8e:ca:9f:4d:
         71:c2:74:af:19:2b:36:e4:9d:71:67:03:00:c8:a4:c2:3b:b2:
         07:06:9d:5f:fe:3f:e5:45:d4:88:ef:0b:b3:96:b9:4c:4e:61:
         b2:ca:55:49:cc:eb:cc:3d:8e:e7:0e:8c:b9:73:22:5c:93:a6:
         a0:0a:98:a2:22:86:ce:9c:9d:53:32:55:1e:57:b9:55:49:ac:
         55:57:9f:4d:1b:eb:12:5c:1e:c6:b5:37:37:96:fa:f7:30:f4:
         b3:fd:2e:51:cf:81:59:8a:9b:85:6f:f3:a9:ef:56:69:b5:01:
         11:95:c7:d7
-----BEGIN CERTIFICATE-----
MIIE5DCCA8ygAwIBAgIQIM9Zj48245gVBX6IRdesuDANBgkqhkiG9w0BAQsFADB/
MQswCQYDVQQGEwJVUzEdMBsGA1UEChMUU3ltYW50ZWMgQ29ycG9yYXRpb24xHzAd
BgNVBAsTFlN5bWFudGVjIFRydXN0IE5ldHdvcmsxMDAuBgNVBAMTJ1N5bWFudGVj
IENsYXNzIDMgU0hBMjU2IENvZGUgU2lnbmluZyBDQTAeFw0xNTA4MjIwMDAwMDBa
Fw0xNjExMjAyMzU5NTlaMHcxCzAJBgNVBAYTAlVTMRMwEQYDVQQIEwpDYWxpZm9y
bmlhMREwDwYDVQQHEwhQYXNhZGVuYTEfMB0GA1UEChQWaW9sbyB0ZWNobm9sb2dp
ZXMsIExMQzEfMB0GA1UEAxQWaW9sbyB0ZWNobm9sb2dpZXMsIExMQzCCASIwDQYJ
KoZIhvcNAQEBBQADggEPADCCAQoCggEBAOE+neG8jBwQkPGRKzeTZV7/vcjpVPJ9
0JCHj0gFdBSpbtlEBKR+nCdVkRTaejkJB4MyhLvfpY8cmLN1eV5MCuJDlHvNmBNZ
y5zv//d7GvTlDcR/7DCCWeec9C8kRJnkVLCSjsYH59QHfNfNPQXHWgSXwdslLQVY
jo83/p/kbgU/tWwdJHvmipW3MWhApXU9uwsJjPQgrbrsUCzGj4zGoOFY6oH9Sfvp
xXp1w41gjhWXhz+RZGz3bd3ejpHYwrCWsZ8K73NeQN94mWkWPo226u3gJGFxkRb0
OiykOL5wQn6vYDAYlFPcnxkNL7MulvDzGxdqVSmqeby1K8PFfx2hmicCAwEAAaOC
AWIwggFeMAkGA1UdEwQCMAAwDgYDVR0PAQH/BAQDAgeAMCsGA1UdHwQkMCIwIKAe
oByGGmh0dHA6Ly9zdi5zeW1jYi5jb20vc3YuY3JsMGYGA1UdIARfMF0wWwYLYIZI
AYb4RQEHFwMwTDAjBggrBgEFBQcCARYXaHR0cHM6Ly9kLnN5bWNiLmNvbS9jcHMw
JQYIKwYBBQUHAgIwGQwXaHR0cHM6Ly9kLnN5bWNiLmNvbS9ycGEwEwYDVR0lBAww
CgYIKwYBBQUHAwMwVwYIKwYBBQUHAQEESzBJMB8GCCsGAQUFBzABhhNodHRwOi8v
c3Yuc3ltY2QuY29tMCYGCCsGAQUFBzAChhpodHRwOi8vc3Yuc3ltY2IuY29tL3N2
LmNydDAfBgNVHSMEGDAWgBSWO1PweTOXr32D7y4rzMq3hh5yZjAdBgNVHQ4EFgQU
g0SrO7aL+7pD5hQcYaFWu6iU/rQwDQYJKoZIhvcNAQELBQADggEBAH0kyT0h6iQ7
ELOKOpW1CpVkDQtAL8gh8pc9tsG+UN/PX5VNWkQGIuo6Ks4RZ+isZ/7tB/kIoAWf
2h4Vhhe+F92ARPCxuZh5XsbrrJdeJOovJiHx4TWyreR6Suw+o1kM825uNWijKqDN
tzNqy0H20ez/V7/BDUW+BU44wtpiT0POYnbh9qhVIijyEAjljsqfTXHCdK8ZKzbk
nXFnAwDIpMI7sgcGnV/+P+VF1IjvC7OWuUxOYbLKVUnM68w9jucOjLlzIlyTpqAK
mKIihs6cnVMyVR5XuVVJrFVXn00b6xJcHsa1NzeW+vcw9LP9LlHPgVmKm4Vv86nv
Vmm1ARGVx9c=
-----END CERTIFICATE-----

Certificate:
    Data:
        Version: 3 (0x2)
        Serial Number:
            3d:78:d7:f9:76:49:60:b2:61:7d:f4:f0:1e:ca:86:2a
    Signature Algorithm: sha256WithRSAEncryption
        Issuer: C=US, O=VeriSign, Inc., OU=VeriSign Trust Network, OU=(c) 2006 VeriSign, Inc. - For authorized use only, CN=VeriSign Class 3 Public Primary Certification Authority - G5
        Validity
            Not Before: Dec 10 00:00:00 2013 GMT
            Not After : Dec  9 23:59:59 2023 GMT
        Subject: C=US, O=Symantec Corporation, OU=Symantec Trust Network, CN=Symantec Class 3 SHA256 Code Signing CA
        Subject Public Key Info:
            Public Key Algorithm: rsaEncryption
                Public-Key: (2048 bit)
                Modulus:
                    00:97:83:1e:00:16:af:2c:b1:d2:08:c4:d7:68:93:
                    51:60:1e:71:f6:e2:47:b4:db:58:4d:23:62:6a:b4:
                    bf:5a:1b:51:f7:a3:0d:18:77:68:bb:d8:36:ab:2f:
                    21:50:da:9e:f3:e7:5f:27:4e:0b:c2:97:c8:09:70:
                    93:a9:da:5c:0d:4e:a4:0d:91:a0:b4:ec:14:ce:91:
                    72:54:2e:ce:a3:db:44:e9:52:1b:3f:41:3c:ca:4a:
                    e4:aa:c0:e8:39:ab:53:cc:21:d0:cc:cf:7f:9b:e6:
                    c2:cc:58:6a:82:15:ee:3d:36:cf:1c:c5:97:07:24:
                    8e:f1:7b:be:31:2d:3d:6e:dc:b5:99:42:9f:4b:61:
                    95:5f:1c:70:ee:17:7d:db:8b:e5:61:89:78:c7:68:
                    1b:af:11:78:1a:98:ae:c4:55:47:53:d9:b3:32:d6:
                    a1:0e:46:40:c5:97:92:8a:d1:53:a7:99:5b:85:35:
                    57:d3:ea:93:62:61:20:0a:c7:30:77:24:11:4d:62:
                    83:b6:ba:7b:68:82:31:ee:65:ca:df:f9:d5:8d:b2:
                    35:dc:8c:2b:6f:6a:72:5c:60:84:9c:f2:0c:94:5e:
                    c0:56:52:00:48:cc:d3:f8:a5:7d:de:2f:d7:13:e4:
                    38:a8:84:d5:46:b8:13:86:c2:1b:9d:ea:5a:38:dd:
                    9b:db
                Exponent: 65537 (0x10001)
        X509v3 extensions:
            Authority Information Access: 
                OCSP - URI:http://s2.symcb.com

            X509v3 Basic Constraints: critical
                CA:TRUE, pathlen:0
            X509v3 Certificate Policies: 
                Policy: 2.16.840.1.113733.1.7.23.3
                  CPS: http://www.symauth.com/cps
                  User Notice:
                    Explicit Text: http://www.symauth.com/rpa

            X509v3 CRL Distribution Points: 

                Full Name:
                  URI:http://s1.symcb.com/pca3-g5.crl

            X509v3 Extended Key Usage: 
                TLS Web Client Authentication, Code Signing
            X509v3 Key Usage: critical
                Certificate Sign, CRL Sign
            X509v3 Subject Alternative Name: 
                DirName:/CN=SymantecPKI-1-567
            X509v3 Subject Key Identifier: 
                96:3B:53:F0:79:33:97:AF:7D:83:EF:2E:2B:CC:CA:B7:86:1E:72:66
            X509v3 Authority Key Identifier: 
                keyid:7F:D3:65:A7:C2:DD:EC:BB:F0:30:09:F3:43:39:FA:02:AF:33:31:33

    Signature Algorithm: sha256WithRSAEncryption
         13:85:1a:1e:69:a9:37:f7:a0:bd:a4:af:7e:1d:61:53:fe:9d:
         8c:5e:0c:a6:75:1e:78:17:23:dd:fd:ec:1a:03:55:39:fb:71:
         95:c7:65:5a:a7:8e:30:d2:44:5a:61:db:70:6f:da:21:05:c2:
         2e:73:ba:49:f1:d1:93:fe:5d:c9:cd:5e:03:e0:89:9e:3f:74:
         1e:d7:f7:38:8b:a9:d6:cf:bb:35:2f:33:58:a8:92:56:d1:c8:
         4d:3b:82:e6:79:84:16:fc:28:b0:b1:47:f3:1d:a2:3e:ee:87:
         d9:a6:7f:a4:56:a5:3f:ad:84:2e:29:de:7c:bc:a8:aa:a3:3d:
         04:01:ea:ba:93:a2:0e:50:22:29:17:4c:87:e4:3a:11:5f:d6:
         a4:25:89:9b:05:6b:2f:b4:c9:01:4c:27:7b:0b:ac:19:05:22:
         a0:60:15:3f:da:c9:fb:4d:4c:8f:fb:72:67:77:fd:27:94:c7:
         ba:35:0e:88:49:fe:8d:fd:28:af:4a:12:bd:0d:b3:97:05:de:
         44:0c:15:fa:36:2b:03:dc:c1:50:01:f1:a1:11:5d:14:e5:e2:
         bd:27:4b:54:be:2b:84:5e:0f:a6:c3:74:05:0a:ef:97:c3:89:
         22:b1:1f:77:f3:bd:cd:43:d4:f1:4c:a9:3f:b5:8b:84:af:64:
         f2:d0:14:21
-----BEGIN CERTIFICATE-----
MIIFWTCCBEGgAwIBAgIQPXjX+XZJYLJhffTwHsqGKjANBgkqhkiG9w0BAQsFADCB
yjELMAkGA1UEBhMCVVMxFzAVBgNVBAoTDlZlcmlTaWduLCBJbmMuMR8wHQYDVQQL
ExZWZXJpU2lnbiBUcnVzdCBOZXR3b3JrMTowOAYDVQQLEzEoYykgMjAwNiBWZXJp
U2lnbiwgSW5jLiAtIEZvciBhdXRob3JpemVkIHVzZSBvbmx5MUUwQwYDVQQDEzxW
ZXJpU2lnbiBDbGFzcyAzIFB1YmxpYyBQcmltYXJ5IENlcnRpZmljYXRpb24gQXV0
aG9yaXR5IC0gRzUwHhcNMTMxMjEwMDAwMDAwWhcNMjMxMjA5MjM1OTU5WjB/MQsw
CQYDVQQGEwJVUzEdMBsGA1UEChMUU3ltYW50ZWMgQ29ycG9yYXRpb24xHzAdBgNV
BAsTFlN5bWFudGVjIFRydXN0IE5ldHdvcmsxMDAuBgNVBAMTJ1N5bWFudGVjIENs
YXNzIDMgU0hBMjU2IENvZGUgU2lnbmluZyBDQTCCASIwDQYJKoZIhvcNAQEBBQAD
ggEPADCCAQoCggEBAJeDHgAWryyx0gjE12iTUWAecfbiR7TbWE0jYmq0v1obUfej
DRh3aLvYNqsvIVDanvPnXydOC8KXyAlwk6naXA1OpA2RoLTsFM6RclQuzqPbROlS
Gz9BPMpK5KrA6DmrU8wh0MzPf5vmwsxYaoIV7j02zxzFlwckjvF7vjEtPW7ctZlC
n0thlV8ccO4XfduL5WGJeMdoG68ReBqYrsRVR1PZszLWoQ5GQMWXkorRU6eZW4U1
V9Pqk2JhIArHMHckEU1ig7a6e2iCMe5lyt/51Y2yNdyMK29qclxghJzyDJRewFZS
AEjM0/ilfd4v1xPkOKiE1Ua4E4bCG53qWjjdm9sCAwEAAaOCAYMwggF/MC8GCCsG
AQUFBwEBBCMwITAfBggrBgEFBQcwAYYTaHR0cDovL3MyLnN5bWNiLmNvbTASBgNV
HRMBAf8ECDAGAQH/AgEAMGwGA1UdIARlMGMwYQYLYIZIAYb4RQEHFwMwUjAmBggr
BgEFBQcCARYaaHR0cDovL3d3dy5zeW1hdXRoLmNvbS9jcHMwKAYIKwYBBQUHAgIw
HBoaaHR0cDovL3d3dy5zeW1hdXRoLmNvbS9ycGEwMAYDVR0fBCkwJzAloCOgIYYf
aHR0cDovL3MxLnN5bWNiLmNvbS9wY2EzLWc1LmNybDAdBgNVHSUEFjAUBggrBgEF
BQcDAgYIKwYBBQUHAwMwDgYDVR0PAQH/BAQDAgEGMCkGA1UdEQQiMCCkHjAcMRow
GAYDVQQDExFTeW1hbnRlY1BLSS0xLTU2NzAdBgNVHQ4EFgQUljtT8Hkzl699g+8u
K8zKt4YecmYwHwYDVR0jBBgwFoAUf9Nlp8Ld7LvwMAnzQzn6Aq8zMTMwDQYJKoZI
hvcNAQELBQADggEBABOFGh5pqTf3oL2kr34dYVP+nYxeDKZ1HngXI9397BoDVTn7
cZXHZVqnjjDSRFph23Bv2iEFwi5zuknx0ZP+XcnNXgPgiZ4/dB7X9ziLqdbPuzUv
M1ioklbRyE07guZ5hBb8KLCxR/Mdoj7uh9mmf6RWpT+thC4p3ny8qKqjPQQB6rqT
og5QIikXTIfkOhFf1qQliZsFay+0yQFMJ3sLrBkFIqBgFT/ayftNTI/7cmd3/SeU
x7o1DohJ/o39KK9KEr0Ns5cF3kQMFfo2KwPcwVAB8aERXRTl4r0nS1S+K4ReD6bD
dAUK75fDiSKxH3fzvc1D1PFMqT+1i4SvZPLQFCE=
-----END CERTIFICATE-----

Certificate:
    Data:
        Version: 3 (0x2)
        Serial Number:
            61:19:93:e4:00:00:00:00:00:1c
    Signature Algorithm: sha1WithRSAEncryption
        Issuer: C=US, ST=Washington, L=Redmond, O=Microsoft Corporation, CN=Microsoft Code Verification Root
        Validity
            Not Before: Feb 22 19:25:17 2011 GMT
            Not After : Feb 22 19:35:17 2021 GMT
        Subject: C=US, O=VeriSign, Inc., OU=VeriSign Trust Network, OU=(c) 2006 VeriSign, Inc. - For authorized use only, CN=VeriSign Class 3 Public Primary Certification Authority - G5
        Subject Public Key Info:
            Public Key Algorithm: rsaEncryption
                Public-Key: (2048 bit)
                Modulus:
                    00:af:24:08:08:29:7a:35:9e:60:0c:aa:e7:4b:3b:
                    4e:dc:7c:bc:3c:45:1c:bb:2b:e0:fe:29:02:f9:57:
                    08:a3:64:85:15:27:f5:f1:ad:c8:31:89:5d:22:e8:
                    2a:aa:a6:42:b3:8f:f8:b9:55:b7:b1:b7:4b:b3:fe:
                    8f:7e:07:57:ec:ef:43:db:66:62:15:61:cf:60:0d:
                    a4:d8:de:f8:e0:c3:62:08:3d:54:13:eb:49:ca:59:
                    54:85:26:e5:2b:8f:1b:9f:eb:f5:a1:91:c2:33:49:
                    d8:43:63:6a:52:4b:d2:8f:e8:70:51:4d:d1:89:69:
                    7b:c7:70:f6:b3:dc:12:74:db:7b:5d:4b:56:d3:96:
                    bf:15:77:a1:b0:f4:a2:25:f2:af:1c:92:67:18:e5:
                    f4:06:04:ef:90:b9:e4:00:e4:dd:3a:b5:19:ff:02:
                    ba:f4:3c:ee:e0:8b:eb:37:8b:ec:f4:d7:ac:f2:f6:
                    f0:3d:af:dd:75:91:33:19:1d:1c:40:cb:74:24:19:
                    21:93:d9:14:fe:ac:2a:52:c7:8f:d5:04:49:e4:8d:
                    63:47:88:3c:69:83:cb:fe:47:bd:2b:7e:4f:c5:95:
                    ae:0e:9d:d4:d1:43:c0:67:73:e3:14:08:7e:e5:3f:
                    9f:73:b8:33:0a:cf:5d:3f:34:87:96:8a:ee:53:e8:
                    25:15
                Exponent: 65537 (0x10001)
        X509v3 extensions:
            X509v3 Certificate Policies: 
                Policy: X509v3 Any Policy

            X509v3 Basic Constraints: critical
                CA:TRUE
            X509v3 Key Usage: 
                Digital Signature, Certificate Sign, CRL Sign
            X509v3 Subject Key Identifier: 
                7F:D3:65:A7:C2:DD:EC:BB:F0:30:09:F3:43:39:FA:02:AF:33:31:33
            X509v3 Authority Key Identifier: 
                keyid:62:FB:0A:21:5B:7F:43:6E:11:DA:09:54:50:6B:F5:D2:96:71:F1:9E

            X509v3 CRL Distribution Points: 

                Full Name:
                  URI:http://crl.microsoft.com/pki/crl/products/MicrosoftCodeVerifRoot.crl

    Signature Algorithm: sha1WithRSAEncryption
         81:2a:82:16:8c:34:67:2b:e5:03:eb:34:7b:8c:a2:a3:50:8a:
         f4:55:86:f1:1e:8c:8e:ae:7d:ee:03:19:ce:72:95:18:48:ad:
         62:11:fd:20:fd:3f:47:06:01:5a:e2:e0:6f:8c:15:2c:4e:3c:
         6a:50:6c:0b:36:a3:cf:7a:0d:9c:42:bc:5c:f8:19:d5:60:e3:
         69:e6:e2:23:41:67:8c:68:83:76:2b:8f:93:a3:2a:b5:7f:be:
         59:fb:a9:c9:b2:26:8f:ca:a2:f3:82:1b:98:3e:91:95:27:97:
         86:61:ee:5b:5d:07:6b:cd:86:a8:e2:65:80:a8:e2:15:e2:b2:
         be:23:05:6a:ba:0c:f3:47:93:4d:ac:a4:8c:07:79:39:c0:61:
         12:3a:05:0d:89:a3:ec:9f:57:89:84:fb:ec:ca:7c:47:66:14:
         91:d8:b6:0f:19:5d:e6:b8:4a:ac:bc:47:c8:71:43:96:e6:32:
         20:a5:dc:77:86:fd:3c:e3:8b:71:db:7b:9b:03:fc:b7:1d:32:
         64:eb:16:52:a0:43:a3:fa:2e:ad:59:92:4e:7c:c7:f2:33:42:
         48:38:51:3a:7c:38:c7:1b:24:22:28:40:1e:1a:46:1f:17:db:
         18:f7:f0:27:35:6c:b8:63:d9:cd:b9:64:5d:2b:a5:5e:ef:c6:
         29:b4:f2:c7:f8:21:cc:04:ba:57:fd:01:b6:ab:c6:67:f9:e7:
         d3:99:7f:f4:f5:22:fa:72:f5:fd:ff:3a:1c:42:3a:a1:f9:80:
         18:a5:ee:8d:1c:d4:66:9e:45:01:fe:aa:ee:ff:fb:17:8f:30:
         f7:f1:cd:29:c5:9d:ec:b5:d5:49:00:3d:85:b8:cb:bb:93:3a:
         27:6a:49:c0:30:ae:66:c9:f7:23:28:32:76:f9:a4:83:56:c8:
         48:ce:5a:96:aa:a0:cc:0c:c4:7f:b4:8e:97:af:6d:e3:54:27:
         c3:9f:86:c0:d6:e4:73:08:97:05:db:d0:54:62:5e:03:48:c2:
         d5:9f:7f:a7:66:8c:d0:9d:b0:4f:d4:d3:98:5f:4b:7a:c9:7f:
         b2:29:52:d0:12:80:c7:0f:54:b6:1e:67:cd:c6:a0:6c:11:03:
         84:d3:48:75:e7:2a:fe:b0:3b:6e:0a:3a:a6:6b:76:99:05:a3:
         f1:77:68:61:33:14:47:06:fc:53:7f:52:bd:92:14:5c:4a:24:
         6a:67:8c:af:8d:90:aa:d0:f6:79:21:1b:93:26:7c:c3:ce:1e:
         bd:88:38:92:ae:45:c6:19:6a:49:50:b3:05:f8:ae:59:37:8a:
         6a:25:03:94:b1:59:81:50:e8:ba:83:80:b7:23:35:f4:76:b9:
         67:1d:59:18:ad:20:8d:94
-----BEGIN CERTIFICATE-----
MIIFmjCCA4KgAwIBAgIKYRmT5AAAAAAAHDANBgkqhkiG9w0BAQUFADB/MQswCQYD
VQQGEwJVUzETMBEGA1UECBMKV2FzaGluZ3RvbjEQMA4GA1UEBxMHUmVkbW9uZDEe
MBwGA1UEChMVTWljcm9zb2Z0IENvcnBvcmF0aW9uMSkwJwYDVQQDEyBNaWNyb3Nv
ZnQgQ29kZSBWZXJpZmljYXRpb24gUm9vdDAeFw0xMTAyMjIxOTI1MTdaFw0yMTAy
MjIxOTM1MTdaMIHKMQswCQYDVQQGEwJVUzEXMBUGA1UEChMOVmVyaVNpZ24sIElu
Yy4xHzAdBgNVBAsTFlZlcmlTaWduIFRydXN0IE5ldHdvcmsxOjA4BgNVBAsTMShj
KSAyMDA2IFZlcmlTaWduLCBJbmMuIC0gRm9yIGF1dGhvcml6ZWQgdXNlIG9ubHkx
RTBDBgNVBAMTPFZlcmlTaWduIENsYXNzIDMgUHVibGljIFByaW1hcnkgQ2VydGlm
aWNhdGlvbiBBdXRob3JpdHkgLSBHNTCCASIwDQYJKoZIhvcNAQEBBQADggEPADCC
AQoCggEBAK8kCAgpejWeYAyq50s7Ttx8vDxFHLsr4P4pAvlXCKNkhRUn9fGtyDGJ
XSLoKqqmQrOP+LlVt7G3S7P+j34HV+zvQ9tmYhVhz2ANpNje+ODDYgg9VBPrScpZ
VIUm5SuPG5/r9aGRwjNJ2ENjalJL0o/ocFFN0Ylpe8dw9rPcEnTbe11LVtOWvxV3
obD0oiXyrxySZxjl9AYE75C55ADk3Tq1Gf8CuvQ87uCL6zeL7PTXrPL28D2v3XWR
MxkdHEDLdCQZIZPZFP6sKlLHj9UESeSNY0eIPGmDy/5HvSt+T8WVrg6d1NFDwGdz
4xQIfuU/n3O4MwrPXT80h5aK7lPoJRUCAwEAAaOByzCByDARBgNVHSAECjAIMAYG
BFUdIAAwDwYDVR0TAQH/BAUwAwEB/zALBgNVHQ8EBAMCAYYwHQYDVR0OBBYEFH/T
ZafC3ey78DAJ80M5+gKvMzEzMB8GA1UdIwQYMBaAFGL7CiFbf0NuEdoJVFBr9dKW
cfGeMFUGA1UdHwROMEwwSqBIoEaGRGh0dHA6Ly9jcmwubWljcm9zb2Z0LmNvbS9w
a2kvY3JsL3Byb2R1Y3RzL01pY3Jvc29mdENvZGVWZXJpZlJvb3QuY3JsMA0GCSqG
SIb3DQEBBQUAA4ICAQCBKoIWjDRnK+UD6zR7jKKjUIr0VYbxHoyOrn3uAxnOcpUY
SK1iEf0g/T9HBgFa4uBvjBUsTjxqUGwLNqPPeg2cQrxc+BnVYONp5uIjQWeMaIN2
K4+Toyq1f75Z+6nJsiaPyqLzghuYPpGVJ5eGYe5bXQdrzYao4mWAqOIV4rK+IwVq
ugzzR5NNrKSMB3k5wGESOgUNiaPsn1eJhPvsynxHZhSR2LYPGV3muEqsvEfIcUOW
5jIgpdx3hv0844tx23ubA/y3HTJk6xZSoEOj+i6tWZJOfMfyM0JIOFE6fDjHGyQi
KEAeGkYfF9sY9/AnNWy4Y9nNuWRdK6Ve78YptPLH+CHMBLpX/QG2q8Zn+efTmX/0
9SL6cvX9/zocQjqh+YAYpe6NHNRmnkUB/qru//sXjzD38c0pxZ3stdVJAD2FuMu7
kzonaknAMK5myfcjKDJ2+aSDVshIzlqWqqDMDMR/tI6Xr23jVCfDn4bA1uRzCJcF
29BUYl4DSMLVn3+nZozQnbBP1NOYX0t6yX+yKVLQEoDHD1S2HmfNxqBsEQOE00h1
5yr+sDtuCjqma3aZBaPxd2hhMxRHBvxTf1K9khRcSiRqZ4yvjZCq0PZ5IRuTJnzD
zh69iDiSrkXGGWpJULMF+K5ZN4pqJQOUsVmBUOi6g4C3IzX0drlnHVkYrSCNlA==
-----END CERTIFICATE-----

