Certificate:
    Data:
        Version: 3 (0x2)
        Serial Number:
            19:1a:32:cb:75:9c:97:b8:cf:ac:11:8d:d5:12:7f:49
    Signature Algorithm: sha256WithRSAEncryption
        Issuer: C=US, O=VeriSign, Inc., OU=VeriSign Trust Network, OU=(c) 2006 VeriSign, Inc. - For authorized use only, CN=VeriSign Class 3 Public Primary Certification Authority - G5
        Validity
            Not Before: Mar  4 00:00:00 2014 GMT
            Not After : Mar  3 23:59:59 2024 GMT
        Subject: C=US, O=Symantec Corporation, OU=Symantec Trust Network, CN=Symantec Class 3 Extended Validation Code Signing CA - G2
        Subject Public Key Info:
            Public Key Algorithm: rsaEncryption
                Public-Key: (2048 bit)
                Modulus:
                    00:d0:18:02:ee:ed:a2:8d:08:58:63:0f:26:d7:dd:
                    22:7b:88:f6:e4:c7:ec:3b:26:18:78:d3:c7:a4:20:
                    53:8d:83:7c:a5:3f:7e:a5:c8:2b:47:df:0d:f5:a6:
                    d9:c3:1d:25:93:60:cf:7c:dc:ea:03:2c:be:78:7f:
                    5c:48:6d:a7:02:d9:49:f8:a1:eb:eb:9a:61:7c:9f:
                    c0:26:d6:dc:15:d8:b8:10:7c:20:ba:5e:f4:28:f6:
                    a8:ea:a7:5c:7c:c6:9c:90:90:34:3c:b6:22:ac:fe:
                    ba:0c:3a:1e:d6:5e:84:b6:5b:f0:a3:81:70:78:8a:
                    8d:46:52:7b:fc:db:49:f3:29:13:11:74:4f:8d:16:
                    b3:c2:e3:a0:2d:c7:03:04:9d:cc:c3:72:e1:0e:0c:
                    fb:02:8e:f1:26:17:7b:6e:ae:f8:b7:33:8b:a6:61:
                    4b:45:df:f2:25:44:c7:f7:b0:98:23:36:dc:28:79:
                    0a:e8:9b:72:88:a8:d8:e8:ae:7b:7f:0a:64:45:a5:
                    f0:57:92:9a:77:06:45:1e:eb:9f:e8:66:f3:7a:7d:
                    92:81:5f:00:2d:1e:b8:f6:56:13:5a:62:0d:b7:47:
                    a1:8f:72:ef:83:5e:82:e0:94:98:e1:ac:a5:ad:86:
                    37:e0:a7:d3:ba:b1:3e:7a:eb:45:a8:f1:c1:44:7d:
                    e2:03
                Exponent: 65537 (0x10001)
        X509v3 extensions:
            X509v3 Basic Constraints: critical
                CA:TRUE, pathlen:0
            X509v3 CRL Distribution Points: 

                Full Name:
                  URI:http://s.symcb.com/pca3-g5.crl

            X509v3 Extended Key Usage: critical
                Code Signing
            X509v3 Key Usage: critical
                Certificate Sign, CRL Sign
            Authority Information Access: 
                OCSP - URI:http://s.symcd.com

            X509v3 Certificate Policies: 
                Policy: X509v3 Any Policy
                  CPS: https://d.symcb.com/cps
                  User Notice:
                    Explicit Text: https://d.symcb.com/rpa

            X509v3 Subject Alternative Name: 
                DirName:/CN=SymantecPKI-1-629
            X509v3 Subject Key Identifier: 
                16:66:DE:4A:34:E3:50:A7:11:86:03:B1:6C:A9:C6:AC:CD:59:6E:9B
            X509v3 Authority Key Identifier: 
                keyid:7F:D3:65:A7:C2:DD:EC:BB:F0:30:09:F3:43:39:FA:02:AF:33:31:33

    Signature Algorithm: sha256WithRSAEncryption
         3f:5b:19:f3:fa:13:d5:75:38:2a:5a:ee:9f:5a:a0:4c:a9:1d:
         c5:cc:94:ee:de:15:fe:f5:10:6e:a4:1b:a5:64:83:54:18:58:
         c4:0b:28:a1:85:c3:4e:74:e5:ff:89:7c:fe:d5:ed:3c:ba:71:
         9f:56:02:26:8f:16:2a:88:fe:b0:a3:27:22:ce:4b:e2:38:8e:
         00:a6:3a:86:5f:9d:e5:3e:a8:de:64:49:41:74:41:21:fd:07:
         c8:84:17:da:1d:65:30:82:cb:26:4f:39:d6:04:27:a4:81:b1:
         4b:49:c3:23:8b:7e:02:32:18:27:b7:ab:0b:f3:18:72:b6:a4:
         ee:67:06:6f:38:a6:58:8d:e0:f1:7e:5d:a4:60:c6:a8:e5:50:
         5f:e0:e8:ba:e2:8f:99:58:b6:b5:a0:a8:76:f1:a2:f1:1c:88:
         41:72:7e:52:97:9b:0a:36:99:8d:50:f7:01:eb:3c:e7:f0:22:
         6a:e5:35:8c:63:36:8a:1a:b1:d9:67:66:5f:97:1a:ef:a8:20:
         9d:f0:2f:ba:6c:ce:d9:94:85:00:f1:58:f1:7d:c9:7c:22:b5:
         07:5d:02:c6:e6:0b:bf:ab:93:93:ff:27:18:8e:33:36:7e:57:
         34:f1:c3:af:04:c1:84:f1:56:b3:e8:87:83:36:f8:d3:0a:31:
         dc:6e:2c:6d
-----BEGIN CERTIFICATE-----
MIIFVjCCBD6gAwIBAgIQGRoyy3Wcl7jPrBGN1RJ/STANBgkqhkiG9w0BAQsFADCB
yjELMAkGA1UEBhMCVVMxFzAVBgNVBAoTDlZlcmlTaWduLCBJbmMuMR8wHQYDVQQL
ExZWZXJpU2lnbiBUcnVzdCBOZXR3b3JrMTowOAYDVQQLEzEoYykgMjAwNiBWZXJp
U2lnbiwgSW5jLiAtIEZvciBhdXRob3JpemVkIHVzZSBvbmx5MUUwQwYDVQQDEzxW
ZXJpU2lnbiBDbGFzcyAzIFB1YmxpYyBQcmltYXJ5IENlcnRpZmljYXRpb24gQXV0
aG9yaXR5IC0gRzUwHhcNMTQwMzA0MDAwMDAwWhcNMjQwMzAzMjM1OTU5WjCBkTEL
MAkGA1UEBhMCVVMxHTAbBgNVBAoTFFN5bWFudGVjIENvcnBvcmF0aW9uMR8wHQYD
VQQLExZTeW1hbnRlYyBUcnVzdCBOZXR3b3JrMUIwQAYDVQQDEzlTeW1hbnRlYyBD
bGFzcyAzIEV4dGVuZGVkIFZhbGlkYXRpb24gQ29kZSBTaWduaW5nIENBIC0gRzIw
ggEiMA0GCSqGSIb3DQEBAQUAA4IBDwAwggEKAoIBAQDQGALu7aKNCFhjDybX3SJ7
iPbkx+w7Jhh408ekIFONg3ylP36lyCtH3w31ptnDHSWTYM983OoDLL54f1xIbacC
2Un4oevrmmF8n8Am1twV2LgQfCC6XvQo9qjqp1x8xpyQkDQ8tiKs/roMOh7WXoS2
W/CjgXB4io1GUnv820nzKRMRdE+NFrPC46AtxwMEnczDcuEODPsCjvEmF3turvi3
M4umYUtF3/IlRMf3sJgjNtwoeQrom3KIqNjornt/CmRFpfBXkpp3BkUe65/oZvN6
fZKBXwAtHrj2VhNaYg23R6GPcu+DXoLglJjhrKWthjfgp9O6sT5660Wo8cFEfeID
AgMBAAGjggFtMIIBaTASBgNVHRMBAf8ECDAGAQH/AgEAMC8GA1UdHwQoMCYwJKAi
oCCGHmh0dHA6Ly9zLnN5bWNiLmNvbS9wY2EzLWc1LmNybDAWBgNVHSUBAf8EDDAK
BggrBgEFBQcDAzAOBgNVHQ8BAf8EBAMCAQYwLgYIKwYBBQUHAQEEIjAgMB4GCCsG
AQUFBzABhhJodHRwOi8vcy5zeW1jZC5jb20wXwYDVR0gBFgwVjBUBgRVHSAAMEww
IwYIKwYBBQUHAgEWF2h0dHBzOi8vZC5zeW1jYi5jb20vY3BzMCUGCCsGAQUFBwIC
MBkaF2h0dHBzOi8vZC5zeW1jYi5jb20vcnBhMCkGA1UdEQQiMCCkHjAcMRowGAYD
VQQDExFTeW1hbnRlY1BLSS0xLTYyOTAdBgNVHQ4EFgQUFmbeSjTjUKcRhgOxbKnG
rM1ZbpswHwYDVR0jBBgwFoAUf9Nlp8Ld7LvwMAnzQzn6Aq8zMTMwDQYJKoZIhvcN
AQELBQADggEBAD9bGfP6E9V1OCpa7p9aoEypHcXMlO7eFf71EG6kG6Vkg1QYWMQL
KKGFw0505f+JfP7V7Ty6cZ9WAiaPFiqI/rCjJyLOS+I4jgCmOoZfneU+qN5kSUF0
QSH9B8iEF9odZTCCyyZPOdYEJ6SBsUtJwyOLfgIyGCe3qwvzGHK2pO5nBm84pliN
4PF+XaRgxqjlUF/g6Lrij5lYtrWgqHbxovEciEFyflKXmwo2mY1Q9wHrPOfwImrl
NYxjNooasdlnZl+XGu+oIJ3wL7psztmUhQDxWPF9yXwitQddAsbmC7+rk5P/JxiO
MzZ+VzTxw68EwYTxVrPoh4M2+NMKMdxuLG0=
-----END CERTIFICATE-----

Certificate:
    Data:
        Version: 3 (0x2)
        Serial Number:
            24:6a:1d:5d:12:69:9d:0e:b7:fe:72:4d:89:9b:4c:fc
    Signature Algorithm: sha256WithRSAEncryption
        Issuer: C=US, O=Symantec Corporation, OU=Symantec Trust Network, CN=Symantec Class 3 Extended Validation Code Signing CA - G2
        Validity
            Not Before: Oct 22 00:00:00 2015 GMT
            Not After : Sep 10 23:59:59 2017 GMT
        Subject: jurisdictionC=CA/businessCategory=Private Organization/serialNumber=8678359, C=CA, ST=Quebec, L=Mascouche, O=SafeBytes Software Inc., CN=SafeBytes Software Inc.
        Subject Public Key Info:
            Public Key Algorithm: rsaEncryption
                Public-Key: (2048 bit)
                Modulus:
                    00:d6:0b:41:11:86:14:cb:43:2a:8b:91:f0:c5:7a:
                    c0:08:9d:af:b5:01:bb:8b:92:18:24:29:35:9a:35:
                    14:64:5d:b1:a1:e3:47:60:94:ae:6d:d6:06:44:8e:
                    7f:9f:97:ca:ff:7b:7c:5b:6d:ff:79:d9:42:47:da:
                    1f:b8:d1:24:f7:23:bd:e2:10:b5:01:19:16:32:16:
                    b2:b2:cc:fc:07:a9:bf:c8:5e:cc:f7:a9:2f:92:dc:
                    a7:2c:ea:bd:31:83:e9:52:69:7c:59:b2:52:98:56:
                    f1:6e:d9:b6:59:b6:fd:8d:8a:0d:22:65:eb:84:81:
                    f9:ac:ed:ea:f8:58:12:b5:01:04:7b:34:0b:79:54:
                    dc:77:79:08:3d:00:c4:93:16:dd:ed:1a:77:09:59:
                    15:dd:f5:b3:c2:35:85:e9:27:65:6b:aa:7e:ae:fc:
                    76:8e:d1:3b:f3:d8:e0:79:a9:eb:97:d0:dd:4f:24:
                    17:c5:a5:6e:9d:7d:5c:bb:fc:a8:2f:64:bc:87:21:
                    94:29:22:a3:dd:d4:da:e6:83:60:9b:6d:1f:08:62:
                    aa:e6:79:32:0d:f8:48:64:f6:c9:21:58:13:79:e3:
                    c8:85:39:b4:57:1f:ef:db:08:03:4d:03:6c:7b:d7:
                    b8:a0:e7:4d:bb:fe:d6:af:00:89:39:bb:23:ce:d1:
                    5f:3d
                Exponent: 65537 (0x10001)
        X509v3 extensions:
            X509v3 Subject Alternative Name: 
                othername:<unsupported>
            X509v3 Basic Constraints: 
                CA:FALSE
            X509v3 Key Usage: critical
                Digital Signature
            X509v3 CRL Distribution Points: 

                Full Name:
                  URI:http://sw.symcb.com/sw.crl

            X509v3 Certificate Policies: 
                Policy: 2.16.840.1.113733.1.7.23.6
                  CPS: https://d.symcb.com/cps
                  User Notice:
                    Explicit Text: https://d.symcb.com/rpa

            X509v3 Extended Key Usage: critical
                Code Signing
            X509v3 Authority Key Identifier: 
                keyid:16:66:DE:4A:34:E3:50:A7:11:86:03:B1:6C:A9:C6:AC:CD:59:6E:9B

            X509v3 Subject Key Identifier: 
                06:A4:08:8F:D2:C6:F7:42:93:E8:28:21:DF:D9:3E:39:CE:C4:25:DF
            Authority Information Access: 
                OCSP - URI:http://sw.symcd.com
                CA Issuers - URI:http://sw1.symcb.com/sw.crt

    Signature Algorithm: sha256WithRSAEncryption
         89:f1:40:3e:f2:47:ba:9d:a0:ad:1e:2e:94:d1:1a:d6:a8:2c:
         68:7b:c1:e3:a9:87:9d:ea:76:fe:d8:2a:43:87:84:a7:77:4e:
         0e:b0:cd:86:ac:73:97:89:69:7c:c6:41:7a:bb:ed:25:6c:f8:
         10:85:1b:66:39:41:4c:19:44:20:bc:7b:b2:10:7a:f3:94:2d:
         f4:f3:15:61:1d:08:6d:27:fc:90:87:56:98:4b:07:0d:ba:60:
         76:5c:3f:de:4b:2f:f5:1e:d3:a7:b6:76:f1:b9:e2:cc:02:d0:
         83:8f:be:65:7d:c5:42:8a:9c:b3:82:be:c6:11:fd:30:7e:67:
         14:51:59:e5:54:eb:91:0e:8b:cd:64:8c:58:4a:c7:66:32:7b:
         39:cb:d1:49:c1:99:fa:b5:4f:a1:4f:da:26:9c:17:8f:69:df:
         ca:5d:d9:13:bc:25:70:18:e4:48:ec:18:9b:8d:5c:e0:ce:91:
         3f:f3:34:66:97:1f:f6:b8:d4:da:9a:f8:a9:65:16:a5:82:19:
         8f:6e:32:a8:3b:47:9c:28:37:36:60:f8:8d:c5:71:58:cc:89:
         01:35:61:29:4b:d9:18:b3:fd:38:f4:87:01:2a:e2:fb:a9:73:
         84:05:ed:a6:13:79:6e:e4:e0:57:a5:12:fa:18:d1:90:62:fb:
         69:d7:70:ef
-----BEGIN CERTIFICATE-----
MIIFaDCCBFCgAwIBAgIQJGodXRJpnQ63/nJNiZtM/DANBgkqhkiG9w0BAQsFADCB
kTELMAkGA1UEBhMCVVMxHTAbBgNVBAoTFFN5bWFudGVjIENvcnBvcmF0aW9uMR8w
HQYDVQQLExZTeW1hbnRlYyBUcnVzdCBOZXR3b3JrMUIwQAYDVQQDEzlTeW1hbnRl
YyBDbGFzcyAzIEV4dGVuZGVkIFZhbGlkYXRpb24gQ29kZSBTaWduaW5nIENBIC0g
RzIwHhcNMTUxMDIyMDAwMDAwWhcNMTcwOTEwMjM1OTU5WjCBvDETMBEGCysGAQQB
gjc8AgEDEwJDQTEdMBsGA1UEDxMUUHJpdmF0ZSBPcmdhbml6YXRpb24xEDAOBgNV
BAUTBzg2NzgzNTkxCzAJBgNVBAYTAkNBMQ8wDQYDVQQIDAZRdWViZWMxEjAQBgNV
BAcMCU1hc2NvdWNoZTEgMB4GA1UECgwXU2FmZUJ5dGVzIFNvZnR3YXJlIEluYy4x
IDAeBgNVBAMUF1NhZmVCeXRlcyBTb2Z0d2FyZSBJbmMuMIIBIjANBgkqhkiG9w0B
AQEFAAOCAQ8AMIIBCgKCAQEA1gtBEYYUy0Mqi5HwxXrACJ2vtQG7i5IYJCk1mjUU
ZF2xoeNHYJSubdYGRI5/n5fK/3t8W23/edlCR9ofuNEk9yO94hC1ARkWMhayssz8
B6m/yF7M96kvktynLOq9MYPpUml8WbJSmFbxbtm2Wbb9jYoNImXrhIH5rO3q+FgS
tQEEezQLeVTcd3kIPQDEkxbd7Rp3CVkV3fWzwjWF6Sdla6p+rvx2jtE789jgeanr
l9DdTyQXxaVunX1cu/yoL2S8hyGUKSKj3dTa5oNgm20fCGKq5nkyDfhIZPbJIVgT
eePIhTm0Vx/v2wgDTQNse9e4oOdNu/7WrwCJObsjztFfPQIDAQABo4IBjTCCAYkw
JQYDVR0RBB4wHKAaBggrBgEFBQcIA6AOMAwMCkNBLTg2NzgzNTkwCQYDVR0TBAIw
ADAOBgNVHQ8BAf8EBAMCB4AwKwYDVR0fBCQwIjAgoB6gHIYaaHR0cDovL3N3LnN5
bWNiLmNvbS9zdy5jcmwwZgYDVR0gBF8wXTBbBgtghkgBhvhFAQcXBjBMMCMGCCsG
AQUFBwIBFhdodHRwczovL2Quc3ltY2IuY29tL2NwczAlBggrBgEFBQcCAjAZDBdo
dHRwczovL2Quc3ltY2IuY29tL3JwYTAWBgNVHSUBAf8EDDAKBggrBgEFBQcDAzAf
BgNVHSMEGDAWgBQWZt5KNONQpxGGA7FsqcaszVlumzAdBgNVHQ4EFgQUBqQIj9LG
90KT6Cgh39k+Oc7EJd8wWAYIKwYBBQUHAQEETDBKMB8GCCsGAQUFBzABhhNodHRw
Oi8vc3cuc3ltY2QuY29tMCcGCCsGAQUFBzAChhtodHRwOi8vc3cxLnN5bWNiLmNv
bS9zdy5jcnQwDQYJKoZIhvcNAQELBQADggEBAInxQD7yR7qdoK0eLpTRGtaoLGh7
weOph53qdv7YKkOHhKd3Tg6wzYasc5eJaXzGQXq77SVs+BCFG2Y5QUwZRCC8e7IQ
evOULfTzFWEdCG0n/JCHVphLBw26YHZcP95LL/Ue06e2dvG54swC0IOPvmV9xUKK
nLOCvsYR/TB+ZxRRWeVU65EOi81kjFhKx2YyeznL0UnBmfq1T6FP2iacF49p38pd
2RO8JXAY5EjsGJuNXODOkT/zNGaXH/a41Nqa+KllFqWCGY9uMqg7R5woNzZg+I3F
cVjMiQE1YSlL2Riz/Tj0hwEq4vupc4QF7aYTeW7k4FelEvoY0ZBi+2nXcO8=
-----END CERTIFICATE-----

Certificate:
    Data:
        Version: 3 (0x2)
        Serial Number:
            03:01:9a:02:3a:ff:58:b1:6b:d6:d5:ea:e6:17:f0:66
    Signature Algorithm: sha1WithRSAEncryption
        Issuer: C=US, O=DigiCert Inc, OU=www.digicert.com, CN=DigiCert Assured ID CA-1
        Validity
            Not Before: Oct 22 00:00:00 2014 GMT
            Not After : Oct 22 00:00:00 2024 GMT
        Subject: C=US, O=DigiCert, CN=DigiCert Timestamp Responder
        Subject Public Key Info:
            Public Key Algorithm: rsaEncryption
                Public-Key: (2048 bit)
                Modulus:
                    00:a3:64:5d:fc:7c:b3:e0:82:35:e0:e0:f6:c6:2a:
                    e6:49:75:3b:cc:6e:e0:53:a9:9f:1f:64:59:e6:7c:
                    6b:7f:6b:8c:9d:55:f8:92:e3:9e:d5:5a:63:5b:02:
                    49:50:d9:83:ce:6f:66:ee:dd:cb:85:e9:5f:a5:f9:
                    d4:87:74:88:44:3b:19:c9:e5:f5:91:9f:c6:14:39:
                    ac:24:ea:a8:4b:2c:91:89:cc:5e:28:f4:64:b6:50:
                    b7:f5:12:b3:73:96:0a:67:a3:be:61:9f:ae:f3:fd:
                    12:78:75:0e:a6:5b:14:fd:45:23:8e:86:44:55:7d:
                    18:86:05:8c:55:87:79:48:46:f7:ca:0e:8d:a7:de:
                    4e:5f:e2:a8:b6:2d:59:02:61:88:61:72:18:68:b9:
                    b8:7c:ee:e6:e7:34:2f:31:77:81:30:1f:bb:36:01:
                    8d:ef:27:e3:f7:9a:f0:4c:31:64:8d:e3:eb:fa:19:
                    87:a8:7e:cf:ec:8c:0c:36:5b:7a:c1:7a:b8:78:c7:
                    c9:06:2e:46:10:c8:8d:e8:04:60:db:bc:73:74:fa:
                    4e:d8:fe:aa:40:f1:b2:ce:70:46:83:e9:da:40:a1:
                    59:3a:d9:15:09:57:99:56:30:93:f3:c9:61:cc:d0:
                    08:cc:6b:ec:62:42:91:ac:02:c0:ef:a4:f0:89:11:
                    8f:77
                Exponent: 65537 (0x10001)
        X509v3 extensions:
            X509v3 Key Usage: critical
                Digital Signature
            X509v3 Basic Constraints: critical
                CA:FALSE
            X509v3 Extended Key Usage: critical
                Time Stamping
            X509v3 Certificate Policies: 
                Policy: 2.16.840.1.114412.7.1
                  CPS: https://www.digicert.com/CPS
                  User Notice:
                    Explicit Text: 
                Policy: 2.16.840.1.114412.3.21

            X509v3 Authority Key Identifier: 
                keyid:15:00:12:2B:13:98:B2:99:07:ED:1E:DF:A2:BE:57:0D:2B:67:02:CD

            X509v3 Subject Key Identifier: 
                61:5A:4D:24:B6:49:32:9D:4A:2A:79:1A:83:4B:F4:1E:89:C1:CA:7D
            X509v3 CRL Distribution Points: 

                Full Name:
                  URI:http://crl3.digicert.com/DigiCertAssuredIDCA-1.crl

                Full Name:
                  URI:http://crl4.digicert.com/DigiCertAssuredIDCA-1.crl

            Authority Information Access: 
                OCSP - URI:http://ocsp.digicert.com
                CA Issuers - URI:http://cacerts.digicert.com/DigiCertAssuredIDCA-1.crt

    Signature Algorithm: sha1WithRSAEncryption
         9d:25:7e:1b:33:4d:b2:26:81:5c:9b:86:ce:23:20:0f:80:87:
         e5:88:ff:ff:b1:d4:6a:2c:31:ed:3a:17:19:71:17:cd:a9:1b:
         bc:5a:16:39:00:9d:e3:6c:84:e4:5a:40:fb:de:06:01:8c:37:
         fa:9b:b1:9d:24:7e:fe:20:a4:57:ad:5b:b7:9a:b0:60:26:ea:
         69:57:21:5d:34:2f:1f:71:b0:83:94:19:05:6b:35:90:10:a0:
         7b:97:c7:f6:3f:e7:e2:11:41:a6:bd:62:d9:f0:27:3d:38:1d:
         28:6f:3a:52:09:f0:ec:70:62:d3:62:4b:b0:e0:73:a6:92:c0:
         d3:8e:31:d8:2f:e3:6d:17:13:06:ee:e4:03:b6:14:ab:f3:8f:
         43:a7:71:9d:21:dd:14:ca:15:5d:92:41:da:f9:0f:81:d1:99:
         74:0d:26:c4:0e:7f:1b:b5:f5:a0:f1:c6:77:06:28:15:e9:d8:
         93:e5:55:16:f0:bb:0a:ab:1c:db:5c:48:27:66:c8:a3:8b:0a:
         1c:e5:95:da:ae:c4:2e:59:a0:61:dd:da:f3:6d:a2:61:e9:8a:
         0b:6d:ec:12:18:bd:f7:55:54:40:03:92:2b:6b:c2:51:c2:0a:
         48:af:b0:d4:6e:e0:f4:14:0a:3a:1b:e3:8f:3d:ca:af:6a:8d:
         7b:dc:d8:44
-----BEGIN CERTIFICATE-----
MIIGajCCBVKgAwIBAgIQAwGaAjr/WLFr1tXq5hfwZjANBgkqhkiG9w0BAQUFADBi
MQswCQYDVQQGEwJVUzEVMBMGA1UEChMMRGlnaUNlcnQgSW5jMRkwFwYDVQQLExB3
d3cuZGlnaWNlcnQuY29tMSEwHwYDVQQDExhEaWdpQ2VydCBBc3N1cmVkIElEIENB
LTEwHhcNMTQxMDIyMDAwMDAwWhcNMjQxMDIyMDAwMDAwWjBHMQswCQYDVQQGEwJV
UzERMA8GA1UEChMIRGlnaUNlcnQxJTAjBgNVBAMTHERpZ2lDZXJ0IFRpbWVzdGFt
cCBSZXNwb25kZXIwggEiMA0GCSqGSIb3DQEBAQUAA4IBDwAwggEKAoIBAQCjZF38
fLPggjXg4PbGKuZJdTvMbuBTqZ8fZFnmfGt/a4ydVfiS457VWmNbAklQ2YPOb2bu
3cuF6V+l+dSHdIhEOxnJ5fWRn8YUOawk6qhLLJGJzF4o9GS2ULf1ErNzlgpno75h
n67z/RJ4dQ6mWxT9RSOOhkRVfRiGBYxVh3lIRvfKDo2n3k5f4qi2LVkCYYhhchho
ubh87ubnNC8xd4EwH7s2AY3vJ+P3mvBMMWSN4+v6GYeofs/sjAw2W3rBerh4x8kG
LkYQyI3oBGDbvHN0+k7Y/qpA8bLOcEaD6dpAoVk62RUJV5lWMJPzyWHM0AjMa+xi
QpGsAsDvpPCJEY93AgMBAAGjggM1MIIDMTAOBgNVHQ8BAf8EBAMCB4AwDAYDVR0T
AQH/BAIwADAWBgNVHSUBAf8EDDAKBggrBgEFBQcDCDCCAb8GA1UdIASCAbYwggGy
MIIBoQYJYIZIAYb9bAcBMIIBkjAoBggrBgEFBQcCARYcaHR0cHM6Ly93d3cuZGln
aWNlcnQuY29tL0NQUzCCAWQGCCsGAQUFBwICMIIBVh6CAVIAQQBuAHkAIAB1AHMA
ZQAgAG8AZgAgAHQAaABpAHMAIABDAGUAcgB0AGkAZgBpAGMAYQB0AGUAIABjAG8A
bgBzAHQAaQB0AHUAdABlAHMAIABhAGMAYwBlAHAAdABhAG4AYwBlACAAbwBmACAA
dABoAGUAIABEAGkAZwBpAEMAZQByAHQAIABDAFAALwBDAFAAUwAgAGEAbgBkACAA
dABoAGUAIABSAGUAbAB5AGkAbgBnACAAUABhAHIAdAB5ACAAQQBnAHIAZQBlAG0A
ZQBuAHQAIAB3AGgAaQBjAGgAIABsAGkAbQBpAHQAIABsAGkAYQBiAGkAbABpAHQA
eQAgAGEAbgBkACAAYQByAGUAIABpAG4AYwBvAHIAcABvAHIAYQB0AGUAZAAgAGgA
ZQByAGUAaQBuACAAYgB5ACAAcgBlAGYAZQByAGUAbgBjAGUALjALBglghkgBhv1s
AxUwHwYDVR0jBBgwFoAUFQASKxOYspkH7R7for5XDStnAs0wHQYDVR0OBBYEFGFa
TSS2STKdSip5GoNL9B6Jwcp9MH0GA1UdHwR2MHQwOKA2oDSGMmh0dHA6Ly9jcmwz
LmRpZ2ljZXJ0LmNvbS9EaWdpQ2VydEFzc3VyZWRJRENBLTEuY3JsMDigNqA0hjJo
dHRwOi8vY3JsNC5kaWdpY2VydC5jb20vRGlnaUNlcnRBc3N1cmVkSURDQS0xLmNy
bDB3BggrBgEFBQcBAQRrMGkwJAYIKwYBBQUHMAGGGGh0dHA6Ly9vY3NwLmRpZ2lj
ZXJ0LmNvbTBBBggrBgEFBQcwAoY1aHR0cDovL2NhY2VydHMuZGlnaWNlcnQuY29t
L0RpZ2lDZXJ0QXNzdXJlZElEQ0EtMS5jcnQwDQYJKoZIhvcNAQEFBQADggEBAJ0l
fhszTbImgVybhs4jIA+Ah+WI//+x1GosMe06FxlxF82pG7xaFjkAneNshORaQPve
BgGMN/qbsZ0kfv4gpFetW7easGAm6mlXIV00Lx9xsIOUGQVrNZAQoHuXx/Y/5+IR
Qaa9YtnwJz04HShvOlIJ8OxwYtNiS7Dgc6aSwNOOMdgv420XEwbu5AO2FKvzj0On
cZ0h3RTKFV2SQdr5D4HRmXQNJsQOfxu19aDxxncGKBXp2JPlVRbwuwqrHNtcSCdm
yKOLChzlldquxC5ZoGHd2vNtomHpigtt7BIYvfdVVEADkitrwlHCCkivsNRu4PQU
Cjob4489yq9qjXvc2EQ=
-----END CERTIFICATE-----

Certificate:
    Data:
        Version: 3 (0x2)
        Serial Number:
            06:fd:f9:03:96:03:ad:ea:00:0a:eb:3f:27:bb:ba:1b
    Signature Algorithm: sha1WithRSAEncryption
        Issuer: C=US, O=DigiCert Inc, OU=www.digicert.com, CN=DigiCert Assured ID Root CA
        Validity
            Not Before: Nov 10 00:00:00 2006 GMT
            Not After : Nov 10 00:00:00 2021 GMT
        Subject: C=US, O=DigiCert Inc, OU=www.digicert.com, CN=DigiCert Assured ID CA-1
        Subject Public Key Info:
            Public Key Algorithm: rsaEncryption
                Public-Key: (2048 bit)
                Modulus:
                    00:e8:82:2d:99:f9:ca:c2:42:95:a5:80:73:40:70:
                    d2:9e:56:54:5c:a9:c4:d2:41:06:8f:c9:33:fc:4d:
                    45:91:5c:81:9f:ed:2c:9c:f8:16:59:df:9e:b5:24:
                    15:c2:98:b9:b4:77:49:dc:89:c4:0a:da:af:cb:5e:
                    6b:ed:ad:b0:71:31:eb:cf:3a:40:0c:46:4d:93:ec:
                    8b:7a:36:08:03:ab:0c:34:fe:18:49:82:fe:c7:c7:
                    31:48:80:7c:1e:a2:0f:92:0e:50:c9:c6:87:eb:36:
                    3f:d8:30:c3:ff:a6:f7:fb:a2:cd:6f:73:23:fe:ac:
                    56:05:90:f0:32:21:16:89:c6:70:88:f9:05:97:7d:
                    a3:c7:43:dd:02:e8:3b:3d:ed:b1:41:a3:ed:3f:be:
                    db:95:48:c4:ee:1e:b3:f2:bc:0c:2b:99:d0:c6:5d:
                    12:42:81:e1:83:6e:82:73:3f:26:4b:14:90:ae:59:
                    66:0a:c4:8d:be:d2:ce:06:ae:ad:84:6f:48:84:9b:
                    4f:40:b9:f1:4c:f2:af:98:fb:f6:ce:40:5d:5c:f6:
                    a8:f1:2f:af:ec:89:22:f2:6b:18:65:b1:c1:73:ad:
                    d7:f1:d8:cf:1e:0a:74:5c:42:b8:68:7e:b7:d5:77:
                    0a:27:56:7c:0f:62:a4:3f:32:14:60:95:fd:07:04:
                    a2:09
                Exponent: 65537 (0x10001)
        X509v3 extensions:
            X509v3 Key Usage: critical
                Digital Signature, Certificate Sign, CRL Sign
            X509v3 Extended Key Usage: 
                TLS Web Server Authentication, TLS Web Client Authentication, Code Signing, E-mail Protection, Time Stamping
            X509v3 Certificate Policies: 
                Policy: 2.16.840.1.114412.0.1.4
                  CPS: http://www.digicert.com/ssl-cps-repository.htm
                  User Notice:
                    Explicit Text: 
                Policy: 2.16.840.1.114412.3.21

            X509v3 Basic Constraints: critical
                CA:TRUE, pathlen:0
            Authority Information Access: 
                OCSP - URI:http://ocsp.digicert.com
                CA Issuers - URI:http://cacerts.digicert.com/DigiCertAssuredIDRootCA.crt

            X509v3 CRL Distribution Points: 

                Full Name:
                  URI:http://crl3.digicert.com/DigiCertAssuredIDRootCA.crl

                Full Name:
                  URI:http://crl4.digicert.com/DigiCertAssuredIDRootCA.crl

            X509v3 Subject Key Identifier: 
                15:00:12:2B:13:98:B2:99:07:ED:1E:DF:A2:BE:57:0D:2B:67:02:CD
            X509v3 Authority Key Identifier: 
                keyid:45:EB:A2:AF:F4:92:CB:82:31:2D:51:8B:A7:A7:21:9D:F3:6D:C8:0F

    Signature Algorithm: sha1WithRSAEncryption
         46:50:3e:c9:b7:28:24:a7:38:1d:b6:5b:29:af:52:cf:52:e9:
         31:47:ab:56:5c:7b:d5:0d:0b:41:b3:ef:ec:75:1f:74:38:f2:
         b2:5c:61:a2:9c:95:c3:50:e4:82:b9:23:d1:ba:3a:86:72:ad:
         38:78:ac:75:5d:17:17:34:72:47:85:94:56:d1:eb:bb:36:84:
         77:cc:24:a5:f3:04:19:55:a9:e7:e3:e7:ab:62:cd:fb:8b:2d:
         90:c2:c0:d2:b5:94:bd:5e:4f:b1:05:d2:0e:3d:1a:a9:14:5b:
         a6:86:31:62:a8:a8:33:e4:9b:39:a7:c4:f5:ce:1d:78:76:94:
         25:73:e4:2a:ab:cf:9c:76:4b:ed:5f:c2:4b:16:e4:4b:70:4c:
         00:89:1e:fc:c5:79:bc:4c:12:57:fe:5f:e1:1e:bc:02:5d:a8:
         fe:fb:07:38:4f:0d:c6:5d:91:b9:0f:67:45:cd:d6:83:ed:e7:
         92:0d:8d:b1:69:8c:4f:fb:59:e0:23:0f:d2:aa:ae:00:7c:ee:
         9c:42:0e:cf:91:d7:27:b7:16:ee:0f:c3:bd:7c:0a:a0:ee:2c:
         08:55:85:22:b8:eb:18:1a:4d:fc:2a:21:ad:49:31:83:47:95:
         77:71:dc:b1:1b:4b:4b:1c:10:9c:77:14:c1:9d:4f:2f:5a:95:
         08:29:10:26
-----BEGIN CERTIFICATE-----
MIIGzTCCBbWgAwIBAgIQBv35A5YDreoACus/J7u6GzANBgkqhkiG9w0BAQUFADBl
MQswCQYDVQQGEwJVUzEVMBMGA1UEChMMRGlnaUNlcnQgSW5jMRkwFwYDVQQLExB3
d3cuZGlnaWNlcnQuY29tMSQwIgYDVQQDExtEaWdpQ2VydCBBc3N1cmVkIElEIFJv
b3QgQ0EwHhcNMDYxMTEwMDAwMDAwWhcNMjExMTEwMDAwMDAwWjBiMQswCQYDVQQG
EwJVUzEVMBMGA1UEChMMRGlnaUNlcnQgSW5jMRkwFwYDVQQLExB3d3cuZGlnaWNl
cnQuY29tMSEwHwYDVQQDExhEaWdpQ2VydCBBc3N1cmVkIElEIENBLTEwggEiMA0G
CSqGSIb3DQEBAQUAA4IBDwAwggEKAoIBAQDogi2Z+crCQpWlgHNAcNKeVlRcqcTS
QQaPyTP8TUWRXIGf7Syc+BZZ3561JBXCmLm0d0ncicQK2q/LXmvtrbBxMevPOkAM
Rk2T7It6NggDqww0/hhJgv7HxzFIgHweog+SDlDJxofrNj/YMMP/pvf7os1vcyP+
rFYFkPAyIRaJxnCI+QWXfaPHQ90C6Ds97bFBo+0/vtuVSMTuHrPyvAwrmdDGXRJC
geGDboJzPyZLFJCuWWYKxI2+0s4Grq2Eb0iEm09AufFM8q+Y+/bOQF1c9qjxL6/s
iSLyaxhlscFzrdfx2M8eCnRcQrhofrfVdwonVnwPYqQ/MhRglf0HBKIJAgMBAAGj
ggN6MIIDdjAOBgNVHQ8BAf8EBAMCAYYwOwYDVR0lBDQwMgYIKwYBBQUHAwEGCCsG
AQUFBwMCBggrBgEFBQcDAwYIKwYBBQUHAwQGCCsGAQUFBwMIMIIB0gYDVR0gBIIB
yTCCAcUwggG0BgpghkgBhv1sAAEEMIIBpDA6BggrBgEFBQcCARYuaHR0cDovL3d3
dy5kaWdpY2VydC5jb20vc3NsLWNwcy1yZXBvc2l0b3J5Lmh0bTCCAWQGCCsGAQUF
BwICMIIBVh6CAVIAQQBuAHkAIAB1AHMAZQAgAG8AZgAgAHQAaABpAHMAIABDAGUA
cgB0AGkAZgBpAGMAYQB0AGUAIABjAG8AbgBzAHQAaQB0AHUAdABlAHMAIABhAGMA
YwBlAHAAdABhAG4AYwBlACAAbwBmACAAdABoAGUAIABEAGkAZwBpAEMAZQByAHQA
IABDAFAALwBDAFAAUwAgAGEAbgBkACAAdABoAGUAIABSAGUAbAB5AGkAbgBnACAA
UABhAHIAdAB5ACAAQQBnAHIAZQBlAG0AZQBuAHQAIAB3AGgAaQBjAGgAIABsAGkA
bQBpAHQAIABsAGkAYQBiAGkAbABpAHQAeQAgAGEAbgBkACAAYQByAGUAIABpAG4A
YwBvAHIAcABvAHIAYQB0AGUAZAAgAGgAZQByAGUAaQBuACAAYgB5ACAAcgBlAGYA
ZQByAGUAbgBjAGUALjALBglghkgBhv1sAxUwEgYDVR0TAQH/BAgwBgEB/wIBADB5
BggrBgEFBQcBAQRtMGswJAYIKwYBBQUHMAGGGGh0dHA6Ly9vY3NwLmRpZ2ljZXJ0
LmNvbTBDBggrBgEFBQcwAoY3aHR0cDovL2NhY2VydHMuZGlnaWNlcnQuY29tL0Rp
Z2lDZXJ0QXNzdXJlZElEUm9vdENBLmNydDCBgQYDVR0fBHoweDA6oDigNoY0aHR0
cDovL2NybDMuZGlnaWNlcnQuY29tL0RpZ2lDZXJ0QXNzdXJlZElEUm9vdENBLmNy
bDA6oDigNoY0aHR0cDovL2NybDQuZGlnaWNlcnQuY29tL0RpZ2lDZXJ0QXNzdXJl
ZElEUm9vdENBLmNybDAdBgNVHQ4EFgQUFQASKxOYspkH7R7for5XDStnAs0wHwYD
VR0jBBgwFoAUReuir/SSy4IxLVGLp6chnfNtyA8wDQYJKoZIhvcNAQEFBQADggEB
AEZQPsm3KCSnOB22WymvUs9S6TFHq1Zce9UNC0Gz7+x1H3Q48rJcYaKclcNQ5IK5
I9G6OoZyrTh4rHVdFxc0ckeFlFbR67s2hHfMJKXzBBlVqefj56tizfuLLZDCwNK1
lL1eT7EF0g49GqkUW6aGMWKoqDPkmzmnxPXOHXh2lCVz5Cqrz5x2S+1fwksW5Etw
TACJHvzFebxMElf+X+EevAJdqP77BzhPDcZdkbkPZ0XN1oPt55INjbFpjE/7WeAj
D9KqrgB87pxCDs+R1ye3Fu4Pw718CqDuLAhVhSK46xgaTfwqIa1JMYNHlXdx3LEb
S0scEJx3FMGdTy9alQgpECY=
-----END CERTIFICATE-----

