Certificate:
    Data:
        Version: 3 (0x2)
        Serial Number:
            16:88:f0:39:25:5e:63:8e:69:14:39:07:e6:33:0b
    Signature Algorithm: sha1WithRSAEncryption
        Issuer: C=US, ST=UT, L=Salt Lake City, O=The USERTRUST Network, OU=http://www.usertrust.com, CN=UTN-USERFirst-Object
        Validity
            Not Before: Dec 31 00:00:00 2015 GMT
            Not After : Jul  9 18:40:36 2019 GMT
        Subject: C=GB, ST=Greater Manchester, L=Salford, O=COMODO CA Limited, CN=COMODO SHA-1 Time Stamping Signer
        Subject Public Key Info:
            Public Key Algorithm: rsaEncryption
                Public-Key: (2048 bit)
                Modulus:
                    00:e9:e9:3d:df:d7:37:08:c9:1e:38:b2:52:53:42:
                    6d:22:f1:b1:c4:06:04:6b:9e:fd:82:74:50:43:7d:
                    c6:a0:bb:1f:4e:f9:02:71:26:b1:ef:43:d8:83:8c:
                    48:fc:e7:0f:97:7a:9a:eb:9c:de:a6:a3:0e:3b:1c:
                    44:18:75:8e:78:a5:17:69:fe:49:18:a4:e2:bb:5c:
                    4e:fe:8e:2a:54:7a:50:f0:d5:f6:cc:91:e7:99:79:
                    d7:de:79:94:d7:96:33:fe:0e:83:be:22:bf:63:16:
                    2c:a3:dd:28:1b:af:3d:ab:ea:97:d2:f1:bf:04:10:
                    e7:3d:48:45:fd:1f:68:65:c1:7f:59:99:69:c0:22:
                    31:0c:62:6e:a7:5c:65:01:21:b0:63:c4:22:18:27:
                    ee:e6:fc:d2:00:3d:47:2e:a8:b8:86:56:5d:04:dc:
                    13:17:25:6e:1c:df:44:0f:15:cd:b7:db:a5:57:76:
                    42:6f:00:68:82:99:d2:e3:c1:de:f0:8b:94:57:4c:
                    ec:08:90:22:21:ce:22:2b:98:0c:42:e6:42:93:94:
                    98:93:ef:fd:06:d9:3f:bc:5b:9b:54:3c:20:b1:ee:
                    6a:d6:47:7a:c5:ab:80:e9:30:9a:de:f1:a4:3f:55:
                    4d:0a:09:34:8a:75:29:d2:69:ad:97:0f:50:bf:f8:
                    ca:09
                Exponent: 65537 (0x10001)
        X509v3 extensions:
            X509v3 Authority Key Identifier: 
                keyid:DA:ED:64:74:14:9C:14:3C:AB:DD:99:A9:BD:5B:28:4D:8B:3C:C9:D8

            X509v3 Subject Key Identifier: 
                8E:6B:2D:33:6B:F4:33:A7:93:B3:13:9A:A5:E0:0A:F7:12:35:6A:88
            X509v3 Key Usage: critical
                Digital Signature, Non Repudiation
            X509v3 Basic Constraints: critical
                CA:FALSE
            X509v3 Extended Key Usage: critical
                Time Stamping
            X509v3 CRL Distribution Points: 

                Full Name:
                  URI:http://crl.usertrust.com/UTN-USERFirst-Object.crl

            Authority Information Access: 
                OCSP - URI:http://ocsp.usertrust.com

    Signature Algorithm: sha1WithRSAEncryption
         ba:33:24:40:40:8c:7c:db:58:9f:b3:60:98:b2:f5:c0:31:fe:
         eb:1f:6e:50:f6:0a:e0:e4:e6:81:ad:26:87:a2:df:fd:b3:da:
         f4:73:f3:00:fb:29:1b:89:1b:15:3e:db:6b:52:93:2b:c4:ac:
         39:81:d7:3c:67:57:9a:39:36:e0:28:08:9a:e3:39:4f:9b:89:
         09:7f:7b:c5:61:7f:59:89:32:25:0a:6a:ae:1a:3e:f0:a2:27:
         a8:b6:c3:b8:87:f7:16:04:48:41:3d:5c:d8:ec:9f:4d:20:31:
         04:d9:65:a1:ed:cd:69:07:53:16:3d:dd:36:02:0a:88:eb:40:
         e5:06:30:0b:b8:16:4b:dc:ef:bc:55:09:ff:c6:3e:12:2e:76:
         b3:dc:ce:42:ef:f9:76:57:e1:b7:0a:05:40:98:58:9a:5d:71:
         16:93:71:8c:65:81:ea:6f:f3:89:f7:fb:73:ad:b4:e7:bf:d9:
         8e:6f:aa:0b:4f:25:f3:b8:e1:d5:dd:75:98:68:81:f8:aa:c0:
         d1:80:c2:c4:c4:39:89:c1:f6:c9:9e:6c:d7:74:f9:d9:97:f8:
         4f:c2:9a:0a:cd:5e:8f:f8:19:e9:e0:a5:9f:c4:f0:92:21:e6:
         2d:79:25:c9:22:f9:c3:f0:3a:84:57:ad:3a:16:f4:63:94:10:
         1d:5d:d0:c6
-----BEGIN CERTIFICATE-----
MIIEmTCCA4GgAwIBAgIPFojwOSVeY45pFDkH5jMLMA0GCSqGSIb3DQEBBQUAMIGV
MQswCQYDVQQGEwJVUzELMAkGA1UECBMCVVQxFzAVBgNVBAcTDlNhbHQgTGFrZSBD
aXR5MR4wHAYDVQQKExVUaGUgVVNFUlRSVVNUIE5ldHdvcmsxITAfBgNVBAsTGGh0
dHA6Ly93d3cudXNlcnRydXN0LmNvbTEdMBsGA1UEAxMUVVROLVVTRVJGaXJzdC1P
YmplY3QwHhcNMTUxMjMxMDAwMDAwWhcNMTkwNzA5MTg0MDM2WjCBhDELMAkGA1UE
BhMCR0IxGzAZBgNVBAgTEkdyZWF0ZXIgTWFuY2hlc3RlcjEQMA4GA1UEBxMHU2Fs
Zm9yZDEaMBgGA1UEChMRQ09NT0RPIENBIExpbWl0ZWQxKjAoBgNVBAMTIUNPTU9E
TyBTSEEtMSBUaW1lIFN0YW1waW5nIFNpZ25lcjCCASIwDQYJKoZIhvcNAQEBBQAD
ggEPADCCAQoCggEBAOnpPd/XNwjJHjiyUlNCbSLxscQGBGue/YJ0UEN9xqC7H075
AnEmse9D2IOMSPznD5d6muuc3qajDjscRBh1jnilF2n+SRik4rtcTv6OKlR6UPDV
9syR55l51955lNeWM/4Og74iv2MWLKPdKBuvPavql9LxvwQQ5z1IRf0faGXBf1mZ
acAiMQxibqdcZQEhsGPEIhgn7ub80gA9Ry6ouIZWXQTcExclbhzfRA8VzbfbpVd2
Qm8AaIKZ0uPB3vCLlFdM7AiQIiHOIiuYDELmQpOUmJPv/QbZP7xbm1Q8ILHuatZH
esWrgOkwmt7xpD9VTQoJNIp1KdJprZcPUL/4ygkCAwEAAaOB9DCB8TAfBgNVHSME
GDAWgBTa7WR0FJwUPKvdmam9WyhNizzJ2DAdBgNVHQ4EFgQUjmstM2v0M6eTsxOa
peAK9xI1aogwDgYDVR0PAQH/BAQDAgbAMAwGA1UdEwEB/wQCMAAwFgYDVR0lAQH/
BAwwCgYIKwYBBQUHAwgwQgYDVR0fBDswOTA3oDWgM4YxaHR0cDovL2NybC51c2Vy
dHJ1c3QuY29tL1VUTi1VU0VSRmlyc3QtT2JqZWN0LmNybDA1BggrBgEFBQcBAQQp
MCcwJQYIKwYBBQUHMAGGGWh0dHA6Ly9vY3NwLnVzZXJ0cnVzdC5jb20wDQYJKoZI
hvcNAQEFBQADggEBALozJEBAjHzbWJ+zYJiy9cAx/usfblD2CuDk5oGtJoei3/2z
2vRz8wD7KRuJGxU+22tSkyvErDmB1zxnV5o5NuAoCJrjOU+biQl/e8Vhf1mJMiUK
aq4aPvCiJ6i2w7iH9xYESEE9XNjsn00gMQTZZaHtzWkHUxY93TYCCojrQOUGMAu4
Fkvc77xVCf/GPhIudrPczkLv+XZX4bcKBUCYWJpdcRaTcYxlgepv84n3+3OttOe/
2Y5vqgtPJfO44dXddZhogfiqwNGAwsTEOYnB9smebNd0+dmX+E/CmgrNXo/4Geng
pZ/E8JIh5i15Jcki+cPwOoRXrToW9GOUEB1d0MY=
-----END CERTIFICATE-----

Certificate:
    Data:
        Version: 3 (0x2)
        Serial Number:
            48:1b:6a:07:a9:42:4c:1e:aa:fe:f3:cd:f1:0f
    Signature Algorithm: sha256WithRSAEncryption
        Issuer: OU=GlobalSign Root CA - R3, O=GlobalSign, CN=GlobalSign
        Validity
            Not Before: Jun 15 00:00:00 2016 GMT
            Not After : Jun 15 00:00:00 2024 GMT
        Subject: C=BE, O=GlobalSign nv-sa, CN=GlobalSign Extended Validation CodeSigning CA - SHA256 - G3
        Subject Public Key Info:
            Public Key Algorithm: rsaEncryption
                Public-Key: (2048 bit)
                Modulus:
                    00:d9:b7:ba:25:ad:94:f3:5b:be:41:06:1c:53:ca:
                    0c:10:8c:51:41:59:33:79:64:f4:57:9d:e4:d5:25:
                    c4:ec:50:84:58:98:72:79:40:e2:2f:78:d4:92:ea:
                    26:0e:9e:ae:95:7c:fb:c4:fd:71:44:dd:8c:5f:b7:
                    23:8b:5e:bb:f4:fc:4b:cb:23:3d:c3:76:03:f5:d1:
                    8c:45:bc:71:75:1d:8b:d2:89:89:be:e3:51:3d:c6:
                    c8:8a:b2:31:35:07:6e:b9:f5:ba:6a:0d:f4:10:9f:
                    ae:d5:62:49:28:7b:ec:57:ba:ab:32:7c:b1:7d:d2:
                    a2:56:06:36:ee:b0:ef:d0:6a:ae:ea:ab:1f:d6:0d:
                    9f:7c:96:fb:ad:70:99:2d:5d:95:f0:80:d0:79:46:
                    ec:55:3a:cc:d3:38:fb:04:07:a8:07:75:82:82:e0:
                    d0:7e:77:b8:8f:eb:d2:28:fc:ae:6d:14:68:41:7f:
                    76:43:d7:48:ba:60:44:e1:b7:72:e8:d0:f0:20:03:
                    7b:da:da:b4:06:75:c7:b2:03:de:f8:94:c6:68:8f:
                    5e:7b:9e:9b:9d:36:e0:ce:d2:6b:c6:c6:6b:e9:14:
                    22:b5:71:7e:b6:8f:5a:1f:db:e7:6e:f4:42:10:90:
                    68:e6:2b:45:10:4f:73:ba:2c:d7:c5:31:6a:72:dd:
                    63:73
                Exponent: 65537 (0x10001)
        X509v3 extensions:
            X509v3 Key Usage: critical
                Certificate Sign, CRL Sign
            X509v3 Extended Key Usage: 
                Code Signing, OCSP Signing
            X509v3 Basic Constraints: critical
                CA:TRUE, pathlen:0
            X509v3 Subject Key Identifier: 
                DC:2C:58:2C:2A:6F:35:2D:9F:79:95:A8:48:5D:C4:6D:3E:53:BF:B9
            X509v3 Authority Key Identifier: 
                keyid:8F:F0:4B:7F:A8:2E:45:24:AE:4D:50:FA:63:9A:8B:DE:E2:DD:1B:BC

            Authority Information Access: 
                OCSP - URI:http://ocsp2.globalsign.com/rootr3

            X509v3 CRL Distribution Points: 

                Full Name:
                  URI:http://crl.globalsign.com/root-r3.crl

            X509v3 Certificate Policies: 
                Policy: 1.3.6.1.4.1.4146.1.2
                Policy: 2.23.140.1.3
                Policy: 1.3.6.1.4.1.4146.1.95
                  CPS: https://www.globalsign.com/repository/

    Signature Algorithm: sha256WithRSAEncryption
         76:09:c4:cc:2f:d9:ef:1e:4b:a9:f8:57:f3:40:39:21:ca:4c:
         3c:1d:9e:29:2b:20:d4:2b:44:d2:88:ce:1a:0d:05:cf:83:81:
         bb:eb:69:bc:31:8d:2a:c4:c7:44:cc:60:60:94:1c:cf:a1:e1:
         02:24:0e:ad:5b:be:2c:c2:27:1e:67:b7:e8:28:1f:32:51:e3:
         39:f3:98:df:b8:9f:2e:8b:2a:b4:7b:0a:03:bc:bd:36:04:8f:
         c9:d0:9c:4f:a3:02:27:99:b0:f0:45:e9:34:df:e4:3a:a3:b7:
         06:37:d8:6f:2a:79:90:d4:d4:4e:58:71:ec:53:a9:61:98:f7:
         39:69:e0:12:9c:57:58:72:86:27:29:a5:1d:e5:32:f3:2b:99:
         97:5a:bf:2b:b0:3c:b4:06:ea:0e:64:ec:b7:cd:65:80:24:17:
         c2:d9:37:f5:b1:26:10:35:47:7b:9a:02:ba:54:a2:45:93:ff:
         79:bf:1a:8c:c5:9f:b5:9f:df:78:e7:6b:50:f1:47:94:69:4b:
         24:b8:da:05:e8:0c:9d:4f:06:ec:4a:31:20:7e:4f:5d:86:84:
         2f:35:a3:cd:9c:c1:84:57:1f:1f:ad:c0:e2:a4:b1:ef:29:6b:
         21:97:a6:d4:fe:ed:03:37:b0:fc:f5:8d:2a:bc:dc:84:83:e3:
         de:c3:e7:5f
-----BEGIN CERTIFICATE-----
MIIEpzCCA4+gAwIBAgIOSBtqB6lCTB6q/vPN8Q8wDQYJKoZIhvcNAQELBQAwTDEg
MB4GA1UECxMXR2xvYmFsU2lnbiBSb290IENBIC0gUjMxEzARBgNVBAoTCkdsb2Jh
bFNpZ24xEzARBgNVBAMTCkdsb2JhbFNpZ24wHhcNMTYwNjE1MDAwMDAwWhcNMjQw
NjE1MDAwMDAwWjBuMQswCQYDVQQGEwJCRTEZMBcGA1UEChMQR2xvYmFsU2lnbiBu
di1zYTFEMEIGA1UEAxM7R2xvYmFsU2lnbiBFeHRlbmRlZCBWYWxpZGF0aW9uIENv
ZGVTaWduaW5nIENBIC0gU0hBMjU2IC0gRzMwggEiMA0GCSqGSIb3DQEBAQUAA4IB
DwAwggEKAoIBAQDZt7olrZTzW75BBhxTygwQjFFBWTN5ZPRXneTVJcTsUIRYmHJ5
QOIveNSS6iYOnq6VfPvE/XFE3YxftyOLXrv0/EvLIz3DdgP10YxFvHF1HYvSiYm+
41E9xsiKsjE1B2659bpqDfQQn67VYkkoe+xXuqsyfLF90qJWBjbusO/Qaq7qqx/W
DZ98lvutcJktXZXwgNB5RuxVOszTOPsEB6gHdYKC4NB+d7iP69Io/K5tFGhBf3ZD
10i6YETht3Lo0PAgA3va2rQGdceyA974lMZoj157npudNuDO0mvGxmvpFCK1cX62
j1of2+du9EIQkGjmK0UQT3O6LNfFMWpy3WNzAgMBAAGjggFjMIIBXzAOBgNVHQ8B
Af8EBAMCAQYwHQYDVR0lBBYwFAYIKwYBBQUHAwMGCCsGAQUFBwMJMBIGA1UdEwEB
/wQIMAYBAf8CAQAwHQYDVR0OBBYEFNwsWCwqbzUtn3mVqEhdxG0+U7+5MB8GA1Ud
IwQYMBaAFI/wS3+oLkUkrk1Q+mOai97i3Ru8MD4GCCsGAQUFBwEBBDIwMDAuBggr
BgEFBQcwAYYiaHR0cDovL29jc3AyLmdsb2JhbHNpZ24uY29tL3Jvb3RyMzA2BgNV
HR8ELzAtMCugKaAnhiVodHRwOi8vY3JsLmdsb2JhbHNpZ24uY29tL3Jvb3QtcjMu
Y3JsMGIGA1UdIARbMFkwCwYJKwYBBAGgMgECMAcGBWeBDAEDMEEGCSsGAQQBoDIB
XzA0MDIGCCsGAQUFBwIBFiZodHRwczovL3d3dy5nbG9iYWxzaWduLmNvbS9yZXBv
c2l0b3J5LzANBgkqhkiG9w0BAQsFAAOCAQEAdgnEzC/Z7x5LqfhX80A5IcpMPB2e
KSsg1CtE0ojOGg0Fz4OBu+tpvDGNKsTHRMxgYJQcz6HhAiQOrVu+LMInHme36Cgf
MlHjOfOY37ifLosqtHsKA7y9NgSPydCcT6MCJ5mw8EXpNN/kOqO3BjfYbyp5kNTU
Tlhx7FOpYZj3OWngEpxXWHKGJymlHeUy8yuZl1q/K7A8tAbqDmTst81lgCQXwtk3
9bEmEDVHe5oCulSiRZP/eb8ajMWftZ/feOdrUPFHlGlLJLjaBegMnU8G7EoxIH5P
XYaELzWjzZzBhFcfH63A4qSx7ylrIZem1P7tAzew/PWNKrzchIPj3sPnXw==
-----END CERTIFICATE-----

Certificate:
    Data:
        Version: 3 (0x2)
        Serial Number:
            68:53:7a:db:f4:31:a5:00:24:9b:af:c3
    Signature Algorithm: sha256WithRSAEncryption
        Issuer: C=BE, O=GlobalSign nv-sa, CN=GlobalSign Extended Validation CodeSigning CA - SHA256 - G3
        Validity
            Not Before: Oct 11 23:52:09 2017 GMT
            Not After : Oct  7 13:57:45 2018 GMT
        Subject: businessCategory=Business Entity/serialNumber=316100100060898/jurisdictionC=RU/jurisdictionST=Republic of Karelia, C=RU, ST=Republic of Karelia, L=Petrozavodsk/street=Michurinskaya street 9, 15, O=IP Iaroslavskii Anton Andreevich, CN=IP Iaroslavskii Anton Andreevich/emailAddress=support@soft-develo.com
        Subject Public Key Info:
            Public Key Algorithm: rsaEncryption
                Public-Key: (2048 bit)
                Modulus:
                    00:99:7e:a1:a4:34:1f:60:01:cf:d6:38:ac:b4:b7:
                    44:9b:e1:03:09:97:51:7f:84:7c:11:1d:2b:60:5f:
                    a7:51:28:1c:47:2f:85:cb:57:05:13:5d:d5:8d:95:
                    01:68:dd:5f:82:bf:d7:c9:53:1e:8d:f1:a3:d6:89:
                    cd:f3:b1:ee:98:5c:95:e7:b2:e8:b2:d4:18:3a:16:
                    58:62:a4:8f:24:71:87:9e:b9:6c:03:2b:83:b6:a7:
                    17:99:42:b5:25:3d:32:47:8d:ca:f3:3f:8e:15:5e:
                    e1:7d:76:cf:50:3d:09:57:49:6b:67:04:c8:ef:d4:
                    96:e4:44:5f:e7:2e:5c:d0:6e:4f:3b:c8:ae:ed:60:
                    ba:4e:10:a8:fe:ad:08:af:3e:a3:75:06:47:ea:21:
                    9c:8e:4b:53:00:e0:0f:18:3a:db:56:a0:70:7a:4e:
                    6c:8e:8d:68:ff:cb:1a:8c:5d:3c:15:f3:6d:03:3f:
                    52:73:69:ea:2a:03:9c:91:d4:c4:e1:85:57:46:c3:
                    4a:7f:60:7d:5d:95:35:9f:56:70:ec:2e:cf:49:a6:
                    db:a3:18:a7:e8:ed:04:69:1b:30:87:0f:d8:2a:f8:
                    44:b2:f5:ec:5e:8a:c6:d0:a0:17:30:4f:ac:7e:2b:
                    36:f7:8e:df:2f:45:8c:62:1f:79:14:72:46:ec:07:
                    13:4b
                Exponent: 65537 (0x10001)
        X509v3 extensions:
            X509v3 Key Usage: critical
                Digital Signature
            Authority Information Access: 
                CA Issuers - URI:http://secure.globalsign.com/cacert/gsextendcodesignsha2g3ocsp.crt
                OCSP - URI:http://ocsp2.globalsign.com/gsextendcodesignsha2g3

            X509v3 Certificate Policies: 
                Policy: 1.3.6.1.4.1.4146.1.2
                  CPS: https://www.globalsign.com/repository/
                Policy: 2.23.140.1.3

            X509v3 Basic Constraints: 
                CA:FALSE
            X509v3 CRL Distribution Points: 

                Full Name:
                  URI:http://crl.globalsign.com/gsextendcodesignsha2g3.crl

            X509v3 Subject Alternative Name: 
                email:support@soft-develo.com
            X509v3 Extended Key Usage: 
                Code Signing
            X509v3 Subject Key Identifier: 
                53:F9:82:EA:D3:DB:C9:C2:9C:2E:A6:E2:E9:DA:11:81:79:5A:12:39
            X509v3 Authority Key Identifier: 
                keyid:DC:2C:58:2C:2A:6F:35:2D:9F:79:95:A8:48:5D:C4:6D:3E:53:BF:B9

    Signature Algorithm: sha256WithRSAEncryption
         30:b2:27:77:f0:cb:e8:e7:5a:77:b0:dd:3a:0a:17:4d:66:25:
         95:db:15:f5:98:05:6e:f7:9f:70:87:dd:8a:70:84:fd:42:c3:
         2c:00:3e:ad:2f:4a:b4:51:5a:58:c1:d8:36:5c:ce:bc:b1:35:
         79:10:37:62:8a:44:a4:64:3b:85:7e:c2:22:f9:4f:40:c2:d4:
         d3:f7:a4:21:5d:ef:fc:e1:3e:d8:a8:7c:17:6e:de:70:36:82:
         99:21:14:95:d9:8d:c4:bc:8b:b4:93:df:a9:87:ea:80:a1:65:
         36:12:84:2a:02:58:fc:f0:72:ab:0a:82:d7:5a:02:e8:97:fd:
         91:db:e7:f8:b7:ac:88:e6:85:86:75:3a:f1:71:a8:1c:f9:03:
         f0:1b:06:13:79:e4:2a:61:85:cd:12:37:83:c4:f3:bd:c2:17:
         07:1c:06:24:8f:ab:94:b4:59:1b:ea:bd:c2:c2:61:19:71:5f:
         eb:8a:6c:0c:d2:03:dd:b9:fd:ff:5d:bd:c6:e6:68:45:43:cc:
         e9:7b:08:2b:56:33:03:b6:c0:de:90:46:63:67:cd:f8:84:71:
         40:0f:4f:04:83:85:eb:c4:23:50:0d:55:cc:d7:d9:87:c8:1f:
         60:a6:8f:00:23:1a:f9:59:e6:82:8f:7f:05:79:32:5e:d1:5d:
         51:82:31:4d
-----BEGIN CERTIFICATE-----
MIIGJTCCBQ2gAwIBAgIMaFN62/QxpQAkm6/DMA0GCSqGSIb3DQEBCwUAMG4xCzAJ
BgNVBAYTAkJFMRkwFwYDVQQKExBHbG9iYWxTaWduIG52LXNhMUQwQgYDVQQDEztH
bG9iYWxTaWduIEV4dGVuZGVkIFZhbGlkYXRpb24gQ29kZVNpZ25pbmcgQ0EgLSBT
SEEyNTYgLSBHMzAeFw0xNzEwMTEyMzUyMDlaFw0xODEwMDcxMzU3NDVaMIIBVDEY
MBYGA1UEDwwPQnVzaW5lc3MgRW50aXR5MRgwFgYDVQQFEw8zMTYxMDAxMDAwNjA4
OTgxEzARBgsrBgEEAYI3PAIBAxMCUlUxJDAiBgsrBgEEAYI3PAIBAhMTUmVwdWJs
aWMgb2YgS2FyZWxpYTELMAkGA1UEBhMCUlUxHDAaBgNVBAgTE1JlcHVibGljIG9m
IEthcmVsaWExFTATBgNVBAcTDFBldHJvemF2b2RzazEjMCEGA1UECRMaTWljaHVy
aW5za2F5YSBzdHJlZXQgOSwgMTUxKTAnBgNVBAoTIElQIElhcm9zbGF2c2tpaSBB
bnRvbiBBbmRyZWV2aWNoMSkwJwYDVQQDEyBJUCBJYXJvc2xhdnNraWkgQW50b24g
QW5kcmVldmljaDEmMCQGCSqGSIb3DQEJARYXc3VwcG9ydEBzb2Z0LWRldmVsby5j
b20wggEiMA0GCSqGSIb3DQEBAQUAA4IBDwAwggEKAoIBAQCZfqGkNB9gAc/WOKy0
t0Sb4QMJl1F/hHwRHStgX6dRKBxHL4XLVwUTXdWNlQFo3V+Cv9fJUx6N8aPWic3z
se6YXJXnsuiy1Bg6FlhipI8kcYeeuWwDK4O2pxeZQrUlPTJHjcrzP44VXuF9ds9Q
PQlXSWtnBMjv1JbkRF/nLlzQbk87yK7tYLpOEKj+rQivPqN1BkfqIZyOS1MA4A8Y
OttWoHB6TmyOjWj/yxqMXTwV820DP1JzaeoqA5yR1MThhVdGw0p/YH1dlTWfVnDs
Ls9JptujGKfo7QRpGzCHD9gq+ESy9exeisbQoBcwT6x+Kzb3jt8vRYxiH3kUckbs
BxNLAgMBAAGjggHZMIIB1TAOBgNVHQ8BAf8EBAMCB4AwgaAGCCsGAQUFBwEBBIGT
MIGQME4GCCsGAQUFBzAChkJodHRwOi8vc2VjdXJlLmdsb2JhbHNpZ24uY29tL2Nh
Y2VydC9nc2V4dGVuZGNvZGVzaWduc2hhMmczb2NzcC5jcnQwPgYIKwYBBQUHMAGG
Mmh0dHA6Ly9vY3NwMi5nbG9iYWxzaWduLmNvbS9nc2V4dGVuZGNvZGVzaWduc2hh
MmczMFUGA1UdIAROMEwwQQYJKwYBBAGgMgECMDQwMgYIKwYBBQUHAgEWJmh0dHBz
Oi8vd3d3Lmdsb2JhbHNpZ24uY29tL3JlcG9zaXRvcnkvMAcGBWeBDAEDMAkGA1Ud
EwQCMAAwRQYDVR0fBD4wPDA6oDigNoY0aHR0cDovL2NybC5nbG9iYWxzaWduLmNv
bS9nc2V4dGVuZGNvZGVzaWduc2hhMmczLmNybDAiBgNVHREEGzAZgRdzdXBwb3J0
QHNvZnQtZGV2ZWxvLmNvbTATBgNVHSUEDDAKBggrBgEFBQcDAzAdBgNVHQ4EFgQU
U/mC6tPbycKcLqbi6doRgXlaEjkwHwYDVR0jBBgwFoAU3CxYLCpvNS2feZWoSF3E
bT5Tv7kwDQYJKoZIhvcNAQELBQADggEBADCyJ3fwy+jnWnew3ToKF01mJZXbFfWY
BW73n3CH3YpwhP1CwywAPq0vSrRRWljB2DZczryxNXkQN2KKRKRkO4V+wiL5T0DC
1NP3pCFd7/zhPtiofBdu3nA2gpkhFJXZjcS8i7ST36mH6oChZTYShCoCWPzwcqsK
gtdaAuiX/ZHb5/i3rIjmhYZ1OvFxqBz5A/AbBhN55Cphhc0SN4PE873CFwccBiSP
q5S0WRvqvcLCYRlxX+uKbAzSA925/f9dvcbmaEVDzOl7CCtWMwO2wN6QRmNnzfiE
cUAPTwSDhevEI1ANVczX2YfIH2CmjwAjGvlZ5oKPfwV5Ml7RXVGCMU0=
-----END CERTIFICATE-----

