Certificate:
    Data:
        Version: 3 (0x2)
        Serial Number:
            04:00:00:00:00:01:31:89:c6:37:e8
    Signature Algorithm: sha256WithRSAEncryption
        Issuer: OU=GlobalSign Root CA - R3, O=GlobalSign, CN=GlobalSign
        Validity
            Not Before: Aug  2 10:00:00 2011 GMT
            Not After : Aug  2 10:00:00 2019 GMT
        Subject: C=BE, O=GlobalSign nv-sa, CN=GlobalSign CodeSigning CA - SHA256 - G2
        Subject Public Key Info:
            Public Key Algorithm: rsaEncryption
                Public-Key: (2048 bit)
                Modulus:
                    00:a3:ef:d1:9f:29:e9:d8:d3:82:76:3c:62:a0:d2:
                    49:d6:16:1e:f1:cf:f0:d0:ba:48:43:03:2d:a7:1d:
                    f2:01:34:49:a4:10:e9:62:13:f4:13:f4:16:83:b5:
                    d5:57:42:48:86:2b:95:58:87:ea:28:04:74:cb:72:
                    11:0f:61:26:e1:fa:1c:61:15:c7:28:9b:4d:0b:82:
                    0f:26:2b:90:3a:96:ed:a4:d0:6b:29:9c:f5:61:88:
                    e6:a4:57:6f:ee:f4:70:d0:8d:17:de:e6:66:76:5f:
                    74:1e:5e:0c:53:38:5d:90:f4:df:30:2d:1b:13:d1:
                    79:98:54:1a:4b:38:04:f4:07:c4:23:03:d3:92:cb:
                    f7:80:5d:aa:9c:56:06:44:2d:41:4c:48:b4:2d:ec:
                    35:92:9a:c6:95:d7:f5:ce:90:31:e2:76:b3:61:b8:
                    f1:75:57:42:ac:3b:ce:2b:c8:90:49:e8:b7:26:cf:
                    bb:0c:89:cb:d0:c3:a3:6a:a1:c9:d5:e3:9c:53:2b:
                    57:26:fe:56:9a:76:fd:61:46:a2:60:ec:29:46:47:
                    f2:cd:e0:82:62:c6:04:5a:e7:ed:4e:40:5c:48:06:
                    7d:9d:5f:e7:74:c9:9e:84:65:0d:5b:de:dc:d3:24:
                    1c:b4:14:11:eb:ab:bf:c4:1f:a4:ba:99:d0:17:58:
                    35:cd
                Exponent: 65537 (0x10001)
        X509v3 extensions:
            X509v3 Key Usage: critical
                Certificate Sign, CRL Sign
            X509v3 Basic Constraints: critical
                CA:TRUE, pathlen:0
            X509v3 Subject Key Identifier: 
                19:4A:B8:5A:E4:4D:31:A5:14:E5:5E:EC:2F:A3:1C:FA:80:8C:32:6B
            X509v3 Certificate Policies: 
                Policy: X509v3 Any Policy
                  CPS: https://www.globalsign.com/repository/

            X509v3 CRL Distribution Points: 

                Full Name:
                  URI:http://crl.globalsign.net/root-r3.crl

            X509v3 Extended Key Usage: 
                Code Signing
            X509v3 Authority Key Identifier: 
                keyid:8F:F0:4B:7F:A8:2E:45:24:AE:4D:50:FA:63:9A:8B:DE:E2:DD:1B:BC

    Signature Algorithm: sha256WithRSAEncryption
         79:b0:69:34:e2:05:87:f6:fe:d4:60:2c:2f:86:79:34:03:e0:
         b1:07:93:0c:84:5c:f9:e4:dc:6c:cf:6e:b5:ec:0a:5c:ba:0b:
         d0:68:31:2e:3f:64:bd:0f:82:6b:66:77:81:7f:c6:29:a5:17:
         d8:f0:89:4d:83:24:11:f6:6e:fe:9d:e1:48:0a:28:a0:e2:7b:
         24:80:a4:ec:c2:9a:00:d7:b0:6d:6c:cd:88:d5:15:78:cf:13:
         f9:88:a5:73:4d:c1:36:2b:dc:cb:ce:db:7e:7c:d2:8b:ef:2f:
         bd:b3:4f:4d:3a:ad:bb:62:6e:28:93:c4:0c:cb:d9:e6:ca:e0:
         11:02:94:03:b0:bd:3f:94:28:56:90:1e:53:c2:27:d5:c9:3c:
         cd:1a:63:1e:82:59:15:b6:40:ca:a7:81:aa:c3:55:af:33:d1:
         b5:75:e8:09:ea:47:08:48:22:fb:5d:1b:f3:2c:7a:69:7e:c5:
         d7:5a:5e:56:33:3c:ad:57:e8:93:25:42:c3:d2:5e:71:3b:4a:
         1c:54:ed:a9:55:ac:28:05:c7:c4:6c:5d:dc:3c:93:f6:69:3c:
         82:51:ce:1a:15:3d:5e:01:73:ff:40:a2:ea:b4:ae:d3:8e:fa:
         ee:5d:6c:47:c7:41:f5:d4:56:57:f2:18:37:32:d6:d4:cc:4b:
         f6:71:e0:76
-----BEGIN CERTIFICATE-----
MIIEKTCCAxGgAwIBAgILBAAAAAABMYnGN+gwDQYJKoZIhvcNAQELBQAwTDEgMB4G
A1UECxMXR2xvYmFsU2lnbiBSb290IENBIC0gUjMxEzARBgNVBAoTCkdsb2JhbFNp
Z24xEzARBgNVBAMTCkdsb2JhbFNpZ24wHhcNMTEwODAyMTAwMDAwWhcNMTkwODAy
MTAwMDAwWjBaMQswCQYDVQQGEwJCRTEZMBcGA1UEChMQR2xvYmFsU2lnbiBudi1z
YTEwMC4GA1UEAxMnR2xvYmFsU2lnbiBDb2RlU2lnbmluZyBDQSAtIFNIQTI1NiAt
IEcyMIIBIjANBgkqhkiG9w0BAQEFAAOCAQ8AMIIBCgKCAQEAo+/Rnynp2NOCdjxi
oNJJ1hYe8c/w0LpIQwMtpx3yATRJpBDpYhP0E/QWg7XVV0JIhiuVWIfqKAR0y3IR
D2Em4focYRXHKJtNC4IPJiuQOpbtpNBrKZz1YYjmpFdv7vRw0I0X3uZmdl90Hl4M
UzhdkPTfMC0bE9F5mFQaSzgE9AfEIwPTksv3gF2qnFYGRC1BTEi0Lew1kprGldf1
zpAx4nazYbjxdVdCrDvOK8iQSei3Js+7DInL0MOjaqHJ1eOcUytXJv5Wmnb9YUai
YOwpRkfyzeCCYsYEWuftTkBcSAZ9nV/ndMmehGUNW97c0yQctBQR66u/xB+kupnQ
F1g1zQIDAQABo4H9MIH6MA4GA1UdDwEB/wQEAwIBBjASBgNVHRMBAf8ECDAGAQH/
AgEAMB0GA1UdDgQWBBQZSrha5E0xpRTlXuwvoxz6gIwyazBHBgNVHSAEQDA+MDwG
BFUdIAAwNDAyBggrBgEFBQcCARYmaHR0cHM6Ly93d3cuZ2xvYmFsc2lnbi5jb20v
cmVwb3NpdG9yeS8wNgYDVR0fBC8wLTAroCmgJ4YlaHR0cDovL2NybC5nbG9iYWxz
aWduLm5ldC9yb290LXIzLmNybDATBgNVHSUEDDAKBggrBgEFBQcDAzAfBgNVHSME
GDAWgBSP8Et/qC5FJK5NUPpjmove4t0bvDANBgkqhkiG9w0BAQsFAAOCAQEAebBp
NOIFh/b+1GAsL4Z5NAPgsQeTDIRc+eTcbM9utewKXLoL0GgxLj9kvQ+Ca2Z3gX/G
KaUX2PCJTYMkEfZu/p3hSAoooOJ7JICk7MKaANewbWzNiNUVeM8T+Yilc03BNivc
y87bfnzSi+8vvbNPTTqtu2JuKJPEDMvZ5srgEQKUA7C9P5QoVpAeU8In1ck8zRpj
HoJZFbZAyqeBqsNVrzPRtXXoCepHCEgi+10b8yx6aX7F11peVjM8rVfokyVCw9Je
cTtKHFTtqVWsKAXHxGxd3DyT9mk8glHOGhU9XgFz/0Ci6rSu04767l1sR8dB9dRW
V/IYNzLW1MxL9nHgdg==
-----END CERTIFICATE-----

Certificate:
    Data:
        Version: 3 (0x2)
        Serial Number:
            11:21:81:26:29:a9:35:79:a7:a0:8d:bf:b2:fe:87:ff:37:0c
    Signature Algorithm: sha256WithRSAEncryption
        Issuer: C=BE, O=GlobalSign nv-sa, CN=GlobalSign CodeSigning CA - SHA256 - G2
        Validity
            Not Before: Nov 26 14:04:06 2014 GMT
            Not After : Nov 27 14:04:06 2015 GMT
        Subject: C=PL, L=Wroclaw, O=Andrzej Huzar Huzar Software, CN=Andrzej Huzar Huzar Software/emailAddress=huzar@huzar.pl
        Subject Public Key Info:
            Public Key Algorithm: rsaEncryption
                Public-Key: (2048 bit)
                Modulus:
                    00:c4:24:0e:9f:ea:70:3b:e6:b0:75:f4:fc:f6:27:
                    d8:7c:c3:2a:17:fd:21:1f:7b:b8:42:c1:b7:df:70:
                    f9:bb:c9:84:c1:f9:d7:18:ac:6d:8c:7c:5c:3f:96:
                    16:77:27:71:b1:aa:7c:a8:e2:6a:a7:e0:cc:ed:03:
                    fc:b4:a6:2b:c6:ba:26:6d:36:15:c5:4a:c5:b7:d9:
                    42:b9:a2:5c:81:e9:bf:0b:d0:e0:4e:25:d3:f2:3a:
                    0a:28:2f:ec:37:ae:af:26:51:ad:91:f4:b8:6f:a7:
                    06:58:b0:a7:5e:c5:89:34:31:08:31:2a:7e:9b:49:
                    fd:41:c2:00:60:19:c3:00:2e:2a:b7:9f:9e:5e:d6:
                    58:8d:7d:10:a0:72:ee:d2:c3:82:9d:a9:e4:75:60:
                    cf:47:17:a1:a5:b8:f1:01:ba:c1:1c:4e:23:29:e8:
                    bf:19:65:4f:f7:03:e8:70:f4:c0:73:7e:53:e9:e5:
                    7c:29:d1:7e:0f:8d:bd:c2:36:47:bc:26:af:89:d0:
                    13:0a:3b:28:3e:49:d0:a2:76:c3:84:1f:b1:1d:7c:
                    c8:88:fe:2e:1f:e2:30:8c:1c:69:33:f8:46:48:c6:
                    a8:6f:6e:1a:21:e9:df:7d:15:71:2b:3d:32:fa:9a:
                    e3:6f:5f:13:f4:42:5f:cb:99:1f:29:39:f1:f6:04:
                    c5:d9
                Exponent: 65537 (0x10001)
        X509v3 extensions:
            X509v3 Key Usage: critical
                Digital Signature
            X509v3 Certificate Policies: 
                Policy: 1.3.6.1.4.1.4146.1.50
                  CPS: https://www.globalsign.com/repository/

            X509v3 Basic Constraints: 
                CA:FALSE
            X509v3 Extended Key Usage: 
                Code Signing
            X509v3 CRL Distribution Points: 

                Full Name:
                  URI:http://crl.globalsign.com/gs/gscodesignsha2g2.crl

            Authority Information Access: 
                CA Issuers - URI:http://secure.globalsign.com/cacert/gscodesignsha2g2.crt
                OCSP - URI:http://ocsp2.globalsign.com/gscodesignsha2g2

            X509v3 Subject Key Identifier: 
                39:97:31:81:77:48:FD:71:85:0E:15:AF:31:E9:02:5D:15:B4:F3:C3
            X509v3 Authority Key Identifier: 
                keyid:19:4A:B8:5A:E4:4D:31:A5:14:E5:5E:EC:2F:A3:1C:FA:80:8C:32:6B

    Signature Algorithm: sha256WithRSAEncryption
         27:7b:c0:cb:ee:b1:ec:2b:dd:45:d2:2d:1d:fb:01:b0:7c:47:
         90:d8:0a:91:b8:8d:94:f3:cc:f4:f0:5f:7f:51:24:fa:36:50:
         af:d4:3f:a8:f9:33:26:75:cb:99:5f:88:05:61:e5:34:7e:98:
         f9:f0:2b:eb:c4:65:1d:70:17:2a:16:df:18:4a:5c:47:02:06:
         fe:ea:40:66:a5:04:bc:07:b4:ff:c9:ec:12:a5:0a:4a:79:2a:
         35:ce:10:c0:e0:41:0f:08:63:df:8a:14:21:22:e9:cc:0b:f9:
         a9:8e:d9:ea:2d:ff:51:c7:40:97:da:8d:eb:07:59:d5:9c:69:
         3c:39:ba:cc:9f:29:66:0b:3b:2d:d4:ae:5f:c8:31:b1:8b:2b:
         ff:53:0b:ab:19:72:70:fd:0a:df:51:bc:53:61:e5:a2:58:4e:
         22:5f:fb:47:ef:da:30:33:d0:08:99:74:e4:7c:f0:61:01:98:
         a6:c1:1c:cf:8a:f7:fa:4a:e1:18:22:c8:bd:a5:b1:68:09:c1:
         17:a0:1d:d0:bd:a6:c7:b1:0a:fb:a0:ce:c1:b5:8b:4d:7a:f8:
         3d:83:97:0e:95:fc:89:ea:30:35:d2:f3:e0:61:09:db:67:88:
         65:8e:90:89:c1:cf:8d:ec:91:c7:a4:26:36:2c:46:04:c2:09:
         26:2d:ae:82
-----BEGIN CERTIFICATE-----
MIIFDjCCA/agAwIBAgISESGBJimpNXmnoI2/sv6H/zcMMA0GCSqGSIb3DQEBCwUA
MFoxCzAJBgNVBAYTAkJFMRkwFwYDVQQKExBHbG9iYWxTaWduIG52LXNhMTAwLgYD
VQQDEydHbG9iYWxTaWduIENvZGVTaWduaW5nIENBIC0gU0hBMjU2IC0gRzIwHhcN
MTQxMTI2MTQwNDA2WhcNMTUxMTI3MTQwNDA2WjCBjDELMAkGA1UEBhMCUEwxEDAO
BgNVBAcTB1dyb2NsYXcxJTAjBgNVBAoTHEFuZHJ6ZWogSHV6YXIgSHV6YXIgU29m
dHdhcmUxJTAjBgNVBAMTHEFuZHJ6ZWogSHV6YXIgSHV6YXIgU29mdHdhcmUxHTAb
BgkqhkiG9w0BCQEWDmh1emFyQGh1emFyLnBsMIIBIjANBgkqhkiG9w0BAQEFAAOC
AQ8AMIIBCgKCAQEAxCQOn+pwO+awdfT89ifYfMMqF/0hH3u4QsG333D5u8mEwfnX
GKxtjHxcP5YWdydxsap8qOJqp+DM7QP8tKYrxrombTYVxUrFt9lCuaJcgem/C9Dg
TiXT8joKKC/sN66vJlGtkfS4b6cGWLCnXsWJNDEIMSp+m0n9QcIAYBnDAC4qt5+e
XtZYjX0QoHLu0sOCnankdWDPRxehpbjxAbrBHE4jKei/GWVP9wPocPTAc35T6eV8
KdF+D429wjZHvCavidATCjsoPknQonbDhB+xHXzIiP4uH+IwjBxpM/hGSMaob24a
IenffRVxKz0y+prjb18T9EJfy5kfKTnx9gTF2QIDAQABo4IBmTCCAZUwDgYDVR0P
AQH/BAQDAgeAMEwGA1UdIARFMEMwQQYJKwYBBAGgMgEyMDQwMgYIKwYBBQUHAgEW
Jmh0dHBzOi8vd3d3Lmdsb2JhbHNpZ24uY29tL3JlcG9zaXRvcnkvMAkGA1UdEwQC
MAAwEwYDVR0lBAwwCgYIKwYBBQUHAwMwQgYDVR0fBDswOTA3oDWgM4YxaHR0cDov
L2NybC5nbG9iYWxzaWduLmNvbS9ncy9nc2NvZGVzaWduc2hhMmcyLmNybDCBkAYI
KwYBBQUHAQEEgYMwgYAwRAYIKwYBBQUHMAKGOGh0dHA6Ly9zZWN1cmUuZ2xvYmFs
c2lnbi5jb20vY2FjZXJ0L2dzY29kZXNpZ25zaGEyZzIuY3J0MDgGCCsGAQUFBzAB
hixodHRwOi8vb2NzcDIuZ2xvYmFsc2lnbi5jb20vZ3Njb2Rlc2lnbnNoYTJnMjAd
BgNVHQ4EFgQUOZcxgXdI/XGFDhWvMekCXRW088MwHwYDVR0jBBgwFoAUGUq4WuRN
MaUU5V7sL6Mc+oCMMmswDQYJKoZIhvcNAQELBQADggEBACd7wMvusewr3UXSLR37
AbB8R5DYCpG4jZTzzPTwX39RJPo2UK/UP6j5MyZ1y5lfiAVh5TR+mPnwK+vEZR1w
FyoW3xhKXEcCBv7qQGalBLwHtP/J7BKlCkp5KjXOEMDgQQ8IY9+KFCEi6cwL+amO
2eot/1HHQJfajesHWdWcaTw5usyfKWYLOy3Url/IMbGLK/9TC6sZcnD9Ct9RvFNh
5aJYTiJf+0fv2jAz0AiZdOR88GEBmKbBHM+K9/pK4RgiyL2lsWgJwRegHdC9psex
CvugzsG1i016+D2Dlw6V/InqMDXS8+BhCdtniGWOkInBz43skcekJjYsRgTCCSYt
roI=
-----END CERTIFICATE-----

