Certificate:
    Data:
        Version: 3 (0x2)
        Serial Number:
            06:f0:47:88:03:10:55:d3:1d:ef:fe:fc:d0:26:d6:c5
    Signature Algorithm: sha256WithRSAEncryption
        Issuer: C=US, O=DigiCert Inc, OU=www.digicert.com, CN=DigiCert EV Code Signing CA (SHA2)
        Validity
            Not Before: Mar 15 00:00:00 2017 GMT
            Not After : Mar 20 12:00:00 2019 GMT
        Subject: businessCategory=Private Organization/jurisdictionC=US/jurisdictionST=Delaware/serialNumber=2748129/street=345 Park Avenue/postalCode=95110, C=US, ST=California, L=San Jose, O=Adobe Systems Incorporated, OU=Flash Player, CN=Adobe Systems Incorporated
        Subject Public Key Info:
            Public Key Algorithm: rsaEncryption
                Public-Key: (2048 bit)
                Modulus:
                    00:b8:b8:98:4b:b6:a5:61:5f:6c:dc:4d:da:6a:b5:
                    05:31:02:38:08:60:25:4c:c3:fd:ad:ce:ab:e8:89:
                    51:70:dd:3c:aa:b7:c1:32:7f:b4:bb:e1:91:f5:9c:
                    40:5b:38:cf:db:1c:49:2d:d7:bc:85:6e:49:87:5d:
                    94:ee:36:39:81:66:c7:37:9a:64:eb:a9:5e:67:6f:
                    ef:11:e8:49:5c:1a:6b:c3:25:e4:9d:61:e7:fb:88:
                    d9:96:b6:76:0f:ec:8c:1e:7f:bb:1b:62:f0:03:bf:
                    6a:9f:70:b5:85:ca:3e:ca:44:6a:f2:19:5c:7d:e0:
                    10:43:e8:de:30:ae:07:4d:20:20:58:a0:0c:b0:be:
                    25:0f:c1:29:95:0b:33:99:fd:e4:88:31:4f:8d:00:
                    d7:42:5c:ae:6c:10:a8:45:83:a3:93:7e:8b:88:6a:
                    23:0f:2d:c2:4b:b7:98:33:70:f4:84:0a:a7:25:41:
                    ae:f6:cf:81:9f:f8:8f:e6:26:12:2d:32:91:38:59:
                    8f:2a:90:1f:38:5a:1f:7a:41:81:23:3d:2d:73:55:
                    be:5c:93:b2:a3:63:6d:ba:32:c0:b4:dd:0c:e7:d5:
                    b1:13:a3:15:a9:9a:eb:1a:d1:5e:1f:f8:13:66:ea:
                    4c:d3:21:6d:77:37:50:28:29:31:60:66:9c:0b:38:
                    53:bf
                Exponent: 65537 (0x10001)
        X509v3 extensions:
            X509v3 Authority Key Identifier: 
                keyid:8F:E8:7E:F0:6D:32:6A:00:05:23:C7:70:97:6A:3A:90:FF:6B:EA:D4

            X509v3 Subject Key Identifier: 
                3B:79:5F:52:C5:56:98:BF:16:6A:7E:B6:EA:A0:8A:30:15:C7:E6:5A
            X509v3 Subject Alternative Name: 
                othername:<unsupported>
            X509v3 Key Usage: critical
                Digital Signature
            X509v3 Extended Key Usage: 
                Code Signing
            X509v3 CRL Distribution Points: 

                Full Name:
                  URI:http://crl3.digicert.com/EVCodeSigningSHA2-g1.crl

                Full Name:
                  URI:http://crl4.digicert.com/EVCodeSigningSHA2-g1.crl

            X509v3 Certificate Policies: 
                Policy: 2.16.840.1.114412.3.2
                  CPS: https://www.digicert.com/CPS
                Policy: 2.23.140.1.3

            Authority Information Access: 
                OCSP - URI:http://ocsp.digicert.com
                CA Issuers - URI:http://cacerts.digicert.com/DigiCertEVCodeSigningCA-SHA2.crt

            X509v3 Basic Constraints: critical
                CA:FALSE
    Signature Algorithm: sha256WithRSAEncryption
         a1:61:ea:a7:86:fa:94:a8:e3:38:cd:e4:52:b6:f8:54:c5:ab:
         57:65:7f:68:d6:02:70:fe:f3:19:00:48:9b:08:37:62:5e:8b:
         00:8f:30:16:fc:65:a6:61:c4:2d:60:90:a0:1f:1b:f4:2d:98:
         06:43:c7:1b:d4:03:4d:bc:03:8e:fb:00:29:86:5f:fb:1a:bc:
         e1:73:00:05:50:c7:5c:c1:bc:da:0d:20:cf:41:54:ca:1e:fa:
         f4:62:fc:50:60:6f:62:fb:bb:26:d8:4a:35:84:32:06:54:fe:
         68:0e:f6:5a:23:f7:a2:16:28:49:61:b1:cc:ca:ce:c3:73:93:
         1a:bf:1d:19:d3:89:90:85:27:fb:89:a2:1b:04:96:90:6e:b3:
         3e:1c:15:dc:f0:64:37:84:ec:04:8c:0b:df:e2:71:6c:71:f9:
         8d:6e:6d:82:7e:83:a3:35:91:e0:fa:9c:bb:ca:cd:1a:a1:d1:
         98:2a:b1:87:a7:80:40:1e:f7:d1:56:b8:9c:86:b9:c6:7d:f9:
         78:03:b7:79:fe:68:98:98:86:ee:5a:82:80:98:86:80:3f:bc:
         71:77:f4:33:1a:7e:3b:97:c3:47:78:7f:83:ec:b3:e9:37:1c:
         7c:38:9d:3f:23:f3:46:1b:d3:59:aa:bf:3d:8e:e1:c8:4d:96:
         aa:1b:82:6e
-----BEGIN CERTIFICATE-----
MIIGDDCCBPSgAwIBAgIQBvBHiAMQVdMd7/780CbWxTANBgkqhkiG9w0BAQsFADBs
MQswCQYDVQQGEwJVUzEVMBMGA1UEChMMRGlnaUNlcnQgSW5jMRkwFwYDVQQLExB3
d3cuZGlnaWNlcnQuY29tMSswKQYDVQQDEyJEaWdpQ2VydCBFViBDb2RlIFNpZ25p
bmcgQ0EgKFNIQTIpMB4XDTE3MDMxNTAwMDAwMFoXDTE5MDMyMDEyMDAwMFowggEh
MR0wGwYDVQQPDBRQcml2YXRlIE9yZ2FuaXphdGlvbjETMBEGCysGAQQBgjc8AgED
EwJVUzEZMBcGCysGAQQBgjc8AgECEwhEZWxhd2FyZTEQMA4GA1UEBRMHMjc0ODEy
OTEYMBYGA1UECRMPMzQ1IFBhcmsgQXZlbnVlMQ4wDAYDVQQREwU5NTExMDELMAkG
A1UEBhMCVVMxEzARBgNVBAgTCkNhbGlmb3JuaWExETAPBgNVBAcTCFNhbiBKb3Nl
MSMwIQYDVQQKExpBZG9iZSBTeXN0ZW1zIEluY29ycG9yYXRlZDEVMBMGA1UECxMM
Rmxhc2ggUGxheWVyMSMwIQYDVQQDExpBZG9iZSBTeXN0ZW1zIEluY29ycG9yYXRl
ZDCCASIwDQYJKoZIhvcNAQEBBQADggEPADCCAQoCggEBALi4mEu2pWFfbNxN2mq1
BTECOAhgJUzD/a3Oq+iJUXDdPKq3wTJ/tLvhkfWcQFs4z9scSS3XvIVuSYddlO42
OYFmxzeaZOupXmdv7xHoSVwaa8Ml5J1h5/uI2Za2dg/sjB5/uxti8AO/ap9wtYXK
PspEavIZXH3gEEPo3jCuB00gIFigDLC+JQ/BKZULM5n95IgxT40A10JcrmwQqEWD
o5N+i4hqIw8twku3mDNw9IQKpyVBrvbPgZ/4j+YmEi0ykThZjyqQHzhaH3pBgSM9
LXNVvlyTsqNjbboywLTdDOfVsROjFama6xrRXh/4E2bqTNMhbXc3UCgpMWBmnAs4
U78CAwEAAaOCAfEwggHtMB8GA1UdIwQYMBaAFI/ofvBtMmoABSPHcJdqOpD/a+rU
MB0GA1UdDgQWBBQ7eV9SxVaYvxZqfrbqoIowFcfmWjAuBgNVHREEJzAloCMGCCsG
AQUFBwgDoBcwFQwTVVMtREVMQVdBUkUtMjc0ODEyOTAOBgNVHQ8BAf8EBAMCB4Aw
EwYDVR0lBAwwCgYIKwYBBQUHAwMwewYDVR0fBHQwcjA3oDWgM4YxaHR0cDovL2Ny
bDMuZGlnaWNlcnQuY29tL0VWQ29kZVNpZ25pbmdTSEEyLWcxLmNybDA3oDWgM4Yx
aHR0cDovL2NybDQuZGlnaWNlcnQuY29tL0VWQ29kZVNpZ25pbmdTSEEyLWcxLmNy
bDBLBgNVHSAERDBCMDcGCWCGSAGG/WwDAjAqMCgGCCsGAQUFBwIBFhxodHRwczov
L3d3dy5kaWdpY2VydC5jb20vQ1BTMAcGBWeBDAEDMH4GCCsGAQUFBwEBBHIwcDAk
BggrBgEFBQcwAYYYaHR0cDovL29jc3AuZGlnaWNlcnQuY29tMEgGCCsGAQUFBzAC
hjxodHRwOi8vY2FjZXJ0cy5kaWdpY2VydC5jb20vRGlnaUNlcnRFVkNvZGVTaWdu
aW5nQ0EtU0hBMi5jcnQwDAYDVR0TAQH/BAIwADANBgkqhkiG9w0BAQsFAAOCAQEA
oWHqp4b6lKjjOM3kUrb4VMWrV2V/aNYCcP7zGQBImwg3Yl6LAI8wFvxlpmHELWCQ
oB8b9C2YBkPHG9QDTbwDjvsAKYZf+xq84XMABVDHXMG82g0gz0FUyh769GL8UGBv
Yvu7JthKNYQyBlT+aA72WiP3ohYoSWGxzMrOw3OTGr8dGdOJkIUn+4miGwSWkG6z
PhwV3PBkN4TsBIwL3+JxbHH5jW5tgn6DozWR4Pqcu8rNGqHRmCqxh6eAQB730Va4
nIa5xn35eAO3ef5omJiG7lqCgJiGgD+8cXf0Mxp+O5fDR3h/g+yz6TccfDidPyPz
RhvTWaq/PY7hyE2WqhuCbg==
-----END CERTIFICATE-----

Certificate:
    Data:
        Version: 3 (0x2)
        Serial Number:
            03:f1:b4:e1:5f:3a:82:f1:14:96:78:b3:d7:d8:47:5c
    Signature Algorithm: sha256WithRSAEncryption
        Issuer: C=US, O=DigiCert Inc, OU=www.digicert.com, CN=DigiCert High Assurance EV Root CA
        Validity
            Not Before: Apr 18 12:00:00 2012 GMT
            Not After : Apr 18 12:00:00 2027 GMT
        Subject: C=US, O=DigiCert Inc, OU=www.digicert.com, CN=DigiCert EV Code Signing CA (SHA2)
        Subject Public Key Info:
            Public Key Algorithm: rsaEncryption
                Public-Key: (2048 bit)
                Modulus:
                    00:a7:53:fa:0f:b2:b5:13:f1:64:cf:84:80:fc:ae:
                    80:35:d1:b6:d7:c7:a3:2c:ac:1a:2c:ac:f1:84:ac:
                    3a:35:12:3a:92:91:ba:57:e4:c4:c9:f3:2f:a8:48:
                    3c:b7:d6:6e:dc:97:22:ba:51:79:61:af:43:2f:0d:
                    b7:9b:b4:49:31:ae:44:58:3e:a4:a1:96:a7:87:4f:
                    23:7e:c3:6c:65:24:90:55:3e:a1:ca:23:7c:c5:42:
                    e9:c4:7a:62:45:9b:7d:de:63:74:cb:9e:63:25:f8:
                    84:9a:9a:ad:45:4f:ae:7d:1f:c8:13:cb:75:9b:c9:
                    e1:e1:8a:f8:0b:0c:98:f4:ca:3e:d0:45:aa:7a:1e:
                    a5:58:93:36:34:be:2b:2e:2b:31:58:66:b4:32:10:
                    9f:9d:f0:52:a1:ef:e8:3e:d3:76:f2:40:5a:dc:fa:
                    6a:3d:1b:4b:ad:76:b0:8c:5c:ee:36:ba:83:ea:30:
                    a8:4c:de:f1:0b:2a:58:41:88:ae:00:89:ab:03:d1:
                    16:82:20:22:76:eb:5e:54:38:12:62:e1:d2:70:24:
                    db:ed:1f:70:d2:64:09:80:2d:e2:b6:9d:ce:1f:f2:
                    bb:21:f3:6c:db:d8:b3:19:7b:8a:50:9f:ef:ec:36:
                    0a:5c:9a:b7:4a:d3:08:a0:39:79:fd:dd:bf:3d:3a:
                    09:25
                Exponent: 65537 (0x10001)
        X509v3 extensions:
            X509v3 Basic Constraints: critical
                CA:TRUE, pathlen:0
            X509v3 Key Usage: critical
                Digital Signature, Certificate Sign, CRL Sign
            X509v3 Extended Key Usage: 
                Code Signing
            Authority Information Access: 
                OCSP - URI:http://ocsp.digicert.com
                CA Issuers - URI:http://cacerts.digicert.com/DigiCertHighAssuranceEVRootCA.crt

            X509v3 CRL Distribution Points: 

                Full Name:
                  URI:http://crl3.digicert.com/DigiCertHighAssuranceEVRootCA.crl

                Full Name:
                  URI:http://crl4.digicert.com/DigiCertHighAssuranceEVRootCA.crl

            X509v3 Certificate Policies: 
                Policy: 2.16.840.1.114412.3.2
                  CPS: http://www.digicert.com/ssl-cps-repository.htm
                  User Notice:
                    Explicit Text: 

            X509v3 Subject Key Identifier: 
                8F:E8:7E:F0:6D:32:6A:00:05:23:C7:70:97:6A:3A:90:FF:6B:EA:D4
            X509v3 Authority Key Identifier: 
                keyid:B1:3E:C3:69:03:F8:BF:47:01:D4:98:26:1A:08:02:EF:63:64:2B:C3

    Signature Algorithm: sha256WithRSAEncryption
         19:33:4a:0c:81:33:37:db:ad:36:c9:e4:c9:3a:bb:b5:1b:2e:
         7a:a2:e2:f4:43:42:17:9e:bf:4e:a1:4d:e1:b1:db:e9:81:dd:
         9f:01:f2:e4:88:d5:e9:fe:09:fd:21:c1:ec:5d:80:d2:f0:d6:
         c1:43:c2:fe:77:2b:db:f9:d7:91:33:ce:6c:d5:b2:19:3b:e6:
         2e:d6:c9:93:4f:88:40:8e:cd:e1:f5:7e:f1:0f:c6:59:56:72:
         e8:eb:6a:41:bd:1c:d5:46:d5:7c:49:ca:66:38:15:c1:bf:e0:
         91:70:77:87:dc:c9:8d:31:c9:0c:29:a2:33:ed:8d:e2:87:cd:
         89:8d:3f:1b:ff:d5:e0:1a:97:8b:7c:da:6d:fb:a8:c6:b2:3a:
         66:6b:7b:01:b3:cd:d8:a6:34:ec:12:01:ab:95:58:a5:c4:53:
         57:a8:60:e6:e7:02:12:a0:b9:23:64:a2:4d:bb:7c:81:25:64:
         21:be:cf:ee:42:18:43:97:bb:a5:37:06:af:4d:ff:26:a5:4d:
         61:4b:ec:46:41:b8:65:ce:b8:79:9e:08:96:0b:81:8c:8a:3b:
         8f:c7:99:8c:a3:2a:6e:98:6d:5e:61:c6:96:b7:8a:b9:61:2d:
         93:b8:eb:0e:04:43:d7:f5:fe:a6:f0:62:d4:99:6a:a5:c1:c1:
         f0:64:94:80
-----BEGIN CERTIFICATE-----
MIIGvDCCBaSgAwIBAgIQA/G04V86gvEUlniz19hHXDANBgkqhkiG9w0BAQsFADBs
MQswCQYDVQQGEwJVUzEVMBMGA1UEChMMRGlnaUNlcnQgSW5jMRkwFwYDVQQLExB3
d3cuZGlnaWNlcnQuY29tMSswKQYDVQQDEyJEaWdpQ2VydCBIaWdoIEFzc3VyYW5j
ZSBFViBSb290IENBMB4XDTEyMDQxODEyMDAwMFoXDTI3MDQxODEyMDAwMFowbDEL
MAkGA1UEBhMCVVMxFTATBgNVBAoTDERpZ2lDZXJ0IEluYzEZMBcGA1UECxMQd3d3
LmRpZ2ljZXJ0LmNvbTErMCkGA1UEAxMiRGlnaUNlcnQgRVYgQ29kZSBTaWduaW5n
IENBIChTSEEyKTCCASIwDQYJKoZIhvcNAQEBBQADggEPADCCAQoCggEBAKdT+g+y
tRPxZM+EgPyugDXRttfHoyysGiys8YSsOjUSOpKRulfkxMnzL6hIPLfWbtyXIrpR
eWGvQy8Nt5u0STGuRFg+pKGWp4dPI37DbGUkkFU+ocojfMVC6cR6YkWbfd5jdMue
YyX4hJqarUVPrn0fyBPLdZvJ4eGK+AsMmPTKPtBFqnoepViTNjS+Ky4rMVhmtDIQ
n53wUqHv6D7TdvJAWtz6aj0bS612sIxc7ja6g+owqEze8QsqWEGIrgCJqwPRFoIg
InbrXlQ4EmLh0nAk2+0fcNJkCYAt4radzh/yuyHzbNvYsxl7ilCf7+w2Clyat0rT
CKA5ef3dvz06CSUCAwEAAaOCA1gwggNUMBIGA1UdEwEB/wQIMAYBAf8CAQAwDgYD
VR0PAQH/BAQDAgGGMBMGA1UdJQQMMAoGCCsGAQUFBwMDMH8GCCsGAQUFBwEBBHMw
cTAkBggrBgEFBQcwAYYYaHR0cDovL29jc3AuZGlnaWNlcnQuY29tMEkGCCsGAQUF
BzAChj1odHRwOi8vY2FjZXJ0cy5kaWdpY2VydC5jb20vRGlnaUNlcnRIaWdoQXNz
dXJhbmNlRVZSb290Q0EuY3J0MIGPBgNVHR8EgYcwgYQwQKA+oDyGOmh0dHA6Ly9j
cmwzLmRpZ2ljZXJ0LmNvbS9EaWdpQ2VydEhpZ2hBc3N1cmFuY2VFVlJvb3RDQS5j
cmwwQKA+oDyGOmh0dHA6Ly9jcmw0LmRpZ2ljZXJ0LmNvbS9EaWdpQ2VydEhpZ2hB
c3N1cmFuY2VFVlJvb3RDQS5jcmwwggHEBgNVHSAEggG7MIIBtzCCAbMGCWCGSAGG
/WwDAjCCAaQwOgYIKwYBBQUHAgEWLmh0dHA6Ly93d3cuZGlnaWNlcnQuY29tL3Nz
bC1jcHMtcmVwb3NpdG9yeS5odG0wggFkBggrBgEFBQcCAjCCAVYeggFSAEEAbgB5
ACAAdQBzAGUAIABvAGYAIAB0AGgAaQBzACAAQwBlAHIAdABpAGYAaQBjAGEAdABl
ACAAYwBvAG4AcwB0AGkAdAB1AHQAZQBzACAAYQBjAGMAZQBwAHQAYQBuAGMAZQAg
AG8AZgAgAHQAaABlACAARABpAGcAaQBDAGUAcgB0ACAAQwBQAC8AQwBQAFMAIABh
AG4AZAAgAHQAaABlACAAUgBlAGwAeQBpAG4AZwAgAFAAYQByAHQAeQAgAEEAZwBy
AGUAZQBtAGUAbgB0ACAAdwBoAGkAYwBoACAAbABpAG0AaQB0ACAAbABpAGEAYgBp
AGwAaQB0AHkAIABhAG4AZAAgAGEAcgBlACAAaQBuAGMAbwByAHAAbwByAGEAdABl
AGQAIABoAGUAcgBlAGkAbgAgAGIAeQAgAHIAZQBmAGUAcgBlAG4AYwBlAC4wHQYD
VR0OBBYEFI/ofvBtMmoABSPHcJdqOpD/a+rUMB8GA1UdIwQYMBaAFLE+w2kD+L9H
AdSYJhoIAu9jZCvDMA0GCSqGSIb3DQEBCwUAA4IBAQAZM0oMgTM32602yeTJOru1
Gy56ouL0Q0IXnr9OoU3hsdvpgd2fAfLkiNXp/gn9IcHsXYDS8NbBQ8L+dyvb+deR
M85s1bIZO+Yu1smTT4hAjs3h9X7xD8ZZVnLo62pBvRzVRtV8ScpmOBXBv+CRcHeH
3MmNMckMKaIz7Y3ih82JjT8b/9XgGpeLfNpt+6jGsjpma3sBs83YpjTsEgGrlVil
xFNXqGDm5wISoLkjZKJNu3yBJWQhvs/uQhhDl7ulNwavTf8mpU1hS+xGQbhlzrh5
ngiWC4GMijuPx5mMoypumG1eYcaWt4q5YS2TuOsOBEPX9f6m8GLUmWqlwcHwZJSA
-----END CERTIFICATE-----

