Certificate:
    Data:
        Version: 3 (0x2)
        Serial Number:
            38:25:d7:fa:f8:61:af:9e:f4:90:e7:26:b5:d6:5a:d5
    Signature Algorithm: sha1WithRSAEncryption
        Issuer: C=US, O=VeriSign, Inc., CN=VeriSign Time Stamping Services CA
        Validity
            Not Before: Jun 15 00:00:00 2007 GMT
            Not After : Jun 14 23:59:59 2012 GMT
        Subject: C=US, O=VeriSign, Inc., CN=VeriSign Time Stamping Services Signer - G2
        Subject Public Key Info:
            Public Key Algorithm: rsaEncryption
                Public-Key: (1024 bit)
                Modulus:
                    00:c4:b5:f2:52:15:bc:88:86:60:29:16:4a:5b:2f:
                    4b:91:6b:87:91:f3:35:54:58:35:ea:d1:36:5e:62:
                    4d:52:51:34:71:c2:7b:66:1d:89:c8:dd:2a:c4:6a:
                    0a:f6:37:d9:98:74:91:f6:92:ae:b0:b5:76:96:f1:
                    a9:4a:63:45:47:2e:6b:0b:92:4e:4b:2b:8c:ee:58:
                    4a:8b:d4:07:e4:1a:2c:f8:82:aa:58:d9:cd:42:f3:
                    2d:c0:75:de:8d:ab:c7:8e:1d:9a:6c:4c:08:95:1e:
                    de:db:ef:67:e1:72:c2:49:c2:9e:60:3c:e1:e2:be:
                    16:a3:63:78:69:14:7b:ad:2d
                Exponent: 65537 (0x10001)
        X509v3 extensions:
            Authority Information Access: 
                OCSP - URI:http://ocsp.verisign.com

            X509v3 Basic Constraints: critical
                CA:FALSE
            X509v3 CRL Distribution Points: 

                Full Name:
                  URI:http://crl.verisign.com/tss-ca.crl

            X509v3 Extended Key Usage: critical
                Time Stamping
            X509v3 Key Usage: critical
                Digital Signature, Non Repudiation
            X509v3 Subject Alternative Name: 
                DirName:/CN=TSA1-2
    Signature Algorithm: sha1WithRSAEncryption
         50:c5:4b:c8:24:80:df:e4:0d:24:c2:de:1a:b1:a1:02:a1:a6:
         82:2d:0c:83:15:81:37:0a:82:0e:2c:b0:5a:17:61:b5:d8:05:
         fe:88:db:f1:91:91:b3:56:1a:40:a6:eb:92:be:38:39:b0:75:
         36:74:3a:98:4f:e4:37:ba:99:89:ca:95:42:1d:b0:b9:c7:a0:
         8d:57:e0:fa:d5:64:04:42:35:4e:01:d1:33:a2:17:c8:4d:aa:
         27:c7:f2:e1:86:4c:02:38:4d:83:78:c6:fc:53:e0:eb:e0:06:
         87:dd:a4:96:9e:5e:0c:98:e2:a5:be:bf:82:85:c3:60:e1:df:
         ad:28:d8:c7:a5:4b:64:da:c7:1b:5b:bd:ac:39:08:d5:38:22:
         a1:33:8b:2f:8a:9a:eb:bc:07:21:3f:44:41:09:07:b5:65:1c:
         24:bc:48:d3:44:80:eb:a1:cf:c9:02:b4:14:cf:54:c7:16:a3:
         80:5c:f9:79:3e:5d:72:7d:88:17:9e:2c:43:a2:ca:53:ce:7d:
         3d:f6:2a:3a:b8:4f:94:00:a5:6d:0a:83:5d:f9:5e:53:f4:18:
         b3:57:0f:70:c3:fb:f5:ad:95:a0:0e:17:de:c4:16:80:60:c9:
         0f:2b:6e:86:04:f1:eb:f4:78:27:d1:05:c5:ee:34:5b:5e:b9:
         49:32:f2:33
-----BEGIN CERTIFICATE-----
MIIDejCCAmKgAwIBAgIQOCXX+vhhr570kOcmtdZa1TANBgkqhkiG9w0BAQUFADBT
MQswCQYDVQQGEwJVUzEXMBUGA1UEChMOVmVyaVNpZ24sIEluYy4xKzApBgNVBAMT
IlZlcmlTaWduIFRpbWUgU3RhbXBpbmcgU2VydmljZXMgQ0EwHhcNMDcwNjE1MDAw
MDAwWhcNMTIwNjE0MjM1OTU5WjBcMQswCQYDVQQGEwJVUzEXMBUGA1UEChMOVmVy
aVNpZ24sIEluYy4xNDAyBgNVBAMTK1ZlcmlTaWduIFRpbWUgU3RhbXBpbmcgU2Vy
dmljZXMgU2lnbmVyIC0gRzIwgZ8wDQYJKoZIhvcNAQEBBQADgY0AMIGJAoGBAMS1
8lIVvIiGYCkWSlsvS5Frh5HzNVRYNerRNl5iTVJRNHHCe2YdicjdKsRqCvY32Zh0
kfaSrrC1dpbxqUpjRUcuawuSTksrjO5YSovUB+QaLPiCqljZzULzLcB13o2rx44d
mmxMCJUe3tvvZ+FywknCnmA84eK+FqNjeGkUe60tAgMBAAGjgcQwgcEwNAYIKwYB
BQUHAQEEKDAmMCQGCCsGAQUFBzABhhhodHRwOi8vb2NzcC52ZXJpc2lnbi5jb20w
DAYDVR0TAQH/BAIwADAzBgNVHR8ELDAqMCigJqAkhiJodHRwOi8vY3JsLnZlcmlz
aWduLmNvbS90c3MtY2EuY3JsMBYGA1UdJQEB/wQMMAoGCCsGAQUFBwMIMA4GA1Ud
DwEB/wQEAwIGwDAeBgNVHREEFzAVpBMwETEPMA0GA1UEAxMGVFNBMS0yMA0GCSqG
SIb3DQEBBQUAA4IBAQBQxUvIJIDf5A0kwt4asaECoaaCLQyDFYE3CoIOLLBaF2G1
2AX+iNvxkZGzVhpApuuSvjg5sHU2dDqYT+Q3upmJypVCHbC5x6CNV+D61WQEQjVO
AdEzohfITaonx/LhhkwCOE2DeMb8U+Dr4AaH3aSWnl4MmOKlvr+ChcNg4d+tKNjH
pUtk2scbW72sOQjVOCKhM4sviprrvAchP0RBCQe1ZRwkvEjTRIDroc/JArQUz1TH
FqOAXPl5Pl1yfYgXnixDospTzn099io6uE+UAKVtCoNd+V5T9BizVw9ww/v1rZWg
DhfexBaAYMkPK26GBPHr9Hgn0QXF7jRbXrlJMvIz
-----END CERTIFICATE-----

Certificate:
    Data:
        Version: 3 (0x2)
        Serial Number:
            47:bf:19:95:df:8d:52:46:43:f7:db:6d:48:0d:31:a4
    Signature Algorithm: sha1WithRSAEncryption
        Issuer: C=ZA, ST=Western Cape, L=Durbanville, O=Thawte, OU=Thawte Certification, CN=Thawte Timestamping CA
        Validity
            Not Before: Dec  4 00:00:00 2003 GMT
            Not After : Dec  3 23:59:59 2013 GMT
        Subject: C=US, O=VeriSign, Inc., CN=VeriSign Time Stamping Services CA
        Subject Public Key Info:
            Public Key Algorithm: rsaEncryption
                Public-Key: (2048 bit)
                Modulus:
                    00:a9:ca:b2:a4:cc:cd:20:af:0a:7d:89:ac:87:75:
                    f0:b4:4e:f1:df:c1:0f:bf:67:61:bd:a3:64:1c:da:
                    bb:f9:ca:33:ab:84:30:89:58:7e:8c:db:6b:dd:36:
                    9e:0f:bf:d1:ec:78:f2:77:a6:7e:6f:3c:bf:93:af:
                    0d:ba:68:f4:6c:94:ca:bd:52:2d:ab:48:3d:f5:b6:
                    d5:5d:5f:1b:02:9f:fa:2f:6b:1e:a4:f7:a3:9a:a6:
                    1a:c8:02:e1:7f:4c:52:e3:0e:60:ec:40:1c:7e:b9:
                    0d:de:3f:c7:b4:df:87:bd:5f:7a:6a:31:2e:03:99:
                    81:13:a8:47:20:ce:31:73:0d:57:2d:cd:78:34:33:
                    95:12:99:12:b9:de:68:2f:aa:e6:e3:c2:8a:8c:2a:
                    c3:8b:21:87:66:bd:83:58:57:6f:75:bf:3c:aa:26:
                    87:5d:ca:10:15:3c:9f:84:ea:54:c1:0a:6e:c4:fe:
                    c5:4a:dd:b9:07:11:97:22:7c:db:3e:27:d1:1e:78:
                    ec:9f:31:c9:f1:e6:22:19:db:c4:b3:47:43:9a:1a:
                    5f:a0:1e:90:e4:5e:f5:ee:7c:f1:7d:ab:62:01:8f:
                    f5:4d:0b:de:d0:22:56:a8:95:cd:ae:88:76:ae:ee:
                    ba:0d:f3:e4:4d:d9:a0:fb:68:a0:ae:14:3b:b3:87:
                    c1:bb
                Exponent: 65537 (0x10001)
        X509v3 extensions:
            Authority Information Access: 
                OCSP - URI:http://ocsp.verisign.com

            X509v3 Basic Constraints: critical
                CA:TRUE, pathlen:0
            X509v3 CRL Distribution Points: 

                Full Name:
                  URI:http://crl.verisign.com/ThawteTimestampingCA.crl

            X509v3 Extended Key Usage: 
                Time Stamping
            X509v3 Key Usage: critical
                Certificate Sign, CRL Sign
            X509v3 Subject Alternative Name: 
                DirName:/CN=TSA2048-1-53
    Signature Algorithm: sha1WithRSAEncryption
         4a:6b:f9:ea:58:c2:44:1c:31:89:79:99:2b:96:bf:82:ac:01:
         d6:1c:4c:cd:b0:8a:58:6e:df:08:29:a3:5e:c8:ca:93:13:e7:
         04:52:0d:ef:47:27:2f:00:38:b0:e4:c9:93:4e:9a:d4:22:62:
         15:f7:3f:37:21:4f:70:31:80:f1:8b:38:87:b3:e8:e8:97:00:
         fe:cf:55:96:4e:24:d2:a9:27:4e:7a:ae:b7:61:41:f3:2a:ce:
         e7:c9:d9:5e:dd:bb:2b:85:3e:b5:9d:b5:d9:e1:57:ff:be:b4:
         c5:7e:f5:cf:0c:9e:f0:97:fe:2b:d3:3b:52:1b:1b:38:27:f7:
         3f:4a
-----BEGIN CERTIFICATE-----
MIIDxDCCAy2gAwIBAgIQR78Zld+NUkZD99ttSA0xpDANBgkqhkiG9w0BAQUFADCB
izELMAkGA1UEBhMCWkExFTATBgNVBAgTDFdlc3Rlcm4gQ2FwZTEUMBIGA1UEBxML
RHVyYmFudmlsbGUxDzANBgNVBAoTBlRoYXd0ZTEdMBsGA1UECxMUVGhhd3RlIENl
cnRpZmljYXRpb24xHzAdBgNVBAMTFlRoYXd0ZSBUaW1lc3RhbXBpbmcgQ0EwHhcN
MDMxMjA0MDAwMDAwWhcNMTMxMjAzMjM1OTU5WjBTMQswCQYDVQQGEwJVUzEXMBUG
A1UEChMOVmVyaVNpZ24sIEluYy4xKzApBgNVBAMTIlZlcmlTaWduIFRpbWUgU3Rh
bXBpbmcgU2VydmljZXMgQ0EwggEiMA0GCSqGSIb3DQEBAQUAA4IBDwAwggEKAoIB
AQCpyrKkzM0grwp9iayHdfC0TvHfwQ+/Z2G9o2Qc2rv5yjOrhDCJWH6M22vdNp4P
v9HsePJ3pn5vPL+Trw26aPRslMq9Ui2rSD31ttVdXxsCn/ovax6k96OaphrIAuF/
TFLjDmDsQBx+uQ3eP8e034e9X3pqMS4DmYETqEcgzjFzDVctzXg0M5USmRK53mgv
qubjwoqMKsOLIYdmvYNYV291vzyqJoddyhAVPJ+E6lTBCm7E/sVK3bkHEZcifNs+
J9EeeOyfMcnx5iIZ28SzR0OaGl+gHpDkXvXufPF9q2IBj/VNC97QIlaolc2uiHau
7roN8+RN2aD7aKCuFDuzh8G7AgMBAAGjgdswgdgwNAYIKwYBBQUHAQEEKDAmMCQG
CCsGAQUFBzABhhhodHRwOi8vb2NzcC52ZXJpc2lnbi5jb20wEgYDVR0TAQH/BAgw
BgEB/wIBADBBBgNVHR8EOjA4MDagNKAyhjBodHRwOi8vY3JsLnZlcmlzaWduLmNv
bS9UaGF3dGVUaW1lc3RhbXBpbmdDQS5jcmwwEwYDVR0lBAwwCgYIKwYBBQUHAwgw
DgYDVR0PAQH/BAQDAgEGMCQGA1UdEQQdMBukGTAXMRUwEwYDVQQDEwxUU0EyMDQ4
LTEtNTMwDQYJKoZIhvcNAQEFBQADgYEASmv56ljCRBwxiXmZK5a/gqwB1hxMzbCK
WG7fCCmjXsjKkxPnBFIN70cnLwA4sOTJk06a1CJiFfc/NyFPcDGA8Ys4h7Po6JcA
/s9Vlk4k0qknTnqut2FB8yrO58nZXt27K4U+tZ212eFX/760xX71zwye8Jf+K9M7
UhsbOCf3P0o=
-----END CERTIFICATE-----

Certificate:
    Data:
        Version: 3 (0x2)
        Serial Number:
            44:be:0c:8b:50:00:24:b4:11:d3:36:2d:e0:b3:5f:1b
    Signature Algorithm: sha1WithRSAEncryption
        Issuer: C=US, ST=UT, L=Salt Lake City, O=The USERTRUST Network, OU=http://www.usertrust.com, CN=UTN-USERFirst-Object
        Validity
            Not Before: Jul  9 18:31:20 1999 GMT
            Not After : Jul  9 18:40:36 2019 GMT
        Subject: C=US, ST=UT, L=Salt Lake City, O=The USERTRUST Network, OU=http://www.usertrust.com, CN=UTN-USERFirst-Object
        Subject Public Key Info:
            Public Key Algorithm: rsaEncryption
                Public-Key: (2048 bit)
                Modulus:
                    00:ce:aa:81:3f:a3:a3:61:78:aa:31:00:55:95:11:
                    9e:27:0f:1f:1c:df:3a:9b:82:68:30:c0:4a:61:1d:
                    f1:2f:0e:fa:be:79:f7:a5:23:ef:55:51:96:84:cd:
                    db:e3:b9:6e:3e:31:d8:0a:20:67:c7:f4:d9:bf:94:
                    eb:47:04:3e:02:ce:2a:a2:5d:87:04:09:f6:30:9d:
                    18:8a:97:b2:aa:1c:fc:41:d2:a1:36:cb:fb:3d:91:
                    ba:e7:d9:70:35:fa:e4:e7:90:c3:9b:a3:9b:d3:3c:
                    f5:12:99:77:b1:b7:09:e0:68:e6:1c:b8:f3:94:63:
                    88:6a:6a:fe:0b:76:c9:be:f4:22:e4:67:b9:ab:1a:
                    5e:77:c1:85:07:dd:0d:6c:bf:ee:06:c7:77:6a:41:
                    9e:a7:0f:d7:fb:ee:94:17:b7:fc:85:be:a4:ab:c4:
                    1c:31:dd:d7:b6:d1:e4:f0:ef:df:16:8f:b2:52:93:
                    d7:a1:d4:89:a1:07:2e:bf:e1:01:12:42:1e:1a:e1:
                    d8:95:34:db:64:79:28:ff:ba:2e:11:c2:e5:e8:5b:
                    92:48:fb:47:0b:c2:6c:da:ad:32:83:41:f3:a5:e5:
                    41:70:fd:65:90:6d:fa:fa:51:c4:f9:bd:96:2b:19:
                    04:2c:d3:6d:a7:dc:f0:7f:6f:83:65:e2:6a:ab:87:
                    86:75
                Exponent: 65537 (0x10001)
        X509v3 extensions:
            X509v3 Key Usage: 
                Digital Signature, Non Repudiation, Certificate Sign, CRL Sign
            X509v3 Basic Constraints: critical
                CA:TRUE
            X509v3 Subject Key Identifier: 
                DA:ED:64:74:14:9C:14:3C:AB:DD:99:A9:BD:5B:28:4D:8B:3C:C9:D8
            X509v3 CRL Distribution Points: 

                Full Name:
                  URI:http://crl.usertrust.com/UTN-USERFirst-Object.crl

            X509v3 Extended Key Usage: 
                Code Signing, Time Stamping, Microsoft Encrypted File System
    Signature Algorithm: sha1WithRSAEncryption
         08:1f:52:b1:37:44:78:db:fd:ce:b9:da:95:96:98:aa:55:64:
         80:b5:5a:40:dd:21:a5:c5:c1:f3:5f:2c:4c:c8:47:5a:69:ea:
         e8:f0:35:35:f4:d0:25:f3:c8:a6:a4:87:4a:bd:1b:b1:73:08:
         bd:d4:c3:ca:b6:35:bb:59:86:77:31:cd:a7:80:14:ae:13:ef:
         fc:b1:48:f9:6b:25:25:2d:51:b6:2c:6d:45:c1:98:c8:8a:56:
         5d:3e:ee:43:4e:3e:6b:27:8e:d0:3a:4b:85:0b:5f:d3:ed:6a:
         a7:75:cb:d1:5a:87:2f:39:75:13:5a:72:b0:02:81:9f:be:f0:
         0f:84:54:20:62:6c:69:d4:e1:4d:c6:0d:99:43:01:0d:12:96:
         8c:78:9d:bf:50:a2:b1:44:aa:6a:cf:17:7a:cf:6f:0f:d4:f8:
         24:55:5f:f0:34:16:49:66:3e:50:46:c9:63:71:38:31:62:b8:
         62:b9:f3:53:ad:6c:b5:2b:a2:12:aa:19:4f:09:da:5e:e7:93:
         c6:8e:14:08:fe:f0:30:80:18:a0:86:85:4d:c8:7d:d7:8b:03:
         fe:6e:d5:f7:9d:16:ac:92:2c:a0:23:e5:9c:91:52:1f:94:df:
         17:94:73:c3:b3:c1:c1:71:05:20:00:78:bd:13:52:1d:a8:3e:
         cd:00:1f:c8
-----BEGIN CERTIFICATE-----
MIIEZjCCA06gAwIBAgIQRL4Mi1AAJLQR0zYt4LNfGzANBgkqhkiG9w0BAQUFADCB
lTELMAkGA1UEBhMCVVMxCzAJBgNVBAgTAlVUMRcwFQYDVQQHEw5TYWx0IExha2Ug
Q2l0eTEeMBwGA1UEChMVVGhlIFVTRVJUUlVTVCBOZXR3b3JrMSEwHwYDVQQLExho
dHRwOi8vd3d3LnVzZXJ0cnVzdC5jb20xHTAbBgNVBAMTFFVUTi1VU0VSRmlyc3Qt
T2JqZWN0MB4XDTk5MDcwOTE4MzEyMFoXDTE5MDcwOTE4NDAzNlowgZUxCzAJBgNV
BAYTAlVTMQswCQYDVQQIEwJVVDEXMBUGA1UEBxMOU2FsdCBMYWtlIENpdHkxHjAc
BgNVBAoTFVRoZSBVU0VSVFJVU1QgTmV0d29yazEhMB8GA1UECxMYaHR0cDovL3d3
dy51c2VydHJ1c3QuY29tMR0wGwYDVQQDExRVVE4tVVNFUkZpcnN0LU9iamVjdDCC
ASIwDQYJKoZIhvcNAQEBBQADggEPADCCAQoCggEBAM6qgT+jo2F4qjEAVZURnicP
HxzfOpuCaDDASmEd8S8O+r5596Uj71VRloTN2+O5bj4x2AogZ8f02b+U60cEPgLO
KqJdhwQJ9jCdGIqXsqoc/EHSoTbL+z2RuufZcDX65OeQw5ujm9M89RKZd7G3CeBo
5hy485RjiGpq/gt2yb70IuRnuasaXnfBhQfdDWy/7gbHd2pBnqcP1/vulBe3/IW+
pKvEHDHd17bR5PDv3xaPslKT16HUiaEHLr/hARJCHhrh2JU022R5KP+6LhHC5ehb
kkj7RwvCbNqtMoNB86XlQXD9ZZBt+vpRxPm9lisZBCzTbafc8H9vg2XiaquHhnUC
AwEAAaOBrzCBrDALBgNVHQ8EBAMCAcYwDwYDVR0TAQH/BAUwAwEB/zAdBgNVHQ4E
FgQU2u1kdBScFDyr3ZmpvVsoTYs8ydgwQgYDVR0fBDswOTA3oDWgM4YxaHR0cDov
L2NybC51c2VydHJ1c3QuY29tL1VUTi1VU0VSRmlyc3QtT2JqZWN0LmNybDApBgNV
HSUEIjAgBggrBgEFBQcDAwYIKwYBBQUHAwgGCisGAQQBgjcKAwQwDQYJKoZIhvcN
AQEFBQADggEBAAgfUrE3RHjb/c652pWWmKpVZIC1WkDdIaXFwfNfLEzIR1pp6ujw
NTX00CXzyKakh0q9G7FzCL3Uw8q2NbtZhncxzaeAFK4T7/yxSPlrJSUtUbYsbUXB
mMiKVl0+7kNOPmsnjtA6S4ULX9Ptaqd1y9Fahy85dRNacrACgZ++8A+EVCBibGnU
4U3GDZlDAQ0Slox4nb9QorFEqmrPF3rPbw/U+CRVX/A0FklmPlBGyWNxODFiuGK5
81OtbLUrohKqGU8J2l7nk8aOFAj+8DCAGKCGhU3IfdeLA/5u1fedFqySLKAj5ZyR
Uh+U3xeUc8OzwcFxBSAAeL0TUh2oPs0AH8g=
-----END CERTIFICATE-----

Certificate:
    Data:
        Version: 3 (0x2)
        Serial Number:
            0c:41:ee:62:6e:7b:38:1d:03:ba:26:02:bf:63:c2:e2
    Signature Algorithm: sha1WithRSAEncryption
        Issuer: C=US, ST=UT, L=Salt Lake City, O=The USERTRUST Network, OU=http://www.usertrust.com, CN=UTN-USERFirst-Object
        Validity
            Not Before: Jun 12 00:00:00 2008 GMT
            Not After : Jun 12 23:59:59 2009 GMT
        Subject: C=GB/postalCode=L24 4AR, ST=Merseyside, L=Liverpool/street=Hale Village/street=1 Wellington Gate, O=M8 Software(UK), CN=M8 Software(UK)
        Subject Public Key Info:
            Public Key Algorithm: rsaEncryption
                Public-Key: (2048 bit)
                Modulus:
                    00:f5:c6:1a:33:43:ad:1e:a6:bf:76:78:bb:98:74:
                    57:c9:4c:b4:74:4f:95:65:69:c3:fa:af:f8:4a:d7:
                    46:88:5b:5e:91:12:56:1a:53:7e:b9:e3:da:2d:a9:
                    57:eb:3f:de:e7:0f:45:56:67:45:3e:5b:ef:b5:d8:
                    5b:fb:81:c4:a6:43:2f:7c:90:01:2f:28:43:5b:38:
                    1a:14:5f:43:c5:ec:5d:fd:e1:97:26:f3:74:95:e5:
                    ba:d9:69:61:a8:7b:49:9e:49:25:84:3b:6b:61:4e:
                    95:ec:b0:f0:7c:9a:73:e5:ef:19:13:f0:4f:0b:0f:
                    e7:70:43:60:c4:c9:41:95:dd:77:de:51:83:59:c7:
                    f0:10:56:e2:95:62:17:2e:87:a5:bc:04:6b:bb:4f:
                    bc:b9:72:ca:d6:16:a3:46:28:50:e3:73:1c:91:be:
                    e9:d9:ca:09:5b:84:61:10:53:02:5a:6f:1e:74:e2:
                    70:ac:1e:bd:00:87:93:df:e2:8d:02:26:64:60:86:
                    04:ce:0e:db:3f:06:bb:01:5c:01:fe:63:60:4d:c7:
                    33:0a:c3:00:88:51:7c:3e:5f:d6:6d:d0:34:a6:51:
                    e9:15:77:87:b3:5d:5a:ad:41:99:b2:6e:70:c9:b5:
                    52:58:69:27:1c:be:95:03:23:38:9b:b8:f5:87:f8:
                    c6:39
                Exponent: 65537 (0x10001)
        X509v3 extensions:
            X509v3 Authority Key Identifier: 
                keyid:DA:ED:64:74:14:9C:14:3C:AB:DD:99:A9:BD:5B:28:4D:8B:3C:C9:D8

            X509v3 Subject Key Identifier: 
                63:B9:A9:27:72:93:C1:09:C5:15:65:D1:1E:6F:3D:B9:76:A0:4E:AB
            X509v3 Key Usage: critical
                Digital Signature
            X509v3 Basic Constraints: critical
                CA:FALSE
            X509v3 Extended Key Usage: 
                Code Signing
            Netscape Cert Type: 
                Object Signing
            X509v3 Certificate Policies: 
                Policy: 1.3.6.1.4.1.6449.1.2.1.3.2
                  CPS: https://secure.comodo.net/CPS

            X509v3 CRL Distribution Points: 

                Full Name:
                  URI:http://crl.usertrust.com/UTN-USERFirst-Object.crl

    Signature Algorithm: sha1WithRSAEncryption
         60:e6:07:b7:d7:40:2f:af:3f:71:6d:eb:5f:84:df:bd:09:f8:
         af:d7:db:01:04:2b:ee:df:c9:56:6e:2b:a0:90:f7:74:d1:96:
         6e:97:7c:02:3e:8d:90:09:9d:71:f1:6b:af:42:72:bd:33:fb:
         35:42:ed:92:43:7a:eb:26:4d:46:22:30:03:b3:01:cf:71:35:
         0e:3d:27:3b:5b:1f:15:bf:0f:d4:74:04:83:48:79:ea:c4:48:
         51:8d:5b:c9:98:96:87:0b:5a:7b:46:71:d8:7a:d9:5b:a1:ab:
         f9:3c:fe:35:e8:34:63:60:f3:a8:01:6d:55:e6:ee:a0:25:77:
         ae:82:50:a4:07:d7:21:63:2b:7d:3f:ea:76:c6:f9:a8:cd:f7:
         b8:71:c7:8b:15:c8:de:15:25:fe:05:27:f4:f7:62:f6:b3:6f:
         61:5a:41:f8:90:72:70:a1:f8:7b:fb:63:98:7e:0a:18:a0:9f:
         8e:54:2b:80:e4:4a:b7:df:22:8a:7d:85:ed:3e:26:ce:6f:e8:
         92:b5:e4:57:aa:50:55:1f:21:7f:d0:8b:6a:ec:a0:c7:02:42:
         90:cb:96:e1:54:55:93:c3:7f:aa:fe:5d:29:f4:30:4c:20:97:
         a5:a1:5e:f7:ce:77:83:49:70:23:92:f8:c1:0f:f4:1a:dd:ca:
         ff:df:d9:3e
-----BEGIN CERTIFICATE-----
MIIE6DCCA9CgAwIBAgIQDEHuYm57OB0DuiYCv2PC4jANBgkqhkiG9w0BAQUFADCB
lTELMAkGA1UEBhMCVVMxCzAJBgNVBAgTAlVUMRcwFQYDVQQHEw5TYWx0IExha2Ug
Q2l0eTEeMBwGA1UEChMVVGhlIFVTRVJUUlVTVCBOZXR3b3JrMSEwHwYDVQQLExho
dHRwOi8vd3d3LnVzZXJ0cnVzdC5jb20xHTAbBgNVBAMTFFVUTi1VU0VSRmlyc3Qt
T2JqZWN0MB4XDTA4MDYxMjAwMDAwMFoXDTA5MDYxMjIzNTk1OVowga8xCzAJBgNV
BAYTAkdCMRAwDgYDVQQRDAdMMjQgNEFSMRMwEQYDVQQIDApNZXJzZXlzaWRlMRIw
EAYDVQQHDAlMaXZlcnBvb2wxFTATBgNVBAkMDEhhbGUgVmlsbGFnZTEaMBgGA1UE
CQwRMSBXZWxsaW5ndG9uIEdhdGUxGDAWBgNVBAoMD004IFNvZnR3YXJlKFVLKTEY
MBYGA1UEAwwPTTggU29mdHdhcmUoVUspMIIBIjANBgkqhkiG9w0BAQEFAAOCAQ8A
MIIBCgKCAQEA9cYaM0OtHqa/dni7mHRXyUy0dE+VZWnD+q/4StdGiFtekRJWGlN+
uePaLalX6z/e5w9FVmdFPlvvtdhb+4HEpkMvfJABLyhDWzgaFF9Dxexd/eGXJvN0
leW62WlhqHtJnkklhDtrYU6V7LDwfJpz5e8ZE/BPCw/ncENgxMlBld133lGDWcfw
EFbilWIXLoelvARru0+8uXLK1hajRihQ43Mckb7p2coJW4RhEFMCWm8edOJwrB69
AIeT3+KNAiZkYIYEzg7bPwa7AVwB/mNgTcczCsMAiFF8Pl/WbdA0plHpFXeHs11a
rUGZsm5wybVSWGknHL6VAyM4m7j1h/jGOQIDAQABo4IBFjCCARIwHwYDVR0jBBgw
FoAU2u1kdBScFDyr3ZmpvVsoTYs8ydgwHQYDVR0OBBYEFGO5qSdyk8EJxRVl0R5v
Pbl2oE6rMA4GA1UdDwEB/wQEAwIHgDAMBgNVHRMBAf8EAjAAMBMGA1UdJQQMMAoG
CCsGAQUFBwMDMBEGCWCGSAGG+EIBAQQEAwIEEDBGBgNVHSAEPzA9MDsGDCsGAQQB
sjEBAgEDAjArMCkGCCsGAQUFBwIBFh1odHRwczovL3NlY3VyZS5jb21vZG8ubmV0
L0NQUzBCBgNVHR8EOzA5MDegNaAzhjFodHRwOi8vY3JsLnVzZXJ0cnVzdC5jb20v
VVROLVVTRVJGaXJzdC1PYmplY3QuY3JsMA0GCSqGSIb3DQEBBQUAA4IBAQBg5ge3
10Avrz9xbetfhN+9Cfiv19sBBCvu38lWbiugkPd00ZZul3wCPo2QCZ1x8WuvQnK9
M/s1Qu2SQ3rrJk1GIjADswHPcTUOPSc7Wx8Vvw/UdASDSHnqxEhRjVvJmJaHC1p7
RnHYetlboav5PP416DRjYPOoAW1V5u6gJXeuglCkB9chYyt9P+p2xvmozfe4cceL
FcjeFSX+BSf092L2s29hWkH4kHJwofh7+2OYfgoYoJ+OVCuA5Eq33yKKfYXtPibO
b+iSteRXqlBVHyF/0Itq7KDHAkKQy5bhVFWTw3+q/l0p9DBMIJeloV73zneDSXAj
kvjBD/Qa3cr/39k+
-----END CERTIFICATE-----

