Certificate:
    Data:
        Version: 3 (0x2)
        Serial Number:
            41:1c:87:fe:0d:b2:c4:73:6a:11:e3:0c:ee:43:0f:c4
    Signature Algorithm: sha1WithRSAEncryption
        Issuer: C=US, O=VeriSign, Inc., OU=VeriSign Trust Network, OU=Terms of use at https://www.verisign.com/rpa (c)10, CN=VeriSign Class 3 Code Signing 2010 CA
        Validity
            Not Before: Aug  9 00:00:00 2017 GMT
            Not After : Nov  7 23:59:59 2019 GMT
        Subject: C=CN, ST=Sichuan, L=Chengdu, O=CHENGDU YIWO Tech Development Co., Ltd., OU=IT, CN=CHENGDU YIWO Tech Development Co., Ltd.
        Subject Public Key Info:
            Public Key Algorithm: rsaEncryption
                Public-Key: (2048 bit)
                Modulus:
                    00:e1:d0:57:c9:38:ea:44:3f:5a:16:3d:3b:05:48:
                    bc:c9:93:a7:15:1a:64:44:6d:67:54:f3:97:3e:00:
                    13:ad:f9:f7:99:d5:99:9f:59:c3:6d:56:ec:6d:f4:
                    6d:d6:4c:6b:91:f2:98:d9:0e:10:89:2c:fe:65:af:
                    06:ce:41:40:50:12:82:f9:6f:02:20:c4:6a:46:ba:
                    39:a5:e3:12:bc:fd:26:bd:89:34:59:57:47:65:01:
                    48:bc:65:95:44:75:0c:07:8a:34:9b:06:c6:9c:19:
                    c4:55:b0:f2:99:33:4e:d1:dd:3b:ec:99:82:7a:83:
                    71:0c:1e:94:21:21:48:b7:4c:01:3e:7a:70:75:7a:
                    9a:59:5a:cb:40:50:ed:58:09:75:a2:ef:71:e4:f0:
                    5c:27:b1:e5:c7:05:ec:3e:43:36:8e:9e:8a:f2:3b:
                    f8:58:dd:d6:ca:c1:a0:0e:04:31:f8:e8:b6:c2:a3:
                    03:bc:db:09:e1:5d:f3:6b:a2:b7:51:62:0b:d0:ab:
                    c9:65:b8:80:9b:a7:46:f8:e9:92:92:5c:5c:10:60:
                    85:29:6f:27:0a:ca:a2:54:40:cd:97:a9:2e:e9:68:
                    cd:f3:26:17:90:f5:97:1c:53:6b:43:9b:dd:f0:87:
                    db:e1:ca:fb:aa:24:79:eb:80:7f:c7:f3:a7:72:20:
                    19:0b
                Exponent: 3 (0x3)
        X509v3 extensions:
            X509v3 Basic Constraints: 
                CA:FALSE
            X509v3 Key Usage: critical
                Digital Signature
            X509v3 CRL Distribution Points: 

                Full Name:
                  URI:http://sf.symcb.com/sf.crl

            X509v3 Certificate Policies: 
                Policy: 2.23.140.1.4.1
                  CPS: https://d.symcb.com/cps
                  User Notice:
                    Explicit Text: https://d.symcb.com/rpa

            X509v3 Extended Key Usage: 
                Code Signing
            Authority Information Access: 
                OCSP - URI:http://sf.symcd.com
                CA Issuers - URI:http://sf.symcb.com/sf.crt

            X509v3 Authority Key Identifier: 
                keyid:CF:99:A9:EA:7B:26:F4:4B:C9:8E:8F:D7:F0:05:26:EF:E3:D2:A7:9D

            X509v3 Subject Key Identifier: 
                79:D1:BC:DB:CD:0F:4D:2B:85:1E:6F:C4:03:0B:89:9C:39:F0:84:19
    Signature Algorithm: sha1WithRSAEncryption
         3c:a6:41:9e:00:98:db:cd:d9:da:2e:d6:c7:cc:2f:67:23:87:
         34:6b:d8:74:a5:05:e2:c8:9a:26:bd:84:63:96:c7:e8:9c:d1:
         b4:ac:c2:d2:fd:f3:0a:b1:41:0f:41:e4:15:35:1d:86:c1:f9:
         ba:26:95:a7:dc:1a:fa:3f:2c:99:e5:cb:ae:93:cf:aa:84:07:
         ca:95:88:0d:e5:c5:a3:27:b9:3a:25:98:5e:e5:2c:b3:dc:0b:
         a3:54:32:c3:1a:70:5c:14:04:e5:e4:b0:76:d5:85:4c:22:a5:
         29:f5:67:3e:e1:3b:99:a5:f4:1a:28:55:73:af:96:f8:0a:fb:
         19:17:72:7d:2d:ec:88:e6:00:c0:05:fd:02:c4:11:66:55:b5:
         51:d3:0d:75:e7:23:d3:0b:07:0a:e9:05:1c:da:ad:e1:94:c1:
         ba:bd:61:90:65:a7:86:e3:58:a3:f2:50:34:33:8c:86:dd:b5:
         a0:00:89:4a:b8:ef:ba:70:ef:05:a6:03:9c:63:20:67:e8:8a:
         8b:6e:7a:8c:92:e2:5c:5e:01:3b:1a:98:1e:04:65:fb:61:83:
         14:50:12:88:01:38:13:ae:73:bc:fd:9c:15:3e:87:90:15:20:
         cd:29:48:9f:94:69:a8:19:e0:f0:90:f2:1a:90:3d:c3:32:c5:
         c0:64:17:18
-----BEGIN CERTIFICATE-----
MIIFPzCCBCegAwIBAgIQQRyH/g2yxHNqEeMM7kMPxDANBgkqhkiG9w0BAQUFADCB
tDELMAkGA1UEBhMCVVMxFzAVBgNVBAoTDlZlcmlTaWduLCBJbmMuMR8wHQYDVQQL
ExZWZXJpU2lnbiBUcnVzdCBOZXR3b3JrMTswOQYDVQQLEzJUZXJtcyBvZiB1c2Ug
YXQgaHR0cHM6Ly93d3cudmVyaXNpZ24uY29tL3JwYSAoYykxMDEuMCwGA1UEAxMl
VmVyaVNpZ24gQ2xhc3MgMyBDb2RlIFNpZ25pbmcgMjAxMCBDQTAeFw0xNzA4MDkw
MDAwMDBaFw0xOTExMDcyMzU5NTlaMIGiMQswCQYDVQQGEwJDTjEQMA4GA1UECAwH
U2ljaHVhbjEQMA4GA1UEBwwHQ2hlbmdkdTEwMC4GA1UECgwnQ0hFTkdEVSBZSVdP
IFRlY2ggRGV2ZWxvcG1lbnQgQ28uLCBMdGQuMQswCQYDVQQLDAJJVDEwMC4GA1UE
AwwnQ0hFTkdEVSBZSVdPIFRlY2ggRGV2ZWxvcG1lbnQgQ28uLCBMdGQuMIIBIDAN
BgkqhkiG9w0BAQEFAAOCAQ0AMIIBCAKCAQEA4dBXyTjqRD9aFj07BUi8yZOnFRpk
RG1nVPOXPgATrfn3mdWZn1nDbVbsbfRt1kxrkfKY2Q4QiSz+Za8GzkFAUBKC+W8C
IMRqRro5peMSvP0mvYk0WVdHZQFIvGWVRHUMB4o0mwbGnBnEVbDymTNO0d077JmC
eoNxDB6UISFIt0wBPnpwdXqaWVrLQFDtWAl1ou9x5PBcJ7HlxwXsPkM2jp6K8jv4
WN3WysGgDgQx+Oi2wqMDvNsJ4V3za6K3UWIL0KvJZbiAm6dG+OmSklxcEGCFKW8n
CsqiVEDNl6ku6WjN8yYXkPWXHFNrQ5vd8Ifb4cr7qiR564B/x/OnciAZCwIBA6OC
AV0wggFZMAkGA1UdEwQCMAAwDgYDVR0PAQH/BAQDAgeAMCsGA1UdHwQkMCIwIKAe
oByGGmh0dHA6Ly9zZi5zeW1jYi5jb20vc2YuY3JsMGEGA1UdIARaMFgwVgYGZ4EM
AQQBMEwwIwYIKwYBBQUHAgEWF2h0dHBzOi8vZC5zeW1jYi5jb20vY3BzMCUGCCsG
AQUFBwICMBkMF2h0dHBzOi8vZC5zeW1jYi5jb20vcnBhMBMGA1UdJQQMMAoGCCsG
AQUFBwMDMFcGCCsGAQUFBwEBBEswSTAfBggrBgEFBQcwAYYTaHR0cDovL3NmLnN5
bWNkLmNvbTAmBggrBgEFBQcwAoYaaHR0cDovL3NmLnN5bWNiLmNvbS9zZi5jcnQw
HwYDVR0jBBgwFoAUz5mp6nsm9EvJjo/X8AUm7+PSp50wHQYDVR0OBBYEFHnRvNvN
D00rhR5vxAMLiZw58IQZMA0GCSqGSIb3DQEBBQUAA4IBAQA8pkGeAJjbzdnaLtbH
zC9nI4c0a9h0pQXiyJomvYRjlsfonNG0rMLS/fMKsUEPQeQVNR2Gwfm6JpWn3Br6
PyyZ5cuuk8+qhAfKlYgN5cWjJ7k6JZhe5Syz3AujVDLDGnBcFATl5LB21YVMIqUp
9Wc+4TuZpfQaKFVzr5b4CvsZF3J9LeyI5gDABf0CxBFmVbVR0w115yPTCwcK6QUc
2q3hlMG6vWGQZaeG41ij8lA0M4yG3bWgAIlKuO+6cO8FpgOcYyBn6IqLbnqMkuJc
XgE7GpgeBGX7YYMUUBKIATgTrnO8/ZwVPoeQFSDNKUiflGmoGeDwkPIakD3DMsXA
ZBcY
-----END CERTIFICATE-----

Certificate:
    Data:
        Version: 3 (0x2)
        Serial Number:
            52:00:e5:aa:25:56:fc:1a:86:ed:96:c9:d4:4b:33:c7
    Signature Algorithm: sha1WithRSAEncryption
        Issuer: C=US, O=VeriSign, Inc., OU=VeriSign Trust Network, OU=(c) 2006 VeriSign, Inc. - For authorized use only, CN=VeriSign Class 3 Public Primary Certification Authority - G5
        Validity
            Not Before: Feb  8 00:00:00 2010 GMT
            Not After : Feb  7 23:59:59 2020 GMT
        Subject: C=US, O=VeriSign, Inc., OU=VeriSign Trust Network, OU=Terms of use at https://www.verisign.com/rpa (c)10, CN=VeriSign Class 3 Code Signing 2010 CA
        Subject Public Key Info:
            Public Key Algorithm: rsaEncryption
                Public-Key: (2048 bit)
                Modulus:
                    00:f5:23:4b:5e:a5:d7:8a:bb:32:e9:d4:57:f7:ef:
                    e4:c7:26:7e:ad:19:98:fe:a8:9d:7d:94:f6:36:6b:
                    10:d7:75:81:30:7f:04:68:7f:cb:2b:75:1e:cd:1d:
                    08:8c:df:69:94:a7:37:a3:9c:7b:80:e0:99:e1:ee:
                    37:4d:5f:ce:3b:14:ee:86:d4:d0:f5:27:35:bc:25:
                    0b:38:a7:8c:63:9d:17:a3:08:a5:ab:b0:fb:cd:6a:
                    62:82:4c:d5:21:da:1b:d9:f1:e3:84:3b:8a:2a:4f:
                    85:5b:90:01:4f:c9:a7:76:10:7f:27:03:7c:be:ae:
                    7e:7d:c1:dd:f9:05:bc:1b:48:9c:69:e7:c0:a4:3c:
                    3c:41:00:3e:df:96:e5:c5:e4:94:71:d6:55:01:c7:
                    00:26:4a:40:3c:b5:a1:26:a9:0c:a7:6d:80:8e:90:
                    25:7b:cf:bf:3f:1c:eb:2f:96:fa:e5:87:77:c6:b5:
                    56:b2:7a:3b:54:30:53:1b:df:62:34:ff:1e:d1:f4:
                    5a:93:28:85:e5:4c:17:4e:7e:5b:fd:a4:93:99:7f:
                    df:cd:ef:a4:75:ef:ef:15:f6:47:e7:f8:19:72:d8:
                    2e:34:1a:a6:b4:a7:4c:7e:bd:bb:4f:0c:3d:57:f1:
                    30:d6:a6:36:8e:d6:80:76:d7:19:2e:a5:cd:7e:34:
                    2d:89
                Exponent: 65537 (0x10001)
        X509v3 extensions:
            X509v3 Basic Constraints: critical
                CA:TRUE, pathlen:0
            X509v3 Certificate Policies: 
                Policy: 2.16.840.1.113733.1.7.23.3
                  CPS: https://www.verisign.com/cps
                  User Notice:
                    Explicit Text: https://www.verisign.com/rpa

            X509v3 Key Usage: critical
                Certificate Sign, CRL Sign
            1.3.6.1.5.5.7.1.12: 
                0_.].[0Y0W0U..image/gif0!0.0...+..............k...j.H.,{..0%.#http://logo.verisign.com/vslogo.gif
            X509v3 CRL Distribution Points: 

                Full Name:
                  URI:http://crl.verisign.com/pca3-g5.crl

            Authority Information Access: 
                OCSP - URI:http://ocsp.verisign.com

            X509v3 Extended Key Usage: 
                TLS Web Client Authentication, Code Signing
            X509v3 Subject Alternative Name: 
                DirName:/CN=VeriSignMPKI-2-8
            X509v3 Subject Key Identifier: 
                CF:99:A9:EA:7B:26:F4:4B:C9:8E:8F:D7:F0:05:26:EF:E3:D2:A7:9D
            X509v3 Authority Key Identifier: 
                keyid:7F:D3:65:A7:C2:DD:EC:BB:F0:30:09:F3:43:39:FA:02:AF:33:31:33

    Signature Algorithm: sha1WithRSAEncryption
         56:22:e6:34:a4:c4:61:cb:48:b9:01:ad:56:a8:64:0f:d9:8c:
         91:c4:bb:cc:0c:e5:ad:7a:a0:22:7f:df:47:38:4a:2d:6c:d1:
         7f:71:1a:7c:ec:70:a9:b1:f0:4f:e4:0f:0c:53:fa:15:5e:fe:
         74:98:49:24:85:81:26:1c:91:14:47:b0:4c:63:8c:bb:a1:34:
         d4:c6:45:e8:0d:85:26:73:03:d0:a9:8c:64:6d:dc:71:92:e6:
         45:05:60:15:59:51:39:fc:58:14:6b:fe:d4:a4:ed:79:6b:08:
         0c:41:72:e7:37:22:06:09:be:23:e9:3f:44:9a:1e:e9:61:9d:
         cc:b1:90:5c:fc:3d:d2:8d:ac:42:3d:65:36:d4:b4:3d:40:28:
         8f:9b:10:cf:23:26:cc:4b:20:cb:90:1f:5d:8c:4c:34:ca:3c:
         d8:e5:37:d6:6f:a5:20:bd:34:eb:26:d9:ae:0d:e7:c5:9a:f7:
         a1:b4:21:91:33:6f:86:e8:58:bb:25:7c:74:0e:58:fe:75:1b:
         63:3f:ce:31:7c:9b:8f:1b:96:9e:c5:53:76:84:5b:9c:ad:91:
         fa:ac:ed:93:ba:5d:c8:21:53:c2:82:53:63:af:12:0d:50:87:
         11:1b:3d:54:52:96:8a:2c:9c:3d:92:1a:08:9a:05:2e:c7:93:
         a5:48:91:d3
-----BEGIN CERTIFICATE-----
MIIGCjCCBPKgAwIBAgIQUgDlqiVW/BqG7ZbJ1EszxzANBgkqhkiG9w0BAQUFADCB
yjELMAkGA1UEBhMCVVMxFzAVBgNVBAoTDlZlcmlTaWduLCBJbmMuMR8wHQYDVQQL
ExZWZXJpU2lnbiBUcnVzdCBOZXR3b3JrMTowOAYDVQQLEzEoYykgMjAwNiBWZXJp
U2lnbiwgSW5jLiAtIEZvciBhdXRob3JpemVkIHVzZSBvbmx5MUUwQwYDVQQDEzxW
ZXJpU2lnbiBDbGFzcyAzIFB1YmxpYyBQcmltYXJ5IENlcnRpZmljYXRpb24gQXV0
aG9yaXR5IC0gRzUwHhcNMTAwMjA4MDAwMDAwWhcNMjAwMjA3MjM1OTU5WjCBtDEL
MAkGA1UEBhMCVVMxFzAVBgNVBAoTDlZlcmlTaWduLCBJbmMuMR8wHQYDVQQLExZW
ZXJpU2lnbiBUcnVzdCBOZXR3b3JrMTswOQYDVQQLEzJUZXJtcyBvZiB1c2UgYXQg
aHR0cHM6Ly93d3cudmVyaXNpZ24uY29tL3JwYSAoYykxMDEuMCwGA1UEAxMlVmVy
aVNpZ24gQ2xhc3MgMyBDb2RlIFNpZ25pbmcgMjAxMCBDQTCCASIwDQYJKoZIhvcN
AQEBBQADggEPADCCAQoCggEBAPUjS16l14q7MunUV/fv5Mcmfq0ZmP6onX2U9jZr
ENd1gTB/BGh/yyt1Hs0dCIzfaZSnN6Oce4DgmeHuN01fzjsU7obU0PUnNbwlCzin
jGOdF6MIpauw+81qYoJM1SHaG9nx44Q7iipPhVuQAU/Jp3YQfycDfL6ufn3B3fkF
vBtInGnnwKQ8PEEAPt+W5cXklHHWVQHHACZKQDy1oSapDKdtgI6QJXvPvz8c6y+W
+uWHd8a1VrJ6O1QwUxvfYjT/HtH0WpMoheVMF05+W/2kk5l/383vpHXv7xX2R+f4
GXLYLjQaprSnTH69u08MPVfxMNamNo7WgHbXGS6lzX40LYkCAwEAAaOCAf4wggH6
MBIGA1UdEwEB/wQIMAYBAf8CAQAwcAYDVR0gBGkwZzBlBgtghkgBhvhFAQcXAzBW
MCgGCCsGAQUFBwIBFhxodHRwczovL3d3dy52ZXJpc2lnbi5jb20vY3BzMCoGCCsG
AQUFBwICMB4aHGh0dHBzOi8vd3d3LnZlcmlzaWduLmNvbS9ycGEwDgYDVR0PAQH/
BAQDAgEGMG0GCCsGAQUFBwEMBGEwX6FdoFswWTBXMFUWCWltYWdlL2dpZjAhMB8w
BwYFKw4DAhoEFI/l0xqGrI2Oa8PPgGrUSBgsexkuMCUWI2h0dHA6Ly9sb2dvLnZl
cmlzaWduLmNvbS92c2xvZ28uZ2lmMDQGA1UdHwQtMCswKaAnoCWGI2h0dHA6Ly9j
cmwudmVyaXNpZ24uY29tL3BjYTMtZzUuY3JsMDQGCCsGAQUFBwEBBCgwJjAkBggr
BgEFBQcwAYYYaHR0cDovL29jc3AudmVyaXNpZ24uY29tMB0GA1UdJQQWMBQGCCsG
AQUFBwMCBggrBgEFBQcDAzAoBgNVHREEITAfpB0wGzEZMBcGA1UEAxMQVmVyaVNp
Z25NUEtJLTItODAdBgNVHQ4EFgQUz5mp6nsm9EvJjo/X8AUm7+PSp50wHwYDVR0j
BBgwFoAUf9Nlp8Ld7LvwMAnzQzn6Aq8zMTMwDQYJKoZIhvcNAQEFBQADggEBAFYi
5jSkxGHLSLkBrVaoZA/ZjJHEu8wM5a16oCJ/30c4Si1s0X9xGnzscKmx8E/kDwxT
+hVe/nSYSSSFgSYckRRHsExjjLuhNNTGRegNhSZzA9CpjGRt3HGS5kUFYBVZUTn8
WBRr/tSk7XlrCAxBcuc3IgYJviPpP0SaHulhncyxkFz8PdKNrEI9ZTbUtD1AKI+b
EM8jJsxLIMuQH12MTDTKPNjlN9ZvpSC9NOsm2a4N58Wa96G0IZEzb4boWLslfHQO
WP51G2M/zjF8m48blp7FU3aEW5ytkfqs7ZO6XcghU8KCU2OvEg1QhxEbPVRSloos
nD2SGgiaBS7Hk6VIkdM=
-----END CERTIFICATE-----

