Certificate:
    Data:
        Version: 3 (0x2)
        Serial Number:
            7e:93:eb:fb:7c:c6:4e:59:ea:4b:9a:77:d4:06:fc:3b
    Signature Algorithm: sha1WithRSAEncryption
        Issuer: C=ZA, ST=Western Cape, L=Durbanville, O=Thawte, OU=Thawte Certification, CN=Thawte Timestamping CA
        Validity
            Not Before: Dec 21 00:00:00 2012 GMT
            Not After : Dec 30 23:59:59 2020 GMT
        Subject: C=US, O=Symantec Corporation, CN=Symantec Time Stamping Services CA - G2
        Subject Public Key Info:
            Public Key Algorithm: rsaEncryption
                Public-Key: (2048 bit)
                Modulus:
                    00:b1:ac:b3:49:54:4b:97:1c:12:0a:d8:25:79:91:
                    22:57:2a:6f:dc:b8:26:c4:43:73:6b:c2:bf:2e:50:
                    5a:fb:14:c2:76:8e:43:01:25:43:b4:a1:e2:45:f4:
                    e8:b7:7b:c3:74:cc:22:d7:b4:94:00:02:f7:4d:ed:
                    bf:b4:b7:44:24:6b:cd:5f:45:3b:d1:44:ce:43:12:
                    73:17:82:8b:69:b4:2b:cb:99:1e:ac:72:1b:26:4d:
                    71:1f:b1:31:dd:fb:51:61:02:53:a6:aa:f5:49:2c:
                    05:78:45:a5:2f:89:ce:e7:99:e7:fe:8c:e2:57:3f:
                    3d:c6:92:dc:4a:f8:7b:33:e4:79:0a:fb:f0:75:88:
                    41:9c:ff:c5:03:51:99:aa:d7:6c:9f:93:69:87:65:
                    29:83:85:c2:60:14:c4:c8:c9:3b:14:da:c0:81:f0:
                    1f:0d:74:de:92:22:ab:ca:f7:fb:74:7c:27:e6:f7:
                    4a:1b:7f:a7:c3:9e:2d:ae:8a:ea:a6:e6:aa:27:16:
                    7d:61:f7:98:71:11:bc:e2:50:a1:4b:e5:5d:fa:e5:
                    0e:a7:2c:9f:aa:65:20:d3:d8:96:e8:c8:7c:a5:4e:
                    48:44:ff:19:e2:44:07:92:0b:d7:68:84:80:5d:6a:
                    78:64:45:cd:60:46:7e:54:c1:13:7c:c5:79:f1:c9:
                    c1:71
                Exponent: 65537 (0x10001)
        X509v3 extensions:
            X509v3 Subject Key Identifier: 
                5F:9A:F5:6E:5C:CC:CC:74:9A:D4:DD:7D:EF:3F:DB:EC:4C:80:2E:DD
            Authority Information Access: 
                OCSP - URI:http://ocsp.thawte.com

            X509v3 Basic Constraints: critical
                CA:TRUE, pathlen:0
            X509v3 CRL Distribution Points: 

                Full Name:
                  URI:http://crl.thawte.com/ThawteTimestampingCA.crl

            X509v3 Extended Key Usage: 
                Time Stamping
            X509v3 Key Usage: critical
                Certificate Sign, CRL Sign
            X509v3 Subject Alternative Name: 
                DirName:/CN=TimeStamp-2048-1
    Signature Algorithm: sha1WithRSAEncryption
         03:09:9b:8f:79:ef:7f:59:30:aa:ef:68:b5:fa:e3:09:1d:bb:
         4f:82:06:5d:37:5f:a6:52:9f:16:8d:ea:1c:92:09:44:6e:f5:
         6d:eb:58:7c:30:e8:f9:69:8d:23:73:0b:12:6f:47:a9:ae:39:
         11:f8:2a:b1:9b:b0:1a:c3:8e:eb:59:96:00:ad:ce:0c:4d:b2:
         d0:31:a6:08:5c:2a:7a:fc:e2:7a:1d:57:4c:a8:65:18:e9:79:
         40:62:25:96:6e:c7:c7:37:6a:83:21:08:8e:41:ea:dd:d9:57:
         3f:1d:77:49:87:2a:16:06:5e:a6:38:6a:22:12:a3:51:19:83:
         7e:b6
-----BEGIN CERTIFICATE-----
MIID7jCCA1egAwIBAgIQfpPr+3zGTlnqS5p31Ab8OzANBgkqhkiG9w0BAQUFADCB
izELMAkGA1UEBhMCWkExFTATBgNVBAgTDFdlc3Rlcm4gQ2FwZTEUMBIGA1UEBxML
RHVyYmFudmlsbGUxDzANBgNVBAoTBlRoYXd0ZTEdMBsGA1UECxMUVGhhd3RlIENl
cnRpZmljYXRpb24xHzAdBgNVBAMTFlRoYXd0ZSBUaW1lc3RhbXBpbmcgQ0EwHhcN
MTIxMjIxMDAwMDAwWhcNMjAxMjMwMjM1OTU5WjBeMQswCQYDVQQGEwJVUzEdMBsG
A1UEChMUU3ltYW50ZWMgQ29ycG9yYXRpb24xMDAuBgNVBAMTJ1N5bWFudGVjIFRp
bWUgU3RhbXBpbmcgU2VydmljZXMgQ0EgLSBHMjCCASIwDQYJKoZIhvcNAQEBBQAD
ggEPADCCAQoCggEBALGss0lUS5ccEgrYJXmRIlcqb9y4JsRDc2vCvy5QWvsUwnaO
QwElQ7Sh4kX06Ld7w3TMIte0lAAC903tv7S3RCRrzV9FO9FEzkMScxeCi2m0K8uZ
HqxyGyZNcR+xMd37UWECU6aq9UksBXhFpS+JzueZ5/6M4lc/PcaS3Er4ezPkeQr7
8HWIQZz/xQNRmarXbJ+TaYdlKYOFwmAUxMjJOxTawIHwHw103pIiq8r3+3R8J+b3
Sht/p8OeLa6K6qbmqicWfWH3mHERvOJQoUvlXfrlDqcsn6plINPYlujIfKVOSET/
GeJEB5IL12iEgF1qeGRFzWBGflTBE3zFefHJwXECAwEAAaOB+jCB9zAdBgNVHQ4E
FgQUX5r1blzMzHSa1N197z/b7EyALt0wMgYIKwYBBQUHAQEEJjAkMCIGCCsGAQUF
BzABhhZodHRwOi8vb2NzcC50aGF3dGUuY29tMBIGA1UdEwEB/wQIMAYBAf8CAQAw
PwYDVR0fBDgwNjA0oDKgMIYuaHR0cDovL2NybC50aGF3dGUuY29tL1RoYXd0ZVRp
bWVzdGFtcGluZ0NBLmNybDATBgNVHSUEDDAKBggrBgEFBQcDCDAOBgNVHQ8BAf8E
BAMCAQYwKAYDVR0RBCEwH6QdMBsxGTAXBgNVBAMTEFRpbWVTdGFtcC0yMDQ4LTEw
DQYJKoZIhvcNAQEFBQADgYEAAwmbj3nvf1kwqu9otfrjCR27T4IGXTdfplKfFo3q
HJIJRG71betYfDDo+WmNI3MLEm9Hqa45EfgqsZuwGsOO61mWAK3ODE2y0DGmCFwq
evzieh1XTKhlGOl5QGIllm7HxzdqgyEIjkHq3dlXPx13SYcqFgZepjhqIhKjURmD
frY=
-----END CERTIFICATE-----

Certificate:
    Data:
        Version: 3 (0x2)
        Serial Number:
            71:a0:b7:36:95:dd:b1:af:c2:3b:2b:9a:18:ee:54:cb
    Signature Algorithm: sha256WithRSAEncryption
        Issuer: C=US, O=thawte, Inc., OU=Certification Services Division, OU=(c) 2006 thawte, Inc. - For authorized use only, CN=thawte Primary Root CA
        Validity
            Not Before: Dec 10 00:00:00 2013 GMT
            Not After : Dec  9 23:59:59 2023 GMT
        Subject: C=US, O=thawte, Inc., CN=thawte SHA256 Code Signing CA
        Subject Public Key Info:
            Public Key Algorithm: rsaEncryption
                Public-Key: (2048 bit)
                Modulus:
                    00:9b:55:02:4c:17:05:e9:d0:66:c3:fc:28:ad:d3:
                    c0:fe:ef:e0:e9:7e:d4:1e:f6:aa:1b:91:46:fd:f5:
                    16:ed:98:07:53:fa:ba:87:1b:7d:9e:1f:01:27:ab:
                    b9:d2:67:ca:b7:10:25:53:f4:e3:be:9b:90:b8:ed:
                    23:5c:42:ef:64:25:58:e5:88:22:1a:be:f5:c7:ae:
                    f5:be:8a:b1:11:11:93:1a:22:a9:74:69:c1:74:b6:
                    68:87:a7:83:30:f9:64:f1:b1:e3:38:3e:f4:d6:c1:
                    fc:12:fe:73:57:17:35:57:8a:dd:50:8d:03:f8:66:
                    cd:ca:76:83:13:c8:d7:0e:71:1d:e4:63:c9:ba:17:
                    f8:d1:b9:e4:88:d2:2c:28:c8:21:20:0d:41:b7:0b:
                    e2:2f:c2:80:e6:88:7b:53:6c:c3:44:63:81:7f:68:
                    47:8c:2b:2a:cf:5b:f4:8c:49:61:ba:69:85:fd:6b:
                    00:78:05:26:69:13:30:80:38:4e:f1:5a:55:c9:c5:
                    50:d6:aa:38:89:47:43:5c:fe:4d:73:a5:49:c5:93:
                    69:fe:77:96:9a:af:f3:8c:0e:57:ba:33:d9:0e:c6:
                    42:d3:03:77:c4:bb:39:ad:91:f9:f3:f7:96:5c:3a:
                    64:a6:ed:27:57:c1:e8:40:f3:53:f2:be:29:34:fe:
                    5f:f9
                Exponent: 65537 (0x10001)
        X509v3 extensions:
            Authority Information Access: 
                OCSP - URI:http://t2.symcb.com

            X509v3 Basic Constraints: critical
                CA:TRUE, pathlen:0
            X509v3 CRL Distribution Points: 

                Full Name:
                  URI:http://t1.symcb.com/ThawtePCA.crl

            X509v3 Extended Key Usage: 
                TLS Web Client Authentication, Code Signing
            X509v3 Key Usage: critical
                Certificate Sign, CRL Sign
            X509v3 Subject Alternative Name: 
                DirName:/CN=SymantecPKI-1-568
            X509v3 Subject Key Identifier: 
                57:86:9B:54:B8:BE:A6:29:8A:E4:F6:C2:E2:13:18:89:85:CD:DC:B7
            X509v3 Authority Key Identifier: 
                keyid:7B:5B:45:CF:AF:CE:CB:7A:FD:31:92:1A:6A:B6:F3:46:EB:57:48:50

    Signature Algorithm: sha256WithRSAEncryption
         24:3b:f5:d7:a0:36:13:c7:43:fe:f0:09:87:68:d1:98:31:6e:
         12:e4:3f:1e:1f:96:7b:6b:4c:1e:87:9e:8b:c5:6c:a3:b1:0c:
         7b:50:92:d5:81:9c:b1:8f:2c:29:b7:ee:f9:91:05:b9:8e:41:
         f1:2c:f6:d0:59:2d:98:e0:b9:ea:80:01:47:40:95:b8:3d:9d:
         03:bd:79:bb:35:b6:ad:9c:4c:27:f6:67:45:10:c9:c5:bc:87:
         4e:55:7b:d2:87:bb:dd:dc:30:ef:c6:d4:6c:cc:99:35:6d:1c:
         e0:60:d3:cd:68:8f:29:59:4b:89:96:08:46:c9:8e:fc:75:4f:
         c5:dc:09:cc:4e:27:8b:44:cd:07:bc:ac:04:e0:b5:33:a5:87:
         9f:f4:dd:73:0c:91:ea:12:81:6f:e3:75:f0:1e:b5:93:6c:44:
         17:d5:3e:97:c9:bd:07:2c:56:77:1f:85:dd:46:e8:bf:de:2c:
         81:94:a3:f7:e5:b7:a7:c1:37:9f:75:ca:55:77:4d:5e:36:29:
         ca:85:d8:45:41:72:57:75:c0:79:5b:fa:34:10:06:6d:64:20:
         42:b7:3a:c8:1f:1d:46:64:02:5f:c6:47:be:f0:c4:3a:28:54:
         da:f6:1e:4f:9a:a2:19:43:a4:6f:49:f8:fc:5e:42:20:28:84:
         8b:47:20:6e
-----BEGIN CERTIFICATE-----
MIIEmTCCA4GgAwIBAgIQcaC3NpXdsa/COyuaGO5UyzANBgkqhkiG9w0BAQsFADCB
qTELMAkGA1UEBhMCVVMxFTATBgNVBAoTDHRoYXd0ZSwgSW5jLjEoMCYGA1UECxMf
Q2VydGlmaWNhdGlvbiBTZXJ2aWNlcyBEaXZpc2lvbjE4MDYGA1UECxMvKGMpIDIw
MDYgdGhhd3RlLCBJbmMuIC0gRm9yIGF1dGhvcml6ZWQgdXNlIG9ubHkxHzAdBgNV
BAMTFnRoYXd0ZSBQcmltYXJ5IFJvb3QgQ0EwHhcNMTMxMjEwMDAwMDAwWhcNMjMx
MjA5MjM1OTU5WjBMMQswCQYDVQQGEwJVUzEVMBMGA1UEChMMdGhhd3RlLCBJbmMu
MSYwJAYDVQQDEx10aGF3dGUgU0hBMjU2IENvZGUgU2lnbmluZyBDQTCCASIwDQYJ
KoZIhvcNAQEBBQADggEPADCCAQoCggEBAJtVAkwXBenQZsP8KK3TwP7v4Ol+1B72
qhuRRv31Fu2YB1P6uocbfZ4fASerudJnyrcQJVP0476bkLjtI1xC72QlWOWIIhq+
9ceu9b6KsRERkxoiqXRpwXS2aIengzD5ZPGx4zg+9NbB/BL+c1cXNVeK3VCNA/hm
zcp2gxPI1w5xHeRjyboX+NG55IjSLCjIISANQbcL4i/CgOaIe1Nsw0RjgX9oR4wr
Ks9b9IxJYbpphf1rAHgFJmkTMIA4TvFaVcnFUNaqOIlHQ1z+TXOlScWTaf53lpqv
84wOV7oz2Q7GQtMDd8S7Oa2R+fP3llw6ZKbtJ1fB6EDzU/K+KTT+X/kCAwEAAaOC
ARcwggETMC8GCCsGAQUFBwEBBCMwITAfBggrBgEFBQcwAYYTaHR0cDovL3QyLnN5
bWNiLmNvbTASBgNVHRMBAf8ECDAGAQH/AgEAMDIGA1UdHwQrMCkwJ6AloCOGIWh0
dHA6Ly90MS5zeW1jYi5jb20vVGhhd3RlUENBLmNybDAdBgNVHSUEFjAUBggrBgEF
BQcDAgYIKwYBBQUHAwMwDgYDVR0PAQH/BAQDAgEGMCkGA1UdEQQiMCCkHjAcMRow
GAYDVQQDExFTeW1hbnRlY1BLSS0xLTU2ODAdBgNVHQ4EFgQUV4abVLi+pimK5PbC
4hMYiYXN3LcwHwYDVR0jBBgwFoAUe1tFz6/Oy3r9MZIaarbzRutXSFAwDQYJKoZI
hvcNAQELBQADggEBACQ79degNhPHQ/7wCYdo0ZgxbhLkPx4flntrTB6HnovFbKOx
DHtQktWBnLGPLCm37vmRBbmOQfEs9tBZLZjgueqAAUdAlbg9nQO9ebs1tq2cTCf2
Z0UQycW8h05Ve9KHu93cMO/G1GzMmTVtHOBg081ojylZS4mWCEbJjvx1T8XcCcxO
J4tEzQe8rATgtTOlh5/03XMMkeoSgW/jdfAetZNsRBfVPpfJvQcsVncfhd1G6L/e
LIGUo/flt6fBN591ylV3TV42KcqF2EVBcld1wHlb+jQQBm1kIEK3OsgfHUZkAl/G
R77wxDooVNr2Hk+aohlDpG9J+PxeQiAohItHIG4=
-----END CERTIFICATE-----

Certificate:
    Data:
        Version: 3 (0x2)
        Serial Number:
            0e:cf:f4:38:c8:fe:bf:35:6e:04:d8:6a:98:1b:1a:50
    Signature Algorithm: sha1WithRSAEncryption
        Issuer: C=US, O=Symantec Corporation, CN=Symantec Time Stamping Services CA - G2
        Validity
            Not Before: Oct 18 00:00:00 2012 GMT
            Not After : Dec 29 23:59:59 2020 GMT
        Subject: C=US, O=Symantec Corporation, CN=Symantec Time Stamping Services Signer - G4
        Subject Public Key Info:
            Public Key Algorithm: rsaEncryption
                Public-Key: (2048 bit)
                Modulus:
                    00:a2:63:0b:39:44:b8:bb:23:a7:44:49:bb:0e:ff:
                    a1:f0:61:0a:53:93:b0:98:db:ad:2c:0f:4a:c5:6e:
                    ff:86:3c:53:55:0f:15:ce:04:3f:2b:fd:a9:96:96:
                    d9:be:61:79:0b:5b:c9:4c:86:76:e5:e0:43:4b:22:
                    95:ee:c2:2b:43:c1:9f:d8:68:b4:8e:40:4f:ee:85:
                    38:b9:11:c5:23:f2:64:58:f0:15:32:6f:4e:57:a1:
                    ae:88:a4:02:d7:2a:1e:cd:4b:e1:dd:63:d5:17:89:
                    32:5b:b0:5e:99:5a:a8:9d:28:50:0e:17:ee:96:db:
                    61:3b:45:51:1d:cf:12:56:0b:92:47:fc:ab:ae:f6:
                    66:3d:47:ac:70:72:e7:92:e7:5f:cd:10:b9:c4:83:
                    64:94:19:bd:25:80:e1:e8:d2:22:a5:d0:ba:02:7a:
                    a1:77:93:5b:65:c3:ee:17:74:bc:41:86:2a:dc:08:
                    4c:8c:92:8c:91:2d:9e:77:44:1f:68:d6:a8:74:77:
                    db:0e:5b:32:8b:56:8b:33:bd:d9:63:c8:49:9d:3a:
                    c5:c5:ea:33:0b:d2:f1:a3:1b:f4:8b:be:d9:b3:57:
                    8b:3b:de:04:a7:7a:22:b2:24:ae:2e:c7:70:c5:be:
                    4e:83:26:08:fb:0b:bd:a9:4f:99:08:e1:10:28:72:
                    aa:cd
                Exponent: 65537 (0x10001)
        X509v3 extensions:
            X509v3 Basic Constraints: critical
                CA:FALSE
            X509v3 Extended Key Usage: critical
                Time Stamping
            X509v3 Key Usage: critical
                Digital Signature
            Authority Information Access: 
                OCSP - URI:http://ts-ocsp.ws.symantec.com
                CA Issuers - URI:http://ts-aia.ws.symantec.com/tss-ca-g2.cer

            X509v3 CRL Distribution Points: 

                Full Name:
                  URI:http://ts-crl.ws.symantec.com/tss-ca-g2.crl

            X509v3 Subject Alternative Name: 
                DirName:/CN=TimeStamp-2048-2
            X509v3 Subject Key Identifier: 
                46:C6:69:A3:0E:4A:14:1E:D5:4C:DA:52:63:17:3F:5E:36:BC:0D:E6
            X509v3 Authority Key Identifier: 
                keyid:5F:9A:F5:6E:5C:CC:CC:74:9A:D4:DD:7D:EF:3F:DB:EC:4C:80:2E:DD

    Signature Algorithm: sha1WithRSAEncryption
         78:3b:b4:91:2a:00:4c:f0:8f:62:30:37:78:a3:84:27:07:6f:
         18:b2:de:25:dc:a0:d4:94:03:aa:86:4e:25:9f:9a:40:03:1c:
         dd:ce:e3:79:cb:21:68:06:da:b6:32:b4:6d:bf:f4:2c:26:63:
         33:e4:49:64:6d:0d:e6:c3:67:0e:f7:05:a4:35:6c:7c:89:16:
         c6:e9:b2:df:b2:e9:dd:20:c6:71:0f:cd:95:74:dc:b6:5c:de:
         bd:37:1f:43:78:e6:78:b5:cd:28:04:20:a3:aa:f1:4b:c4:88:
         29:91:0e:80:d1:11:fc:dd:5c:76:6e:4f:5e:0e:45:46:41:6e:
         0d:b0:ea:38:9a:b1:3a:da:09:71:10:fc:1c:79:b4:80:7b:ac:
         69:f4:fd:9c:b6:0c:16:2b:f1:7f:5b:09:3d:9b:5b:e2:16:ca:
         13:81:6d:00:2e:38:0d:a8:29:8f:2c:e1:b2:f4:5a:a9:01:af:
         15:9c:2c:2f:49:1b:db:22:bb:c3:fe:78:94:51:c3:86:b1:82:
         88:5d:f0:3d:b4:51:a1:79:33:2b:2e:7b:b9:dc:20:09:13:71:
         eb:6a:19:5b:cf:e8:a5:30:57:2c:89:49:3f:b9:cf:7f:c9:bf:
         3e:22:68:63:53:9a:bd:69:74:ac:c5:1d:3c:7f:92:e0:c3:bc:
         1c:d8:04:75
-----BEGIN CERTIFICATE-----
MIIEozCCA4ugAwIBAgIQDs/0OMj+vzVuBNhqmBsaUDANBgkqhkiG9w0BAQUFADBe
MQswCQYDVQQGEwJVUzEdMBsGA1UEChMUU3ltYW50ZWMgQ29ycG9yYXRpb24xMDAu
BgNVBAMTJ1N5bWFudGVjIFRpbWUgU3RhbXBpbmcgU2VydmljZXMgQ0EgLSBHMjAe
Fw0xMjEwMTgwMDAwMDBaFw0yMDEyMjkyMzU5NTlaMGIxCzAJBgNVBAYTAlVTMR0w
GwYDVQQKExRTeW1hbnRlYyBDb3Jwb3JhdGlvbjE0MDIGA1UEAxMrU3ltYW50ZWMg
VGltZSBTdGFtcGluZyBTZXJ2aWNlcyBTaWduZXIgLSBHNDCCASIwDQYJKoZIhvcN
AQEBBQADggEPADCCAQoCggEBAKJjCzlEuLsjp0RJuw7/ofBhClOTsJjbrSwPSsVu
/4Y8U1UPFc4EPyv9qZaW2b5heQtbyUyGduXgQ0sile7CK0PBn9hotI5AT+6FOLkR
xSPyZFjwFTJvTlehroikAtcqHs1L4d1j1ReJMluwXplaqJ0oUA4X7pbbYTtFUR3P
ElYLkkf8q672Zj1HrHBy55LnX80QucSDZJQZvSWA4ejSIqXQugJ6oXeTW2XD7hd0
vEGGKtwITIySjJEtnndEH2jWqHR32w5bMotWizO92WPISZ06xcXqMwvS8aMb9Iu+
2bNXizveBKd6IrIkri7HcMW+ToMmCPsLvalPmQjhEChyqs0CAwEAAaOCAVcwggFT
MAwGA1UdEwEB/wQCMAAwFgYDVR0lAQH/BAwwCgYIKwYBBQUHAwgwDgYDVR0PAQH/
BAQDAgeAMHMGCCsGAQUFBwEBBGcwZTAqBggrBgEFBQcwAYYeaHR0cDovL3RzLW9j
c3Aud3Muc3ltYW50ZWMuY29tMDcGCCsGAQUFBzAChitodHRwOi8vdHMtYWlhLndz
LnN5bWFudGVjLmNvbS90c3MtY2EtZzIuY2VyMDwGA1UdHwQ1MDMwMaAvoC2GK2h0
dHA6Ly90cy1jcmwud3Muc3ltYW50ZWMuY29tL3Rzcy1jYS1nMi5jcmwwKAYDVR0R
BCEwH6QdMBsxGTAXBgNVBAMTEFRpbWVTdGFtcC0yMDQ4LTIwHQYDVR0OBBYEFEbG
aaMOShQe1UzaUmMXP142vA3mMB8GA1UdIwQYMBaAFF+a9W5czMx0mtTdfe8/2+xM
gC7dMA0GCSqGSIb3DQEBBQUAA4IBAQB4O7SRKgBM8I9iMDd4o4QnB28Yst4l3KDU
lAOqhk4ln5pAAxzdzuN5yyFoBtq2MrRtv/QsJmMz5ElkbQ3mw2cO9wWkNWx8iRbG
6bLfsundIMZxD82VdNy2XN69Nx9DeOZ4tc0oBCCjqvFLxIgpkQ6A0RH83Vx2bk9e
DkVGQW4NsOo4mrE62glxEPwcebSAe6xp9P2ctgwWK/F/Wwk9m1viFsoTgW0ALjgN
qCmPLOGy9FqpAa8VnCwvSRvbIrvD/niUUcOGsYKIXfA9tFGheTMrLnu53CAJE3Hr
ahlbz+ilMFcsiUk/uc9/yb8+ImhjU5q9aXSsxR08f5Lgw7wc2AR1
-----END CERTIFICATE-----

Certificate:
    Data:
        Version: 3 (0x2)
        Serial Number:
            6a:8e:93:17:25:24:48:a6:eb:d8:dc:53:a4:42:8c:c6
    Signature Algorithm: sha256WithRSAEncryption
        Issuer: C=US, O=thawte, Inc., CN=thawte SHA256 Code Signing CA
        Validity
            Not Before: Dec 30 00:00:00 2016 GMT
            Not After : Jan 29 23:59:59 2018 GMT
        Subject: C=KR, ST=SEOUL, L=Guro-gu, O=DreamWiz Internet Co.,Ltd, OU=IT Team, CN=DreamWiz Internet Co.,Ltd
        Subject Public Key Info:
            Public Key Algorithm: rsaEncryption
                Public-Key: (2048 bit)
                Modulus:
                    00:ce:cf:27:b6:58:d7:e5:43:ea:d1:52:54:26:10:
                    4b:91:3f:5a:93:2a:fd:24:d2:f5:d2:71:24:a1:ec:
                    73:35:97:4b:91:14:2b:07:88:63:09:42:0c:f4:b2:
                    eb:91:e3:20:e1:7c:bd:5d:9a:d2:6f:84:1e:20:48:
                    69:26:62:18:11:f9:12:fd:a1:52:70:63:e9:4e:35:
                    e3:a4:46:57:1d:ad:24:7e:a8:d8:2a:c5:a4:5b:a6:
                    63:0c:65:31:ff:f5:46:a3:b6:5c:35:37:da:54:5d:
                    3a:f5:87:0b:1a:bf:b9:c6:1b:8c:7f:30:bc:d8:34:
                    24:35:48:bd:d1:d6:61:c1:ae:48:3d:00:28:b3:34:
                    3a:45:96:c7:11:f8:77:63:a5:ea:b4:a3:bf:21:1f:
                    13:ee:b8:89:66:90:54:4a:48:2b:6b:eb:9c:9d:11:
                    25:6e:c6:09:87:92:56:90:f4:76:a3:6d:ad:20:81:
                    4e:db:8a:0b:d4:8f:0c:e1:6c:64:b8:fd:18:70:08:
                    7d:b5:57:ac:c1:4e:2f:36:37:e3:33:55:b8:a4:80:
                    2f:e7:05:c4:98:ad:91:7d:16:0f:e7:67:c2:8a:69:
                    0c:b8:e5:d7:c9:ff:33:ff:88:1a:bf:c1:33:6c:ce:
                    ca:a2:a1:64:be:d4:50:8e:16:06:5b:10:25:6e:b8:
                    05:45
                Exponent: 65537 (0x10001)
        X509v3 extensions:
            X509v3 Basic Constraints: 
                CA:FALSE
            X509v3 Authority Key Identifier: 
                keyid:57:86:9B:54:B8:BE:A6:29:8A:E4:F6:C2:E2:13:18:89:85:CD:DC:B7

            X509v3 Subject Key Identifier: 
                E0:87:D8:59:D9:C2:EA:E9:7D:36:A4:09:89:39:B6:05:00:92:B4:67
            X509v3 CRL Distribution Points: 

                Full Name:
                  URI:http://tl.symcb.com/tl.crl

            X509v3 Key Usage: critical
                Digital Signature
            X509v3 Extended Key Usage: 
                Code Signing
            X509v3 Certificate Policies: 
                Policy: 2.23.140.1.4.1
                  CPS: https://www.thawte.com/cps
                  User Notice:
                    Explicit Text: https://www.thawte.com/repository

            Authority Information Access: 
                OCSP - URI:http://tl.symcd.com
                CA Issuers - URI:http://tl.symcb.com/tl.crt

    Signature Algorithm: sha256WithRSAEncryption
         8b:0c:ac:46:ef:4b:91:41:02:15:ca:15:88:95:18:8f:92:3b:
         cd:e5:31:ea:fd:ce:44:96:c4:2a:50:ea:3a:4e:d2:7e:5e:34:
         a4:2f:19:a7:7a:23:1c:64:f6:31:ad:81:46:45:f1:99:12:f3:
         55:75:54:92:62:a8:4f:ec:0f:75:0e:e5:88:89:d0:20:7d:61:
         0f:4b:a1:da:3b:04:d6:89:20:eb:5c:da:af:ee:da:1f:48:c6:
         51:31:5c:9f:7a:11:b1:aa:60:f9:51:f8:27:8e:1b:19:3a:2f:
         3a:52:e7:57:c3:a3:cf:4d:a7:9f:47:bb:38:ac:a2:9e:a7:d9:
         bd:ba:3b:97:89:af:ce:70:f4:a1:c4:c3:bb:66:3f:54:58:28:
         e4:e2:9d:ea:8b:32:8a:e9:f0:82:75:0b:4e:d3:a2:b1:7a:25:
         8d:ea:40:b3:44:19:d1:97:f3:37:fe:ab:e6:9e:e0:0c:d3:72:
         66:4d:c8:67:5f:74:bd:7e:38:79:30:64:f6:20:4a:7a:81:b5:
         75:a0:63:56:c2:48:27:df:ad:2c:74:75:c4:aa:43:0a:eb:94:
         2d:7d:76:19:32:ed:9e:13:d2:03:4b:c8:e1:75:c7:15:78:10:
         c7:3d:db:74:86:10:60:62:61:e8:a2:f4:37:54:5e:92:12:55:
         90:7c:8d:df
-----BEGIN CERTIFICATE-----
MIIEzDCCA7SgAwIBAgIQao6TFyUkSKbr2NxTpEKMxjANBgkqhkiG9w0BAQsFADBM
MQswCQYDVQQGEwJVUzEVMBMGA1UEChMMdGhhd3RlLCBJbmMuMSYwJAYDVQQDEx10
aGF3dGUgU0hBMjU2IENvZGUgU2lnbmluZyBDQTAeFw0xNjEyMzAwMDAwMDBaFw0x
ODAxMjkyMzU5NTlaMIGJMQswCQYDVQQGEwJLUjEOMAwGA1UECAwFU0VPVUwxEDAO
BgNVBAcMB0d1cm8tZ3UxIjAgBgNVBAoMGURyZWFtV2l6IEludGVybmV0IENvLixM
dGQxEDAOBgNVBAsMB0lUIFRlYW0xIjAgBgNVBAMMGURyZWFtV2l6IEludGVybmV0
IENvLixMdGQwggEiMA0GCSqGSIb3DQEBAQUAA4IBDwAwggEKAoIBAQDOzye2WNfl
Q+rRUlQmEEuRP1qTKv0k0vXScSSh7HM1l0uRFCsHiGMJQgz0suuR4yDhfL1dmtJv
hB4gSGkmYhgR+RL9oVJwY+lONeOkRlcdrSR+qNgqxaRbpmMMZTH/9Uajtlw1N9pU
XTr1hwsav7nGG4x/MLzYNCQ1SL3R1mHBrkg9ACizNDpFlscR+Hdjpeq0o78hHxPu
uIlmkFRKSCtr65ydESVuxgmHklaQ9Hajba0ggU7bigvUjwzhbGS4/RhwCH21V6zB
Ti82N+MzVbikgC/nBcSYrZF9Fg/nZ8KKaQy45dfJ/zP/iBq/wTNszsqioWS+1FCO
FgZbECVuuAVFAgMBAAGjggFqMIIBZjAJBgNVHRMEAjAAMB8GA1UdIwQYMBaAFFeG
m1S4vqYpiuT2wuITGImFzdy3MB0GA1UdDgQWBBTgh9hZ2cLq6X02pAmJObYFAJK0
ZzArBgNVHR8EJDAiMCCgHqAchhpodHRwOi8vdGwuc3ltY2IuY29tL3RsLmNybDAO
BgNVHQ8BAf8EBAMCB4AwEwYDVR0lBAwwCgYIKwYBBQUHAwMwbgYDVR0gBGcwZTBj
BgZngQwBBAEwWTAmBggrBgEFBQcCARYaaHR0cHM6Ly93d3cudGhhd3RlLmNvbS9j
cHMwLwYIKwYBBQUHAgIwIwwhaHR0cHM6Ly93d3cudGhhd3RlLmNvbS9yZXBvc2l0
b3J5MFcGCCsGAQUFBwEBBEswSTAfBggrBgEFBQcwAYYTaHR0cDovL3RsLnN5bWNk
LmNvbTAmBggrBgEFBQcwAoYaaHR0cDovL3RsLnN5bWNiLmNvbS90bC5jcnQwDQYJ
KoZIhvcNAQELBQADggEBAIsMrEbvS5FBAhXKFYiVGI+SO83lMer9zkSWxCpQ6jpO
0n5eNKQvGad6Ixxk9jGtgUZF8ZkS81V1VJJiqE/sD3UO5YiJ0CB9YQ9Lodo7BNaJ
IOtc2q/u2h9IxlExXJ96EbGqYPlR+CeOGxk6LzpS51fDo89Np59Huzisop6n2b26
O5eJr85w9KHEw7tmP1RYKOTineqLMorp8IJ1C07TorF6JY3qQLNEGdGX8zf+q+ae
4AzTcmZNyGdfdL1+OHkwZPYgSnqBtXWgY1bCSCffrSx0dcSqQwrrlC19dhky7Z4T
0gNLyOF1xxV4EMc923SGEGBiYeii9DdUXpISVZB8jd8=
-----END CERTIFICATE-----

