Certificate:
    Data:
        Version: 3 (0x2)
        Serial Number:
            65:52:26:e1:b2:2e:18:e1:59:0f:29:85:ac:22:e7:5c
    Signature Algorithm: sha1WithRSAEncryption
        Issuer: C=US, O=VeriSign, Inc., OU=Class 3 Public Primary Certification Authority
        Validity
            Not Before: May 21 00:00:00 2009 GMT
            Not After : May 20 23:59:59 2019 GMT
        Subject: C=US, O=VeriSign, Inc., OU=VeriSign Trust Network, OU=Terms of use at https://www.verisign.com/rpa (c)09, CN=VeriSign Class 3 Code Signing 2009-2 CA
        Subject Public Key Info:
            Public Key Algorithm: rsaEncryption
                Public-Key: (2048 bit)
                Modulus:
                    00:be:67:1d:b4:60:aa:10:49:6f:56:17:7c:66:c9:
                    5e:86:0d:d5:f1:ac:a7:71:83:8e:8b:89:f8:88:04:
                    89:15:06:ba:2d:84:21:95:e4:d1:9c:50:4c:fb:d2:
                    22:bd:da:f2:b2:35:3b:1e:8f:c3:09:fb:fc:13:2e:
                    5a:bf:89:7c:3d:3b:25:1e:f6:f3:58:7b:9c:f4:01:
                    b5:c6:0a:b8:80:ce:be:27:74:61:67:27:4d:6a:e5:
                    ec:81:61:58:79:a3:e0:17:10:12:15:27:b0:e1:4d:
                    34:7f:2b:47:20:44:b9:de:66:24:66:8a:cd:4f:ba:
                    1f:c5:38:c8:54:90:e1:72:f6:19:66:75:6a:b9:49:
                    68:cf:38:79:0d:aa:30:a8:db:2c:60:48:9e:d7:aa:
                    14:01:a9:83:d7:38:91:30:39:13:96:03:3a:7c:40:
                    54:b6:ad:e0:2f:1b:83:dc:a8:11:52:3e:02:b3:d7:
                    2b:fd:21:b6:a7:5c:a3:0f:0b:a9:a6:10:50:0e:34:
                    2e:4d:a7:ce:c9:5e:25:d4:8c:bc:f3:6e:7c:29:bc:
                    01:5d:fc:31:87:5a:d5:8c:85:67:58:88:19:a0:bf:
                    35:f0:ea:2b:a3:21:e7:90:f6:83:e5:a8:ed:60:78:
                    5e:7b:60:83:fd:57:0b:5d:41:0d:63:54:60:d6:43:
                    21:ef
                Exponent: 65537 (0x10001)
        X509v3 extensions:
            X509v3 Basic Constraints: critical
                CA:TRUE, pathlen:0
            X509v3 Certificate Policies: 
                Policy: 2.16.840.1.113733.1.7.23.3
                  CPS: https://www.verisign.com/cps
                  User Notice:
                    Explicit Text: https://www.verisign.com/rpa

            X509v3 Key Usage: critical
                Certificate Sign, CRL Sign
            1.3.6.1.5.5.7.1.12: 
                0_.].[0Y0W0U..image/gif0!0.0...+..............k...j.H.,{..0%.#http://logo.verisign.com/vslogo.gif
            X509v3 Extended Key Usage: 
                TLS Web Client Authentication, Code Signing
            Authority Information Access: 
                OCSP - URI:http://ocsp.verisign.com

            X509v3 CRL Distribution Points: 

                Full Name:
                  URI:http://crl.verisign.com/pca3.crl

            X509v3 Subject Alternative Name: 
                DirName:/CN=Class3CA2048-1-55
            X509v3 Subject Key Identifier: 
                97:D0:6B:A8:26:70:C8:A1:3F:94:1F:08:2D:C4:35:9B:A4:A1:1E:F2
    Signature Algorithm: sha1WithRSAEncryption
         8b:03:c0:dd:94:d8:41:a2:61:69:b0:15:a8:78:c7:30:c6:90:
         3c:7e:42:f7:24:b6:e4:83:73:17:04:7f:04:10:9c:a1:e2:fa:
         81:2f:eb:c0:ca:44:e7:72:e0:50:b6:55:10:20:83:6e:96:92:
         e4:9a:51:6a:b4:37:31:dc:a5:2d:eb:8c:00:c7:1d:4f:e7:4d:
         32:ba:85:f8:4e:be:fa:67:55:65:f0:6a:be:7a:ca:64:38:1a:
         10:10:78:45:76:31:f3:86:7a:03:0f:60:c2:b3:5d:9d:f6:8b:
         66:76:82:1b:59:e1:83:e5:bd:49:a5:38:56:e5:de:41:77:0e:
         58:0f
-----BEGIN CERTIFICATE-----
MIIE/DCCBGWgAwIBAgIQZVIm4bIuGOFZDymFrCLnXDANBgkqhkiG9w0BAQUFADBf
MQswCQYDVQQGEwJVUzEXMBUGA1UEChMOVmVyaVNpZ24sIEluYy4xNzA1BgNVBAsT
LkNsYXNzIDMgUHVibGljIFByaW1hcnkgQ2VydGlmaWNhdGlvbiBBdXRob3JpdHkw
HhcNMDkwNTIxMDAwMDAwWhcNMTkwNTIwMjM1OTU5WjCBtjELMAkGA1UEBhMCVVMx
FzAVBgNVBAoTDlZlcmlTaWduLCBJbmMuMR8wHQYDVQQLExZWZXJpU2lnbiBUcnVz
dCBOZXR3b3JrMTswOQYDVQQLEzJUZXJtcyBvZiB1c2UgYXQgaHR0cHM6Ly93d3cu
dmVyaXNpZ24uY29tL3JwYSAoYykwOTEwMC4GA1UEAxMnVmVyaVNpZ24gQ2xhc3Mg
MyBDb2RlIFNpZ25pbmcgMjAwOS0yIENBMIIBIjANBgkqhkiG9w0BAQEFAAOCAQ8A
MIIBCgKCAQEAvmcdtGCqEElvVhd8Zslehg3V8ayncYOOi4n4iASJFQa6LYQhleTR
nFBM+9IivdrysjU7Ho/DCfv8Ey5av4l8PTslHvbzWHuc9AG1xgq4gM6+J3RhZydN
auXsgWFYeaPgFxASFSew4U00fytHIES53mYkZorNT7ofxTjIVJDhcvYZZnVquUlo
zzh5DaowqNssYEie16oUAamD1ziRMDkTlgM6fEBUtq3gLxuD3KgRUj4Cs9cr/SG2
p1yjDwupphBQDjQuTafOyV4l1Iy88258KbwBXfwxh1rVjIVnWIgZoL818OoroyHn
kPaD5ajtYHhee2CD/VcLXUENY1Rg1kMh7wIDAQABo4IB2zCCAdcwEgYDVR0TAQH/
BAgwBgEB/wIBADBwBgNVHSAEaTBnMGUGC2CGSAGG+EUBBxcDMFYwKAYIKwYBBQUH
AgEWHGh0dHBzOi8vd3d3LnZlcmlzaWduLmNvbS9jcHMwKgYIKwYBBQUHAgIwHhoc
aHR0cHM6Ly93d3cudmVyaXNpZ24uY29tL3JwYTAOBgNVHQ8BAf8EBAMCAQYwbQYI
KwYBBQUHAQwEYTBfoV2gWzBZMFcwVRYJaW1hZ2UvZ2lmMCEwHzAHBgUrDgMCGgQU
j+XTGoasjY5rw8+AatRIGCx7GS4wJRYjaHR0cDovL2xvZ28udmVyaXNpZ24uY29t
L3ZzbG9nby5naWYwHQYDVR0lBBYwFAYIKwYBBQUHAwIGCCsGAQUFBwMDMDQGCCsG
AQUFBwEBBCgwJjAkBggrBgEFBQcwAYYYaHR0cDovL29jc3AudmVyaXNpZ24uY29t
MDEGA1UdHwQqMCgwJqAkoCKGIGh0dHA6Ly9jcmwudmVyaXNpZ24uY29tL3BjYTMu
Y3JsMCkGA1UdEQQiMCCkHjAcMRowGAYDVQQDExFDbGFzczNDQTIwNDgtMS01NTAd
BgNVHQ4EFgQUl9BrqCZwyKE/lB8ILcQ1m6ShHvIwDQYJKoZIhvcNAQEFBQADgYEA
iwPA3ZTYQaJhabAVqHjHMMaQPH5C9yS25INzFwR/BBCcoeL6gS/rwMpE53LgULZV
ECCDbpaS5JpRarQ3MdylLeuMAMcdT+dNMrqF+E6++mdVZfBqvnrKZDgaEBB4RXYx
84Z6Aw9gwrNdnfaLZnaCG1nhg+W9SaU4VuXeQXcOWA8=
-----END CERTIFICATE-----

Certificate:
    Data:
        Version: 3 (0x2)
        Serial Number:
            0b:a4:bc:43:99:30:34:6b:95:69:4b:4c:7f:2b:98:1b
    Signature Algorithm: sha1WithRSAEncryption
        Issuer: C=US, O=VeriSign, Inc., OU=VeriSign Trust Network, OU=Terms of use at https://www.verisign.com/rpa (c)09, CN=VeriSign Class 3 Code Signing 2009-2 CA
        Validity
            Not Before: Jun 22 00:00:00 2009 GMT
            Not After : Jun 21 23:59:59 2012 GMT
        Subject: C=CN, ST=Guangdong, L=Zhuhai, O=Zhuhai  Kingsoft Software Co.,Ltd, OU=Digital ID Class 3 - Microsoft Software Validation v2, CN=Zhuhai  Kingsoft Software Co.,Ltd
        Subject Public Key Info:
            Public Key Algorithm: rsaEncryption
                Public-Key: (1024 bit)
                Modulus:
                    00:9c:d6:2a:1b:65:f7:66:6d:ad:27:f9:66:b1:18:
                    e9:85:86:61:08:2b:4b:10:39:47:92:2e:8d:23:27:
                    98:d2:01:55:15:26:63:1b:6c:af:b9:d3:e7:19:1c:
                    a9:2c:36:df:99:63:0d:33:fb:ff:d2:9b:f5:73:28:
                    a2:b4:b9:48:6f:13:b0:c6:8f:76:7f:c3:f1:35:65:
                    a0:28:9b:3e:7b:d3:d7:14:ea:31:3d:1c:19:c4:8c:
                    df:f3:41:85:fa:d2:c4:d7:55:49:07:8f:76:e9:91:
                    f6:d6:70:47:b0:f9:77:2a:51:50:ad:20:2c:ef:d9:
                    cd:35:4f:b0:9e:43:89:18:b1
                Exponent: 65537 (0x10001)
        X509v3 extensions:
            X509v3 Basic Constraints: 
                CA:FALSE
            X509v3 Key Usage: critical
                Digital Signature
            X509v3 CRL Distribution Points: 

                Full Name:
                  URI:http://csc3-2009-2-crl.verisign.com/CSC3-2009-2.crl

            X509v3 Certificate Policies: 
                Policy: 2.16.840.1.113733.1.7.23.3
                  CPS: https://www.verisign.com/rpa

            X509v3 Extended Key Usage: 
                Code Signing
            Authority Information Access: 
                OCSP - URI:http://ocsp.verisign.com
                CA Issuers - URI:http://csc3-2009-2-aia.verisign.com/CSC3-2009-2.cer

            X509v3 Authority Key Identifier: 
                keyid:97:D0:6B:A8:26:70:C8:A1:3F:94:1F:08:2D:C4:35:9B:A4:A1:1E:F2

            Netscape Cert Type: 
                Object Signing
            1.3.6.1.4.1.311.2.1.27: 
                0.......
    Signature Algorithm: sha1WithRSAEncryption
         6b:39:db:41:30:62:cc:21:c9:c4:53:74:e1:97:ff:c6:30:72:
         aa:8a:75:6c:56:7c:8c:e0:e0:ee:98:c8:e3:c0:ee:99:8b:58:
         91:66:cd:99:f1:37:06:3a:68:57:30:90:3f:61:13:43:36:56:
         c4:85:95:de:25:98:c5:8c:19:b8:d8:75:f4:58:b8:f0:31:b6:
         c8:06:65:23:ac:55:79:48:71:c7:2e:7a:2a:3f:e4:b3:2c:73:
         a3:0f:c8:57:f1:d5:4e:0e:95:2f:6c:3f:dd:fe:a3:3f:75:da:
         7a:2d:ea:18:19:de:be:83:f0:fb:d1:76:36:c3:f7:45:17:fc:
         19:19:54:1c:ec:83:d9:99:eb:6b:a5:39:f9:c3:f2:41:18:6a:
         16:38:3f:77:bf:ba:58:d6:a3:e0:0c:21:27:4b:0b:72:bf:98:
         ff:bb:80:1c:5c:c2:9f:58:1b:e6:68:e9:55:99:4a:46:87:08:
         3f:78:b3:7b:e6:98:52:cd:70:7a:13:77:03:81:b8:76:e0:84:
         58:31:79:72:f6:11:db:07:d4:7a:47:4d:d0:29:65:b0:c6:28:
         ac:c6:9c:e6:6e:b2:79:74:39:5a:8a:59:f3:46:1f:ef:24:5a:
         32:81:26:46:16:0a:73:8c:f4:64:70:88:39:51:1a:8e:34:66:
         78:55:cf:31
-----BEGIN CERTIFICATE-----
MIIFDTCCA/WgAwIBAgIQC6S8Q5kwNGuVaUtMfyuYGzANBgkqhkiG9w0BAQUFADCB
tjELMAkGA1UEBhMCVVMxFzAVBgNVBAoTDlZlcmlTaWduLCBJbmMuMR8wHQYDVQQL
ExZWZXJpU2lnbiBUcnVzdCBOZXR3b3JrMTswOQYDVQQLEzJUZXJtcyBvZiB1c2Ug
YXQgaHR0cHM6Ly93d3cudmVyaXNpZ24uY29tL3JwYSAoYykwOTEwMC4GA1UEAxMn
VmVyaVNpZ24gQ2xhc3MgMyBDb2RlIFNpZ25pbmcgMjAwOS0yIENBMB4XDTA5MDYy
MjAwMDAwMFoXDTEyMDYyMTIzNTk1OVowgcoxCzAJBgNVBAYTAkNOMRIwEAYDVQQI
EwlHdWFuZ2RvbmcxDzANBgNVBAcTBlpodWhhaTEqMCgGA1UEChQhWmh1aGFpICBL
aW5nc29mdCBTb2Z0d2FyZSBDby4sTHRkMT4wPAYDVQQLEzVEaWdpdGFsIElEIENs
YXNzIDMgLSBNaWNyb3NvZnQgU29mdHdhcmUgVmFsaWRhdGlvbiB2MjEqMCgGA1UE
AxQhWmh1aGFpICBLaW5nc29mdCBTb2Z0d2FyZSBDby4sTHRkMIGfMA0GCSqGSIb3
DQEBAQUAA4GNADCBiQKBgQCc1iobZfdmba0n+WaxGOmFhmEIK0sQOUeSLo0jJ5jS
AVUVJmMbbK+50+cZHKksNt+ZYw0z+//Sm/VzKKK0uUhvE7DGj3Z/w/E1ZaAomz57
09cU6jE9HBnEjN/zQYX60sTXVUkHj3bpkfbWcEew+XcqUVCtICzv2c01T7CeQ4kY
sQIDAQABo4IBgzCCAX8wCQYDVR0TBAIwADAOBgNVHQ8BAf8EBAMCB4AwRAYDVR0f
BD0wOzA5oDegNYYzaHR0cDovL2NzYzMtMjAwOS0yLWNybC52ZXJpc2lnbi5jb20v
Q1NDMy0yMDA5LTIuY3JsMEQGA1UdIAQ9MDswOQYLYIZIAYb4RQEHFwMwKjAoBggr
BgEFBQcCARYcaHR0cHM6Ly93d3cudmVyaXNpZ24uY29tL3JwYTATBgNVHSUEDDAK
BggrBgEFBQcDAzB1BggrBgEFBQcBAQRpMGcwJAYIKwYBBQUHMAGGGGh0dHA6Ly9v
Y3NwLnZlcmlzaWduLmNvbTA/BggrBgEFBQcwAoYzaHR0cDovL2NzYzMtMjAwOS0y
LWFpYS52ZXJpc2lnbi5jb20vQ1NDMy0yMDA5LTIuY2VyMB8GA1UdIwQYMBaAFJfQ
a6gmcMihP5QfCC3ENZukoR7yMBEGCWCGSAGG+EIBAQQEAwIEEDAWBgorBgEEAYI3
AgEbBAgwBgEBAAEB/zANBgkqhkiG9w0BAQUFAAOCAQEAaznbQTBizCHJxFN04Zf/
xjByqop1bFZ8jODg7pjI48DumYtYkWbNmfE3BjpoVzCQP2ETQzZWxIWV3iWYxYwZ
uNh19Fi48DG2yAZlI6xVeUhxxy56Kj/ksyxzow/IV/HVTg6VL2w/3f6jP3Xaei3q
GBnevoPw+9F2NsP3RRf8GRlUHOyD2Znra6U5+cPyQRhqFjg/d7+6WNaj4AwhJ0sL
cr+Y/7uAHFzCn1gb5mjpVZlKRocIP3ize+aYUs1wehN3A4G4duCEWDF5cvYR2wfU
ekdN0CllsMYorMac5m6yeXQ5WopZ80Yf7yRaMoEmRhYKc4z0ZHCIOVEajjRmeFXP
MQ==
-----END CERTIFICATE-----

