Certificate:
    Data:
        Version: 3 (0x2)
        Serial Number:
            04:00:00:00:00:01:2f:4e:e1:52:d7
    Signature Algorithm: sha1WithRSAEncryption
        Issuer: C=BE, O=GlobalSign nv-sa, OU=Root CA, CN=GlobalSign Root CA
        Validity
            Not Before: Apr 13 10:00:00 2011 GMT
            Not After : Jan 28 12:00:00 2028 GMT
        Subject: C=BE, O=GlobalSign nv-sa, CN=GlobalSign Timestamping CA - G2
        Subject Public Key Info:
            Public Key Algorithm: rsaEncryption
                Public-Key: (2048 bit)
                Modulus:
                    00:94:ef:65:f8:b5:57:9f:a0:53:0d:34:06:eb:09:
                    1f:b7:47:18:6a:cb:f0:5b:e4:ff:27:a5:34:d1:f7:
                    89:1a:bf:9e:b1:cd:12:41:6e:66:d4:81:a0:85:8b:
                    64:5a:46:2f:99:a0:8d:77:b1:e2:bc:5c:dd:22:d7:
                    6a:67:d0:bb:e8:ca:74:de:8b:4f:0d:b0:52:e5:90:
                    5b:eb:47:0e:f1:e7:9f:9c:0b:90:65:3e:17:96:30:
                    45:72:6d:39:a1:17:36:ca:b9:a0:8c:1b:4f:08:19:
                    f6:81:31:ad:61:16:a4:62:e6:b4:40:9e:c3:fc:fb:
                    95:f6:fb:b5:2e:95:81:98:e0:ef:c5:eb:d8:02:59:
                    78:77:f7:aa:e3:52:6b:50:91:29:c5:fc:f7:cd:93:
                    65:d2:60:61:22:f2:06:fb:32:dd:16:51:fa:0e:fd:
                    8a:30:f0:17:09:a7:bb:f3:04:ae:ab:90:e7:6c:df:
                    7a:a9:f4:ef:c4:62:27:5f:6f:99:6d:38:74:aa:11:
                    8b:da:df:c7:14:4c:e9:85:b2:ec:c2:7d:4a:26:8f:
                    e7:56:ba:a6:e0:cf:92:53:80:74:f4:03:ec:68:b2:
                    60:bc:84:20:00:83:1b:a1:ee:b4:74:05:c1:29:8e:
                    62:d0:47:b1:fa:f0:53:cc:18:f9:2e:3b:f9:70:7e:
                    b4:25
                Exponent: 65537 (0x10001)
        X509v3 extensions:
            X509v3 Key Usage: critical
                Certificate Sign, CRL Sign
            X509v3 Basic Constraints: critical
                CA:TRUE, pathlen:0
            X509v3 Subject Key Identifier: 
                46:D8:3E:FF:DC:E3:BE:FF:83:E6:F4:85:9B:B0:DD:6A:D6:14:A9:C1
            X509v3 Certificate Policies: 
                Policy: X509v3 Any Policy
                  CPS: https://www.globalsign.com/repository/

            X509v3 CRL Distribution Points: 

                Full Name:
                  URI:http://crl.globalsign.net/root.crl

            X509v3 Authority Key Identifier: 
                keyid:60:7B:66:1A:45:0D:97:CA:89:50:2F:7D:04:CD:34:A8:FF:FC:FD:4B

    Signature Algorithm: sha1WithRSAEncryption
         4e:5e:56:90:1e:46:b4:d9:49:31:f3:bb:17:39:28:1b:c2:16:
         dd:fd:41:dc:09:05:04:9b:6f:b2:a2:9a:d6:99:2e:40:99:00:
         55:b5:ea:3f:a5:20:76:d3:86:34:d4:17:cc:55:3a:c7:82:ee:
         ef:a8:ba:bc:d8:06:9f:15:50:df:cd:16:7b:52:3a:02:d7:19:
         1a:fd:af:f0:78:5c:e0:4b:c5:18:df:3a:24:1e:da:ac:b8:a9:
         58:04:02:07:30:db:b0:12:5e:fe:31:be:f0:04:48:f4:f0:70:
         f8:3a:5e:56:83:cf:3d:fb:0d:bc:f4:c5:ed:97:9d:b9:d4:db:
         a5:27:84:e3:38:9b:8b:a7:35:86:44:20:a4:3b:6d:a4:6a:0b:
         a1:83:fd:28:eb:da:ef:28:f6:cc:88:5d:fb:0a:3b:00:ab:e0:
         21:eb:e2:2f:35:6c:0f:8e:34:45:97:eb:a2:f7:99:33:35:7e:
         cb:9a:8a:bb:45:4d:e7:3f:9f:c2:d9:8a:fa:65:b2:6e:c7:7e:
         65:ff:e8:92:e1:2c:31:a2:f7:b0:27:36:48:8f:26:6f:3b:ee:
         4d:76:1f:79:c3:e5:7f:96:35:bc:2d:0e:cc:01:b0:8e:7f:ff:
         51:80:80:a7:92:d4:b3:44:46:64:8c:87:4f:16:63:07:31:4b:
         63:b0:df:f3
-----BEGIN CERTIFICATE-----
MIIEFDCCAvygAwIBAgILBAAAAAABL07hUtcwDQYJKoZIhvcNAQEFBQAwVzELMAkG
A1UEBhMCQkUxGTAXBgNVBAoTEEdsb2JhbFNpZ24gbnYtc2ExEDAOBgNVBAsTB1Jv
b3QgQ0ExGzAZBgNVBAMTEkdsb2JhbFNpZ24gUm9vdCBDQTAeFw0xMTA0MTMxMDAw
MDBaFw0yODAxMjgxMjAwMDBaMFIxCzAJBgNVBAYTAkJFMRkwFwYDVQQKExBHbG9i
YWxTaWduIG52LXNhMSgwJgYDVQQDEx9HbG9iYWxTaWduIFRpbWVzdGFtcGluZyBD
QSAtIEcyMIIBIjANBgkqhkiG9w0BAQEFAAOCAQ8AMIIBCgKCAQEAlO9l+LVXn6BT
DTQG6wkft0cYasvwW+T/J6U00feJGr+esc0SQW5m1IGghYtkWkYvmaCNd7HivFzd
ItdqZ9C76Mp03otPDbBS5ZBb60cO8eefnAuQZT4XljBFcm05oRc2yrmgjBtPCBn2
gTGtYRakYua0QJ7D/PuV9vu1LpWBmODvxevYAll4d/eq41JrUJEpxfz3zZNl0mBh
IvIG+zLdFlH6Dv2KMPAXCae78wSuq5DnbN96qfTvxGInX2+ZbTh0qhGL2t/HFEzp
hbLswn1KJo/nVrqm4M+SU4B09APsaLJgvIQgAIMboe60dAXBKY5i0Eex+vBTzBj5
Ljv5cH60JQIDAQABo4HlMIHiMA4GA1UdDwEB/wQEAwIBBjASBgNVHRMBAf8ECDAG
AQH/AgEAMB0GA1UdDgQWBBRG2D7/3OO+/4Pm9IWbsN1q1hSpwTBHBgNVHSAEQDA+
MDwGBFUdIAAwNDAyBggrBgEFBQcCARYmaHR0cHM6Ly93d3cuZ2xvYmFsc2lnbi5j
b20vcmVwb3NpdG9yeS8wMwYDVR0fBCwwKjAooCagJIYiaHR0cDovL2NybC5nbG9i
YWxzaWduLm5ldC9yb290LmNybDAfBgNVHSMEGDAWgBRge2YaRQ2XyolQL30EzTSo
//z9SzANBgkqhkiG9w0BAQUFAAOCAQEATl5WkB5GtNlJMfO7FzkoG8IW3f1B3AkF
BJtvsqKa1pkuQJkAVbXqP6UgdtOGNNQXzFU6x4Lu76i6vNgGnxVQ380We1I6AtcZ
Gv2v8Hhc4EvFGN86JB7arLipWAQCBzDbsBJe/jG+8ARI9PBw+DpeVoPPPfsNvPTF
7ZedudTbpSeE4zibi6c1hkQgpDttpGoLoYP9KOva7yj2zIhd+wo7AKvgIeviLzVs
D440RZfroveZMzV+y5qKu0VN5z+fwtmK+mWybsd+Zf/okuEsMaL3sCc2SI8mbzvu
TXYfecPlf5Y1vC0OzAGwjn//UYCAp5LUs0RGZIyHTxZjBzFLY7Df8w==
-----END CERTIFICATE-----

Certificate:
    Data:
        Version: 3 (0x2)
        Serial Number:
            11:21:06:a0:81:d3:3f:d8:7a:e5:82:4c:c1:6b:52:09:4e:03
    Signature Algorithm: sha1WithRSAEncryption
        Issuer: C=BE, O=GlobalSign nv-sa, CN=GlobalSign Timestamping CA - G2
        Validity
            Not Before: Feb  3 00:00:00 2015 GMT
            Not After : Mar  3 00:00:00 2026 GMT
        Subject: C=SG, O=GMO GlobalSign Pte Ltd, CN=GlobalSign TSA for MS Authenticode - G2
        Subject Public Key Info:
            Public Key Algorithm: rsaEncryption
                Public-Key: (2048 bit)
                Modulus:
                    00:b0:17:ae:a2:d3:b6:04:30:56:1e:58:0f:b1:ed:
                    55:a4:d6:54:cb:d8:f6:73:3a:ec:5d:5e:ab:25:fd:
                    36:a5:fa:84:c3:61:40:c5:46:b5:59:52:3b:42:a2:
                    2e:5f:13:62:10:a9:5b:e6:73:d6:92:25:b1:7d:23:
                    e3:06:b3:87:3a:0e:43:f0:d7:00:89:53:a2:11:31:
                    52:28:6e:5d:40:72:3c:f2:09:77:a7:49:92:97:d4:
                    6c:90:a0:76:a7:fd:b8:dc:b3:9d:f2:07:60:2c:4f:
                    58:98:00:6b:d3:15:54:e0:fa:dd:ff:80:2c:5f:18:
                    a6:98:ff:d4:ab:ec:a1:45:59:b2:2e:6f:62:5d:e0:
                    d9:19:ac:8b:57:9c:a8:26:2b:d9:17:a5:10:d2:47:
                    08:1a:70:2c:33:8b:7f:68:80:2a:b5:a1:5d:6b:dd:
                    8d:02:02:29:03:aa:7c:37:bb:bb:29:4e:3d:53:93:
                    b3:a6:fa:8f:d2:58:93:15:4c:b9:2d:ab:80:a3:a3:
                    25:fb:af:f7:08:64:b0:7a:44:0f:5c:10:d7:5f:61:
                    37:aa:4e:6b:d3:d2:53:25:9d:82:73:fa:2c:f9:72:
                    b0:a9:19:39:2a:50:fa:a9:d0:3c:3a:ca:e8:5b:ef:
                    f5:5f:51:f4:f9:0a:d9:97:35:de:6a:85:e6:23:04:
                    42:af
                Exponent: 65537 (0x10001)
        X509v3 extensions:
            X509v3 Key Usage: critical
                Digital Signature
            X509v3 Certificate Policies: 
                Policy: 1.3.6.1.4.1.4146.1.30
                  CPS: https://www.globalsign.com/repository/

            X509v3 Basic Constraints: 
                CA:FALSE
            X509v3 Extended Key Usage: critical
                Time Stamping
            X509v3 CRL Distribution Points: 

                Full Name:
                  URI:http://crl.globalsign.com/gs/gstimestampingg2.crl

            Authority Information Access: 
                CA Issuers - URI:http://secure.globalsign.com/cacert/gstimestampingg2.crt

            X509v3 Subject Key Identifier: 
                D4:A2:84:4A:38:5A:18:7F:BA:4F:30:50:BD:9D:D5:7A:87:D6:09:F7
            X509v3 Authority Key Identifier: 
                keyid:46:D8:3E:FF:DC:E3:BE:FF:83:E6:F4:85:9B:B0:DD:6A:D6:14:A9:C1

    Signature Algorithm: sha1WithRSAEncryption
         80:32:dc:07:8d:1c:a0:9c:9d:3c:2a:e8:3d:21:8b:59:a1:4d:
         7e:cc:44:ce:03:be:7e:aa:bc:c4:e6:7b:73:bb:4b:f1:88:da:
         90:4e:75:37:28:38:63:b9:d7:2b:0f:54:a9:56:ce:77:39:97:
         30:73:cd:9b:d9:d9:05:45:1c:8d:a4:b8:03:5d:4f:d9:1c:2e:
         98:e0:e9:88:e6:ec:d7:05:7e:56:2a:7b:f7:16:5b:a3:ad:8f:
         97:25:12:84:1b:b2:5c:63:4a:0a:d2:ef:10:54:47:82:84:35:
         69:28:9c:0c:e4:1f:14:16:24:fa:75:dc:74:72:6e:4e:ca:e3:
         6a:43:af:cf:7d:36:48:d1:bd:e9:06:91:2c:2f:a6:c8:71:fd:
         cf:bd:d8:9d:21:98:fc:af:db:de:22:8c:af:a7:f3:77:ef:9d:
         dc:a3:70:4b:44:1a:f0:78:85:1e:f2:a5:8c:39:b5:dc:88:1c:
         37:ed:ad:14:f5:07:0b:26:bd:be:6d:02:5e:b1:b8:b0:58:6c:
         85:3a:0d:f6:ff:5a:27:0c:c5:de:53:e7:54:3c:56:4c:c9:4e:
         4c:30:f6:f2:5c:fb:1a:8c:c2:82:be:ad:59:91:f6:1b:4d:55:
         7b:cf:5b:01:dc:fd:7a:d3:6f:23:5c:32:47:9b:01:f3:c1:51:
         14:46:8a:9b
-----BEGIN CERTIFICATE-----
MIIEnzCCA4egAwIBAgISESEGoIHTP9h65YJMwWtSCU4DMA0GCSqGSIb3DQEBBQUA
MFIxCzAJBgNVBAYTAkJFMRkwFwYDVQQKExBHbG9iYWxTaWduIG52LXNhMSgwJgYD
VQQDEx9HbG9iYWxTaWduIFRpbWVzdGFtcGluZyBDQSAtIEcyMB4XDTE1MDIwMzAw
MDAwMFoXDTI2MDMwMzAwMDAwMFowYDELMAkGA1UEBhMCU0cxHzAdBgNVBAoTFkdN
TyBHbG9iYWxTaWduIFB0ZSBMdGQxMDAuBgNVBAMTJ0dsb2JhbFNpZ24gVFNBIGZv
ciBNUyBBdXRoZW50aWNvZGUgLSBHMjCCASIwDQYJKoZIhvcNAQEBBQADggEPADCC
AQoCggEBALAXrqLTtgQwVh5YD7HtVaTWVMvY9nM67F1eqyX9NqX6hMNhQMVGtVlS
O0KiLl8TYhCpW+Zz1pIlsX0j4wazhzoOQ/DXAIlTohExUihuXUByPPIJd6dJkpfU
bJCgdqf9uNyznfIHYCxPWJgAa9MVVOD63f+ALF8Yppj/1KvsoUVZsi5vYl3g2Rms
i1ecqCYr2RelENJHCBpwLDOLf2iAKrWhXWvdjQICKQOqfDe7uylOPVOTs6b6j9JY
kxVMuS2rgKOjJfuv9whksHpED1wQ119hN6pOa9PSUyWdgnP6LPlysKkZOSpQ+qnQ
PDrK6Fvv9V9R9PkK2Zc13mqF5iMEQq8CAwEAAaOCAV8wggFbMA4GA1UdDwEB/wQE
AwIHgDBMBgNVHSAERTBDMEEGCSsGAQQBoDIBHjA0MDIGCCsGAQUFBwIBFiZodHRw
czovL3d3dy5nbG9iYWxzaWduLmNvbS9yZXBvc2l0b3J5LzAJBgNVHRMEAjAAMBYG
A1UdJQEB/wQMMAoGCCsGAQUFBwMIMEIGA1UdHwQ7MDkwN6A1oDOGMWh0dHA6Ly9j
cmwuZ2xvYmFsc2lnbi5jb20vZ3MvZ3N0aW1lc3RhbXBpbmdnMi5jcmwwVAYIKwYB
BQUHAQEESDBGMEQGCCsGAQUFBzAChjhodHRwOi8vc2VjdXJlLmdsb2JhbHNpZ24u
Y29tL2NhY2VydC9nc3RpbWVzdGFtcGluZ2cyLmNydDAdBgNVHQ4EFgQU1KKESjha
GH+6TzBQvZ3VeofWCfcwHwYDVR0jBBgwFoAURtg+/9zjvv+D5vSFm7DdatYUqcEw
DQYJKoZIhvcNAQEFBQADggEBAIAy3AeNHKCcnTwq6D0hi1mhTX7MRM4Dvn6qvMTm
e3O7S/GI2pBOdTcoOGO51ysPVKlWznc5lzBzzZvZ2QVFHI2kuANdT9kcLpjg6Yjm
7NcFflYqe/cWW6Otj5clEoQbslxjSgrS7xBUR4KENWkonAzkHxQWJPp13HRybk7K
42pDr899NkjRvekGkSwvpshx/c+92J0hmPyv294ijK+n83fvndyjcEtEGvB4hR7y
pYw5tdyIHDftrRT1Bwsmvb5tAl6xuLBYbIU6Dfb/WicMxd5T51Q8VkzJTkww9vJc
+xqMwoK+rVmR9htNVXvPWwHc/XrTbyNcMkebAfPBURRGips=
-----END CERTIFICATE-----

Certificate:
    Data:
        Version: 3 (0x2)
        Serial Number:
            32:2a:78:ca:b1:00:b4:b6:d9:a0:cc:66:c1:6b:80:2d
    Signature Algorithm: sha1WithRSAEncryption
        Issuer: C=US, O=VeriSign, Inc., OU=VeriSign Trust Network, OU=Terms of use at https://www.verisign.com/rpa (c)10, CN=VeriSign Class 3 Code Signing 2010 CA
        Validity
            Not Before: Jun  9 00:00:00 2015 GMT
            Not After : Sep  7 23:59:59 2018 GMT
        Subject: C=CN, ST=Beijing, L=Beijing, O=Beijing Rising Information Technology Corporation Limited, CN=Beijing Rising Information Technology Corporation Limited
        Subject Public Key Info:
            Public Key Algorithm: rsaEncryption
                Public-Key: (2048 bit)
                Modulus:
                    00:9d:7a:c8:99:63:1d:95:af:ea:4b:e2:2c:f9:54:
                    b0:c1:50:ca:74:1e:56:c2:54:2d:0b:79:be:63:20:
                    0c:4c:42:b5:99:53:51:7d:55:33:84:d1:f7:86:22:
                    da:f8:5b:91:76:fc:a4:bc:4e:0e:4f:49:58:62:c7:
                    37:81:e1:8d:97:84:f4:1e:ca:2b:e2:a3:6f:1a:2f:
                    7c:0e:b8:26:3d:35:90:81:4d:5a:8f:e8:b0:a8:13:
                    8f:ae:22:52:03:08:18:17:f8:c7:7d:71:33:df:1c:
                    c7:9f:13:0f:16:45:cb:35:6a:e0:b1:7a:56:d6:f8:
                    52:58:ea:2e:85:03:57:90:00:68:11:ee:4c:6d:1b:
                    37:ad:91:e6:a9:11:18:5b:06:cb:9e:a0:90:27:85:
                    3e:b7:bb:8e:54:b9:ef:4f:9c:26:21:10:1d:65:af:
                    c7:b9:86:d0:2d:d7:e1:6a:96:24:43:80:8b:3a:51:
                    d3:8f:31:79:9d:21:bb:b8:7c:86:21:6f:41:32:b3:
                    1a:ee:0a:6e:12:bf:d6:41:bc:06:bf:8d:b1:e1:e2:
                    0a:b5:89:06:b8:bd:b8:59:58:d0:2e:12:a2:32:90:
                    3c:ed:3a:14:da:ee:8c:fe:3a:4e:c6:ca:ba:91:0e:
                    7e:ec:0b:22:7c:1d:8e:24:96:8f:a4:59:37:73:5b:
                    80:b5
                Exponent: 65537 (0x10001)
        X509v3 extensions:
            X509v3 Basic Constraints: 
                CA:FALSE
            X509v3 Key Usage: critical
                Digital Signature
            X509v3 CRL Distribution Points: 

                Full Name:
                  URI:http://sf.symcb.com/sf.crl

            X509v3 Certificate Policies: 
                Policy: 2.16.840.1.113733.1.7.23.3
                  CPS: https://d.symcb.com/cps
                  User Notice:
                    Explicit Text: https://d.symcb.com/rpa

            X509v3 Extended Key Usage: 
                Code Signing
            Authority Information Access: 
                OCSP - URI:http://sf.symcd.com
                CA Issuers - URI:http://sf.symcb.com/sf.crt

            X509v3 Authority Key Identifier: 
                keyid:CF:99:A9:EA:7B:26:F4:4B:C9:8E:8F:D7:F0:05:26:EF:E3:D2:A7:9D

            X509v3 Subject Key Identifier: 
                F9:3F:AA:FA:09:F1:60:CE:67:1F:A3:4A:AA:8D:B6:D4:E5:4F:ED:9A
    Signature Algorithm: sha1WithRSAEncryption
         51:3f:63:02:cf:80:9b:71:36:65:2d:24:1a:d5:ce:69:28:d7:
         18:23:3b:e8:e4:48:4b:6b:1c:fc:b3:64:49:7e:3e:23:93:c1:
         7f:f9:f3:07:32:68:cc:da:83:e1:ee:4a:e6:13:90:3a:7b:00:
         c9:8b:eb:ad:2e:63:f5:60:a2:58:38:e2:63:ad:83:f9:98:f6:
         6c:86:9e:7a:a6:2e:42:26:e0:e5:8f:3e:3f:f0:9a:d8:6c:83:
         1e:a0:1c:22:d1:23:8d:38:d4:54:61:fd:65:6b:46:30:43:d3:
         b9:0b:84:f4:a8:3c:ce:3c:d1:f6:37:d3:40:bd:d3:ad:44:0f:
         e2:77:ec:bf:25:b3:25:54:8e:d1:b1:ab:e6:d5:3e:80:a1:88:
         40:3b:2b:ad:a7:7d:b1:b3:56:3b:ff:3e:d8:4e:1d:28:c6:9d:
         1c:03:4e:49:48:e5:46:03:8b:4c:47:7b:34:e9:6a:f5:1c:f9:
         a1:9f:0b:95:94:76:75:a7:5c:78:75:4e:7c:40:65:f2:51:eb:
         93:86:c0:09:4f:76:e0:2d:2b:cf:97:ff:24:be:6b:75:0e:b3:
         a0:85:72:fb:18:6e:f6:f8:d9:52:62:b5:8f:08:3f:82:65:65:
         11:80:9d:c2:05:a4:a0:dd:dd:62:0d:5c:d1:96:80:fc:ee:e1:
         7b:13:bc:26
-----BEGIN CERTIFICATE-----
MIIFXTCCBEWgAwIBAgIQMip4yrEAtLbZoMxmwWuALTANBgkqhkiG9w0BAQUFADCB
tDELMAkGA1UEBhMCVVMxFzAVBgNVBAoTDlZlcmlTaWduLCBJbmMuMR8wHQYDVQQL
ExZWZXJpU2lnbiBUcnVzdCBOZXR3b3JrMTswOQYDVQQLEzJUZXJtcyBvZiB1c2Ug
YXQgaHR0cHM6Ly93d3cudmVyaXNpZ24uY29tL3JwYSAoYykxMDEuMCwGA1UEAxMl
VmVyaVNpZ24gQ2xhc3MgMyBDb2RlIFNpZ25pbmcgMjAxMCBDQTAeFw0xNTA2MDkw
MDAwMDBaFw0xODA5MDcyMzU5NTlaMIG5MQswCQYDVQQGEwJDTjEQMA4GA1UECBMH
QmVpamluZzEQMA4GA1UEBxMHQmVpamluZzFCMEAGA1UEChQ5QmVpamluZyBSaXNp
bmcgSW5mb3JtYXRpb24gVGVjaG5vbG9neSBDb3Jwb3JhdGlvbiBMaW1pdGVkMUIw
QAYDVQQDFDlCZWlqaW5nIFJpc2luZyBJbmZvcm1hdGlvbiBUZWNobm9sb2d5IENv
cnBvcmF0aW9uIExpbWl0ZWQwggEiMA0GCSqGSIb3DQEBAQUAA4IBDwAwggEKAoIB
AQCdesiZYx2Vr+pL4iz5VLDBUMp0HlbCVC0Leb5jIAxMQrWZU1F9VTOE0feGItr4
W5F2/KS8Tg5PSVhixzeB4Y2XhPQeyivio28aL3wOuCY9NZCBTVqP6LCoE4+uIlID
CBgX+Md9cTPfHMefEw8WRcs1auCxelbW+FJY6i6FA1eQAGgR7kxtGzetkeapERhb
BsueoJAnhT63u45Uue9PnCYhEB1lr8e5htAt1+FqliRDgIs6UdOPMXmdIbu4fIYh
b0EysxruCm4Sv9ZBvAa/jbHh4gq1iQa4vbhZWNAuEqIykDztOhTa7oz+Ok7GyrqR
Dn7sCyJ8HY4klo+kWTdzW4C1AgMBAAGjggFiMIIBXjAJBgNVHRMEAjAAMA4GA1Ud
DwEB/wQEAwIHgDArBgNVHR8EJDAiMCCgHqAchhpodHRwOi8vc2Yuc3ltY2IuY29t
L3NmLmNybDBmBgNVHSAEXzBdMFsGC2CGSAGG+EUBBxcDMEwwIwYIKwYBBQUHAgEW
F2h0dHBzOi8vZC5zeW1jYi5jb20vY3BzMCUGCCsGAQUFBwICMBkMF2h0dHBzOi8v
ZC5zeW1jYi5jb20vcnBhMBMGA1UdJQQMMAoGCCsGAQUFBwMDMFcGCCsGAQUFBwEB
BEswSTAfBggrBgEFBQcwAYYTaHR0cDovL3NmLnN5bWNkLmNvbTAmBggrBgEFBQcw
AoYaaHR0cDovL3NmLnN5bWNiLmNvbS9zZi5jcnQwHwYDVR0jBBgwFoAUz5mp6nsm
9EvJjo/X8AUm7+PSp50wHQYDVR0OBBYEFPk/qvoJ8WDOZx+jSqqNttTlT+2aMA0G
CSqGSIb3DQEBBQUAA4IBAQBRP2MCz4CbcTZlLSQa1c5pKNcYIzvo5EhLaxz8s2RJ
fj4jk8F/+fMHMmjM2oPh7krmE5A6ewDJi+utLmP1YKJYOOJjrYP5mPZshp56pi5C
JuDljz4/8JrYbIMeoBwi0SONONRUYf1la0YwQ9O5C4T0qDzOPNH2N9NAvdOtRA/i
d+y/JbMlVI7Rsavm1T6AoYhAOyutp32xs1Y7/z7YTh0oxp0cA05JSOVGA4tMR3s0
6Wr1HPmhnwuVlHZ1p1x4dU58QGXyUeuThsAJT3bgLSvPl/8kvmt1DrOghXL7GG72
+NlSYrWPCD+CZWURgJ3CBaSg3d1iDVzRloD87uF7E7wm
-----END CERTIFICATE-----

Certificate:
    Data:
        Version: 3 (0x2)
        Serial Number:
            61:19:93:e4:00:00:00:00:00:1c
    Signature Algorithm: sha1WithRSAEncryption
        Issuer: C=US, ST=Washington, L=Redmond, O=Microsoft Corporation, CN=Microsoft Code Verification Root
        Validity
            Not Before: Feb 22 19:25:17 2011 GMT
            Not After : Feb 22 19:35:17 2021 GMT
        Subject: C=US, O=VeriSign, Inc., OU=VeriSign Trust Network, OU=(c) 2006 VeriSign, Inc. - For authorized use only, CN=VeriSign Class 3 Public Primary Certification Authority - G5
        Subject Public Key Info:
            Public Key Algorithm: rsaEncryption
                Public-Key: (2048 bit)
                Modulus:
                    00:af:24:08:08:29:7a:35:9e:60:0c:aa:e7:4b:3b:
                    4e:dc:7c:bc:3c:45:1c:bb:2b:e0:fe:29:02:f9:57:
                    08:a3:64:85:15:27:f5:f1:ad:c8:31:89:5d:22:e8:
                    2a:aa:a6:42:b3:8f:f8:b9:55:b7:b1:b7:4b:b3:fe:
                    8f:7e:07:57:ec:ef:43:db:66:62:15:61:cf:60:0d:
                    a4:d8:de:f8:e0:c3:62:08:3d:54:13:eb:49:ca:59:
                    54:85:26:e5:2b:8f:1b:9f:eb:f5:a1:91:c2:33:49:
                    d8:43:63:6a:52:4b:d2:8f:e8:70:51:4d:d1:89:69:
                    7b:c7:70:f6:b3:dc:12:74:db:7b:5d:4b:56:d3:96:
                    bf:15:77:a1:b0:f4:a2:25:f2:af:1c:92:67:18:e5:
                    f4:06:04:ef:90:b9:e4:00:e4:dd:3a:b5:19:ff:02:
                    ba:f4:3c:ee:e0:8b:eb:37:8b:ec:f4:d7:ac:f2:f6:
                    f0:3d:af:dd:75:91:33:19:1d:1c:40:cb:74:24:19:
                    21:93:d9:14:fe:ac:2a:52:c7:8f:d5:04:49:e4:8d:
                    63:47:88:3c:69:83:cb:fe:47:bd:2b:7e:4f:c5:95:
                    ae:0e:9d:d4:d1:43:c0:67:73:e3:14:08:7e:e5:3f:
                    9f:73:b8:33:0a:cf:5d:3f:34:87:96:8a:ee:53:e8:
                    25:15
                Exponent: 65537 (0x10001)
        X509v3 extensions:
            X509v3 Certificate Policies: 
                Policy: X509v3 Any Policy

            X509v3 Basic Constraints: critical
                CA:TRUE
            X509v3 Key Usage: 
                Digital Signature, Certificate Sign, CRL Sign
            X509v3 Subject Key Identifier: 
                7F:D3:65:A7:C2:DD:EC:BB:F0:30:09:F3:43:39:FA:02:AF:33:31:33
            X509v3 Authority Key Identifier: 
                keyid:62:FB:0A:21:5B:7F:43:6E:11:DA:09:54:50:6B:F5:D2:96:71:F1:9E

            X509v3 CRL Distribution Points: 

                Full Name:
                  URI:http://crl.microsoft.com/pki/crl/products/MicrosoftCodeVerifRoot.crl

    Signature Algorithm: sha1WithRSAEncryption
         81:2a:82:16:8c:34:67:2b:e5:03:eb:34:7b:8c:a2:a3:50:8a:
         f4:55:86:f1:1e:8c:8e:ae:7d:ee:03:19:ce:72:95:18:48:ad:
         62:11:fd:20:fd:3f:47:06:01:5a:e2:e0:6f:8c:15:2c:4e:3c:
         6a:50:6c:0b:36:a3:cf:7a:0d:9c:42:bc:5c:f8:19:d5:60:e3:
         69:e6:e2:23:41:67:8c:68:83:76:2b:8f:93:a3:2a:b5:7f:be:
         59:fb:a9:c9:b2:26:8f:ca:a2:f3:82:1b:98:3e:91:95:27:97:
         86:61:ee:5b:5d:07:6b:cd:86:a8:e2:65:80:a8:e2:15:e2:b2:
         be:23:05:6a:ba:0c:f3:47:93:4d:ac:a4:8c:07:79:39:c0:61:
         12:3a:05:0d:89:a3:ec:9f:57:89:84:fb:ec:ca:7c:47:66:14:
         91:d8:b6:0f:19:5d:e6:b8:4a:ac:bc:47:c8:71:43:96:e6:32:
         20:a5:dc:77:86:fd:3c:e3:8b:71:db:7b:9b:03:fc:b7:1d:32:
         64:eb:16:52:a0:43:a3:fa:2e:ad:59:92:4e:7c:c7:f2:33:42:
         48:38:51:3a:7c:38:c7:1b:24:22:28:40:1e:1a:46:1f:17:db:
         18:f7:f0:27:35:6c:b8:63:d9:cd:b9:64:5d:2b:a5:5e:ef:c6:
         29:b4:f2:c7:f8:21:cc:04:ba:57:fd:01:b6:ab:c6:67:f9:e7:
         d3:99:7f:f4:f5:22:fa:72:f5:fd:ff:3a:1c:42:3a:a1:f9:80:
         18:a5:ee:8d:1c:d4:66:9e:45:01:fe:aa:ee:ff:fb:17:8f:30:
         f7:f1:cd:29:c5:9d:ec:b5:d5:49:00:3d:85:b8:cb:bb:93:3a:
         27:6a:49:c0:30:ae:66:c9:f7:23:28:32:76:f9:a4:83:56:c8:
         48:ce:5a:96:aa:a0:cc:0c:c4:7f:b4:8e:97:af:6d:e3:54:27:
         c3:9f:86:c0:d6:e4:73:08:97:05:db:d0:54:62:5e:03:48:c2:
         d5:9f:7f:a7:66:8c:d0:9d:b0:4f:d4:d3:98:5f:4b:7a:c9:7f:
         b2:29:52:d0:12:80:c7:0f:54:b6:1e:67:cd:c6:a0:6c:11:03:
         84:d3:48:75:e7:2a:fe:b0:3b:6e:0a:3a:a6:6b:76:99:05:a3:
         f1:77:68:61:33:14:47:06:fc:53:7f:52:bd:92:14:5c:4a:24:
         6a:67:8c:af:8d:90:aa:d0:f6:79:21:1b:93:26:7c:c3:ce:1e:
         bd:88:38:92:ae:45:c6:19:6a:49:50:b3:05:f8:ae:59:37:8a:
         6a:25:03:94:b1:59:81:50:e8:ba:83:80:b7:23:35:f4:76:b9:
         67:1d:59:18:ad:20:8d:94
-----BEGIN CERTIFICATE-----
MIIFmjCCA4KgAwIBAgIKYRmT5AAAAAAAHDANBgkqhkiG9w0BAQUFADB/MQswCQYD
VQQGEwJVUzETMBEGA1UECBMKV2FzaGluZ3RvbjEQMA4GA1UEBxMHUmVkbW9uZDEe
MBwGA1UEChMVTWljcm9zb2Z0IENvcnBvcmF0aW9uMSkwJwYDVQQDEyBNaWNyb3Nv
ZnQgQ29kZSBWZXJpZmljYXRpb24gUm9vdDAeFw0xMTAyMjIxOTI1MTdaFw0yMTAy
MjIxOTM1MTdaMIHKMQswCQYDVQQGEwJVUzEXMBUGA1UEChMOVmVyaVNpZ24sIElu
Yy4xHzAdBgNVBAsTFlZlcmlTaWduIFRydXN0IE5ldHdvcmsxOjA4BgNVBAsTMShj
KSAyMDA2IFZlcmlTaWduLCBJbmMuIC0gRm9yIGF1dGhvcml6ZWQgdXNlIG9ubHkx
RTBDBgNVBAMTPFZlcmlTaWduIENsYXNzIDMgUHVibGljIFByaW1hcnkgQ2VydGlm
aWNhdGlvbiBBdXRob3JpdHkgLSBHNTCCASIwDQYJKoZIhvcNAQEBBQADggEPADCC
AQoCggEBAK8kCAgpejWeYAyq50s7Ttx8vDxFHLsr4P4pAvlXCKNkhRUn9fGtyDGJ
XSLoKqqmQrOP+LlVt7G3S7P+j34HV+zvQ9tmYhVhz2ANpNje+ODDYgg9VBPrScpZ
VIUm5SuPG5/r9aGRwjNJ2ENjalJL0o/ocFFN0Ylpe8dw9rPcEnTbe11LVtOWvxV3
obD0oiXyrxySZxjl9AYE75C55ADk3Tq1Gf8CuvQ87uCL6zeL7PTXrPL28D2v3XWR
MxkdHEDLdCQZIZPZFP6sKlLHj9UESeSNY0eIPGmDy/5HvSt+T8WVrg6d1NFDwGdz
4xQIfuU/n3O4MwrPXT80h5aK7lPoJRUCAwEAAaOByzCByDARBgNVHSAECjAIMAYG
BFUdIAAwDwYDVR0TAQH/BAUwAwEB/zALBgNVHQ8EBAMCAYYwHQYDVR0OBBYEFH/T
ZafC3ey78DAJ80M5+gKvMzEzMB8GA1UdIwQYMBaAFGL7CiFbf0NuEdoJVFBr9dKW
cfGeMFUGA1UdHwROMEwwSqBIoEaGRGh0dHA6Ly9jcmwubWljcm9zb2Z0LmNvbS9w
a2kvY3JsL3Byb2R1Y3RzL01pY3Jvc29mdENvZGVWZXJpZlJvb3QuY3JsMA0GCSqG
SIb3DQEBBQUAA4ICAQCBKoIWjDRnK+UD6zR7jKKjUIr0VYbxHoyOrn3uAxnOcpUY
SK1iEf0g/T9HBgFa4uBvjBUsTjxqUGwLNqPPeg2cQrxc+BnVYONp5uIjQWeMaIN2
K4+Toyq1f75Z+6nJsiaPyqLzghuYPpGVJ5eGYe5bXQdrzYao4mWAqOIV4rK+IwVq
ugzzR5NNrKSMB3k5wGESOgUNiaPsn1eJhPvsynxHZhSR2LYPGV3muEqsvEfIcUOW
5jIgpdx3hv0844tx23ubA/y3HTJk6xZSoEOj+i6tWZJOfMfyM0JIOFE6fDjHGyQi
KEAeGkYfF9sY9/AnNWy4Y9nNuWRdK6Ve78YptPLH+CHMBLpX/QG2q8Zn+efTmX/0
9SL6cvX9/zocQjqh+YAYpe6NHNRmnkUB/qru//sXjzD38c0pxZ3stdVJAD2FuMu7
kzonaknAMK5myfcjKDJ2+aSDVshIzlqWqqDMDMR/tI6Xr23jVCfDn4bA1uRzCJcF
29BUYl4DSMLVn3+nZozQnbBP1NOYX0t6yX+yKVLQEoDHD1S2HmfNxqBsEQOE00h1
5yr+sDtuCjqma3aZBaPxd2hhMxRHBvxTf1K9khRcSiRqZ4yvjZCq0PZ5IRuTJnzD
zh69iDiSrkXGGWpJULMF+K5ZN4pqJQOUsVmBUOi6g4C3IzX0drlnHVkYrSCNlA==
-----END CERTIFICATE-----

Certificate:
    Data:
        Version: 3 (0x2)
        Serial Number:
            52:00:e5:aa:25:56:fc:1a:86:ed:96:c9:d4:4b:33:c7
    Signature Algorithm: sha1WithRSAEncryption
        Issuer: C=US, O=VeriSign, Inc., OU=VeriSign Trust Network, OU=(c) 2006 VeriSign, Inc. - For authorized use only, CN=VeriSign Class 3 Public Primary Certification Authority - G5
        Validity
            Not Before: Feb  8 00:00:00 2010 GMT
            Not After : Feb  7 23:59:59 2020 GMT
        Subject: C=US, O=VeriSign, Inc., OU=VeriSign Trust Network, OU=Terms of use at https://www.verisign.com/rpa (c)10, CN=VeriSign Class 3 Code Signing 2010 CA
        Subject Public Key Info:
            Public Key Algorithm: rsaEncryption
                Public-Key: (2048 bit)
                Modulus:
                    00:f5:23:4b:5e:a5:d7:8a:bb:32:e9:d4:57:f7:ef:
                    e4:c7:26:7e:ad:19:98:fe:a8:9d:7d:94:f6:36:6b:
                    10:d7:75:81:30:7f:04:68:7f:cb:2b:75:1e:cd:1d:
                    08:8c:df:69:94:a7:37:a3:9c:7b:80:e0:99:e1:ee:
                    37:4d:5f:ce:3b:14:ee:86:d4:d0:f5:27:35:bc:25:
                    0b:38:a7:8c:63:9d:17:a3:08:a5:ab:b0:fb:cd:6a:
                    62:82:4c:d5:21:da:1b:d9:f1:e3:84:3b:8a:2a:4f:
                    85:5b:90:01:4f:c9:a7:76:10:7f:27:03:7c:be:ae:
                    7e:7d:c1:dd:f9:05:bc:1b:48:9c:69:e7:c0:a4:3c:
                    3c:41:00:3e:df:96:e5:c5:e4:94:71:d6:55:01:c7:
                    00:26:4a:40:3c:b5:a1:26:a9:0c:a7:6d:80:8e:90:
                    25:7b:cf:bf:3f:1c:eb:2f:96:fa:e5:87:77:c6:b5:
                    56:b2:7a:3b:54:30:53:1b:df:62:34:ff:1e:d1:f4:
                    5a:93:28:85:e5:4c:17:4e:7e:5b:fd:a4:93:99:7f:
                    df:cd:ef:a4:75:ef:ef:15:f6:47:e7:f8:19:72:d8:
                    2e:34:1a:a6:b4:a7:4c:7e:bd:bb:4f:0c:3d:57:f1:
                    30:d6:a6:36:8e:d6:80:76:d7:19:2e:a5:cd:7e:34:
                    2d:89
                Exponent: 65537 (0x10001)
        X509v3 extensions:
            X509v3 Basic Constraints: critical
                CA:TRUE, pathlen:0
            X509v3 Certificate Policies: 
                Policy: 2.16.840.1.113733.1.7.23.3
                  CPS: https://www.verisign.com/cps
                  User Notice:
                    Explicit Text: https://www.verisign.com/rpa

            X509v3 Key Usage: critical
                Certificate Sign, CRL Sign
            1.3.6.1.5.5.7.1.12: 
                0_.].[0Y0W0U..image/gif0!0.0...+..............k...j.H.,{..0%.#http://logo.verisign.com/vslogo.gif
            X509v3 CRL Distribution Points: 

                Full Name:
                  URI:http://crl.verisign.com/pca3-g5.crl

            Authority Information Access: 
                OCSP - URI:http://ocsp.verisign.com

            X509v3 Extended Key Usage: 
                TLS Web Client Authentication, Code Signing
            X509v3 Subject Alternative Name: 
                DirName:/CN=VeriSignMPKI-2-8
            X509v3 Subject Key Identifier: 
                CF:99:A9:EA:7B:26:F4:4B:C9:8E:8F:D7:F0:05:26:EF:E3:D2:A7:9D
            X509v3 Authority Key Identifier: 
                keyid:7F:D3:65:A7:C2:DD:EC:BB:F0:30:09:F3:43:39:FA:02:AF:33:31:33

    Signature Algorithm: sha1WithRSAEncryption
         56:22:e6:34:a4:c4:61:cb:48:b9:01:ad:56:a8:64:0f:d9:8c:
         91:c4:bb:cc:0c:e5:ad:7a:a0:22:7f:df:47:38:4a:2d:6c:d1:
         7f:71:1a:7c:ec:70:a9:b1:f0:4f:e4:0f:0c:53:fa:15:5e:fe:
         74:98:49:24:85:81:26:1c:91:14:47:b0:4c:63:8c:bb:a1:34:
         d4:c6:45:e8:0d:85:26:73:03:d0:a9:8c:64:6d:dc:71:92:e6:
         45:05:60:15:59:51:39:fc:58:14:6b:fe:d4:a4:ed:79:6b:08:
         0c:41:72:e7:37:22:06:09:be:23:e9:3f:44:9a:1e:e9:61:9d:
         cc:b1:90:5c:fc:3d:d2:8d:ac:42:3d:65:36:d4:b4:3d:40:28:
         8f:9b:10:cf:23:26:cc:4b:20:cb:90:1f:5d:8c:4c:34:ca:3c:
         d8:e5:37:d6:6f:a5:20:bd:34:eb:26:d9:ae:0d:e7:c5:9a:f7:
         a1:b4:21:91:33:6f:86:e8:58:bb:25:7c:74:0e:58:fe:75:1b:
         63:3f:ce:31:7c:9b:8f:1b:96:9e:c5:53:76:84:5b:9c:ad:91:
         fa:ac:ed:93:ba:5d:c8:21:53:c2:82:53:63:af:12:0d:50:87:
         11:1b:3d:54:52:96:8a:2c:9c:3d:92:1a:08:9a:05:2e:c7:93:
         a5:48:91:d3
-----BEGIN CERTIFICATE-----
MIIGCjCCBPKgAwIBAgIQUgDlqiVW/BqG7ZbJ1EszxzANBgkqhkiG9w0BAQUFADCB
yjELMAkGA1UEBhMCVVMxFzAVBgNVBAoTDlZlcmlTaWduLCBJbmMuMR8wHQYDVQQL
ExZWZXJpU2lnbiBUcnVzdCBOZXR3b3JrMTowOAYDVQQLEzEoYykgMjAwNiBWZXJp
U2lnbiwgSW5jLiAtIEZvciBhdXRob3JpemVkIHVzZSBvbmx5MUUwQwYDVQQDEzxW
ZXJpU2lnbiBDbGFzcyAzIFB1YmxpYyBQcmltYXJ5IENlcnRpZmljYXRpb24gQXV0
aG9yaXR5IC0gRzUwHhcNMTAwMjA4MDAwMDAwWhcNMjAwMjA3MjM1OTU5WjCBtDEL
MAkGA1UEBhMCVVMxFzAVBgNVBAoTDlZlcmlTaWduLCBJbmMuMR8wHQYDVQQLExZW
ZXJpU2lnbiBUcnVzdCBOZXR3b3JrMTswOQYDVQQLEzJUZXJtcyBvZiB1c2UgYXQg
aHR0cHM6Ly93d3cudmVyaXNpZ24uY29tL3JwYSAoYykxMDEuMCwGA1UEAxMlVmVy
aVNpZ24gQ2xhc3MgMyBDb2RlIFNpZ25pbmcgMjAxMCBDQTCCASIwDQYJKoZIhvcN
AQEBBQADggEPADCCAQoCggEBAPUjS16l14q7MunUV/fv5Mcmfq0ZmP6onX2U9jZr
ENd1gTB/BGh/yyt1Hs0dCIzfaZSnN6Oce4DgmeHuN01fzjsU7obU0PUnNbwlCzin
jGOdF6MIpauw+81qYoJM1SHaG9nx44Q7iipPhVuQAU/Jp3YQfycDfL6ufn3B3fkF
vBtInGnnwKQ8PEEAPt+W5cXklHHWVQHHACZKQDy1oSapDKdtgI6QJXvPvz8c6y+W
+uWHd8a1VrJ6O1QwUxvfYjT/HtH0WpMoheVMF05+W/2kk5l/383vpHXv7xX2R+f4
GXLYLjQaprSnTH69u08MPVfxMNamNo7WgHbXGS6lzX40LYkCAwEAAaOCAf4wggH6
MBIGA1UdEwEB/wQIMAYBAf8CAQAwcAYDVR0gBGkwZzBlBgtghkgBhvhFAQcXAzBW
MCgGCCsGAQUFBwIBFhxodHRwczovL3d3dy52ZXJpc2lnbi5jb20vY3BzMCoGCCsG
AQUFBwICMB4aHGh0dHBzOi8vd3d3LnZlcmlzaWduLmNvbS9ycGEwDgYDVR0PAQH/
BAQDAgEGMG0GCCsGAQUFBwEMBGEwX6FdoFswWTBXMFUWCWltYWdlL2dpZjAhMB8w
BwYFKw4DAhoEFI/l0xqGrI2Oa8PPgGrUSBgsexkuMCUWI2h0dHA6Ly9sb2dvLnZl
cmlzaWduLmNvbS92c2xvZ28uZ2lmMDQGA1UdHwQtMCswKaAnoCWGI2h0dHA6Ly9j
cmwudmVyaXNpZ24uY29tL3BjYTMtZzUuY3JsMDQGCCsGAQUFBwEBBCgwJjAkBggr
BgEFBQcwAYYYaHR0cDovL29jc3AudmVyaXNpZ24uY29tMB0GA1UdJQQWMBQGCCsG
AQUFBwMCBggrBgEFBQcDAzAoBgNVHREEITAfpB0wGzEZMBcGA1UEAxMQVmVyaVNp
Z25NUEtJLTItODAdBgNVHQ4EFgQUz5mp6nsm9EvJjo/X8AUm7+PSp50wHwYDVR0j
BBgwFoAUf9Nlp8Ld7LvwMAnzQzn6Aq8zMTMwDQYJKoZIhvcNAQEFBQADggEBAFYi
5jSkxGHLSLkBrVaoZA/ZjJHEu8wM5a16oCJ/30c4Si1s0X9xGnzscKmx8E/kDwxT
+hVe/nSYSSSFgSYckRRHsExjjLuhNNTGRegNhSZzA9CpjGRt3HGS5kUFYBVZUTn8
WBRr/tSk7XlrCAxBcuc3IgYJviPpP0SaHulhncyxkFz8PdKNrEI9ZTbUtD1AKI+b
EM8jJsxLIMuQH12MTDTKPNjlN9ZvpSC9NOsm2a4N58Wa96G0IZEzb4boWLslfHQO
WP51G2M/zjF8m48blp7FU3aEW5ytkfqs7ZO6XcghU8KCU2OvEg1QhxEbPVRSloos
nD2SGgiaBS7Hk6VIkdM=
-----END CERTIFICATE-----

