Certificate:
    Data:
        Version: 3 (0x2)
        Serial Number:
            2b:32:50:47:a6:10:0e:8d:f6:fc:89:1f:0d:c6:75:7a
    Signature Algorithm: sha1WithRSAEncryption
        Issuer: C=US, O=VeriSign, Inc., OU=VeriSign Trust Network, OU=Terms of use at https://www.verisign.com/rpa (c)10, CN=VeriSign Class 3 Code Signing 2010 CA
        Validity
            Not Before: May 17 00:00:00 2013 GMT
            Not After : May 17 23:59:59 2015 GMT
        Subject: C=BE, ST=ovl, L=sint-martens-latem, O=Image Line, OU=Digital ID Class 3 - Microsoft Software Validation v2, CN=Image Line
        Subject Public Key Info:
            Public Key Algorithm: rsaEncryption
                Public-Key: (2048 bit)
                Modulus:
                    00:ed:f1:b5:6b:56:8b:bd:87:31:04:2e:36:25:d5:
                    6f:87:07:82:99:c3:1e:2f:01:cb:09:ca:03:aa:0c:
                    a7:aa:b4:30:c7:16:65:53:e1:f6:00:ab:86:17:07:
                    90:73:ed:44:e6:ed:55:6a:21:69:2e:89:ad:b5:ec:
                    e6:2f:33:7a:fe:0e:0e:61:52:e7:e3:a6:a8:c0:50:
                    1d:b6:1e:63:fc:82:91:2f:78:fb:a2:ff:0f:b3:73:
                    95:eb:b5:48:b2:cf:98:9a:e4:f4:48:71:80:65:c5:
                    d3:c3:46:b7:bc:2e:a3:4e:5b:5f:81:6f:fa:ce:8f:
                    60:51:64:eb:ed:3b:31:37:2d:14:45:46:c6:c8:a1:
                    bb:d9:e7:f2:51:51:7a:4b:1d:8e:82:38:d1:5b:e9:
                    90:36:93:db:32:75:25:18:47:91:58:fd:22:cc:f4:
                    a1:1d:23:04:d9:3c:21:68:43:aa:9c:a7:48:6a:40:
                    3e:01:1e:d2:84:de:59:94:41:a1:5e:6e:b0:7b:25:
                    f2:59:4e:a2:00:ff:38:8f:c5:11:7c:73:93:b0:8b:
                    e4:e6:e9:89:40:08:b6:e2:81:79:fa:b7:ac:19:8c:
                    87:1b:5c:d7:31:de:3e:97:c1:a4:dd:96:19:32:bc:
                    34:fb:ba:f3:3d:7f:62:5a:b6:a5:c6:1a:d0:46:cc:
                    78:33
                Exponent: 65537 (0x10001)
        X509v3 extensions:
            X509v3 Basic Constraints: 
                CA:FALSE
            X509v3 Key Usage: critical
                Digital Signature
            X509v3 CRL Distribution Points: 

                Full Name:
                  URI:http://csc3-2010-crl.verisign.com/CSC3-2010.crl

            X509v3 Certificate Policies: 
                Policy: 2.16.840.1.113733.1.7.23.3
                  CPS: https://www.verisign.com/rpa

            X509v3 Extended Key Usage: 
                Code Signing
            Authority Information Access: 
                OCSP - URI:http://ocsp.verisign.com
                CA Issuers - URI:http://csc3-2010-aia.verisign.com/CSC3-2010.cer

            X509v3 Authority Key Identifier: 
                keyid:CF:99:A9:EA:7B:26:F4:4B:C9:8E:8F:D7:F0:05:26:EF:E3:D2:A7:9D

            Netscape Cert Type: 
                Object Signing
            1.3.6.1.4.1.311.2.1.27: 
                0.......
    Signature Algorithm: sha1WithRSAEncryption
         b6:36:b7:b3:75:cf:d5:b6:f3:93:56:fe:ca:ec:02:5d:93:15:
         bb:6a:ba:2b:01:18:ab:f1:02:bf:4a:26:b3:4f:10:ed:d5:b8:
         ec:78:ac:e2:62:54:0e:87:28:c8:69:0a:bc:27:9b:c8:64:81:
         85:db:4c:d9:ae:88:b3:06:b7:5d:ab:65:b7:ee:14:9e:6d:92:
         81:86:6e:e5:10:43:f7:bc:07:92:33:8d:a0:c1:4a:5e:2f:15:
         58:0b:de:83:0c:62:1e:2a:e4:d0:7d:fa:c3:cb:d6:3e:79:9d:
         b3:d9:43:f8:b1:84:3c:2f:41:3a:bb:69:1d:58:00:94:6d:ca:
         be:10:40:90:af:26:1a:b0:55:df:a8:eb:8d:24:16:1c:14:6d:
         5a:4b:b1:9e:00:84:9c:6c:44:70:9e:c5:69:50:26:39:76:9a:
         7a:fd:8a:01:db:f4:27:15:48:33:4a:be:a6:cd:07:99:54:04:
         b7:94:15:f9:75:0a:c0:86:7d:e9:1e:1c:d4:41:d8:33:c2:a2:
         84:f2:e4:b5:55:61:56:5c:08:ff:82:43:09:fb:82:30:18:88:
         c0:54:3f:cf:b0:72:5f:8e:2d:52:59:58:ae:e6:3b:4a:39:5f:
         5c:0d:27:a4:09:25:e3:09:b8:56:1b:98:56:7a:78:d6:b0:45:
         30:13:4e:20
-----BEGIN CERTIFICATE-----
MIIFXzCCBEegAwIBAgIQKzJQR6YQDo32/IkfDcZ1ejANBgkqhkiG9w0BAQUFADCB
tDELMAkGA1UEBhMCVVMxFzAVBgNVBAoTDlZlcmlTaWduLCBJbmMuMR8wHQYDVQQL
ExZWZXJpU2lnbiBUcnVzdCBOZXR3b3JrMTswOQYDVQQLEzJUZXJtcyBvZiB1c2Ug
YXQgaHR0cHM6Ly93d3cudmVyaXNpZ24uY29tL3JwYSAoYykxMDEuMCwGA1UEAxMl
VmVyaVNpZ24gQ2xhc3MgMyBDb2RlIFNpZ25pbmcgMjAxMCBDQTAeFw0xMzA1MTcw
MDAwMDBaFw0xNTA1MTcyMzU5NTlaMIGiMQswCQYDVQQGEwJCRTEMMAoGA1UECBMD
b3ZsMRswGQYDVQQHExJzaW50LW1hcnRlbnMtbGF0ZW0xEzARBgNVBAoUCkltYWdl
IExpbmUxPjA8BgNVBAsTNURpZ2l0YWwgSUQgQ2xhc3MgMyAtIE1pY3Jvc29mdCBT
b2Z0d2FyZSBWYWxpZGF0aW9uIHYyMRMwEQYDVQQDFApJbWFnZSBMaW5lMIIBIjAN
BgkqhkiG9w0BAQEFAAOCAQ8AMIIBCgKCAQEA7fG1a1aLvYcxBC42JdVvhweCmcMe
LwHLCcoDqgynqrQwxxZlU+H2AKuGFweQc+1E5u1VaiFpLomttezmLzN6/g4OYVLn
46aowFAdth5j/IKRL3j7ov8Ps3OV67VIss+YmuT0SHGAZcXTw0a3vC6jTltfgW/6
zo9gUWTr7TsxNy0URUbGyKG72efyUVF6Sx2OgjjRW+mQNpPbMnUlGEeRWP0izPSh
HSME2TwhaEOqnKdIakA+AR7ShN5ZlEGhXm6weyXyWU6iAP84j8URfHOTsIvk5umJ
QAi24oF5+resGYyHG1zXMd4+l8Gk3ZYZMrw0+7rzPX9iWralxhrQRsx4MwIDAQAB
o4IBezCCAXcwCQYDVR0TBAIwADAOBgNVHQ8BAf8EBAMCB4AwQAYDVR0fBDkwNzA1
oDOgMYYvaHR0cDovL2NzYzMtMjAxMC1jcmwudmVyaXNpZ24uY29tL0NTQzMtMjAx
MC5jcmwwRAYDVR0gBD0wOzA5BgtghkgBhvhFAQcXAzAqMCgGCCsGAQUFBwIBFhxo
dHRwczovL3d3dy52ZXJpc2lnbi5jb20vcnBhMBMGA1UdJQQMMAoGCCsGAQUFBwMD
MHEGCCsGAQUFBwEBBGUwYzAkBggrBgEFBQcwAYYYaHR0cDovL29jc3AudmVyaXNp
Z24uY29tMDsGCCsGAQUFBzAChi9odHRwOi8vY3NjMy0yMDEwLWFpYS52ZXJpc2ln
bi5jb20vQ1NDMy0yMDEwLmNlcjAfBgNVHSMEGDAWgBTPmanqeyb0S8mOj9fwBSbv
49KnnTARBglghkgBhvhCAQEEBAMCBBAwFgYKKwYBBAGCNwIBGwQIMAYBAQABAf8w
DQYJKoZIhvcNAQEFBQADggEBALY2t7N1z9W285NW/srsAl2TFbtquisBGKvxAr9K
JrNPEO3VuOx4rOJiVA6HKMhpCrwnm8hkgYXbTNmuiLMGt12rZbfuFJ5tkoGGbuUQ
Q/e8B5IzjaDBSl4vFVgL3oMMYh4q5NB9+sPL1j55nbPZQ/ixhDwvQTq7aR1YAJRt
yr4QQJCvJhqwVd+o640kFhwUbVpLsZ4AhJxsRHCexWlQJjl2mnr9igHb9CcVSDNK
vqbNB5lUBLeUFfl1CsCGfekeHNRB2DPCooTy5LVVYVZcCP+CQwn7gjAYiMBUP8+w
cl+OLVJZWK7mO0o5X1wNJ6QJJeMJuFYbmFZ6eNawRTATTiA=
-----END CERTIFICATE-----

Certificate:
    Data:
        Version: 3 (0x2)
        Serial Number:
            52:00:e5:aa:25:56:fc:1a:86:ed:96:c9:d4:4b:33:c7
    Signature Algorithm: sha1WithRSAEncryption
        Issuer: C=US, O=VeriSign, Inc., OU=VeriSign Trust Network, OU=(c) 2006 VeriSign, Inc. - For authorized use only, CN=VeriSign Class 3 Public Primary Certification Authority - G5
        Validity
            Not Before: Feb  8 00:00:00 2010 GMT
            Not After : Feb  7 23:59:59 2020 GMT
        Subject: C=US, O=VeriSign, Inc., OU=VeriSign Trust Network, OU=Terms of use at https://www.verisign.com/rpa (c)10, CN=VeriSign Class 3 Code Signing 2010 CA
        Subject Public Key Info:
            Public Key Algorithm: rsaEncryption
                Public-Key: (2048 bit)
                Modulus:
                    00:f5:23:4b:5e:a5:d7:8a:bb:32:e9:d4:57:f7:ef:
                    e4:c7:26:7e:ad:19:98:fe:a8:9d:7d:94:f6:36:6b:
                    10:d7:75:81:30:7f:04:68:7f:cb:2b:75:1e:cd:1d:
                    08:8c:df:69:94:a7:37:a3:9c:7b:80:e0:99:e1:ee:
                    37:4d:5f:ce:3b:14:ee:86:d4:d0:f5:27:35:bc:25:
                    0b:38:a7:8c:63:9d:17:a3:08:a5:ab:b0:fb:cd:6a:
                    62:82:4c:d5:21:da:1b:d9:f1:e3:84:3b:8a:2a:4f:
                    85:5b:90:01:4f:c9:a7:76:10:7f:27:03:7c:be:ae:
                    7e:7d:c1:dd:f9:05:bc:1b:48:9c:69:e7:c0:a4:3c:
                    3c:41:00:3e:df:96:e5:c5:e4:94:71:d6:55:01:c7:
                    00:26:4a:40:3c:b5:a1:26:a9:0c:a7:6d:80:8e:90:
                    25:7b:cf:bf:3f:1c:eb:2f:96:fa:e5:87:77:c6:b5:
                    56:b2:7a:3b:54:30:53:1b:df:62:34:ff:1e:d1:f4:
                    5a:93:28:85:e5:4c:17:4e:7e:5b:fd:a4:93:99:7f:
                    df:cd:ef:a4:75:ef:ef:15:f6:47:e7:f8:19:72:d8:
                    2e:34:1a:a6:b4:a7:4c:7e:bd:bb:4f:0c:3d:57:f1:
                    30:d6:a6:36:8e:d6:80:76:d7:19:2e:a5:cd:7e:34:
                    2d:89
                Exponent: 65537 (0x10001)
        X509v3 extensions:
            X509v3 Basic Constraints: critical
                CA:TRUE, pathlen:0
            X509v3 Certificate Policies: 
                Policy: 2.16.840.1.113733.1.7.23.3
                  CPS: https://www.verisign.com/cps
                  User Notice:
                    Explicit Text: https://www.verisign.com/rpa

            X509v3 Key Usage: critical
                Certificate Sign, CRL Sign
            1.3.6.1.5.5.7.1.12: 
                0_.].[0Y0W0U..image/gif0!0.0...+..............k...j.H.,{..0%.#http://logo.verisign.com/vslogo.gif
            X509v3 CRL Distribution Points: 

                Full Name:
                  URI:http://crl.verisign.com/pca3-g5.crl

            Authority Information Access: 
                OCSP - URI:http://ocsp.verisign.com

            X509v3 Extended Key Usage: 
                TLS Web Client Authentication, Code Signing
            X509v3 Subject Alternative Name: 
                DirName:/CN=VeriSignMPKI-2-8
            X509v3 Subject Key Identifier: 
                CF:99:A9:EA:7B:26:F4:4B:C9:8E:8F:D7:F0:05:26:EF:E3:D2:A7:9D
            X509v3 Authority Key Identifier: 
                keyid:7F:D3:65:A7:C2:DD:EC:BB:F0:30:09:F3:43:39:FA:02:AF:33:31:33

    Signature Algorithm: sha1WithRSAEncryption
         56:22:e6:34:a4:c4:61:cb:48:b9:01:ad:56:a8:64:0f:d9:8c:
         91:c4:bb:cc:0c:e5:ad:7a:a0:22:7f:df:47:38:4a:2d:6c:d1:
         7f:71:1a:7c:ec:70:a9:b1:f0:4f:e4:0f:0c:53:fa:15:5e:fe:
         74:98:49:24:85:81:26:1c:91:14:47:b0:4c:63:8c:bb:a1:34:
         d4:c6:45:e8:0d:85:26:73:03:d0:a9:8c:64:6d:dc:71:92:e6:
         45:05:60:15:59:51:39:fc:58:14:6b:fe:d4:a4:ed:79:6b:08:
         0c:41:72:e7:37:22:06:09:be:23:e9:3f:44:9a:1e:e9:61:9d:
         cc:b1:90:5c:fc:3d:d2:8d:ac:42:3d:65:36:d4:b4:3d:40:28:
         8f:9b:10:cf:23:26:cc:4b:20:cb:90:1f:5d:8c:4c:34:ca:3c:
         d8:e5:37:d6:6f:a5:20:bd:34:eb:26:d9:ae:0d:e7:c5:9a:f7:
         a1:b4:21:91:33:6f:86:e8:58:bb:25:7c:74:0e:58:fe:75:1b:
         63:3f:ce:31:7c:9b:8f:1b:96:9e:c5:53:76:84:5b:9c:ad:91:
         fa:ac:ed:93:ba:5d:c8:21:53:c2:82:53:63:af:12:0d:50:87:
         11:1b:3d:54:52:96:8a:2c:9c:3d:92:1a:08:9a:05:2e:c7:93:
         a5:48:91:d3
-----BEGIN CERTIFICATE-----
MIIGCjCCBPKgAwIBAgIQUgDlqiVW/BqG7ZbJ1EszxzANBgkqhkiG9w0BAQUFADCB
yjELMAkGA1UEBhMCVVMxFzAVBgNVBAoTDlZlcmlTaWduLCBJbmMuMR8wHQYDVQQL
ExZWZXJpU2lnbiBUcnVzdCBOZXR3b3JrMTowOAYDVQQLEzEoYykgMjAwNiBWZXJp
U2lnbiwgSW5jLiAtIEZvciBhdXRob3JpemVkIHVzZSBvbmx5MUUwQwYDVQQDEzxW
ZXJpU2lnbiBDbGFzcyAzIFB1YmxpYyBQcmltYXJ5IENlcnRpZmljYXRpb24gQXV0
aG9yaXR5IC0gRzUwHhcNMTAwMjA4MDAwMDAwWhcNMjAwMjA3MjM1OTU5WjCBtDEL
MAkGA1UEBhMCVVMxFzAVBgNVBAoTDlZlcmlTaWduLCBJbmMuMR8wHQYDVQQLExZW
ZXJpU2lnbiBUcnVzdCBOZXR3b3JrMTswOQYDVQQLEzJUZXJtcyBvZiB1c2UgYXQg
aHR0cHM6Ly93d3cudmVyaXNpZ24uY29tL3JwYSAoYykxMDEuMCwGA1UEAxMlVmVy
aVNpZ24gQ2xhc3MgMyBDb2RlIFNpZ25pbmcgMjAxMCBDQTCCASIwDQYJKoZIhvcN
AQEBBQADggEPADCCAQoCggEBAPUjS16l14q7MunUV/fv5Mcmfq0ZmP6onX2U9jZr
ENd1gTB/BGh/yyt1Hs0dCIzfaZSnN6Oce4DgmeHuN01fzjsU7obU0PUnNbwlCzin
jGOdF6MIpauw+81qYoJM1SHaG9nx44Q7iipPhVuQAU/Jp3YQfycDfL6ufn3B3fkF
vBtInGnnwKQ8PEEAPt+W5cXklHHWVQHHACZKQDy1oSapDKdtgI6QJXvPvz8c6y+W
+uWHd8a1VrJ6O1QwUxvfYjT/HtH0WpMoheVMF05+W/2kk5l/383vpHXv7xX2R+f4
GXLYLjQaprSnTH69u08MPVfxMNamNo7WgHbXGS6lzX40LYkCAwEAAaOCAf4wggH6
MBIGA1UdEwEB/wQIMAYBAf8CAQAwcAYDVR0gBGkwZzBlBgtghkgBhvhFAQcXAzBW
MCgGCCsGAQUFBwIBFhxodHRwczovL3d3dy52ZXJpc2lnbi5jb20vY3BzMCoGCCsG
AQUFBwICMB4aHGh0dHBzOi8vd3d3LnZlcmlzaWduLmNvbS9ycGEwDgYDVR0PAQH/
BAQDAgEGMG0GCCsGAQUFBwEMBGEwX6FdoFswWTBXMFUWCWltYWdlL2dpZjAhMB8w
BwYFKw4DAhoEFI/l0xqGrI2Oa8PPgGrUSBgsexkuMCUWI2h0dHA6Ly9sb2dvLnZl
cmlzaWduLmNvbS92c2xvZ28uZ2lmMDQGA1UdHwQtMCswKaAnoCWGI2h0dHA6Ly9j
cmwudmVyaXNpZ24uY29tL3BjYTMtZzUuY3JsMDQGCCsGAQUFBwEBBCgwJjAkBggr
BgEFBQcwAYYYaHR0cDovL29jc3AudmVyaXNpZ24uY29tMB0GA1UdJQQWMBQGCCsG
AQUFBwMCBggrBgEFBQcDAzAoBgNVHREEITAfpB0wGzEZMBcGA1UEAxMQVmVyaVNp
Z25NUEtJLTItODAdBgNVHQ4EFgQUz5mp6nsm9EvJjo/X8AUm7+PSp50wHwYDVR0j
BBgwFoAUf9Nlp8Ld7LvwMAnzQzn6Aq8zMTMwDQYJKoZIhvcNAQEFBQADggEBAFYi
5jSkxGHLSLkBrVaoZA/ZjJHEu8wM5a16oCJ/30c4Si1s0X9xGnzscKmx8E/kDwxT
+hVe/nSYSSSFgSYckRRHsExjjLuhNNTGRegNhSZzA9CpjGRt3HGS5kUFYBVZUTn8
WBRr/tSk7XlrCAxBcuc3IgYJviPpP0SaHulhncyxkFz8PdKNrEI9ZTbUtD1AKI+b
EM8jJsxLIMuQH12MTDTKPNjlN9ZvpSC9NOsm2a4N58Wa96G0IZEzb4boWLslfHQO
WP51G2M/zjF8m48blp7FU3aEW5ytkfqs7ZO6XcghU8KCU2OvEg1QhxEbPVRSloos
nD2SGgiaBS7Hk6VIkdM=
-----END CERTIFICATE-----

