Certificate:
    Data:
        Version: 3 (0x2)
        Serial Number:
            16:88:f0:39:25:5e:63:8e:69:14:39:07:e6:33:0b
    Signature Algorithm: sha1WithRSAEncryption
        Issuer: C=US, ST=UT, L=Salt Lake City, O=The USERTRUST Network, OU=http://www.usertrust.com, CN=UTN-USERFirst-Object
        Validity
            Not Before: Dec 31 00:00:00 2015 GMT
            Not After : Jul  9 18:40:36 2019 GMT
        Subject: C=GB, ST=Greater Manchester, L=Salford, O=COMODO CA Limited, CN=COMODO SHA-1 Time Stamping Signer
        Subject Public Key Info:
            Public Key Algorithm: rsaEncryption
                Public-Key: (2048 bit)
                Modulus:
                    00:e9:e9:3d:df:d7:37:08:c9:1e:38:b2:52:53:42:
                    6d:22:f1:b1:c4:06:04:6b:9e:fd:82:74:50:43:7d:
                    c6:a0:bb:1f:4e:f9:02:71:26:b1:ef:43:d8:83:8c:
                    48:fc:e7:0f:97:7a:9a:eb:9c:de:a6:a3:0e:3b:1c:
                    44:18:75:8e:78:a5:17:69:fe:49:18:a4:e2:bb:5c:
                    4e:fe:8e:2a:54:7a:50:f0:d5:f6:cc:91:e7:99:79:
                    d7:de:79:94:d7:96:33:fe:0e:83:be:22:bf:63:16:
                    2c:a3:dd:28:1b:af:3d:ab:ea:97:d2:f1:bf:04:10:
                    e7:3d:48:45:fd:1f:68:65:c1:7f:59:99:69:c0:22:
                    31:0c:62:6e:a7:5c:65:01:21:b0:63:c4:22:18:27:
                    ee:e6:fc:d2:00:3d:47:2e:a8:b8:86:56:5d:04:dc:
                    13:17:25:6e:1c:df:44:0f:15:cd:b7:db:a5:57:76:
                    42:6f:00:68:82:99:d2:e3:c1:de:f0:8b:94:57:4c:
                    ec:08:90:22:21:ce:22:2b:98:0c:42:e6:42:93:94:
                    98:93:ef:fd:06:d9:3f:bc:5b:9b:54:3c:20:b1:ee:
                    6a:d6:47:7a:c5:ab:80:e9:30:9a:de:f1:a4:3f:55:
                    4d:0a:09:34:8a:75:29:d2:69:ad:97:0f:50:bf:f8:
                    ca:09
                Exponent: 65537 (0x10001)
        X509v3 extensions:
            X509v3 Authority Key Identifier: 
                keyid:DA:ED:64:74:14:9C:14:3C:AB:DD:99:A9:BD:5B:28:4D:8B:3C:C9:D8

            X509v3 Subject Key Identifier: 
                8E:6B:2D:33:6B:F4:33:A7:93:B3:13:9A:A5:E0:0A:F7:12:35:6A:88
            X509v3 Key Usage: critical
                Digital Signature, Non Repudiation
            X509v3 Basic Constraints: critical
                CA:FALSE
            X509v3 Extended Key Usage: critical
                Time Stamping
            X509v3 CRL Distribution Points: 

                Full Name:
                  URI:http://crl.usertrust.com/UTN-USERFirst-Object.crl

            Authority Information Access: 
                OCSP - URI:http://ocsp.usertrust.com

    Signature Algorithm: sha1WithRSAEncryption
         ba:33:24:40:40:8c:7c:db:58:9f:b3:60:98:b2:f5:c0:31:fe:
         eb:1f:6e:50:f6:0a:e0:e4:e6:81:ad:26:87:a2:df:fd:b3:da:
         f4:73:f3:00:fb:29:1b:89:1b:15:3e:db:6b:52:93:2b:c4:ac:
         39:81:d7:3c:67:57:9a:39:36:e0:28:08:9a:e3:39:4f:9b:89:
         09:7f:7b:c5:61:7f:59:89:32:25:0a:6a:ae:1a:3e:f0:a2:27:
         a8:b6:c3:b8:87:f7:16:04:48:41:3d:5c:d8:ec:9f:4d:20:31:
         04:d9:65:a1:ed:cd:69:07:53:16:3d:dd:36:02:0a:88:eb:40:
         e5:06:30:0b:b8:16:4b:dc:ef:bc:55:09:ff:c6:3e:12:2e:76:
         b3:dc:ce:42:ef:f9:76:57:e1:b7:0a:05:40:98:58:9a:5d:71:
         16:93:71:8c:65:81:ea:6f:f3:89:f7:fb:73:ad:b4:e7:bf:d9:
         8e:6f:aa:0b:4f:25:f3:b8:e1:d5:dd:75:98:68:81:f8:aa:c0:
         d1:80:c2:c4:c4:39:89:c1:f6:c9:9e:6c:d7:74:f9:d9:97:f8:
         4f:c2:9a:0a:cd:5e:8f:f8:19:e9:e0:a5:9f:c4:f0:92:21:e6:
         2d:79:25:c9:22:f9:c3:f0:3a:84:57:ad:3a:16:f4:63:94:10:
         1d:5d:d0:c6
-----BEGIN CERTIFICATE-----
MIIEmTCCA4GgAwIBAgIPFojwOSVeY45pFDkH5jMLMA0GCSqGSIb3DQEBBQUAMIGV
MQswCQYDVQQGEwJVUzELMAkGA1UECBMCVVQxFzAVBgNVBAcTDlNhbHQgTGFrZSBD
aXR5MR4wHAYDVQQKExVUaGUgVVNFUlRSVVNUIE5ldHdvcmsxITAfBgNVBAsTGGh0
dHA6Ly93d3cudXNlcnRydXN0LmNvbTEdMBsGA1UEAxMUVVROLVVTRVJGaXJzdC1P
YmplY3QwHhcNMTUxMjMxMDAwMDAwWhcNMTkwNzA5MTg0MDM2WjCBhDELMAkGA1UE
BhMCR0IxGzAZBgNVBAgTEkdyZWF0ZXIgTWFuY2hlc3RlcjEQMA4GA1UEBxMHU2Fs
Zm9yZDEaMBgGA1UEChMRQ09NT0RPIENBIExpbWl0ZWQxKjAoBgNVBAMTIUNPTU9E
TyBTSEEtMSBUaW1lIFN0YW1waW5nIFNpZ25lcjCCASIwDQYJKoZIhvcNAQEBBQAD
ggEPADCCAQoCggEBAOnpPd/XNwjJHjiyUlNCbSLxscQGBGue/YJ0UEN9xqC7H075
AnEmse9D2IOMSPznD5d6muuc3qajDjscRBh1jnilF2n+SRik4rtcTv6OKlR6UPDV
9syR55l51955lNeWM/4Og74iv2MWLKPdKBuvPavql9LxvwQQ5z1IRf0faGXBf1mZ
acAiMQxibqdcZQEhsGPEIhgn7ub80gA9Ry6ouIZWXQTcExclbhzfRA8VzbfbpVd2
Qm8AaIKZ0uPB3vCLlFdM7AiQIiHOIiuYDELmQpOUmJPv/QbZP7xbm1Q8ILHuatZH
esWrgOkwmt7xpD9VTQoJNIp1KdJprZcPUL/4ygkCAwEAAaOB9DCB8TAfBgNVHSME
GDAWgBTa7WR0FJwUPKvdmam9WyhNizzJ2DAdBgNVHQ4EFgQUjmstM2v0M6eTsxOa
peAK9xI1aogwDgYDVR0PAQH/BAQDAgbAMAwGA1UdEwEB/wQCMAAwFgYDVR0lAQH/
BAwwCgYIKwYBBQUHAwgwQgYDVR0fBDswOTA3oDWgM4YxaHR0cDovL2NybC51c2Vy
dHJ1c3QuY29tL1VUTi1VU0VSRmlyc3QtT2JqZWN0LmNybDA1BggrBgEFBQcBAQQp
MCcwJQYIKwYBBQUHMAGGGWh0dHA6Ly9vY3NwLnVzZXJ0cnVzdC5jb20wDQYJKoZI
hvcNAQEFBQADggEBALozJEBAjHzbWJ+zYJiy9cAx/usfblD2CuDk5oGtJoei3/2z
2vRz8wD7KRuJGxU+22tSkyvErDmB1zxnV5o5NuAoCJrjOU+biQl/e8Vhf1mJMiUK
aq4aPvCiJ6i2w7iH9xYESEE9XNjsn00gMQTZZaHtzWkHUxY93TYCCojrQOUGMAu4
Fkvc77xVCf/GPhIudrPczkLv+XZX4bcKBUCYWJpdcRaTcYxlgepv84n3+3OttOe/
2Y5vqgtPJfO44dXddZhogfiqwNGAwsTEOYnB9smebNd0+dmX+E/CmgrNXo/4Geng
pZ/E8JIh5i15Jcki+cPwOoRXrToW9GOUEB1d0MY=
-----END CERTIFICATE-----

Certificate:
    Data:
        Version: 3 (0x2)
        Serial Number:
            27:f7:78:13:be:9b:ff:e8:0f:26:36:d5:07:40:d2:79
    Signature Algorithm: sha256WithRSAEncryption
        Issuer: C=GB, ST=Greater Manchester, L=Salford, O=COMODO CA Limited, CN=COMODO RSA Code Signing CA
        Validity
            Not Before: Aug 29 00:00:00 2016 GMT
            Not After : Aug 18 23:59:59 2020 GMT
        Subject: C=US/postalCode=11803, ST=NY, L=Plainview/street=PO Box 769, O=DeskShare, Inc., CN=DeskShare, Inc.
        Subject Public Key Info:
            Public Key Algorithm: rsaEncryption
                Public-Key: (2048 bit)
                Modulus:
                    00:ce:5b:46:a0:6e:b4:60:9c:40:1a:9f:68:66:d4:
                    5d:3b:25:cd:1e:e4:8d:48:c1:40:f6:5b:8d:d4:2a:
                    27:74:20:43:3b:b5:8a:64:11:4f:96:16:1d:70:bf:
                    89:52:b2:c3:75:cf:14:53:31:0e:a4:0b:e3:9b:76:
                    32:72:60:24:94:04:f7:39:af:6b:ef:c4:19:6b:cc:
                    aa:ce:d9:a7:22:21:02:25:59:a3:5e:f5:c5:a1:a9:
                    59:9f:5c:b4:56:b6:55:a1:aa:32:d7:a7:fd:a5:e3:
                    59:dd:3f:03:7d:81:c1:c7:88:f9:d5:df:f1:f8:36:
                    a3:0b:48:cb:dc:d3:c2:62:f1:6c:63:45:94:4f:f3:
                    39:3c:e6:5a:a9:16:9b:54:ff:ac:97:7e:4b:eb:42:
                    98:76:1b:bb:52:50:4a:5b:50:c9:5b:e4:3f:97:f3:
                    d3:7f:34:61:f4:fb:4a:60:45:a4:9f:97:f4:da:8e:
                    5a:a4:26:97:ad:0f:5d:a7:1e:1d:a5:36:ff:5b:6a:
                    45:bb:7a:61:ec:26:5c:f9:8c:40:09:a8:60:f8:bc:
                    bf:78:e9:2d:2c:a8:62:36:c2:c3:7e:20:ba:04:09:
                    c4:fb:28:32:09:ad:2e:b8:f9:bd:15:e4:bc:d4:b7:
                    9b:a8:64:1c:c4:1e:47:e5:14:17:93:9b:d0:93:3a:
                    10:a3
                Exponent: 65537 (0x10001)
        X509v3 extensions:
            X509v3 Authority Key Identifier: 
                keyid:29:91:60:FF:8A:4D:FA:EB:F9:A6:6A:B8:CF:F9:E6:4B:BD:49:CE:12

            X509v3 Subject Key Identifier: 
                4E:E1:A1:48:8A:A5:AD:96:F7:60:04:E1:9E:3E:F3:98:26:D2:5A:46
            X509v3 Key Usage: critical
                Digital Signature
            X509v3 Basic Constraints: critical
                CA:FALSE
            X509v3 Extended Key Usage: 
                Code Signing
            Netscape Cert Type: 
                Object Signing
            X509v3 Certificate Policies: 
                Policy: 1.3.6.1.4.1.6449.1.2.1.3.2
                  CPS: https://secure.comodo.net/CPS

            X509v3 CRL Distribution Points: 

                Full Name:
                  URI:http://crl.comodoca.com/COMODORSACodeSigningCA.crl

            Authority Information Access: 
                CA Issuers - URI:http://crt.comodoca.com/COMODORSACodeSigningCA.crt
                OCSP - URI:http://ocsp.comodoca.com

            X509v3 Subject Alternative Name: 
                email:sales@deskshare.com
    Signature Algorithm: sha256WithRSAEncryption
         92:e1:d6:97:44:43:de:34:de:89:61:9b:d8:e0:0b:89:dc:82:
         88:c9:d1:aa:2b:5d:ae:95:69:b1:95:e9:13:f4:2c:9c:0f:b2:
         db:7f:5b:d4:63:9a:1e:cd:a6:3e:4f:75:8c:d7:d6:6f:f0:ed:
         2f:d4:48:85:af:9a:90:86:27:81:29:4e:be:43:69:1e:1e:88:
         30:52:9f:20:b3:4f:ce:fa:3a:36:78:73:f4:dc:ab:27:5c:a9:
         bf:42:73:e5:3a:19:d4:4a:32:f3:98:3e:fc:ee:fa:69:55:63:
         06:57:21:3b:f9:78:ec:2c:62:e0:f2:ca:2a:1b:37:6e:e8:74:
         e7:41:59:5c:f1:5e:03:69:e5:7b:39:23:b3:f6:d7:b0:c4:da:
         e2:3b:93:20:0f:3b:73:e7:bc:09:24:52:6f:50:f3:0b:48:25:
         58:2e:1b:9e:fb:93:7b:2d:cc:d0:ee:41:95:fc:10:ff:74:24:
         b4:b4:5d:f4:42:ff:3c:7b:72:04:5d:5a:cc:24:51:82:84:0a:
         37:89:4d:60:db:a2:eb:5e:ec:78:7a:05:8d:51:3c:bd:2e:ae:
         09:61:a2:32:b1:da:8c:c2:9c:ed:8c:c5:bb:8c:3c:86:6c:db:
         73:c7:00:e1:7c:17:21:d5:3e:90:62:37:ab:c2:1c:52:21:0d:
         bf:8f:c7:1e
-----BEGIN CERTIFICATE-----
MIIFPjCCBCagAwIBAgIQJ/d4E76b/+gPJjbVB0DSeTANBgkqhkiG9w0BAQsFADB9
MQswCQYDVQQGEwJHQjEbMBkGA1UECBMSR3JlYXRlciBNYW5jaGVzdGVyMRAwDgYD
VQQHEwdTYWxmb3JkMRowGAYDVQQKExFDT01PRE8gQ0EgTGltaXRlZDEjMCEGA1UE
AxMaQ09NT0RPIFJTQSBDb2RlIFNpZ25pbmcgQ0EwHhcNMTYwODI5MDAwMDAwWhcN
MjAwODE4MjM1OTU5WjCBhzELMAkGA1UEBhMCVVMxDjAMBgNVBBEMBTExODAzMQsw
CQYDVQQIDAJOWTESMBAGA1UEBwwJUGxhaW52aWV3MRMwEQYDVQQJDApQTyBCb3gg
NzY5MRgwFgYDVQQKDA9EZXNrU2hhcmUsIEluYy4xGDAWBgNVBAMMD0Rlc2tTaGFy
ZSwgSW5jLjCCASIwDQYJKoZIhvcNAQEBBQADggEPADCCAQoCggEBAM5bRqButGCc
QBqfaGbUXTslzR7kjUjBQPZbjdQqJ3QgQzu1imQRT5YWHXC/iVKyw3XPFFMxDqQL
45t2MnJgJJQE9zmva+/EGWvMqs7ZpyIhAiVZo171xaGpWZ9ctFa2VaGqMten/aXj
Wd0/A32BwceI+dXf8fg2owtIy9zTwmLxbGNFlE/zOTzmWqkWm1T/rJd+S+tCmHYb
u1JQSltQyVvkP5fz0380YfT7SmBFpJ+X9NqOWqQml60PXaceHaU2/1tqRbt6Yewm
XPmMQAmoYPi8v3jpLSyoYjbCw34gugQJxPsoMgmtLrj5vRXkvNS3m6hkHMQeR+UU
F5Ob0JM6EKMCAwEAAaOCAa0wggGpMB8GA1UdIwQYMBaAFCmRYP+KTfrr+aZquM/5
5ku9Sc4SMB0GA1UdDgQWBBRO4aFIiqWtlvdgBOGePvOYJtJaRjAOBgNVHQ8BAf8E
BAMCB4AwDAYDVR0TAQH/BAIwADATBgNVHSUEDDAKBggrBgEFBQcDAzARBglghkgB
hvhCAQEEBAMCBBAwRgYDVR0gBD8wPTA7BgwrBgEEAbIxAQIBAwIwKzApBggrBgEF
BQcCARYdaHR0cHM6Ly9zZWN1cmUuY29tb2RvLm5ldC9DUFMwQwYDVR0fBDwwOjA4
oDagNIYyaHR0cDovL2NybC5jb21vZG9jYS5jb20vQ09NT0RPUlNBQ29kZVNpZ25p
bmdDQS5jcmwwdAYIKwYBBQUHAQEEaDBmMD4GCCsGAQUFBzAChjJodHRwOi8vY3J0
LmNvbW9kb2NhLmNvbS9DT01PRE9SU0FDb2RlU2lnbmluZ0NBLmNydDAkBggrBgEF
BQcwAYYYaHR0cDovL29jc3AuY29tb2RvY2EuY29tMB4GA1UdEQQXMBWBE3NhbGVz
QGRlc2tzaGFyZS5jb20wDQYJKoZIhvcNAQELBQADggEBAJLh1pdEQ9403olhm9jg
C4ncgojJ0aorXa6VabGV6RP0LJwPstt/W9Rjmh7Npj5PdYzX1m/w7S/USIWvmpCG
J4EpTr5DaR4eiDBSnyCzT876OjZ4c/Tcqydcqb9Cc+U6GdRKMvOYPvzu+mlVYwZX
ITv5eOwsYuDyyiobN27odOdBWVzxXgNp5Xs5I7P217DE2uI7kyAPO3PnvAkkUm9Q
8wtIJVguG577k3stzNDuQZX8EP90JLS0XfRC/zx7cgRdWswkUYKECjeJTWDboute
7Hh6BY1RPL0urglhojKx2ozCnO2MxbuMPIZs23PHAOF8FyHVPpBiN6vCHFIhDb+P
xx4=
-----END CERTIFICATE-----

Certificate:
    Data:
        Version: 3 (0x2)
        Serial Number:
            2e:7c:87:cc:0e:93:4a:52:fe:94:fd:1c:b7:cd:34:af
    Signature Algorithm: sha384WithRSAEncryption
        Issuer: C=GB, ST=Greater Manchester, L=Salford, O=COMODO CA Limited, CN=COMODO RSA Certification Authority
        Validity
            Not Before: May  9 00:00:00 2013 GMT
            Not After : May  8 23:59:59 2028 GMT
        Subject: C=GB, ST=Greater Manchester, L=Salford, O=COMODO CA Limited, CN=COMODO RSA Code Signing CA
        Subject Public Key Info:
            Public Key Algorithm: rsaEncryption
                Public-Key: (2048 bit)
                Modulus:
                    00:a6:98:90:63:77:91:34:7f:8a:d1:dd:e9:67:31:
                    11:eb:cc:1e:fd:31:1d:b3:b9:62:57:3f:93:bc:5b:
                    e3:9f:1e:24:32:11:27:6b:bc:51:91:a7:cf:9e:9e:
                    25:b3:5f:81:a8:18:0f:1d:1e:20:30:0e:fb:61:7b:
                    86:09:b3:e3:fd:a2:68:9d:1c:2c:9d:bf:72:e3:e4:
                    75:a0:e5:35:23:8e:c9:8a:ee:1a:0c:64:c7:d8:42:
                    a1:7b:b5:52:03:4b:3a:b0:8e:23:4b:4b:63:e0:22:
                    94:37:7b:d5:79:90:0a:14:18:51:2c:e6:fe:c1:12:
                    f0:1c:3f:61:61:0a:8c:a2:dc:f6:c3:30:aa:cd:28:
                    18:75:48:c1:79:5a:08:cd:bb:8c:55:8c:f7:d4:76:
                    90:3a:33:46:50:73:98:5c:f4:85:4a:6b:0f:80:dd:
                    5e:d6:bd:fd:a9:2f:c0:25:f5:f9:78:d7:8d:5f:10:
                    c2:44:55:3c:90:3c:31:46:cb:70:ae:07:a9:0a:e3:
                    af:c1:01:6f:90:1a:23:e2:5f:38:db:c6:08:5d:47:
                    b3:83:41:f0:2e:00:37:14:b9:12:aa:79:92:52:cd:
                    87:0f:7b:d8:62:29:a4:7e:30:bd:1b:b5:8c:72:b4:
                    48:f2:e3:e8:21:f9:5e:4c:62:79:8b:02:06:9f:7f:
                    d5:0b
                Exponent: 65537 (0x10001)
        X509v3 extensions:
            X509v3 Authority Key Identifier: 
                keyid:BB:AF:7E:02:3D:FA:A6:F1:3C:84:8E:AD:EE:38:98:EC:D9:32:32:D4

            X509v3 Subject Key Identifier: 
                29:91:60:FF:8A:4D:FA:EB:F9:A6:6A:B8:CF:F9:E6:4B:BD:49:CE:12
            X509v3 Key Usage: critical
                Digital Signature, Certificate Sign, CRL Sign
            X509v3 Basic Constraints: critical
                CA:TRUE, pathlen:0
            X509v3 Extended Key Usage: 
                Code Signing
            X509v3 Certificate Policies: 
                Policy: X509v3 Any Policy

            X509v3 CRL Distribution Points: 

                Full Name:
                  URI:http://crl.comodoca.com/COMODORSACertificationAuthority.crl

            Authority Information Access: 
                CA Issuers - URI:http://crt.comodoca.com/COMODORSAAddTrustCA.crt
                OCSP - URI:http://ocsp.comodoca.com

    Signature Algorithm: sha384WithRSAEncryption
         02:3f:02:39:c3:ee:f8:ca:3b:89:de:0c:6d:4d:b1:f1:4e:92:
         4f:af:c2:38:2c:04:cc:c5:63:11:ab:09:63:af:ab:a2:d7:02:
         3f:cc:6f:19:c3:3d:d6:1a:08:94:ff:25:d8:a9:88:a7:2b:10:
         1a:e0:9b:b1:07:22:1a:51:1c:3a:d4:e1:e9:09:bf:e6:24:74:
         af:1e:7b:16:31:6e:23:ef:54:51:2d:52:02:e2:75:08:05:4c:
         f1:b7:51:e1:51:00:c6:87:f6:6c:ee:10:44:76:57:6a:f1:df:
         58:6b:21:aa:49:d4:7c:37:4e:bd:ff:b6:75:54:40:18:36:57:
         67:11:cd:4f:02:e4:fe:f3:da:fc:75:17:db:ec:b7:f7:65:09:
         23:49:1f:43:57:83:ea:7e:20:77:61:c8:4d:f2:bb:65:4d:a8:
         f7:85:45:07:af:7a:69:27:65:90:29:40:8b:df:7b:3a:51:39:
         8c:a8:1f:70:79:ad:6d:42:20:a2:cf:0c:6c:03:8c:4c:cd:73:
         07:94:e7:5a:8e:3a:04:ba:a2:a1:7c:1f:cb:63:3a:15:a7:d4:
         15:1b:a7:52:47:32:a9:f4:bf:64:47:d1:aa:1f:53:4e:32:30:
         73:c2:6f:b7:78:82:9d:5c:ff:46:bb:6b:22:1d:88:0b:f8:1b:
         aa:34:a6:fc:8c:f5:dd:7f:65:8c:8c:31:57:31:d0:36:ec:47:
         a1:cf:cb:8b:a8:ef:1c:18:58:c5:06:77:ca:4b:9b:51:af:4c:
         08:4a:7a:8f:e2:a3:52:e2:8e:8e:cc:26:e4:b2:d8:e5:38:c2:
         a8:ed:c6:81:9c:35:6b:a9:58:61:4a:0a:97:b4:4b:42:b6:55:
         9d:be:99:e7:70:6d:59:f8:6d:2a:0c:7f:19:60:5f:0c:9a:88:
         6c:30:ac:52:09:90:16:1b:ff:2b:9d:db:d0:20:ca:89:ea:28:
         7e:32:8e:19:df:7b:48:33:1e:d7:65:f8:ae:c9:f8:83:14:93:
         76:7d:64:d0:8e:ce:be:35:7d:ff:72:31:4d:9f:9e:bd:1e:6c:
         2f:a8:8f:0c:06:50:fb:8c:27:b3:76:c9:f4:e6:d7:c3:34:e2:
         8c:87:21:86:61:fe:bf:55:74:e1:21:77:03:0a:68:6c:bb:e4:
         c9:a9:e6:cf:59:25:eb:7c:ec:45:0e:79:66:68:e8:22:cd:b8:
         ef:98:85:4d:96:11:3c:09:8a:d0:7f:bc:28:28:13:fb:6a:ca:
         54:8d:92:5c:cd:c2:65:98:06:9e:ce:48:5b:d4:b5:37:93:46:
         41:7c:07:dd:cf:fa:43:ef:ba:67:61:ff:7d:49:e0:bb:30:7d:
         5c:80:e3:e6:16:39:4b:a7
-----BEGIN CERTIFICATE-----
MIIF4DCCA8igAwIBAgIQLnyHzA6TSlL+lP0ct800rzANBgkqhkiG9w0BAQwFADCB
hTELMAkGA1UEBhMCR0IxGzAZBgNVBAgTEkdyZWF0ZXIgTWFuY2hlc3RlcjEQMA4G
A1UEBxMHU2FsZm9yZDEaMBgGA1UEChMRQ09NT0RPIENBIExpbWl0ZWQxKzApBgNV
BAMTIkNPTU9ETyBSU0EgQ2VydGlmaWNhdGlvbiBBdXRob3JpdHkwHhcNMTMwNTA5
MDAwMDAwWhcNMjgwNTA4MjM1OTU5WjB9MQswCQYDVQQGEwJHQjEbMBkGA1UECBMS
R3JlYXRlciBNYW5jaGVzdGVyMRAwDgYDVQQHEwdTYWxmb3JkMRowGAYDVQQKExFD
T01PRE8gQ0EgTGltaXRlZDEjMCEGA1UEAxMaQ09NT0RPIFJTQSBDb2RlIFNpZ25p
bmcgQ0EwggEiMA0GCSqGSIb3DQEBAQUAA4IBDwAwggEKAoIBAQCmmJBjd5E0f4rR
3elnMRHrzB79MR2zuWJXP5O8W+OfHiQyESdrvFGRp8+eniWzX4GoGA8dHiAwDvth
e4YJs+P9omidHCydv3Lj5HWg5TUjjsmK7hoMZMfYQqF7tVIDSzqwjiNLS2PgIpQ3
e9V5kAoUGFEs5v7BEvAcP2FhCoyi3PbDMKrNKBh1SMF5WgjNu4xVjPfUdpA6M0ZQ
c5hc9IVKaw+A3V7Wvf2pL8Al9fl4141fEMJEVTyQPDFGy3CuB6kK46/BAW+QGiPi
XzjbxghdR7ODQfAuADcUuRKqeZJSzYcPe9hiKaR+ML0btYxytEjy4+gh+V5MYnmL
Agaff9ULAgMBAAGjggFRMIIBTTAfBgNVHSMEGDAWgBS7r34CPfqm8TyEjq3uOJjs
2TIy1DAdBgNVHQ4EFgQUKZFg/4pN+uv5pmq4z/nmS71JzhIwDgYDVR0PAQH/BAQD
AgGGMBIGA1UdEwEB/wQIMAYBAf8CAQAwEwYDVR0lBAwwCgYIKwYBBQUHAwMwEQYD
VR0gBAowCDAGBgRVHSAAMEwGA1UdHwRFMEMwQaA/oD2GO2h0dHA6Ly9jcmwuY29t
b2RvY2EuY29tL0NPTU9ET1JTQUNlcnRpZmljYXRpb25BdXRob3JpdHkuY3JsMHEG
CCsGAQUFBwEBBGUwYzA7BggrBgEFBQcwAoYvaHR0cDovL2NydC5jb21vZG9jYS5j
b20vQ09NT0RPUlNBQWRkVHJ1c3RDQS5jcnQwJAYIKwYBBQUHMAGGGGh0dHA6Ly9v
Y3NwLmNvbW9kb2NhLmNvbTANBgkqhkiG9w0BAQwFAAOCAgEAAj8COcPu+Mo7id4M
bU2x8U6ST6/COCwEzMVjEasJY6+rotcCP8xvGcM91hoIlP8l2KmIpysQGuCbsQci
GlEcOtTh6Qm/5iR0rx57FjFuI+9UUS1SAuJ1CAVM8bdR4VEAxof2bO4QRHZXavHf
WGshqknUfDdOvf+2dVRAGDZXZxHNTwLk/vPa/HUX2+y392UJI0kfQ1eD6n4gd2HI
TfK7ZU2o94VFB696aSdlkClAi997OlE5jKgfcHmtbUIgos8MbAOMTM1zB5TnWo46
BLqioXwfy2M6FafUFRunUkcyqfS/ZEfRqh9TTjIwc8Jvt3iCnVz/RrtrIh2IC/gb
qjSm/Iz13X9ljIwxVzHQNuxHoc/Li6jvHBhYxQZ3ykubUa9MCEp6j+KjUuKOjswm
5LLY5TjCqO3GgZw1a6lYYUoKl7RLQrZVnb6Z53BtWfhtKgx/GWBfDJqIbDCsUgmQ
Fhv/K53b0CDKieoofjKOGd97SDMe12X4rsn4gxSTdn1k0I7OvjV9/3IxTZ+evR5s
L6iPDAZQ+4wns3bJ9ObXwzTijIchhmH+v1V04SF3AwpobLvkyanmz1kl63zsRQ55
ZmjoIs2475iFTZYRPAmK0H+8KCgT+2rKVI2SXM3CZZgGns5IW9S1N5NGQXwH3c/6
Q++6Z2H/fUnguzB9XIDj5hY5S6c=
-----END CERTIFICATE-----

