Certificate:
    Data:
        Version: 3 (0x2)
        Serial Number:
            7e:93:eb:fb:7c:c6:4e:59:ea:4b:9a:77:d4:06:fc:3b
    Signature Algorithm: sha1WithRSAEncryption
        Issuer: C=ZA, ST=Western Cape, L=Durbanville, O=Thawte, OU=Thawte Certification, CN=Thawte Timestamping CA
        Validity
            Not Before: Dec 21 00:00:00 2012 GMT
            Not After : Dec 30 23:59:59 2020 GMT
        Subject: C=US, O=Symantec Corporation, CN=Symantec Time Stamping Services CA - G2
        Subject Public Key Info:
            Public Key Algorithm: rsaEncryption
                Public-Key: (2048 bit)
                Modulus:
                    00:b1:ac:b3:49:54:4b:97:1c:12:0a:d8:25:79:91:
                    22:57:2a:6f:dc:b8:26:c4:43:73:6b:c2:bf:2e:50:
                    5a:fb:14:c2:76:8e:43:01:25:43:b4:a1:e2:45:f4:
                    e8:b7:7b:c3:74:cc:22:d7:b4:94:00:02:f7:4d:ed:
                    bf:b4:b7:44:24:6b:cd:5f:45:3b:d1:44:ce:43:12:
                    73:17:82:8b:69:b4:2b:cb:99:1e:ac:72:1b:26:4d:
                    71:1f:b1:31:dd:fb:51:61:02:53:a6:aa:f5:49:2c:
                    05:78:45:a5:2f:89:ce:e7:99:e7:fe:8c:e2:57:3f:
                    3d:c6:92:dc:4a:f8:7b:33:e4:79:0a:fb:f0:75:88:
                    41:9c:ff:c5:03:51:99:aa:d7:6c:9f:93:69:87:65:
                    29:83:85:c2:60:14:c4:c8:c9:3b:14:da:c0:81:f0:
                    1f:0d:74:de:92:22:ab:ca:f7:fb:74:7c:27:e6:f7:
                    4a:1b:7f:a7:c3:9e:2d:ae:8a:ea:a6:e6:aa:27:16:
                    7d:61:f7:98:71:11:bc:e2:50:a1:4b:e5:5d:fa:e5:
                    0e:a7:2c:9f:aa:65:20:d3:d8:96:e8:c8:7c:a5:4e:
                    48:44:ff:19:e2:44:07:92:0b:d7:68:84:80:5d:6a:
                    78:64:45:cd:60:46:7e:54:c1:13:7c:c5:79:f1:c9:
                    c1:71
                Exponent: 65537 (0x10001)
        X509v3 extensions:
            X509v3 Subject Key Identifier: 
                5F:9A:F5:6E:5C:CC:CC:74:9A:D4:DD:7D:EF:3F:DB:EC:4C:80:2E:DD
            Authority Information Access: 
                OCSP - URI:http://ocsp.thawte.com

            X509v3 Basic Constraints: critical
                CA:TRUE, pathlen:0
            X509v3 CRL Distribution Points: 

                Full Name:
                  URI:http://crl.thawte.com/ThawteTimestampingCA.crl

            X509v3 Extended Key Usage: 
                Time Stamping
            X509v3 Key Usage: critical
                Certificate Sign, CRL Sign
            X509v3 Subject Alternative Name: 
                DirName:/CN=TimeStamp-2048-1
    Signature Algorithm: sha1WithRSAEncryption
         03:09:9b:8f:79:ef:7f:59:30:aa:ef:68:b5:fa:e3:09:1d:bb:
         4f:82:06:5d:37:5f:a6:52:9f:16:8d:ea:1c:92:09:44:6e:f5:
         6d:eb:58:7c:30:e8:f9:69:8d:23:73:0b:12:6f:47:a9:ae:39:
         11:f8:2a:b1:9b:b0:1a:c3:8e:eb:59:96:00:ad:ce:0c:4d:b2:
         d0:31:a6:08:5c:2a:7a:fc:e2:7a:1d:57:4c:a8:65:18:e9:79:
         40:62:25:96:6e:c7:c7:37:6a:83:21:08:8e:41:ea:dd:d9:57:
         3f:1d:77:49:87:2a:16:06:5e:a6:38:6a:22:12:a3:51:19:83:
         7e:b6
-----BEGIN CERTIFICATE-----
MIID7jCCA1egAwIBAgIQfpPr+3zGTlnqS5p31Ab8OzANBgkqhkiG9w0BAQUFADCB
izELMAkGA1UEBhMCWkExFTATBgNVBAgTDFdlc3Rlcm4gQ2FwZTEUMBIGA1UEBxML
RHVyYmFudmlsbGUxDzANBgNVBAoTBlRoYXd0ZTEdMBsGA1UECxMUVGhhd3RlIENl
cnRpZmljYXRpb24xHzAdBgNVBAMTFlRoYXd0ZSBUaW1lc3RhbXBpbmcgQ0EwHhcN
MTIxMjIxMDAwMDAwWhcNMjAxMjMwMjM1OTU5WjBeMQswCQYDVQQGEwJVUzEdMBsG
A1UEChMUU3ltYW50ZWMgQ29ycG9yYXRpb24xMDAuBgNVBAMTJ1N5bWFudGVjIFRp
bWUgU3RhbXBpbmcgU2VydmljZXMgQ0EgLSBHMjCCASIwDQYJKoZIhvcNAQEBBQAD
ggEPADCCAQoCggEBALGss0lUS5ccEgrYJXmRIlcqb9y4JsRDc2vCvy5QWvsUwnaO
QwElQ7Sh4kX06Ld7w3TMIte0lAAC903tv7S3RCRrzV9FO9FEzkMScxeCi2m0K8uZ
HqxyGyZNcR+xMd37UWECU6aq9UksBXhFpS+JzueZ5/6M4lc/PcaS3Er4ezPkeQr7
8HWIQZz/xQNRmarXbJ+TaYdlKYOFwmAUxMjJOxTawIHwHw103pIiq8r3+3R8J+b3
Sht/p8OeLa6K6qbmqicWfWH3mHERvOJQoUvlXfrlDqcsn6plINPYlujIfKVOSET/
GeJEB5IL12iEgF1qeGRFzWBGflTBE3zFefHJwXECAwEAAaOB+jCB9zAdBgNVHQ4E
FgQUX5r1blzMzHSa1N197z/b7EyALt0wMgYIKwYBBQUHAQEEJjAkMCIGCCsGAQUF
BzABhhZodHRwOi8vb2NzcC50aGF3dGUuY29tMBIGA1UdEwEB/wQIMAYBAf8CAQAw
PwYDVR0fBDgwNjA0oDKgMIYuaHR0cDovL2NybC50aGF3dGUuY29tL1RoYXd0ZVRp
bWVzdGFtcGluZ0NBLmNybDATBgNVHSUEDDAKBggrBgEFBQcDCDAOBgNVHQ8BAf8E
BAMCAQYwKAYDVR0RBCEwH6QdMBsxGTAXBgNVBAMTEFRpbWVTdGFtcC0yMDQ4LTEw
DQYJKoZIhvcNAQEFBQADgYEAAwmbj3nvf1kwqu9otfrjCR27T4IGXTdfplKfFo3q
HJIJRG71betYfDDo+WmNI3MLEm9Hqa45EfgqsZuwGsOO61mWAK3ODE2y0DGmCFwq
evzieh1XTKhlGOl5QGIllm7HxzdqgyEIjkHq3dlXPx13SYcqFgZepjhqIhKjURmD
frY=
-----END CERTIFICATE-----

Certificate:
    Data:
        Version: 3 (0x2)
        Serial Number:
            0e:cf:f4:38:c8:fe:bf:35:6e:04:d8:6a:98:1b:1a:50
    Signature Algorithm: sha1WithRSAEncryption
        Issuer: C=US, O=Symantec Corporation, CN=Symantec Time Stamping Services CA - G2
        Validity
            Not Before: Oct 18 00:00:00 2012 GMT
            Not After : Dec 29 23:59:59 2020 GMT
        Subject: C=US, O=Symantec Corporation, CN=Symantec Time Stamping Services Signer - G4
        Subject Public Key Info:
            Public Key Algorithm: rsaEncryption
                Public-Key: (2048 bit)
                Modulus:
                    00:a2:63:0b:39:44:b8:bb:23:a7:44:49:bb:0e:ff:
                    a1:f0:61:0a:53:93:b0:98:db:ad:2c:0f:4a:c5:6e:
                    ff:86:3c:53:55:0f:15:ce:04:3f:2b:fd:a9:96:96:
                    d9:be:61:79:0b:5b:c9:4c:86:76:e5:e0:43:4b:22:
                    95:ee:c2:2b:43:c1:9f:d8:68:b4:8e:40:4f:ee:85:
                    38:b9:11:c5:23:f2:64:58:f0:15:32:6f:4e:57:a1:
                    ae:88:a4:02:d7:2a:1e:cd:4b:e1:dd:63:d5:17:89:
                    32:5b:b0:5e:99:5a:a8:9d:28:50:0e:17:ee:96:db:
                    61:3b:45:51:1d:cf:12:56:0b:92:47:fc:ab:ae:f6:
                    66:3d:47:ac:70:72:e7:92:e7:5f:cd:10:b9:c4:83:
                    64:94:19:bd:25:80:e1:e8:d2:22:a5:d0:ba:02:7a:
                    a1:77:93:5b:65:c3:ee:17:74:bc:41:86:2a:dc:08:
                    4c:8c:92:8c:91:2d:9e:77:44:1f:68:d6:a8:74:77:
                    db:0e:5b:32:8b:56:8b:33:bd:d9:63:c8:49:9d:3a:
                    c5:c5:ea:33:0b:d2:f1:a3:1b:f4:8b:be:d9:b3:57:
                    8b:3b:de:04:a7:7a:22:b2:24:ae:2e:c7:70:c5:be:
                    4e:83:26:08:fb:0b:bd:a9:4f:99:08:e1:10:28:72:
                    aa:cd
                Exponent: 65537 (0x10001)
        X509v3 extensions:
            X509v3 Basic Constraints: critical
                CA:FALSE
            X509v3 Extended Key Usage: critical
                Time Stamping
            X509v3 Key Usage: critical
                Digital Signature
            Authority Information Access: 
                OCSP - URI:http://ts-ocsp.ws.symantec.com
                CA Issuers - URI:http://ts-aia.ws.symantec.com/tss-ca-g2.cer

            X509v3 CRL Distribution Points: 

                Full Name:
                  URI:http://ts-crl.ws.symantec.com/tss-ca-g2.crl

            X509v3 Subject Alternative Name: 
                DirName:/CN=TimeStamp-2048-2
            X509v3 Subject Key Identifier: 
                46:C6:69:A3:0E:4A:14:1E:D5:4C:DA:52:63:17:3F:5E:36:BC:0D:E6
            X509v3 Authority Key Identifier: 
                keyid:5F:9A:F5:6E:5C:CC:CC:74:9A:D4:DD:7D:EF:3F:DB:EC:4C:80:2E:DD

    Signature Algorithm: sha1WithRSAEncryption
         78:3b:b4:91:2a:00:4c:f0:8f:62:30:37:78:a3:84:27:07:6f:
         18:b2:de:25:dc:a0:d4:94:03:aa:86:4e:25:9f:9a:40:03:1c:
         dd:ce:e3:79:cb:21:68:06:da:b6:32:b4:6d:bf:f4:2c:26:63:
         33:e4:49:64:6d:0d:e6:c3:67:0e:f7:05:a4:35:6c:7c:89:16:
         c6:e9:b2:df:b2:e9:dd:20:c6:71:0f:cd:95:74:dc:b6:5c:de:
         bd:37:1f:43:78:e6:78:b5:cd:28:04:20:a3:aa:f1:4b:c4:88:
         29:91:0e:80:d1:11:fc:dd:5c:76:6e:4f:5e:0e:45:46:41:6e:
         0d:b0:ea:38:9a:b1:3a:da:09:71:10:fc:1c:79:b4:80:7b:ac:
         69:f4:fd:9c:b6:0c:16:2b:f1:7f:5b:09:3d:9b:5b:e2:16:ca:
         13:81:6d:00:2e:38:0d:a8:29:8f:2c:e1:b2:f4:5a:a9:01:af:
         15:9c:2c:2f:49:1b:db:22:bb:c3:fe:78:94:51:c3:86:b1:82:
         88:5d:f0:3d:b4:51:a1:79:33:2b:2e:7b:b9:dc:20:09:13:71:
         eb:6a:19:5b:cf:e8:a5:30:57:2c:89:49:3f:b9:cf:7f:c9:bf:
         3e:22:68:63:53:9a:bd:69:74:ac:c5:1d:3c:7f:92:e0:c3:bc:
         1c:d8:04:75
-----BEGIN CERTIFICATE-----
MIIEozCCA4ugAwIBAgIQDs/0OMj+vzVuBNhqmBsaUDANBgkqhkiG9w0BAQUFADBe
MQswCQYDVQQGEwJVUzEdMBsGA1UEChMUU3ltYW50ZWMgQ29ycG9yYXRpb24xMDAu
BgNVBAMTJ1N5bWFudGVjIFRpbWUgU3RhbXBpbmcgU2VydmljZXMgQ0EgLSBHMjAe
Fw0xMjEwMTgwMDAwMDBaFw0yMDEyMjkyMzU5NTlaMGIxCzAJBgNVBAYTAlVTMR0w
GwYDVQQKExRTeW1hbnRlYyBDb3Jwb3JhdGlvbjE0MDIGA1UEAxMrU3ltYW50ZWMg
VGltZSBTdGFtcGluZyBTZXJ2aWNlcyBTaWduZXIgLSBHNDCCASIwDQYJKoZIhvcN
AQEBBQADggEPADCCAQoCggEBAKJjCzlEuLsjp0RJuw7/ofBhClOTsJjbrSwPSsVu
/4Y8U1UPFc4EPyv9qZaW2b5heQtbyUyGduXgQ0sile7CK0PBn9hotI5AT+6FOLkR
xSPyZFjwFTJvTlehroikAtcqHs1L4d1j1ReJMluwXplaqJ0oUA4X7pbbYTtFUR3P
ElYLkkf8q672Zj1HrHBy55LnX80QucSDZJQZvSWA4ejSIqXQugJ6oXeTW2XD7hd0
vEGGKtwITIySjJEtnndEH2jWqHR32w5bMotWizO92WPISZ06xcXqMwvS8aMb9Iu+
2bNXizveBKd6IrIkri7HcMW+ToMmCPsLvalPmQjhEChyqs0CAwEAAaOCAVcwggFT
MAwGA1UdEwEB/wQCMAAwFgYDVR0lAQH/BAwwCgYIKwYBBQUHAwgwDgYDVR0PAQH/
BAQDAgeAMHMGCCsGAQUFBwEBBGcwZTAqBggrBgEFBQcwAYYeaHR0cDovL3RzLW9j
c3Aud3Muc3ltYW50ZWMuY29tMDcGCCsGAQUFBzAChitodHRwOi8vdHMtYWlhLndz
LnN5bWFudGVjLmNvbS90c3MtY2EtZzIuY2VyMDwGA1UdHwQ1MDMwMaAvoC2GK2h0
dHA6Ly90cy1jcmwud3Muc3ltYW50ZWMuY29tL3Rzcy1jYS1nMi5jcmwwKAYDVR0R
BCEwH6QdMBsxGTAXBgNVBAMTEFRpbWVTdGFtcC0yMDQ4LTIwHQYDVR0OBBYEFEbG
aaMOShQe1UzaUmMXP142vA3mMB8GA1UdIwQYMBaAFF+a9W5czMx0mtTdfe8/2+xM
gC7dMA0GCSqGSIb3DQEBBQUAA4IBAQB4O7SRKgBM8I9iMDd4o4QnB28Yst4l3KDU
lAOqhk4ln5pAAxzdzuN5yyFoBtq2MrRtv/QsJmMz5ElkbQ3mw2cO9wWkNWx8iRbG
6bLfsundIMZxD82VdNy2XN69Nx9DeOZ4tc0oBCCjqvFLxIgpkQ6A0RH83Vx2bk9e
DkVGQW4NsOo4mrE62glxEPwcebSAe6xp9P2ctgwWK/F/Wwk9m1viFsoTgW0ALjgN
qCmPLOGy9FqpAa8VnCwvSRvbIrvD/niUUcOGsYKIXfA9tFGheTMrLnu53CAJE3Hr
ahlbz+ilMFcsiUk/uc9/yb8+ImhjU5q9aXSsxR08f5Lgw7wc2AR1
-----END CERTIFICATE-----

Certificate:
    Data:
        Version: 3 (0x2)
        Serial Number: 38 (0x26)
    Signature Algorithm: sha1WithRSAEncryption
        Issuer: C=IL, O=StartCom Ltd., OU=Secure Digital Certificate Signing, CN=StartCom Certification Authority
        Validity
            Not Before: Oct 24 22:03:55 2007 GMT
            Not After : Oct 24 22:03:55 2017 GMT
        Subject: C=IL, O=StartCom Ltd., OU=Secure Digital Certificate Signing, CN=StartCom Class 3 Primary Intermediate Object CA
        Subject Public Key Info:
            Public Key Algorithm: rsaEncryption
                Public-Key: (2048 bit)
                Modulus:
                    00:d8:3a:d5:4f:9d:5c:f3:c2:0d:22:0a:95:08:ac:
                    39:13:9f:53:18:62:f9:a6:2b:69:8e:9f:19:37:a2:
                    b7:bc:c0:6f:9a:8e:a3:09:72:3b:7b:0a:98:13:5b:
                    19:50:d7:e2:9c:78:c0:c2:17:e2:ec:7a:e9:04:f9:
                    62:ff:11:b6:d5:5b:71:6c:46:19:e0:02:38:c2:dc:
                    ba:72:76:d1:10:18:98:8a:68:e2:98:6e:48:ca:4a:
                    a6:dc:2b:1c:03:06:db:e8:7c:4d:12:3f:62:60:8b:
                    92:70:f6:f1:13:a2:c4:65:1c:bf:69:65:d5:c0:10:
                    d0:9c:09:d4:fe:4c:92:2a:ad:3e:ac:d0:d6:91:a4:
                    38:ec:6b:98:6b:e7:80:8e:ea:6a:bd:d3:c3:26:d0:
                    80:ee:6a:37:b7:6f:34:37:b9:41:da:06:e8:d1:d1:
                    37:ec:72:21:a7:36:b2:a5:e1:db:cb:09:ea:4a:26:
                    24:39:29:04:3a:8a:ed:fe:4a:74:5b:36:b7:cd:4d:
                    72:6b:95:9d:90:1d:d3:0d:ad:0c:2c:e3:fc:67:e7:
                    b1:01:ac:4c:32:fb:5b:3a:32:83:d0:67:55:0b:a5:
                    fc:c9:98:30:03:77:fc:a3:3c:aa:c0:0d:e0:f3:50:
                    59:bf:79:61:84:7d:70:0d:94:35:43:aa:6c:ad:3a:
                    56:bf
                Exponent: 65537 (0x10001)
        X509v3 extensions:
            X509v3 Basic Constraints: critical
                CA:TRUE
            X509v3 Key Usage: critical
                Certificate Sign, CRL Sign
            X509v3 Subject Key Identifier: 
                97:CA:73:53:A5:2E:B3:89:1A:A6:42:7D:A9:0F:93:FB:87:8C:01:18
            X509v3 Authority Key Identifier: 
                keyid:4E:0B:EF:1A:A4:40:5B:A5:17:69:87:30:CA:34:68:43:D0:41:AE:F2

            Authority Information Access: 
                CA Issuers - URI:http://www.startssl.com/sfsca.crt

            X509v3 CRL Distribution Points: 

                Full Name:
                  URI:http://www.startssl.com/sfsca.crl

                Full Name:
                  URI:http://crl.startssl.com/sfsca.crl

            X509v3 Certificate Policies: 
                Policy: 1.3.6.1.4.1.23223.1.2.1
                  CPS: http://www.startssl.com/policy.pdf
                  CPS: http://www.startssl.com/intermediate.pdf

            Netscape Cert Type: 
                Object Signing CA
            Netscape Comment: 
                StartCom Class 3 Primary Intermediate Object Signing Certificates
    Signature Algorithm: sha1WithRSAEncryption
         b8:eb:a5:38:2c:ab:90:38:cf:be:90:69:19:95:2f:96:4e:48:
         10:35:45:b0:43:71:2e:b9:0e:67:0f:61:84:58:ed:65:1a:e0:
         d8:51:5c:96:c4:df:69:ca:fb:62:bf:35:ea:4a:69:23:f2:f6:
         7f:60:db:65:29:25:e8:ba:5e:f9:48:59:20:74:5c:99:98:fa:
         7e:d7:4e:af:43:96:3b:88:88:0e:81:f1:d0:a6:a9:af:1d:f5:
         e7:3e:04:5b:e8:92:7b:62:4a:53:1d:3b:7a:af:94:a2:05:02:
         da:0f:ad:a1:a7:32:16:6a:1d:5d:88:f1:dd:c5:da:7e:91:b0:
         0a:53:12:4d:db:ef:cd:ea:9f:48:df:bf:b2:7c:01:92:f9:81:
         63:79:a0:6f:0e:97:d9:90:44:a5:50:b8:87:4b:5c:d8:9c:a2:
         7a:ad:4b:91:f3:11:74:e6:a8:23:42:d4:26:5c:a8:3d:85:a0:
         35:ec:53:08:dd:b6:2d:1c:21:c8:48:4a:c4:c8:3a:b0:6e:2f:
         43:e6:df:64:09:75:86:fe:0e:68:d2:63:54:a0:66:e4:9e:ef:
         db:5c:74:a0:a8:dc:40:e9:7b:67:d6:3b:3e:d2:86:d3:16:21:
         d1:e1:32:52:a3:e6:c2:e1:63:7e:74:43:1a:be:ec:29:ae:56:
         e1:18:11:fa:65:0b:37:34:0e:b4:47:99:f8:6f:b4:99:4e:d2:
         35:b0:47:64:b5:fe:e9:af:b6:9a:23:c2:82:c8:38:b6:d4:a4:
         2e:34:21:ce:03:ef:4c:38:41:50:2f:0d:ad:40:c8:28:27:e9:
         eb:7c:2b:d1:70:4e:2c:88:18:c8:7c:3f:24:50:5d:cb:53:54:
         67:9f:d7:a1:09:98:0b:0b:8b:21:69:ba:72:a6:12:7b:b0:5a:
         0e:69:7c:c7:06:ba:2c:7a:95:0f:07:94:63:23:56:57:a5:38:
         2a:63:c4:20:6a:9e:84:43:8f:da:d8:d0:3f:d0:7d:95:92:13:
         29:16:c0:d8:68:ca:e5:fe:75:98:b6:f4:10:e1:7c:30:9e:b9:
         90:29:20:35:e3:1c:56:b3:0a:fd:86:71:7c:fb:bc:0b:2e:8c:
         94:e3:54:69:c4:78:4d:1e:0a:f8:0f:33:b9:e2:56:d7:89:84:
         1c:9c:df:6f:c5:0b:8f:99:83:51:06:6b:44:1d:6f:30:bc:be:
         f9:3a:19:0b:cc:fa:e6:bc:22:3f:3d:54:75:b8:0a:64:7f:7f:
         65:bb:a2:90:49:c3:f2:27:f7:bb:b9:7e:b7:68:87:82:cd:43:
         ec:6c:ac:ab:29:c7:d0:40:e2:bb:3a:02:18:31:50:77:ae:33:
         b1:a9:a8:c6:2d:45:70:ff
-----BEGIN CERTIFICATE-----
MIIGcDCCBFigAwIBAgIBJjANBgkqhkiG9w0BAQUFADB9MQswCQYDVQQGEwJJTDEW
MBQGA1UEChMNU3RhcnRDb20gTHRkLjErMCkGA1UECxMiU2VjdXJlIERpZ2l0YWwg
Q2VydGlmaWNhdGUgU2lnbmluZzEpMCcGA1UEAxMgU3RhcnRDb20gQ2VydGlmaWNh
dGlvbiBBdXRob3JpdHkwHhcNMDcxMDI0MjIwMzU1WhcNMTcxMDI0MjIwMzU1WjCB
jDELMAkGA1UEBhMCSUwxFjAUBgNVBAoTDVN0YXJ0Q29tIEx0ZC4xKzApBgNVBAsT
IlNlY3VyZSBEaWdpdGFsIENlcnRpZmljYXRlIFNpZ25pbmcxODA2BgNVBAMTL1N0
YXJ0Q29tIENsYXNzIDMgUHJpbWFyeSBJbnRlcm1lZGlhdGUgT2JqZWN0IENBMIIB
IjANBgkqhkiG9w0BAQEFAAOCAQ8AMIIBCgKCAQEA2DrVT51c88INIgqVCKw5E59T
GGL5pitpjp8ZN6K3vMBvmo6jCXI7ewqYE1sZUNfinHjAwhfi7HrpBPli/xG21Vtx
bEYZ4AI4wty6cnbREBiYimjimG5Iykqm3CscAwbb6HxNEj9iYIuScPbxE6LEZRy/
aWXVwBDQnAnU/kySKq0+rNDWkaQ47GuYa+eAjupqvdPDJtCA7mo3t280N7lB2gbo
0dE37HIhpzaypeHbywnqSiYkOSkEOort/kp0Wza3zU1ya5WdkB3TDa0MLOP8Z+ex
AaxMMvtbOjKD0GdVC6X8yZgwA3f8ozyqwA3g81BZv3lhhH1wDZQ1Q6psrTpWvwID
AQABo4IB6TCCAeUwDwYDVR0TAQH/BAUwAwEB/zAOBgNVHQ8BAf8EBAMCAQYwHQYD
VR0OBBYEFJfKc1OlLrOJGqZCfakPk/uHjAEYMB8GA1UdIwQYMBaAFE4L7xqkQFul
F2mHMMo0aEPQQa7yMD0GCCsGAQUFBwEBBDEwLzAtBggrBgEFBQcwAoYhaHR0cDov
L3d3dy5zdGFydHNzbC5jb20vc2ZzY2EuY3J0MFsGA1UdHwRUMFIwJ6AloCOGIWh0
dHA6Ly93d3cuc3RhcnRzc2wuY29tL3Nmc2NhLmNybDAnoCWgI4YhaHR0cDovL2Ny
bC5zdGFydHNzbC5jb20vc2ZzY2EuY3JsMIGABgNVHSAEeTB3MHUGCysGAQQBgbU3
AQIBMGYwLgYIKwYBBQUHAgEWImh0dHA6Ly93d3cuc3RhcnRzc2wuY29tL3BvbGlj
eS5wZGYwNAYIKwYBBQUHAgEWKGh0dHA6Ly93d3cuc3RhcnRzc2wuY29tL2ludGVy
bWVkaWF0ZS5wZGYwEQYJYIZIAYb4QgEBBAQDAgABMFAGCWCGSAGG+EIBDQRDFkFT
dGFydENvbSBDbGFzcyAzIFByaW1hcnkgSW50ZXJtZWRpYXRlIE9iamVjdCBTaWdu
aW5nIENlcnRpZmljYXRlczANBgkqhkiG9w0BAQUFAAOCAgEAuOulOCyrkDjPvpBp
GZUvlk5IEDVFsENxLrkOZw9hhFjtZRrg2FFclsTfacr7Yr816kppI/L2f2DbZSkl
6Lpe+UhZIHRcmZj6ftdOr0OWO4iIDoHx0Kaprx315z4EW+iSe2JKUx07eq+UogUC
2g+toacyFmodXYjx3cXafpGwClMSTdvvzeqfSN+/snwBkvmBY3mgbw6X2ZBEpVC4
h0tc2Jyieq1LkfMRdOaoI0LUJlyoPYWgNexTCN22LRwhyEhKxMg6sG4vQ+bfZAl1
hv4OaNJjVKBm5J7v21x0oKjcQOl7Z9Y7PtKG0xYh0eEyUqPmwuFjfnRDGr7sKa5W
4RgR+mULNzQOtEeZ+G+0mU7SNbBHZLX+6a+2miPCgsg4ttSkLjQhzgPvTDhBUC8N
rUDIKCfp63wr0XBOLIgYyHw/JFBdy1NUZ5/XoQmYCwuLIWm6cqYSe7BaDml8xwa6
LHqVDweUYyNWV6U4KmPEIGqehEOP2tjQP9B9lZITKRbA2GjK5f51mLb0EOF8MJ65
kCkgNeMcVrMK/YZxfPu8Cy6MlONUacR4TR4K+A8zueJW14mEHJzfb8ULj5mDUQZr
RB1vMLy++ToZC8z65rwiPz1UdbgKZH9/ZbuikEnD8if3u7l+t2iHgs1D7GysqynH
0EDiuzoCGDFQd64zsamoxi1FcP8=
-----END CERTIFICATE-----

Certificate:
    Data:
        Version: 3 (0x2)
        Serial Number: 2350 (0x92e)
    Signature Algorithm: sha1WithRSAEncryption
        Issuer: C=IL, O=StartCom Ltd., OU=Secure Digital Certificate Signing, CN=StartCom Class 3 Primary Intermediate Object CA
        Validity
            Not Before: Mar 18 16:41:37 2013 GMT
            Not After : Mar 19 06:16:34 2016 GMT
        Subject: description=60M41CgzDFhP0q4z, C=RU, ST=Moscow City, L=Moscow, O=Info DRM Limited, CN=Info DRM Limited/emailAddress=business@infoprotector.ru
        Subject Public Key Info:
            Public Key Algorithm: rsaEncryption
                Public-Key: (4096 bit)
                Modulus:
                    00:d5:2d:39:4b:f6:66:45:8a:f1:82:76:f5:6a:06:
                    41:d9:9f:49:64:ff:4f:e8:44:3f:f7:4e:63:b2:86:
                    b6:ac:90:1c:cb:c2:02:86:86:2c:45:ab:6d:aa:3e:
                    a9:c5:8e:53:29:11:ac:f3:17:1d:c3:a6:93:78:fc:
                    23:9d:80:11:19:82:56:17:15:84:56:0c:7e:51:13:
                    8e:f6:69:25:0b:c1:61:ed:08:36:19:43:a4:84:85:
                    0f:0c:70:77:6d:4a:04:f7:2e:c5:9c:69:1c:09:cc:
                    e9:91:b9:4b:f4:1c:de:89:6a:5b:12:b9:fe:59:94:
                    f0:32:b4:0b:db:01:27:81:1a:7f:55:b9:ef:2b:a6:
                    e4:88:d2:bc:1a:9e:c6:5c:bf:44:3a:a9:4a:43:b5:
                    82:e2:46:23:05:80:f6:6b:72:99:c9:7a:5f:55:ec:
                    77:9d:4b:59:b0:5e:a6:76:12:ab:1e:fc:fd:c3:43:
                    74:3d:c7:01:ef:03:15:fd:ee:95:0c:f4:0f:fe:fc:
                    f0:ec:55:45:d8:df:77:27:1e:77:48:b7:1d:8a:44:
                    a1:62:76:cb:24:32:dd:08:13:20:b1:66:9a:35:fd:
                    9f:05:bd:22:4d:e0:e2:a6:62:f4:8a:d8:f1:b9:d8:
                    5c:5f:52:ab:1b:70:51:c2:90:a0:ab:96:20:1c:9a:
                    04:f9:08:a8:ab:63:b9:42:0e:3b:e5:39:37:e1:9d:
                    ff:09:a5:5b:29:2a:5b:93:da:36:d4:40:52:c3:88:
                    61:1c:27:f6:a6:ab:40:a7:22:de:59:2a:12:ce:f7:
                    d4:7c:3c:43:85:97:8a:fd:32:19:46:2b:3b:48:7b:
                    e7:b8:eb:11:92:94:7a:5d:82:40:bc:fa:37:af:ed:
                    23:3f:86:dd:6a:76:cb:9b:68:70:e8:e0:a5:f6:06:
                    41:52:95:a0:a9:89:74:9c:86:4b:5e:07:ec:35:7a:
                    b0:65:e5:98:30:00:75:51:38:72:8f:b2:3c:cd:87:
                    d9:86:cf:f1:38:39:58:f8:3f:ee:b9:6a:a4:11:2b:
                    cc:8d:c7:9e:1b:03:60:07:8e:f3:46:b2:e1:a5:49:
                    fd:49:18:b6:0a:1f:d2:d7:93:14:9c:25:87:f7:e3:
                    ea:26:2c:2e:5d:23:3d:4e:72:90:7e:71:8b:83:6e:
                    e6:0f:64:2b:8f:d8:0f:02:a7:de:82:ee:20:ba:e2:
                    d2:fb:ea:e4:db:cc:3e:ad:b6:bf:a2:7c:6d:f0:15:
                    bb:85:b4:6f:d0:5e:12:c6:58:da:d6:56:49:5a:1c:
                    fc:1b:b2:29:d6:b5:ca:9e:c5:09:29:20:a5:95:88:
                    97:da:5d:3a:89:f5:d1:dc:b2:2e:b8:51:fc:58:6f:
                    3e:e9:35
                Exponent: 65537 (0x10001)
        X509v3 extensions:
            X509v3 Basic Constraints: 
                CA:FALSE
            X509v3 Key Usage: critical
                Digital Signature
            X509v3 Extended Key Usage: critical
                Code Signing, 1.3.6.1.4.1.311.61.1.1
            X509v3 Subject Key Identifier: 
                37:DF:10:4E:0E:51:4D:9D:10:12:00:D6:15:9F:5E:22:8E:12:01:12
            X509v3 Authority Key Identifier: 
                keyid:97:CA:73:53:A5:2E:B3:89:1A:A6:42:7D:A9:0F:93:FB:87:8C:01:18

            X509v3 Certificate Policies: 
                Policy: 1.3.6.1.4.1.23223.1.2.3
                  CPS: http://www.startssl.com/policy.pdf
                  User Notice:
                    Organization: StartCom Certification Authority
                    Number: 1
                    Explicit Text: This certificate was issued according to the Class 3 Validation requirements of the StartCom CA policy, reliance only for the intended purpose in compliance of the relying party obligations.

            X509v3 CRL Distribution Points: 

                Full Name:
                  URI:http://crl.startssl.com/crtc3-crl.crl

            Authority Information Access: 
                OCSP - URI:http://ocsp.startssl.com/sub/class3/code/ca
                CA Issuers - URI:http://aia.startssl.com/certs/sub.class3.code.ca.crt

            X509v3 Issuer Alternative Name: 
                URI:http://www.startssl.com/
    Signature Algorithm: sha1WithRSAEncryption
         b9:ac:55:ef:a7:72:07:f3:ae:aa:ef:07:0a:59:78:d7:10:11:
         fc:48:3a:ea:25:7e:50:07:b4:66:82:27:0d:8f:31:75:02:04:
         a0:9f:02:5c:a4:a5:b7:c8:b1:bd:40:e3:02:58:87:a1:75:89:
         f4:b0:35:f0:9f:29:a7:e1:79:25:1e:91:a9:de:50:45:cf:96:
         c9:09:58:98:da:75:c8:ab:d2:11:8e:61:50:55:b2:86:a6:27:
         fa:44:83:b3:00:84:a0:e4:f0:2e:e7:8b:7e:90:06:2f:04:e1:
         ce:d9:ae:18:32:c1:04:42:7e:3d:83:cb:94:dc:d0:0e:db:e4:
         03:c5:1c:18:d6:1b:f9:b5:8f:76:03:43:2f:2b:12:2d:8d:81:
         da:a7:8b:ea:e8:28:02:02:cd:0a:be:4b:47:b7:9a:16:b8:6e:
         9a:e4:cc:97:3a:de:2b:4e:14:02:50:d1:69:dd:11:59:8b:68:
         7d:f4:ad:98:9c:c6:b9:58:91:7d:ce:6b:0b:2b:29:b7:15:9d:
         4c:d0:89:c7:5e:27:6e:b6:a9:29:62:2b:d7:fc:35:f5:09:22:
         36:1c:be:29:c0:19:b5:f1:3d:d0:26:47:94:23:c7:00:59:73:
         b4:f5:14:33:fc:8d:e6:a3:5d:84:27:91:a7:df:ca:bd:8d:01:
         39:ca:56:5c
-----BEGIN CERTIFICATE-----
MIIHdzCCBl+gAwIBAgICCS4wDQYJKoZIhvcNAQEFBQAwgYwxCzAJBgNVBAYTAklM
MRYwFAYDVQQKEw1TdGFydENvbSBMdGQuMSswKQYDVQQLEyJTZWN1cmUgRGlnaXRh
bCBDZXJ0aWZpY2F0ZSBTaWduaW5nMTgwNgYDVQQDEy9TdGFydENvbSBDbGFzcyAz
IFByaW1hcnkgSW50ZXJtZWRpYXRlIE9iamVjdCBDQTAeFw0xMzAzMTgxNjQxMzda
Fw0xNjAzMTkwNjE2MzRaMIGvMRkwFwYDVQQNExA2ME00MUNnekRGaFAwcTR6MQsw
CQYDVQQGEwJSVTEUMBIGA1UECBMLTW9zY293IENpdHkxDzANBgNVBAcTBk1vc2Nv
dzEZMBcGA1UEChMQSW5mbyBEUk0gTGltaXRlZDEZMBcGA1UEAxMQSW5mbyBEUk0g
TGltaXRlZDEoMCYGCSqGSIb3DQEJARYZYnVzaW5lc3NAaW5mb3Byb3RlY3Rvci5y
dTCCAiIwDQYJKoZIhvcNAQEBBQADggIPADCCAgoCggIBANUtOUv2ZkWK8YJ29WoG
QdmfSWT/T+hEP/dOY7KGtqyQHMvCAoaGLEWrbao+qcWOUykRrPMXHcOmk3j8I52A
ERmCVhcVhFYMflETjvZpJQvBYe0INhlDpISFDwxwd21KBPcuxZxpHAnM6ZG5S/Qc
3olqWxK5/lmU8DK0C9sBJ4Eaf1W57yum5IjSvBqexly/RDqpSkO1guJGIwWA9mty
mcl6X1Xsd51LWbBepnYSqx78/cNDdD3HAe8DFf3ulQz0D/788OxVRdjfdyced0i3
HYpEoWJ2yyQy3QgTILFmmjX9nwW9Ik3g4qZi9IrY8bnYXF9SqxtwUcKQoKuWIBya
BPkIqKtjuUIOO+U5N+Gd/wmlWykqW5PaNtRAUsOIYRwn9qarQKci3lkqEs731Hw8
Q4WXiv0yGUYrO0h757jrEZKUel2CQLz6N6/tIz+G3Wp2y5tocOjgpfYGQVKVoKmJ
dJyGS14H7DV6sGXlmDAAdVE4co+yPM2H2YbP8Tg5WPg/7rlqpBErzI3HnhsDYAeO
80ay4aVJ/UkYtgof0teTFJwlh/fj6iYsLl0jPU5ykH5xi4Nu5g9kK4/YDwKn3oLu
ILri0vvq5NvMPq22v6J8bfAVu4W0b9BeEsZY2tZWSVoc/BuyKda1yp7FCSkgpZWI
l9pdOon10dyyLrhR/FhvPuk1AgMBAAGjggK8MIICuDAJBgNVHRMEAjAAMA4GA1Ud
DwEB/wQEAwIHgDAiBgNVHSUBAf8EGDAWBggrBgEFBQcDAwYKKwYBBAGCNz0BATAd
BgNVHQ4EFgQUN98QTg5RTZ0QEgDWFZ9eIo4SARIwHwYDVR0jBBgwFoAUl8pzU6Uu
s4kapkJ9qQ+T+4eMARgwggFMBgNVHSAEggFDMIIBPzCCATsGCysGAQQBgbU3AQID
MIIBKjAuBggrBgEFBQcCARYiaHR0cDovL3d3dy5zdGFydHNzbC5jb20vcG9saWN5
LnBkZjCB9wYIKwYBBQUHAgIwgeowJxYgU3RhcnRDb20gQ2VydGlmaWNhdGlvbiBB
dXRob3JpdHkwAwIBARqBvlRoaXMgY2VydGlmaWNhdGUgd2FzIGlzc3VlZCBhY2Nv
cmRpbmcgdG8gdGhlIENsYXNzIDMgVmFsaWRhdGlvbiByZXF1aXJlbWVudHMgb2Yg
dGhlIFN0YXJ0Q29tIENBIHBvbGljeSwgcmVsaWFuY2Ugb25seSBmb3IgdGhlIGlu
dGVuZGVkIHB1cnBvc2UgaW4gY29tcGxpYW5jZSBvZiB0aGUgcmVseWluZyBwYXJ0
eSBvYmxpZ2F0aW9ucy4wNgYDVR0fBC8wLTAroCmgJ4YlaHR0cDovL2NybC5zdGFy
dHNzbC5jb20vY3J0YzMtY3JsLmNybDCBiQYIKwYBBQUHAQEEfTB7MDcGCCsGAQUF
BzABhitodHRwOi8vb2NzcC5zdGFydHNzbC5jb20vc3ViL2NsYXNzMy9jb2RlL2Nh
MEAGCCsGAQUFBzAChjRodHRwOi8vYWlhLnN0YXJ0c3NsLmNvbS9jZXJ0cy9zdWIu
Y2xhc3MzLmNvZGUuY2EuY3J0MCMGA1UdEgQcMBqGGGh0dHA6Ly93d3cuc3RhcnRz
c2wuY29tLzANBgkqhkiG9w0BAQUFAAOCAQEAuaxV76dyB/Ouqu8HCll41xAR/Eg6
6iV+UAe0ZoInDY8xdQIEoJ8CXKSlt8ixvUDjAliHoXWJ9LA18J8pp+F5JR6Rqd5Q
Rc+WyQlYmNp1yKvSEY5hUFWyhqYn+kSDswCEoOTwLueLfpAGLwThztmuGDLBBEJ+
PYPLlNzQDtvkA8UcGNYb+bWPdgNDLysSLY2B2qeL6ugoAgLNCr5LR7eaFrhumuTM
lzreK04UAlDRad0RWYtoffStmJzGuViRfc5rCysptxWdTNCJx14nbrapKWIr1/w1
9QkiNhy+KcAZtfE90CZHlCPHAFlztPUUM/yN5qNdhCeRp9/KvY0BOcpWXA==
-----END CERTIFICATE-----

