Certificate:
    Data:
        Version: 3 (0x2)
        Serial Number:
            25:d8:a5:28:cc:2a:83:d0:86:82:01:82:12:d4:83:85
    Signature Algorithm: sha256WithRSAEncryption
        Issuer: C=GB, ST=Greater Manchester, L=Salford, O=COMODO CA Limited, CN=COMODO RSA Code Signing CA
        Validity
            Not Before: Feb 14 00:00:00 2017 GMT
            Not After : Jan 15 23:59:59 2020 GMT
        Subject: C=BR/postalCode=04151-060, ST=Sao Paulo, L=Sao Paulo/street=Rua Fonseca da Costa 59, O=PCWINSOFT SOFTWARE INFORMATICA LTDA - ME, CN=PCWINSOFT SOFTWARE INFORMATICA LTDA - ME
        Subject Public Key Info:
            Public Key Algorithm: rsaEncryption
                Public-Key: (2048 bit)
                Modulus:
                    00:b6:d8:70:55:f5:06:00:3b:3d:3f:fd:f8:70:a5:
                    19:00:25:e7:9e:84:76:6b:97:99:1f:f4:9a:d7:b2:
                    4e:34:ed:a5:6d:d0:9d:43:00:78:db:2a:d7:f9:71:
                    b1:2f:77:a8:a9:dc:17:05:a4:c8:2a:a7:3e:1c:08:
                    66:97:e9:65:c1:db:be:89:f5:d2:13:b6:26:37:28:
                    99:65:c6:9d:6c:39:d3:f1:98:98:57:01:85:ce:e2:
                    de:1f:6e:9b:e3:86:fa:69:74:2f:96:e2:f1:28:e1:
                    f8:bb:58:e2:6a:33:0b:3f:ee:a5:43:6d:f4:c9:ea:
                    e0:1d:2d:d2:14:12:ba:0f:8e:c3:29:ab:1c:5d:aa:
                    41:17:0d:fa:2c:5b:c6:00:d0:8d:6c:a6:4a:4b:ce:
                    17:5c:6e:4e:44:13:eb:12:3c:a7:7d:7f:0e:76:a3:
                    79:04:85:59:95:b2:6b:e8:02:27:a9:2e:3a:24:07:
                    08:59:58:ea:3b:ac:9a:a3:08:1a:e4:cd:da:45:ad:
                    a3:0d:fd:54:0a:61:ef:05:9b:86:1a:58:d2:0f:9a:
                    46:84:d9:c1:68:0b:95:5c:17:b0:30:0b:d3:e7:f3:
                    bc:df:1d:d9:67:10:51:9d:a3:bc:79:7e:a6:61:fc:
                    cd:a2:a9:18:a1:96:aa:09:e9:d9:e6:7f:fa:a4:fc:
                    81:3d
                Exponent: 65537 (0x10001)
        X509v3 extensions:
            X509v3 Authority Key Identifier: 
                keyid:29:91:60:FF:8A:4D:FA:EB:F9:A6:6A:B8:CF:F9:E6:4B:BD:49:CE:12

            X509v3 Subject Key Identifier: 
                EB:F3:0A:4A:08:8F:D7:8B:83:89:44:5D:6A:DD:FF:75:3C:B5:C8:CF
            X509v3 Key Usage: critical
                Digital Signature
            X509v3 Basic Constraints: critical
                CA:FALSE
            X509v3 Extended Key Usage: 
                Code Signing
            Netscape Cert Type: 
                Object Signing
            X509v3 Certificate Policies: 
                Policy: 1.3.6.1.4.1.6449.1.2.1.3.2
                  CPS: https://secure.comodo.net/CPS

            X509v3 CRL Distribution Points: 

                Full Name:
                  URI:http://crl.comodoca.com/COMODORSACodeSigningCA.crl

            Authority Information Access: 
                CA Issuers - URI:http://crt.comodoca.com/COMODORSACodeSigningCA.crt
                OCSP - URI:http://ocsp.comodoca.com

    Signature Algorithm: sha256WithRSAEncryption
         1e:e4:ef:03:ed:31:9e:7b:b4:19:ae:4d:3f:23:60:90:34:9b:
         00:1e:59:f1:83:dc:f0:92:62:79:58:7f:92:6b:b6:0b:ed:5f:
         6e:29:a3:d4:c3:a4:1c:a9:15:52:37:a6:8d:7a:1d:fb:be:ac:
         ac:7b:cb:86:83:aa:07:91:0f:8e:ed:ce:4c:6f:39:ef:0d:c7:
         b6:ef:98:ca:72:96:24:0f:2b:f3:89:43:eb:4f:7e:69:e4:d4:
         06:78:69:de:64:ad:cd:51:75:b0:0f:b7:e4:20:49:8e:1d:00:
         af:d8:f4:69:e2:bf:12:c7:cc:c1:1b:de:2e:c7:73:e7:39:21:
         da:bb:86:ce:1c:e4:20:a0:75:da:cf:ea:c0:fc:af:fb:50:60:
         fc:78:ee:36:ff:c6:e3:b8:a4:05:bc:9e:15:c3:5f:5d:0c:c6:
         e0:27:39:54:7f:87:ae:da:19:3a:fe:55:f7:fe:ab:2a:68:b9:
         02:43:8f:af:0c:db:6e:b2:1f:2f:54:fd:0f:30:41:48:98:54:
         b0:3b:51:db:9e:ed:b6:a3:53:8d:77:22:40:58:ef:1c:53:c9:
         18:74:41:e5:26:f6:2b:1f:6b:e5:01:e9:60:33:36:d1:2b:c3:
         b2:33:a7:33:bf:80:26:63:19:74:e2:c8:4a:8a:1a:22:ca:2b:
         a5:68:cf:f5
-----BEGIN CERTIFICATE-----
MIIFaDCCBFCgAwIBAgIQJdilKMwqg9CGggGCEtSDhTANBgkqhkiG9w0BAQsFADB9
MQswCQYDVQQGEwJHQjEbMBkGA1UECBMSR3JlYXRlciBNYW5jaGVzdGVyMRAwDgYD
VQQHEwdTYWxmb3JkMRowGAYDVQQKExFDT01PRE8gQ0EgTGltaXRlZDEjMCEGA1UE
AxMaQ09NT0RPIFJTQSBDb2RlIFNpZ25pbmcgQ0EwHhcNMTcwMjE0MDAwMDAwWhcN
MjAwMTE1MjM1OTU5WjCB0TELMAkGA1UEBhMCQlIxEjAQBgNVBBEMCTA0MTUxLTA2
MDESMBAGA1UECAwJU2FvIFBhdWxvMRIwEAYDVQQHDAlTYW8gUGF1bG8xIDAeBgNV
BAkMF1J1YSBGb25zZWNhIGRhIENvc3RhIDU5MTEwLwYDVQQKDChQQ1dJTlNPRlQg
U09GVFdBUkUgSU5GT1JNQVRJQ0EgTFREQSAtIE1FMTEwLwYDVQQDDChQQ1dJTlNP
RlQgU09GVFdBUkUgSU5GT1JNQVRJQ0EgTFREQSAtIE1FMIIBIjANBgkqhkiG9w0B
AQEFAAOCAQ8AMIIBCgKCAQEAtthwVfUGADs9P/34cKUZACXnnoR2a5eZH/Sa17JO
NO2lbdCdQwB42yrX+XGxL3eoqdwXBaTIKqc+HAhml+llwdu+ifXSE7YmNyiZZcad
bDnT8ZiYVwGFzuLeH26b44b6aXQvluLxKOH4u1jiajMLP+6lQ230yergHS3SFBK6
D47DKascXapBFw36LFvGANCNbKZKS84XXG5ORBPrEjynfX8OdqN5BIVZlbJr6AIn
qS46JAcIWVjqO6yaowga5M3aRa2jDf1UCmHvBZuGGljSD5pGhNnBaAuVXBewMAvT
5/O83x3ZZxBRnaO8eX6mYfzNoqkYoZaqCenZ5n/6pPyBPQIDAQABo4IBjTCCAYkw
HwYDVR0jBBgwFoAUKZFg/4pN+uv5pmq4z/nmS71JzhIwHQYDVR0OBBYEFOvzCkoI
j9eLg4lEXWrd/3U8tcjPMA4GA1UdDwEB/wQEAwIHgDAMBgNVHRMBAf8EAjAAMBMG
A1UdJQQMMAoGCCsGAQUFBwMDMBEGCWCGSAGG+EIBAQQEAwIEEDBGBgNVHSAEPzA9
MDsGDCsGAQQBsjEBAgEDAjArMCkGCCsGAQUFBwIBFh1odHRwczovL3NlY3VyZS5j
b21vZG8ubmV0L0NQUzBDBgNVHR8EPDA6MDigNqA0hjJodHRwOi8vY3JsLmNvbW9k
b2NhLmNvbS9DT01PRE9SU0FDb2RlU2lnbmluZ0NBLmNybDB0BggrBgEFBQcBAQRo
MGYwPgYIKwYBBQUHMAKGMmh0dHA6Ly9jcnQuY29tb2RvY2EuY29tL0NPTU9ET1JT
QUNvZGVTaWduaW5nQ0EuY3J0MCQGCCsGAQUFBzABhhhodHRwOi8vb2NzcC5jb21v
ZG9jYS5jb20wDQYJKoZIhvcNAQELBQADggEBAB7k7wPtMZ57tBmuTT8jYJA0mwAe
WfGD3PCSYnlYf5JrtgvtX24po9TDpBypFVI3po16Hfu+rKx7y4aDqgeRD47tzkxv
Oe8Nx7bvmMpyliQPK/OJQ+tPfmnk1AZ4ad5krc1RdbAPt+QgSY4dAK/Y9GnivxLH
zMEb3i7Hc+c5Idq7hs4c5CCgddrP6sD8r/tQYPx47jb/xuO4pAW8nhXDX10MxuAn
OVR/h67aGTr+Vff+qypouQJDj68M226yHy9U/Q8wQUiYVLA7Udue7bajU413IkBY
7xxTyRh0QeUm9isfa+UB6WAzNtErw7IzpzO/gCZjGXTiyEqKGiLKK6Voz/U=
-----END CERTIFICATE-----

Certificate:
    Data:
        Version: 3 (0x2)
        Serial Number:
            2e:7c:87:cc:0e:93:4a:52:fe:94:fd:1c:b7:cd:34:af
    Signature Algorithm: sha384WithRSAEncryption
        Issuer: C=GB, ST=Greater Manchester, L=Salford, O=COMODO CA Limited, CN=COMODO RSA Certification Authority
        Validity
            Not Before: May  9 00:00:00 2013 GMT
            Not After : May  8 23:59:59 2028 GMT
        Subject: C=GB, ST=Greater Manchester, L=Salford, O=COMODO CA Limited, CN=COMODO RSA Code Signing CA
        Subject Public Key Info:
            Public Key Algorithm: rsaEncryption
                Public-Key: (2048 bit)
                Modulus:
                    00:a6:98:90:63:77:91:34:7f:8a:d1:dd:e9:67:31:
                    11:eb:cc:1e:fd:31:1d:b3:b9:62:57:3f:93:bc:5b:
                    e3:9f:1e:24:32:11:27:6b:bc:51:91:a7:cf:9e:9e:
                    25:b3:5f:81:a8:18:0f:1d:1e:20:30:0e:fb:61:7b:
                    86:09:b3:e3:fd:a2:68:9d:1c:2c:9d:bf:72:e3:e4:
                    75:a0:e5:35:23:8e:c9:8a:ee:1a:0c:64:c7:d8:42:
                    a1:7b:b5:52:03:4b:3a:b0:8e:23:4b:4b:63:e0:22:
                    94:37:7b:d5:79:90:0a:14:18:51:2c:e6:fe:c1:12:
                    f0:1c:3f:61:61:0a:8c:a2:dc:f6:c3:30:aa:cd:28:
                    18:75:48:c1:79:5a:08:cd:bb:8c:55:8c:f7:d4:76:
                    90:3a:33:46:50:73:98:5c:f4:85:4a:6b:0f:80:dd:
                    5e:d6:bd:fd:a9:2f:c0:25:f5:f9:78:d7:8d:5f:10:
                    c2:44:55:3c:90:3c:31:46:cb:70:ae:07:a9:0a:e3:
                    af:c1:01:6f:90:1a:23:e2:5f:38:db:c6:08:5d:47:
                    b3:83:41:f0:2e:00:37:14:b9:12:aa:79:92:52:cd:
                    87:0f:7b:d8:62:29:a4:7e:30:bd:1b:b5:8c:72:b4:
                    48:f2:e3:e8:21:f9:5e:4c:62:79:8b:02:06:9f:7f:
                    d5:0b
                Exponent: 65537 (0x10001)
        X509v3 extensions:
            X509v3 Authority Key Identifier: 
                keyid:BB:AF:7E:02:3D:FA:A6:F1:3C:84:8E:AD:EE:38:98:EC:D9:32:32:D4

            X509v3 Subject Key Identifier: 
                29:91:60:FF:8A:4D:FA:EB:F9:A6:6A:B8:CF:F9:E6:4B:BD:49:CE:12
            X509v3 Key Usage: critical
                Digital Signature, Certificate Sign, CRL Sign
            X509v3 Basic Constraints: critical
                CA:TRUE, pathlen:0
            X509v3 Extended Key Usage: 
                Code Signing
            X509v3 Certificate Policies: 
                Policy: X509v3 Any Policy

            X509v3 CRL Distribution Points: 

                Full Name:
                  URI:http://crl.comodoca.com/COMODORSACertificationAuthority.crl

            Authority Information Access: 
                CA Issuers - URI:http://crt.comodoca.com/COMODORSAAddTrustCA.crt
                OCSP - URI:http://ocsp.comodoca.com

    Signature Algorithm: sha384WithRSAEncryption
         02:3f:02:39:c3:ee:f8:ca:3b:89:de:0c:6d:4d:b1:f1:4e:92:
         4f:af:c2:38:2c:04:cc:c5:63:11:ab:09:63:af:ab:a2:d7:02:
         3f:cc:6f:19:c3:3d:d6:1a:08:94:ff:25:d8:a9:88:a7:2b:10:
         1a:e0:9b:b1:07:22:1a:51:1c:3a:d4:e1:e9:09:bf:e6:24:74:
         af:1e:7b:16:31:6e:23:ef:54:51:2d:52:02:e2:75:08:05:4c:
         f1:b7:51:e1:51:00:c6:87:f6:6c:ee:10:44:76:57:6a:f1:df:
         58:6b:21:aa:49:d4:7c:37:4e:bd:ff:b6:75:54:40:18:36:57:
         67:11:cd:4f:02:e4:fe:f3:da:fc:75:17:db:ec:b7:f7:65:09:
         23:49:1f:43:57:83:ea:7e:20:77:61:c8:4d:f2:bb:65:4d:a8:
         f7:85:45:07:af:7a:69:27:65:90:29:40:8b:df:7b:3a:51:39:
         8c:a8:1f:70:79:ad:6d:42:20:a2:cf:0c:6c:03:8c:4c:cd:73:
         07:94:e7:5a:8e:3a:04:ba:a2:a1:7c:1f:cb:63:3a:15:a7:d4:
         15:1b:a7:52:47:32:a9:f4:bf:64:47:d1:aa:1f:53:4e:32:30:
         73:c2:6f:b7:78:82:9d:5c:ff:46:bb:6b:22:1d:88:0b:f8:1b:
         aa:34:a6:fc:8c:f5:dd:7f:65:8c:8c:31:57:31:d0:36:ec:47:
         a1:cf:cb:8b:a8:ef:1c:18:58:c5:06:77:ca:4b:9b:51:af:4c:
         08:4a:7a:8f:e2:a3:52:e2:8e:8e:cc:26:e4:b2:d8:e5:38:c2:
         a8:ed:c6:81:9c:35:6b:a9:58:61:4a:0a:97:b4:4b:42:b6:55:
         9d:be:99:e7:70:6d:59:f8:6d:2a:0c:7f:19:60:5f:0c:9a:88:
         6c:30:ac:52:09:90:16:1b:ff:2b:9d:db:d0:20:ca:89:ea:28:
         7e:32:8e:19:df:7b:48:33:1e:d7:65:f8:ae:c9:f8:83:14:93:
         76:7d:64:d0:8e:ce:be:35:7d:ff:72:31:4d:9f:9e:bd:1e:6c:
         2f:a8:8f:0c:06:50:fb:8c:27:b3:76:c9:f4:e6:d7:c3:34:e2:
         8c:87:21:86:61:fe:bf:55:74:e1:21:77:03:0a:68:6c:bb:e4:
         c9:a9:e6:cf:59:25:eb:7c:ec:45:0e:79:66:68:e8:22:cd:b8:
         ef:98:85:4d:96:11:3c:09:8a:d0:7f:bc:28:28:13:fb:6a:ca:
         54:8d:92:5c:cd:c2:65:98:06:9e:ce:48:5b:d4:b5:37:93:46:
         41:7c:07:dd:cf:fa:43:ef:ba:67:61:ff:7d:49:e0:bb:30:7d:
         5c:80:e3:e6:16:39:4b:a7
-----BEGIN CERTIFICATE-----
MIIF4DCCA8igAwIBAgIQLnyHzA6TSlL+lP0ct800rzANBgkqhkiG9w0BAQwFADCB
hTELMAkGA1UEBhMCR0IxGzAZBgNVBAgTEkdyZWF0ZXIgTWFuY2hlc3RlcjEQMA4G
A1UEBxMHU2FsZm9yZDEaMBgGA1UEChMRQ09NT0RPIENBIExpbWl0ZWQxKzApBgNV
BAMTIkNPTU9ETyBSU0EgQ2VydGlmaWNhdGlvbiBBdXRob3JpdHkwHhcNMTMwNTA5
MDAwMDAwWhcNMjgwNTA4MjM1OTU5WjB9MQswCQYDVQQGEwJHQjEbMBkGA1UECBMS
R3JlYXRlciBNYW5jaGVzdGVyMRAwDgYDVQQHEwdTYWxmb3JkMRowGAYDVQQKExFD
T01PRE8gQ0EgTGltaXRlZDEjMCEGA1UEAxMaQ09NT0RPIFJTQSBDb2RlIFNpZ25p
bmcgQ0EwggEiMA0GCSqGSIb3DQEBAQUAA4IBDwAwggEKAoIBAQCmmJBjd5E0f4rR
3elnMRHrzB79MR2zuWJXP5O8W+OfHiQyESdrvFGRp8+eniWzX4GoGA8dHiAwDvth
e4YJs+P9omidHCydv3Lj5HWg5TUjjsmK7hoMZMfYQqF7tVIDSzqwjiNLS2PgIpQ3
e9V5kAoUGFEs5v7BEvAcP2FhCoyi3PbDMKrNKBh1SMF5WgjNu4xVjPfUdpA6M0ZQ
c5hc9IVKaw+A3V7Wvf2pL8Al9fl4141fEMJEVTyQPDFGy3CuB6kK46/BAW+QGiPi
XzjbxghdR7ODQfAuADcUuRKqeZJSzYcPe9hiKaR+ML0btYxytEjy4+gh+V5MYnmL
Agaff9ULAgMBAAGjggFRMIIBTTAfBgNVHSMEGDAWgBS7r34CPfqm8TyEjq3uOJjs
2TIy1DAdBgNVHQ4EFgQUKZFg/4pN+uv5pmq4z/nmS71JzhIwDgYDVR0PAQH/BAQD
AgGGMBIGA1UdEwEB/wQIMAYBAf8CAQAwEwYDVR0lBAwwCgYIKwYBBQUHAwMwEQYD
VR0gBAowCDAGBgRVHSAAMEwGA1UdHwRFMEMwQaA/oD2GO2h0dHA6Ly9jcmwuY29t
b2RvY2EuY29tL0NPTU9ET1JTQUNlcnRpZmljYXRpb25BdXRob3JpdHkuY3JsMHEG
CCsGAQUFBwEBBGUwYzA7BggrBgEFBQcwAoYvaHR0cDovL2NydC5jb21vZG9jYS5j
b20vQ09NT0RPUlNBQWRkVHJ1c3RDQS5jcnQwJAYIKwYBBQUHMAGGGGh0dHA6Ly9v
Y3NwLmNvbW9kb2NhLmNvbTANBgkqhkiG9w0BAQwFAAOCAgEAAj8COcPu+Mo7id4M
bU2x8U6ST6/COCwEzMVjEasJY6+rotcCP8xvGcM91hoIlP8l2KmIpysQGuCbsQci
GlEcOtTh6Qm/5iR0rx57FjFuI+9UUS1SAuJ1CAVM8bdR4VEAxof2bO4QRHZXavHf
WGshqknUfDdOvf+2dVRAGDZXZxHNTwLk/vPa/HUX2+y392UJI0kfQ1eD6n4gd2HI
TfK7ZU2o94VFB696aSdlkClAi997OlE5jKgfcHmtbUIgos8MbAOMTM1zB5TnWo46
BLqioXwfy2M6FafUFRunUkcyqfS/ZEfRqh9TTjIwc8Jvt3iCnVz/RrtrIh2IC/gb
qjSm/Iz13X9ljIwxVzHQNuxHoc/Li6jvHBhYxQZ3ykubUa9MCEp6j+KjUuKOjswm
5LLY5TjCqO3GgZw1a6lYYUoKl7RLQrZVnb6Z53BtWfhtKgx/GWBfDJqIbDCsUgmQ
Fhv/K53b0CDKieoofjKOGd97SDMe12X4rsn4gxSTdn1k0I7OvjV9/3IxTZ+evR5s
L6iPDAZQ+4wns3bJ9ObXwzTijIchhmH+v1V04SF3AwpobLvkyanmz1kl63zsRQ55
ZmjoIs2475iFTZYRPAmK0H+8KCgT+2rKVI2SXM3CZZgGns5IW9S1N5NGQXwH3c/6
Q++6Z2H/fUnguzB9XIDj5hY5S6c=
-----END CERTIFICATE-----

