Certificate:
    Data:
        Version: 3 (0x2)
        Serial Number:
            47:97:4d:78:73:a5:bc:ab:0d:2f:b3:70:19:2f:ce:5e
    Signature Algorithm: sha1WithRSAEncryption
        Issuer: C=US, O=thawte, Inc., OU=Certification Services Division, OU=(c) 2006 thawte, Inc. - For authorized use only, CN=thawte Primary Root CA
        Validity
            Not Before: Feb  8 00:00:00 2010 GMT
            Not After : Feb  7 23:59:59 2020 GMT
        Subject: C=US, O=Thawte, Inc., CN=Thawte Code Signing CA - G2
        Subject Public Key Info:
            Public Key Algorithm: rsaEncryption
                Public-Key: (2048 bit)
                Modulus:
                    00:b7:8b:cf:75:5b:9f:25:da:7e:39:b0:93:db:38:
                    d3:a9:23:d0:82:fa:e9:24:7e:5c:0b:8e:83:f8:e6:
                    7a:59:e6:a3:c5:98:a7:99:d2:44:ff:00:a6:a5:39:
                    04:8a:da:29:88:ea:db:a2:f3:1c:99:15:26:c2:b1:
                    f4:fc:e1:0c:47:a9:09:11:06:0a:20:92:b9:c7:a0:
                    04:8c:5c:94:19:ab:5b:25:2c:1d:62:7e:70:0d:ce:
                    61:6c:dd:2b:82:c9:ce:5d:48:5f:f7:c2:be:bc:41:
                    23:1e:4f:29:5d:d7:4f:bc:f4:c5:2a:fc:63:e6:7c:
                    26:4e:99:a7:79:41:9e:10:4a:7a:79:c9:c6:86:f7:
                    86:95:d2:26:ce:3c:18:2a:d6:7c:ce:af:cd:ad:bb:
                    f7:82:2c:70:26:37:45:e5:0f:47:22:c6:01:28:bd:
                    2e:83:5c:6a:a4:47:c1:e7:d0:d8:6b:81:46:3f:21:
                    17:f5:07:c5:43:5a:a6:67:2c:b8:7b:60:11:b5:83:
                    ee:f5:74:0a:72:71:44:3d:58:fe:e8:1a:ab:38:c3:
                    59:db:7f:6e:38:7d:76:c7:72:69:98:36:96:57:d3:
                    66:1c:d2:54:91:04:2e:54:19:b0:dc:3d:b5:22:5e:
                    86:d5:2a:7e:20:df:5d:e6:7a:b1:65:fe:c5:02:4e:
                    31:2d
                Exponent: 65537 (0x10001)
        X509v3 extensions:
            X509v3 Basic Constraints: critical
                CA:TRUE, pathlen:0
            X509v3 CRL Distribution Points: 

                Full Name:
                  URI:http://crl.thawte.com/ThawtePCA.crl

            X509v3 Key Usage: critical
                Certificate Sign, CRL Sign
            Authority Information Access: 
                OCSP - URI:http://ocsp.thawte.com

            X509v3 Extended Key Usage: 
                TLS Web Client Authentication, Code Signing
            X509v3 Subject Alternative Name: 
                DirName:/CN=VeriSignMPKI-2-10
            X509v3 Subject Key Identifier: 
                D4:0D:65:3F:7A:BD:34:C6:FE:47:E7:4C:0D:C0:BD:F2:DE:15:AB:71
            X509v3 Authority Key Identifier: 
                keyid:7B:5B:45:CF:AF:CE:CB:7A:FD:31:92:1A:6A:B6:F3:46:EB:57:48:50

    Signature Algorithm: sha1WithRSAEncryption
         56:fe:53:5c:e1:c7:9e:bc:a7:ed:7e:53:6d:6a:14:4b:51:8c:
         40:5e:80:5f:aa:a4:e8:2f:ef:38:c8:04:c9:ca:3e:cf:df:3a:
         58:4e:b0:d4:b6:63:c5:29:57:fa:02:05:9a:45:4d:68:db:2a:
         1b:d4:34:3d:9f:00:c3:5a:cb:95:49:a5:6e:e1:b0:c5:fc:41:
         4d:41:4a:6f:d3:77:c8:d7:38:8d:e4:19:de:18:f3:1f:15:65:
         83:6d:45:0c:53:f9:0a:9a:2e:a5:5d:bf:6f:32:81:18:92:19:
         6a:55:00:ad:63:1c:52:06:7e:55:d9:29:68:ae:4a:7c:18:9a:
         79:88:6b:23:23:d8:27:38:2a:29:87:76:ca:fb:c7:b6:62:23:
         1f:ed:7a:56:4c:dd:9c:32:5b:f5:3d:0c:46:18:95:3b:2a:23:
         68:83:64:41:d9:00:6d:0f:19:24:15:68:72:bd:c5:71:67:6e:
         ac:4c:db:90:eb:51:a5:1a:62:07:d0:be:6a:00:47:3c:72:2f:
         ec:4f:61:3e:73:85:ce:5a:0a:b7:ba:c0:1c:13:75:e3:22:39:
         28:dd:6d:1d:09:46:9d:4f:ba:e8:40:81:91:c6:a4:ce:94:72:
         1b:01:cf:2a:6e:15:67:95:89:ae:7d:b7:b7:cd:f9:0a:3d:75:
         b6:6b:3c:25
-----BEGIN CERTIFICATE-----
MIIEnDCCA4SgAwIBAgIQR5dNeHOlvKsNL7NwGS/OXjANBgkqhkiG9w0BAQUFADCB
qTELMAkGA1UEBhMCVVMxFTATBgNVBAoTDHRoYXd0ZSwgSW5jLjEoMCYGA1UECxMf
Q2VydGlmaWNhdGlvbiBTZXJ2aWNlcyBEaXZpc2lvbjE4MDYGA1UECxMvKGMpIDIw
MDYgdGhhd3RlLCBJbmMuIC0gRm9yIGF1dGhvcml6ZWQgdXNlIG9ubHkxHzAdBgNV
BAMTFnRoYXd0ZSBQcmltYXJ5IFJvb3QgQ0EwHhcNMTAwMjA4MDAwMDAwWhcNMjAw
MjA3MjM1OTU5WjBKMQswCQYDVQQGEwJVUzEVMBMGA1UEChMMVGhhd3RlLCBJbmMu
MSQwIgYDVQQDExtUaGF3dGUgQ29kZSBTaWduaW5nIENBIC0gRzIwggEiMA0GCSqG
SIb3DQEBAQUAA4IBDwAwggEKAoIBAQC3i891W58l2n45sJPbONOpI9CC+ukkflwL
joP45npZ5qPFmKeZ0kT/AKalOQSK2imI6tui8xyZFSbCsfT84QxHqQkRBgogkrnH
oASMXJQZq1slLB1ifnANzmFs3SuCyc5dSF/3wr68QSMeTyld10+89MUq/GPmfCZO
mad5QZ4QSnp5ycaG94aV0ibOPBgq1nzOr82tu/eCLHAmN0XlD0cixgEovS6DXGqk
R8Hn0NhrgUY/IRf1B8VDWqZnLLh7YBG1g+71dApycUQ9WP7oGqs4w1nbf244fXbH
cmmYNpZX02Yc0lSRBC5UGbDcPbUiXobVKn4g313merFl/sUCTjEtAgMBAAGjggEc
MIIBGDASBgNVHRMBAf8ECDAGAQH/AgEAMDQGA1UdHwQtMCswKaAnoCWGI2h0dHA6
Ly9jcmwudGhhd3RlLmNvbS9UaGF3dGVQQ0EuY3JsMA4GA1UdDwEB/wQEAwIBBjAy
BggrBgEFBQcBAQQmMCQwIgYIKwYBBQUHMAGGFmh0dHA6Ly9vY3NwLnRoYXd0ZS5j
b20wHQYDVR0lBBYwFAYIKwYBBQUHAwIGCCsGAQUFBwMDMCkGA1UdEQQiMCCkHjAc
MRowGAYDVQQDExFWZXJpU2lnbk1QS0ktMi0xMDAdBgNVHQ4EFgQU1A1lP3q9NMb+
R+dMDcC98t4Vq3EwHwYDVR0jBBgwFoAUe1tFz6/Oy3r9MZIaarbzRutXSFAwDQYJ
KoZIhvcNAQEFBQADggEBAFb+U1zhx568p+1+U21qFEtRjEBegF+qpOgv7zjIBMnK
Ps/fOlhOsNS2Y8UpV/oCBZpFTWjbKhvUND2fAMNay5VJpW7hsMX8QU1BSm/Td8jX
OI3kGd4Y8x8VZYNtRQxT+QqaLqVdv28ygRiSGWpVAK1jHFIGflXZKWiuSnwYmnmI
ayMj2Cc4KimHdsr7x7ZiIx/telZM3ZwyW/U9DEYYlTsqI2iDZEHZAG0PGSQVaHK9
xXFnbqxM25DrUaUaYgfQvmoARzxyL+xPYT5zhc5aCre6wBwTdeMiOSjdbR0JRp1P
uuhAgZHGpM6UchsBzypuFWeVia59t7fN+Qo9dbZrPCU=
-----END CERTIFICATE-----

Certificate:
    Data:
        Version: 3 (0x2)
        Serial Number:
            5b:50:ad:f1:b5:34:19:4e:1f:ee:94:bf:6d:1a:74:b0
    Signature Algorithm: sha1WithRSAEncryption
        Issuer: C=US, O=Thawte, Inc., CN=Thawte Code Signing CA - G2
        Validity
            Not Before: Sep 16 00:00:00 2014 GMT
            Not After : Oct 11 23:59:59 2015 GMT
        Subject: C=FI, ST=Uusimaa, L=Espoo, O=Rex Partners Oy, CN=Rex Partners Oy
        Subject Public Key Info:
            Public Key Algorithm: rsaEncryption
                Public-Key: (2048 bit)
                Modulus:
                    00:ba:e5:24:8c:6f:6e:59:11:44:65:79:41:f9:53:
                    7b:7b:29:60:97:aa:7c:48:29:6e:61:46:7d:5d:34:
                    9d:d6:b5:b0:34:82:eb:63:b3:55:70:64:a8:75:9b:
                    80:b5:be:3e:79:56:f2:74:c8:da:3a:41:3e:81:25:
                    99:38:a9:7b:d3:c3:88:ea:9c:5a:fa:3d:01:b5:4d:
                    10:2a:b7:81:e7:e7:4f:fc:2a:64:dd:ba:1d:6f:37:
                    10:d7:79:9a:91:a4:9b:1f:52:59:6f:e0:b5:a9:9f:
                    2a:54:b0:56:d1:7d:2a:56:b4:df:f7:29:79:db:b6:
                    25:bf:c0:32:a0:76:5d:4b:b3:ec:86:73:75:55:85:
                    f9:bc:b2:e0:84:ea:2b:fd:29:2b:d4:03:78:1b:d6:
                    e4:95:65:05:0d:28:fb:40:f2:ea:37:3f:1e:f1:59:
                    b7:c7:2c:1d:cd:ad:f4:32:c7:7d:e9:9d:26:b5:04:
                    63:77:24:ff:90:61:2a:7a:27:02:55:79:1b:82:6e:
                    bb:bd:53:bf:24:5c:88:20:fc:b9:0b:3b:e6:7f:15:
                    e6:ec:f4:b3:3c:4f:67:1f:30:3b:b7:60:19:59:2c:
                    80:68:f5:ca:c7:af:9a:ea:e7:69:f1:fb:98:b0:d6:
                    77:76:68:ef:e2:b4:27:7e:0a:ec:da:ee:8e:47:87:
                    58:4f
                Exponent: 65537 (0x10001)
        X509v3 extensions:
            X509v3 Basic Constraints: 
                CA:FALSE
            X509v3 Authority Key Identifier: 
                keyid:D4:0D:65:3F:7A:BD:34:C6:FE:47:E7:4C:0D:C0:BD:F2:DE:15:AB:71

            X509v3 Subject Key Identifier: 
                2F:A8:C1:57:45:5C:BD:98:D2:A5:82:E6:3E:3D:8C:AB:56:5A:1F:E2
            X509v3 CRL Distribution Points: 

                Full Name:
                  URI:http://th.symcb.com/th.crl

            X509v3 Key Usage: critical
                Digital Signature
            X509v3 Extended Key Usage: 
                Code Signing, Microsoft Commercial Code Signing
            X509v3 Certificate Policies: 
                Policy: 2.16.840.1.113733.1.7.48.2
                  CPS: https://d.symcb.com/cps
                  User Notice:
                    Explicit Text: https://d.symcb.com/rpa

            2.5.29.4: 
                0.0.0..
+.....7.......
            Authority Information Access: 
                OCSP - URI:http://th.symcd.com
                CA Issuers - URI:http://th.symcb.com/th.crt

            Netscape Cert Type: 
                Object Signing
    Signature Algorithm: sha1WithRSAEncryption
         2c:7f:da:be:71:fc:47:cc:3b:13:87:b0:5c:92:d5:b7:fb:df:
         ed:7e:44:b2:af:ce:5f:e7:8b:72:dc:5e:6f:87:c0:4f:72:3b:
         6f:44:e4:a8:52:5f:86:c7:22:b4:be:9f:c0:02:ac:73:e9:fe:
         f7:7b:77:e6:5b:a7:4e:6c:eb:6f:0b:a6:91:89:d5:c6:42:b5:
         b6:19:5a:82:76:9c:70:41:68:3b:85:22:84:2b:5b:de:e5:a0:
         2e:32:ef:47:32:91:66:0e:cb:86:76:3c:ca:f1:99:68:e2:62:
         24:ba:e4:49:47:41:68:8d:87:d8:1c:d6:82:79:bb:43:2e:26:
         d6:b0:5d:2d:34:4b:a7:15:b2:5e:d1:36:b0:37:a1:9f:63:74:
         c2:3d:45:a8:b0:f2:1a:36:19:24:13:03:4c:3a:02:5d:39:07:
         13:11:e8:a2:da:91:7e:d1:ac:ec:66:6c:77:1d:fa:11:a7:af:
         a2:97:49:d5:28:0f:af:bf:8d:58:78:84:dc:b7:06:cc:69:b0:
         37:d6:c2:0c:9d:73:40:b7:be:b7:ea:3c:2b:9d:55:34:8f:e8:
         c0:90:ea:3b:82:28:81:76:a7:aa:37:c7:27:f6:d1:e3:73:5e:
         02:04:26:76:3a:09:5c:8c:3a:e7:7e:36:71:17:3f:33:2b:bb:
         e4:a3:37:67
-----BEGIN CERTIFICATE-----
MIIE2TCCA8GgAwIBAgIQW1Ct8bU0GU4f7pS/bRp0sDANBgkqhkiG9w0BAQUFADBK
MQswCQYDVQQGEwJVUzEVMBMGA1UEChMMVGhhd3RlLCBJbmMuMSQwIgYDVQQDExtU
aGF3dGUgQ29kZSBTaWduaW5nIENBIC0gRzIwHhcNMTQwOTE2MDAwMDAwWhcNMTUx
MDExMjM1OTU5WjBjMQswCQYDVQQGEwJGSTEQMA4GA1UECBMHVXVzaW1hYTEOMAwG
A1UEBxMFRXNwb28xGDAWBgNVBAoUD1JleCBQYXJ0bmVycyBPeTEYMBYGA1UEAxQP
UmV4IFBhcnRuZXJzIE95MIIBIjANBgkqhkiG9w0BAQEFAAOCAQ8AMIIBCgKCAQEA
uuUkjG9uWRFEZXlB+VN7eylgl6p8SCluYUZ9XTSd1rWwNILrY7NVcGSodZuAtb4+
eVbydMjaOkE+gSWZOKl708OI6pxa+j0BtU0QKreB5+dP/Cpk3bodbzcQ13makaSb
H1JZb+C1qZ8qVLBW0X0qVrTf9yl527Ylv8AyoHZdS7PshnN1VYX5vLLghOor/Skr
1AN4G9bklWUFDSj7QPLqNz8e8Vm3xywdza30Msd96Z0mtQRjdyT/kGEqeicCVXkb
gm67vVO/JFyIIPy5CzvmfxXm7PSzPE9nHzA7t2AZWSyAaPXKx6+a6udp8fuYsNZ3
dmjv4rQnfgrs2u6OR4dYTwIDAQABo4IBoDCCAZwwCQYDVR0TBAIwADAfBgNVHSME
GDAWgBTUDWU/er00xv5H50wNwL3y3hWrcTAdBgNVHQ4EFgQUL6jBV0VcvZjSpYLm
Pj2Mq1ZaH+IwKwYDVR0fBCQwIjAgoB6gHIYaaHR0cDovL3RoLnN5bWNiLmNvbS90
aC5jcmwwDgYDVR0PAQH/BAQDAgeAMB8GA1UdJQQYMBYGCCsGAQUFBwMDBgorBgEE
AYI3AgEWMGYGA1UdIARfMF0wWwYLYIZIAYb4RQEHMAIwTDAjBggrBgEFBQcCARYX
aHR0cHM6Ly9kLnN5bWNiLmNvbS9jcHMwJQYIKwYBBQUHAgIwGRYXaHR0cHM6Ly9k
LnN5bWNiLmNvbS9ycGEwHQYDVR0EBBYwFDAOMAwGCisGAQQBgjcCARYDAgeAMFcG
CCsGAQUFBwEBBEswSTAfBggrBgEFBQcwAYYTaHR0cDovL3RoLnN5bWNkLmNvbTAm
BggrBgEFBQcwAoYaaHR0cDovL3RoLnN5bWNiLmNvbS90aC5jcnQwEQYJYIZIAYb4
QgEBBAQDAgQQMA0GCSqGSIb3DQEBBQUAA4IBAQAsf9q+cfxHzDsTh7BcktW3+9/t
fkSyr85f54ty3F5vh8BPcjtvROSoUl+GxyK0vp/AAqxz6f73e3fmW6dObOtvC6aR
idXGQrW2GVqCdpxwQWg7hSKEK1ve5aAuMu9HMpFmDsuGdjzK8Zlo4mIkuuRJR0Fo
jYfYHNaCebtDLibWsF0tNEunFbJe0TawN6GfY3TCPUWosPIaNhkkEwNMOgJdOQcT
Eeii2pF+0azsZmx3HfoRp6+il0nVKA+vv41YeITctwbMabA31sIMnXNAt7636jwr
nVU0j+jAkOo7giiBdqeqN8cn9tHjc14CBCZ2OglcjDrnfjZxFz8zK7vkozdn
-----END CERTIFICATE-----

Certificate:
    Data:
        Version: 3 (0x2)
        Serial Number:
            03:01:9a:02:3a:ff:58:b1:6b:d6:d5:ea:e6:17:f0:66
    Signature Algorithm: sha1WithRSAEncryption
        Issuer: C=US, O=DigiCert Inc, OU=www.digicert.com, CN=DigiCert Assured ID CA-1
        Validity
            Not Before: Oct 22 00:00:00 2014 GMT
            Not After : Oct 22 00:00:00 2024 GMT
        Subject: C=US, O=DigiCert, CN=DigiCert Timestamp Responder
        Subject Public Key Info:
            Public Key Algorithm: rsaEncryption
                Public-Key: (2048 bit)
                Modulus:
                    00:a3:64:5d:fc:7c:b3:e0:82:35:e0:e0:f6:c6:2a:
                    e6:49:75:3b:cc:6e:e0:53:a9:9f:1f:64:59:e6:7c:
                    6b:7f:6b:8c:9d:55:f8:92:e3:9e:d5:5a:63:5b:02:
                    49:50:d9:83:ce:6f:66:ee:dd:cb:85:e9:5f:a5:f9:
                    d4:87:74:88:44:3b:19:c9:e5:f5:91:9f:c6:14:39:
                    ac:24:ea:a8:4b:2c:91:89:cc:5e:28:f4:64:b6:50:
                    b7:f5:12:b3:73:96:0a:67:a3:be:61:9f:ae:f3:fd:
                    12:78:75:0e:a6:5b:14:fd:45:23:8e:86:44:55:7d:
                    18:86:05:8c:55:87:79:48:46:f7:ca:0e:8d:a7:de:
                    4e:5f:e2:a8:b6:2d:59:02:61:88:61:72:18:68:b9:
                    b8:7c:ee:e6:e7:34:2f:31:77:81:30:1f:bb:36:01:
                    8d:ef:27:e3:f7:9a:f0:4c:31:64:8d:e3:eb:fa:19:
                    87:a8:7e:cf:ec:8c:0c:36:5b:7a:c1:7a:b8:78:c7:
                    c9:06:2e:46:10:c8:8d:e8:04:60:db:bc:73:74:fa:
                    4e:d8:fe:aa:40:f1:b2:ce:70:46:83:e9:da:40:a1:
                    59:3a:d9:15:09:57:99:56:30:93:f3:c9:61:cc:d0:
                    08:cc:6b:ec:62:42:91:ac:02:c0:ef:a4:f0:89:11:
                    8f:77
                Exponent: 65537 (0x10001)
        X509v3 extensions:
            X509v3 Key Usage: critical
                Digital Signature
            X509v3 Basic Constraints: critical
                CA:FALSE
            X509v3 Extended Key Usage: critical
                Time Stamping
            X509v3 Certificate Policies: 
                Policy: 2.16.840.1.114412.7.1
                  CPS: https://www.digicert.com/CPS
                  User Notice:
                    Explicit Text: 
                Policy: 2.16.840.1.114412.3.21

            X509v3 Authority Key Identifier: 
                keyid:15:00:12:2B:13:98:B2:99:07:ED:1E:DF:A2:BE:57:0D:2B:67:02:CD

            X509v3 Subject Key Identifier: 
                61:5A:4D:24:B6:49:32:9D:4A:2A:79:1A:83:4B:F4:1E:89:C1:CA:7D
            X509v3 CRL Distribution Points: 

                Full Name:
                  URI:http://crl3.digicert.com/DigiCertAssuredIDCA-1.crl

                Full Name:
                  URI:http://crl4.digicert.com/DigiCertAssuredIDCA-1.crl

            Authority Information Access: 
                OCSP - URI:http://ocsp.digicert.com
                CA Issuers - URI:http://cacerts.digicert.com/DigiCertAssuredIDCA-1.crt

    Signature Algorithm: sha1WithRSAEncryption
         9d:25:7e:1b:33:4d:b2:26:81:5c:9b:86:ce:23:20:0f:80:87:
         e5:88:ff:ff:b1:d4:6a:2c:31:ed:3a:17:19:71:17:cd:a9:1b:
         bc:5a:16:39:00:9d:e3:6c:84:e4:5a:40:fb:de:06:01:8c:37:
         fa:9b:b1:9d:24:7e:fe:20:a4:57:ad:5b:b7:9a:b0:60:26:ea:
         69:57:21:5d:34:2f:1f:71:b0:83:94:19:05:6b:35:90:10:a0:
         7b:97:c7:f6:3f:e7:e2:11:41:a6:bd:62:d9:f0:27:3d:38:1d:
         28:6f:3a:52:09:f0:ec:70:62:d3:62:4b:b0:e0:73:a6:92:c0:
         d3:8e:31:d8:2f:e3:6d:17:13:06:ee:e4:03:b6:14:ab:f3:8f:
         43:a7:71:9d:21:dd:14:ca:15:5d:92:41:da:f9:0f:81:d1:99:
         74:0d:26:c4:0e:7f:1b:b5:f5:a0:f1:c6:77:06:28:15:e9:d8:
         93:e5:55:16:f0:bb:0a:ab:1c:db:5c:48:27:66:c8:a3:8b:0a:
         1c:e5:95:da:ae:c4:2e:59:a0:61:dd:da:f3:6d:a2:61:e9:8a:
         0b:6d:ec:12:18:bd:f7:55:54:40:03:92:2b:6b:c2:51:c2:0a:
         48:af:b0:d4:6e:e0:f4:14:0a:3a:1b:e3:8f:3d:ca:af:6a:8d:
         7b:dc:d8:44
-----BEGIN CERTIFICATE-----
MIIGajCCBVKgAwIBAgIQAwGaAjr/WLFr1tXq5hfwZjANBgkqhkiG9w0BAQUFADBi
MQswCQYDVQQGEwJVUzEVMBMGA1UEChMMRGlnaUNlcnQgSW5jMRkwFwYDVQQLExB3
d3cuZGlnaWNlcnQuY29tMSEwHwYDVQQDExhEaWdpQ2VydCBBc3N1cmVkIElEIENB
LTEwHhcNMTQxMDIyMDAwMDAwWhcNMjQxMDIyMDAwMDAwWjBHMQswCQYDVQQGEwJV
UzERMA8GA1UEChMIRGlnaUNlcnQxJTAjBgNVBAMTHERpZ2lDZXJ0IFRpbWVzdGFt
cCBSZXNwb25kZXIwggEiMA0GCSqGSIb3DQEBAQUAA4IBDwAwggEKAoIBAQCjZF38
fLPggjXg4PbGKuZJdTvMbuBTqZ8fZFnmfGt/a4ydVfiS457VWmNbAklQ2YPOb2bu
3cuF6V+l+dSHdIhEOxnJ5fWRn8YUOawk6qhLLJGJzF4o9GS2ULf1ErNzlgpno75h
n67z/RJ4dQ6mWxT9RSOOhkRVfRiGBYxVh3lIRvfKDo2n3k5f4qi2LVkCYYhhchho
ubh87ubnNC8xd4EwH7s2AY3vJ+P3mvBMMWSN4+v6GYeofs/sjAw2W3rBerh4x8kG
LkYQyI3oBGDbvHN0+k7Y/qpA8bLOcEaD6dpAoVk62RUJV5lWMJPzyWHM0AjMa+xi
QpGsAsDvpPCJEY93AgMBAAGjggM1MIIDMTAOBgNVHQ8BAf8EBAMCB4AwDAYDVR0T
AQH/BAIwADAWBgNVHSUBAf8EDDAKBggrBgEFBQcDCDCCAb8GA1UdIASCAbYwggGy
MIIBoQYJYIZIAYb9bAcBMIIBkjAoBggrBgEFBQcCARYcaHR0cHM6Ly93d3cuZGln
aWNlcnQuY29tL0NQUzCCAWQGCCsGAQUFBwICMIIBVh6CAVIAQQBuAHkAIAB1AHMA
ZQAgAG8AZgAgAHQAaABpAHMAIABDAGUAcgB0AGkAZgBpAGMAYQB0AGUAIABjAG8A
bgBzAHQAaQB0AHUAdABlAHMAIABhAGMAYwBlAHAAdABhAG4AYwBlACAAbwBmACAA
dABoAGUAIABEAGkAZwBpAEMAZQByAHQAIABDAFAALwBDAFAAUwAgAGEAbgBkACAA
dABoAGUAIABSAGUAbAB5AGkAbgBnACAAUABhAHIAdAB5ACAAQQBnAHIAZQBlAG0A
ZQBuAHQAIAB3AGgAaQBjAGgAIABsAGkAbQBpAHQAIABsAGkAYQBiAGkAbABpAHQA
eQAgAGEAbgBkACAAYQByAGUAIABpAG4AYwBvAHIAcABvAHIAYQB0AGUAZAAgAGgA
ZQByAGUAaQBuACAAYgB5ACAAcgBlAGYAZQByAGUAbgBjAGUALjALBglghkgBhv1s
AxUwHwYDVR0jBBgwFoAUFQASKxOYspkH7R7for5XDStnAs0wHQYDVR0OBBYEFGFa
TSS2STKdSip5GoNL9B6Jwcp9MH0GA1UdHwR2MHQwOKA2oDSGMmh0dHA6Ly9jcmwz
LmRpZ2ljZXJ0LmNvbS9EaWdpQ2VydEFzc3VyZWRJRENBLTEuY3JsMDigNqA0hjJo
dHRwOi8vY3JsNC5kaWdpY2VydC5jb20vRGlnaUNlcnRBc3N1cmVkSURDQS0xLmNy
bDB3BggrBgEFBQcBAQRrMGkwJAYIKwYBBQUHMAGGGGh0dHA6Ly9vY3NwLmRpZ2lj
ZXJ0LmNvbTBBBggrBgEFBQcwAoY1aHR0cDovL2NhY2VydHMuZGlnaWNlcnQuY29t
L0RpZ2lDZXJ0QXNzdXJlZElEQ0EtMS5jcnQwDQYJKoZIhvcNAQEFBQADggEBAJ0l
fhszTbImgVybhs4jIA+Ah+WI//+x1GosMe06FxlxF82pG7xaFjkAneNshORaQPve
BgGMN/qbsZ0kfv4gpFetW7easGAm6mlXIV00Lx9xsIOUGQVrNZAQoHuXx/Y/5+IR
Qaa9YtnwJz04HShvOlIJ8OxwYtNiS7Dgc6aSwNOOMdgv420XEwbu5AO2FKvzj0On
cZ0h3RTKFV2SQdr5D4HRmXQNJsQOfxu19aDxxncGKBXp2JPlVRbwuwqrHNtcSCdm
yKOLChzlldquxC5ZoGHd2vNtomHpigtt7BIYvfdVVEADkitrwlHCCkivsNRu4PQU
Cjob4489yq9qjXvc2EQ=
-----END CERTIFICATE-----

Certificate:
    Data:
        Version: 3 (0x2)
        Serial Number:
            06:fd:f9:03:96:03:ad:ea:00:0a:eb:3f:27:bb:ba:1b
    Signature Algorithm: sha1WithRSAEncryption
        Issuer: C=US, O=DigiCert Inc, OU=www.digicert.com, CN=DigiCert Assured ID Root CA
        Validity
            Not Before: Nov 10 00:00:00 2006 GMT
            Not After : Nov 10 00:00:00 2021 GMT
        Subject: C=US, O=DigiCert Inc, OU=www.digicert.com, CN=DigiCert Assured ID CA-1
        Subject Public Key Info:
            Public Key Algorithm: rsaEncryption
                Public-Key: (2048 bit)
                Modulus:
                    00:e8:82:2d:99:f9:ca:c2:42:95:a5:80:73:40:70:
                    d2:9e:56:54:5c:a9:c4:d2:41:06:8f:c9:33:fc:4d:
                    45:91:5c:81:9f:ed:2c:9c:f8:16:59:df:9e:b5:24:
                    15:c2:98:b9:b4:77:49:dc:89:c4:0a:da:af:cb:5e:
                    6b:ed:ad:b0:71:31:eb:cf:3a:40:0c:46:4d:93:ec:
                    8b:7a:36:08:03:ab:0c:34:fe:18:49:82:fe:c7:c7:
                    31:48:80:7c:1e:a2:0f:92:0e:50:c9:c6:87:eb:36:
                    3f:d8:30:c3:ff:a6:f7:fb:a2:cd:6f:73:23:fe:ac:
                    56:05:90:f0:32:21:16:89:c6:70:88:f9:05:97:7d:
                    a3:c7:43:dd:02:e8:3b:3d:ed:b1:41:a3:ed:3f:be:
                    db:95:48:c4:ee:1e:b3:f2:bc:0c:2b:99:d0:c6:5d:
                    12:42:81:e1:83:6e:82:73:3f:26:4b:14:90:ae:59:
                    66:0a:c4:8d:be:d2:ce:06:ae:ad:84:6f:48:84:9b:
                    4f:40:b9:f1:4c:f2:af:98:fb:f6:ce:40:5d:5c:f6:
                    a8:f1:2f:af:ec:89:22:f2:6b:18:65:b1:c1:73:ad:
                    d7:f1:d8:cf:1e:0a:74:5c:42:b8:68:7e:b7:d5:77:
                    0a:27:56:7c:0f:62:a4:3f:32:14:60:95:fd:07:04:
                    a2:09
                Exponent: 65537 (0x10001)
        X509v3 extensions:
            X509v3 Key Usage: critical
                Digital Signature, Certificate Sign, CRL Sign
            X509v3 Extended Key Usage: 
                TLS Web Server Authentication, TLS Web Client Authentication, Code Signing, E-mail Protection, Time Stamping
            X509v3 Certificate Policies: 
                Policy: 2.16.840.1.114412.0.1.4
                  CPS: http://www.digicert.com/ssl-cps-repository.htm
                  User Notice:
                    Explicit Text: 
                Policy: 2.16.840.1.114412.3.21

            X509v3 Basic Constraints: critical
                CA:TRUE, pathlen:0
            Authority Information Access: 
                OCSP - URI:http://ocsp.digicert.com
                CA Issuers - URI:http://cacerts.digicert.com/DigiCertAssuredIDRootCA.crt

            X509v3 CRL Distribution Points: 

                Full Name:
                  URI:http://crl3.digicert.com/DigiCertAssuredIDRootCA.crl

                Full Name:
                  URI:http://crl4.digicert.com/DigiCertAssuredIDRootCA.crl

            X509v3 Subject Key Identifier: 
                15:00:12:2B:13:98:B2:99:07:ED:1E:DF:A2:BE:57:0D:2B:67:02:CD
            X509v3 Authority Key Identifier: 
                keyid:45:EB:A2:AF:F4:92:CB:82:31:2D:51:8B:A7:A7:21:9D:F3:6D:C8:0F

    Signature Algorithm: sha1WithRSAEncryption
         46:50:3e:c9:b7:28:24:a7:38:1d:b6:5b:29:af:52:cf:52:e9:
         31:47:ab:56:5c:7b:d5:0d:0b:41:b3:ef:ec:75:1f:74:38:f2:
         b2:5c:61:a2:9c:95:c3:50:e4:82:b9:23:d1:ba:3a:86:72:ad:
         38:78:ac:75:5d:17:17:34:72:47:85:94:56:d1:eb:bb:36:84:
         77:cc:24:a5:f3:04:19:55:a9:e7:e3:e7:ab:62:cd:fb:8b:2d:
         90:c2:c0:d2:b5:94:bd:5e:4f:b1:05:d2:0e:3d:1a:a9:14:5b:
         a6:86:31:62:a8:a8:33:e4:9b:39:a7:c4:f5:ce:1d:78:76:94:
         25:73:e4:2a:ab:cf:9c:76:4b:ed:5f:c2:4b:16:e4:4b:70:4c:
         00:89:1e:fc:c5:79:bc:4c:12:57:fe:5f:e1:1e:bc:02:5d:a8:
         fe:fb:07:38:4f:0d:c6:5d:91:b9:0f:67:45:cd:d6:83:ed:e7:
         92:0d:8d:b1:69:8c:4f:fb:59:e0:23:0f:d2:aa:ae:00:7c:ee:
         9c:42:0e:cf:91:d7:27:b7:16:ee:0f:c3:bd:7c:0a:a0:ee:2c:
         08:55:85:22:b8:eb:18:1a:4d:fc:2a:21:ad:49:31:83:47:95:
         77:71:dc:b1:1b:4b:4b:1c:10:9c:77:14:c1:9d:4f:2f:5a:95:
         08:29:10:26
-----BEGIN CERTIFICATE-----
MIIGzTCCBbWgAwIBAgIQBv35A5YDreoACus/J7u6GzANBgkqhkiG9w0BAQUFADBl
MQswCQYDVQQGEwJVUzEVMBMGA1UEChMMRGlnaUNlcnQgSW5jMRkwFwYDVQQLExB3
d3cuZGlnaWNlcnQuY29tMSQwIgYDVQQDExtEaWdpQ2VydCBBc3N1cmVkIElEIFJv
b3QgQ0EwHhcNMDYxMTEwMDAwMDAwWhcNMjExMTEwMDAwMDAwWjBiMQswCQYDVQQG
EwJVUzEVMBMGA1UEChMMRGlnaUNlcnQgSW5jMRkwFwYDVQQLExB3d3cuZGlnaWNl
cnQuY29tMSEwHwYDVQQDExhEaWdpQ2VydCBBc3N1cmVkIElEIENBLTEwggEiMA0G
CSqGSIb3DQEBAQUAA4IBDwAwggEKAoIBAQDogi2Z+crCQpWlgHNAcNKeVlRcqcTS
QQaPyTP8TUWRXIGf7Syc+BZZ3561JBXCmLm0d0ncicQK2q/LXmvtrbBxMevPOkAM
Rk2T7It6NggDqww0/hhJgv7HxzFIgHweog+SDlDJxofrNj/YMMP/pvf7os1vcyP+
rFYFkPAyIRaJxnCI+QWXfaPHQ90C6Ds97bFBo+0/vtuVSMTuHrPyvAwrmdDGXRJC
geGDboJzPyZLFJCuWWYKxI2+0s4Grq2Eb0iEm09AufFM8q+Y+/bOQF1c9qjxL6/s
iSLyaxhlscFzrdfx2M8eCnRcQrhofrfVdwonVnwPYqQ/MhRglf0HBKIJAgMBAAGj
ggN6MIIDdjAOBgNVHQ8BAf8EBAMCAYYwOwYDVR0lBDQwMgYIKwYBBQUHAwEGCCsG
AQUFBwMCBggrBgEFBQcDAwYIKwYBBQUHAwQGCCsGAQUFBwMIMIIB0gYDVR0gBIIB
yTCCAcUwggG0BgpghkgBhv1sAAEEMIIBpDA6BggrBgEFBQcCARYuaHR0cDovL3d3
dy5kaWdpY2VydC5jb20vc3NsLWNwcy1yZXBvc2l0b3J5Lmh0bTCCAWQGCCsGAQUF
BwICMIIBVh6CAVIAQQBuAHkAIAB1AHMAZQAgAG8AZgAgAHQAaABpAHMAIABDAGUA
cgB0AGkAZgBpAGMAYQB0AGUAIABjAG8AbgBzAHQAaQB0AHUAdABlAHMAIABhAGMA
YwBlAHAAdABhAG4AYwBlACAAbwBmACAAdABoAGUAIABEAGkAZwBpAEMAZQByAHQA
IABDAFAALwBDAFAAUwAgAGEAbgBkACAAdABoAGUAIABSAGUAbAB5AGkAbgBnACAA
UABhAHIAdAB5ACAAQQBnAHIAZQBlAG0AZQBuAHQAIAB3AGgAaQBjAGgAIABsAGkA
bQBpAHQAIABsAGkAYQBiAGkAbABpAHQAeQAgAGEAbgBkACAAYQByAGUAIABpAG4A
YwBvAHIAcABvAHIAYQB0AGUAZAAgAGgAZQByAGUAaQBuACAAYgB5ACAAcgBlAGYA
ZQByAGUAbgBjAGUALjALBglghkgBhv1sAxUwEgYDVR0TAQH/BAgwBgEB/wIBADB5
BggrBgEFBQcBAQRtMGswJAYIKwYBBQUHMAGGGGh0dHA6Ly9vY3NwLmRpZ2ljZXJ0
LmNvbTBDBggrBgEFBQcwAoY3aHR0cDovL2NhY2VydHMuZGlnaWNlcnQuY29tL0Rp
Z2lDZXJ0QXNzdXJlZElEUm9vdENBLmNydDCBgQYDVR0fBHoweDA6oDigNoY0aHR0
cDovL2NybDMuZGlnaWNlcnQuY29tL0RpZ2lDZXJ0QXNzdXJlZElEUm9vdENBLmNy
bDA6oDigNoY0aHR0cDovL2NybDQuZGlnaWNlcnQuY29tL0RpZ2lDZXJ0QXNzdXJl
ZElEUm9vdENBLmNybDAdBgNVHQ4EFgQUFQASKxOYspkH7R7for5XDStnAs0wHwYD
VR0jBBgwFoAUReuir/SSy4IxLVGLp6chnfNtyA8wDQYJKoZIhvcNAQEFBQADggEB
AEZQPsm3KCSnOB22WymvUs9S6TFHq1Zce9UNC0Gz7+x1H3Q48rJcYaKclcNQ5IK5
I9G6OoZyrTh4rHVdFxc0ckeFlFbR67s2hHfMJKXzBBlVqefj56tizfuLLZDCwNK1
lL1eT7EF0g49GqkUW6aGMWKoqDPkmzmnxPXOHXh2lCVz5Cqrz5x2S+1fwksW5Etw
TACJHvzFebxMElf+X+EevAJdqP77BzhPDcZdkbkPZ0XN1oPt55INjbFpjE/7WeAj
D9KqrgB87pxCDs+R1ye3Fu4Pw718CqDuLAhVhSK46xgaTfwqIa1JMYNHlXdx3LEb
S0scEJx3FMGdTy9alQgpECY=
-----END CERTIFICATE-----

