Certificate:
    Data:
        Version: 3 (0x2)
        Serial Number:
            04:00:00:00:00:01:2f:4e:e1:52:d7
    Signature Algorithm: sha1WithRSAEncryption
        Issuer: C=BE, O=GlobalSign nv-sa, OU=Root CA, CN=GlobalSign Root CA
        Validity
            Not Before: Apr 13 10:00:00 2011 GMT
            Not After : Jan 28 12:00:00 2028 GMT
        Subject: C=BE, O=GlobalSign nv-sa, CN=GlobalSign Timestamping CA - G2
        Subject Public Key Info:
            Public Key Algorithm: rsaEncryption
                Public-Key: (2048 bit)
                Modulus:
                    00:94:ef:65:f8:b5:57:9f:a0:53:0d:34:06:eb:09:
                    1f:b7:47:18:6a:cb:f0:5b:e4:ff:27:a5:34:d1:f7:
                    89:1a:bf:9e:b1:cd:12:41:6e:66:d4:81:a0:85:8b:
                    64:5a:46:2f:99:a0:8d:77:b1:e2:bc:5c:dd:22:d7:
                    6a:67:d0:bb:e8:ca:74:de:8b:4f:0d:b0:52:e5:90:
                    5b:eb:47:0e:f1:e7:9f:9c:0b:90:65:3e:17:96:30:
                    45:72:6d:39:a1:17:36:ca:b9:a0:8c:1b:4f:08:19:
                    f6:81:31:ad:61:16:a4:62:e6:b4:40:9e:c3:fc:fb:
                    95:f6:fb:b5:2e:95:81:98:e0:ef:c5:eb:d8:02:59:
                    78:77:f7:aa:e3:52:6b:50:91:29:c5:fc:f7:cd:93:
                    65:d2:60:61:22:f2:06:fb:32:dd:16:51:fa:0e:fd:
                    8a:30:f0:17:09:a7:bb:f3:04:ae:ab:90:e7:6c:df:
                    7a:a9:f4:ef:c4:62:27:5f:6f:99:6d:38:74:aa:11:
                    8b:da:df:c7:14:4c:e9:85:b2:ec:c2:7d:4a:26:8f:
                    e7:56:ba:a6:e0:cf:92:53:80:74:f4:03:ec:68:b2:
                    60:bc:84:20:00:83:1b:a1:ee:b4:74:05:c1:29:8e:
                    62:d0:47:b1:fa:f0:53:cc:18:f9:2e:3b:f9:70:7e:
                    b4:25
                Exponent: 65537 (0x10001)
        X509v3 extensions:
            X509v3 Key Usage: critical
                Certificate Sign, CRL Sign
            X509v3 Basic Constraints: critical
                CA:TRUE, pathlen:0
            X509v3 Subject Key Identifier: 
                46:D8:3E:FF:DC:E3:BE:FF:83:E6:F4:85:9B:B0:DD:6A:D6:14:A9:C1
            X509v3 Certificate Policies: 
                Policy: X509v3 Any Policy
                  CPS: https://www.globalsign.com/repository/

            X509v3 CRL Distribution Points: 

                Full Name:
                  URI:http://crl.globalsign.net/root.crl

            X509v3 Authority Key Identifier: 
                keyid:60:7B:66:1A:45:0D:97:CA:89:50:2F:7D:04:CD:34:A8:FF:FC:FD:4B

    Signature Algorithm: sha1WithRSAEncryption
         4e:5e:56:90:1e:46:b4:d9:49:31:f3:bb:17:39:28:1b:c2:16:
         dd:fd:41:dc:09:05:04:9b:6f:b2:a2:9a:d6:99:2e:40:99:00:
         55:b5:ea:3f:a5:20:76:d3:86:34:d4:17:cc:55:3a:c7:82:ee:
         ef:a8:ba:bc:d8:06:9f:15:50:df:cd:16:7b:52:3a:02:d7:19:
         1a:fd:af:f0:78:5c:e0:4b:c5:18:df:3a:24:1e:da:ac:b8:a9:
         58:04:02:07:30:db:b0:12:5e:fe:31:be:f0:04:48:f4:f0:70:
         f8:3a:5e:56:83:cf:3d:fb:0d:bc:f4:c5:ed:97:9d:b9:d4:db:
         a5:27:84:e3:38:9b:8b:a7:35:86:44:20:a4:3b:6d:a4:6a:0b:
         a1:83:fd:28:eb:da:ef:28:f6:cc:88:5d:fb:0a:3b:00:ab:e0:
         21:eb:e2:2f:35:6c:0f:8e:34:45:97:eb:a2:f7:99:33:35:7e:
         cb:9a:8a:bb:45:4d:e7:3f:9f:c2:d9:8a:fa:65:b2:6e:c7:7e:
         65:ff:e8:92:e1:2c:31:a2:f7:b0:27:36:48:8f:26:6f:3b:ee:
         4d:76:1f:79:c3:e5:7f:96:35:bc:2d:0e:cc:01:b0:8e:7f:ff:
         51:80:80:a7:92:d4:b3:44:46:64:8c:87:4f:16:63:07:31:4b:
         63:b0:df:f3
-----BEGIN CERTIFICATE-----
MIIEFDCCAvygAwIBAgILBAAAAAABL07hUtcwDQYJKoZIhvcNAQEFBQAwVzELMAkG
A1UEBhMCQkUxGTAXBgNVBAoTEEdsb2JhbFNpZ24gbnYtc2ExEDAOBgNVBAsTB1Jv
b3QgQ0ExGzAZBgNVBAMTEkdsb2JhbFNpZ24gUm9vdCBDQTAeFw0xMTA0MTMxMDAw
MDBaFw0yODAxMjgxMjAwMDBaMFIxCzAJBgNVBAYTAkJFMRkwFwYDVQQKExBHbG9i
YWxTaWduIG52LXNhMSgwJgYDVQQDEx9HbG9iYWxTaWduIFRpbWVzdGFtcGluZyBD
QSAtIEcyMIIBIjANBgkqhkiG9w0BAQEFAAOCAQ8AMIIBCgKCAQEAlO9l+LVXn6BT
DTQG6wkft0cYasvwW+T/J6U00feJGr+esc0SQW5m1IGghYtkWkYvmaCNd7HivFzd
ItdqZ9C76Mp03otPDbBS5ZBb60cO8eefnAuQZT4XljBFcm05oRc2yrmgjBtPCBn2
gTGtYRakYua0QJ7D/PuV9vu1LpWBmODvxevYAll4d/eq41JrUJEpxfz3zZNl0mBh
IvIG+zLdFlH6Dv2KMPAXCae78wSuq5DnbN96qfTvxGInX2+ZbTh0qhGL2t/HFEzp
hbLswn1KJo/nVrqm4M+SU4B09APsaLJgvIQgAIMboe60dAXBKY5i0Eex+vBTzBj5
Ljv5cH60JQIDAQABo4HlMIHiMA4GA1UdDwEB/wQEAwIBBjASBgNVHRMBAf8ECDAG
AQH/AgEAMB0GA1UdDgQWBBRG2D7/3OO+/4Pm9IWbsN1q1hSpwTBHBgNVHSAEQDA+
MDwGBFUdIAAwNDAyBggrBgEFBQcCARYmaHR0cHM6Ly93d3cuZ2xvYmFsc2lnbi5j
b20vcmVwb3NpdG9yeS8wMwYDVR0fBCwwKjAooCagJIYiaHR0cDovL2NybC5nbG9i
YWxzaWduLm5ldC9yb290LmNybDAfBgNVHSMEGDAWgBRge2YaRQ2XyolQL30EzTSo
//z9SzANBgkqhkiG9w0BAQUFAAOCAQEATl5WkB5GtNlJMfO7FzkoG8IW3f1B3AkF
BJtvsqKa1pkuQJkAVbXqP6UgdtOGNNQXzFU6x4Lu76i6vNgGnxVQ380We1I6AtcZ
Gv2v8Hhc4EvFGN86JB7arLipWAQCBzDbsBJe/jG+8ARI9PBw+DpeVoPPPfsNvPTF
7ZedudTbpSeE4zibi6c1hkQgpDttpGoLoYP9KOva7yj2zIhd+wo7AKvgIeviLzVs
D440RZfroveZMzV+y5qKu0VN5z+fwtmK+mWybsd+Zf/okuEsMaL3sCc2SI8mbzvu
TXYfecPlf5Y1vC0OzAGwjn//UYCAp5LUs0RGZIyHTxZjBzFLY7Df8w==
-----END CERTIFICATE-----

Certificate:
    Data:
        Version: 3 (0x2)
        Serial Number:
            11:21:40:5c:1f:0e:d2:58:88:2b:e5:4d:86:86:ba:11:ea:45
    Signature Algorithm: sha1WithRSAEncryption
        Issuer: C=BE, O=GlobalSign nv-sa, CN=GlobalSign Timestamping CA - G2
        Validity
            Not Before: Aug 23 00:00:00 2013 GMT
            Not After : Sep 23 00:00:00 2024 GMT
        Subject: C=SG, O=GMO GlobalSign Pte Ltd, CN=GlobalSign TSA for MS Authenticode - G1
        Subject Public Key Info:
            Public Key Algorithm: rsaEncryption
                Public-Key: (2048 bit)
                Modulus:
                    00:b0:17:ae:a2:d3:b6:04:30:56:1e:58:0f:b1:ed:
                    55:a4:d6:54:cb:d8:f6:73:3a:ec:5d:5e:ab:25:fd:
                    36:a5:fa:84:c3:61:40:c5:46:b5:59:52:3b:42:a2:
                    2e:5f:13:62:10:a9:5b:e6:73:d6:92:25:b1:7d:23:
                    e3:06:b3:87:3a:0e:43:f0:d7:00:89:53:a2:11:31:
                    52:28:6e:5d:40:72:3c:f2:09:77:a7:49:92:97:d4:
                    6c:90:a0:76:a7:fd:b8:dc:b3:9d:f2:07:60:2c:4f:
                    58:98:00:6b:d3:15:54:e0:fa:dd:ff:80:2c:5f:18:
                    a6:98:ff:d4:ab:ec:a1:45:59:b2:2e:6f:62:5d:e0:
                    d9:19:ac:8b:57:9c:a8:26:2b:d9:17:a5:10:d2:47:
                    08:1a:70:2c:33:8b:7f:68:80:2a:b5:a1:5d:6b:dd:
                    8d:02:02:29:03:aa:7c:37:bb:bb:29:4e:3d:53:93:
                    b3:a6:fa:8f:d2:58:93:15:4c:b9:2d:ab:80:a3:a3:
                    25:fb:af:f7:08:64:b0:7a:44:0f:5c:10:d7:5f:61:
                    37:aa:4e:6b:d3:d2:53:25:9d:82:73:fa:2c:f9:72:
                    b0:a9:19:39:2a:50:fa:a9:d0:3c:3a:ca:e8:5b:ef:
                    f5:5f:51:f4:f9:0a:d9:97:35:de:6a:85:e6:23:04:
                    42:af
                Exponent: 65537 (0x10001)
        X509v3 extensions:
            X509v3 Key Usage: critical
                Digital Signature
            X509v3 Certificate Policies: 
                Policy: 1.3.6.1.4.1.4146.1.30
                  CPS: https://www.globalsign.com/repository/

            X509v3 Basic Constraints: 
                CA:FALSE
            X509v3 Extended Key Usage: critical
                Time Stamping
            X509v3 CRL Distribution Points: 

                Full Name:
                  URI:http://crl.globalsign.com/gs/gstimestampingg2.crl

            Authority Information Access: 
                CA Issuers - URI:http://secure.globalsign.com/cacert/gstimestampingg2.crt

            X509v3 Subject Key Identifier: 
                D4:A2:84:4A:38:5A:18:7F:BA:4F:30:50:BD:9D:D5:7A:87:D6:09:F7
            X509v3 Authority Key Identifier: 
                keyid:46:D8:3E:FF:DC:E3:BE:FF:83:E6:F4:85:9B:B0:DD:6A:D6:14:A9:C1

    Signature Algorithm: sha1WithRSAEncryption
         02:31:14:2e:58:57:64:41:85:e8:af:12:75:3c:88:1c:c3:5e:
         ec:2c:e9:a1:3c:f5:ba:aa:53:1d:b9:d1:29:63:dc:43:67:86:
         d4:39:da:de:c6:c9:ff:be:45:85:f4:a4:d7:c1:51:ea:18:ee:
         40:58:5e:e6:7b:cc:a2:41:29:13:38:c8:ea:21:16:9c:ce:90:
         a6:2e:fb:a6:ca:d9:94:df:40:1d:f9:02:18:2b:be:f6:5d:4f:
         9f:ff:9a:48:db:c5:05:09:ca:80:ce:a0:f9:dc:4b:c3:23:e6:
         03:8f:b4:b4:af:5b:71:29:61:91:18:1a:6b:7a:f2:fd:0d:d1:
         cd:7d:5e:98:eb:ba:70:5e:e5:f4:ea:43:de:35:3d:c5:14:81:
         8a:db:3e:10:5e:bb:72:fa:a1:a0:93:ab:03:1c:c1:65:3c:91:
         13:8b:04:5d:2b:c4:b9:16:1b:cc:55:c5:0c:e8:ab:e7:43:c9:
         b2:83:28:a5:53:13:47:ab:39:64:b9:1c:ea:34:30:b1:76:00:
         95:21:f1:d4:3d:a8:fd:a0:00:32:d7:6e:98:3c:a6:9c:3b:0b:
         83:be:cb:b8:bb:2a:26:8c:59:b8:b9:ae:af:26:ac:e2:34:a2:
         dc:21:0d:81:0b:38:13:f7:45:a3:e3:db:c4:ac:a1:6d:1b:b7:
         e5:61:5c:d7
-----BEGIN CERTIFICATE-----
MIIEnzCCA4egAwIBAgISESFAXB8O0liIK+VNhoa6EepFMA0GCSqGSIb3DQEBBQUA
MFIxCzAJBgNVBAYTAkJFMRkwFwYDVQQKExBHbG9iYWxTaWduIG52LXNhMSgwJgYD
VQQDEx9HbG9iYWxTaWduIFRpbWVzdGFtcGluZyBDQSAtIEcyMB4XDTEzMDgyMzAw
MDAwMFoXDTI0MDkyMzAwMDAwMFowYDELMAkGA1UEBhMCU0cxHzAdBgNVBAoTFkdN
TyBHbG9iYWxTaWduIFB0ZSBMdGQxMDAuBgNVBAMTJ0dsb2JhbFNpZ24gVFNBIGZv
ciBNUyBBdXRoZW50aWNvZGUgLSBHMTCCASIwDQYJKoZIhvcNAQEBBQADggEPADCC
AQoCggEBALAXrqLTtgQwVh5YD7HtVaTWVMvY9nM67F1eqyX9NqX6hMNhQMVGtVlS
O0KiLl8TYhCpW+Zz1pIlsX0j4wazhzoOQ/DXAIlTohExUihuXUByPPIJd6dJkpfU
bJCgdqf9uNyznfIHYCxPWJgAa9MVVOD63f+ALF8Yppj/1KvsoUVZsi5vYl3g2Rms
i1ecqCYr2RelENJHCBpwLDOLf2iAKrWhXWvdjQICKQOqfDe7uylOPVOTs6b6j9JY
kxVMuS2rgKOjJfuv9whksHpED1wQ119hN6pOa9PSUyWdgnP6LPlysKkZOSpQ+qnQ
PDrK6Fvv9V9R9PkK2Zc13mqF5iMEQq8CAwEAAaOCAV8wggFbMA4GA1UdDwEB/wQE
AwIHgDBMBgNVHSAERTBDMEEGCSsGAQQBoDIBHjA0MDIGCCsGAQUFBwIBFiZodHRw
czovL3d3dy5nbG9iYWxzaWduLmNvbS9yZXBvc2l0b3J5LzAJBgNVHRMEAjAAMBYG
A1UdJQEB/wQMMAoGCCsGAQUFBwMIMEIGA1UdHwQ7MDkwN6A1oDOGMWh0dHA6Ly9j
cmwuZ2xvYmFsc2lnbi5jb20vZ3MvZ3N0aW1lc3RhbXBpbmdnMi5jcmwwVAYIKwYB
BQUHAQEESDBGMEQGCCsGAQUFBzAChjhodHRwOi8vc2VjdXJlLmdsb2JhbHNpZ24u
Y29tL2NhY2VydC9nc3RpbWVzdGFtcGluZ2cyLmNydDAdBgNVHQ4EFgQU1KKESjha
GH+6TzBQvZ3VeofWCfcwHwYDVR0jBBgwFoAURtg+/9zjvv+D5vSFm7DdatYUqcEw
DQYJKoZIhvcNAQEFBQADggEBAAIxFC5YV2RBheivEnU8iBzDXuws6aE89bqqUx25
0Slj3ENnhtQ52t7Gyf++RYX0pNfBUeoY7kBYXuZ7zKJBKRM4yOohFpzOkKYu+6bK
2ZTfQB35AhgrvvZdT5//mkjbxQUJyoDOoPncS8Mj5gOPtLSvW3EpYZEYGmt68v0N
0c19XpjrunBe5fTqQ941PcUUgYrbPhBeu3L6oaCTqwMcwWU8kROLBF0rxLkWG8xV
xQzoq+dDybKDKKVTE0erOWS5HOo0MLF2AJUh8dQ9qP2gADLXbpg8ppw7C4O+y7i7
KiaMWbi5rq8mrOI0otwhDYELOBP3RaPj28SsoW0bt+VhXNc=
-----END CERTIFICATE-----

Certificate:
    Data:
        Version: 3 (0x2)
        Serial Number: 38 (0x26)
    Signature Algorithm: sha1WithRSAEncryption
        Issuer: C=IL, O=StartCom Ltd., OU=Secure Digital Certificate Signing, CN=StartCom Certification Authority
        Validity
            Not Before: Oct 24 22:03:55 2007 GMT
            Not After : Oct 24 22:03:55 2017 GMT
        Subject: C=IL, O=StartCom Ltd., OU=Secure Digital Certificate Signing, CN=StartCom Class 3 Primary Intermediate Object CA
        Subject Public Key Info:
            Public Key Algorithm: rsaEncryption
                Public-Key: (2048 bit)
                Modulus:
                    00:d8:3a:d5:4f:9d:5c:f3:c2:0d:22:0a:95:08:ac:
                    39:13:9f:53:18:62:f9:a6:2b:69:8e:9f:19:37:a2:
                    b7:bc:c0:6f:9a:8e:a3:09:72:3b:7b:0a:98:13:5b:
                    19:50:d7:e2:9c:78:c0:c2:17:e2:ec:7a:e9:04:f9:
                    62:ff:11:b6:d5:5b:71:6c:46:19:e0:02:38:c2:dc:
                    ba:72:76:d1:10:18:98:8a:68:e2:98:6e:48:ca:4a:
                    a6:dc:2b:1c:03:06:db:e8:7c:4d:12:3f:62:60:8b:
                    92:70:f6:f1:13:a2:c4:65:1c:bf:69:65:d5:c0:10:
                    d0:9c:09:d4:fe:4c:92:2a:ad:3e:ac:d0:d6:91:a4:
                    38:ec:6b:98:6b:e7:80:8e:ea:6a:bd:d3:c3:26:d0:
                    80:ee:6a:37:b7:6f:34:37:b9:41:da:06:e8:d1:d1:
                    37:ec:72:21:a7:36:b2:a5:e1:db:cb:09:ea:4a:26:
                    24:39:29:04:3a:8a:ed:fe:4a:74:5b:36:b7:cd:4d:
                    72:6b:95:9d:90:1d:d3:0d:ad:0c:2c:e3:fc:67:e7:
                    b1:01:ac:4c:32:fb:5b:3a:32:83:d0:67:55:0b:a5:
                    fc:c9:98:30:03:77:fc:a3:3c:aa:c0:0d:e0:f3:50:
                    59:bf:79:61:84:7d:70:0d:94:35:43:aa:6c:ad:3a:
                    56:bf
                Exponent: 65537 (0x10001)
        X509v3 extensions:
            X509v3 Basic Constraints: critical
                CA:TRUE
            X509v3 Key Usage: critical
                Certificate Sign, CRL Sign
            X509v3 Subject Key Identifier: 
                97:CA:73:53:A5:2E:B3:89:1A:A6:42:7D:A9:0F:93:FB:87:8C:01:18
            X509v3 Authority Key Identifier: 
                keyid:4E:0B:EF:1A:A4:40:5B:A5:17:69:87:30:CA:34:68:43:D0:41:AE:F2

            Authority Information Access: 
                CA Issuers - URI:http://www.startssl.com/sfsca.crt

            X509v3 CRL Distribution Points: 

                Full Name:
                  URI:http://www.startssl.com/sfsca.crl

                Full Name:
                  URI:http://crl.startssl.com/sfsca.crl

            X509v3 Certificate Policies: 
                Policy: 1.3.6.1.4.1.23223.1.2.1
                  CPS: http://www.startssl.com/policy.pdf
                  CPS: http://www.startssl.com/intermediate.pdf

            Netscape Cert Type: 
                Object Signing CA
            Netscape Comment: 
                StartCom Class 3 Primary Intermediate Object Signing Certificates
    Signature Algorithm: sha1WithRSAEncryption
         b8:eb:a5:38:2c:ab:90:38:cf:be:90:69:19:95:2f:96:4e:48:
         10:35:45:b0:43:71:2e:b9:0e:67:0f:61:84:58:ed:65:1a:e0:
         d8:51:5c:96:c4:df:69:ca:fb:62:bf:35:ea:4a:69:23:f2:f6:
         7f:60:db:65:29:25:e8:ba:5e:f9:48:59:20:74:5c:99:98:fa:
         7e:d7:4e:af:43:96:3b:88:88:0e:81:f1:d0:a6:a9:af:1d:f5:
         e7:3e:04:5b:e8:92:7b:62:4a:53:1d:3b:7a:af:94:a2:05:02:
         da:0f:ad:a1:a7:32:16:6a:1d:5d:88:f1:dd:c5:da:7e:91:b0:
         0a:53:12:4d:db:ef:cd:ea:9f:48:df:bf:b2:7c:01:92:f9:81:
         63:79:a0:6f:0e:97:d9:90:44:a5:50:b8:87:4b:5c:d8:9c:a2:
         7a:ad:4b:91:f3:11:74:e6:a8:23:42:d4:26:5c:a8:3d:85:a0:
         35:ec:53:08:dd:b6:2d:1c:21:c8:48:4a:c4:c8:3a:b0:6e:2f:
         43:e6:df:64:09:75:86:fe:0e:68:d2:63:54:a0:66:e4:9e:ef:
         db:5c:74:a0:a8:dc:40:e9:7b:67:d6:3b:3e:d2:86:d3:16:21:
         d1:e1:32:52:a3:e6:c2:e1:63:7e:74:43:1a:be:ec:29:ae:56:
         e1:18:11:fa:65:0b:37:34:0e:b4:47:99:f8:6f:b4:99:4e:d2:
         35:b0:47:64:b5:fe:e9:af:b6:9a:23:c2:82:c8:38:b6:d4:a4:
         2e:34:21:ce:03:ef:4c:38:41:50:2f:0d:ad:40:c8:28:27:e9:
         eb:7c:2b:d1:70:4e:2c:88:18:c8:7c:3f:24:50:5d:cb:53:54:
         67:9f:d7:a1:09:98:0b:0b:8b:21:69:ba:72:a6:12:7b:b0:5a:
         0e:69:7c:c7:06:ba:2c:7a:95:0f:07:94:63:23:56:57:a5:38:
         2a:63:c4:20:6a:9e:84:43:8f:da:d8:d0:3f:d0:7d:95:92:13:
         29:16:c0:d8:68:ca:e5:fe:75:98:b6:f4:10:e1:7c:30:9e:b9:
         90:29:20:35:e3:1c:56:b3:0a:fd:86:71:7c:fb:bc:0b:2e:8c:
         94:e3:54:69:c4:78:4d:1e:0a:f8:0f:33:b9:e2:56:d7:89:84:
         1c:9c:df:6f:c5:0b:8f:99:83:51:06:6b:44:1d:6f:30:bc:be:
         f9:3a:19:0b:cc:fa:e6:bc:22:3f:3d:54:75:b8:0a:64:7f:7f:
         65:bb:a2:90:49:c3:f2:27:f7:bb:b9:7e:b7:68:87:82:cd:43:
         ec:6c:ac:ab:29:c7:d0:40:e2:bb:3a:02:18:31:50:77:ae:33:
         b1:a9:a8:c6:2d:45:70:ff
-----BEGIN CERTIFICATE-----
MIIGcDCCBFigAwIBAgIBJjANBgkqhkiG9w0BAQUFADB9MQswCQYDVQQGEwJJTDEW
MBQGA1UEChMNU3RhcnRDb20gTHRkLjErMCkGA1UECxMiU2VjdXJlIERpZ2l0YWwg
Q2VydGlmaWNhdGUgU2lnbmluZzEpMCcGA1UEAxMgU3RhcnRDb20gQ2VydGlmaWNh
dGlvbiBBdXRob3JpdHkwHhcNMDcxMDI0MjIwMzU1WhcNMTcxMDI0MjIwMzU1WjCB
jDELMAkGA1UEBhMCSUwxFjAUBgNVBAoTDVN0YXJ0Q29tIEx0ZC4xKzApBgNVBAsT
IlNlY3VyZSBEaWdpdGFsIENlcnRpZmljYXRlIFNpZ25pbmcxODA2BgNVBAMTL1N0
YXJ0Q29tIENsYXNzIDMgUHJpbWFyeSBJbnRlcm1lZGlhdGUgT2JqZWN0IENBMIIB
IjANBgkqhkiG9w0BAQEFAAOCAQ8AMIIBCgKCAQEA2DrVT51c88INIgqVCKw5E59T
GGL5pitpjp8ZN6K3vMBvmo6jCXI7ewqYE1sZUNfinHjAwhfi7HrpBPli/xG21Vtx
bEYZ4AI4wty6cnbREBiYimjimG5Iykqm3CscAwbb6HxNEj9iYIuScPbxE6LEZRy/
aWXVwBDQnAnU/kySKq0+rNDWkaQ47GuYa+eAjupqvdPDJtCA7mo3t280N7lB2gbo
0dE37HIhpzaypeHbywnqSiYkOSkEOort/kp0Wza3zU1ya5WdkB3TDa0MLOP8Z+ex
AaxMMvtbOjKD0GdVC6X8yZgwA3f8ozyqwA3g81BZv3lhhH1wDZQ1Q6psrTpWvwID
AQABo4IB6TCCAeUwDwYDVR0TAQH/BAUwAwEB/zAOBgNVHQ8BAf8EBAMCAQYwHQYD
VR0OBBYEFJfKc1OlLrOJGqZCfakPk/uHjAEYMB8GA1UdIwQYMBaAFE4L7xqkQFul
F2mHMMo0aEPQQa7yMD0GCCsGAQUFBwEBBDEwLzAtBggrBgEFBQcwAoYhaHR0cDov
L3d3dy5zdGFydHNzbC5jb20vc2ZzY2EuY3J0MFsGA1UdHwRUMFIwJ6AloCOGIWh0
dHA6Ly93d3cuc3RhcnRzc2wuY29tL3Nmc2NhLmNybDAnoCWgI4YhaHR0cDovL2Ny
bC5zdGFydHNzbC5jb20vc2ZzY2EuY3JsMIGABgNVHSAEeTB3MHUGCysGAQQBgbU3
AQIBMGYwLgYIKwYBBQUHAgEWImh0dHA6Ly93d3cuc3RhcnRzc2wuY29tL3BvbGlj
eS5wZGYwNAYIKwYBBQUHAgEWKGh0dHA6Ly93d3cuc3RhcnRzc2wuY29tL2ludGVy
bWVkaWF0ZS5wZGYwEQYJYIZIAYb4QgEBBAQDAgABMFAGCWCGSAGG+EIBDQRDFkFT
dGFydENvbSBDbGFzcyAzIFByaW1hcnkgSW50ZXJtZWRpYXRlIE9iamVjdCBTaWdu
aW5nIENlcnRpZmljYXRlczANBgkqhkiG9w0BAQUFAAOCAgEAuOulOCyrkDjPvpBp
GZUvlk5IEDVFsENxLrkOZw9hhFjtZRrg2FFclsTfacr7Yr816kppI/L2f2DbZSkl
6Lpe+UhZIHRcmZj6ftdOr0OWO4iIDoHx0Kaprx315z4EW+iSe2JKUx07eq+UogUC
2g+toacyFmodXYjx3cXafpGwClMSTdvvzeqfSN+/snwBkvmBY3mgbw6X2ZBEpVC4
h0tc2Jyieq1LkfMRdOaoI0LUJlyoPYWgNexTCN22LRwhyEhKxMg6sG4vQ+bfZAl1
hv4OaNJjVKBm5J7v21x0oKjcQOl7Z9Y7PtKG0xYh0eEyUqPmwuFjfnRDGr7sKa5W
4RgR+mULNzQOtEeZ+G+0mU7SNbBHZLX+6a+2miPCgsg4ttSkLjQhzgPvTDhBUC8N
rUDIKCfp63wr0XBOLIgYyHw/JFBdy1NUZ5/XoQmYCwuLIWm6cqYSe7BaDml8xwa6
LHqVDweUYyNWV6U4KmPEIGqehEOP2tjQP9B9lZITKRbA2GjK5f51mLb0EOF8MJ65
kCkgNeMcVrMK/YZxfPu8Cy6MlONUacR4TR4K+A8zueJW14mEHJzfb8ULj5mDUQZr
RB1vMLy++ToZC8z65rwiPz1UdbgKZH9/ZbuikEnD8if3u7l+t2iHgs1D7GysqynH
0EDiuzoCGDFQd64zsamoxi1FcP8=
-----END CERTIFICATE-----

Certificate:
    Data:
        Version: 3 (0x2)
        Serial Number: 3124 (0xc34)
    Signature Algorithm: sha1WithRSAEncryption
        Issuer: C=IL, O=StartCom Ltd., OU=Secure Digital Certificate Signing, CN=StartCom Class 3 Primary Intermediate Object CA
        Validity
            Not Before: Dec 19 22:48:52 2013 GMT
            Not After : Dec 20 00:27:56 2016 GMT
        Subject: description=4dwBNk19cg9U3N0r, C=MD, ST=Chisinau, L=Chisinau, O=\xABCompania-Dekart\xBB S.R.L., CN=\xABCompania-Dekart\xBB S.R.L./emailAddress=info@dekart.com
        Subject Public Key Info:
            Public Key Algorithm: rsaEncryption
                Public-Key: (2048 bit)
                Modulus:
                    00:d2:9a:6f:21:97:65:f8:11:a7:2a:44:53:70:3a:
                    f0:37:3c:ab:7f:24:8f:10:72:01:6f:58:23:bd:b0:
                    10:a0:13:c2:27:f2:57:91:c1:29:a2:85:f2:b8:cc:
                    4f:a0:d9:47:b7:0e:05:81:59:25:2e:24:2d:dd:42:
                    af:e5:d4:7b:f8:f4:59:8c:c3:39:0f:90:39:73:18:
                    64:82:11:ee:83:b6:3e:0a:d5:5b:0e:1b:3c:88:0b:
                    db:1c:68:7a:59:6d:70:f0:d6:08:8d:67:e5:91:e7:
                    e7:ff:06:ea:1e:34:38:d6:cb:2d:31:72:f9:67:e8:
                    dc:0a:a4:a2:a7:98:b8:fb:7b:a5:ff:12:2f:6c:bb:
                    0c:03:fa:7f:9c:5e:80:4b:85:de:2b:f4:55:53:a3:
                    74:0f:91:f6:c8:9c:f8:8e:d5:56:9e:e0:b6:2f:9b:
                    9d:3f:48:dd:fa:b4:40:67:fd:e5:fa:7a:01:df:3d:
                    1d:e7:8b:31:2b:7d:21:28:72:d9:3f:b3:10:cd:82:
                    7a:40:e7:10:e9:f7:f7:8f:4a:61:33:be:05:02:65:
                    6e:c1:45:29:11:a0:3f:60:17:e2:8c:9d:75:91:00:
                    de:b0:29:de:e3:41:e0:6f:81:8b:0e:40:db:53:00:
                    e6:06:d4:17:d3:7d:d3:7f:29:f7:51:5f:fb:37:fc:
                    a8:a3
                Exponent: 65537 (0x10001)
        X509v3 extensions:
            X509v3 Basic Constraints: 
                CA:FALSE
            X509v3 Key Usage: critical
                Digital Signature
            X509v3 Extended Key Usage: critical
                Code Signing, 1.3.6.1.4.1.311.61.1.1
            X509v3 Subject Key Identifier: 
                6D:39:D8:BB:EF:B7:3B:04:EB:66:45:88:D1:C7:01:96:9B:A0:4E:C0
            X509v3 Authority Key Identifier: 
                keyid:97:CA:73:53:A5:2E:B3:89:1A:A6:42:7D:A9:0F:93:FB:87:8C:01:18

            X509v3 Certificate Policies: 
                Policy: 1.3.6.1.4.1.23223.1.2.3
                  CPS: http://www.startssl.com/policy.pdf
                  User Notice:
                    Organization: StartCom Certification Authority
                    Number: 1
                    Explicit Text: This certificate was issued according to the Class 3 Validation requirements of the StartCom CA policy, reliance only for the intended purpose in compliance of the relying party obligations.

            X509v3 CRL Distribution Points: 

                Full Name:
                  URI:http://crl.startssl.com/crtc3-crl.crl

            Authority Information Access: 
                OCSP - URI:http://ocsp.startssl.com/sub/class3/code/ca
                CA Issuers - URI:http://aia.startssl.com/certs/sub.class3.code.ca.crt

            X509v3 Issuer Alternative Name: 
                URI:http://www.startssl.com/
    Signature Algorithm: sha1WithRSAEncryption
         84:03:ed:71:ae:23:8e:f7:b2:69:2b:58:09:61:27:1a:18:eb:
         31:8f:8b:f7:b0:41:01:a3:d9:83:4e:e1:33:6c:f3:fb:7e:66:
         9b:fc:14:6e:d0:f9:88:3c:43:5c:0f:95:56:21:e1:ea:7c:94:
         bb:42:af:59:6e:be:4b:00:f9:22:b3:0b:f4:b3:d1:c1:44:d1:
         c2:3d:9a:46:1c:f1:ea:0c:5d:65:16:b9:60:e6:bc:a4:a2:25:
         4c:2f:8b:27:32:ab:4c:92:49:87:37:75:d3:f5:a4:94:2c:b0:
         a4:93:b6:7b:a6:c2:c8:5a:af:4b:7d:34:df:bf:e0:0c:eb:62:
         b5:0b:50:d4:d3:5a:a3:8f:1f:50:d2:df:72:26:5e:9d:af:3f:
         9a:c1:34:d4:9b:e0:70:b7:d1:8b:c5:53:44:7b:22:01:f4:6d:
         bd:ee:5a:40:20:f0:29:34:01:54:25:bc:68:e8:86:0e:99:46:
         df:47:eb:22:eb:cd:2c:51:21:16:b5:4e:ed:c7:82:2c:a8:d6:
         12:75:6c:95:6f:f5:06:0a:08:09:15:28:0e:19:6c:6c:da:27:
         fc:c0:1b:8c:65:d4:6f:dd:5b:6f:1c:4a:e8:3f:39:c7:07:1a:
         51:0d:0c:b0:6c:fb:d0:71:a7:c6:86:89:94:d8:31:2a:1b:ea:
         db:eb:59:41
-----BEGIN CERTIFICATE-----
MIIGfDCCBWSgAwIBAgICDDQwDQYJKoZIhvcNAQEFBQAwgYwxCzAJBgNVBAYTAklM
MRYwFAYDVQQKEw1TdGFydENvbSBMdGQuMSswKQYDVQQLEyJTZWN1cmUgRGlnaXRh
bCBDZXJ0aWZpY2F0ZSBTaWduaW5nMTgwNgYDVQQDEy9TdGFydENvbSBDbGFzcyAz
IFByaW1hcnkgSW50ZXJtZWRpYXRlIE9iamVjdCBDQTAeFw0xMzEyMTkyMjQ4NTJa
Fw0xNjEyMjAwMDI3NTZaMIG0MRkwFwYDVQQNExA0ZHdCTmsxOWNnOVUzTjByMQsw
CQYDVQQGEwJNRDERMA8GA1UECBMIQ2hpc2luYXUxETAPBgNVBAcTCENoaXNpbmF1
MSEwHwYDVQQKFBirQ29tcGFuaWEtRGVrYXJ0uyBTLlIuTC4xITAfBgNVBAMUGKtD
b21wYW5pYS1EZWthcnS7IFMuUi5MLjEeMBwGCSqGSIb3DQEJARYPaW5mb0BkZWth
cnQuY29tMIIBIjANBgkqhkiG9w0BAQEFAAOCAQ8AMIIBCgKCAQEA0ppvIZdl+BGn
KkRTcDrwNzyrfySPEHIBb1gjvbAQoBPCJ/JXkcEpooXyuMxPoNlHtw4FgVklLiQt
3UKv5dR7+PRZjMM5D5A5cxhkghHug7Y+CtVbDhs8iAvbHGh6WW1w8NYIjWflkefn
/wbqHjQ41sstMXL5Z+jcCqSip5i4+3ul/xIvbLsMA/p/nF6AS4XeK/RVU6N0D5H2
yJz4jtVWnuC2L5udP0jd+rRAZ/3l+noB3z0d54sxK30hKHLZP7MQzYJ6QOcQ6ff3
j0phM74FAmVuwUUpEaA/YBfijJ11kQDesCne40Hgb4GLDkDbUwDmBtQX033Tfyn3
UV/7N/yoowIDAQABo4ICvDCCArgwCQYDVR0TBAIwADAOBgNVHQ8BAf8EBAMCB4Aw
IgYDVR0lAQH/BBgwFgYIKwYBBQUHAwMGCisGAQQBgjc9AQEwHQYDVR0OBBYEFG05
2LvvtzsE62ZFiNHHAZaboE7AMB8GA1UdIwQYMBaAFJfKc1OlLrOJGqZCfakPk/uH
jAEYMIIBTAYDVR0gBIIBQzCCAT8wggE7BgsrBgEEAYG1NwECAzCCASowLgYIKwYB
BQUHAgEWImh0dHA6Ly93d3cuc3RhcnRzc2wuY29tL3BvbGljeS5wZGYwgfcGCCsG
AQUFBwICMIHqMCcWIFN0YXJ0Q29tIENlcnRpZmljYXRpb24gQXV0aG9yaXR5MAMC
AQEagb5UaGlzIGNlcnRpZmljYXRlIHdhcyBpc3N1ZWQgYWNjb3JkaW5nIHRvIHRo
ZSBDbGFzcyAzIFZhbGlkYXRpb24gcmVxdWlyZW1lbnRzIG9mIHRoZSBTdGFydENv
bSBDQSBwb2xpY3ksIHJlbGlhbmNlIG9ubHkgZm9yIHRoZSBpbnRlbmRlZCBwdXJw
b3NlIGluIGNvbXBsaWFuY2Ugb2YgdGhlIHJlbHlpbmcgcGFydHkgb2JsaWdhdGlv
bnMuMDYGA1UdHwQvMC0wK6ApoCeGJWh0dHA6Ly9jcmwuc3RhcnRzc2wuY29tL2Ny
dGMzLWNybC5jcmwwgYkGCCsGAQUFBwEBBH0wezA3BggrBgEFBQcwAYYraHR0cDov
L29jc3Auc3RhcnRzc2wuY29tL3N1Yi9jbGFzczMvY29kZS9jYTBABggrBgEFBQcw
AoY0aHR0cDovL2FpYS5zdGFydHNzbC5jb20vY2VydHMvc3ViLmNsYXNzMy5jb2Rl
LmNhLmNydDAjBgNVHRIEHDAahhhodHRwOi8vd3d3LnN0YXJ0c3NsLmNvbS8wDQYJ
KoZIhvcNAQEFBQADggEBAIQD7XGuI473smkrWAlhJxoY6zGPi/ewQQGj2YNO4TNs
8/t+Zpv8FG7Q+Yg8Q1wPlVYh4ep8lLtCr1luvksA+SKzC/Sz0cFE0cI9mkYc8eoM
XWUWuWDmvKSiJUwviycyq0ySSYc3ddP1pJQssKSTtnumwshar0t9NN+/4AzrYrUL
UNTTWqOPH1DS33ImXp2vP5rBNNSb4HC30YvFU0R7IgH0bb3uWkAg8Ck0AVQlvGjo
hg6ZRt9H6yLrzSxRIRa1Tu3Hgiyo1hJ1bJVv9QYKCAkVKA4ZbGzaJ/zAG4xl1G/d
W28cSug/OccHGlENDLBs+9Bxp8aGiZTYMSob6tvrWUE=
-----END CERTIFICATE-----

