Certificate:
    Data:
        Version: 3 (0x2)
        Serial Number:
            76:4e:6d:b8:8b:01:8b:fe:bd:8f:7b:53:3d:c3:a6:d3
    Signature Algorithm: sha1WithRSAEncryption
        Issuer: C=US, O=VeriSign, Inc., OU=VeriSign Trust Network, OU=Terms of use at https://www.verisign.com/rpa (c)10, CN=VeriSign Class 3 Code Signing 2010 CA
        Validity
            Not Before: Feb 20 00:00:00 2014 GMT
            Not After : Jan 15 23:59:59 2015 GMT
        Subject: C=IM, ST=IM, L=Douglas, O=Playtech PLC, OU=Digital ID Class 3 - Microsoft Software Validation v2, CN=Playtech PLC
        Subject Public Key Info:
            Public Key Algorithm: rsaEncryption
                Public-Key: (2048 bit)
                Modulus:
                    00:b9:72:a6:fe:28:e5:cb:42:37:b3:ad:5f:09:22:
                    22:21:ff:f0:c5:52:08:41:95:7a:49:57:84:4a:b2:
                    00:eb:17:5b:0f:96:97:5d:a6:c8:fb:3b:c3:e7:43:
                    97:3f:72:1f:e7:8d:c0:04:ae:96:6e:8e:bf:9c:e7:
                    3a:46:1f:fd:95:16:50:80:97:cd:6b:01:02:59:70:
                    89:4c:ca:43:22:75:cc:92:c6:b3:c6:d4:86:28:46:
                    30:63:42:fc:8f:93:9e:ea:40:ed:89:4f:51:d5:76:
                    a2:c7:82:14:60:e6:b4:0f:47:1c:0e:00:d6:56:84:
                    1e:42:57:92:92:ef:e0:72:26:24:1b:27:c9:3a:b3:
                    d4:60:bb:40:1c:bd:53:b5:89:ef:b7:72:72:82:40:
                    27:d1:a6:27:9a:ed:09:4a:f4:78:7d:b1:d7:14:d0:
                    4c:70:ad:25:67:bb:cd:1a:c5:f3:4c:5d:c1:1b:60:
                    09:fc:18:9c:bb:87:5b:60:3a:e0:db:ff:98:b8:ac:
                    8e:fb:d3:cf:4f:14:ce:fe:e6:7a:de:37:06:93:89:
                    78:87:0c:e6:2f:e2:b7:9c:a6:5d:c8:cd:71:1a:3f:
                    c8:2c:56:b5:a5:d3:07:f4:fe:a9:08:e3:71:9b:91:
                    16:a7:af:37:b4:9b:4e:c9:59:e2:21:2e:6e:44:dc:
                    59:2b
                Exponent: 65537 (0x10001)
        X509v3 extensions:
            X509v3 Basic Constraints: 
                CA:FALSE
            X509v3 Key Usage: critical
                Digital Signature
            X509v3 CRL Distribution Points: 

                Full Name:
                  URI:http://csc3-2010-crl.verisign.com/CSC3-2010.crl

            X509v3 Certificate Policies: 
                Policy: 2.16.840.1.113733.1.7.23.3
                  CPS: https://www.verisign.com/rpa

            X509v3 Extended Key Usage: 
                Code Signing
            Authority Information Access: 
                OCSP - URI:http://ocsp.verisign.com
                CA Issuers - URI:http://csc3-2010-aia.verisign.com/CSC3-2010.cer

            X509v3 Authority Key Identifier: 
                keyid:CF:99:A9:EA:7B:26:F4:4B:C9:8E:8F:D7:F0:05:26:EF:E3:D2:A7:9D

            Netscape Cert Type: 
                Object Signing
            1.3.6.1.4.1.311.2.1.27: 
                0.......
    Signature Algorithm: sha1WithRSAEncryption
         d6:a6:56:a7:33:cb:1c:56:c6:dd:89:c4:99:a0:6d:83:07:00:
         e3:7d:7c:03:ff:e5:b5:cc:8e:07:1c:d9:93:52:31:95:a4:34:
         4a:6c:45:10:9f:56:24:83:bc:6b:28:14:db:0e:9f:f3:93:19:
         56:1d:ba:32:61:15:99:5f:65:f2:bb:53:5b:c6:0a:49:86:4a:
         89:d7:58:47:a3:07:ab:fe:f7:bf:0f:09:79:fa:f2:4d:49:d0:
         97:4a:15:7f:bc:1d:1e:47:d6:7d:de:e9:6e:1b:0e:c6:f7:bb:
         4e:ed:6f:1f:98:65:ac:87:a8:41:9c:28:26:ef:91:71:c0:5c:
         d8:e3:5a:26:69:b8:c1:c3:00:7f:b1:4a:7e:f3:11:08:ae:3d:
         a3:6f:25:8f:15:43:d9:1b:3a:d8:c3:3f:ee:0d:79:d4:3a:18:
         5d:5a:69:69:62:4a:9e:2a:7a:4e:53:c1:dd:38:41:99:08:35:
         f8:f9:29:3c:d5:f7:dd:8f:97:57:a4:0d:3f:e7:ba:b9:f9:3f:
         56:d4:07:59:f3:ed:be:7b:f1:97:b5:8c:53:8f:26:b8:d4:83:
         fb:ec:f8:10:d9:61:0b:06:c9:be:a1:a4:a8:0c:91:56:e4:60:
         5a:f2:68:a5:fd:a2:15:fa:01:57:5c:14:55:73:cc:86:de:8b:
         58:14:b4:45
-----BEGIN CERTIFICATE-----
MIIFVzCCBD+gAwIBAgIQdk5tuIsBi/69j3tTPcOm0zANBgkqhkiG9w0BAQUFADCB
tDELMAkGA1UEBhMCVVMxFzAVBgNVBAoTDlZlcmlTaWduLCBJbmMuMR8wHQYDVQQL
ExZWZXJpU2lnbiBUcnVzdCBOZXR3b3JrMTswOQYDVQQLEzJUZXJtcyBvZiB1c2Ug
YXQgaHR0cHM6Ly93d3cudmVyaXNpZ24uY29tL3JwYSAoYykxMDEuMCwGA1UEAxMl
VmVyaVNpZ24gQ2xhc3MgMyBDb2RlIFNpZ25pbmcgMjAxMCBDQTAeFw0xNDAyMjAw
MDAwMDBaFw0xNTAxMTUyMzU5NTlaMIGaMQswCQYDVQQGEwJJTTELMAkGA1UECBMC
SU0xEDAOBgNVBAcTB0RvdWdsYXMxFTATBgNVBAoUDFBsYXl0ZWNoIFBMQzE+MDwG
A1UECxM1RGlnaXRhbCBJRCBDbGFzcyAzIC0gTWljcm9zb2Z0IFNvZnR3YXJlIFZh
bGlkYXRpb24gdjIxFTATBgNVBAMUDFBsYXl0ZWNoIFBMQzCCASIwDQYJKoZIhvcN
AQEBBQADggEPADCCAQoCggEBALlypv4o5ctCN7OtXwkiIiH/8MVSCEGVeklXhEqy
AOsXWw+Wl12myPs7w+dDlz9yH+eNwASulm6Ov5znOkYf/ZUWUICXzWsBAllwiUzK
QyJ1zJLGs8bUhihGMGNC/I+TnupA7YlPUdV2oseCFGDmtA9HHA4A1laEHkJXkpLv
4HImJBsnyTqz1GC7QBy9U7WJ77dycoJAJ9GmJ5rtCUr0eH2x1xTQTHCtJWe7zRrF
80xdwRtgCfwYnLuHW2A64Nv/mLisjvvTz08Uzv7met43BpOJeIcM5i/it5ymXcjN
cRo/yCxWtaXTB/T+qQjjcZuRFqevN7SbTslZ4iEubkTcWSsCAwEAAaOCAXswggF3
MAkGA1UdEwQCMAAwDgYDVR0PAQH/BAQDAgeAMEAGA1UdHwQ5MDcwNaAzoDGGL2h0
dHA6Ly9jc2MzLTIwMTAtY3JsLnZlcmlzaWduLmNvbS9DU0MzLTIwMTAuY3JsMEQG
A1UdIAQ9MDswOQYLYIZIAYb4RQEHFwMwKjAoBggrBgEFBQcCARYcaHR0cHM6Ly93
d3cudmVyaXNpZ24uY29tL3JwYTATBgNVHSUEDDAKBggrBgEFBQcDAzBxBggrBgEF
BQcBAQRlMGMwJAYIKwYBBQUHMAGGGGh0dHA6Ly9vY3NwLnZlcmlzaWduLmNvbTA7
BggrBgEFBQcwAoYvaHR0cDovL2NzYzMtMjAxMC1haWEudmVyaXNpZ24uY29tL0NT
QzMtMjAxMC5jZXIwHwYDVR0jBBgwFoAUz5mp6nsm9EvJjo/X8AUm7+PSp50wEQYJ
YIZIAYb4QgEBBAQDAgQQMBYGCisGAQQBgjcCARsECDAGAQEAAQH/MA0GCSqGSIb3
DQEBBQUAA4IBAQDWplanM8scVsbdicSZoG2DBwDjfXwD/+W1zI4HHNmTUjGVpDRK
bEUQn1Ykg7xrKBTbDp/zkxlWHboyYRWZX2Xyu1NbxgpJhkqJ11hHower/ve/Dwl5
+vJNSdCXShV/vB0eR9Z93uluGw7G97tO7W8fmGWsh6hBnCgm75FxwFzY41omabjB
wwB/sUp+8xEIrj2jbyWPFUPZGzrYwz/uDXnUOhhdWmlpYkqeKnpOU8HdOEGZCDX4
+Sk81ffdj5dXpA0/57q5+T9W1AdZ8+2+e/GXtYxTjya41IP77PgQ2WELBsm+oaSo
DJFW5GBa8mil/aIV+gFXXBRVc8yG3otYFLRF
-----END CERTIFICATE-----

Certificate:
    Data:
        Version: 3 (0x2)
        Serial Number:
            18:da:d1:9e:26:7d:e8:bb:4a:21:58:cd:cc:6b:3b:4a
    Signature Algorithm: sha1WithRSAEncryption
        Issuer: C=US, O=VeriSign, Inc., OU=VeriSign Trust Network, OU=(c) 2006 VeriSign, Inc. - For authorized use only, CN=VeriSign Class 3 Public Primary Certification Authority - G5
        Validity
            Not Before: Nov  8 00:00:00 2006 GMT
            Not After : Jul 16 23:59:59 2036 GMT
        Subject: C=US, O=VeriSign, Inc., OU=VeriSign Trust Network, OU=(c) 2006 VeriSign, Inc. - For authorized use only, CN=VeriSign Class 3 Public Primary Certification Authority - G5
        Subject Public Key Info:
            Public Key Algorithm: rsaEncryption
                Public-Key: (2048 bit)
                Modulus:
                    00:af:24:08:08:29:7a:35:9e:60:0c:aa:e7:4b:3b:
                    4e:dc:7c:bc:3c:45:1c:bb:2b:e0:fe:29:02:f9:57:
                    08:a3:64:85:15:27:f5:f1:ad:c8:31:89:5d:22:e8:
                    2a:aa:a6:42:b3:8f:f8:b9:55:b7:b1:b7:4b:b3:fe:
                    8f:7e:07:57:ec:ef:43:db:66:62:15:61:cf:60:0d:
                    a4:d8:de:f8:e0:c3:62:08:3d:54:13:eb:49:ca:59:
                    54:85:26:e5:2b:8f:1b:9f:eb:f5:a1:91:c2:33:49:
                    d8:43:63:6a:52:4b:d2:8f:e8:70:51:4d:d1:89:69:
                    7b:c7:70:f6:b3:dc:12:74:db:7b:5d:4b:56:d3:96:
                    bf:15:77:a1:b0:f4:a2:25:f2:af:1c:92:67:18:e5:
                    f4:06:04:ef:90:b9:e4:00:e4:dd:3a:b5:19:ff:02:
                    ba:f4:3c:ee:e0:8b:eb:37:8b:ec:f4:d7:ac:f2:f6:
                    f0:3d:af:dd:75:91:33:19:1d:1c:40:cb:74:24:19:
                    21:93:d9:14:fe:ac:2a:52:c7:8f:d5:04:49:e4:8d:
                    63:47:88:3c:69:83:cb:fe:47:bd:2b:7e:4f:c5:95:
                    ae:0e:9d:d4:d1:43:c0:67:73:e3:14:08:7e:e5:3f:
                    9f:73:b8:33:0a:cf:5d:3f:34:87:96:8a:ee:53:e8:
                    25:15
                Exponent: 65537 (0x10001)
        X509v3 extensions:
            X509v3 Basic Constraints: critical
                CA:TRUE
            X509v3 Key Usage: critical
                Certificate Sign, CRL Sign
            1.3.6.1.5.5.7.1.12: 
                0_.].[0Y0W0U..image/gif0!0.0...+..............k...j.H.,{..0%.#http://logo.verisign.com/vslogo.gif
            X509v3 Subject Key Identifier: 
                7F:D3:65:A7:C2:DD:EC:BB:F0:30:09:F3:43:39:FA:02:AF:33:31:33
    Signature Algorithm: sha1WithRSAEncryption
         93:24:4a:30:5f:62:cf:d8:1a:98:2f:3d:ea:dc:99:2d:bd:77:
         f6:a5:79:22:38:ec:c4:a7:a0:78:12:ad:62:0e:45:70:64:c5:
         e7:97:66:2d:98:09:7e:5f:af:d6:cc:28:65:f2:01:aa:08:1a:
         47:de:f9:f9:7c:92:5a:08:69:20:0d:d9:3e:6d:6e:3c:0d:6e:
         d8:e6:06:91:40:18:b9:f8:c1:ed:df:db:41:aa:e0:96:20:c9:
         cd:64:15:38:81:c9:94:ee:a2:84:29:0b:13:6f:8e:db:0c:dd:
         25:02:db:a4:8b:19:44:d2:41:7a:05:69:4a:58:4f:60:ca:7e:
         82:6a:0b:02:aa:25:17:39:b5:db:7f:e7:84:65:2a:95:8a:bd:
         86:de:5e:81:16:83:2d:10:cc:de:fd:a8:82:2a:6d:28:1f:0d:
         0b:c4:e5:e7:1a:26:19:e1:f4:11:6f:10:b5:95:fc:e7:42:05:
         32:db:ce:9d:51:5e:28:b6:9e:85:d3:5b:ef:a5:7d:45:40:72:
         8e:b7:0e:6b:0e:06:fb:33:35:48:71:b8:9d:27:8b:c4:65:5f:
         0d:86:76:9c:44:7a:f6:95:5c:f6:5d:32:08:33:a4:54:b6:18:
         3f:68:5c:f2:42:4a:85:38:54:83:5f:d1:e8:2c:f2:ac:11:d6:
         a8:ed:63:6a
-----BEGIN CERTIFICATE-----
MIIE0zCCA7ugAwIBAgIQGNrRniZ96LtKIVjNzGs7SjANBgkqhkiG9w0BAQUFADCB
yjELMAkGA1UEBhMCVVMxFzAVBgNVBAoTDlZlcmlTaWduLCBJbmMuMR8wHQYDVQQL
ExZWZXJpU2lnbiBUcnVzdCBOZXR3b3JrMTowOAYDVQQLEzEoYykgMjAwNiBWZXJp
U2lnbiwgSW5jLiAtIEZvciBhdXRob3JpemVkIHVzZSBvbmx5MUUwQwYDVQQDEzxW
ZXJpU2lnbiBDbGFzcyAzIFB1YmxpYyBQcmltYXJ5IENlcnRpZmljYXRpb24gQXV0
aG9yaXR5IC0gRzUwHhcNMDYxMTA4MDAwMDAwWhcNMzYwNzE2MjM1OTU5WjCByjEL
MAkGA1UEBhMCVVMxFzAVBgNVBAoTDlZlcmlTaWduLCBJbmMuMR8wHQYDVQQLExZW
ZXJpU2lnbiBUcnVzdCBOZXR3b3JrMTowOAYDVQQLEzEoYykgMjAwNiBWZXJpU2ln
biwgSW5jLiAtIEZvciBhdXRob3JpemVkIHVzZSBvbmx5MUUwQwYDVQQDEzxWZXJp
U2lnbiBDbGFzcyAzIFB1YmxpYyBQcmltYXJ5IENlcnRpZmljYXRpb24gQXV0aG9y
aXR5IC0gRzUwggEiMA0GCSqGSIb3DQEBAQUAA4IBDwAwggEKAoIBAQCvJAgIKXo1
nmAMqudLO07cfLw8RRy7K+D+KQL5VwijZIUVJ/XxrcgxiV0i6CqqpkKzj/i5Vbex
t0uz/o9+B1fs70PbZmIVYc9gDaTY3vjgw2IIPVQT60nKWVSFJuUrjxuf6/WhkcIz
SdhDY2pSS9KP6HBRTdGJaXvHcPaz3BJ023tdS1bTlr8Vd6Gw9KIl8q8ckmcY5fQG
BO+QueQA5N06tRn/Arr0PO7gi+s3i+z016zy9vA9r911kTMZHRxAy3QkGSGT2RT+
rCpSx4/VBEnkjWNHiDxpg8v+R70rfk/Fla4OndTRQ8Bnc+MUCH7lP59zuDMKz10/
NIeWiu5T6CUVAgMBAAGjgbIwga8wDwYDVR0TAQH/BAUwAwEB/zAOBgNVHQ8BAf8E
BAMCAQYwbQYIKwYBBQUHAQwEYTBfoV2gWzBZMFcwVRYJaW1hZ2UvZ2lmMCEwHzAH
BgUrDgMCGgQUj+XTGoasjY5rw8+AatRIGCx7GS4wJRYjaHR0cDovL2xvZ28udmVy
aXNpZ24uY29tL3ZzbG9nby5naWYwHQYDVR0OBBYEFH/TZafC3ey78DAJ80M5+gKv
MzEzMA0GCSqGSIb3DQEBBQUAA4IBAQCTJEowX2LP2BqYLz3q3JktvXf2pXkiOOzE
p6B4Eq1iDkVwZMXnl2YtmAl+X6/WzChl8gGqCBpH3vn5fJJaCGkgDdk+bW48DW7Y
5gaRQBi5+MHt39tBquCWIMnNZBU4gcmU7qKEKQsTb47bDN0lAtukixlE0kF6BWlK
WE9gyn6CagsCqiUXObXbf+eEZSqVir2G3l6BFoMtEMze/aiCKm0oHw0LxOXnGiYZ
4fQRbxC1lfznQgUy286dUV4otp6F01vvpX1FQHKOtw5rDgb7MzVIcbidJ4vEZV8N
hnacRHr2lVz2XTIIM6RUthg/aFzyQkqFOFSDX9HoLPKsEdao7WNq
-----END CERTIFICATE-----

Certificate:
    Data:
        Version: 3 (0x2)
        Serial Number:
            52:00:e5:aa:25:56:fc:1a:86:ed:96:c9:d4:4b:33:c7
    Signature Algorithm: sha1WithRSAEncryption
        Issuer: C=US, O=VeriSign, Inc., OU=VeriSign Trust Network, OU=(c) 2006 VeriSign, Inc. - For authorized use only, CN=VeriSign Class 3 Public Primary Certification Authority - G5
        Validity
            Not Before: Feb  8 00:00:00 2010 GMT
            Not After : Feb  7 23:59:59 2020 GMT
        Subject: C=US, O=VeriSign, Inc., OU=VeriSign Trust Network, OU=Terms of use at https://www.verisign.com/rpa (c)10, CN=VeriSign Class 3 Code Signing 2010 CA
        Subject Public Key Info:
            Public Key Algorithm: rsaEncryption
                Public-Key: (2048 bit)
                Modulus:
                    00:f5:23:4b:5e:a5:d7:8a:bb:32:e9:d4:57:f7:ef:
                    e4:c7:26:7e:ad:19:98:fe:a8:9d:7d:94:f6:36:6b:
                    10:d7:75:81:30:7f:04:68:7f:cb:2b:75:1e:cd:1d:
                    08:8c:df:69:94:a7:37:a3:9c:7b:80:e0:99:e1:ee:
                    37:4d:5f:ce:3b:14:ee:86:d4:d0:f5:27:35:bc:25:
                    0b:38:a7:8c:63:9d:17:a3:08:a5:ab:b0:fb:cd:6a:
                    62:82:4c:d5:21:da:1b:d9:f1:e3:84:3b:8a:2a:4f:
                    85:5b:90:01:4f:c9:a7:76:10:7f:27:03:7c:be:ae:
                    7e:7d:c1:dd:f9:05:bc:1b:48:9c:69:e7:c0:a4:3c:
                    3c:41:00:3e:df:96:e5:c5:e4:94:71:d6:55:01:c7:
                    00:26:4a:40:3c:b5:a1:26:a9:0c:a7:6d:80:8e:90:
                    25:7b:cf:bf:3f:1c:eb:2f:96:fa:e5:87:77:c6:b5:
                    56:b2:7a:3b:54:30:53:1b:df:62:34:ff:1e:d1:f4:
                    5a:93:28:85:e5:4c:17:4e:7e:5b:fd:a4:93:99:7f:
                    df:cd:ef:a4:75:ef:ef:15:f6:47:e7:f8:19:72:d8:
                    2e:34:1a:a6:b4:a7:4c:7e:bd:bb:4f:0c:3d:57:f1:
                    30:d6:a6:36:8e:d6:80:76:d7:19:2e:a5:cd:7e:34:
                    2d:89
                Exponent: 65537 (0x10001)
        X509v3 extensions:
            X509v3 Basic Constraints: critical
                CA:TRUE, pathlen:0
            X509v3 Certificate Policies: 
                Policy: 2.16.840.1.113733.1.7.23.3
                  CPS: https://www.verisign.com/cps
                  User Notice:
                    Explicit Text: https://www.verisign.com/rpa

            X509v3 Key Usage: critical
                Certificate Sign, CRL Sign
            1.3.6.1.5.5.7.1.12: 
                0_.].[0Y0W0U..image/gif0!0.0...+..............k...j.H.,{..0%.#http://logo.verisign.com/vslogo.gif
            X509v3 CRL Distribution Points: 

                Full Name:
                  URI:http://crl.verisign.com/pca3-g5.crl

            Authority Information Access: 
                OCSP - URI:http://ocsp.verisign.com

            X509v3 Extended Key Usage: 
                TLS Web Client Authentication, Code Signing
            X509v3 Subject Alternative Name: 
                DirName:/CN=VeriSignMPKI-2-8
            X509v3 Subject Key Identifier: 
                CF:99:A9:EA:7B:26:F4:4B:C9:8E:8F:D7:F0:05:26:EF:E3:D2:A7:9D
            X509v3 Authority Key Identifier: 
                keyid:7F:D3:65:A7:C2:DD:EC:BB:F0:30:09:F3:43:39:FA:02:AF:33:31:33

    Signature Algorithm: sha1WithRSAEncryption
         56:22:e6:34:a4:c4:61:cb:48:b9:01:ad:56:a8:64:0f:d9:8c:
         91:c4:bb:cc:0c:e5:ad:7a:a0:22:7f:df:47:38:4a:2d:6c:d1:
         7f:71:1a:7c:ec:70:a9:b1:f0:4f:e4:0f:0c:53:fa:15:5e:fe:
         74:98:49:24:85:81:26:1c:91:14:47:b0:4c:63:8c:bb:a1:34:
         d4:c6:45:e8:0d:85:26:73:03:d0:a9:8c:64:6d:dc:71:92:e6:
         45:05:60:15:59:51:39:fc:58:14:6b:fe:d4:a4:ed:79:6b:08:
         0c:41:72:e7:37:22:06:09:be:23:e9:3f:44:9a:1e:e9:61:9d:
         cc:b1:90:5c:fc:3d:d2:8d:ac:42:3d:65:36:d4:b4:3d:40:28:
         8f:9b:10:cf:23:26:cc:4b:20:cb:90:1f:5d:8c:4c:34:ca:3c:
         d8:e5:37:d6:6f:a5:20:bd:34:eb:26:d9:ae:0d:e7:c5:9a:f7:
         a1:b4:21:91:33:6f:86:e8:58:bb:25:7c:74:0e:58:fe:75:1b:
         63:3f:ce:31:7c:9b:8f:1b:96:9e:c5:53:76:84:5b:9c:ad:91:
         fa:ac:ed:93:ba:5d:c8:21:53:c2:82:53:63:af:12:0d:50:87:
         11:1b:3d:54:52:96:8a:2c:9c:3d:92:1a:08:9a:05:2e:c7:93:
         a5:48:91:d3
-----BEGIN CERTIFICATE-----
MIIGCjCCBPKgAwIBAgIQUgDlqiVW/BqG7ZbJ1EszxzANBgkqhkiG9w0BAQUFADCB
yjELMAkGA1UEBhMCVVMxFzAVBgNVBAoTDlZlcmlTaWduLCBJbmMuMR8wHQYDVQQL
ExZWZXJpU2lnbiBUcnVzdCBOZXR3b3JrMTowOAYDVQQLEzEoYykgMjAwNiBWZXJp
U2lnbiwgSW5jLiAtIEZvciBhdXRob3JpemVkIHVzZSBvbmx5MUUwQwYDVQQDEzxW
ZXJpU2lnbiBDbGFzcyAzIFB1YmxpYyBQcmltYXJ5IENlcnRpZmljYXRpb24gQXV0
aG9yaXR5IC0gRzUwHhcNMTAwMjA4MDAwMDAwWhcNMjAwMjA3MjM1OTU5WjCBtDEL
MAkGA1UEBhMCVVMxFzAVBgNVBAoTDlZlcmlTaWduLCBJbmMuMR8wHQYDVQQLExZW
ZXJpU2lnbiBUcnVzdCBOZXR3b3JrMTswOQYDVQQLEzJUZXJtcyBvZiB1c2UgYXQg
aHR0cHM6Ly93d3cudmVyaXNpZ24uY29tL3JwYSAoYykxMDEuMCwGA1UEAxMlVmVy
aVNpZ24gQ2xhc3MgMyBDb2RlIFNpZ25pbmcgMjAxMCBDQTCCASIwDQYJKoZIhvcN
AQEBBQADggEPADCCAQoCggEBAPUjS16l14q7MunUV/fv5Mcmfq0ZmP6onX2U9jZr
ENd1gTB/BGh/yyt1Hs0dCIzfaZSnN6Oce4DgmeHuN01fzjsU7obU0PUnNbwlCzin
jGOdF6MIpauw+81qYoJM1SHaG9nx44Q7iipPhVuQAU/Jp3YQfycDfL6ufn3B3fkF
vBtInGnnwKQ8PEEAPt+W5cXklHHWVQHHACZKQDy1oSapDKdtgI6QJXvPvz8c6y+W
+uWHd8a1VrJ6O1QwUxvfYjT/HtH0WpMoheVMF05+W/2kk5l/383vpHXv7xX2R+f4
GXLYLjQaprSnTH69u08MPVfxMNamNo7WgHbXGS6lzX40LYkCAwEAAaOCAf4wggH6
MBIGA1UdEwEB/wQIMAYBAf8CAQAwcAYDVR0gBGkwZzBlBgtghkgBhvhFAQcXAzBW
MCgGCCsGAQUFBwIBFhxodHRwczovL3d3dy52ZXJpc2lnbi5jb20vY3BzMCoGCCsG
AQUFBwICMB4aHGh0dHBzOi8vd3d3LnZlcmlzaWduLmNvbS9ycGEwDgYDVR0PAQH/
BAQDAgEGMG0GCCsGAQUFBwEMBGEwX6FdoFswWTBXMFUWCWltYWdlL2dpZjAhMB8w
BwYFKw4DAhoEFI/l0xqGrI2Oa8PPgGrUSBgsexkuMCUWI2h0dHA6Ly9sb2dvLnZl
cmlzaWduLmNvbS92c2xvZ28uZ2lmMDQGA1UdHwQtMCswKaAnoCWGI2h0dHA6Ly9j
cmwudmVyaXNpZ24uY29tL3BjYTMtZzUuY3JsMDQGCCsGAQUFBwEBBCgwJjAkBggr
BgEFBQcwAYYYaHR0cDovL29jc3AudmVyaXNpZ24uY29tMB0GA1UdJQQWMBQGCCsG
AQUFBwMCBggrBgEFBQcDAzAoBgNVHREEITAfpB0wGzEZMBcGA1UEAxMQVmVyaVNp
Z25NUEtJLTItODAdBgNVHQ4EFgQUz5mp6nsm9EvJjo/X8AUm7+PSp50wHwYDVR0j
BBgwFoAUf9Nlp8Ld7LvwMAnzQzn6Aq8zMTMwDQYJKoZIhvcNAQEFBQADggEBAFYi
5jSkxGHLSLkBrVaoZA/ZjJHEu8wM5a16oCJ/30c4Si1s0X9xGnzscKmx8E/kDwxT
+hVe/nSYSSSFgSYckRRHsExjjLuhNNTGRegNhSZzA9CpjGRt3HGS5kUFYBVZUTn8
WBRr/tSk7XlrCAxBcuc3IgYJviPpP0SaHulhncyxkFz8PdKNrEI9ZTbUtD1AKI+b
EM8jJsxLIMuQH12MTDTKPNjlN9ZvpSC9NOsm2a4N58Wa96G0IZEzb4boWLslfHQO
WP51G2M/zjF8m48blp7FU3aEW5ytkfqs7ZO6XcghU8KCU2OvEg1QhxEbPVRSloos
nD2SGgiaBS7Hk6VIkdM=
-----END CERTIFICATE-----

