Certificate:
    Data:
        Version: 3 (0x2)
        Serial Number:
             (Negative)07:9a:7d:ec:be:e0:4e:4e:b3:51:b9:66:e2:cf:7c:63
    Signature Algorithm: sha1WithRSAEncryption
        Issuer: CN=Adobe
        Validity
            Not Before: Jan  1 08:00:00 2018 GMT
            Not After : Jan  1 08:00:00 2024 GMT
        Subject: CN=Adobe
        Subject Public Key Info:
            Public Key Algorithm: rsaEncryption
                Public-Key: (1024 bit)
                Modulus:
                    00:af:8d:86:45:18:cd:1a:02:c3:47:1e:15:9e:c3:
                    be:0a:84:7b:79:58:7d:66:a3:b0:52:36:6d:32:35:
                    2b:83:54:30:95:4d:c3:dd:ce:e3:92:09:94:db:1d:
                    bc:70:60:47:cf:f0:45:d0:23:c4:8f:b9:ba:c6:68:
                    d4:68:c5:9e:32:4b:1b:73:b3:6e:9e:78:15:48:f0:
                    2c:66:f8:1d:5b:aa:27:94:9c:b1:d5:11:ca:1b:f2:
                    3f:ba:c6:db:d1:80:2f:a4:c9:68:c7:4a:b0:b0:52:
                    d6:28:9a:35:9e:5e:01:90:95:a4:bf:68:8c:63:dc:
                    a2:4b:46:8a:cc:3d:c9:7f:d9
                Exponent: 65537 (0x10001)
        X509v3 extensions:
            X509v3 Extended Key Usage: 
                Code Signing
            2.5.29.1: 
                08....l,.......2P.%...0.1.0...U....Adobe...e..A...L.F..0..
    Signature Algorithm: sha1WithRSAEncryption
         ad:27:e9:17:23:b4:8f:fe:44:45:fd:6e:f8:c7:9f:c5:63:3c:
         c4:70:1d:51:04:dc:1e:ed:44:f5:fb:b4:03:82:ce:75:6e:19:
         7f:c1:d6:aa:42:37:62:54:82:32:c0:cc:22:74:df:d1:69:d0:
         b2:2c:1b:99:6c:5a:2d:ea:97:fd:22:1e:9a:96:8f:f6:15:56:
         e9:1a:4d:ce:47:80:49:65:c9:b3:ab:f9:e8:c6:da:05:3a:86:
         f1:8d:b4:f2:ef:98:e4:fd:72:af:3c:12:a1:69:43:4c:aa:08:
         0f:7c:e0:de:b4:25:dc:60:22:86:78:8a:50:d7:25:60:e0:48:
         c7:a8
-----BEGIN CERTIFICATE-----
MIIB/zCCAWigAwIBAgIQ+GWCE0EfsbFMrkaZHTCDnTANBgkqhkiG9w0BAQUFADAQ
MQ4wDAYDVQQDEwVBZG9iZTAeFw0xODAxMDEwODAwMDBaFw0yNDAxMDEwODAwMDBa
MBAxDjAMBgNVBAMTBUFkb2JlMIGfMA0GCSqGSIb3DQEBAQUAA4GNADCBiQKBgQCv
jYZFGM0aAsNHHhWew74KhHt5WH1mo7BSNm0yNSuDVDCVTcPdzuOSCZTbHbxwYEfP
8EXQI8SPubrGaNRoxZ4ySxtzs26eeBVI8Cxm+B1bqieUnLHVEcob8j+6xtvRgC+k
yWjHSrCwUtYomjWeXgGQlaS/aIxj3KJLRorMPcl/2QIDAQABo1owWDATBgNVHSUE
DDAKBggrBgEFBQcDAzBBBgNVHQEEOjA4gBCl2Wwsz5PQkgisuzJQ/yUaoRIwEDEO
MAwGA1UEAxMFQWRvYmWCEPhlghNBH7GxTK5GmR0wg50wDQYJKoZIhvcNAQEFBQAD
gYEArSfpFyO0j/5ERf1u+MefxWM8xHAdUQTcHu1E9fu0A4LOdW4Zf8HWqkI3YlSC
MsDMInTf0WnQsiwbmWxaLeqX/SIempaP9hVW6RpNzkeASWXJs6v56MbaBTqG8Y20
8u+Y5P1yrzwSoWlDTKoID3zg3rQl3GAihniKUNclYOBIx6g=
-----END CERTIFICATE-----

