Certificate:
    Data:
        Version: 3 (0x2)
        Serial Number:
            7e:93:eb:fb:7c:c6:4e:59:ea:4b:9a:77:d4:06:fc:3b
    Signature Algorithm: sha1WithRSAEncryption
        Issuer: C=ZA, ST=Western Cape, L=Durbanville, O=Thawte, OU=Thawte Certification, CN=Thawte Timestamping CA
        Validity
            Not Before: Dec 21 00:00:00 2012 GMT
            Not After : Dec 30 23:59:59 2020 GMT
        Subject: C=US, O=Symantec Corporation, CN=Symantec Time Stamping Services CA - G2
        Subject Public Key Info:
            Public Key Algorithm: rsaEncryption
                Public-Key: (2048 bit)
                Modulus:
                    00:b1:ac:b3:49:54:4b:97:1c:12:0a:d8:25:79:91:
                    22:57:2a:6f:dc:b8:26:c4:43:73:6b:c2:bf:2e:50:
                    5a:fb:14:c2:76:8e:43:01:25:43:b4:a1:e2:45:f4:
                    e8:b7:7b:c3:74:cc:22:d7:b4:94:00:02:f7:4d:ed:
                    bf:b4:b7:44:24:6b:cd:5f:45:3b:d1:44:ce:43:12:
                    73:17:82:8b:69:b4:2b:cb:99:1e:ac:72:1b:26:4d:
                    71:1f:b1:31:dd:fb:51:61:02:53:a6:aa:f5:49:2c:
                    05:78:45:a5:2f:89:ce:e7:99:e7:fe:8c:e2:57:3f:
                    3d:c6:92:dc:4a:f8:7b:33:e4:79:0a:fb:f0:75:88:
                    41:9c:ff:c5:03:51:99:aa:d7:6c:9f:93:69:87:65:
                    29:83:85:c2:60:14:c4:c8:c9:3b:14:da:c0:81:f0:
                    1f:0d:74:de:92:22:ab:ca:f7:fb:74:7c:27:e6:f7:
                    4a:1b:7f:a7:c3:9e:2d:ae:8a:ea:a6:e6:aa:27:16:
                    7d:61:f7:98:71:11:bc:e2:50:a1:4b:e5:5d:fa:e5:
                    0e:a7:2c:9f:aa:65:20:d3:d8:96:e8:c8:7c:a5:4e:
                    48:44:ff:19:e2:44:07:92:0b:d7:68:84:80:5d:6a:
                    78:64:45:cd:60:46:7e:54:c1:13:7c:c5:79:f1:c9:
                    c1:71
                Exponent: 65537 (0x10001)
        X509v3 extensions:
            X509v3 Subject Key Identifier: 
                5F:9A:F5:6E:5C:CC:CC:74:9A:D4:DD:7D:EF:3F:DB:EC:4C:80:2E:DD
            Authority Information Access: 
                OCSP - URI:http://ocsp.thawte.com

            X509v3 Basic Constraints: critical
                CA:TRUE, pathlen:0
            X509v3 CRL Distribution Points: 

                Full Name:
                  URI:http://crl.thawte.com/ThawteTimestampingCA.crl

            X509v3 Extended Key Usage: 
                Time Stamping
            X509v3 Key Usage: critical
                Certificate Sign, CRL Sign
            X509v3 Subject Alternative Name: 
                DirName:/CN=TimeStamp-2048-1
    Signature Algorithm: sha1WithRSAEncryption
         03:09:9b:8f:79:ef:7f:59:30:aa:ef:68:b5:fa:e3:09:1d:bb:
         4f:82:06:5d:37:5f:a6:52:9f:16:8d:ea:1c:92:09:44:6e:f5:
         6d:eb:58:7c:30:e8:f9:69:8d:23:73:0b:12:6f:47:a9:ae:39:
         11:f8:2a:b1:9b:b0:1a:c3:8e:eb:59:96:00:ad:ce:0c:4d:b2:
         d0:31:a6:08:5c:2a:7a:fc:e2:7a:1d:57:4c:a8:65:18:e9:79:
         40:62:25:96:6e:c7:c7:37:6a:83:21:08:8e:41:ea:dd:d9:57:
         3f:1d:77:49:87:2a:16:06:5e:a6:38:6a:22:12:a3:51:19:83:
         7e:b6
-----BEGIN CERTIFICATE-----
MIID7jCCA1egAwIBAgIQfpPr+3zGTlnqS5p31Ab8OzANBgkqhkiG9w0BAQUFADCB
izELMAkGA1UEBhMCWkExFTATBgNVBAgTDFdlc3Rlcm4gQ2FwZTEUMBIGA1UEBxML
RHVyYmFudmlsbGUxDzANBgNVBAoTBlRoYXd0ZTEdMBsGA1UECxMUVGhhd3RlIENl
cnRpZmljYXRpb24xHzAdBgNVBAMTFlRoYXd0ZSBUaW1lc3RhbXBpbmcgQ0EwHhcN
MTIxMjIxMDAwMDAwWhcNMjAxMjMwMjM1OTU5WjBeMQswCQYDVQQGEwJVUzEdMBsG
A1UEChMUU3ltYW50ZWMgQ29ycG9yYXRpb24xMDAuBgNVBAMTJ1N5bWFudGVjIFRp
bWUgU3RhbXBpbmcgU2VydmljZXMgQ0EgLSBHMjCCASIwDQYJKoZIhvcNAQEBBQAD
ggEPADCCAQoCggEBALGss0lUS5ccEgrYJXmRIlcqb9y4JsRDc2vCvy5QWvsUwnaO
QwElQ7Sh4kX06Ld7w3TMIte0lAAC903tv7S3RCRrzV9FO9FEzkMScxeCi2m0K8uZ
HqxyGyZNcR+xMd37UWECU6aq9UksBXhFpS+JzueZ5/6M4lc/PcaS3Er4ezPkeQr7
8HWIQZz/xQNRmarXbJ+TaYdlKYOFwmAUxMjJOxTawIHwHw103pIiq8r3+3R8J+b3
Sht/p8OeLa6K6qbmqicWfWH3mHERvOJQoUvlXfrlDqcsn6plINPYlujIfKVOSET/
GeJEB5IL12iEgF1qeGRFzWBGflTBE3zFefHJwXECAwEAAaOB+jCB9zAdBgNVHQ4E
FgQUX5r1blzMzHSa1N197z/b7EyALt0wMgYIKwYBBQUHAQEEJjAkMCIGCCsGAQUF
BzABhhZodHRwOi8vb2NzcC50aGF3dGUuY29tMBIGA1UdEwEB/wQIMAYBAf8CAQAw
PwYDVR0fBDgwNjA0oDKgMIYuaHR0cDovL2NybC50aGF3dGUuY29tL1RoYXd0ZVRp
bWVzdGFtcGluZ0NBLmNybDATBgNVHSUEDDAKBggrBgEFBQcDCDAOBgNVHQ8BAf8E
BAMCAQYwKAYDVR0RBCEwH6QdMBsxGTAXBgNVBAMTEFRpbWVTdGFtcC0yMDQ4LTEw
DQYJKoZIhvcNAQEFBQADgYEAAwmbj3nvf1kwqu9otfrjCR27T4IGXTdfplKfFo3q
HJIJRG71betYfDDo+WmNI3MLEm9Hqa45EfgqsZuwGsOO61mWAK3ODE2y0DGmCFwq
evzieh1XTKhlGOl5QGIllm7HxzdqgyEIjkHq3dlXPx13SYcqFgZepjhqIhKjURmD
frY=
-----END CERTIFICATE-----

Certificate:
    Data:
        Version: 3 (0x2)
        Serial Number:
            0e:cf:f4:38:c8:fe:bf:35:6e:04:d8:6a:98:1b:1a:50
    Signature Algorithm: sha1WithRSAEncryption
        Issuer: C=US, O=Symantec Corporation, CN=Symantec Time Stamping Services CA - G2
        Validity
            Not Before: Oct 18 00:00:00 2012 GMT
            Not After : Dec 29 23:59:59 2020 GMT
        Subject: C=US, O=Symantec Corporation, CN=Symantec Time Stamping Services Signer - G4
        Subject Public Key Info:
            Public Key Algorithm: rsaEncryption
                Public-Key: (2048 bit)
                Modulus:
                    00:a2:63:0b:39:44:b8:bb:23:a7:44:49:bb:0e:ff:
                    a1:f0:61:0a:53:93:b0:98:db:ad:2c:0f:4a:c5:6e:
                    ff:86:3c:53:55:0f:15:ce:04:3f:2b:fd:a9:96:96:
                    d9:be:61:79:0b:5b:c9:4c:86:76:e5:e0:43:4b:22:
                    95:ee:c2:2b:43:c1:9f:d8:68:b4:8e:40:4f:ee:85:
                    38:b9:11:c5:23:f2:64:58:f0:15:32:6f:4e:57:a1:
                    ae:88:a4:02:d7:2a:1e:cd:4b:e1:dd:63:d5:17:89:
                    32:5b:b0:5e:99:5a:a8:9d:28:50:0e:17:ee:96:db:
                    61:3b:45:51:1d:cf:12:56:0b:92:47:fc:ab:ae:f6:
                    66:3d:47:ac:70:72:e7:92:e7:5f:cd:10:b9:c4:83:
                    64:94:19:bd:25:80:e1:e8:d2:22:a5:d0:ba:02:7a:
                    a1:77:93:5b:65:c3:ee:17:74:bc:41:86:2a:dc:08:
                    4c:8c:92:8c:91:2d:9e:77:44:1f:68:d6:a8:74:77:
                    db:0e:5b:32:8b:56:8b:33:bd:d9:63:c8:49:9d:3a:
                    c5:c5:ea:33:0b:d2:f1:a3:1b:f4:8b:be:d9:b3:57:
                    8b:3b:de:04:a7:7a:22:b2:24:ae:2e:c7:70:c5:be:
                    4e:83:26:08:fb:0b:bd:a9:4f:99:08:e1:10:28:72:
                    aa:cd
                Exponent: 65537 (0x10001)
        X509v3 extensions:
            X509v3 Basic Constraints: critical
                CA:FALSE
            X509v3 Extended Key Usage: critical
                Time Stamping
            X509v3 Key Usage: critical
                Digital Signature
            Authority Information Access: 
                OCSP - URI:http://ts-ocsp.ws.symantec.com
                CA Issuers - URI:http://ts-aia.ws.symantec.com/tss-ca-g2.cer

            X509v3 CRL Distribution Points: 

                Full Name:
                  URI:http://ts-crl.ws.symantec.com/tss-ca-g2.crl

            X509v3 Subject Alternative Name: 
                DirName:/CN=TimeStamp-2048-2
            X509v3 Subject Key Identifier: 
                46:C6:69:A3:0E:4A:14:1E:D5:4C:DA:52:63:17:3F:5E:36:BC:0D:E6
            X509v3 Authority Key Identifier: 
                keyid:5F:9A:F5:6E:5C:CC:CC:74:9A:D4:DD:7D:EF:3F:DB:EC:4C:80:2E:DD

    Signature Algorithm: sha1WithRSAEncryption
         78:3b:b4:91:2a:00:4c:f0:8f:62:30:37:78:a3:84:27:07:6f:
         18:b2:de:25:dc:a0:d4:94:03:aa:86:4e:25:9f:9a:40:03:1c:
         dd:ce:e3:79:cb:21:68:06:da:b6:32:b4:6d:bf:f4:2c:26:63:
         33:e4:49:64:6d:0d:e6:c3:67:0e:f7:05:a4:35:6c:7c:89:16:
         c6:e9:b2:df:b2:e9:dd:20:c6:71:0f:cd:95:74:dc:b6:5c:de:
         bd:37:1f:43:78:e6:78:b5:cd:28:04:20:a3:aa:f1:4b:c4:88:
         29:91:0e:80:d1:11:fc:dd:5c:76:6e:4f:5e:0e:45:46:41:6e:
         0d:b0:ea:38:9a:b1:3a:da:09:71:10:fc:1c:79:b4:80:7b:ac:
         69:f4:fd:9c:b6:0c:16:2b:f1:7f:5b:09:3d:9b:5b:e2:16:ca:
         13:81:6d:00:2e:38:0d:a8:29:8f:2c:e1:b2:f4:5a:a9:01:af:
         15:9c:2c:2f:49:1b:db:22:bb:c3:fe:78:94:51:c3:86:b1:82:
         88:5d:f0:3d:b4:51:a1:79:33:2b:2e:7b:b9:dc:20:09:13:71:
         eb:6a:19:5b:cf:e8:a5:30:57:2c:89:49:3f:b9:cf:7f:c9:bf:
         3e:22:68:63:53:9a:bd:69:74:ac:c5:1d:3c:7f:92:e0:c3:bc:
         1c:d8:04:75
-----BEGIN CERTIFICATE-----
MIIEozCCA4ugAwIBAgIQDs/0OMj+vzVuBNhqmBsaUDANBgkqhkiG9w0BAQUFADBe
MQswCQYDVQQGEwJVUzEdMBsGA1UEChMUU3ltYW50ZWMgQ29ycG9yYXRpb24xMDAu
BgNVBAMTJ1N5bWFudGVjIFRpbWUgU3RhbXBpbmcgU2VydmljZXMgQ0EgLSBHMjAe
Fw0xMjEwMTgwMDAwMDBaFw0yMDEyMjkyMzU5NTlaMGIxCzAJBgNVBAYTAlVTMR0w
GwYDVQQKExRTeW1hbnRlYyBDb3Jwb3JhdGlvbjE0MDIGA1UEAxMrU3ltYW50ZWMg
VGltZSBTdGFtcGluZyBTZXJ2aWNlcyBTaWduZXIgLSBHNDCCASIwDQYJKoZIhvcN
AQEBBQADggEPADCCAQoCggEBAKJjCzlEuLsjp0RJuw7/ofBhClOTsJjbrSwPSsVu
/4Y8U1UPFc4EPyv9qZaW2b5heQtbyUyGduXgQ0sile7CK0PBn9hotI5AT+6FOLkR
xSPyZFjwFTJvTlehroikAtcqHs1L4d1j1ReJMluwXplaqJ0oUA4X7pbbYTtFUR3P
ElYLkkf8q672Zj1HrHBy55LnX80QucSDZJQZvSWA4ejSIqXQugJ6oXeTW2XD7hd0
vEGGKtwITIySjJEtnndEH2jWqHR32w5bMotWizO92WPISZ06xcXqMwvS8aMb9Iu+
2bNXizveBKd6IrIkri7HcMW+ToMmCPsLvalPmQjhEChyqs0CAwEAAaOCAVcwggFT
MAwGA1UdEwEB/wQCMAAwFgYDVR0lAQH/BAwwCgYIKwYBBQUHAwgwDgYDVR0PAQH/
BAQDAgeAMHMGCCsGAQUFBwEBBGcwZTAqBggrBgEFBQcwAYYeaHR0cDovL3RzLW9j
c3Aud3Muc3ltYW50ZWMuY29tMDcGCCsGAQUFBzAChitodHRwOi8vdHMtYWlhLndz
LnN5bWFudGVjLmNvbS90c3MtY2EtZzIuY2VyMDwGA1UdHwQ1MDMwMaAvoC2GK2h0
dHA6Ly90cy1jcmwud3Muc3ltYW50ZWMuY29tL3Rzcy1jYS1nMi5jcmwwKAYDVR0R
BCEwH6QdMBsxGTAXBgNVBAMTEFRpbWVTdGFtcC0yMDQ4LTIwHQYDVR0OBBYEFEbG
aaMOShQe1UzaUmMXP142vA3mMB8GA1UdIwQYMBaAFF+a9W5czMx0mtTdfe8/2+xM
gC7dMA0GCSqGSIb3DQEBBQUAA4IBAQB4O7SRKgBM8I9iMDd4o4QnB28Yst4l3KDU
lAOqhk4ln5pAAxzdzuN5yyFoBtq2MrRtv/QsJmMz5ElkbQ3mw2cO9wWkNWx8iRbG
6bLfsundIMZxD82VdNy2XN69Nx9DeOZ4tc0oBCCjqvFLxIgpkQ6A0RH83Vx2bk9e
DkVGQW4NsOo4mrE62glxEPwcebSAe6xp9P2ctgwWK/F/Wwk9m1viFsoTgW0ALjgN
qCmPLOGy9FqpAa8VnCwvSRvbIrvD/niUUcOGsYKIXfA9tFGheTMrLnu53CAJE3Hr
ahlbz+ilMFcsiUk/uc9/yb8+ImhjU5q9aXSsxR08f5Lgw7wc2AR1
-----END CERTIFICATE-----

Certificate:
    Data:
        Version: 3 (0x2)
        Serial Number: 7747237974827421 (0x1b8612677ae19d)
    Signature Algorithm: sha256WithRSAEncryption
        Issuer: C=IL, O=StartCom Ltd., OU=Secure Digital Certificate Signing, CN=StartCom Certification Authority
        Validity
            Not Before: Oct 14 22:03:55 2007 GMT
            Not After : Oct 14 22:03:55 2022 GMT
        Subject: C=IL, O=StartCom Ltd., OU=Secure Digital Certificate Signing, CN=StartCom Class 3 Primary Intermediate Object CA
        Subject Public Key Info:
            Public Key Algorithm: rsaEncryption
                Public-Key: (2048 bit)
                Modulus:
                    00:d8:3a:d5:4f:9d:5c:f3:c2:0d:22:0a:95:08:ac:
                    39:13:9f:53:18:62:f9:a6:2b:69:8e:9f:19:37:a2:
                    b7:bc:c0:6f:9a:8e:a3:09:72:3b:7b:0a:98:13:5b:
                    19:50:d7:e2:9c:78:c0:c2:17:e2:ec:7a:e9:04:f9:
                    62:ff:11:b6:d5:5b:71:6c:46:19:e0:02:38:c2:dc:
                    ba:72:76:d1:10:18:98:8a:68:e2:98:6e:48:ca:4a:
                    a6:dc:2b:1c:03:06:db:e8:7c:4d:12:3f:62:60:8b:
                    92:70:f6:f1:13:a2:c4:65:1c:bf:69:65:d5:c0:10:
                    d0:9c:09:d4:fe:4c:92:2a:ad:3e:ac:d0:d6:91:a4:
                    38:ec:6b:98:6b:e7:80:8e:ea:6a:bd:d3:c3:26:d0:
                    80:ee:6a:37:b7:6f:34:37:b9:41:da:06:e8:d1:d1:
                    37:ec:72:21:a7:36:b2:a5:e1:db:cb:09:ea:4a:26:
                    24:39:29:04:3a:8a:ed:fe:4a:74:5b:36:b7:cd:4d:
                    72:6b:95:9d:90:1d:d3:0d:ad:0c:2c:e3:fc:67:e7:
                    b1:01:ac:4c:32:fb:5b:3a:32:83:d0:67:55:0b:a5:
                    fc:c9:98:30:03:77:fc:a3:3c:aa:c0:0d:e0:f3:50:
                    59:bf:79:61:84:7d:70:0d:94:35:43:aa:6c:ad:3a:
                    56:bf
                Exponent: 65537 (0x10001)
        X509v3 extensions:
            X509v3 Basic Constraints: critical
                CA:TRUE, pathlen:0
            X509v3 Key Usage: critical
                Certificate Sign, CRL Sign
            X509v3 Subject Key Identifier: 
                97:CA:73:53:A5:2E:B3:89:1A:A6:42:7D:A9:0F:93:FB:87:8C:01:18
            X509v3 Authority Key Identifier: 
                keyid:4E:0B:EF:1A:A4:40:5B:A5:17:69:87:30:CA:34:68:43:D0:41:AE:F2

            Authority Information Access: 
                OCSP - URI:http://ocsp.startssl.com/ca
                CA Issuers - URI:http://aia.startssl.com/certs/ca.crt

            X509v3 CRL Distribution Points: 

                Full Name:
                  URI:http://crl.startssl.com/sfsca.crl

            X509v3 Certificate Policies: 
                Policy: X509v3 Any Policy
                  CPS: http://www.startssl.com/policy.pdf

    Signature Algorithm: sha256WithRSAEncryption
         0e:8a:20:eb:22:4c:46:97:ea:64:1d:9c:b7:b7:e1:0f:3c:6c:
         08:9a:76:8d:d9:cd:87:26:fa:dd:77:df:d5:d9:32:f1:25:2b:
         fc:47:b9:4a:24:92:ea:13:4e:5a:d3:61:fd:d2:42:6c:0c:54:
         7b:cc:7b:13:96:b5:10:4f:2f:ff:57:36:85:5c:45:98:93:36:
         8c:99:9a:ec:38:bc:80:50:76:a2:27:75:c9:1f:ea:e1:af:d5:
         32:6c:4f:85:6d:6a:7f:fb:13:cd:14:31:5e:5f:4a:0f:97:73:
         dd:08:9f:09:55:39:88:ca:42:5c:16:a0:ce:39:e6:32:14:35:
         17:42:7a:ce:2b:85:0b:4f:08:1c:23:42:0e:a4:7d:fe:0c:9b:
         7a:8f:91:cd:70:ff:fb:ed:b8:c0:55:53:47:75:a3:7a:fe:9e:
         38:b6:cb:12:a8:aa:e1:9d:df:a4:70:8e:58:b8:2c:94:51:56:
         13:0d:30:26:7e:44:03:38:53:38:3b:0f:60:3d:09:59:ff:67:
         09:e5:fb:d1:28:63:85:c1:be:b1:92:0c:78:b9:34:25:6b:13:
         a5:6f:3a:5b:1d:df:79:b3:68:9f:f0:a1:76:8f:d3:b9:d7:d6:
         c4:27:2e:ac:98:1b:18:c1:a6:72:09:bc:cc:0d:ea:46:cc:94:
         76:81:e2:58:29:16:97:12:b7:aa:0d:ab:8f:d1:54:1a:ba:4f:
         69:94:05:14:6b:fa:67:d7:bd:00:8c:e2:95:e3:54:7b:61:cc:
         4f:da:6f:d4:46:d5:39:9d:ea:8a:d6:08:09:89:2f:f9:da:b4:
         34:54:43:4c:5d:f8:cd:2a:75:76:52:ce:87:6f:db:15:08:df:
         d7:08:5c:f3:e3:f7:ad:96:68:1a:25:44:b8:a9:1c:91:fd:f2:
         76:e3:73:88:bf:eb:08:62:a6:38:31:a9:91:dc:6f:dc:d8:c4:
         ee:00:1c:b8:67:5d:61:76:46:ef:d7:7f:98:c7:46:35:73:28:
         46:e2:f2:3e:fc:11:97:23:77:eb:4b:15:80:56:44:70:3e:97:
         6d:41:e3:ec:aa:da:e3:a0:c3:fe:dc:a5:79:43:14:94:00:5f:
         5f:d2:75:17:99:33:36:9c:f4:00:ed:02:a8:69:f1:7e:13:b5:
         ff:fa:98:cf:33:0d:61:38:45:88:92:fc:8a:29:89:1e:8d:29:
         a6:21:b9:0a:c6:04:e3:3b:e5:39:a4:9e:da:45:5d:5a:7a:26:
         8a:b5:47:3d:7d:3b:63:85:90:90:df:ba:ef:2c:3e:1e:3c:65:
         11:7b:5d:35:e0:d1:58:d1:e6:85:b1:57:69:ee:97:8e:51:1a:
         66:12:81:eb:56:44:29:d8
-----BEGIN CERTIFICATE-----
MIIF2TCCA8GgAwIBAgIHG4YSZ3rhnTANBgkqhkiG9w0BAQsFADB9MQswCQYDVQQG
EwJJTDEWMBQGA1UEChMNU3RhcnRDb20gTHRkLjErMCkGA1UECxMiU2VjdXJlIERp
Z2l0YWwgQ2VydGlmaWNhdGUgU2lnbmluZzEpMCcGA1UEAxMgU3RhcnRDb20gQ2Vy
dGlmaWNhdGlvbiBBdXRob3JpdHkwHhcNMDcxMDE0MjIwMzU1WhcNMjIxMDE0MjIw
MzU1WjCBjDELMAkGA1UEBhMCSUwxFjAUBgNVBAoTDVN0YXJ0Q29tIEx0ZC4xKzAp
BgNVBAsTIlNlY3VyZSBEaWdpdGFsIENlcnRpZmljYXRlIFNpZ25pbmcxODA2BgNV
BAMTL1N0YXJ0Q29tIENsYXNzIDMgUHJpbWFyeSBJbnRlcm1lZGlhdGUgT2JqZWN0
IENBMIIBIjANBgkqhkiG9w0BAQEFAAOCAQ8AMIIBCgKCAQEA2DrVT51c88INIgqV
CKw5E59TGGL5pitpjp8ZN6K3vMBvmo6jCXI7ewqYE1sZUNfinHjAwhfi7HrpBPli
/xG21VtxbEYZ4AI4wty6cnbREBiYimjimG5Iykqm3CscAwbb6HxNEj9iYIuScPbx
E6LEZRy/aWXVwBDQnAnU/kySKq0+rNDWkaQ47GuYa+eAjupqvdPDJtCA7mo3t280
N7lB2gbo0dE37HIhpzaypeHbywnqSiYkOSkEOort/kp0Wza3zU1ya5WdkB3TDa0M
LOP8Z+exAaxMMvtbOjKD0GdVC6X8yZgwA3f8ozyqwA3g81BZv3lhhH1wDZQ1Q6ps
rTpWvwIDAQABo4IBTDCCAUgwEgYDVR0TAQH/BAgwBgEB/wIBADAOBgNVHQ8BAf8E
BAMCAQYwHQYDVR0OBBYEFJfKc1OlLrOJGqZCfakPk/uHjAEYMB8GA1UdIwQYMBaA
FE4L7xqkQFulF2mHMMo0aEPQQa7yMGkGCCsGAQUFBwEBBF0wWzAnBggrBgEFBQcw
AYYbaHR0cDovL29jc3Auc3RhcnRzc2wuY29tL2NhMDAGCCsGAQUFBzAChiRodHRw
Oi8vYWlhLnN0YXJ0c3NsLmNvbS9jZXJ0cy9jYS5jcnQwMgYDVR0fBCswKTAnoCWg
I4YhaHR0cDovL2NybC5zdGFydHNzbC5jb20vc2ZzY2EuY3JsMEMGA1UdIAQ8MDow
OAYEVR0gADAwMC4GCCsGAQUFBwIBFiJodHRwOi8vd3d3LnN0YXJ0c3NsLmNvbS9w
b2xpY3kucGRmMA0GCSqGSIb3DQEBCwUAA4ICAQAOiiDrIkxGl+pkHZy3t+EPPGwI
mnaN2c2HJvrdd9/V2TLxJSv8R7lKJJLqE05a02H90kJsDFR7zHsTlrUQTy//VzaF
XEWYkzaMmZrsOLyAUHaiJ3XJH+rhr9UybE+FbWp/+xPNFDFeX0oPl3PdCJ8JVTmI
ykJcFqDOOeYyFDUXQnrOK4ULTwgcI0IOpH3+DJt6j5HNcP/77bjAVVNHdaN6/p44
tssSqKrhnd+kcI5YuCyUUVYTDTAmfkQDOFM4Ow9gPQlZ/2cJ5fvRKGOFwb6xkgx4
uTQlaxOlbzpbHd95s2if8KF2j9O519bEJy6smBsYwaZyCbzMDepGzJR2geJYKRaX
EreqDauP0VQauk9plAUUa/pn170AjOKV41R7YcxP2m/URtU5neqK1ggJiS/52rQ0
VENMXfjNKnV2Us6Hb9sVCN/XCFzz4/etlmgaJUS4qRyR/fJ243OIv+sIYqY4MamR
3G/c2MTuABy4Z11hdkbv13+Yx0Y1cyhG4vI+/BGXI3frSxWAVkRwPpdtQePsqtrj
oMP+3KV5QxSUAF9f0nUXmTM2nPQA7QKoafF+E7X/+pjPMw1hOEWIkvyKKYkejSmm
IbkKxgTjO+U5pJ7aRV1aeiaKtUc9fTtjhZCQ37rvLD4ePGURe1014NFY0eaFsVdp
7peOURpmEoHrVkQp2A==
-----END CERTIFICATE-----

Certificate:
    Data:
        Version: 3 (0x2)
        Serial Number: 5304547860654154 (0x12d8754aeda84a)
    Signature Algorithm: sha256WithRSAEncryption
        Issuer: C=IL, O=StartCom Ltd., OU=Secure Digital Certificate Signing, CN=StartCom Class 3 Primary Intermediate Object CA
        Validity
            Not Before: Sep 13 10:11:28 2015 GMT
            Not After : Sep 13 11:17:14 2018 GMT
        Subject: C=DE, ST=Baden-W\xFCrttemberg, L=Karlsruhe, O=Audials AG, CN=Audials AG/emailAddress=certs@audials.com
        Subject Public Key Info:
            Public Key Algorithm: rsaEncryption
                Public-Key: (2048 bit)
                Modulus:
                    00:f3:a4:c2:5c:ec:75:4c:d1:65:0b:92:af:00:2b:
                    8d:f5:b5:26:9c:9d:4b:87:64:69:27:8c:9f:3d:1f:
                    b6:40:80:50:b4:ca:3e:b7:5c:ab:fc:47:5e:05:da:
                    31:b9:c9:20:72:dc:64:7f:95:bf:f8:3a:1a:91:6b:
                    b7:2d:d8:3a:61:72:cb:3e:78:79:a1:24:3a:f2:d9:
                    b7:e2:d2:fd:8e:db:29:d1:4b:d1:6a:92:f1:d1:06:
                    c7:5f:f6:c2:bf:dd:9d:21:e5:98:41:5c:f8:fe:93:
                    9d:22:bd:bd:3c:fd:d4:76:4a:dd:00:52:cb:79:e9:
                    11:04:8e:9c:3a:1a:8d:2d:48:fe:ca:50:e2:60:0c:
                    8f:fc:29:53:e7:b2:f7:6a:10:73:2a:c5:c5:a4:9e:
                    07:91:c0:57:8a:68:fa:6f:62:63:ca:e9:de:9d:b4:
                    18:d6:35:9b:d5:a0:ae:be:32:8a:8a:1c:56:fa:40:
                    17:ab:a1:0b:6a:79:14:ca:80:b1:a1:fd:f6:a6:1c:
                    f8:21:9b:db:71:e5:dd:4b:db:dc:fc:b6:84:61:d1:
                    15:3c:f4:6b:f6:02:67:39:bc:28:47:6e:25:dd:e2:
                    35:20:21:8c:f1:51:0e:c5:33:9f:dd:36:43:23:16:
                    f3:04:ad:fd:3e:11:2e:07:ea:ae:c3:12:d7:f4:f3:
                    6b:31
                Exponent: 65537 (0x10001)
        X509v3 extensions:
            X509v3 Basic Constraints: 
                CA:FALSE
            X509v3 Key Usage: critical
                Digital Signature
            X509v3 Extended Key Usage: critical
                Code Signing, 1.3.6.1.4.1.311.61.1.1
            X509v3 Subject Key Identifier: 
                84:64:D8:EB:99:F9:7D:E6:B3:B9:11:04:90:D6:7A:80:20:0E:60:A9
            X509v3 Authority Key Identifier: 
                keyid:97:CA:73:53:A5:2E:B3:89:1A:A6:42:7D:A9:0F:93:FB:87:8C:01:18

            X509v3 Certificate Policies: 
                Policy: 1.3.6.1.4.1.23223.1.2.3
                  CPS: http://www.startssl.com/policy.pdf
                  User Notice:
                    Organization: StartCom Certification Authority
                    Number: 1
                    Explicit Text: This certificate was issued according to the Class 3 Validation requirements of the StartCom CA policy, reliance only for the intended purpose in compliance of the relying party obligations.

            X509v3 CRL Distribution Points: 

                Full Name:
                  URI:http://crl.startssl.com/crtc3-crl.crl

            Authority Information Access: 
                OCSP - URI:http://ocsp.startssl.com/sub/class3/code/ca
                CA Issuers - URI:http://aia.startssl.com/certs/sub.class3.code.ca.crt

            X509v3 Issuer Alternative Name: 
                URI:http://www.startssl.com/
    Signature Algorithm: sha256WithRSAEncryption
         59:61:47:22:dc:9b:33:bd:11:f6:f6:52:72:1b:c2:27:f6:d4:
         a0:e7:92:48:0e:4b:43:30:43:92:ca:d0:60:1c:a4:35:dd:60:
         6a:e3:2e:98:a7:fe:3a:00:b2:b6:0c:1b:98:45:c1:bd:22:82:
         bf:9e:cf:cf:ff:7a:bd:c9:01:0c:b3:20:8d:56:1a:65:d4:85:
         26:ca:49:3a:ed:39:c2:0b:f5:18:fa:46:56:24:38:ef:d0:00:
         17:7f:0c:fb:45:24:7a:9b:c5:cb:28:98:c5:ad:50:46:27:ee:
         bf:f8:f4:c9:01:05:47:33:13:c5:eb:3b:ed:c1:1a:94:1d:dc:
         8a:fe:d7:61:ea:01:92:29:4a:7e:0e:fa:05:a0:d5:b6:09:af:
         72:e1:a4:74:4d:b8:e1:f4:ea:fe:ed:a9:40:3e:ec:1a:b2:2b:
         0b:fc:0f:20:c7:03:d6:64:db:55:1b:ea:4a:07:e0:46:88:3e:
         82:de:60:1e:80:ac:35:28:a5:bf:e1:2d:80:35:29:1b:21:37:
         82:bd:3a:32:d3:30:84:47:a6:98:ce:7e:8f:e0:13:97:60:8a:
         3a:12:16:a9:3e:74:11:4a:2b:ba:c9:dd:3a:2d:7b:33:b6:ce:
         36:05:02:83:15:07:23:24:d5:cd:fc:a2:a4:f2:a0:dc:ab:02:
         d6:ce:ee:ac
-----BEGIN CERTIFICATE-----
MIIGVjCCBT6gAwIBAgIHEth1Su2oSjANBgkqhkiG9w0BAQsFADCBjDELMAkGA1UE
BhMCSUwxFjAUBgNVBAoTDVN0YXJ0Q29tIEx0ZC4xKzApBgNVBAsTIlNlY3VyZSBE
aWdpdGFsIENlcnRpZmljYXRlIFNpZ25pbmcxODA2BgNVBAMTL1N0YXJ0Q29tIENs
YXNzIDMgUHJpbWFyeSBJbnRlcm1lZGlhdGUgT2JqZWN0IENBMB4XDTE1MDkxMzEw
MTEyOFoXDTE4MDkxMzExMTcxNFowgYkxCzAJBgNVBAYTAkRFMRowGAYDVQQIFBFC
YWRlbi1X/HJ0dGVtYmVyZzESMBAGA1UEBxMJS2FybHNydWhlMRMwEQYDVQQKEwpB
dWRpYWxzIEFHMRMwEQYDVQQDEwpBdWRpYWxzIEFHMSAwHgYJKoZIhvcNAQkBFhFj
ZXJ0c0BhdWRpYWxzLmNvbTCCASIwDQYJKoZIhvcNAQEBBQADggEPADCCAQoCggEB
APOkwlzsdUzRZQuSrwArjfW1JpydS4dkaSeMnz0ftkCAULTKPrdcq/xHXgXaMbnJ
IHLcZH+Vv/g6GpFrty3YOmFyyz54eaEkOvLZt+LS/Y7bKdFL0WqS8dEGx1/2wr/d
nSHlmEFc+P6TnSK9vTz91HZK3QBSy3npEQSOnDoajS1I/spQ4mAMj/wpU+ey92oQ
cyrFxaSeB5HAV4po+m9iY8rp3p20GNY1m9Wgrr4yioocVvpAF6uhC2p5FMqAsaH9
9qYc+CGb23Hl3Uvb3Py2hGHRFTz0a/YCZzm8KEduJd3iNSAhjPFRDsUzn902QyMW
8wSt/T4RLgfqrsMS1/TzazECAwEAAaOCArwwggK4MAkGA1UdEwQCMAAwDgYDVR0P
AQH/BAQDAgeAMCIGA1UdJQEB/wQYMBYGCCsGAQUFBwMDBgorBgEEAYI3PQEBMB0G
A1UdDgQWBBSEZNjrmfl95rO5EQSQ1nqAIA5gqTAfBgNVHSMEGDAWgBSXynNTpS6z
iRqmQn2pD5P7h4wBGDCCAUwGA1UdIASCAUMwggE/MIIBOwYLKwYBBAGBtTcBAgMw
ggEqMC4GCCsGAQUFBwIBFiJodHRwOi8vd3d3LnN0YXJ0c3NsLmNvbS9wb2xpY3ku
cGRmMIH3BggrBgEFBQcCAjCB6jAnFiBTdGFydENvbSBDZXJ0aWZpY2F0aW9uIEF1
dGhvcml0eTADAgEBGoG+VGhpcyBjZXJ0aWZpY2F0ZSB3YXMgaXNzdWVkIGFjY29y
ZGluZyB0byB0aGUgQ2xhc3MgMyBWYWxpZGF0aW9uIHJlcXVpcmVtZW50cyBvZiB0
aGUgU3RhcnRDb20gQ0EgcG9saWN5LCByZWxpYW5jZSBvbmx5IGZvciB0aGUgaW50
ZW5kZWQgcHVycG9zZSBpbiBjb21wbGlhbmNlIG9mIHRoZSByZWx5aW5nIHBhcnR5
IG9ibGlnYXRpb25zLjA2BgNVHR8ELzAtMCugKaAnhiVodHRwOi8vY3JsLnN0YXJ0
c3NsLmNvbS9jcnRjMy1jcmwuY3JsMIGJBggrBgEFBQcBAQR9MHswNwYIKwYBBQUH
MAGGK2h0dHA6Ly9vY3NwLnN0YXJ0c3NsLmNvbS9zdWIvY2xhc3MzL2NvZGUvY2Ew
QAYIKwYBBQUHMAKGNGh0dHA6Ly9haWEuc3RhcnRzc2wuY29tL2NlcnRzL3N1Yi5j
bGFzczMuY29kZS5jYS5jcnQwIwYDVR0SBBwwGoYYaHR0cDovL3d3dy5zdGFydHNz
bC5jb20vMA0GCSqGSIb3DQEBCwUAA4IBAQBZYUci3JszvRH29lJyG8In9tSg55JI
DktDMEOSytBgHKQ13WBq4y6Yp/46ALK2DBuYRcG9IoK/ns/P/3q9yQEMsyCNVhpl
1IUmykk67TnCC/UY+kZWJDjv0AAXfwz7RSR6m8XLKJjFrVBGJ+6/+PTJAQVHMxPF
6zvtwRqUHdyK/tdh6gGSKUp+DvoFoNW2Ca9y4aR0Tbjh9Or+7alAPuwasisL/A8g
xwPWZNtVG+pKB+BGiD6C3mAegKw1KKW/4S2ANSkbITeCvToy0zCER6aYzn6P4BOX
YIo6EhapPnQRSiu6yd06LXszts42BQKDFQcjJNXN/KKk8qDcqwLWzu6s
-----END CERTIFICATE-----

