Certificate:
    Data:
        Version: 3 (0x2)
        Serial Number:
            34:4e:d5:57:20:d5:ed:ec:49:f4:2f:ce:37:db:2b:6d
    Signature Algorithm: sha1WithRSAEncryption
        Issuer: C=US, O=thawte, Inc., OU=Certification Services Division, OU=(c) 2006 thawte, Inc. - For authorized use only, CN=thawte Primary Root CA
        Validity
            Not Before: Nov 17 00:00:00 2006 GMT
            Not After : Jul 16 23:59:59 2036 GMT
        Subject: C=US, O=thawte, Inc., OU=Certification Services Division, OU=(c) 2006 thawte, Inc. - For authorized use only, CN=thawte Primary Root CA
        Subject Public Key Info:
            Public Key Algorithm: rsaEncryption
                Public-Key: (2048 bit)
                Modulus:
                    00:ac:a0:f0:fb:80:59:d4:9c:c7:a4:cf:9d:a1:59:
                    73:09:10:45:0c:0d:2c:6e:68:f1:6c:5b:48:68:49:
                    59:37:fc:0b:33:19:c2:77:7f:cc:10:2d:95:34:1c:
                    e6:eb:4d:09:a7:1c:d2:b8:c9:97:36:02:b7:89:d4:
                    24:5f:06:c0:cc:44:94:94:8d:02:62:6f:eb:5a:dd:
                    11:8d:28:9a:5c:84:90:10:7a:0d:bd:74:66:2f:6a:
                    38:a0:e2:d5:54:44:eb:1d:07:9f:07:ba:6f:ee:e9:
                    fd:4e:0b:29:f5:3e:84:a0:01:f1:9c:ab:f8:1c:7e:
                    89:a4:e8:a1:d8:71:65:0d:a3:51:7b:ee:bc:d2:22:
                    60:0d:b9:5b:9d:df:ba:fc:51:5b:0b:af:98:b2:e9:
                    2e:e9:04:e8:62:87:de:2b:c8:d7:4e:c1:4c:64:1e:
                    dd:cf:87:58:ba:4a:4f:ca:68:07:1d:1c:9d:4a:c6:
                    d5:2f:91:cc:7c:71:72:1c:c5:c0:67:eb:32:fd:c9:
                    92:5c:94:da:85:c0:9b:bf:53:7d:2b:09:f4:8c:9d:
                    91:1f:97:6a:52:cb:de:09:36:a4:77:d8:7b:87:50:
                    44:d5:3e:6e:29:69:fb:39:49:26:1e:09:a5:80:7b:
                    40:2d:eb:e8:27:85:c9:fe:61:fd:7e:e6:7c:97:1d:
                    d5:9d
                Exponent: 65537 (0x10001)
        X509v3 extensions:
            X509v3 Basic Constraints: critical
                CA:TRUE
            X509v3 Key Usage: critical
                Certificate Sign, CRL Sign
            X509v3 Subject Key Identifier: 
                7B:5B:45:CF:AF:CE:CB:7A:FD:31:92:1A:6A:B6:F3:46:EB:57:48:50
    Signature Algorithm: sha1WithRSAEncryption
         79:11:c0:4b:b3:91:b6:fc:f0:e9:67:d4:0d:6e:45:be:55:e8:
         93:d2:ce:03:3f:ed:da:25:b0:1d:57:cb:1e:3a:76:a0:4c:ec:
         50:76:e8:64:72:0c:a4:a9:f1:b8:8b:d6:d6:87:84:bb:32:e5:
         41:11:c0:77:d9:b3:60:9d:eb:1b:d5:d1:6e:44:44:a9:a6:01:
         ec:55:62:1d:77:b8:5c:8e:48:49:7c:9c:3b:57:11:ac:ad:73:
         37:8e:2f:78:5c:90:68:47:d9:60:60:e6:fc:07:3d:22:20:17:
         c4:f7:16:e9:c4:d8:72:f9:c8:73:7c:df:16:2f:15:a9:3e:fd:
         6a:27:b6:a1:eb:5a:ba:98:1f:d5:e3:4d:64:0a:9d:13:c8:61:
         ba:f5:39:1c:87:ba:b8:bd:7b:22:7f:f6:fe:ac:40:79:e5:ac:
         10:6f:3d:8f:1b:79:76:8b:c4:37:b3:21:18:84:e5:36:00:eb:
         63:20:99:b9:e9:fe:33:04:bb:41:c8:c1:02:f9:44:63:20:9e:
         81:ce:42:d3:d6:3f:2c:76:d3:63:9c:59:dd:8f:a6:e1:0e:a0:
         2e:41:f7:2e:95:47:cf:bc:fd:33:f3:f6:0b:61:7e:7e:91:2b:
         81:47:c2:27:30:ee:a7:10:5d:37:8f:5c:39:2b:e4:04:f0:7b:
         8d:56:8c:68
-----BEGIN CERTIFICATE-----
MIIEIDCCAwigAwIBAgIQNE7VVyDV7exJ9C/ON9srbTANBgkqhkiG9w0BAQUFADCB
qTELMAkGA1UEBhMCVVMxFTATBgNVBAoTDHRoYXd0ZSwgSW5jLjEoMCYGA1UECxMf
Q2VydGlmaWNhdGlvbiBTZXJ2aWNlcyBEaXZpc2lvbjE4MDYGA1UECxMvKGMpIDIw
MDYgdGhhd3RlLCBJbmMuIC0gRm9yIGF1dGhvcml6ZWQgdXNlIG9ubHkxHzAdBgNV
BAMTFnRoYXd0ZSBQcmltYXJ5IFJvb3QgQ0EwHhcNMDYxMTE3MDAwMDAwWhcNMzYw
NzE2MjM1OTU5WjCBqTELMAkGA1UEBhMCVVMxFTATBgNVBAoTDHRoYXd0ZSwgSW5j
LjEoMCYGA1UECxMfQ2VydGlmaWNhdGlvbiBTZXJ2aWNlcyBEaXZpc2lvbjE4MDYG
A1UECxMvKGMpIDIwMDYgdGhhd3RlLCBJbmMuIC0gRm9yIGF1dGhvcml6ZWQgdXNl
IG9ubHkxHzAdBgNVBAMTFnRoYXd0ZSBQcmltYXJ5IFJvb3QgQ0EwggEiMA0GCSqG
SIb3DQEBAQUAA4IBDwAwggEKAoIBAQCsoPD7gFnUnMekz52hWXMJEEUMDSxuaPFs
W0hoSVk3/AszGcJ3f8wQLZU0HObrTQmnHNK4yZc2AreJ1CRfBsDMRJSUjQJib+ta
3RGNKJpchJAQeg29dGYvajig4tVUROsdB58Hum/u6f1OCyn1PoSgAfGcq/gcfomk
6KHYcWUNo1F77rzSImANuVud37r8UVsLr5iy6S7pBOhih94ryNdOwUxkHt3Ph1i6
Sk/KaAcdHJ1KxtUvkcx8cXIcxcBn6zL9yZJclNqFwJu/U30rCfSMnZEfl2pSy94J
NqR32HuHUETVPm4pafs5SSYeCaWAe0At6+gnhcn+Yf1+5nyXHdWdAgMBAAGjQjBA
MA8GA1UdEwEB/wQFMAMBAf8wDgYDVR0PAQH/BAQDAgEGMB0GA1UdDgQWBBR7W0XP
r87Lev0xkhpqtvNG61dIUDANBgkqhkiG9w0BAQUFAAOCAQEAeRHAS7ORtvzw6WfU
DW5FvlXok9LOAz/t2iWwHVfLHjp2oEzsUHboZHIMpKnxuIvW1oeEuzLlQRHAd9mz
YJ3rG9XRbkREqaYB7FViHXe4XI5ISXycO1cRrK1zN44veFyQaEfZYGDm/Ac9IiAX
xPcW6cTYcvnIc3zfFi8VqT79aie2oetaupgf1eNNZAqdE8hhuvU5HIe6uL17In/2
/qxAeeWsEG89jxt5dovEN7MhGITlNgDrYyCZuen+MwS7QcjBAvlEYyCegc5C09Y/
LHbTY5xZ3Y+m4Q6gLkH3LpVHz7z9M/P2C2F+fpErgUfCJzDupxBdN49cOSvkBPB7
jVaMaA==
-----END CERTIFICATE-----

Certificate:
    Data:
        Version: 3 (0x2)
        Serial Number:
            71:a0:b7:36:95:dd:b1:af:c2:3b:2b:9a:18:ee:54:cb
    Signature Algorithm: sha256WithRSAEncryption
        Issuer: C=US, O=thawte, Inc., OU=Certification Services Division, OU=(c) 2006 thawte, Inc. - For authorized use only, CN=thawte Primary Root CA
        Validity
            Not Before: Dec 10 00:00:00 2013 GMT
            Not After : Dec  9 23:59:59 2023 GMT
        Subject: C=US, O=thawte, Inc., CN=thawte SHA256 Code Signing CA
        Subject Public Key Info:
            Public Key Algorithm: rsaEncryption
                Public-Key: (2048 bit)
                Modulus:
                    00:9b:55:02:4c:17:05:e9:d0:66:c3:fc:28:ad:d3:
                    c0:fe:ef:e0:e9:7e:d4:1e:f6:aa:1b:91:46:fd:f5:
                    16:ed:98:07:53:fa:ba:87:1b:7d:9e:1f:01:27:ab:
                    b9:d2:67:ca:b7:10:25:53:f4:e3:be:9b:90:b8:ed:
                    23:5c:42:ef:64:25:58:e5:88:22:1a:be:f5:c7:ae:
                    f5:be:8a:b1:11:11:93:1a:22:a9:74:69:c1:74:b6:
                    68:87:a7:83:30:f9:64:f1:b1:e3:38:3e:f4:d6:c1:
                    fc:12:fe:73:57:17:35:57:8a:dd:50:8d:03:f8:66:
                    cd:ca:76:83:13:c8:d7:0e:71:1d:e4:63:c9:ba:17:
                    f8:d1:b9:e4:88:d2:2c:28:c8:21:20:0d:41:b7:0b:
                    e2:2f:c2:80:e6:88:7b:53:6c:c3:44:63:81:7f:68:
                    47:8c:2b:2a:cf:5b:f4:8c:49:61:ba:69:85:fd:6b:
                    00:78:05:26:69:13:30:80:38:4e:f1:5a:55:c9:c5:
                    50:d6:aa:38:89:47:43:5c:fe:4d:73:a5:49:c5:93:
                    69:fe:77:96:9a:af:f3:8c:0e:57:ba:33:d9:0e:c6:
                    42:d3:03:77:c4:bb:39:ad:91:f9:f3:f7:96:5c:3a:
                    64:a6:ed:27:57:c1:e8:40:f3:53:f2:be:29:34:fe:
                    5f:f9
                Exponent: 65537 (0x10001)
        X509v3 extensions:
            Authority Information Access: 
                OCSP - URI:http://t2.symcb.com

            X509v3 Basic Constraints: critical
                CA:TRUE, pathlen:0
            X509v3 CRL Distribution Points: 

                Full Name:
                  URI:http://t1.symcb.com/ThawtePCA.crl

            X509v3 Extended Key Usage: 
                TLS Web Client Authentication, Code Signing
            X509v3 Key Usage: critical
                Certificate Sign, CRL Sign
            X509v3 Subject Alternative Name: 
                DirName:/CN=SymantecPKI-1-568
            X509v3 Subject Key Identifier: 
                57:86:9B:54:B8:BE:A6:29:8A:E4:F6:C2:E2:13:18:89:85:CD:DC:B7
            X509v3 Authority Key Identifier: 
                keyid:7B:5B:45:CF:AF:CE:CB:7A:FD:31:92:1A:6A:B6:F3:46:EB:57:48:50

    Signature Algorithm: sha256WithRSAEncryption
         24:3b:f5:d7:a0:36:13:c7:43:fe:f0:09:87:68:d1:98:31:6e:
         12:e4:3f:1e:1f:96:7b:6b:4c:1e:87:9e:8b:c5:6c:a3:b1:0c:
         7b:50:92:d5:81:9c:b1:8f:2c:29:b7:ee:f9:91:05:b9:8e:41:
         f1:2c:f6:d0:59:2d:98:e0:b9:ea:80:01:47:40:95:b8:3d:9d:
         03:bd:79:bb:35:b6:ad:9c:4c:27:f6:67:45:10:c9:c5:bc:87:
         4e:55:7b:d2:87:bb:dd:dc:30:ef:c6:d4:6c:cc:99:35:6d:1c:
         e0:60:d3:cd:68:8f:29:59:4b:89:96:08:46:c9:8e:fc:75:4f:
         c5:dc:09:cc:4e:27:8b:44:cd:07:bc:ac:04:e0:b5:33:a5:87:
         9f:f4:dd:73:0c:91:ea:12:81:6f:e3:75:f0:1e:b5:93:6c:44:
         17:d5:3e:97:c9:bd:07:2c:56:77:1f:85:dd:46:e8:bf:de:2c:
         81:94:a3:f7:e5:b7:a7:c1:37:9f:75:ca:55:77:4d:5e:36:29:
         ca:85:d8:45:41:72:57:75:c0:79:5b:fa:34:10:06:6d:64:20:
         42:b7:3a:c8:1f:1d:46:64:02:5f:c6:47:be:f0:c4:3a:28:54:
         da:f6:1e:4f:9a:a2:19:43:a4:6f:49:f8:fc:5e:42:20:28:84:
         8b:47:20:6e
-----BEGIN CERTIFICATE-----
MIIEmTCCA4GgAwIBAgIQcaC3NpXdsa/COyuaGO5UyzANBgkqhkiG9w0BAQsFADCB
qTELMAkGA1UEBhMCVVMxFTATBgNVBAoTDHRoYXd0ZSwgSW5jLjEoMCYGA1UECxMf
Q2VydGlmaWNhdGlvbiBTZXJ2aWNlcyBEaXZpc2lvbjE4MDYGA1UECxMvKGMpIDIw
MDYgdGhhd3RlLCBJbmMuIC0gRm9yIGF1dGhvcml6ZWQgdXNlIG9ubHkxHzAdBgNV
BAMTFnRoYXd0ZSBQcmltYXJ5IFJvb3QgQ0EwHhcNMTMxMjEwMDAwMDAwWhcNMjMx
MjA5MjM1OTU5WjBMMQswCQYDVQQGEwJVUzEVMBMGA1UEChMMdGhhd3RlLCBJbmMu
MSYwJAYDVQQDEx10aGF3dGUgU0hBMjU2IENvZGUgU2lnbmluZyBDQTCCASIwDQYJ
KoZIhvcNAQEBBQADggEPADCCAQoCggEBAJtVAkwXBenQZsP8KK3TwP7v4Ol+1B72
qhuRRv31Fu2YB1P6uocbfZ4fASerudJnyrcQJVP0476bkLjtI1xC72QlWOWIIhq+
9ceu9b6KsRERkxoiqXRpwXS2aIengzD5ZPGx4zg+9NbB/BL+c1cXNVeK3VCNA/hm
zcp2gxPI1w5xHeRjyboX+NG55IjSLCjIISANQbcL4i/CgOaIe1Nsw0RjgX9oR4wr
Ks9b9IxJYbpphf1rAHgFJmkTMIA4TvFaVcnFUNaqOIlHQ1z+TXOlScWTaf53lpqv
84wOV7oz2Q7GQtMDd8S7Oa2R+fP3llw6ZKbtJ1fB6EDzU/K+KTT+X/kCAwEAAaOC
ARcwggETMC8GCCsGAQUFBwEBBCMwITAfBggrBgEFBQcwAYYTaHR0cDovL3QyLnN5
bWNiLmNvbTASBgNVHRMBAf8ECDAGAQH/AgEAMDIGA1UdHwQrMCkwJ6AloCOGIWh0
dHA6Ly90MS5zeW1jYi5jb20vVGhhd3RlUENBLmNybDAdBgNVHSUEFjAUBggrBgEF
BQcDAgYIKwYBBQUHAwMwDgYDVR0PAQH/BAQDAgEGMCkGA1UdEQQiMCCkHjAcMRow
GAYDVQQDExFTeW1hbnRlY1BLSS0xLTU2ODAdBgNVHQ4EFgQUV4abVLi+pimK5PbC
4hMYiYXN3LcwHwYDVR0jBBgwFoAUe1tFz6/Oy3r9MZIaarbzRutXSFAwDQYJKoZI
hvcNAQELBQADggEBACQ79degNhPHQ/7wCYdo0ZgxbhLkPx4flntrTB6HnovFbKOx
DHtQktWBnLGPLCm37vmRBbmOQfEs9tBZLZjgueqAAUdAlbg9nQO9ebs1tq2cTCf2
Z0UQycW8h05Ve9KHu93cMO/G1GzMmTVtHOBg081ojylZS4mWCEbJjvx1T8XcCcxO
J4tEzQe8rATgtTOlh5/03XMMkeoSgW/jdfAetZNsRBfVPpfJvQcsVncfhd1G6L/e
LIGUo/flt6fBN591ylV3TV42KcqF2EVBcld1wHlb+jQQBm1kIEK3OsgfHUZkAl/G
R77wxDooVNr2Hk+aohlDpG9J+PxeQiAohItHIG4=
-----END CERTIFICATE-----

Certificate:
    Data:
        Version: 3 (0x2)
        Serial Number:
            62:78:8f:f0:fd:c4:f8:e6:97:6d:4d:1c:d9:db:1b:86
    Signature Algorithm: sha256WithRSAEncryption
        Issuer: C=US, O=thawte, Inc., CN=thawte SHA256 Code Signing CA
        Validity
            Not Before: Feb 16 00:00:00 2018 GMT
            Not After : Feb 16 23:59:59 2019 GMT
        Subject: C=GB, L=London, O=AJHQ Limited, OU=IT, CN=AJHQ Limited
        Subject Public Key Info:
            Public Key Algorithm: rsaEncryption
                Public-Key: (2048 bit)
                Modulus:
                    00:bc:47:27:ab:c0:3b:93:c3:a4:0a:fb:c2:ea:d5:
                    93:20:5f:df:ca:82:e1:d5:b9:4a:0b:a1:2a:43:29:
                    72:3f:c9:a4:13:e8:e2:78:3a:12:88:8c:ab:1c:28:
                    ae:6f:20:bb:01:21:1a:9b:75:58:79:63:60:3e:ad:
                    8a:0d:15:70:f9:90:42:c6:11:77:93:0e:d7:8e:00:
                    7c:03:7d:f7:de:bf:2e:a4:32:fe:90:6b:22:f3:59:
                    e3:34:5a:88:a7:f5:8a:b6:02:48:d7:7b:9e:16:e8:
                    7f:c4:0c:87:40:c2:38:87:18:ed:d2:23:7d:5a:c2:
                    36:09:7b:a6:4e:fd:e9:2b:6e:9b:79:d4:60:dd:cf:
                    f7:e4:30:5a:10:24:b9:22:23:b9:c1:ba:d8:a3:35:
                    76:dd:f5:0c:ba:d1:dc:d6:bf:dc:b7:e1:b3:b0:6e:
                    b8:ea:39:e5:01:ef:ec:cb:0d:f8:2d:ef:7c:df:e5:
                    4a:04:25:5f:53:a6:c0:27:36:a2:ca:da:51:33:c1:
                    41:80:a6:a5:06:22:1e:00:64:90:cd:ba:68:49:fb:
                    14:6f:6f:fc:4d:be:f3:2f:85:8c:2c:21:e5:18:05:
                    22:5c:df:e9:16:12:e1:42:c1:29:bc:e6:13:1c:85:
                    43:53:22:1a:51:40:52:cf:b4:89:f0:a2:02:34:3d:
                    f2:47
                Exponent: 65537 (0x10001)
        X509v3 extensions:
            X509v3 Basic Constraints: 
                CA:FALSE
            X509v3 Authority Key Identifier: 
                keyid:57:86:9B:54:B8:BE:A6:29:8A:E4:F6:C2:E2:13:18:89:85:CD:DC:B7

            X509v3 Subject Key Identifier: 
                21:B4:B2:F9:A4:01:14:C6:80:71:F5:60:BF:C5:C1:2E:55:A2:FF:49
            X509v3 CRL Distribution Points: 

                Full Name:
                  URI:http://tl.symcb.com/tl.crl

            X509v3 Key Usage: critical
                Digital Signature
            X509v3 Extended Key Usage: 
                Code Signing
            X509v3 Certificate Policies: 
                Policy: 2.23.140.1.4.1
                  CPS: https://www.thawte.com/cps
                  User Notice:
                    Explicit Text: https://www.thawte.com/repository

            Authority Information Access: 
                OCSP - URI:http://tl.symcd.com
                CA Issuers - URI:http://tl.symcb.com/tl.crt

    Signature Algorithm: sha256WithRSAEncryption
         7a:2d:6a:7f:3c:d5:df:61:09:b2:cb:d5:e5:b6:5e:05:7b:6e:
         6d:7d:96:5f:f4:ee:73:d2:59:7f:99:d8:c8:1b:43:14:e3:65:
         47:ef:36:b7:30:f8:6a:78:0a:8d:63:97:69:fb:fc:c4:95:ee:
         0d:cb:f1:50:05:f5:28:3d:fc:96:97:e6:41:8d:01:da:de:65:
         c9:41:6e:cf:f5:f7:56:c0:a9:40:8a:28:bc:b5:87:6b:ec:6e:
         02:aa:93:f8:b2:ed:ce:74:ef:f0:01:04:d2:35:38:67:73:bb:
         e2:5a:c3:57:30:84:b3:0e:02:a1:1c:45:d6:65:95:99:6d:c9:
         1b:ab:8b:d1:d5:9e:29:84:2d:9d:c4:1d:49:1b:1d:38:21:96:
         32:70:19:1e:41:05:73:26:dd:05:18:17:3e:24:e1:0b:a0:42:
         37:d8:78:83:2b:47:8b:ef:23:86:a2:ed:bf:c9:bd:da:d1:35:
         e1:c3:fa:be:09:8e:45:ad:5d:45:b6:e0:24:d3:9e:c9:8c:2d:
         3c:18:3e:57:cc:e8:d3:12:b6:2f:87:2b:11:f0:db:fa:05:1b:
         ba:db:5d:e9:2f:3a:0b:bc:14:20:71:64:32:0a:88:b6:1f:ba:
         93:7f:1b:f5:2f:c5:63:74:f5:5b:07:6f:5a:6e:f7:3a:df:ac:
         a4:30:2c:74
-----BEGIN CERTIFICATE-----
MIIEmzCCA4OgAwIBAgIQYniP8P3E+OaXbU0c2dsbhjANBgkqhkiG9w0BAQsFADBM
MQswCQYDVQQGEwJVUzEVMBMGA1UEChMMdGhhd3RlLCBJbmMuMSYwJAYDVQQDEx10
aGF3dGUgU0hBMjU2IENvZGUgU2lnbmluZyBDQTAeFw0xODAyMTYwMDAwMDBaFw0x
OTAyMTYyMzU5NTlaMFkxCzAJBgNVBAYTAkdCMQ8wDQYDVQQHDAZMb25kb24xFTAT
BgNVBAoMDEFKSFEgTGltaXRlZDELMAkGA1UECwwCSVQxFTATBgNVBAMMDEFKSFEg
TGltaXRlZDCCASIwDQYJKoZIhvcNAQEBBQADggEPADCCAQoCggEBALxHJ6vAO5PD
pAr7wurVkyBf38qC4dW5SguhKkMpcj/JpBPo4ng6EoiMqxworm8guwEhGpt1WHlj
YD6tig0VcPmQQsYRd5MO144AfAN9996/LqQy/pBrIvNZ4zRaiKf1irYCSNd7nhbo
f8QMh0DCOIcY7dIjfVrCNgl7pk796Stum3nUYN3P9+QwWhAkuSIjucG62KM1dt31
DLrR3Na/3Lfhs7BuuOo55QHv7MsN+C3vfN/lSgQlX1OmwCc2osraUTPBQYCmpQYi
HgBkkM26aEn7FG9v/E2+8y+FjCwh5RgFIlzf6RYS4ULBKbzmExyFQ1MiGlFAUs+0
ifCiAjQ98kcCAwEAAaOCAWowggFmMAkGA1UdEwQCMAAwHwYDVR0jBBgwFoAUV4ab
VLi+pimK5PbC4hMYiYXN3LcwHQYDVR0OBBYEFCG0svmkARTGgHH1YL/FwS5Vov9J
MCsGA1UdHwQkMCIwIKAeoByGGmh0dHA6Ly90bC5zeW1jYi5jb20vdGwuY3JsMA4G
A1UdDwEB/wQEAwIHgDATBgNVHSUEDDAKBggrBgEFBQcDAzBuBgNVHSAEZzBlMGMG
BmeBDAEEATBZMCYGCCsGAQUFBwIBFhpodHRwczovL3d3dy50aGF3dGUuY29tL2Nw
czAvBggrBgEFBQcCAjAjDCFodHRwczovL3d3dy50aGF3dGUuY29tL3JlcG9zaXRv
cnkwVwYIKwYBBQUHAQEESzBJMB8GCCsGAQUFBzABhhNodHRwOi8vdGwuc3ltY2Qu
Y29tMCYGCCsGAQUFBzAChhpodHRwOi8vdGwuc3ltY2IuY29tL3RsLmNydDANBgkq
hkiG9w0BAQsFAAOCAQEAei1qfzzV32EJssvV5bZeBXtubX2WX/Tuc9JZf5nYyBtD
FONlR+82tzD4angKjWOXafv8xJXuDcvxUAX1KD38lpfmQY0B2t5lyUFuz/X3VsCp
QIoovLWHa+xuAqqT+LLtznTv8AEE0jU4Z3O74lrDVzCEsw4CoRxF1mWVmW3JG6uL
0dWeKYQtncQdSRsdOCGWMnAZHkEFcybdBRgXPiThC6BCN9h4gytHi+8jhqLtv8m9
2tE14cP6vgmORa1dRbbgJNOeyYwtPBg+V8zo0xK2L4crEfDb+gUbuttd6S86C7wU
IHFkMgqIth+6k38b9S/FY3T1WwdvWm73Ot+spDAsdA==
-----END CERTIFICATE-----

