Certificate:
    Data:
        Version: 3 (0x2)
        Serial Number:
            38:25:d7:fa:f8:61:af:9e:f4:90:e7:26:b5:d6:5a:d5
    Signature Algorithm: sha1WithRSAEncryption
        Issuer: C=US, O=VeriSign, Inc., CN=VeriSign Time Stamping Services CA
        Validity
            Not Before: Jun 15 00:00:00 2007 GMT
            Not After : Jun 14 23:59:59 2012 GMT
        Subject: C=US, O=VeriSign, Inc., CN=VeriSign Time Stamping Services Signer - G2
        Subject Public Key Info:
            Public Key Algorithm: rsaEncryption
                Public-Key: (1024 bit)
                Modulus:
                    00:c4:b5:f2:52:15:bc:88:86:60:29:16:4a:5b:2f:
                    4b:91:6b:87:91:f3:35:54:58:35:ea:d1:36:5e:62:
                    4d:52:51:34:71:c2:7b:66:1d:89:c8:dd:2a:c4:6a:
                    0a:f6:37:d9:98:74:91:f6:92:ae:b0:b5:76:96:f1:
                    a9:4a:63:45:47:2e:6b:0b:92:4e:4b:2b:8c:ee:58:
                    4a:8b:d4:07:e4:1a:2c:f8:82:aa:58:d9:cd:42:f3:
                    2d:c0:75:de:8d:ab:c7:8e:1d:9a:6c:4c:08:95:1e:
                    de:db:ef:67:e1:72:c2:49:c2:9e:60:3c:e1:e2:be:
                    16:a3:63:78:69:14:7b:ad:2d
                Exponent: 65537 (0x10001)
        X509v3 extensions:
            Authority Information Access: 
                OCSP - URI:http://ocsp.verisign.com

            X509v3 Basic Constraints: critical
                CA:FALSE
            X509v3 CRL Distribution Points: 

                Full Name:
                  URI:http://crl.verisign.com/tss-ca.crl

            X509v3 Extended Key Usage: critical
                Time Stamping
            X509v3 Key Usage: critical
                Digital Signature, Non Repudiation
            X509v3 Subject Alternative Name: 
                DirName:/CN=TSA1-2
    Signature Algorithm: sha1WithRSAEncryption
         50:c5:4b:c8:24:80:df:e4:0d:24:c2:de:1a:b1:a1:02:a1:a6:
         82:2d:0c:83:15:81:37:0a:82:0e:2c:b0:5a:17:61:b5:d8:05:
         fe:88:db:f1:91:91:b3:56:1a:40:a6:eb:92:be:38:39:b0:75:
         36:74:3a:98:4f:e4:37:ba:99:89:ca:95:42:1d:b0:b9:c7:a0:
         8d:57:e0:fa:d5:64:04:42:35:4e:01:d1:33:a2:17:c8:4d:aa:
         27:c7:f2:e1:86:4c:02:38:4d:83:78:c6:fc:53:e0:eb:e0:06:
         87:dd:a4:96:9e:5e:0c:98:e2:a5:be:bf:82:85:c3:60:e1:df:
         ad:28:d8:c7:a5:4b:64:da:c7:1b:5b:bd:ac:39:08:d5:38:22:
         a1:33:8b:2f:8a:9a:eb:bc:07:21:3f:44:41:09:07:b5:65:1c:
         24:bc:48:d3:44:80:eb:a1:cf:c9:02:b4:14:cf:54:c7:16:a3:
         80:5c:f9:79:3e:5d:72:7d:88:17:9e:2c:43:a2:ca:53:ce:7d:
         3d:f6:2a:3a:b8:4f:94:00:a5:6d:0a:83:5d:f9:5e:53:f4:18:
         b3:57:0f:70:c3:fb:f5:ad:95:a0:0e:17:de:c4:16:80:60:c9:
         0f:2b:6e:86:04:f1:eb:f4:78:27:d1:05:c5:ee:34:5b:5e:b9:
         49:32:f2:33
-----BEGIN CERTIFICATE-----
MIIDejCCAmKgAwIBAgIQOCXX+vhhr570kOcmtdZa1TANBgkqhkiG9w0BAQUFADBT
MQswCQYDVQQGEwJVUzEXMBUGA1UEChMOVmVyaVNpZ24sIEluYy4xKzApBgNVBAMT
IlZlcmlTaWduIFRpbWUgU3RhbXBpbmcgU2VydmljZXMgQ0EwHhcNMDcwNjE1MDAw
MDAwWhcNMTIwNjE0MjM1OTU5WjBcMQswCQYDVQQGEwJVUzEXMBUGA1UEChMOVmVy
aVNpZ24sIEluYy4xNDAyBgNVBAMTK1ZlcmlTaWduIFRpbWUgU3RhbXBpbmcgU2Vy
dmljZXMgU2lnbmVyIC0gRzIwgZ8wDQYJKoZIhvcNAQEBBQADgY0AMIGJAoGBAMS1
8lIVvIiGYCkWSlsvS5Frh5HzNVRYNerRNl5iTVJRNHHCe2YdicjdKsRqCvY32Zh0
kfaSrrC1dpbxqUpjRUcuawuSTksrjO5YSovUB+QaLPiCqljZzULzLcB13o2rx44d
mmxMCJUe3tvvZ+FywknCnmA84eK+FqNjeGkUe60tAgMBAAGjgcQwgcEwNAYIKwYB
BQUHAQEEKDAmMCQGCCsGAQUFBzABhhhodHRwOi8vb2NzcC52ZXJpc2lnbi5jb20w
DAYDVR0TAQH/BAIwADAzBgNVHR8ELDAqMCigJqAkhiJodHRwOi8vY3JsLnZlcmlz
aWduLmNvbS90c3MtY2EuY3JsMBYGA1UdJQEB/wQMMAoGCCsGAQUFBwMIMA4GA1Ud
DwEB/wQEAwIGwDAeBgNVHREEFzAVpBMwETEPMA0GA1UEAxMGVFNBMS0yMA0GCSqG
SIb3DQEBBQUAA4IBAQBQxUvIJIDf5A0kwt4asaECoaaCLQyDFYE3CoIOLLBaF2G1
2AX+iNvxkZGzVhpApuuSvjg5sHU2dDqYT+Q3upmJypVCHbC5x6CNV+D61WQEQjVO
AdEzohfITaonx/LhhkwCOE2DeMb8U+Dr4AaH3aSWnl4MmOKlvr+ChcNg4d+tKNjH
pUtk2scbW72sOQjVOCKhM4sviprrvAchP0RBCQe1ZRwkvEjTRIDroc/JArQUz1TH
FqOAXPl5Pl1yfYgXnixDospTzn099io6uE+UAKVtCoNd+V5T9BizVw9ww/v1rZWg
DhfexBaAYMkPK26GBPHr9Hgn0QXF7jRbXrlJMvIz
-----END CERTIFICATE-----

Certificate:
    Data:
        Version: 3 (0x2)
        Serial Number:
            47:bf:19:95:df:8d:52:46:43:f7:db:6d:48:0d:31:a4
    Signature Algorithm: sha1WithRSAEncryption
        Issuer: C=ZA, ST=Western Cape, L=Durbanville, O=Thawte, OU=Thawte Certification, CN=Thawte Timestamping CA
        Validity
            Not Before: Dec  4 00:00:00 2003 GMT
            Not After : Dec  3 23:59:59 2013 GMT
        Subject: C=US, O=VeriSign, Inc., CN=VeriSign Time Stamping Services CA
        Subject Public Key Info:
            Public Key Algorithm: rsaEncryption
                Public-Key: (2048 bit)
                Modulus:
                    00:a9:ca:b2:a4:cc:cd:20:af:0a:7d:89:ac:87:75:
                    f0:b4:4e:f1:df:c1:0f:bf:67:61:bd:a3:64:1c:da:
                    bb:f9:ca:33:ab:84:30:89:58:7e:8c:db:6b:dd:36:
                    9e:0f:bf:d1:ec:78:f2:77:a6:7e:6f:3c:bf:93:af:
                    0d:ba:68:f4:6c:94:ca:bd:52:2d:ab:48:3d:f5:b6:
                    d5:5d:5f:1b:02:9f:fa:2f:6b:1e:a4:f7:a3:9a:a6:
                    1a:c8:02:e1:7f:4c:52:e3:0e:60:ec:40:1c:7e:b9:
                    0d:de:3f:c7:b4:df:87:bd:5f:7a:6a:31:2e:03:99:
                    81:13:a8:47:20:ce:31:73:0d:57:2d:cd:78:34:33:
                    95:12:99:12:b9:de:68:2f:aa:e6:e3:c2:8a:8c:2a:
                    c3:8b:21:87:66:bd:83:58:57:6f:75:bf:3c:aa:26:
                    87:5d:ca:10:15:3c:9f:84:ea:54:c1:0a:6e:c4:fe:
                    c5:4a:dd:b9:07:11:97:22:7c:db:3e:27:d1:1e:78:
                    ec:9f:31:c9:f1:e6:22:19:db:c4:b3:47:43:9a:1a:
                    5f:a0:1e:90:e4:5e:f5:ee:7c:f1:7d:ab:62:01:8f:
                    f5:4d:0b:de:d0:22:56:a8:95:cd:ae:88:76:ae:ee:
                    ba:0d:f3:e4:4d:d9:a0:fb:68:a0:ae:14:3b:b3:87:
                    c1:bb
                Exponent: 65537 (0x10001)
        X509v3 extensions:
            Authority Information Access: 
                OCSP - URI:http://ocsp.verisign.com

            X509v3 Basic Constraints: critical
                CA:TRUE, pathlen:0
            X509v3 CRL Distribution Points: 

                Full Name:
                  URI:http://crl.verisign.com/ThawteTimestampingCA.crl

            X509v3 Extended Key Usage: 
                Time Stamping
            X509v3 Key Usage: critical
                Certificate Sign, CRL Sign
            X509v3 Subject Alternative Name: 
                DirName:/CN=TSA2048-1-53
    Signature Algorithm: sha1WithRSAEncryption
         4a:6b:f9:ea:58:c2:44:1c:31:89:79:99:2b:96:bf:82:ac:01:
         d6:1c:4c:cd:b0:8a:58:6e:df:08:29:a3:5e:c8:ca:93:13:e7:
         04:52:0d:ef:47:27:2f:00:38:b0:e4:c9:93:4e:9a:d4:22:62:
         15:f7:3f:37:21:4f:70:31:80:f1:8b:38:87:b3:e8:e8:97:00:
         fe:cf:55:96:4e:24:d2:a9:27:4e:7a:ae:b7:61:41:f3:2a:ce:
         e7:c9:d9:5e:dd:bb:2b:85:3e:b5:9d:b5:d9:e1:57:ff:be:b4:
         c5:7e:f5:cf:0c:9e:f0:97:fe:2b:d3:3b:52:1b:1b:38:27:f7:
         3f:4a
-----BEGIN CERTIFICATE-----
MIIDxDCCAy2gAwIBAgIQR78Zld+NUkZD99ttSA0xpDANBgkqhkiG9w0BAQUFADCB
izELMAkGA1UEBhMCWkExFTATBgNVBAgTDFdlc3Rlcm4gQ2FwZTEUMBIGA1UEBxML
RHVyYmFudmlsbGUxDzANBgNVBAoTBlRoYXd0ZTEdMBsGA1UECxMUVGhhd3RlIENl
cnRpZmljYXRpb24xHzAdBgNVBAMTFlRoYXd0ZSBUaW1lc3RhbXBpbmcgQ0EwHhcN
MDMxMjA0MDAwMDAwWhcNMTMxMjAzMjM1OTU5WjBTMQswCQYDVQQGEwJVUzEXMBUG
A1UEChMOVmVyaVNpZ24sIEluYy4xKzApBgNVBAMTIlZlcmlTaWduIFRpbWUgU3Rh
bXBpbmcgU2VydmljZXMgQ0EwggEiMA0GCSqGSIb3DQEBAQUAA4IBDwAwggEKAoIB
AQCpyrKkzM0grwp9iayHdfC0TvHfwQ+/Z2G9o2Qc2rv5yjOrhDCJWH6M22vdNp4P
v9HsePJ3pn5vPL+Trw26aPRslMq9Ui2rSD31ttVdXxsCn/ovax6k96OaphrIAuF/
TFLjDmDsQBx+uQ3eP8e034e9X3pqMS4DmYETqEcgzjFzDVctzXg0M5USmRK53mgv
qubjwoqMKsOLIYdmvYNYV291vzyqJoddyhAVPJ+E6lTBCm7E/sVK3bkHEZcifNs+
J9EeeOyfMcnx5iIZ28SzR0OaGl+gHpDkXvXufPF9q2IBj/VNC97QIlaolc2uiHau
7roN8+RN2aD7aKCuFDuzh8G7AgMBAAGjgdswgdgwNAYIKwYBBQUHAQEEKDAmMCQG
CCsGAQUFBzABhhhodHRwOi8vb2NzcC52ZXJpc2lnbi5jb20wEgYDVR0TAQH/BAgw
BgEB/wIBADBBBgNVHR8EOjA4MDagNKAyhjBodHRwOi8vY3JsLnZlcmlzaWduLmNv
bS9UaGF3dGVUaW1lc3RhbXBpbmdDQS5jcmwwEwYDVR0lBAwwCgYIKwYBBQUHAwgw
DgYDVR0PAQH/BAQDAgEGMCQGA1UdEQQdMBukGTAXMRUwEwYDVQQDEwxUU0EyMDQ4
LTEtNTMwDQYJKoZIhvcNAQEFBQADgYEASmv56ljCRBwxiXmZK5a/gqwB1hxMzbCK
WG7fCCmjXsjKkxPnBFIN70cnLwA4sOTJk06a1CJiFfc/NyFPcDGA8Ys4h7Po6JcA
/s9Vlk4k0qknTnqut2FB8yrO58nZXt27K4U+tZ212eFX/760xX71zwye8Jf+K9M7
UhsbOCf3P0o=
-----END CERTIFICATE-----

Certificate:
    Data:
        Version: 3 (0x2)
        Serial Number:
            41:91:a1:5a:39:78:df:cf:49:65:66:38:1d:4c:75:c2
    Signature Algorithm: sha1WithRSAEncryption
        Issuer: C=US, O=VeriSign, Inc., OU=Class 3 Public Primary Certification Authority
        Validity
            Not Before: Jul 16 00:00:00 2004 GMT
            Not After : Jul 15 23:59:59 2014 GMT
        Subject: C=US, O=VeriSign, Inc., OU=VeriSign Trust Network, OU=Terms of use at https://www.verisign.com/rpa (c)04, CN=VeriSign Class 3 Code Signing 2004 CA
        Subject Public Key Info:
            Public Key Algorithm: rsaEncryption
                Public-Key: (2048 bit)
                Modulus:
                    00:be:bc:ee:bc:7e:ef:83:eb:e0:37:4f:fb:03:10:
                    38:be:08:d2:8c:7d:9d:fa:92:7f:19:0c:c2:6b:ee:
                    42:52:8c:de:d3:1c:48:13:25:ea:c1:63:7a:f9:51:
                    65:ee:d3:aa:3b:f5:f0:94:9c:2b:fb:f2:66:d4:24:
                    da:f7:f5:9f:6e:19:39:36:bc:d0:a3:76:08:1e:22:
                    27:24:6c:38:91:27:e2:84:49:ae:1b:8a:a1:fd:25:
                    82:2c:10:30:e8:71:ab:28:e8:77:4a:51:f1:ec:cd:
                    f8:f0:54:d4:6f:c0:e3:6d:0a:8f:d9:d8:64:8d:63:
                    b2:2d:4e:27:f6:85:0e:fe:6d:e3:29:99:e2:85:47:
                    7c:2d:86:7f:e8:57:8f:ad:67:c2:33:32:91:13:20:
                    fc:a9:23:14:9a:6d:c2:84:4b:76:68:04:d5:71:2c:
                    5d:21:fa:88:0d:26:fd:1f:2d:91:2b:e7:01:55:4d:
                    f2:6d:35:28:82:df:d9:6b:5c:b6:d6:d9:aa:81:fd:
                    5f:cd:83:ba:63:9d:d0:22:fc:a9:3b:42:69:b2:8e:
                    3a:b5:bc:b4:9e:0f:5e:c4:ea:2c:82:8b:28:fd:53:
                    08:96:dd:b5:01:20:d1:f9:a5:18:e7:c0:ee:51:70:
                    37:e1:b6:05:48:52:48:6f:38:ea:c3:e8:6c:7b:44:
                    84:bb
                Exponent: 65537 (0x10001)
        X509v3 extensions:
            X509v3 Basic Constraints: critical
                CA:TRUE, pathlen:0
            X509v3 Certificate Policies: 
                Policy: 2.16.840.1.113733.1.7.23.3
                  CPS: https://www.verisign.com/rpa

            X509v3 CRL Distribution Points: 

                Full Name:
                  URI:http://crl.verisign.com/pca3.crl

            X509v3 Extended Key Usage: 
                TLS Web Client Authentication, Code Signing
            X509v3 Key Usage: critical
                Certificate Sign, CRL Sign
            Netscape Cert Type: 
                Object Signing CA
            X509v3 Subject Alternative Name: 
                DirName:/CN=Class3CA2048-1-43
            X509v3 Subject Key Identifier: 
                08:F5:51:E8:FB:FE:3D:3D:64:36:7C:68:CF:5B:78:A8:DF:B9:C5:37
            X509v3 Authority Key Identifier: 
                DirName:/C=US/O=VeriSign, Inc./OU=Class 3 Public Primary Certification Authority
                serial:70:BA:E4:1D:10:D9:29:34:B6:38:CA:7B:03:CC:BA:BF

    Signature Algorithm: sha1WithRSAEncryption
         ae:3a:17:b8:4a:7b:55:fa:64:55:ec:40:a4:ed:49:41:90:99:
         9c:89:bc:af:2e:1d:ca:78:23:f9:1c:19:0f:7f:eb:68:bc:32:
         d9:88:38:de:dc:3f:d3:89:b4:3f:b1:82:96:f1:a4:5a:ba:ed:
         2e:26:d3:de:7c:01:6e:00:0a:00:a4:06:92:11:48:09:40:f9:
         1c:18:79:67:23:24:e0:bb:d5:e1:50:ae:1b:f5:0e:dd:e0:2e:
         81:cd:80:a3:6c:52:4f:91:75:55:8a:ba:22:f2:d2:ea:41:75:
         88:2f:63:55:7d:1e:54:5a:95:59:ca:d9:34:81:c0:5f:5e:f6:
         7a:b5
-----BEGIN CERTIFICATE-----
MIIEvzCCBCigAwIBAgIQQZGhWjl4389JZWY4HUx1wjANBgkqhkiG9w0BAQUFADBf
MQswCQYDVQQGEwJVUzEXMBUGA1UEChMOVmVyaVNpZ24sIEluYy4xNzA1BgNVBAsT
LkNsYXNzIDMgUHVibGljIFByaW1hcnkgQ2VydGlmaWNhdGlvbiBBdXRob3JpdHkw
HhcNMDQwNzE2MDAwMDAwWhcNMTQwNzE1MjM1OTU5WjCBtDELMAkGA1UEBhMCVVMx
FzAVBgNVBAoTDlZlcmlTaWduLCBJbmMuMR8wHQYDVQQLExZWZXJpU2lnbiBUcnVz
dCBOZXR3b3JrMTswOQYDVQQLEzJUZXJtcyBvZiB1c2UgYXQgaHR0cHM6Ly93d3cu
dmVyaXNpZ24uY29tL3JwYSAoYykwNDEuMCwGA1UEAxMlVmVyaVNpZ24gQ2xhc3Mg
MyBDb2RlIFNpZ25pbmcgMjAwNCBDQTCCASIwDQYJKoZIhvcNAQEBBQADggEPADCC
AQoCggEBAL687rx+74Pr4DdP+wMQOL4I0ox9nfqSfxkMwmvuQlKM3tMcSBMl6sFj
evlRZe7Tqjv18JScK/vyZtQk2vf1n24ZOTa80KN2CB4iJyRsOJEn4oRJrhuKof0l
giwQMOhxqyjod0pR8ezN+PBU1G/A420Kj9nYZI1jsi1OJ/aFDv5t4ymZ4oVHfC2G
f+hXj61nwjMykRMg/KkjFJptwoRLdmgE1XEsXSH6iA0m/R8tkSvnAVVN8m01KILf
2WtcttbZqoH9X82DumOd0CL8qTtCabKOOrW8tJ4PXsTqLIKLKP1TCJbdtQEg0fml
GOfA7lFwN+G2BUhSSG846sPobHtEhLsCAwEAAaOCAaAwggGcMBIGA1UdEwEB/wQI
MAYBAf8CAQAwRAYDVR0gBD0wOzA5BgtghkgBhvhFAQcXAzAqMCgGCCsGAQUFBwIB
FhxodHRwczovL3d3dy52ZXJpc2lnbi5jb20vcnBhMDEGA1UdHwQqMCgwJqAkoCKG
IGh0dHA6Ly9jcmwudmVyaXNpZ24uY29tL3BjYTMuY3JsMB0GA1UdJQQWMBQGCCsG
AQUFBwMCBggrBgEFBQcDAzAOBgNVHQ8BAf8EBAMCAQYwEQYJYIZIAYb4QgEBBAQD
AgABMCkGA1UdEQQiMCCkHjAcMRowGAYDVQQDExFDbGFzczNDQTIwNDgtMS00MzAd
BgNVHQ4EFgQUCPVR6Pv+PT1kNnxoz1t4qN+5xTcwgYAGA1UdIwR5MHehY6RhMF8x
CzAJBgNVBAYTAlVTMRcwFQYDVQQKEw5WZXJpU2lnbiwgSW5jLjE3MDUGA1UECxMu
Q2xhc3MgMyBQdWJsaWMgUHJpbWFyeSBDZXJ0aWZpY2F0aW9uIEF1dGhvcml0eYIQ
cLrkHRDZKTS2OMp7A8y6vzANBgkqhkiG9w0BAQUFAAOBgQCuOhe4SntV+mRV7ECk
7UlBkJmcibyvLh3KeCP5HBkPf+tovDLZiDje3D/TibQ/sYKW8aRauu0uJtPefAFu
AAoApAaSEUgJQPkcGHlnIyTgu9XhUK4b9Q7d4C6BzYCjbFJPkXVViroi8tLqQXWI
L2NVfR5UWpVZytk0gcBfXvZ6tQ==
-----END CERTIFICATE-----

Certificate:
    Data:
        Version: 3 (0x2)
        Serial Number:
            71:bb:7d:93:f6:81:4c:f5:82:66:cf:21:76:e7:51:b3
    Signature Algorithm: sha1WithRSAEncryption
        Issuer: C=US, O=VeriSign, Inc., OU=VeriSign Trust Network, OU=Terms of use at https://www.verisign.com/rpa (c)04, CN=VeriSign Class 3 Code Signing 2004 CA
        Validity
            Not Before: Mar 17 00:00:00 2006 GMT
            Not After : Mar 21 23:59:59 2009 GMT
        Subject: C=CA, ST=Ontario, L=Thornhill, O=ATI Technologies, Inc, OU=Digital ID Class 3 - Microsoft Software Validation v2, CN=ATI Technologies, Inc
        Subject Public Key Info:
            Public Key Algorithm: rsaEncryption
                Public-Key: (1024 bit)
                Modulus:
                    00:a5:bf:fe:85:4b:55:f6:15:90:6a:e4:a3:31:87:
                    47:59:1c:47:4b:02:eb:fc:d0:46:f5:21:8d:33:fd:
                    3b:c5:8b:eb:83:e6:f4:d7:7e:99:f7:9c:8c:c1:9e:
                    1a:e5:f0:34:8c:55:de:da:3b:a3:f3:fd:4b:b9:02:
                    e8:dc:f7:af:3f:90:34:16:64:bc:f0:d5:9a:7e:f6:
                    c1:22:35:20:37:a9:1f:7a:3e:ed:8c:cc:bf:ba:22:
                    d0:a5:68:45:88:7d:46:a8:96:c7:45:92:f1:7d:85:
                    b7:d1:50:9e:ac:94:67:32:66:4e:44:49:42:90:f7:
                    d2:e4:9b:5f:e9:69:19:73:03
                Exponent: 65537 (0x10001)
        X509v3 extensions:
            X509v3 Basic Constraints: 
                CA:FALSE
            X509v3 Key Usage: critical
                Digital Signature
            X509v3 CRL Distribution Points: 

                Full Name:
                  URI:http://CSC3-2004-crl.verisign.com/CSC3-2004.crl

            X509v3 Certificate Policies: 
                Policy: 2.16.840.1.113733.1.7.23.3
                  CPS: https://www.verisign.com/rpa

            X509v3 Extended Key Usage: 
                Code Signing
            Authority Information Access: 
                OCSP - URI:http://ocsp.verisign.com
                CA Issuers - URI:http://CSC3-2004-aia.verisign.com/CSC3-2004-aia.cer

            X509v3 Authority Key Identifier: 
                keyid:08:F5:51:E8:FB:FE:3D:3D:64:36:7C:68:CF:5B:78:A8:DF:B9:C5:37

            Netscape Cert Type: 
                Object Signing
            1.3.6.1.4.1.311.2.1.27: 
                0.......
    Signature Algorithm: sha1WithRSAEncryption
         73:45:70:9b:75:37:39:0f:5e:35:3a:60:48:1a:cc:85:fe:f7:
         0a:62:19:5b:9c:03:84:f0:90:2d:68:f6:6a:98:d2:6c:b8:60:
         1b:c0:aa:48:68:a5:13:69:37:ce:bc:1b:68:98:e1:c1:6c:2f:
         82:83:a7:a6:32:cc:5a:12:4b:51:48:52:87:7d:b9:1e:f1:96:
         27:f9:dc:5e:c8:df:9d:e0:bd:a8:c9:38:ef:aa:48:8e:1c:7a:
         ca:70:80:8d:99:ed:f2:28:91:09:a6:47:20:f7:ee:24:c2:1c:
         35:cb:c1:26:c3:12:7f:23:f8:ac:10:ac:13:09:5c:8e:6d:91:
         e1:f2:34:28:a9:52:8d:c8:e5:13:9c:a0:a6:b6:0a:85:d2:da:
         d2:87:ac:88:10:a5:d9:c6:10:47:90:67:4e:a1:3f:71:23:5c:
         46:d3:9f:ae:c2:f7:51:4b:e1:27:20:f3:bc:b1:f0:1b:58:eb:
         54:4f:20:94:a8:a0:df:f7:e2:59:e5:c2:e5:36:3b:6a:d2:3d:
         19:60:74:99:b5:85:ca:19:40:37:d2:65:14:46:53:4c:ed:4b:
         36:78:60:a7:11:60:3a:b8:99:40:db:a8:fd:4d:df:75:6b:b3:
         6f:a3:0a:77:ae:94:13:90:56:1f:ea:ff:eb:bd:20:40:ac:37:
         54:14:25:2c
-----BEGIN CERTIFICATE-----
MIIE8DCCA9igAwIBAgIQcbt9k/aBTPWCZs8hdudRszANBgkqhkiG9w0BAQUFADCB
tDELMAkGA1UEBhMCVVMxFzAVBgNVBAoTDlZlcmlTaWduLCBJbmMuMR8wHQYDVQQL
ExZWZXJpU2lnbiBUcnVzdCBOZXR3b3JrMTswOQYDVQQLEzJUZXJtcyBvZiB1c2Ug
YXQgaHR0cHM6Ly93d3cudmVyaXNpZ24uY29tL3JwYSAoYykwNDEuMCwGA1UEAxMl
VmVyaVNpZ24gQ2xhc3MgMyBDb2RlIFNpZ25pbmcgMjAwNCBDQTAeFw0wNjAzMTcw
MDAwMDBaFw0wOTAzMjEyMzU5NTlaMIGzMQswCQYDVQQGEwJDQTEQMA4GA1UECBMH
T250YXJpbzESMBAGA1UEBxMJVGhvcm5oaWxsMR4wHAYDVQQKFBVBVEkgVGVjaG5v
bG9naWVzLCBJbmMxPjA8BgNVBAsTNURpZ2l0YWwgSUQgQ2xhc3MgMyAtIE1pY3Jv
c29mdCBTb2Z0d2FyZSBWYWxpZGF0aW9uIHYyMR4wHAYDVQQDFBVBVEkgVGVjaG5v
bG9naWVzLCBJbmMwgZ8wDQYJKoZIhvcNAQEBBQADgY0AMIGJAoGBAKW//oVLVfYV
kGrkozGHR1kcR0sC6/zQRvUhjTP9O8WL64Pm9Nd+mfecjMGeGuXwNIxV3to7o/P9
S7kC6Nz3rz+QNBZkvPDVmn72wSI1IDepH3o+7YzMv7oi0KVoRYh9RqiWx0WS8X2F
t9FQnqyUZzJmTkRJQpD30uSbX+lpGXMDAgMBAAGjggF/MIIBezAJBgNVHRMEAjAA
MA4GA1UdDwEB/wQEAwIHgDBABgNVHR8EOTA3MDWgM6Axhi9odHRwOi8vQ1NDMy0y
MDA0LWNybC52ZXJpc2lnbi5jb20vQ1NDMy0yMDA0LmNybDBEBgNVHSAEPTA7MDkG
C2CGSAGG+EUBBxcDMCowKAYIKwYBBQUHAgEWHGh0dHBzOi8vd3d3LnZlcmlzaWdu
LmNvbS9ycGEwEwYDVR0lBAwwCgYIKwYBBQUHAwMwdQYIKwYBBQUHAQEEaTBnMCQG
CCsGAQUFBzABhhhodHRwOi8vb2NzcC52ZXJpc2lnbi5jb20wPwYIKwYBBQUHMAKG
M2h0dHA6Ly9DU0MzLTIwMDQtYWlhLnZlcmlzaWduLmNvbS9DU0MzLTIwMDQtYWlh
LmNlcjAfBgNVHSMEGDAWgBQI9VHo+/49PWQ2fGjPW3io37nFNzARBglghkgBhvhC
AQEEBAMCBBAwFgYKKwYBBAGCNwIBGwQIMAYBAQABAf8wDQYJKoZIhvcNAQEFBQAD
ggEBAHNFcJt1NzkPXjU6YEgazIX+9wpiGVucA4TwkC1o9mqY0my4YBvAqkhopRNp
N868G2iY4cFsL4KDp6YyzFoSS1FIUod9uR7xlif53F7I353gvajJOO+qSI4cespw
gI2Z7fIokQmmRyD37iTCHDXLwSbDEn8j+KwQrBMJXI5tkeHyNCipUo3I5ROcoKa2
CoXS2tKHrIgQpdnGEEeQZ06hP3EjXEbTn67C91FL4Scg87yx8BtY61RPIJSooN/3
4lnlwuU2O2rSPRlgdJm1hcoZQDfSZRRGU0ztSzZ4YKcRYDq4mUDbqP1N33Vrs2+j
CneulBOQVh/q/+u9IECsN1QUJSw=
-----END CERTIFICATE-----

Certificate:
    Data:
        Version: 3 (0x2)
        Serial Number:
            61:0c:12:06:00:00:00:00:00:1b
    Signature Algorithm: sha1WithRSAEncryption
        Issuer: C=US, ST=Washington, L=Redmond, O=Microsoft Corporation, CN=Microsoft Code Verification Root
        Validity
            Not Before: May 23 17:01:29 2006 GMT
            Not After : May 23 17:11:29 2016 GMT
        Subject: C=US, O=VeriSign, Inc., OU=Class 3 Public Primary Certification Authority
        Subject Public Key Info:
            Public Key Algorithm: rsaEncryption
                Public-Key: (1024 bit)
                Modulus:
                    00:c9:5c:59:9e:f2:1b:8a:01:14:b4:10:df:04:40:
                    db:e3:57:af:6a:45:40:8f:84:0c:0b:d1:33:d9:d9:
                    11:cf:ee:02:58:1f:25:f7:2a:a8:44:05:aa:ec:03:
                    1f:78:7f:9e:93:b9:9a:00:aa:23:7d:d6:ac:85:a2:
                    63:45:c7:72:27:cc:f4:4c:c6:75:71:d2:39:ef:4f:
                    42:f0:75:df:0a:90:c6:8e:20:6f:98:0f:f8:ac:23:
                    5f:70:29:36:a4:c9:86:e7:b1:9a:20:cb:53:a5:85:
                    e7:3d:be:7d:9a:fe:24:45:33:dc:76:15:ed:0f:a2:
                    71:64:4c:65:2e:81:68:45:a7
                Exponent: 65537 (0x10001)
        X509v3 extensions:
            X509v3 Certificate Policies: 
                Policy: X509v3 Any Policy

            1.3.6.1.4.1.311.21.7: 
                0'..+.....7......N...................n...
            X509v3 Key Usage: 
                Digital Signature, Certificate Sign, CRL Sign
            X509v3 Basic Constraints: critical
                CA:TRUE
            X509v3 Subject Key Identifier: 
                E2:7F:7B:D8:77:D5:DF:9E:0A:3F:9E:B4:CB:0E:2E:A9:EF:DB:69:77
            1.3.6.1.4.1.311.20.2: 
                ...C.r.o.s.s.C.A
            X509v3 Authority Key Identifier: 
                keyid:62:FB:0A:21:5B:7F:43:6E:11:DA:09:54:50:6B:F5:D2:96:71:F1:9E

            X509v3 CRL Distribution Points: 

                Full Name:
                  URI:http://crl.microsoft.com/pki/crl/products/MicrosoftCodeVerifRoot.crl

    Signature Algorithm: sha1WithRSAEncryption
         01:e4:46:b3:3b:45:7f:75:13:87:7e:5f:43:de:46:8e:cb:8a:
         bd:b6:47:41:bc:cc:cc:74:91:d8:ce:39:51:95:a4:a6:b5:47:
         c0:ef:d2:da:7b:8f:57:11:f4:32:8c:7c:cd:3f:ee:42:da:04:
         21:4a:f7:c8:43:88:4a:6f:5c:ca:14:fc:4b:d1:9f:4c:bd:d4:
         55:6e:cc:02:be:0d:a6:88:8f:86:09:ba:a4:25:bd:e8:b0:f0:
         fa:8b:71:4e:67:b0:cb:82:a8:d7:8e:55:f7:37:eb:f0:3e:88:
         ef:e4:e0:8a:fd:1c:6e:2e:61:41:48:75:b4:b0:2c:1d:28:d8:
         49:0f:d7:15:f0:24:73:25:3c:cc:88:0c:de:28:4c:65:54:fe:
         5e:ae:8c:ea:19:ad:2c:51:b2:9b:3a:47:f5:3c:80:35:01:17:
         e2:49:87:d6:54:4a:fb:4b:ab:07:bc:bf:7d:79:cf:bf:35:00:
         5c:bb:9e:cf:fc:82:89:1b:39:a0:51:97:b6:de:c0:b3:07:ff:
         44:96:44:c0:34:2a:19:5c:ab:ee:f0:3b:ec:29:4e:b5:13:c5:
         37:85:7e:75:d5:b4:d6:0d:06:6e:b5:d2:6c:23:71:67:ea:f1:
         71:8e:af:4e:74:aa:0c:f9:ec:bf:4c:58:fa:5e:90:9b:6d:39:
         cb:86:88:3f:8b:1c:a8:16:32:d5:fe:6d:b9:f1:f8:b3:ea:d7:
         91:f6:36:47:78:c0:27:2a:15:c7:68:d6:f4:c5:fc:4f:4e:c8:
         67:3f:10:2d:40:9f:f1:1e:c9:61:48:e7:a7:03:fc:31:73:0c:
         f0:46:88:fe:56:da:49:29:95:ef:09:da:a3:e5:be:ef:60:ec:
         d9:54:a0:59:9c:28:bd:54:ef:66:15:7f:87:4c:84:db:a6:0e:
         95:67:2e:51:7b:34:39:b6:41:c2:8c:84:68:26:dc:24:02:09:
         e7:81:8e:0a:97:2d:ef:ee:a7:b9:98:a6:0f:81:8d:c7:10:b5:
         e1:ed:98:2f:48:6f:53:85:49:64:78:9b:ec:5d:ac:97:0b:55:
         26:c3:ef:ba:8d:c8:d1:a5:2f:5a:7f:93:6b:61:1a:33:9b:18:
         b8:a2:62:10:de:24:ea:76:e1:2f:43:eb:ec:dd:7c:12:34:24:
         89:da:28:55:ae:e5:75:4e:31:2b:67:63:b6:a8:d7:ab:73:0a:
         03:ce:c5:ea:59:3f:c7:eb:2a:45:ae:a8:62:5b:2f:00:99:39:
         ab:b4:5f:73:c3:08:ec:80:11:8f:47:0e:8f:2a:13:43:e1:91:
         06:62:55:bb:ff:ba:3d:a9:a9:3d:26:0f:ae:ca:7d:62:8b:15:
         55:89:d6:94:34:4d:d6:65
-----BEGIN CERTIFICATE-----
MIIFAzCCAuugAwIBAgIKYQwSBgAAAAAAGzANBgkqhkiG9w0BAQUFADB/MQswCQYD
VQQGEwJVUzETMBEGA1UECBMKV2FzaGluZ3RvbjEQMA4GA1UEBxMHUmVkbW9uZDEe
MBwGA1UEChMVTWljcm9zb2Z0IENvcnBvcmF0aW9uMSkwJwYDVQQDEyBNaWNyb3Nv
ZnQgQ29kZSBWZXJpZmljYXRpb24gUm9vdDAeFw0wNjA1MjMxNzAxMjlaFw0xNjA1
MjMxNzExMjlaMF8xCzAJBgNVBAYTAlVTMRcwFQYDVQQKEw5WZXJpU2lnbiwgSW5j
LjE3MDUGA1UECxMuQ2xhc3MgMyBQdWJsaWMgUHJpbWFyeSBDZXJ0aWZpY2F0aW9u
IEF1dGhvcml0eTCBnzANBgkqhkiG9w0BAQEFAAOBjQAwgYkCgYEAyVxZnvIbigEU
tBDfBEDb41evakVAj4QMC9Ez2dkRz+4CWB8l9yqoRAWq7AMfeH+ek7maAKojfdas
haJjRcdyJ8z0TMZ1cdI5709C8HXfCpDGjiBvmA/4rCNfcCk2pMmG57GaIMtTpYXn
Pb59mv4kRTPcdhXtD6JxZExlLoFoRacCAwEAAaOCASMwggEfMBEGA1UdIAQKMAgw
BgYEVR0gADA2BgkrBgEEAYI3FQcEKTAnBh8rBgEEAYI3FQiN4NGJToTXnMMHhqaG
+xyP07+mFQEZAgFuAgEAMAsGA1UdDwQEAwIBhjAPBgNVHRMBAf8EBTADAQH/MB0G
A1UdDgQWBBTif3vYd9Xfngo/nrTLDi6p79tpdzAdBgkrBgEEAYI3FAIEEB4OAEMA
cgBvAHMAcwBDAEEwHwYDVR0jBBgwFoAUYvsKIVt/Q24R2glUUGv10pZx8Z4wVQYD
VR0fBE4wTDBKoEigRoZEaHR0cDovL2NybC5taWNyb3NvZnQuY29tL3BraS9jcmwv
cHJvZHVjdHMvTWljcm9zb2Z0Q29kZVZlcmlmUm9vdC5jcmwwDQYJKoZIhvcNAQEF
BQADggIBAAHkRrM7RX91E4d+X0PeRo7Lir22R0G8zMx0kdjOOVGVpKa1R8Dv0tp7
j1cR9DKMfM0/7kLaBCFK98hDiEpvXMoU/EvRn0y91FVuzAK+DaaIj4YJuqQlveiw
8PqLcU5nsMuCqNeOVfc36/A+iO/k4Ir9HG4uYUFIdbSwLB0o2EkP1xXwJHMlPMyI
DN4oTGVU/l6ujOoZrSxRsps6R/U8gDUBF+JJh9ZUSvtLqwe8v315z781AFy7ns/8
gokbOaBRl7bewLMH/0SWRMA0Khlcq+7wO+wpTrUTxTeFfnXVtNYNBm610mwjcWfq
8XGOr050qgz57L9MWPpekJttOcuGiD+LHKgWMtX+bbnx+LPq15H2Nkd4wCcqFcdo
1vTF/E9OyGc/EC1An/EeyWFI56cD/DFzDPBGiP5W2kkple8J2qPlvu9g7NlUoFmc
KL1U72YVf4dMhNumDpVnLlF7NDm2QcKMhGgm3CQCCeeBjgqXLe/up7mYpg+BjccQ
teHtmC9Ib1OFSWR4m+xdrJcLVSbD77qNyNGlL1p/k2thGjObGLiiYhDeJOp24S9D
6+zdfBI0JInaKFWu5XVOMStnY7ao16tzCgPOxepZP8frKkWuqGJbLwCZOau0X3PD
COyAEY9HDo8qE0PhkQZiVbv/uj2pqT0mD67KfWKLFVWJ1pQ0TdZl
-----END CERTIFICATE-----

