Certificate:
    Data:
        Version: 3 (0x2)
        Serial Number:
            04:08:f0:3c:21:00:26:c4:29:5c:a1:3a:14:99:b0:80
    Signature Algorithm: sha256WithRSAEncryption
        Issuer: C=US, O=DigiCert Inc, OU=www.digicert.com, CN=DigiCert EV Code Signing CA (SHA2)
        Validity
            Not Before: Jul 14 00:00:00 2016 GMT
            Not After : Jul 19 12:00:00 2017 GMT
        Subject: businessCategory=Private Organization/jurisdictionC=DE/jurisdictionST=Bonn/serialNumber=HRB 21144/street=Engasse 5/postalCode=53127, C=DE, ST=North Rhine-Westphalia, L=Bonn, O=Excubits UG (haftungsbeschr\xC3\xA4nkt), CN=Excubits UG (haftungsbeschr\xC3\xA4nkt)
        Subject Public Key Info:
            Public Key Algorithm: rsaEncryption
                Public-Key: (2048 bit)
                Modulus:
                    00:b6:e6:74:77:22:66:4e:bd:29:18:8f:0f:de:e1:
                    3a:98:9a:69:d1:7a:34:f0:3b:03:9e:bc:7c:49:c6:
                    f3:e3:6a:8f:99:cc:b6:8d:fd:7d:b2:67:30:57:7d:
                    64:51:47:dd:44:d6:0b:3f:a3:4b:cb:26:d8:d4:08:
                    f1:02:a2:7c:a5:25:10:09:15:38:d2:a1:19:dc:8e:
                    8a:6f:36:d5:8a:f8:0b:7f:5e:d5:2a:1e:92:69:64:
                    93:4c:c6:39:04:57:d0:3c:11:7e:89:c4:78:96:58:
                    42:30:f8:c1:52:48:32:b8:a9:b0:cd:13:47:52:ce:
                    3a:1a:f6:7b:94:87:a5:1d:ea:dc:2f:d7:a7:a0:80:
                    11:a4:ad:a3:c7:23:b9:10:f2:50:de:36:40:50:c4:
                    6b:9f:0d:55:97:4a:4d:d8:03:26:1c:67:c3:ab:ea:
                    18:21:5f:92:bc:61:4d:04:91:b9:bd:6b:ae:7c:53:
                    ae:54:e3:b0:64:a9:e0:62:50:94:ad:2b:35:ce:c8:
                    b4:d0:37:87:d7:41:94:fd:09:e4:da:c5:ee:b5:c5:
                    b5:4c:32:1c:cc:c7:80:19:7c:a9:10:f5:bc:0c:48:
                    c3:7a:ae:8e:dd:76:14:e0:a7:2b:89:f5:af:ec:46:
                    56:45:51:8c:41:ca:04:d5:ee:91:42:f9:39:aa:28:
                    c1:2d
                Exponent: 65537 (0x10001)
        X509v3 extensions:
            X509v3 Authority Key Identifier: 
                keyid:8F:E8:7E:F0:6D:32:6A:00:05:23:C7:70:97:6A:3A:90:FF:6B:EA:D4

            X509v3 Subject Key Identifier: 
                15:34:C4:97:8E:70:36:7F:9F:9C:D2:F1:F6:C5:8A:5A:D7:85:CE:6D
            X509v3 Subject Alternative Name: 
                othername:<unsupported>
            X509v3 Key Usage: critical
                Digital Signature
            X509v3 Extended Key Usage: 
                Code Signing
            X509v3 CRL Distribution Points: 

                Full Name:
                  URI:http://crl3.digicert.com/EVCodeSigningSHA2-g1.crl

                Full Name:
                  URI:http://crl4.digicert.com/EVCodeSigningSHA2-g1.crl

            X509v3 Certificate Policies: 
                Policy: 2.16.840.1.114412.3.2
                  CPS: https://www.digicert.com/CPS
                Policy: 2.23.140.1.3

            Authority Information Access: 
                OCSP - URI:http://ocsp.digicert.com
                CA Issuers - URI:http://cacerts.digicert.com/DigiCertEVCodeSigningCA-SHA2.crt

            X509v3 Basic Constraints: critical
                CA:FALSE
    Signature Algorithm: sha256WithRSAEncryption
         81:ed:80:c4:89:1d:a3:f3:72:4b:f6:40:3d:c0:99:90:e1:e1:
         db:da:ef:ce:cc:5a:29:61:a9:74:bf:cf:e9:51:92:e5:88:fa:
         ed:9a:ea:30:e9:99:22:80:6d:a3:9a:88:83:6b:53:20:4f:cf:
         8a:bb:c5:cf:d0:64:4a:2f:54:55:6d:81:b5:63:37:c0:66:4f:
         a6:a2:0d:e9:07:ee:c8:e3:6b:05:e8:5c:0c:7d:6c:a1:56:65:
         68:14:40:c3:dc:7b:25:3a:07:0b:65:97:2a:7f:fe:3b:a2:6f:
         b1:f0:a1:cb:83:c9:39:0e:53:ea:55:ff:b5:b4:90:b9:79:d6:
         1a:95:c5:22:f7:d6:25:9c:ee:99:0e:bc:c4:11:76:fe:3b:19:
         b6:75:23:c4:c8:76:ef:8a:53:35:d6:d2:fc:77:e1:44:d7:4c:
         e1:ef:62:ca:43:26:dd:bc:b7:ca:27:3a:57:a1:e8:4b:49:9e:
         a9:53:97:20:1d:e0:2b:f2:85:26:49:0d:d7:03:da:4a:85:fe:
         58:44:a2:1a:91:a2:4c:2e:91:bd:45:8b:2f:4a:0b:a4:eb:06:
         96:9d:6a:71:63:5b:54:7b:cc:6f:c7:d7:0d:d7:b8:e1:a8:1f:
         71:e5:a2:66:54:4a:3b:b3:5a:4c:9c:d3:a5:b3:99:30:8c:58:
         bc:12:4a:ea
-----BEGIN CERTIFICATE-----
MIIGATCCBOmgAwIBAgIQBAjwPCEAJsQpXKE6FJmwgDANBgkqhkiG9w0BAQsFADBs
MQswCQYDVQQGEwJVUzEVMBMGA1UEChMMRGlnaUNlcnQgSW5jMRkwFwYDVQQLExB3
d3cuZGlnaWNlcnQuY29tMSswKQYDVQQDEyJEaWdpQ2VydCBFViBDb2RlIFNpZ25p
bmcgQ0EgKFNIQTIpMB4XDTE2MDcxNDAwMDAwMFoXDTE3MDcxOTEyMDAwMFowggEY
MR0wGwYDVQQPDBRQcml2YXRlIE9yZ2FuaXphdGlvbjETMBEGCysGAQQBgjc8AgED
EwJERTEVMBMGCysGAQQBgjc8AgECEwRCb25uMRIwEAYDVQQFEwlIUkIgMjExNDQx
EjAQBgNVBAkTCUVuZ2Fzc2UgNTEOMAwGA1UEERMFNTMxMjcxCzAJBgNVBAYTAkRF
MR8wHQYDVQQIExZOb3J0aCBSaGluZS1XZXN0cGhhbGlhMQ0wCwYDVQQHEwRCb25u
MSowKAYDVQQKDCFFeGN1Yml0cyBVRyAoaGFmdHVuZ3NiZXNjaHLDpG5rdCkxKjAo
BgNVBAMMIUV4Y3ViaXRzIFVHIChoYWZ0dW5nc2Jlc2NocsOkbmt0KTCCASIwDQYJ
KoZIhvcNAQEBBQADggEPADCCAQoCggEBALbmdHciZk69KRiPD97hOpiaadF6NPA7
A568fEnG8+Nqj5nMto39fbJnMFd9ZFFH3UTWCz+jS8sm2NQI8QKifKUlEAkVONKh
GdyOim821Yr4C39e1Soekmlkk0zGOQRX0DwRfonEeJZYQjD4wVJIMripsM0TR1LO
Ohr2e5SHpR3q3C/Xp6CAEaSto8cjuRDyUN42QFDEa58NVZdKTdgDJhxnw6vqGCFf
krxhTQSRub1rrnxTrlTjsGSp4GJQlK0rNc7ItNA3h9dBlP0J5NrF7rXFtUwyHMzH
gBl8qRD1vAxIw3qujt12FOCnK4n1r+xGVkVRjEHKBNXukUL5OaoowS0CAwEAAaOC
Ae8wggHrMB8GA1UdIwQYMBaAFI/ofvBtMmoABSPHcJdqOpD/a+rUMB0GA1UdDgQW
BBQVNMSXjnA2f5+c0vH2xYpa14XObTAsBgNVHREEJTAjoCEGCCsGAQUFBwgDoBUw
EwwRREUtQk9OTi1IUkIgMjExNDQwDgYDVR0PAQH/BAQDAgeAMBMGA1UdJQQMMAoG
CCsGAQUFBwMDMHsGA1UdHwR0MHIwN6A1oDOGMWh0dHA6Ly9jcmwzLmRpZ2ljZXJ0
LmNvbS9FVkNvZGVTaWduaW5nU0hBMi1nMS5jcmwwN6A1oDOGMWh0dHA6Ly9jcmw0
LmRpZ2ljZXJ0LmNvbS9FVkNvZGVTaWduaW5nU0hBMi1nMS5jcmwwSwYDVR0gBEQw
QjA3BglghkgBhv1sAwIwKjAoBggrBgEFBQcCARYcaHR0cHM6Ly93d3cuZGlnaWNl
cnQuY29tL0NQUzAHBgVngQwBAzB+BggrBgEFBQcBAQRyMHAwJAYIKwYBBQUHMAGG
GGh0dHA6Ly9vY3NwLmRpZ2ljZXJ0LmNvbTBIBggrBgEFBQcwAoY8aHR0cDovL2Nh
Y2VydHMuZGlnaWNlcnQuY29tL0RpZ2lDZXJ0RVZDb2RlU2lnbmluZ0NBLVNIQTIu
Y3J0MAwGA1UdEwEB/wQCMAAwDQYJKoZIhvcNAQELBQADggEBAIHtgMSJHaPzckv2
QD3AmZDh4dva787MWilhqXS/z+lRkuWI+u2a6jDpmSKAbaOaiINrUyBPz4q7xc/Q
ZEovVFVtgbVjN8BmT6aiDekH7sjjawXoXAx9bKFWZWgUQMPceyU6Bwtllyp//jui
b7HwocuDyTkOU+pV/7W0kLl51hqVxSL31iWc7pkOvMQRdv47GbZ1I8TIdu+KUzXW
0vx34UTXTOHvYspDJt28t8onOleh6EtJnqlTlyAd4CvyhSZJDdcD2kqF/lhEohqR
okwukb1Fiy9KC6TrBpadanFjW1R7zG/H1w3XuOGoH3HlomZUSjuzWkyc06WzmTCM
WLwSSuo=
-----END CERTIFICATE-----

Certificate:
    Data:
        Version: 3 (0x2)
        Serial Number:
            03:f1:b4:e1:5f:3a:82:f1:14:96:78:b3:d7:d8:47:5c
    Signature Algorithm: sha256WithRSAEncryption
        Issuer: C=US, O=DigiCert Inc, OU=www.digicert.com, CN=DigiCert High Assurance EV Root CA
        Validity
            Not Before: Apr 18 12:00:00 2012 GMT
            Not After : Apr 18 12:00:00 2027 GMT
        Subject: C=US, O=DigiCert Inc, OU=www.digicert.com, CN=DigiCert EV Code Signing CA (SHA2)
        Subject Public Key Info:
            Public Key Algorithm: rsaEncryption
                Public-Key: (2048 bit)
                Modulus:
                    00:a7:53:fa:0f:b2:b5:13:f1:64:cf:84:80:fc:ae:
                    80:35:d1:b6:d7:c7:a3:2c:ac:1a:2c:ac:f1:84:ac:
                    3a:35:12:3a:92:91:ba:57:e4:c4:c9:f3:2f:a8:48:
                    3c:b7:d6:6e:dc:97:22:ba:51:79:61:af:43:2f:0d:
                    b7:9b:b4:49:31:ae:44:58:3e:a4:a1:96:a7:87:4f:
                    23:7e:c3:6c:65:24:90:55:3e:a1:ca:23:7c:c5:42:
                    e9:c4:7a:62:45:9b:7d:de:63:74:cb:9e:63:25:f8:
                    84:9a:9a:ad:45:4f:ae:7d:1f:c8:13:cb:75:9b:c9:
                    e1:e1:8a:f8:0b:0c:98:f4:ca:3e:d0:45:aa:7a:1e:
                    a5:58:93:36:34:be:2b:2e:2b:31:58:66:b4:32:10:
                    9f:9d:f0:52:a1:ef:e8:3e:d3:76:f2:40:5a:dc:fa:
                    6a:3d:1b:4b:ad:76:b0:8c:5c:ee:36:ba:83:ea:30:
                    a8:4c:de:f1:0b:2a:58:41:88:ae:00:89:ab:03:d1:
                    16:82:20:22:76:eb:5e:54:38:12:62:e1:d2:70:24:
                    db:ed:1f:70:d2:64:09:80:2d:e2:b6:9d:ce:1f:f2:
                    bb:21:f3:6c:db:d8:b3:19:7b:8a:50:9f:ef:ec:36:
                    0a:5c:9a:b7:4a:d3:08:a0:39:79:fd:dd:bf:3d:3a:
                    09:25
                Exponent: 65537 (0x10001)
        X509v3 extensions:
            X509v3 Basic Constraints: critical
                CA:TRUE, pathlen:0
            X509v3 Key Usage: critical
                Digital Signature, Certificate Sign, CRL Sign
            X509v3 Extended Key Usage: 
                Code Signing
            Authority Information Access: 
                OCSP - URI:http://ocsp.digicert.com
                CA Issuers - URI:http://cacerts.digicert.com/DigiCertHighAssuranceEVRootCA.crt

            X509v3 CRL Distribution Points: 

                Full Name:
                  URI:http://crl3.digicert.com/DigiCertHighAssuranceEVRootCA.crl

                Full Name:
                  URI:http://crl4.digicert.com/DigiCertHighAssuranceEVRootCA.crl

            X509v3 Certificate Policies: 
                Policy: 2.16.840.1.114412.3.2
                  CPS: http://www.digicert.com/ssl-cps-repository.htm
                  User Notice:
                    Explicit Text: 

            X509v3 Subject Key Identifier: 
                8F:E8:7E:F0:6D:32:6A:00:05:23:C7:70:97:6A:3A:90:FF:6B:EA:D4
            X509v3 Authority Key Identifier: 
                keyid:B1:3E:C3:69:03:F8:BF:47:01:D4:98:26:1A:08:02:EF:63:64:2B:C3

    Signature Algorithm: sha256WithRSAEncryption
         19:33:4a:0c:81:33:37:db:ad:36:c9:e4:c9:3a:bb:b5:1b:2e:
         7a:a2:e2:f4:43:42:17:9e:bf:4e:a1:4d:e1:b1:db:e9:81:dd:
         9f:01:f2:e4:88:d5:e9:fe:09:fd:21:c1:ec:5d:80:d2:f0:d6:
         c1:43:c2:fe:77:2b:db:f9:d7:91:33:ce:6c:d5:b2:19:3b:e6:
         2e:d6:c9:93:4f:88:40:8e:cd:e1:f5:7e:f1:0f:c6:59:56:72:
         e8:eb:6a:41:bd:1c:d5:46:d5:7c:49:ca:66:38:15:c1:bf:e0:
         91:70:77:87:dc:c9:8d:31:c9:0c:29:a2:33:ed:8d:e2:87:cd:
         89:8d:3f:1b:ff:d5:e0:1a:97:8b:7c:da:6d:fb:a8:c6:b2:3a:
         66:6b:7b:01:b3:cd:d8:a6:34:ec:12:01:ab:95:58:a5:c4:53:
         57:a8:60:e6:e7:02:12:a0:b9:23:64:a2:4d:bb:7c:81:25:64:
         21:be:cf:ee:42:18:43:97:bb:a5:37:06:af:4d:ff:26:a5:4d:
         61:4b:ec:46:41:b8:65:ce:b8:79:9e:08:96:0b:81:8c:8a:3b:
         8f:c7:99:8c:a3:2a:6e:98:6d:5e:61:c6:96:b7:8a:b9:61:2d:
         93:b8:eb:0e:04:43:d7:f5:fe:a6:f0:62:d4:99:6a:a5:c1:c1:
         f0:64:94:80
-----BEGIN CERTIFICATE-----
MIIGvDCCBaSgAwIBAgIQA/G04V86gvEUlniz19hHXDANBgkqhkiG9w0BAQsFADBs
MQswCQYDVQQGEwJVUzEVMBMGA1UEChMMRGlnaUNlcnQgSW5jMRkwFwYDVQQLExB3
d3cuZGlnaWNlcnQuY29tMSswKQYDVQQDEyJEaWdpQ2VydCBIaWdoIEFzc3VyYW5j
ZSBFViBSb290IENBMB4XDTEyMDQxODEyMDAwMFoXDTI3MDQxODEyMDAwMFowbDEL
MAkGA1UEBhMCVVMxFTATBgNVBAoTDERpZ2lDZXJ0IEluYzEZMBcGA1UECxMQd3d3
LmRpZ2ljZXJ0LmNvbTErMCkGA1UEAxMiRGlnaUNlcnQgRVYgQ29kZSBTaWduaW5n
IENBIChTSEEyKTCCASIwDQYJKoZIhvcNAQEBBQADggEPADCCAQoCggEBAKdT+g+y
tRPxZM+EgPyugDXRttfHoyysGiys8YSsOjUSOpKRulfkxMnzL6hIPLfWbtyXIrpR
eWGvQy8Nt5u0STGuRFg+pKGWp4dPI37DbGUkkFU+ocojfMVC6cR6YkWbfd5jdMue
YyX4hJqarUVPrn0fyBPLdZvJ4eGK+AsMmPTKPtBFqnoepViTNjS+Ky4rMVhmtDIQ
n53wUqHv6D7TdvJAWtz6aj0bS612sIxc7ja6g+owqEze8QsqWEGIrgCJqwPRFoIg
InbrXlQ4EmLh0nAk2+0fcNJkCYAt4radzh/yuyHzbNvYsxl7ilCf7+w2Clyat0rT
CKA5ef3dvz06CSUCAwEAAaOCA1gwggNUMBIGA1UdEwEB/wQIMAYBAf8CAQAwDgYD
VR0PAQH/BAQDAgGGMBMGA1UdJQQMMAoGCCsGAQUFBwMDMH8GCCsGAQUFBwEBBHMw
cTAkBggrBgEFBQcwAYYYaHR0cDovL29jc3AuZGlnaWNlcnQuY29tMEkGCCsGAQUF
BzAChj1odHRwOi8vY2FjZXJ0cy5kaWdpY2VydC5jb20vRGlnaUNlcnRIaWdoQXNz
dXJhbmNlRVZSb290Q0EuY3J0MIGPBgNVHR8EgYcwgYQwQKA+oDyGOmh0dHA6Ly9j
cmwzLmRpZ2ljZXJ0LmNvbS9EaWdpQ2VydEhpZ2hBc3N1cmFuY2VFVlJvb3RDQS5j
cmwwQKA+oDyGOmh0dHA6Ly9jcmw0LmRpZ2ljZXJ0LmNvbS9EaWdpQ2VydEhpZ2hB
c3N1cmFuY2VFVlJvb3RDQS5jcmwwggHEBgNVHSAEggG7MIIBtzCCAbMGCWCGSAGG
/WwDAjCCAaQwOgYIKwYBBQUHAgEWLmh0dHA6Ly93d3cuZGlnaWNlcnQuY29tL3Nz
bC1jcHMtcmVwb3NpdG9yeS5odG0wggFkBggrBgEFBQcCAjCCAVYeggFSAEEAbgB5
ACAAdQBzAGUAIABvAGYAIAB0AGgAaQBzACAAQwBlAHIAdABpAGYAaQBjAGEAdABl
ACAAYwBvAG4AcwB0AGkAdAB1AHQAZQBzACAAYQBjAGMAZQBwAHQAYQBuAGMAZQAg
AG8AZgAgAHQAaABlACAARABpAGcAaQBDAGUAcgB0ACAAQwBQAC8AQwBQAFMAIABh
AG4AZAAgAHQAaABlACAAUgBlAGwAeQBpAG4AZwAgAFAAYQByAHQAeQAgAEEAZwBy
AGUAZQBtAGUAbgB0ACAAdwBoAGkAYwBoACAAbABpAG0AaQB0ACAAbABpAGEAYgBp
AGwAaQB0AHkAIABhAG4AZAAgAGEAcgBlACAAaQBuAGMAbwByAHAAbwByAGEAdABl
AGQAIABoAGUAcgBlAGkAbgAgAGIAeQAgAHIAZQBmAGUAcgBlAG4AYwBlAC4wHQYD
VR0OBBYEFI/ofvBtMmoABSPHcJdqOpD/a+rUMB8GA1UdIwQYMBaAFLE+w2kD+L9H
AdSYJhoIAu9jZCvDMA0GCSqGSIb3DQEBCwUAA4IBAQAZM0oMgTM32602yeTJOru1
Gy56ouL0Q0IXnr9OoU3hsdvpgd2fAfLkiNXp/gn9IcHsXYDS8NbBQ8L+dyvb+deR
M85s1bIZO+Yu1smTT4hAjs3h9X7xD8ZZVnLo62pBvRzVRtV8ScpmOBXBv+CRcHeH
3MmNMckMKaIz7Y3ih82JjT8b/9XgGpeLfNpt+6jGsjpma3sBs83YpjTsEgGrlVil
xFNXqGDm5wISoLkjZKJNu3yBJWQhvs/uQhhDl7ulNwavTf8mpU1hS+xGQbhlzrh5
ngiWC4GMijuPx5mMoypumG1eYcaWt4q5YS2TuOsOBEPX9f6m8GLUmWqlwcHwZJSA
-----END CERTIFICATE-----

