Certificate:
    Data:
        Version: 3 (0x2)
        Serial Number:
            16:88:f0:39:25:5e:63:8e:69:14:39:07:e6:33:0b
    Signature Algorithm: sha1WithRSAEncryption
        Issuer: C=US, ST=UT, L=Salt Lake City, O=The USERTRUST Network, OU=http://www.usertrust.com, CN=UTN-USERFirst-Object
        Validity
            Not Before: Dec 31 00:00:00 2015 GMT
            Not After : Jul  9 18:40:36 2019 GMT
        Subject: C=GB, ST=Greater Manchester, L=Salford, O=COMODO CA Limited, CN=COMODO SHA-1 Time Stamping Signer
        Subject Public Key Info:
            Public Key Algorithm: rsaEncryption
                Public-Key: (2048 bit)
                Modulus:
                    00:e9:e9:3d:df:d7:37:08:c9:1e:38:b2:52:53:42:
                    6d:22:f1:b1:c4:06:04:6b:9e:fd:82:74:50:43:7d:
                    c6:a0:bb:1f:4e:f9:02:71:26:b1:ef:43:d8:83:8c:
                    48:fc:e7:0f:97:7a:9a:eb:9c:de:a6:a3:0e:3b:1c:
                    44:18:75:8e:78:a5:17:69:fe:49:18:a4:e2:bb:5c:
                    4e:fe:8e:2a:54:7a:50:f0:d5:f6:cc:91:e7:99:79:
                    d7:de:79:94:d7:96:33:fe:0e:83:be:22:bf:63:16:
                    2c:a3:dd:28:1b:af:3d:ab:ea:97:d2:f1:bf:04:10:
                    e7:3d:48:45:fd:1f:68:65:c1:7f:59:99:69:c0:22:
                    31:0c:62:6e:a7:5c:65:01:21:b0:63:c4:22:18:27:
                    ee:e6:fc:d2:00:3d:47:2e:a8:b8:86:56:5d:04:dc:
                    13:17:25:6e:1c:df:44:0f:15:cd:b7:db:a5:57:76:
                    42:6f:00:68:82:99:d2:e3:c1:de:f0:8b:94:57:4c:
                    ec:08:90:22:21:ce:22:2b:98:0c:42:e6:42:93:94:
                    98:93:ef:fd:06:d9:3f:bc:5b:9b:54:3c:20:b1:ee:
                    6a:d6:47:7a:c5:ab:80:e9:30:9a:de:f1:a4:3f:55:
                    4d:0a:09:34:8a:75:29:d2:69:ad:97:0f:50:bf:f8:
                    ca:09
                Exponent: 65537 (0x10001)
        X509v3 extensions:
            X509v3 Authority Key Identifier: 
                keyid:DA:ED:64:74:14:9C:14:3C:AB:DD:99:A9:BD:5B:28:4D:8B:3C:C9:D8

            X509v3 Subject Key Identifier: 
                8E:6B:2D:33:6B:F4:33:A7:93:B3:13:9A:A5:E0:0A:F7:12:35:6A:88
            X509v3 Key Usage: critical
                Digital Signature, Non Repudiation
            X509v3 Basic Constraints: critical
                CA:FALSE
            X509v3 Extended Key Usage: critical
                Time Stamping
            X509v3 CRL Distribution Points: 

                Full Name:
                  URI:http://crl.usertrust.com/UTN-USERFirst-Object.crl

            Authority Information Access: 
                OCSP - URI:http://ocsp.usertrust.com

    Signature Algorithm: sha1WithRSAEncryption
         ba:33:24:40:40:8c:7c:db:58:9f:b3:60:98:b2:f5:c0:31:fe:
         eb:1f:6e:50:f6:0a:e0:e4:e6:81:ad:26:87:a2:df:fd:b3:da:
         f4:73:f3:00:fb:29:1b:89:1b:15:3e:db:6b:52:93:2b:c4:ac:
         39:81:d7:3c:67:57:9a:39:36:e0:28:08:9a:e3:39:4f:9b:89:
         09:7f:7b:c5:61:7f:59:89:32:25:0a:6a:ae:1a:3e:f0:a2:27:
         a8:b6:c3:b8:87:f7:16:04:48:41:3d:5c:d8:ec:9f:4d:20:31:
         04:d9:65:a1:ed:cd:69:07:53:16:3d:dd:36:02:0a:88:eb:40:
         e5:06:30:0b:b8:16:4b:dc:ef:bc:55:09:ff:c6:3e:12:2e:76:
         b3:dc:ce:42:ef:f9:76:57:e1:b7:0a:05:40:98:58:9a:5d:71:
         16:93:71:8c:65:81:ea:6f:f3:89:f7:fb:73:ad:b4:e7:bf:d9:
         8e:6f:aa:0b:4f:25:f3:b8:e1:d5:dd:75:98:68:81:f8:aa:c0:
         d1:80:c2:c4:c4:39:89:c1:f6:c9:9e:6c:d7:74:f9:d9:97:f8:
         4f:c2:9a:0a:cd:5e:8f:f8:19:e9:e0:a5:9f:c4:f0:92:21:e6:
         2d:79:25:c9:22:f9:c3:f0:3a:84:57:ad:3a:16:f4:63:94:10:
         1d:5d:d0:c6
-----BEGIN CERTIFICATE-----
MIIEmTCCA4GgAwIBAgIPFojwOSVeY45pFDkH5jMLMA0GCSqGSIb3DQEBBQUAMIGV
MQswCQYDVQQGEwJVUzELMAkGA1UECBMCVVQxFzAVBgNVBAcTDlNhbHQgTGFrZSBD
aXR5MR4wHAYDVQQKExVUaGUgVVNFUlRSVVNUIE5ldHdvcmsxITAfBgNVBAsTGGh0
dHA6Ly93d3cudXNlcnRydXN0LmNvbTEdMBsGA1UEAxMUVVROLVVTRVJGaXJzdC1P
YmplY3QwHhcNMTUxMjMxMDAwMDAwWhcNMTkwNzA5MTg0MDM2WjCBhDELMAkGA1UE
BhMCR0IxGzAZBgNVBAgTEkdyZWF0ZXIgTWFuY2hlc3RlcjEQMA4GA1UEBxMHU2Fs
Zm9yZDEaMBgGA1UEChMRQ09NT0RPIENBIExpbWl0ZWQxKjAoBgNVBAMTIUNPTU9E
TyBTSEEtMSBUaW1lIFN0YW1waW5nIFNpZ25lcjCCASIwDQYJKoZIhvcNAQEBBQAD
ggEPADCCAQoCggEBAOnpPd/XNwjJHjiyUlNCbSLxscQGBGue/YJ0UEN9xqC7H075
AnEmse9D2IOMSPznD5d6muuc3qajDjscRBh1jnilF2n+SRik4rtcTv6OKlR6UPDV
9syR55l51955lNeWM/4Og74iv2MWLKPdKBuvPavql9LxvwQQ5z1IRf0faGXBf1mZ
acAiMQxibqdcZQEhsGPEIhgn7ub80gA9Ry6ouIZWXQTcExclbhzfRA8VzbfbpVd2
Qm8AaIKZ0uPB3vCLlFdM7AiQIiHOIiuYDELmQpOUmJPv/QbZP7xbm1Q8ILHuatZH
esWrgOkwmt7xpD9VTQoJNIp1KdJprZcPUL/4ygkCAwEAAaOB9DCB8TAfBgNVHSME
GDAWgBTa7WR0FJwUPKvdmam9WyhNizzJ2DAdBgNVHQ4EFgQUjmstM2v0M6eTsxOa
peAK9xI1aogwDgYDVR0PAQH/BAQDAgbAMAwGA1UdEwEB/wQCMAAwFgYDVR0lAQH/
BAwwCgYIKwYBBQUHAwgwQgYDVR0fBDswOTA3oDWgM4YxaHR0cDovL2NybC51c2Vy
dHJ1c3QuY29tL1VUTi1VU0VSRmlyc3QtT2JqZWN0LmNybDA1BggrBgEFBQcBAQQp
MCcwJQYIKwYBBQUHMAGGGWh0dHA6Ly9vY3NwLnVzZXJ0cnVzdC5jb20wDQYJKoZI
hvcNAQEFBQADggEBALozJEBAjHzbWJ+zYJiy9cAx/usfblD2CuDk5oGtJoei3/2z
2vRz8wD7KRuJGxU+22tSkyvErDmB1zxnV5o5NuAoCJrjOU+biQl/e8Vhf1mJMiUK
aq4aPvCiJ6i2w7iH9xYESEE9XNjsn00gMQTZZaHtzWkHUxY93TYCCojrQOUGMAu4
Fkvc77xVCf/GPhIudrPczkLv+XZX4bcKBUCYWJpdcRaTcYxlgepv84n3+3OttOe/
2Y5vqgtPJfO44dXddZhogfiqwNGAwsTEOYnB9smebNd0+dmX+E/CmgrNXo/4Geng
pZ/E8JIh5i15Jcki+cPwOoRXrToW9GOUEB1d0MY=
-----END CERTIFICATE-----

Certificate:
    Data:
        Version: 3 (0x2)
        Serial Number:
            a4:93:b0:13:69:85:3e:2c:32:22:8f:a1:6f:ea:4e:48
    Signature Algorithm: sha256WithRSAEncryption
        Issuer: C=GB, ST=Greater Manchester, L=Salford, O=COMODO CA Limited, CN=COMODO RSA Code Signing CA
        Validity
            Not Before: Nov 28 00:00:00 2016 GMT
            Not After : Nov 28 23:59:59 2017 GMT
        Subject: C=RU/postalCode=160012, ST=Vologda region, L=Vologda/street=74 Sovetski prospekt, O=3Planesoft (Panichev Igor Valentinovich IP), CN=3Planesoft (Panichev Igor Valentinovich IP)
        Subject Public Key Info:
            Public Key Algorithm: rsaEncryption
                Public-Key: (2048 bit)
                Modulus:
                    00:a7:ff:e4:d0:35:f6:be:05:cf:e0:e0:71:be:bf:
                    93:df:aa:af:41:af:df:07:89:81:32:d3:bd:7d:29:
                    90:e7:09:7e:8a:89:26:55:51:cd:37:f4:c5:a9:61:
                    f8:1e:02:46:4e:8c:3b:0c:7f:dd:80:92:03:a4:3b:
                    d5:d8:41:8f:89:7f:73:d2:d4:f9:55:61:d9:cd:7b:
                    86:29:0e:3a:f0:6f:dc:47:d6:92:41:e1:93:60:66:
                    a6:5c:c4:bc:ba:c6:f1:c6:66:24:31:4d:bc:7f:3f:
                    1c:00:9e:77:8e:45:e6:a3:6c:7c:31:89:87:9b:06:
                    0a:4e:45:71:de:c6:04:99:7c:2a:83:0d:43:cf:05:
                    aa:4d:41:41:94:38:74:b8:ad:30:4e:5d:55:13:00:
                    58:ce:0a:0f:78:5f:84:55:03:22:1d:06:4a:ce:8c:
                    46:64:ca:8e:63:bd:cc:6f:e3:b6:d3:df:ee:ff:b0:
                    f6:b1:c3:95:d2:16:42:05:22:9a:9b:fc:3b:89:d8:
                    6e:76:e8:0b:54:47:c6:c9:74:01:4a:e5:5b:2a:cb:
                    d5:4b:2b:e4:15:05:12:a9:e9:d7:9e:12:a7:85:ed:
                    a8:ce:cf:22:35:3e:3c:d0:31:ba:7e:8d:e9:01:11:
                    70:a3:26:fe:40:2a:b2:97:7b:1d:aa:05:d8:74:d9:
                    51:d1
                Exponent: 65537 (0x10001)
        X509v3 extensions:
            X509v3 Authority Key Identifier: 
                keyid:29:91:60:FF:8A:4D:FA:EB:F9:A6:6A:B8:CF:F9:E6:4B:BD:49:CE:12

            X509v3 Subject Key Identifier: 
                28:D7:A3:BC:A4:F2:5D:EE:3C:47:CC:6F:98:22:9F:A2:1B:2A:5D:90
            X509v3 Key Usage: critical
                Digital Signature
            X509v3 Basic Constraints: critical
                CA:FALSE
            X509v3 Extended Key Usage: 
                Code Signing
            Netscape Cert Type: 
                Object Signing
            X509v3 Certificate Policies: 
                Policy: 1.3.6.1.4.1.6449.1.2.1.3.2
                  CPS: https://secure.comodo.net/CPS

            X509v3 CRL Distribution Points: 

                Full Name:
                  URI:http://crl.comodoca.com/COMODORSACodeSigningCA.crl

            Authority Information Access: 
                CA Issuers - URI:http://crt.comodoca.com/COMODORSACodeSigningCA.crt
                OCSP - URI:http://ocsp.comodoca.com

    Signature Algorithm: sha256WithRSAEncryption
         03:a8:14:1d:0b:c0:6d:4c:03:07:f4:91:1e:86:4e:2c:5a:9c:
         91:ac:bd:f5:10:96:3c:d9:13:66:13:6a:6f:6f:bf:3d:66:fd:
         b8:e1:07:fb:3a:25:9e:62:58:39:3b:aa:3f:cf:ce:51:da:2e:
         16:de:e0:f9:f9:6e:d5:71:31:8d:74:15:9f:a6:f7:ec:fe:2f:
         51:31:93:98:f3:04:83:6e:62:0a:e8:a3:08:7c:08:2f:70:b1:
         72:29:c3:fd:ae:0a:e3:95:2c:08:5b:34:4e:be:c5:cf:bb:a3:
         da:91:95:b5:3b:42:ee:40:9c:fa:52:34:00:bd:0d:e4:51:3a:
         ba:ef:26:e5:03:f8:21:a2:40:09:1b:f5:57:a6:42:67:5c:c1:
         ac:59:00:75:97:3d:a8:7f:6a:13:84:06:a6:f9:8f:42:af:41:
         93:58:df:57:e8:09:ca:8c:d8:b2:27:85:2a:da:48:a4:7a:eb:
         b5:e5:ab:82:3c:f9:d6:57:e5:7c:8d:33:33:af:50:93:49:4c:
         ba:60:35:17:01:e4:c9:3b:40:fd:dc:cf:e7:3f:ec:86:91:37:
         57:ef:e9:5e:3f:26:98:04:c4:1c:b3:74:b3:46:35:21:92:54:
         e0:ea:69:b5:cd:16:e3:47:0c:52:56:5c:4b:ee:fb:55:d6:76:
         58:84:8f:7a
-----BEGIN CERTIFICATE-----
MIIFbDCCBFSgAwIBAgIRAKSTsBNphT4sMiKPoW/qTkgwDQYJKoZIhvcNAQELBQAw
fTELMAkGA1UEBhMCR0IxGzAZBgNVBAgTEkdyZWF0ZXIgTWFuY2hlc3RlcjEQMA4G
A1UEBxMHU2FsZm9yZDEaMBgGA1UEChMRQ09NT0RPIENBIExpbWl0ZWQxIzAhBgNV
BAMTGkNPTU9ETyBSU0EgQ29kZSBTaWduaW5nIENBMB4XDTE2MTEyODAwMDAwMFoX
DTE3MTEyODIzNTk1OVowgdQxCzAJBgNVBAYTAlJVMQ8wDQYDVQQRDAYxNjAwMTIx
FzAVBgNVBAgMDlZvbG9nZGEgcmVnaW9uMRAwDgYDVQQHDAdWb2xvZ2RhMR0wGwYD
VQQJDBQ3NCBTb3ZldHNraSBwcm9zcGVrdDE0MDIGA1UECgwrM1BsYW5lc29mdCAo
UGFuaWNoZXYgSWdvciBWYWxlbnRpbm92aWNoIElQKTE0MDIGA1UEAwwrM1BsYW5l
c29mdCAoUGFuaWNoZXYgSWdvciBWYWxlbnRpbm92aWNoIElQKTCCASIwDQYJKoZI
hvcNAQEBBQADggEPADCCAQoCggEBAKf/5NA19r4Fz+Dgcb6/k9+qr0Gv3weJgTLT
vX0pkOcJfoqJJlVRzTf0xalh+B4CRk6MOwx/3YCSA6Q71dhBj4l/c9LU+VVh2c17
hikOOvBv3EfWkkHhk2BmplzEvLrG8cZmJDFNvH8/HACed45F5qNsfDGJh5sGCk5F
cd7GBJl8KoMNQ88Fqk1BQZQ4dLitME5dVRMAWM4KD3hfhFUDIh0GSs6MRmTKjmO9
zG/jttPf7v+w9rHDldIWQgUimpv8O4nYbnboC1RHxsl0AUrlWyrL1Usr5BUFEqnp
154Sp4XtqM7PIjU+PNAxun6N6QERcKMm/kAqspd7HaoF2HTZUdECAwEAAaOCAY0w
ggGJMB8GA1UdIwQYMBaAFCmRYP+KTfrr+aZquM/55ku9Sc4SMB0GA1UdDgQWBBQo
16O8pPJd7jxHzG+YIp+iGypdkDAOBgNVHQ8BAf8EBAMCB4AwDAYDVR0TAQH/BAIw
ADATBgNVHSUEDDAKBggrBgEFBQcDAzARBglghkgBhvhCAQEEBAMCBBAwRgYDVR0g
BD8wPTA7BgwrBgEEAbIxAQIBAwIwKzApBggrBgEFBQcCARYdaHR0cHM6Ly9zZWN1
cmUuY29tb2RvLm5ldC9DUFMwQwYDVR0fBDwwOjA4oDagNIYyaHR0cDovL2NybC5j
b21vZG9jYS5jb20vQ09NT0RPUlNBQ29kZVNpZ25pbmdDQS5jcmwwdAYIKwYBBQUH
AQEEaDBmMD4GCCsGAQUFBzAChjJodHRwOi8vY3J0LmNvbW9kb2NhLmNvbS9DT01P
RE9SU0FDb2RlU2lnbmluZ0NBLmNydDAkBggrBgEFBQcwAYYYaHR0cDovL29jc3Au
Y29tb2RvY2EuY29tMA0GCSqGSIb3DQEBCwUAA4IBAQADqBQdC8BtTAMH9JEehk4s
WpyRrL31EJY82RNmE2pvb789Zv244Qf7OiWeYlg5O6o/z85R2i4W3uD5+W7VcTGN
dBWfpvfs/i9RMZOY8wSDbmIK6KMIfAgvcLFyKcP9rgrjlSwIWzROvsXPu6PakZW1
O0LuQJz6UjQAvQ3kUTq67yblA/ghokAJG/VXpkJnXMGsWQB1lz2of2oThAam+Y9C
r0GTWN9X6AnKjNiyJ4Uq2kikeuu15auCPPnWV+V8jTMzr1CTSUy6YDUXAeTJO0D9
3M/nP+yGkTdX7+lePyaYBMQcs3SzRjUhklTg6mm1zRbjRwxSVlxL7vtV1nZYhI96
-----END CERTIFICATE-----

Certificate:
    Data:
        Version: 3 (0x2)
        Serial Number:
            2e:7c:87:cc:0e:93:4a:52:fe:94:fd:1c:b7:cd:34:af
    Signature Algorithm: sha384WithRSAEncryption
        Issuer: C=GB, ST=Greater Manchester, L=Salford, O=COMODO CA Limited, CN=COMODO RSA Certification Authority
        Validity
            Not Before: May  9 00:00:00 2013 GMT
            Not After : May  8 23:59:59 2028 GMT
        Subject: C=GB, ST=Greater Manchester, L=Salford, O=COMODO CA Limited, CN=COMODO RSA Code Signing CA
        Subject Public Key Info:
            Public Key Algorithm: rsaEncryption
                Public-Key: (2048 bit)
                Modulus:
                    00:a6:98:90:63:77:91:34:7f:8a:d1:dd:e9:67:31:
                    11:eb:cc:1e:fd:31:1d:b3:b9:62:57:3f:93:bc:5b:
                    e3:9f:1e:24:32:11:27:6b:bc:51:91:a7:cf:9e:9e:
                    25:b3:5f:81:a8:18:0f:1d:1e:20:30:0e:fb:61:7b:
                    86:09:b3:e3:fd:a2:68:9d:1c:2c:9d:bf:72:e3:e4:
                    75:a0:e5:35:23:8e:c9:8a:ee:1a:0c:64:c7:d8:42:
                    a1:7b:b5:52:03:4b:3a:b0:8e:23:4b:4b:63:e0:22:
                    94:37:7b:d5:79:90:0a:14:18:51:2c:e6:fe:c1:12:
                    f0:1c:3f:61:61:0a:8c:a2:dc:f6:c3:30:aa:cd:28:
                    18:75:48:c1:79:5a:08:cd:bb:8c:55:8c:f7:d4:76:
                    90:3a:33:46:50:73:98:5c:f4:85:4a:6b:0f:80:dd:
                    5e:d6:bd:fd:a9:2f:c0:25:f5:f9:78:d7:8d:5f:10:
                    c2:44:55:3c:90:3c:31:46:cb:70:ae:07:a9:0a:e3:
                    af:c1:01:6f:90:1a:23:e2:5f:38:db:c6:08:5d:47:
                    b3:83:41:f0:2e:00:37:14:b9:12:aa:79:92:52:cd:
                    87:0f:7b:d8:62:29:a4:7e:30:bd:1b:b5:8c:72:b4:
                    48:f2:e3:e8:21:f9:5e:4c:62:79:8b:02:06:9f:7f:
                    d5:0b
                Exponent: 65537 (0x10001)
        X509v3 extensions:
            X509v3 Authority Key Identifier: 
                keyid:BB:AF:7E:02:3D:FA:A6:F1:3C:84:8E:AD:EE:38:98:EC:D9:32:32:D4

            X509v3 Subject Key Identifier: 
                29:91:60:FF:8A:4D:FA:EB:F9:A6:6A:B8:CF:F9:E6:4B:BD:49:CE:12
            X509v3 Key Usage: critical
                Digital Signature, Certificate Sign, CRL Sign
            X509v3 Basic Constraints: critical
                CA:TRUE, pathlen:0
            X509v3 Extended Key Usage: 
                Code Signing
            X509v3 Certificate Policies: 
                Policy: X509v3 Any Policy

            X509v3 CRL Distribution Points: 

                Full Name:
                  URI:http://crl.comodoca.com/COMODORSACertificationAuthority.crl

            Authority Information Access: 
                CA Issuers - URI:http://crt.comodoca.com/COMODORSAAddTrustCA.crt
                OCSP - URI:http://ocsp.comodoca.com

    Signature Algorithm: sha384WithRSAEncryption
         02:3f:02:39:c3:ee:f8:ca:3b:89:de:0c:6d:4d:b1:f1:4e:92:
         4f:af:c2:38:2c:04:cc:c5:63:11:ab:09:63:af:ab:a2:d7:02:
         3f:cc:6f:19:c3:3d:d6:1a:08:94:ff:25:d8:a9:88:a7:2b:10:
         1a:e0:9b:b1:07:22:1a:51:1c:3a:d4:e1:e9:09:bf:e6:24:74:
         af:1e:7b:16:31:6e:23:ef:54:51:2d:52:02:e2:75:08:05:4c:
         f1:b7:51:e1:51:00:c6:87:f6:6c:ee:10:44:76:57:6a:f1:df:
         58:6b:21:aa:49:d4:7c:37:4e:bd:ff:b6:75:54:40:18:36:57:
         67:11:cd:4f:02:e4:fe:f3:da:fc:75:17:db:ec:b7:f7:65:09:
         23:49:1f:43:57:83:ea:7e:20:77:61:c8:4d:f2:bb:65:4d:a8:
         f7:85:45:07:af:7a:69:27:65:90:29:40:8b:df:7b:3a:51:39:
         8c:a8:1f:70:79:ad:6d:42:20:a2:cf:0c:6c:03:8c:4c:cd:73:
         07:94:e7:5a:8e:3a:04:ba:a2:a1:7c:1f:cb:63:3a:15:a7:d4:
         15:1b:a7:52:47:32:a9:f4:bf:64:47:d1:aa:1f:53:4e:32:30:
         73:c2:6f:b7:78:82:9d:5c:ff:46:bb:6b:22:1d:88:0b:f8:1b:
         aa:34:a6:fc:8c:f5:dd:7f:65:8c:8c:31:57:31:d0:36:ec:47:
         a1:cf:cb:8b:a8:ef:1c:18:58:c5:06:77:ca:4b:9b:51:af:4c:
         08:4a:7a:8f:e2:a3:52:e2:8e:8e:cc:26:e4:b2:d8:e5:38:c2:
         a8:ed:c6:81:9c:35:6b:a9:58:61:4a:0a:97:b4:4b:42:b6:55:
         9d:be:99:e7:70:6d:59:f8:6d:2a:0c:7f:19:60:5f:0c:9a:88:
         6c:30:ac:52:09:90:16:1b:ff:2b:9d:db:d0:20:ca:89:ea:28:
         7e:32:8e:19:df:7b:48:33:1e:d7:65:f8:ae:c9:f8:83:14:93:
         76:7d:64:d0:8e:ce:be:35:7d:ff:72:31:4d:9f:9e:bd:1e:6c:
         2f:a8:8f:0c:06:50:fb:8c:27:b3:76:c9:f4:e6:d7:c3:34:e2:
         8c:87:21:86:61:fe:bf:55:74:e1:21:77:03:0a:68:6c:bb:e4:
         c9:a9:e6:cf:59:25:eb:7c:ec:45:0e:79:66:68:e8:22:cd:b8:
         ef:98:85:4d:96:11:3c:09:8a:d0:7f:bc:28:28:13:fb:6a:ca:
         54:8d:92:5c:cd:c2:65:98:06:9e:ce:48:5b:d4:b5:37:93:46:
         41:7c:07:dd:cf:fa:43:ef:ba:67:61:ff:7d:49:e0:bb:30:7d:
         5c:80:e3:e6:16:39:4b:a7
-----BEGIN CERTIFICATE-----
MIIF4DCCA8igAwIBAgIQLnyHzA6TSlL+lP0ct800rzANBgkqhkiG9w0BAQwFADCB
hTELMAkGA1UEBhMCR0IxGzAZBgNVBAgTEkdyZWF0ZXIgTWFuY2hlc3RlcjEQMA4G
A1UEBxMHU2FsZm9yZDEaMBgGA1UEChMRQ09NT0RPIENBIExpbWl0ZWQxKzApBgNV
BAMTIkNPTU9ETyBSU0EgQ2VydGlmaWNhdGlvbiBBdXRob3JpdHkwHhcNMTMwNTA5
MDAwMDAwWhcNMjgwNTA4MjM1OTU5WjB9MQswCQYDVQQGEwJHQjEbMBkGA1UECBMS
R3JlYXRlciBNYW5jaGVzdGVyMRAwDgYDVQQHEwdTYWxmb3JkMRowGAYDVQQKExFD
T01PRE8gQ0EgTGltaXRlZDEjMCEGA1UEAxMaQ09NT0RPIFJTQSBDb2RlIFNpZ25p
bmcgQ0EwggEiMA0GCSqGSIb3DQEBAQUAA4IBDwAwggEKAoIBAQCmmJBjd5E0f4rR
3elnMRHrzB79MR2zuWJXP5O8W+OfHiQyESdrvFGRp8+eniWzX4GoGA8dHiAwDvth
e4YJs+P9omidHCydv3Lj5HWg5TUjjsmK7hoMZMfYQqF7tVIDSzqwjiNLS2PgIpQ3
e9V5kAoUGFEs5v7BEvAcP2FhCoyi3PbDMKrNKBh1SMF5WgjNu4xVjPfUdpA6M0ZQ
c5hc9IVKaw+A3V7Wvf2pL8Al9fl4141fEMJEVTyQPDFGy3CuB6kK46/BAW+QGiPi
XzjbxghdR7ODQfAuADcUuRKqeZJSzYcPe9hiKaR+ML0btYxytEjy4+gh+V5MYnmL
Agaff9ULAgMBAAGjggFRMIIBTTAfBgNVHSMEGDAWgBS7r34CPfqm8TyEjq3uOJjs
2TIy1DAdBgNVHQ4EFgQUKZFg/4pN+uv5pmq4z/nmS71JzhIwDgYDVR0PAQH/BAQD
AgGGMBIGA1UdEwEB/wQIMAYBAf8CAQAwEwYDVR0lBAwwCgYIKwYBBQUHAwMwEQYD
VR0gBAowCDAGBgRVHSAAMEwGA1UdHwRFMEMwQaA/oD2GO2h0dHA6Ly9jcmwuY29t
b2RvY2EuY29tL0NPTU9ET1JTQUNlcnRpZmljYXRpb25BdXRob3JpdHkuY3JsMHEG
CCsGAQUFBwEBBGUwYzA7BggrBgEFBQcwAoYvaHR0cDovL2NydC5jb21vZG9jYS5j
b20vQ09NT0RPUlNBQWRkVHJ1c3RDQS5jcnQwJAYIKwYBBQUHMAGGGGh0dHA6Ly9v
Y3NwLmNvbW9kb2NhLmNvbTANBgkqhkiG9w0BAQwFAAOCAgEAAj8COcPu+Mo7id4M
bU2x8U6ST6/COCwEzMVjEasJY6+rotcCP8xvGcM91hoIlP8l2KmIpysQGuCbsQci
GlEcOtTh6Qm/5iR0rx57FjFuI+9UUS1SAuJ1CAVM8bdR4VEAxof2bO4QRHZXavHf
WGshqknUfDdOvf+2dVRAGDZXZxHNTwLk/vPa/HUX2+y392UJI0kfQ1eD6n4gd2HI
TfK7ZU2o94VFB696aSdlkClAi997OlE5jKgfcHmtbUIgos8MbAOMTM1zB5TnWo46
BLqioXwfy2M6FafUFRunUkcyqfS/ZEfRqh9TTjIwc8Jvt3iCnVz/RrtrIh2IC/gb
qjSm/Iz13X9ljIwxVzHQNuxHoc/Li6jvHBhYxQZ3ykubUa9MCEp6j+KjUuKOjswm
5LLY5TjCqO3GgZw1a6lYYUoKl7RLQrZVnb6Z53BtWfhtKgx/GWBfDJqIbDCsUgmQ
Fhv/K53b0CDKieoofjKOGd97SDMe12X4rsn4gxSTdn1k0I7OvjV9/3IxTZ+evR5s
L6iPDAZQ+4wns3bJ9ObXwzTijIchhmH+v1V04SF3AwpobLvkyanmz1kl63zsRQ55
ZmjoIs2475iFTZYRPAmK0H+8KCgT+2rKVI2SXM3CZZgGns5IW9S1N5NGQXwH3c/6
Q++6Z2H/fUnguzB9XIDj5hY5S6c=
-----END CERTIFICATE-----

