Certificate:
    Data:
        Version: 3 (0x2)
        Serial Number:
            6d:a2:7a:e9:29:2e:b6:dd:c0:a8:00:1d:47:6e:3b:69
    Signature Algorithm: sha1WithRSAEncryption
        Issuer: C=US, O=VeriSign, Inc., OU=Class 3 Public Primary Certification Authority
        Validity
            Not Before: Dec  3 00:00:00 2001 GMT
            Not After : Dec  2 23:59:59 2011 GMT
        Subject: O=VeriSign, Inc., OU=VeriSign Trust Network, OU=Terms of use at https://www.verisign.com/rpa (c)01, CN=VeriSign Class 3 Code Signing 2001 CA
        Subject Public Key Info:
            Public Key Algorithm: rsaEncryption
                Public-Key: (1024 bit)
                Modulus:
                    00:c4:11:eb:75:ed:e7:98:84:9b:70:97:76:62:b1:
                    62:c1:de:73:3f:51:a6:bf:a0:d1:29:8e:8f:ec:1c:
                    17:da:e3:83:89:03:62:29:d2:10:58:ed:dd:65:09:
                    3c:e2:c4:c7:67:17:8b:ad:dc:5d:4d:c5:5e:67:18:
                    96:41:36:44:ba:f8:44:11:2f:b3:9f:7e:78:7f:b2:
                    2a:16:1e:6c:c8:05:00:d9:09:23:6c:28:cd:05:cc:
                    1e:db:6e:65:6a:d1:8f:02:e9:0c:1d:6e:87:6f:65:
                    ac:87:dd:06:46:8b:a0:5d:b5:62:4b:14:fb:2e:ed:
                    2c:8c:bc:40:c0:de:4e:6c:35
                Exponent: 65537 (0x10001)
        X509v3 extensions:
            X509v3 Basic Constraints: critical
                CA:TRUE, pathlen:0
            X509v3 Certificate Policies: 
                Policy: 2.16.840.1.113733.1.7.23.3
                  CPS: https://www.verisign.com/rpa

            X509v3 Extended Key Usage: 
                TLS Web Client Authentication, Code Signing
            X509v3 Key Usage: critical
                Certificate Sign, CRL Sign
            Netscape Cert Type: 
                Object Signing CA
            X509v3 Subject Alternative Name: 
                DirName:/CN=Class3CA1-12
            X509v3 Subject Key Identifier: 
                35:2B:F4:64:73:90:9C:03:6D:03:0D:67:60:6B:DD:0B:10:3C:BB:61
            X509v3 CRL Distribution Points: 

                Full Name:
                  URI:http://crl.verisign.com/pca3.crl

    Signature Algorithm: sha1WithRSAEncryption
         22:58:6d:3a:64:7a:9d:0c:f6:60:52:82:ed:b0:b3:c4:96:2a:
         c5:33:a9:01:74:6f:b3:76:d7:84:0a:2c:64:27:97:30:ba:2a:
         b2:ba:81:99:bb:23:87:c5:33:91:80:2d:37:a7:dc:b4:8b:ce:
         ba:39:94:74:3b:90:7e:b6:26:12:63:70:21:16:fc:39:f6:99:
         6f:d8:9f:18:25:13:89:24:44:69:e0:94:6f:13:2c:8f:e7:b0:
         57:94:91:9a:fe:a3:f5:dd:15:03:f7:81:19:13:0d:f7:17:50:
         25:24:5f:ae:e0:93:84:d6:03:2d:90:71:37:15:da:31:d2:5a:
         c5:f8
-----BEGIN CERTIFICATE-----
MIIDpjCCAw+gAwIBAgIQbaJ66Skutt3AqAAdR247aTANBgkqhkiG9w0BAQUFADBf
MQswCQYDVQQGEwJVUzEXMBUGA1UEChMOVmVyaVNpZ24sIEluYy4xNzA1BgNVBAsT
LkNsYXNzIDMgUHVibGljIFByaW1hcnkgQ2VydGlmaWNhdGlvbiBBdXRob3JpdHkw
HhcNMDExMjAzMDAwMDAwWhcNMTExMjAyMjM1OTU5WjCBpzEXMBUGA1UEChMOVmVy
aVNpZ24sIEluYy4xHzAdBgNVBAsTFlZlcmlTaWduIFRydXN0IE5ldHdvcmsxOzA5
BgNVBAsTMlRlcm1zIG9mIHVzZSBhdCBodHRwczovL3d3dy52ZXJpc2lnbi5jb20v
cnBhIChjKTAxMS4wLAYDVQQDEyVWZXJpU2lnbiBDbGFzcyAzIENvZGUgU2lnbmlu
ZyAyMDAxIENBMIGfMA0GCSqGSIb3DQEBAQUAA4GNADCBiQKBgQDEEet17eeYhJtw
l3ZisWLB3nM/Uaa/oNEpjo/sHBfa44OJA2Ip0hBY7d1lCTzixMdnF4ut3F1NxV5n
GJZBNkS6+EQRL7Offnh/sioWHmzIBQDZCSNsKM0FzB7bbmVq0Y8C6QwdbodvZayH
3QZGi6BdtWJLFPsu7SyMvEDA3k5sNQIDAQABo4IBGDCCARQwEgYDVR0TAQH/BAgw
BgEB/wIBADBEBgNVHSAEPTA7MDkGC2CGSAGG+EUBBxcDMCowKAYIKwYBBQUHAgEW
HGh0dHBzOi8vd3d3LnZlcmlzaWduLmNvbS9ycGEwHQYDVR0lBBYwFAYIKwYBBQUH
AwIGCCsGAQUFBwMDMA4GA1UdDwEB/wQEAwIBBjARBglghkgBhvhCAQEEBAMCAAEw
JAYDVR0RBB0wG6QZMBcxFTATBgNVBAMTDENsYXNzM0NBMS0xMjAdBgNVHQ4EFgQU
NSv0ZHOQnANtAw1nYGvdCxA8u2EwMQYDVR0fBCowKDAmoCSgIoYgaHR0cDovL2Ny
bC52ZXJpc2lnbi5jb20vcGNhMy5jcmwwDQYJKoZIhvcNAQEFBQADgYEAIlhtOmR6
nQz2YFKC7bCzxJYqxTOpAXRvs3bXhAosZCeXMLoqsrqBmbsjh8UzkYAtN6fctIvO
ujmUdDuQfrYmEmNwIRb8OfaZb9ifGCUTiSREaeCUbxMsj+ewV5SRmv6j9d0VA/eB
GRMN9xdQJSRfruCThNYDLZBxNxXaMdJaxfg=
-----END CERTIFICATE-----

Certificate:
    Data:
        Version: 3 (0x2)
        Serial Number:
            47:bf:19:95:df:8d:52:46:43:f7:db:6d:48:0d:31:a4
    Signature Algorithm: sha1WithRSAEncryption
        Issuer: C=ZA, ST=Western Cape, L=Durbanville, O=Thawte, OU=Thawte Certification, CN=Thawte Timestamping CA
        Validity
            Not Before: Dec  4 00:00:00 2003 GMT
            Not After : Dec  3 23:59:59 2013 GMT
        Subject: C=US, O=VeriSign, Inc., CN=VeriSign Time Stamping Services CA
        Subject Public Key Info:
            Public Key Algorithm: rsaEncryption
                Public-Key: (2048 bit)
                Modulus:
                    00:a9:ca:b2:a4:cc:cd:20:af:0a:7d:89:ac:87:75:
                    f0:b4:4e:f1:df:c1:0f:bf:67:61:bd:a3:64:1c:da:
                    bb:f9:ca:33:ab:84:30:89:58:7e:8c:db:6b:dd:36:
                    9e:0f:bf:d1:ec:78:f2:77:a6:7e:6f:3c:bf:93:af:
                    0d:ba:68:f4:6c:94:ca:bd:52:2d:ab:48:3d:f5:b6:
                    d5:5d:5f:1b:02:9f:fa:2f:6b:1e:a4:f7:a3:9a:a6:
                    1a:c8:02:e1:7f:4c:52:e3:0e:60:ec:40:1c:7e:b9:
                    0d:de:3f:c7:b4:df:87:bd:5f:7a:6a:31:2e:03:99:
                    81:13:a8:47:20:ce:31:73:0d:57:2d:cd:78:34:33:
                    95:12:99:12:b9:de:68:2f:aa:e6:e3:c2:8a:8c:2a:
                    c3:8b:21:87:66:bd:83:58:57:6f:75:bf:3c:aa:26:
                    87:5d:ca:10:15:3c:9f:84:ea:54:c1:0a:6e:c4:fe:
                    c5:4a:dd:b9:07:11:97:22:7c:db:3e:27:d1:1e:78:
                    ec:9f:31:c9:f1:e6:22:19:db:c4:b3:47:43:9a:1a:
                    5f:a0:1e:90:e4:5e:f5:ee:7c:f1:7d:ab:62:01:8f:
                    f5:4d:0b:de:d0:22:56:a8:95:cd:ae:88:76:ae:ee:
                    ba:0d:f3:e4:4d:d9:a0:fb:68:a0:ae:14:3b:b3:87:
                    c1:bb
                Exponent: 65537 (0x10001)
        X509v3 extensions:
            Authority Information Access: 
                OCSP - URI:http://ocsp.verisign.com

            X509v3 Basic Constraints: critical
                CA:TRUE, pathlen:0
            X509v3 CRL Distribution Points: 

                Full Name:
                  URI:http://crl.verisign.com/ThawteTimestampingCA.crl

            X509v3 Extended Key Usage: 
                Time Stamping
            X509v3 Key Usage: critical
                Certificate Sign, CRL Sign
            X509v3 Subject Alternative Name: 
                DirName:/CN=TSA2048-1-53
    Signature Algorithm: sha1WithRSAEncryption
         4a:6b:f9:ea:58:c2:44:1c:31:89:79:99:2b:96:bf:82:ac:01:
         d6:1c:4c:cd:b0:8a:58:6e:df:08:29:a3:5e:c8:ca:93:13:e7:
         04:52:0d:ef:47:27:2f:00:38:b0:e4:c9:93:4e:9a:d4:22:62:
         15:f7:3f:37:21:4f:70:31:80:f1:8b:38:87:b3:e8:e8:97:00:
         fe:cf:55:96:4e:24:d2:a9:27:4e:7a:ae:b7:61:41:f3:2a:ce:
         e7:c9:d9:5e:dd:bb:2b:85:3e:b5:9d:b5:d9:e1:57:ff:be:b4:
         c5:7e:f5:cf:0c:9e:f0:97:fe:2b:d3:3b:52:1b:1b:38:27:f7:
         3f:4a
-----BEGIN CERTIFICATE-----
MIIDxDCCAy2gAwIBAgIQR78Zld+NUkZD99ttSA0xpDANBgkqhkiG9w0BAQUFADCB
izELMAkGA1UEBhMCWkExFTATBgNVBAgTDFdlc3Rlcm4gQ2FwZTEUMBIGA1UEBxML
RHVyYmFudmlsbGUxDzANBgNVBAoTBlRoYXd0ZTEdMBsGA1UECxMUVGhhd3RlIENl
cnRpZmljYXRpb24xHzAdBgNVBAMTFlRoYXd0ZSBUaW1lc3RhbXBpbmcgQ0EwHhcN
MDMxMjA0MDAwMDAwWhcNMTMxMjAzMjM1OTU5WjBTMQswCQYDVQQGEwJVUzEXMBUG
A1UEChMOVmVyaVNpZ24sIEluYy4xKzApBgNVBAMTIlZlcmlTaWduIFRpbWUgU3Rh
bXBpbmcgU2VydmljZXMgQ0EwggEiMA0GCSqGSIb3DQEBAQUAA4IBDwAwggEKAoIB
AQCpyrKkzM0grwp9iayHdfC0TvHfwQ+/Z2G9o2Qc2rv5yjOrhDCJWH6M22vdNp4P
v9HsePJ3pn5vPL+Trw26aPRslMq9Ui2rSD31ttVdXxsCn/ovax6k96OaphrIAuF/
TFLjDmDsQBx+uQ3eP8e034e9X3pqMS4DmYETqEcgzjFzDVctzXg0M5USmRK53mgv
qubjwoqMKsOLIYdmvYNYV291vzyqJoddyhAVPJ+E6lTBCm7E/sVK3bkHEZcifNs+
J9EeeOyfMcnx5iIZ28SzR0OaGl+gHpDkXvXufPF9q2IBj/VNC97QIlaolc2uiHau
7roN8+RN2aD7aKCuFDuzh8G7AgMBAAGjgdswgdgwNAYIKwYBBQUHAQEEKDAmMCQG
CCsGAQUFBzABhhhodHRwOi8vb2NzcC52ZXJpc2lnbi5jb20wEgYDVR0TAQH/BAgw
BgEB/wIBADBBBgNVHR8EOjA4MDagNKAyhjBodHRwOi8vY3JsLnZlcmlzaWduLmNv
bS9UaGF3dGVUaW1lc3RhbXBpbmdDQS5jcmwwEwYDVR0lBAwwCgYIKwYBBQUHAwgw
DgYDVR0PAQH/BAQDAgEGMCQGA1UdEQQdMBukGTAXMRUwEwYDVQQDEwxUU0EyMDQ4
LTEtNTMwDQYJKoZIhvcNAQEFBQADgYEASmv56ljCRBwxiXmZK5a/gqwB1hxMzbCK
WG7fCCmjXsjKkxPnBFIN70cnLwA4sOTJk06a1CJiFfc/NyFPcDGA8Ys4h7Po6JcA
/s9Vlk4k0qknTnqut2FB8yrO58nZXt27K4U+tZ212eFX/760xX71zwye8Jf+K9M7
UhsbOCf3P0o=
-----END CERTIFICATE-----

Certificate:
    Data:
        Version: 3 (0x2)
        Serial Number:
            0d:e9:2b:f0:d4:d8:29:88:18:32:05:09:5e:9a:76:88
    Signature Algorithm: sha1WithRSAEncryption
        Issuer: C=US, O=VeriSign, Inc., CN=VeriSign Time Stamping Services CA
        Validity
            Not Before: Dec  4 00:00:00 2003 GMT
            Not After : Dec  3 23:59:59 2008 GMT
        Subject: C=US, O=VeriSign, Inc., CN=VeriSign Time Stamping Services Signer
        Subject Public Key Info:
            Public Key Algorithm: rsaEncryption
                Public-Key: (2048 bit)
                Modulus:
                    00:b2:50:28:48:dd:d3:68:7a:84:18:44:66:75:5d:
                    7e:c4:b8:9f:63:26:ff:3d:43:9c:7c:11:38:10:25:
                    55:73:d9:75:27:69:fd:4e:b9:20:5c:d3:0a:f9:a0:
                    1b:2a:ed:55:56:21:61:d8:1e:db:e4:bc:33:6b:c7:
                    ef:dd:a3:37:65:8e:1b:93:0c:b6:53:1e:5c:7c:66:
                    35:5f:05:8a:45:fe:76:4e:df:53:80:a2:81:20:9d:
                    ae:88:5c:a2:08:f7:e5:30:f9:ee:22:37:4c:42:0a:
                    ce:df:c6:1f:c4:d6:55:e9:81:3f:b5:52:a3:2c:aa:
                    01:7a:f2:a2:aa:8d:35:fe:9f:e6:5d:6a:05:9f:3d:
                    6b:e3:bf:96:c0:fe:cc:60:f9:40:e7:07:a0:44:eb:
                    81:51:6e:a5:2a:f2:b6:8a:10:28:ed:8f:dc:06:a0:
                    86:50:9a:7b:4a:08:0d:30:1d:ca:10:9e:6b:f7:e9:
                    58:ae:04:a9:40:99:b2:28:e8:8f:16:ac:3c:e3:53:
                    6f:4b:d3:35:9d:b5:6f:64:1d:b3:96:2c:bb:3d:e7:
                    79:eb:6d:7a:f9:16:e6:26:ad:af:ef:99:53:b7:40:
                    2c:95:b8:79:aa:fe:d4:52:ab:29:74:7e:42:ec:39:
                    1e:a2:6a:16:e6:59:bb:24:68:d8:00:80:43:10:87:
                    80:6b
                Exponent: 65537 (0x10001)
        X509v3 extensions:
            Authority Information Access: 
                OCSP - URI:http://ocsp.verisign.com

            X509v3 Basic Constraints: critical
                CA:FALSE
            X509v3 CRL Distribution Points: 

                Full Name:
                  URI:http://crl.verisign.com/tss-ca.crl

            X509v3 Extended Key Usage: critical
                Time Stamping
            X509v3 Key Usage: critical
                Digital Signature, Non Repudiation
            X509v3 Subject Alternative Name: 
                DirName:/CN=TSA2048-1-54
    Signature Algorithm: sha1WithRSAEncryption
         87:78:70:da:4e:52:01:20:5b:e0:79:c9:82:30:c4:fd:b9:19:
         96:bd:91:00:c3:bd:cd:cd:c6:f4:0e:d8:ff:f9:4d:c0:33:62:
         30:11:c5:f5:74:1b:d4:92:de:5f:9c:20:13:b1:7c:45:be:50:
         cd:83:e7:80:17:83:a7:27:93:67:13:46:fb:ca:b8:98:41:03:
         cc:9b:51:5b:05:8b:7f:a8:6f:f3:1b:50:1b:24:2e:f2:69:8d:
         6c:22:f7:bb:ca:16:95:ed:0c:74:c0:68:77:d9:eb:99:62:87:
         c1:73:90:f8:89:74:7a:23:ab:a3:98:7b:97:b1:f7:8f:29:71:
         4d:2e:75:1b:48:41:da:f0:b5:0d:20:54:d6:77:a0:97:82:63:
         69:fd:09:cf:8a:f0:75:bb:09:9b:d9:f9:11:55:26:9a:61:32:
         be:7a:02:b0:7b:86:be:a2:c3:8b:22:2c:78:d1:35:76:bc:92:
         73:5c:f9:b9:e6:4c:15:0a:23:cc:e4:d2:d4:34:2e:49:40:15:
         3c:0f:60:7a:24:c6:a5:66:ef:96:cf:70:eb:3e:e7:f4:0d:7e:
         dc:d1:7c:a3:76:71:69:c1:9c:4f:47:30:35:21:b1:a2:af:1a:
         62:3c:2b:d9:8e:aa:2a:07:7b:d8:18:b3:5c:7b:e2:9d:a5:6f:
         fe:3c:89:ad
-----BEGIN CERTIFICATE-----
MIID/zCCAuegAwIBAgIQDekr8NTYKYgYMgUJXpp2iDANBgkqhkiG9w0BAQUFADBT
MQswCQYDVQQGEwJVUzEXMBUGA1UEChMOVmVyaVNpZ24sIEluYy4xKzApBgNVBAMT
IlZlcmlTaWduIFRpbWUgU3RhbXBpbmcgU2VydmljZXMgQ0EwHhcNMDMxMjA0MDAw
MDAwWhcNMDgxMjAzMjM1OTU5WjBXMQswCQYDVQQGEwJVUzEXMBUGA1UEChMOVmVy
aVNpZ24sIEluYy4xLzAtBgNVBAMTJlZlcmlTaWduIFRpbWUgU3RhbXBpbmcgU2Vy
dmljZXMgU2lnbmVyMIIBIjANBgkqhkiG9w0BAQEFAAOCAQ8AMIIBCgKCAQEAslAo
SN3TaHqEGERmdV1+xLifYyb/PUOcfBE4ECVVc9l1J2n9TrkgXNMK+aAbKu1VViFh
2B7b5Lwza8fv3aM3ZY4bkwy2Ux5cfGY1XwWKRf52Tt9TgKKBIJ2uiFyiCPflMPnu
IjdMQgrO38YfxNZV6YE/tVKjLKoBevKiqo01/p/mXWoFnz1r47+WwP7MYPlA5weg
ROuBUW6lKvK2ihAo7Y/cBqCGUJp7SggNMB3KEJ5r9+lYrgSpQJmyKOiPFqw841Nv
S9M1nbVvZB2zliy7Ped56216+RbmJq2v75lTt0Aslbh5qv7UUqspdH5C7DkeomoW
5lm7JGjYAIBDEIeAawIDAQABo4HKMIHHMDQGCCsGAQUFBwEBBCgwJjAkBggrBgEF
BQcwAYYYaHR0cDovL29jc3AudmVyaXNpZ24uY29tMAwGA1UdEwEB/wQCMAAwMwYD
VR0fBCwwKjAooCagJIYiaHR0cDovL2NybC52ZXJpc2lnbi5jb20vdHNzLWNhLmNy
bDAWBgNVHSUBAf8EDDAKBggrBgEFBQcDCDAOBgNVHQ8BAf8EBAMCBsAwJAYDVR0R
BB0wG6QZMBcxFTATBgNVBAMTDFRTQTIwNDgtMS01NDANBgkqhkiG9w0BAQUFAAOC
AQEAh3hw2k5SASBb4HnJgjDE/bkZlr2RAMO9zc3G9A7Y//lNwDNiMBHF9XQb1JLe
X5wgE7F8Rb5QzYPngBeDpyeTZxNG+8q4mEEDzJtRWwWLf6hv8xtQGyQu8mmNbCL3
u8oWle0MdMBod9nrmWKHwXOQ+Il0eiOro5h7l7H3jylxTS51G0hB2vC1DSBU1neg
l4Jjaf0Jz4rwdbsJm9n5EVUmmmEyvnoCsHuGvqLDiyIseNE1drySc1z5ueZMFQoj
zOTS1DQuSUAVPA9geiTGpWbvls9w6z7n9A1+3NF8o3ZxacGcT0cwNSGxoq8aYjwr
2Y6qKgd72BizXHvinaVv/jyJrQ==
-----END CERTIFICATE-----

Certificate:
    Data:
        Version: 3 (0x2)
        Serial Number:
            6e:fd:a6:7f:b4:dc:2b:17:c6:ae:05:1c:07:34:67:96
    Signature Algorithm: sha1WithRSAEncryption
        Issuer: O=VeriSign, Inc., OU=VeriSign Trust Network, OU=Terms of use at https://www.verisign.com/rpa (c)01, CN=VeriSign Class 3 Code Signing 2001 CA
        Validity
            Not Before: Jul 29 00:00:00 2004 GMT
            Not After : Jul 29 23:59:59 2005 GMT
        Subject: C=US, ST=Texas, L=Round Rock, O=Dell Inc, OU=Digital ID Class 3 - Microsoft Software Validation v2, OU=PG Software, CN=Dell Inc
        Subject Public Key Info:
            Public Key Algorithm: rsaEncryption
                Public-Key: (1024 bit)
                Modulus:
                    00:c4:8e:3d:6a:d6:4a:78:a7:d6:36:9f:8c:ab:7a:
                    74:9e:1b:a6:fc:70:7f:16:08:6f:fc:11:36:b7:ce:
                    bf:b6:6a:23:28:0c:4e:91:27:67:5e:3b:ce:81:46:
                    cc:7a:2c:e1:f9:2b:b3:89:b9:65:d7:ef:e9:f0:cf:
                    3f:6a:44:50:50:ec:27:b7:8d:c1:1d:47:db:27:d1:
                    19:75:e9:d1:df:24:02:d3:f3:ed:ec:ee:21:ab:14:
                    8e:48:c7:28:ca:db:50:10:10:a9:f6:95:e9:94:f3:
                    97:a3:01:de:26:55:e0:b1:a7:1e:09:bf:54:09:28:
                    d9:01:73:53:ae:8a:f7:25:c9
                Exponent: 65537 (0x10001)
        X509v3 extensions:
            X509v3 Basic Constraints: 
                CA:FALSE
            X509v3 Key Usage: critical
                Digital Signature
            X509v3 CRL Distribution Points: 

                Full Name:
                  URI:http://crl.verisign.com/Class3CodeSigning2001.crl

            X509v3 Certificate Policies: 
                Policy: 2.16.840.1.113733.1.7.23.3
                  CPS: https://www.verisign.com/rpa

            X509v3 Extended Key Usage: 
                Code Signing
            Authority Information Access: 
                OCSP - URI:https://ocsp.verisign.com

            X509v3 Authority Key Identifier: 
                keyid:35:2B:F4:64:73:90:9C:03:6D:03:0D:67:60:6B:DD:0B:10:3C:BB:61

            Netscape Cert Type: 
                Object Signing
            1.3.6.1.4.1.311.2.1.27: 
                0.......
    Signature Algorithm: sha1WithRSAEncryption
         56:17:ad:bc:d0:47:97:d7:61:68:af:c2:5e:0e:32:0d:f5:4a:
         7b:2a:81:c5:7a:d9:19:3c:2b:0e:f0:b7:76:36:ef:c0:3f:f5:
         42:fe:10:3f:97:a1:e9:7e:40:1d:62:9d:80:7e:d3:2b:5d:9a:
         79:35:37:fc:03:3c:7c:b8:da:7f:2f:6a:af:53:b9:04:eb:9e:
         43:eb:23:be:e5:2f:ae:4b:12:88:63:fd:2f:dc:d5:39:db:a5:
         ad:d8:94:a2:81:f6:aa:9c:83:55:be:75:0c:c8:ce:c2:e1:85:
         e5:7e:c1:94:38:a4:82:b8:41:e7:eb:ec:99:89:00:21:e3:15:
         2d:b4
-----BEGIN CERTIFICATE-----
MIIEHzCCA4igAwIBAgIQbv2mf7TcKxfGrgUcBzRnljANBgkqhkiG9w0BAQUFADCB
pzEXMBUGA1UEChMOVmVyaVNpZ24sIEluYy4xHzAdBgNVBAsTFlZlcmlTaWduIFRy
dXN0IE5ldHdvcmsxOzA5BgNVBAsTMlRlcm1zIG9mIHVzZSBhdCBodHRwczovL3d3
dy52ZXJpc2lnbi5jb20vcnBhIChjKTAxMS4wLAYDVQQDEyVWZXJpU2lnbiBDbGFz
cyAzIENvZGUgU2lnbmluZyAyMDAxIENBMB4XDTA0MDcyOTAwMDAwMFoXDTA1MDcy
OTIzNTk1OVowga4xCzAJBgNVBAYTAlVTMQ4wDAYDVQQIEwVUZXhhczETMBEGA1UE
BxMKUm91bmQgUm9jazERMA8GA1UEChQIRGVsbCBJbmMxPjA8BgNVBAsTNURpZ2l0
YWwgSUQgQ2xhc3MgMyAtIE1pY3Jvc29mdCBTb2Z0d2FyZSBWYWxpZGF0aW9uIHYy
MRQwEgYDVQQLFAtQRyBTb2Z0d2FyZTERMA8GA1UEAxQIRGVsbCBJbmMwgZ8wDQYJ
KoZIhvcNAQEBBQADgY0AMIGJAoGBAMSOPWrWSnin1jafjKt6dJ4bpvxwfxYIb/wR
NrfOv7ZqIygMTpEnZ147zoFGzHos4fkrs4m5Zdfv6fDPP2pEUFDsJ7eNwR1H2yfR
GXXp0d8kAtPz7ezuIasUjkjHKMrbUBAQqfaV6ZTzl6MB3iZV4LGnHgm/VAko2QFz
U66K9yXJAgMBAAGjggFBMIIBPTAJBgNVHRMEAjAAMA4GA1UdDwEB/wQEAwIHgDBC
BgNVHR8EOzA5MDegNaAzhjFodHRwOi8vY3JsLnZlcmlzaWduLmNvbS9DbGFzczND
b2RlU2lnbmluZzIwMDEuY3JsMEQGA1UdIAQ9MDswOQYLYIZIAYb4RQEHFwMwKjAo
BggrBgEFBQcCARYcaHR0cHM6Ly93d3cudmVyaXNpZ24uY29tL3JwYTATBgNVHSUE
DDAKBggrBgEFBQcDAzA1BggrBgEFBQcBAQQpMCcwJQYIKwYBBQUHMAGGGWh0dHBz
Oi8vb2NzcC52ZXJpc2lnbi5jb20wHwYDVR0jBBgwFoAUNSv0ZHOQnANtAw1nYGvd
CxA8u2EwEQYJYIZIAYb4QgEBBAQDAgQQMBYGCisGAQQBgjcCARsECDAGAQEAAQH/
MA0GCSqGSIb3DQEBBQUAA4GBAFYXrbzQR5fXYWivwl4OMg31SnsqgcV62Rk8Kw7w
t3Y278A/9UL+ED+Xoel+QB1inYB+0ytdmnk1N/wDPHy42n8vaq9TuQTrnkPrI77l
L65LEohj/S/c1Tnbpa3YlKKB9qqcg1W+dQzIzsLhheV+wZQ4pIK4Qefr7JmJACHj
FS20
-----END CERTIFICATE-----

