Certificate:
    Data:
        Version: 3 (0x2)
        Serial Number:
            7e:93:eb:fb:7c:c6:4e:59:ea:4b:9a:77:d4:06:fc:3b
    Signature Algorithm: sha1WithRSAEncryption
        Issuer: C=ZA, ST=Western Cape, L=Durbanville, O=Thawte, OU=Thawte Certification, CN=Thawte Timestamping CA
        Validity
            Not Before: Dec 21 00:00:00 2012 GMT
            Not After : Dec 30 23:59:59 2020 GMT
        Subject: C=US, O=Symantec Corporation, CN=Symantec Time Stamping Services CA - G2
        Subject Public Key Info:
            Public Key Algorithm: rsaEncryption
                Public-Key: (2048 bit)
                Modulus:
                    00:b1:ac:b3:49:54:4b:97:1c:12:0a:d8:25:79:91:
                    22:57:2a:6f:dc:b8:26:c4:43:73:6b:c2:bf:2e:50:
                    5a:fb:14:c2:76:8e:43:01:25:43:b4:a1:e2:45:f4:
                    e8:b7:7b:c3:74:cc:22:d7:b4:94:00:02:f7:4d:ed:
                    bf:b4:b7:44:24:6b:cd:5f:45:3b:d1:44:ce:43:12:
                    73:17:82:8b:69:b4:2b:cb:99:1e:ac:72:1b:26:4d:
                    71:1f:b1:31:dd:fb:51:61:02:53:a6:aa:f5:49:2c:
                    05:78:45:a5:2f:89:ce:e7:99:e7:fe:8c:e2:57:3f:
                    3d:c6:92:dc:4a:f8:7b:33:e4:79:0a:fb:f0:75:88:
                    41:9c:ff:c5:03:51:99:aa:d7:6c:9f:93:69:87:65:
                    29:83:85:c2:60:14:c4:c8:c9:3b:14:da:c0:81:f0:
                    1f:0d:74:de:92:22:ab:ca:f7:fb:74:7c:27:e6:f7:
                    4a:1b:7f:a7:c3:9e:2d:ae:8a:ea:a6:e6:aa:27:16:
                    7d:61:f7:98:71:11:bc:e2:50:a1:4b:e5:5d:fa:e5:
                    0e:a7:2c:9f:aa:65:20:d3:d8:96:e8:c8:7c:a5:4e:
                    48:44:ff:19:e2:44:07:92:0b:d7:68:84:80:5d:6a:
                    78:64:45:cd:60:46:7e:54:c1:13:7c:c5:79:f1:c9:
                    c1:71
                Exponent: 65537 (0x10001)
        X509v3 extensions:
            X509v3 Subject Key Identifier: 
                5F:9A:F5:6E:5C:CC:CC:74:9A:D4:DD:7D:EF:3F:DB:EC:4C:80:2E:DD
            Authority Information Access: 
                OCSP - URI:http://ocsp.thawte.com

            X509v3 Basic Constraints: critical
                CA:TRUE, pathlen:0
            X509v3 CRL Distribution Points: 

                Full Name:
                  URI:http://crl.thawte.com/ThawteTimestampingCA.crl

            X509v3 Extended Key Usage: 
                Time Stamping
            X509v3 Key Usage: critical
                Certificate Sign, CRL Sign
            X509v3 Subject Alternative Name: 
                DirName:/CN=TimeStamp-2048-1
    Signature Algorithm: sha1WithRSAEncryption
         03:09:9b:8f:79:ef:7f:59:30:aa:ef:68:b5:fa:e3:09:1d:bb:
         4f:82:06:5d:37:5f:a6:52:9f:16:8d:ea:1c:92:09:44:6e:f5:
         6d:eb:58:7c:30:e8:f9:69:8d:23:73:0b:12:6f:47:a9:ae:39:
         11:f8:2a:b1:9b:b0:1a:c3:8e:eb:59:96:00:ad:ce:0c:4d:b2:
         d0:31:a6:08:5c:2a:7a:fc:e2:7a:1d:57:4c:a8:65:18:e9:79:
         40:62:25:96:6e:c7:c7:37:6a:83:21:08:8e:41:ea:dd:d9:57:
         3f:1d:77:49:87:2a:16:06:5e:a6:38:6a:22:12:a3:51:19:83:
         7e:b6
-----BEGIN CERTIFICATE-----
MIID7jCCA1egAwIBAgIQfpPr+3zGTlnqS5p31Ab8OzANBgkqhkiG9w0BAQUFADCB
izELMAkGA1UEBhMCWkExFTATBgNVBAgTDFdlc3Rlcm4gQ2FwZTEUMBIGA1UEBxML
RHVyYmFudmlsbGUxDzANBgNVBAoTBlRoYXd0ZTEdMBsGA1UECxMUVGhhd3RlIENl
cnRpZmljYXRpb24xHzAdBgNVBAMTFlRoYXd0ZSBUaW1lc3RhbXBpbmcgQ0EwHhcN
MTIxMjIxMDAwMDAwWhcNMjAxMjMwMjM1OTU5WjBeMQswCQYDVQQGEwJVUzEdMBsG
A1UEChMUU3ltYW50ZWMgQ29ycG9yYXRpb24xMDAuBgNVBAMTJ1N5bWFudGVjIFRp
bWUgU3RhbXBpbmcgU2VydmljZXMgQ0EgLSBHMjCCASIwDQYJKoZIhvcNAQEBBQAD
ggEPADCCAQoCggEBALGss0lUS5ccEgrYJXmRIlcqb9y4JsRDc2vCvy5QWvsUwnaO
QwElQ7Sh4kX06Ld7w3TMIte0lAAC903tv7S3RCRrzV9FO9FEzkMScxeCi2m0K8uZ
HqxyGyZNcR+xMd37UWECU6aq9UksBXhFpS+JzueZ5/6M4lc/PcaS3Er4ezPkeQr7
8HWIQZz/xQNRmarXbJ+TaYdlKYOFwmAUxMjJOxTawIHwHw103pIiq8r3+3R8J+b3
Sht/p8OeLa6K6qbmqicWfWH3mHERvOJQoUvlXfrlDqcsn6plINPYlujIfKVOSET/
GeJEB5IL12iEgF1qeGRFzWBGflTBE3zFefHJwXECAwEAAaOB+jCB9zAdBgNVHQ4E
FgQUX5r1blzMzHSa1N197z/b7EyALt0wMgYIKwYBBQUHAQEEJjAkMCIGCCsGAQUF
BzABhhZodHRwOi8vb2NzcC50aGF3dGUuY29tMBIGA1UdEwEB/wQIMAYBAf8CAQAw
PwYDVR0fBDgwNjA0oDKgMIYuaHR0cDovL2NybC50aGF3dGUuY29tL1RoYXd0ZVRp
bWVzdGFtcGluZ0NBLmNybDATBgNVHSUEDDAKBggrBgEFBQcDCDAOBgNVHQ8BAf8E
BAMCAQYwKAYDVR0RBCEwH6QdMBsxGTAXBgNVBAMTEFRpbWVTdGFtcC0yMDQ4LTEw
DQYJKoZIhvcNAQEFBQADgYEAAwmbj3nvf1kwqu9otfrjCR27T4IGXTdfplKfFo3q
HJIJRG71betYfDDo+WmNI3MLEm9Hqa45EfgqsZuwGsOO61mWAK3ODE2y0DGmCFwq
evzieh1XTKhlGOl5QGIllm7HxzdqgyEIjkHq3dlXPx13SYcqFgZepjhqIhKjURmD
frY=
-----END CERTIFICATE-----

Certificate:
    Data:
        Version: 3 (0x2)
        Serial Number:
            33:65:50:08:79:ad:73:e2:30:b9:e0:1d:0d:7f:ac:91
    Signature Algorithm: sha1WithRSAEncryption
        Issuer: C=ZA, ST=Western Cape, L=Cape Town, O=Thawte Consulting cc, OU=Certification Services Division, CN=Thawte Premium Server CA/emailAddress=premium-server@thawte.com
        Validity
            Not Before: Nov 17 00:00:00 2006 GMT
            Not After : Dec 30 23:59:59 2020 GMT
        Subject: C=US, O=thawte, Inc., OU=Certification Services Division, OU=(c) 2006 thawte, Inc. - For authorized use only, CN=thawte Primary Root CA
        Subject Public Key Info:
            Public Key Algorithm: rsaEncryption
                Public-Key: (2048 bit)
                Modulus:
                    00:ac:a0:f0:fb:80:59:d4:9c:c7:a4:cf:9d:a1:59:
                    73:09:10:45:0c:0d:2c:6e:68:f1:6c:5b:48:68:49:
                    59:37:fc:0b:33:19:c2:77:7f:cc:10:2d:95:34:1c:
                    e6:eb:4d:09:a7:1c:d2:b8:c9:97:36:02:b7:89:d4:
                    24:5f:06:c0:cc:44:94:94:8d:02:62:6f:eb:5a:dd:
                    11:8d:28:9a:5c:84:90:10:7a:0d:bd:74:66:2f:6a:
                    38:a0:e2:d5:54:44:eb:1d:07:9f:07:ba:6f:ee:e9:
                    fd:4e:0b:29:f5:3e:84:a0:01:f1:9c:ab:f8:1c:7e:
                    89:a4:e8:a1:d8:71:65:0d:a3:51:7b:ee:bc:d2:22:
                    60:0d:b9:5b:9d:df:ba:fc:51:5b:0b:af:98:b2:e9:
                    2e:e9:04:e8:62:87:de:2b:c8:d7:4e:c1:4c:64:1e:
                    dd:cf:87:58:ba:4a:4f:ca:68:07:1d:1c:9d:4a:c6:
                    d5:2f:91:cc:7c:71:72:1c:c5:c0:67:eb:32:fd:c9:
                    92:5c:94:da:85:c0:9b:bf:53:7d:2b:09:f4:8c:9d:
                    91:1f:97:6a:52:cb:de:09:36:a4:77:d8:7b:87:50:
                    44:d5:3e:6e:29:69:fb:39:49:26:1e:09:a5:80:7b:
                    40:2d:eb:e8:27:85:c9:fe:61:fd:7e:e6:7c:97:1d:
                    d5:9d
                Exponent: 65537 (0x10001)
        X509v3 extensions:
            X509v3 Basic Constraints: critical
                CA:TRUE
            X509v3 Certificate Policies: 
                Policy: X509v3 Any Policy
                  CPS: https://www.thawte.com/cps

            X509v3 Key Usage: critical
                Certificate Sign, CRL Sign
            X509v3 Subject Key Identifier: 
                7B:5B:45:CF:AF:CE:CB:7A:FD:31:92:1A:6A:B6:F3:46:EB:57:48:50
            X509v3 CRL Distribution Points: 

                Full Name:
                  URI:http://crl.thawte.com/ThawtePremiumServerCA.crl

    Signature Algorithm: sha1WithRSAEncryption
         84:a8:4c:c9:3e:2a:bc:9a:e2:cc:8f:0b:b2:25:77:c4:61:89:
         89:63:5a:d4:a3:15:40:d4:fb:5e:3f:b4:43:ea:63:17:2b:6b:
         99:74:9e:09:a8:dd:d4:56:15:2e:7a:79:31:5f:63:96:53:1b:
         34:d9:15:ea:4f:6d:70:ca:be:f6:82:a9:ed:da:85:77:cc:76:
         1c:6a:81:0a:21:d8:41:99:7f:5e:2e:82:c1:e8:aa:f7:93:81:
         05:aa:92:b4:1f:b7:9a:c0:07:17:f5:cb:c6:b4:4c:0e:d7:56:
         dc:71:20:74:38:d6:74:c6:d6:8f:6b:af:8b:8d:a0:6c:29:0b:
         61:e0
-----BEGIN CERTIFICATE-----
MIIERTCCA66gAwIBAgIQM2VQCHmtc+IwueAdDX+skTANBgkqhkiG9w0BAQUFADCB
zjELMAkGA1UEBhMCWkExFTATBgNVBAgTDFdlc3Rlcm4gQ2FwZTESMBAGA1UEBxMJ
Q2FwZSBUb3duMR0wGwYDVQQKExRUaGF3dGUgQ29uc3VsdGluZyBjYzEoMCYGA1UE
CxMfQ2VydGlmaWNhdGlvbiBTZXJ2aWNlcyBEaXZpc2lvbjEhMB8GA1UEAxMYVGhh
d3RlIFByZW1pdW0gU2VydmVyIENBMSgwJgYJKoZIhvcNAQkBFhlwcmVtaXVtLXNl
cnZlckB0aGF3dGUuY29tMB4XDTA2MTExNzAwMDAwMFoXDTIwMTIzMDIzNTk1OVow
gakxCzAJBgNVBAYTAlVTMRUwEwYDVQQKEwx0aGF3dGUsIEluYy4xKDAmBgNVBAsT
H0NlcnRpZmljYXRpb24gU2VydmljZXMgRGl2aXNpb24xODA2BgNVBAsTLyhjKSAy
MDA2IHRoYXd0ZSwgSW5jLiAtIEZvciBhdXRob3JpemVkIHVzZSBvbmx5MR8wHQYD
VQQDExZ0aGF3dGUgUHJpbWFyeSBSb290IENBMIIBIjANBgkqhkiG9w0BAQEFAAOC
AQ8AMIIBCgKCAQEArKDw+4BZ1JzHpM+doVlzCRBFDA0sbmjxbFtIaElZN/wLMxnC
d3/MEC2VNBzm600JpxzSuMmXNgK3idQkXwbAzESUlI0CYm/rWt0RjSiaXISQEHoN
vXRmL2o4oOLVVETrHQefB7pv7un9Tgsp9T6EoAHxnKv4HH6JpOih2HFlDaNRe+68
0iJgDblbnd+6/FFbC6+Ysuku6QToYofeK8jXTsFMZB7dz4dYukpPymgHHRydSsbV
L5HMfHFyHMXAZ+sy/cmSXJTahcCbv1N9Kwn0jJ2RH5dqUsveCTakd9h7h1BE1T5u
KWn7OUkmHgmlgHtALevoJ4XJ/mH9fuZ8lx3VnQIDAQABo4HCMIG/MA8GA1UdEwEB
/wQFMAMBAf8wOwYDVR0gBDQwMjAwBgRVHSAAMCgwJgYIKwYBBQUHAgEWGmh0dHBz
Oi8vd3d3LnRoYXd0ZS5jb20vY3BzMA4GA1UdDwEB/wQEAwIBBjAdBgNVHQ4EFgQU
e1tFz6/Oy3r9MZIaarbzRutXSFAwQAYDVR0fBDkwNzA1oDOgMYYvaHR0cDovL2Ny
bC50aGF3dGUuY29tL1RoYXd0ZVByZW1pdW1TZXJ2ZXJDQS5jcmwwDQYJKoZIhvcN
AQEFBQADgYEAhKhMyT4qvJrizI8LsiV3xGGJiWNa1KMVQNT7Xj+0Q+pjFytrmXSe
Cajd1FYVLnp5MV9jllMbNNkV6k9tcMq+9oKp7dqFd8x2HGqBCiHYQZl/Xi6Cweiq
95OBBaqStB+3msAHF/XLxrRMDtdW3HEgdDjWdMbWj2uvi42gbCkLYeA=
-----END CERTIFICATE-----

Certificate:
    Data:
        Version: 3 (0x2)
        Serial Number:
            47:97:4d:78:73:a5:bc:ab:0d:2f:b3:70:19:2f:ce:5e
    Signature Algorithm: sha1WithRSAEncryption
        Issuer: C=US, O=thawte, Inc., OU=Certification Services Division, OU=(c) 2006 thawte, Inc. - For authorized use only, CN=thawte Primary Root CA
        Validity
            Not Before: Feb  8 00:00:00 2010 GMT
            Not After : Feb  7 23:59:59 2020 GMT
        Subject: C=US, O=Thawte, Inc., CN=Thawte Code Signing CA - G2
        Subject Public Key Info:
            Public Key Algorithm: rsaEncryption
                Public-Key: (2048 bit)
                Modulus:
                    00:b7:8b:cf:75:5b:9f:25:da:7e:39:b0:93:db:38:
                    d3:a9:23:d0:82:fa:e9:24:7e:5c:0b:8e:83:f8:e6:
                    7a:59:e6:a3:c5:98:a7:99:d2:44:ff:00:a6:a5:39:
                    04:8a:da:29:88:ea:db:a2:f3:1c:99:15:26:c2:b1:
                    f4:fc:e1:0c:47:a9:09:11:06:0a:20:92:b9:c7:a0:
                    04:8c:5c:94:19:ab:5b:25:2c:1d:62:7e:70:0d:ce:
                    61:6c:dd:2b:82:c9:ce:5d:48:5f:f7:c2:be:bc:41:
                    23:1e:4f:29:5d:d7:4f:bc:f4:c5:2a:fc:63:e6:7c:
                    26:4e:99:a7:79:41:9e:10:4a:7a:79:c9:c6:86:f7:
                    86:95:d2:26:ce:3c:18:2a:d6:7c:ce:af:cd:ad:bb:
                    f7:82:2c:70:26:37:45:e5:0f:47:22:c6:01:28:bd:
                    2e:83:5c:6a:a4:47:c1:e7:d0:d8:6b:81:46:3f:21:
                    17:f5:07:c5:43:5a:a6:67:2c:b8:7b:60:11:b5:83:
                    ee:f5:74:0a:72:71:44:3d:58:fe:e8:1a:ab:38:c3:
                    59:db:7f:6e:38:7d:76:c7:72:69:98:36:96:57:d3:
                    66:1c:d2:54:91:04:2e:54:19:b0:dc:3d:b5:22:5e:
                    86:d5:2a:7e:20:df:5d:e6:7a:b1:65:fe:c5:02:4e:
                    31:2d
                Exponent: 65537 (0x10001)
        X509v3 extensions:
            X509v3 Basic Constraints: critical
                CA:TRUE, pathlen:0
            X509v3 CRL Distribution Points: 

                Full Name:
                  URI:http://crl.thawte.com/ThawtePCA.crl

            X509v3 Key Usage: critical
                Certificate Sign, CRL Sign
            Authority Information Access: 
                OCSP - URI:http://ocsp.thawte.com

            X509v3 Extended Key Usage: 
                TLS Web Client Authentication, Code Signing
            X509v3 Subject Alternative Name: 
                DirName:/CN=VeriSignMPKI-2-10
            X509v3 Subject Key Identifier: 
                D4:0D:65:3F:7A:BD:34:C6:FE:47:E7:4C:0D:C0:BD:F2:DE:15:AB:71
            X509v3 Authority Key Identifier: 
                keyid:7B:5B:45:CF:AF:CE:CB:7A:FD:31:92:1A:6A:B6:F3:46:EB:57:48:50

    Signature Algorithm: sha1WithRSAEncryption
         56:fe:53:5c:e1:c7:9e:bc:a7:ed:7e:53:6d:6a:14:4b:51:8c:
         40:5e:80:5f:aa:a4:e8:2f:ef:38:c8:04:c9:ca:3e:cf:df:3a:
         58:4e:b0:d4:b6:63:c5:29:57:fa:02:05:9a:45:4d:68:db:2a:
         1b:d4:34:3d:9f:00:c3:5a:cb:95:49:a5:6e:e1:b0:c5:fc:41:
         4d:41:4a:6f:d3:77:c8:d7:38:8d:e4:19:de:18:f3:1f:15:65:
         83:6d:45:0c:53:f9:0a:9a:2e:a5:5d:bf:6f:32:81:18:92:19:
         6a:55:00:ad:63:1c:52:06:7e:55:d9:29:68:ae:4a:7c:18:9a:
         79:88:6b:23:23:d8:27:38:2a:29:87:76:ca:fb:c7:b6:62:23:
         1f:ed:7a:56:4c:dd:9c:32:5b:f5:3d:0c:46:18:95:3b:2a:23:
         68:83:64:41:d9:00:6d:0f:19:24:15:68:72:bd:c5:71:67:6e:
         ac:4c:db:90:eb:51:a5:1a:62:07:d0:be:6a:00:47:3c:72:2f:
         ec:4f:61:3e:73:85:ce:5a:0a:b7:ba:c0:1c:13:75:e3:22:39:
         28:dd:6d:1d:09:46:9d:4f:ba:e8:40:81:91:c6:a4:ce:94:72:
         1b:01:cf:2a:6e:15:67:95:89:ae:7d:b7:b7:cd:f9:0a:3d:75:
         b6:6b:3c:25
-----BEGIN CERTIFICATE-----
MIIEnDCCA4SgAwIBAgIQR5dNeHOlvKsNL7NwGS/OXjANBgkqhkiG9w0BAQUFADCB
qTELMAkGA1UEBhMCVVMxFTATBgNVBAoTDHRoYXd0ZSwgSW5jLjEoMCYGA1UECxMf
Q2VydGlmaWNhdGlvbiBTZXJ2aWNlcyBEaXZpc2lvbjE4MDYGA1UECxMvKGMpIDIw
MDYgdGhhd3RlLCBJbmMuIC0gRm9yIGF1dGhvcml6ZWQgdXNlIG9ubHkxHzAdBgNV
BAMTFnRoYXd0ZSBQcmltYXJ5IFJvb3QgQ0EwHhcNMTAwMjA4MDAwMDAwWhcNMjAw
MjA3MjM1OTU5WjBKMQswCQYDVQQGEwJVUzEVMBMGA1UEChMMVGhhd3RlLCBJbmMu
MSQwIgYDVQQDExtUaGF3dGUgQ29kZSBTaWduaW5nIENBIC0gRzIwggEiMA0GCSqG
SIb3DQEBAQUAA4IBDwAwggEKAoIBAQC3i891W58l2n45sJPbONOpI9CC+ukkflwL
joP45npZ5qPFmKeZ0kT/AKalOQSK2imI6tui8xyZFSbCsfT84QxHqQkRBgogkrnH
oASMXJQZq1slLB1ifnANzmFs3SuCyc5dSF/3wr68QSMeTyld10+89MUq/GPmfCZO
mad5QZ4QSnp5ycaG94aV0ibOPBgq1nzOr82tu/eCLHAmN0XlD0cixgEovS6DXGqk
R8Hn0NhrgUY/IRf1B8VDWqZnLLh7YBG1g+71dApycUQ9WP7oGqs4w1nbf244fXbH
cmmYNpZX02Yc0lSRBC5UGbDcPbUiXobVKn4g313merFl/sUCTjEtAgMBAAGjggEc
MIIBGDASBgNVHRMBAf8ECDAGAQH/AgEAMDQGA1UdHwQtMCswKaAnoCWGI2h0dHA6
Ly9jcmwudGhhd3RlLmNvbS9UaGF3dGVQQ0EuY3JsMA4GA1UdDwEB/wQEAwIBBjAy
BggrBgEFBQcBAQQmMCQwIgYIKwYBBQUHMAGGFmh0dHA6Ly9vY3NwLnRoYXd0ZS5j
b20wHQYDVR0lBBYwFAYIKwYBBQUHAwIGCCsGAQUFBwMDMCkGA1UdEQQiMCCkHjAc
MRowGAYDVQQDExFWZXJpU2lnbk1QS0ktMi0xMDAdBgNVHQ4EFgQU1A1lP3q9NMb+
R+dMDcC98t4Vq3EwHwYDVR0jBBgwFoAUe1tFz6/Oy3r9MZIaarbzRutXSFAwDQYJ
KoZIhvcNAQEFBQADggEBAFb+U1zhx568p+1+U21qFEtRjEBegF+qpOgv7zjIBMnK
Ps/fOlhOsNS2Y8UpV/oCBZpFTWjbKhvUND2fAMNay5VJpW7hsMX8QU1BSm/Td8jX
OI3kGd4Y8x8VZYNtRQxT+QqaLqVdv28ygRiSGWpVAK1jHFIGflXZKWiuSnwYmnmI
ayMj2Cc4KimHdsr7x7ZiIx/telZM3ZwyW/U9DEYYlTsqI2iDZEHZAG0PGSQVaHK9
xXFnbqxM25DrUaUaYgfQvmoARzxyL+xPYT5zhc5aCre6wBwTdeMiOSjdbR0JRp1P
uuhAgZHGpM6UchsBzypuFWeVia59t7fN+Qo9dbZrPCU=
-----END CERTIFICATE-----

Certificate:
    Data:
        Version: 3 (0x2)
        Serial Number:
            0e:cf:f4:38:c8:fe:bf:35:6e:04:d8:6a:98:1b:1a:50
    Signature Algorithm: sha1WithRSAEncryption
        Issuer: C=US, O=Symantec Corporation, CN=Symantec Time Stamping Services CA - G2
        Validity
            Not Before: Oct 18 00:00:00 2012 GMT
            Not After : Dec 29 23:59:59 2020 GMT
        Subject: C=US, O=Symantec Corporation, CN=Symantec Time Stamping Services Signer - G4
        Subject Public Key Info:
            Public Key Algorithm: rsaEncryption
                Public-Key: (2048 bit)
                Modulus:
                    00:a2:63:0b:39:44:b8:bb:23:a7:44:49:bb:0e:ff:
                    a1:f0:61:0a:53:93:b0:98:db:ad:2c:0f:4a:c5:6e:
                    ff:86:3c:53:55:0f:15:ce:04:3f:2b:fd:a9:96:96:
                    d9:be:61:79:0b:5b:c9:4c:86:76:e5:e0:43:4b:22:
                    95:ee:c2:2b:43:c1:9f:d8:68:b4:8e:40:4f:ee:85:
                    38:b9:11:c5:23:f2:64:58:f0:15:32:6f:4e:57:a1:
                    ae:88:a4:02:d7:2a:1e:cd:4b:e1:dd:63:d5:17:89:
                    32:5b:b0:5e:99:5a:a8:9d:28:50:0e:17:ee:96:db:
                    61:3b:45:51:1d:cf:12:56:0b:92:47:fc:ab:ae:f6:
                    66:3d:47:ac:70:72:e7:92:e7:5f:cd:10:b9:c4:83:
                    64:94:19:bd:25:80:e1:e8:d2:22:a5:d0:ba:02:7a:
                    a1:77:93:5b:65:c3:ee:17:74:bc:41:86:2a:dc:08:
                    4c:8c:92:8c:91:2d:9e:77:44:1f:68:d6:a8:74:77:
                    db:0e:5b:32:8b:56:8b:33:bd:d9:63:c8:49:9d:3a:
                    c5:c5:ea:33:0b:d2:f1:a3:1b:f4:8b:be:d9:b3:57:
                    8b:3b:de:04:a7:7a:22:b2:24:ae:2e:c7:70:c5:be:
                    4e:83:26:08:fb:0b:bd:a9:4f:99:08:e1:10:28:72:
                    aa:cd
                Exponent: 65537 (0x10001)
        X509v3 extensions:
            X509v3 Basic Constraints: critical
                CA:FALSE
            X509v3 Extended Key Usage: critical
                Time Stamping
            X509v3 Key Usage: critical
                Digital Signature
            Authority Information Access: 
                OCSP - URI:http://ts-ocsp.ws.symantec.com
                CA Issuers - URI:http://ts-aia.ws.symantec.com/tss-ca-g2.cer

            X509v3 CRL Distribution Points: 

                Full Name:
                  URI:http://ts-crl.ws.symantec.com/tss-ca-g2.crl

            X509v3 Subject Alternative Name: 
                DirName:/CN=TimeStamp-2048-2
            X509v3 Subject Key Identifier: 
                46:C6:69:A3:0E:4A:14:1E:D5:4C:DA:52:63:17:3F:5E:36:BC:0D:E6
            X509v3 Authority Key Identifier: 
                keyid:5F:9A:F5:6E:5C:CC:CC:74:9A:D4:DD:7D:EF:3F:DB:EC:4C:80:2E:DD

    Signature Algorithm: sha1WithRSAEncryption
         78:3b:b4:91:2a:00:4c:f0:8f:62:30:37:78:a3:84:27:07:6f:
         18:b2:de:25:dc:a0:d4:94:03:aa:86:4e:25:9f:9a:40:03:1c:
         dd:ce:e3:79:cb:21:68:06:da:b6:32:b4:6d:bf:f4:2c:26:63:
         33:e4:49:64:6d:0d:e6:c3:67:0e:f7:05:a4:35:6c:7c:89:16:
         c6:e9:b2:df:b2:e9:dd:20:c6:71:0f:cd:95:74:dc:b6:5c:de:
         bd:37:1f:43:78:e6:78:b5:cd:28:04:20:a3:aa:f1:4b:c4:88:
         29:91:0e:80:d1:11:fc:dd:5c:76:6e:4f:5e:0e:45:46:41:6e:
         0d:b0:ea:38:9a:b1:3a:da:09:71:10:fc:1c:79:b4:80:7b:ac:
         69:f4:fd:9c:b6:0c:16:2b:f1:7f:5b:09:3d:9b:5b:e2:16:ca:
         13:81:6d:00:2e:38:0d:a8:29:8f:2c:e1:b2:f4:5a:a9:01:af:
         15:9c:2c:2f:49:1b:db:22:bb:c3:fe:78:94:51:c3:86:b1:82:
         88:5d:f0:3d:b4:51:a1:79:33:2b:2e:7b:b9:dc:20:09:13:71:
         eb:6a:19:5b:cf:e8:a5:30:57:2c:89:49:3f:b9:cf:7f:c9:bf:
         3e:22:68:63:53:9a:bd:69:74:ac:c5:1d:3c:7f:92:e0:c3:bc:
         1c:d8:04:75
-----BEGIN CERTIFICATE-----
MIIEozCCA4ugAwIBAgIQDs/0OMj+vzVuBNhqmBsaUDANBgkqhkiG9w0BAQUFADBe
MQswCQYDVQQGEwJVUzEdMBsGA1UEChMUU3ltYW50ZWMgQ29ycG9yYXRpb24xMDAu
BgNVBAMTJ1N5bWFudGVjIFRpbWUgU3RhbXBpbmcgU2VydmljZXMgQ0EgLSBHMjAe
Fw0xMjEwMTgwMDAwMDBaFw0yMDEyMjkyMzU5NTlaMGIxCzAJBgNVBAYTAlVTMR0w
GwYDVQQKExRTeW1hbnRlYyBDb3Jwb3JhdGlvbjE0MDIGA1UEAxMrU3ltYW50ZWMg
VGltZSBTdGFtcGluZyBTZXJ2aWNlcyBTaWduZXIgLSBHNDCCASIwDQYJKoZIhvcN
AQEBBQADggEPADCCAQoCggEBAKJjCzlEuLsjp0RJuw7/ofBhClOTsJjbrSwPSsVu
/4Y8U1UPFc4EPyv9qZaW2b5heQtbyUyGduXgQ0sile7CK0PBn9hotI5AT+6FOLkR
xSPyZFjwFTJvTlehroikAtcqHs1L4d1j1ReJMluwXplaqJ0oUA4X7pbbYTtFUR3P
ElYLkkf8q672Zj1HrHBy55LnX80QucSDZJQZvSWA4ejSIqXQugJ6oXeTW2XD7hd0
vEGGKtwITIySjJEtnndEH2jWqHR32w5bMotWizO92WPISZ06xcXqMwvS8aMb9Iu+
2bNXizveBKd6IrIkri7HcMW+ToMmCPsLvalPmQjhEChyqs0CAwEAAaOCAVcwggFT
MAwGA1UdEwEB/wQCMAAwFgYDVR0lAQH/BAwwCgYIKwYBBQUHAwgwDgYDVR0PAQH/
BAQDAgeAMHMGCCsGAQUFBwEBBGcwZTAqBggrBgEFBQcwAYYeaHR0cDovL3RzLW9j
c3Aud3Muc3ltYW50ZWMuY29tMDcGCCsGAQUFBzAChitodHRwOi8vdHMtYWlhLndz
LnN5bWFudGVjLmNvbS90c3MtY2EtZzIuY2VyMDwGA1UdHwQ1MDMwMaAvoC2GK2h0
dHA6Ly90cy1jcmwud3Muc3ltYW50ZWMuY29tL3Rzcy1jYS1nMi5jcmwwKAYDVR0R
BCEwH6QdMBsxGTAXBgNVBAMTEFRpbWVTdGFtcC0yMDQ4LTIwHQYDVR0OBBYEFEbG
aaMOShQe1UzaUmMXP142vA3mMB8GA1UdIwQYMBaAFF+a9W5czMx0mtTdfe8/2+xM
gC7dMA0GCSqGSIb3DQEBBQUAA4IBAQB4O7SRKgBM8I9iMDd4o4QnB28Yst4l3KDU
lAOqhk4ln5pAAxzdzuN5yyFoBtq2MrRtv/QsJmMz5ElkbQ3mw2cO9wWkNWx8iRbG
6bLfsundIMZxD82VdNy2XN69Nx9DeOZ4tc0oBCCjqvFLxIgpkQ6A0RH83Vx2bk9e
DkVGQW4NsOo4mrE62glxEPwcebSAe6xp9P2ctgwWK/F/Wwk9m1viFsoTgW0ALjgN
qCmPLOGy9FqpAa8VnCwvSRvbIrvD/niUUcOGsYKIXfA9tFGheTMrLnu53CAJE3Hr
ahlbz+ilMFcsiUk/uc9/yb8+ImhjU5q9aXSsxR08f5Lgw7wc2AR1
-----END CERTIFICATE-----

Certificate:
    Data:
        Version: 3 (0x2)
        Serial Number:
            6b:3f:15:25:0c:6b:fc:29:fd:b0:e1:e1:24:63:8e:95
    Signature Algorithm: sha1WithRSAEncryption
        Issuer: C=US, O=Thawte, Inc., CN=Thawte Code Signing CA - G2
        Validity
            Not Before: Jun 10 00:00:00 2014 GMT
            Not After : Jun  9 23:59:59 2016 GMT
        Subject: C=CN, ST=Sichuan, L=Suining, O=SuiNing Yilong Software Store, OU=IT, CN=SuiNing Yilong Software Store
        Subject Public Key Info:
            Public Key Algorithm: rsaEncryption
                Public-Key: (2048 bit)
                Modulus:
                    00:85:67:16:b2:2e:7d:90:f4:87:2d:55:ca:2f:3a:
                    c0:e4:7e:4d:9c:14:6e:d3:59:fb:c7:12:9c:50:47:
                    dd:bd:04:50:4c:ee:66:3b:54:af:d5:7e:74:41:5d:
                    90:35:ef:a5:80:be:05:5e:2a:db:9a:31:a4:91:26:
                    ca:85:cd:a4:e2:16:10:44:20:36:db:61:c0:54:cb:
                    90:30:b8:0d:7d:42:1b:7e:2b:0f:61:ce:2c:1d:6d:
                    66:a3:ee:f5:ba:9e:85:98:0c:99:f7:7c:e7:cf:45:
                    26:b8:de:74:a8:be:46:61:9d:90:16:12:cb:3d:a4:
                    52:75:d4:cb:cf:a2:50:36:5d:2d:e6:5f:7c:71:02:
                    da:30:0c:14:04:82:e0:77:04:ff:e2:1e:db:da:fc:
                    8b:32:14:12:14:d9:90:db:26:7c:8e:66:cb:53:bc:
                    78:c8:a7:4c:b7:47:90:40:01:4c:4e:70:af:ad:84:
                    3a:ac:16:24:d1:b5:79:61:da:67:57:32:29:b4:fb:
                    e5:9a:92:2a:46:5a:da:85:d4:b8:3a:2c:a7:f2:2f:
                    fc:45:ae:73:3e:d0:66:98:b5:0f:a7:9b:91:11:dd:
                    15:ab:ca:44:6f:5f:82:80:df:d9:bc:c8:30:c3:ff:
                    71:cb:76:e5:b2:f8:e4:94:1b:06:1a:4d:e5:8c:c9:
                    66:c9
                Exponent: 65537 (0x10001)
        X509v3 extensions:
            X509v3 Basic Constraints: 
                CA:FALSE
            X509v3 Authority Key Identifier: 
                keyid:D4:0D:65:3F:7A:BD:34:C6:FE:47:E7:4C:0D:C0:BD:F2:DE:15:AB:71

            X509v3 Subject Key Identifier: 
                7B:F7:57:42:A2:28:68:A6:45:2B:22:1F:E0:D9:3D:D3:73:47:66:2D
            X509v3 CRL Distribution Points: 

                Full Name:
                  URI:http://th.symcb.com/th.crl

            X509v3 Key Usage: critical
                Digital Signature
            X509v3 Extended Key Usage: 
                Code Signing, Microsoft Commercial Code Signing
            X509v3 Certificate Policies: 
                Policy: 2.16.840.1.113733.1.7.48.2
                  CPS: https://d.symcb.com/cps
                  User Notice:
                    Explicit Text: https://d.symcb.com/rpa

            2.5.29.4: 
                0.0.0..
+.....7.......
            Authority Information Access: 
                OCSP - URI:http://th.symcd.com
                CA Issuers - URI:http://th.symcb.com/th.crt

            Netscape Cert Type: 
                Object Signing
    Signature Algorithm: sha1WithRSAEncryption
         18:63:ca:78:9c:92:af:6d:1d:04:a3:59:c1:5e:20:98:af:11:
         30:31:17:3d:76:72:61:bd:62:40:e3:b8:4d:b8:b2:bd:85:3e:
         df:74:0a:80:08:8c:78:7c:0e:f3:16:9b:32:26:6c:3a:35:2e:
         15:a5:91:0e:5c:0e:cd:81:65:ab:e3:9b:4c:ad:61:04:97:9b:
         29:82:80:a9:74:0d:0b:91:b5:ec:62:63:21:bd:27:66:5c:00:
         79:48:dd:76:14:2c:49:b0:dd:e1:dc:1b:b2:61:c2:75:79:c8:
         e1:a8:23:d6:64:05:cf:37:60:53:48:52:06:d1:9d:dd:37:8d:
         cb:f0:4d:81:23:a2:6a:4d:ac:53:d1:61:7d:ba:70:ff:82:e0:
         c2:4b:14:24:6b:7a:b1:91:34:c9:ce:cd:35:49:01:1f:e5:a0:
         2d:ad:fb:f9:c6:80:df:c2:6e:4c:f3:ed:3f:fa:3b:23:a7:f3:
         4e:e9:75:7a:ee:fe:05:ea:b2:44:ac:1f:fc:f0:cd:e3:80:ea:
         ed:67:17:c0:0b:69:c6:04:62:03:36:c3:f3:df:c3:ad:e2:d6:
         71:35:3d:79:3a:83:7b:99:1b:d7:ec:18:8d:4d:17:a9:40:9c:
         6c:01:d7:f0:93:00:93:23:a2:cf:0a:23:3f:89:f1:c3:bb:32:
         76:4a:d5:b7
-----BEGIN CERTIFICATE-----
MIIFBTCCA+2gAwIBAgIQaz8VJQxr/Cn9sOHhJGOOlTANBgkqhkiG9w0BAQUFADBK
MQswCQYDVQQGEwJVUzEVMBMGA1UEChMMVGhhd3RlLCBJbmMuMSQwIgYDVQQDExtU
aGF3dGUgQ29kZSBTaWduaW5nIENBIC0gRzIwHhcNMTQwNjEwMDAwMDAwWhcNMTYw
NjA5MjM1OTU5WjCBjjELMAkGA1UEBhMCQ04xEDAOBgNVBAgTB1NpY2h1YW4xEDAO
BgNVBAcUB1N1aW5pbmcxJjAkBgNVBAoUHVN1aU5pbmcgWWlsb25nIFNvZnR3YXJl
IFN0b3JlMQswCQYDVQQLFAJJVDEmMCQGA1UEAxQdU3VpTmluZyBZaWxvbmcgU29m
dHdhcmUgU3RvcmUwggEiMA0GCSqGSIb3DQEBAQUAA4IBDwAwggEKAoIBAQCFZxay
Ln2Q9IctVcovOsDkfk2cFG7TWfvHEpxQR929BFBM7mY7VK/VfnRBXZA176WAvgVe
KtuaMaSRJsqFzaTiFhBEIDbbYcBUy5AwuA19Qht+Kw9hziwdbWaj7vW6noWYDJn3
fOfPRSa43nSovkZhnZAWEss9pFJ11MvPolA2XS3mX3xxAtowDBQEguB3BP/iHtva
/IsyFBIU2ZDbJnyOZstTvHjIp0y3R5BAAUxOcK+thDqsFiTRtXlh2mdXMim0++Wa
kipGWtqF1Lg6LKfyL/xFrnM+0GaYtQ+nm5ER3RWrykRvX4KA39m8yDDD/3HLduWy
+OSUGwYaTeWMyWbJAgMBAAGjggGgMIIBnDAJBgNVHRMEAjAAMB8GA1UdIwQYMBaA
FNQNZT96vTTG/kfnTA3AvfLeFatxMB0GA1UdDgQWBBR791dCoihopkUrIh/g2T3T
c0dmLTArBgNVHR8EJDAiMCCgHqAchhpodHRwOi8vdGguc3ltY2IuY29tL3RoLmNy
bDAOBgNVHQ8BAf8EBAMCB4AwHwYDVR0lBBgwFgYIKwYBBQUHAwMGCisGAQQBgjcC
ARYwZgYDVR0gBF8wXTBbBgtghkgBhvhFAQcwAjBMMCMGCCsGAQUFBwIBFhdodHRw
czovL2Quc3ltY2IuY29tL2NwczAlBggrBgEFBQcCAjAZFhdodHRwczovL2Quc3lt
Y2IuY29tL3JwYTAdBgNVHQQEFjAUMA4wDAYKKwYBBAGCNwIBFgMCB4AwVwYIKwYB
BQUHAQEESzBJMB8GCCsGAQUFBzABhhNodHRwOi8vdGguc3ltY2QuY29tMCYGCCsG
AQUFBzAChhpodHRwOi8vdGguc3ltY2IuY29tL3RoLmNydDARBglghkgBhvhCAQEE
BAMCBBAwDQYJKoZIhvcNAQEFBQADggEBABhjynickq9tHQSjWcFeIJivETAxFz12
cmG9YkDjuE24sr2FPt90CoAIjHh8DvMWmzImbDo1LhWlkQ5cDs2BZavjm0ytYQSX
mymCgKl0DQuRtexiYyG9J2ZcAHlI3XYULEmw3eHcG7JhwnV5yOGoI9ZkBc83YFNI
UgbRnd03jcvwTYEjompNrFPRYX26cP+C4MJLFCRrerGRNMnOzTVJAR/loC2t+/nG
gN/Cbkzz7T/6OyOn807pdXru/gXqskSsH/zwzeOA6u1nF8ALacYEYgM2w/Pfw63i
1nE1PXk6g3uZG9fsGI1NF6lAnGwB1/CTAJMjos8KIz+J8cO7MnZK1bc=
-----END CERTIFICATE-----

