Certificate:
    Data:
        Version: 3 (0x2)
        Serial Number:
            24:52:3f:a5:1f:14:5e:53:f9:31:ee:e4:a4:cc:7e:4c
    Signature Algorithm: sha1WithRSAEncryption
        Issuer: C=US, O=Thawte, Inc., CN=Thawte Code Signing CA - G2
        Validity
            Not Before: Jul 28 00:00:00 2011 GMT
            Not After : Aug  2 23:59:59 2013 GMT
        Subject: C=AU, ST=Australian Capital Territory, L=Canberra, O=NCH Software, CN=NCH Software
        Subject Public Key Info:
            Public Key Algorithm: rsaEncryption
                Public-Key: (2048 bit)
                Modulus:
                    00:b3:1f:17:b2:dc:68:cc:d4:89:94:e9:e5:34:2c:
                    dd:3c:52:62:43:3e:30:c0:3d:68:ec:27:61:7c:0a:
                    5d:6f:90:b8:5b:d3:ac:8e:04:e6:5b:fb:18:7e:07:
                    68:69:75:df:6c:6a:d0:ec:52:3d:3c:63:b7:c0:64:
                    da:bf:b2:10:dc:7c:df:58:70:9c:d2:63:81:8c:3e:
                    2f:66:67:77:1c:6b:fb:1b:d2:2c:85:f5:42:6f:5f:
                    1c:cb:ab:a5:93:1d:43:02:d8:41:40:75:13:fe:92:
                    d1:91:ef:51:1e:ea:98:18:30:87:b4:7d:d3:03:18:
                    31:3d:13:75:96:91:1b:cb:7f:72:5b:5f:c9:55:7f:
                    c3:59:5d:d3:8a:43:76:d5:f6:3d:90:3d:e0:d9:ae:
                    fb:f2:63:1c:29:97:3d:74:04:eb:b8:9e:5e:7c:15:
                    85:35:26:7e:13:76:23:1b:7e:ef:a3:26:c9:92:ca:
                    fa:34:23:e9:57:ad:b5:0b:15:92:2c:ea:5d:5b:a3:
                    10:4e:73:d7:f9:f5:fd:72:d1:bc:7f:09:55:49:e3:
                    b0:7d:cd:c6:e8:f5:b6:56:2b:66:f0:99:a4:78:f6:
                    00:ec:9e:63:32:14:7e:b9:5b:d9:7e:76:4f:6a:1f:
                    51:1f:d8:5a:a1:71:72:d9:d7:87:49:6c:94:c1:41:
                    b5:7b
                Exponent: 65537 (0x10001)
        X509v3 extensions:
            X509v3 Basic Constraints: critical
                CA:FALSE
            X509v3 CRL Distribution Points: 

                Full Name:
                  URI:http://cs-g2-crl.thawte.com/ThawteCSG2.crl

            X509v3 Extended Key Usage: 
                Code Signing, Microsoft Commercial Code Signing
            2.5.29.4: 
                0.0.0..
+.....7.......
            Authority Information Access: 
                OCSP - URI:http://ocsp.thawte.com

            Netscape Cert Type: 
                Object Signing
    Signature Algorithm: sha1WithRSAEncryption
         71:21:c8:3b:c1:fd:27:49:aa:b9:54:bc:d9:ae:f0:d8:e6:74:
         e9:58:2c:d2:de:0e:bf:a0:84:09:8c:05:1b:1d:79:8b:af:44:
         5a:f6:74:5c:d2:b1:2f:58:22:59:c9:1f:14:1f:5c:51:87:0f:
         69:62:2a:78:ea:b0:c8:1a:95:96:a3:b2:25:51:db:10:24:1a:
         1c:e8:63:b8:7b:11:a4:23:f9:5b:75:de:79:07:b6:a2:20:28:
         63:c5:fc:4a:21:bc:b2:4d:8c:12:49:5e:7c:e0:54:24:67:d4:
         d1:50:65:af:cb:ed:f8:90:40:47:b2:7a:04:87:7c:e7:49:62:
         8a:73:5d:bd:f6:23:af:db:ef:08:78:4d:06:32:d9:9b:14:2f:
         79:44:df:da:6c:5b:32:a0:a3:b3:4c:00:c0:e7:d1:19:1e:fe:
         b3:f2:7f:2d:dc:a7:3c:05:ff:c8:9d:c8:4a:c5:57:15:04:fd:
         53:62:2c:54:f3:b9:d1:a7:d0:e0:e4:74:da:c7:e4:19:35:f8:
         d6:fd:e7:79:9a:a7:b7:ab:54:cc:94:58:14:38:fb:d0:77:b1:
         23:df:74:56:37:be:55:2e:74:1a:ab:f2:08:1d:68:36:11:81:
         a9:c2:3e:b6:6f:8a:98:27:67:49:21:fe:bd:45:d5:65:a9:ea:
         96:07:0b:dd
-----BEGIN CERTIFICATE-----
MIIEHzCCAwegAwIBAgIQJFI/pR8UXlP5Me7kpMx+TDANBgkqhkiG9w0BAQUFADBK
MQswCQYDVQQGEwJVUzEVMBMGA1UEChMMVGhhd3RlLCBJbmMuMSQwIgYDVQQDExtU
aGF3dGUgQ29kZSBTaWduaW5nIENBIC0gRzIwHhcNMTEwNzI4MDAwMDAwWhcNMTMw
ODAyMjM1OTU5WjB1MQswCQYDVQQGEwJBVTElMCMGA1UECBMcQXVzdHJhbGlhbiBD
YXBpdGFsIFRlcnJpdG9yeTERMA8GA1UEBxMIQ2FuYmVycmExFTATBgNVBAoUDE5D
SCBTb2Z0d2FyZTEVMBMGA1UEAxQMTkNIIFNvZnR3YXJlMIIBIjANBgkqhkiG9w0B
AQEFAAOCAQ8AMIIBCgKCAQEAsx8XstxozNSJlOnlNCzdPFJiQz4wwD1o7CdhfApd
b5C4W9OsjgTmW/sYfgdoaXXfbGrQ7FI9PGO3wGTav7IQ3HzfWHCc0mOBjD4vZmd3
HGv7G9IshfVCb18cy6ulkx1DAthBQHUT/pLRke9RHuqYGDCHtH3TAxgxPRN1lpEb
y39yW1/JVX/DWV3TikN21fY9kD3g2a778mMcKZc9dATruJ5efBWFNSZ+E3YjG37v
oybJksr6NCPpV621CxWSLOpdW6MQTnPX+fX9ctG8fwlVSeOwfc3G6PW2Vitm8Jmk
ePYA7J5jMhR+uVvZfnZPah9RH9haoXFy2deHSWyUwUG1ewIDAQABo4HVMIHSMAwG
A1UdEwEB/wQCMAAwOwYDVR0fBDQwMjAwoC6gLIYqaHR0cDovL2NzLWcyLWNybC50
aGF3dGUuY29tL1RoYXd0ZUNTRzIuY3JsMB8GA1UdJQQYMBYGCCsGAQUFBwMDBgor
BgEEAYI3AgEWMB0GA1UdBAQWMBQwDjAMBgorBgEEAYI3AgEWAwIHgDAyBggrBgEF
BQcBAQQmMCQwIgYIKwYBBQUHMAGGFmh0dHA6Ly9vY3NwLnRoYXd0ZS5jb20wEQYJ
YIZIAYb4QgEBBAQDAgQQMA0GCSqGSIb3DQEBBQUAA4IBAQBxIcg7wf0nSaq5VLzZ
rvDY5nTpWCzS3g6/oIQJjAUbHXmLr0Ra9nRc0rEvWCJZyR8UH1xRhw9pYip46rDI
GpWWo7IlUdsQJBoc6GO4exGkI/lbdd55B7aiIChjxfxKIbyyTYwSSV584FQkZ9TR
UGWvy+34kEBHsnoEh3znSWKKc1299iOv2+8IeE0GMtmbFC95RN/abFsyoKOzTADA
59EZHv6z8n8t3Kc8Bf/InchKxVcVBP1TYixU87nRp9Dg5HTax+QZNfjW/ed5mqe3
q1TMlFgUOPvQd7Ej33RWN75VLnQaq/IIHWg2EYGpwj62b4qYJ2dJIf69RdVlqeqW
Bwvd
-----END CERTIFICATE-----

Certificate:
    Data:
        Version: 3 (0x2)
        Serial Number: 146020 (0x23a64)
    Signature Algorithm: sha1WithRSAEncryption
        Issuer: C=US, O=GeoTrust Inc., CN=GeoTrust Global CA
        Validity
            Not Before: Oct 18 14:38:35 2012 GMT
            Not After : May 20 14:38:35 2022 GMT
        Subject: C=US, O=Symantec Corporation, CN=Symantec Time Stamping Services CA - G2
        Subject Public Key Info:
            Public Key Algorithm: rsaEncryption
                Public-Key: (2048 bit)
                Modulus:
                    00:b1:ac:b3:49:54:4b:97:1c:12:0a:d8:25:79:91:
                    22:57:2a:6f:dc:b8:26:c4:43:73:6b:c2:bf:2e:50:
                    5a:fb:14:c2:76:8e:43:01:25:43:b4:a1:e2:45:f4:
                    e8:b7:7b:c3:74:cc:22:d7:b4:94:00:02:f7:4d:ed:
                    bf:b4:b7:44:24:6b:cd:5f:45:3b:d1:44:ce:43:12:
                    73:17:82:8b:69:b4:2b:cb:99:1e:ac:72:1b:26:4d:
                    71:1f:b1:31:dd:fb:51:61:02:53:a6:aa:f5:49:2c:
                    05:78:45:a5:2f:89:ce:e7:99:e7:fe:8c:e2:57:3f:
                    3d:c6:92:dc:4a:f8:7b:33:e4:79:0a:fb:f0:75:88:
                    41:9c:ff:c5:03:51:99:aa:d7:6c:9f:93:69:87:65:
                    29:83:85:c2:60:14:c4:c8:c9:3b:14:da:c0:81:f0:
                    1f:0d:74:de:92:22:ab:ca:f7:fb:74:7c:27:e6:f7:
                    4a:1b:7f:a7:c3:9e:2d:ae:8a:ea:a6:e6:aa:27:16:
                    7d:61:f7:98:71:11:bc:e2:50:a1:4b:e5:5d:fa:e5:
                    0e:a7:2c:9f:aa:65:20:d3:d8:96:e8:c8:7c:a5:4e:
                    48:44:ff:19:e2:44:07:92:0b:d7:68:84:80:5d:6a:
                    78:64:45:cd:60:46:7e:54:c1:13:7c:c5:79:f1:c9:
                    c1:71
                Exponent: 65537 (0x10001)
        X509v3 extensions:
            X509v3 Authority Key Identifier: 
                keyid:C0:7A:98:68:8D:89:FB:AB:05:64:0C:11:7D:AA:7D:65:B8:CA:CC:4E

            X509v3 Subject Key Identifier: 
                5F:9A:F5:6E:5C:CC:CC:74:9A:D4:DD:7D:EF:3F:DB:EC:4C:80:2E:DD
            X509v3 Basic Constraints: critical
                CA:TRUE, pathlen:0
            X509v3 Key Usage: critical
                Certificate Sign, CRL Sign
            X509v3 CRL Distribution Points: 

                Full Name:
                  URI:http://crl.geotrust.com/crls/gtglobal.crl

            Authority Information Access: 
                OCSP - URI:http://ocsp.geotrust.com

            X509v3 Certificate Policies: 
                Policy: 1.3.6.1.4.1.14370.1.7
                  CPS: http://www.geotrust.com/resources/cps

            X509v3 Subject Alternative Name: 
                DirName:/CN=TimeStamp-2048-1
            X509v3 Extended Key Usage: 
                Time Stamping
    Signature Algorithm: sha1WithRSAEncryption
         aa:3e:3f:03:41:2f:35:13:7f:8c:3f:12:5c:10:cf:ee:67:55:
         79:56:60:0f:01:52:0f:23:87:7a:41:28:47:e5:d3:66:72:bb:
         02:cf:c9:0c:24:29:41:c2:da:2e:99:e0:23:91:ef:b1:33:47:
         3c:c2:08:3a:06:95:73:a2:1b:0e:bc:3f:b7:e2:59:f1:69:be:
         f0:d3:e1:18:8f:73:2d:e8:a3:9c:21:40:40:f3:cd:3a:b7:01:
         8d:dc:4d:94:b4:7a:10:05:50:7f:1b:61:c5:82:15:8a:e4:2c:
         4d:ed:34:11:eb:5b:6a:89:59:c7:de:f7:2c:84:c0:b3:bd:3a:
         98:e1:45:28:8a:21:95:80:3f:c9:07:97:f0:ff:42:c1:1e:42:
         84:e7:b2:c7:e0:a2:6a:99:d4:f1:d4:c6:fe:57:c0:b9:3a:e7:
         f6:27:70:0d:a9:e0:7b:4a:13:95:c2:c9:b9:ab:69:07:d9:4d:
         cc:66:47:42:4a:74:a7:a7:6d:b3:a7:35:e8:7e:4b:aa:ce:bd:
         bc:93:9f:7d:c6:40:a5:fc:aa:1f:a8:d5:d1:f0:7e:7f:d2:e3:
         4c:56:fd:40:64:f0:47:4c:51:04:30:ea:ea:94:2f:24:ca:e9:
         08:c5:78:5b:a1:62:c9:1d:48:87:97:19:fa:4d:a5:78:ed:ec:
         04:79:0e:36
-----BEGIN CERTIFICATE-----
MIIEhTCCA22gAwIBAgIDAjpkMA0GCSqGSIb3DQEBBQUAMEIxCzAJBgNVBAYTAlVT
MRYwFAYDVQQKEw1HZW9UcnVzdCBJbmMuMRswGQYDVQQDExJHZW9UcnVzdCBHbG9i
YWwgQ0EwHhcNMTIxMDE4MTQzODM1WhcNMjIwNTIwMTQzODM1WjBeMQswCQYDVQQG
EwJVUzEdMBsGA1UEChMUU3ltYW50ZWMgQ29ycG9yYXRpb24xMDAuBgNVBAMTJ1N5
bWFudGVjIFRpbWUgU3RhbXBpbmcgU2VydmljZXMgQ0EgLSBHMjCCASIwDQYJKoZI
hvcNAQEBBQADggEPADCCAQoCggEBALGss0lUS5ccEgrYJXmRIlcqb9y4JsRDc2vC
vy5QWvsUwnaOQwElQ7Sh4kX06Ld7w3TMIte0lAAC903tv7S3RCRrzV9FO9FEzkMS
cxeCi2m0K8uZHqxyGyZNcR+xMd37UWECU6aq9UksBXhFpS+JzueZ5/6M4lc/PcaS
3Er4ezPkeQr78HWIQZz/xQNRmarXbJ+TaYdlKYOFwmAUxMjJOxTawIHwHw103pIi
q8r3+3R8J+b3Sht/p8OeLa6K6qbmqicWfWH3mHERvOJQoUvlXfrlDqcsn6plINPY
lujIfKVOSET/GeJEB5IL12iEgF1qeGRFzWBGflTBE3zFefHJwXECAwEAAaOCAWYw
ggFiMB8GA1UdIwQYMBaAFMB6mGiNifurBWQMEX2qfWW4ysxOMB0GA1UdDgQWBBRf
mvVuXMzMdJrU3X3vP9vsTIAu3TASBgNVHRMBAf8ECDAGAQH/AgEAMA4GA1UdDwEB
/wQEAwIBBjA6BgNVHR8EMzAxMC+gLaArhilodHRwOi8vY3JsLmdlb3RydXN0LmNv
bS9jcmxzL2d0Z2xvYmFsLmNybDA0BggrBgEFBQcBAQQoMCYwJAYIKwYBBQUHMAGG
GGh0dHA6Ly9vY3NwLmdlb3RydXN0LmNvbTBLBgNVHSAERDBCMEAGCSsGAQQB8CIB
BzAzMDEGCCsGAQUFBwIBFiVodHRwOi8vd3d3Lmdlb3RydXN0LmNvbS9yZXNvdXJj
ZXMvY3BzMCgGA1UdEQQhMB+kHTAbMRkwFwYDVQQDExBUaW1lU3RhbXAtMjA0OC0x
MBMGA1UdJQQMMAoGCCsGAQUFBwMIMA0GCSqGSIb3DQEBBQUAA4IBAQCqPj8DQS81
E3+MPxJcEM/uZ1V5VmAPAVIPI4d6QShH5dNmcrsCz8kMJClBwtoumeAjke+xM0c8
wgg6BpVzohsOvD+34lnxab7w0+EYj3Mt6KOcIUBA8806twGN3E2UtHoQBVB/G2HF
ghWK5CxN7TQR61tqiVnH3vcshMCzvTqY4UUoiiGVgD/JB5fw/0LBHkKE57LH4KJq
mdTx1Mb+V8C5Ouf2J3ANqeB7ShOVwsm5q2kH2U3MZkdCSnSnp22zpzXofkuqzr28
k599xkCl/KofqNXR8H5/0uNMVv1AZPBHTFEEMOrqlC8kyukIxXhboWLJHUiHlxn6
TaV47ewEeQ42
-----END CERTIFICATE-----

Certificate:
    Data:
        Version: 3 (0x2)
        Serial Number:
            47:97:4d:78:73:a5:bc:ab:0d:2f:b3:70:19:2f:ce:5e
    Signature Algorithm: sha1WithRSAEncryption
        Issuer: C=US, O=thawte, Inc., OU=Certification Services Division, OU=(c) 2006 thawte, Inc. - For authorized use only, CN=thawte Primary Root CA
        Validity
            Not Before: Feb  8 00:00:00 2010 GMT
            Not After : Feb  7 23:59:59 2020 GMT
        Subject: C=US, O=Thawte, Inc., CN=Thawte Code Signing CA - G2
        Subject Public Key Info:
            Public Key Algorithm: rsaEncryption
                Public-Key: (2048 bit)
                Modulus:
                    00:b7:8b:cf:75:5b:9f:25:da:7e:39:b0:93:db:38:
                    d3:a9:23:d0:82:fa:e9:24:7e:5c:0b:8e:83:f8:e6:
                    7a:59:e6:a3:c5:98:a7:99:d2:44:ff:00:a6:a5:39:
                    04:8a:da:29:88:ea:db:a2:f3:1c:99:15:26:c2:b1:
                    f4:fc:e1:0c:47:a9:09:11:06:0a:20:92:b9:c7:a0:
                    04:8c:5c:94:19:ab:5b:25:2c:1d:62:7e:70:0d:ce:
                    61:6c:dd:2b:82:c9:ce:5d:48:5f:f7:c2:be:bc:41:
                    23:1e:4f:29:5d:d7:4f:bc:f4:c5:2a:fc:63:e6:7c:
                    26:4e:99:a7:79:41:9e:10:4a:7a:79:c9:c6:86:f7:
                    86:95:d2:26:ce:3c:18:2a:d6:7c:ce:af:cd:ad:bb:
                    f7:82:2c:70:26:37:45:e5:0f:47:22:c6:01:28:bd:
                    2e:83:5c:6a:a4:47:c1:e7:d0:d8:6b:81:46:3f:21:
                    17:f5:07:c5:43:5a:a6:67:2c:b8:7b:60:11:b5:83:
                    ee:f5:74:0a:72:71:44:3d:58:fe:e8:1a:ab:38:c3:
                    59:db:7f:6e:38:7d:76:c7:72:69:98:36:96:57:d3:
                    66:1c:d2:54:91:04:2e:54:19:b0:dc:3d:b5:22:5e:
                    86:d5:2a:7e:20:df:5d:e6:7a:b1:65:fe:c5:02:4e:
                    31:2d
                Exponent: 65537 (0x10001)
        X509v3 extensions:
            X509v3 Basic Constraints: critical
                CA:TRUE, pathlen:0
            X509v3 CRL Distribution Points: 

                Full Name:
                  URI:http://crl.thawte.com/ThawtePCA.crl

            X509v3 Key Usage: critical
                Certificate Sign, CRL Sign
            Authority Information Access: 
                OCSP - URI:http://ocsp.thawte.com

            X509v3 Extended Key Usage: 
                TLS Web Client Authentication, Code Signing
            X509v3 Subject Alternative Name: 
                DirName:/CN=VeriSignMPKI-2-10
            X509v3 Subject Key Identifier: 
                D4:0D:65:3F:7A:BD:34:C6:FE:47:E7:4C:0D:C0:BD:F2:DE:15:AB:71
            X509v3 Authority Key Identifier: 
                keyid:7B:5B:45:CF:AF:CE:CB:7A:FD:31:92:1A:6A:B6:F3:46:EB:57:48:50

    Signature Algorithm: sha1WithRSAEncryption
         56:fe:53:5c:e1:c7:9e:bc:a7:ed:7e:53:6d:6a:14:4b:51:8c:
         40:5e:80:5f:aa:a4:e8:2f:ef:38:c8:04:c9:ca:3e:cf:df:3a:
         58:4e:b0:d4:b6:63:c5:29:57:fa:02:05:9a:45:4d:68:db:2a:
         1b:d4:34:3d:9f:00:c3:5a:cb:95:49:a5:6e:e1:b0:c5:fc:41:
         4d:41:4a:6f:d3:77:c8:d7:38:8d:e4:19:de:18:f3:1f:15:65:
         83:6d:45:0c:53:f9:0a:9a:2e:a5:5d:bf:6f:32:81:18:92:19:
         6a:55:00:ad:63:1c:52:06:7e:55:d9:29:68:ae:4a:7c:18:9a:
         79:88:6b:23:23:d8:27:38:2a:29:87:76:ca:fb:c7:b6:62:23:
         1f:ed:7a:56:4c:dd:9c:32:5b:f5:3d:0c:46:18:95:3b:2a:23:
         68:83:64:41:d9:00:6d:0f:19:24:15:68:72:bd:c5:71:67:6e:
         ac:4c:db:90:eb:51:a5:1a:62:07:d0:be:6a:00:47:3c:72:2f:
         ec:4f:61:3e:73:85:ce:5a:0a:b7:ba:c0:1c:13:75:e3:22:39:
         28:dd:6d:1d:09:46:9d:4f:ba:e8:40:81:91:c6:a4:ce:94:72:
         1b:01:cf:2a:6e:15:67:95:89:ae:7d:b7:b7:cd:f9:0a:3d:75:
         b6:6b:3c:25
-----BEGIN CERTIFICATE-----
MIIEnDCCA4SgAwIBAgIQR5dNeHOlvKsNL7NwGS/OXjANBgkqhkiG9w0BAQUFADCB
qTELMAkGA1UEBhMCVVMxFTATBgNVBAoTDHRoYXd0ZSwgSW5jLjEoMCYGA1UECxMf
Q2VydGlmaWNhdGlvbiBTZXJ2aWNlcyBEaXZpc2lvbjE4MDYGA1UECxMvKGMpIDIw
MDYgdGhhd3RlLCBJbmMuIC0gRm9yIGF1dGhvcml6ZWQgdXNlIG9ubHkxHzAdBgNV
BAMTFnRoYXd0ZSBQcmltYXJ5IFJvb3QgQ0EwHhcNMTAwMjA4MDAwMDAwWhcNMjAw
MjA3MjM1OTU5WjBKMQswCQYDVQQGEwJVUzEVMBMGA1UEChMMVGhhd3RlLCBJbmMu
MSQwIgYDVQQDExtUaGF3dGUgQ29kZSBTaWduaW5nIENBIC0gRzIwggEiMA0GCSqG
SIb3DQEBAQUAA4IBDwAwggEKAoIBAQC3i891W58l2n45sJPbONOpI9CC+ukkflwL
joP45npZ5qPFmKeZ0kT/AKalOQSK2imI6tui8xyZFSbCsfT84QxHqQkRBgogkrnH
oASMXJQZq1slLB1ifnANzmFs3SuCyc5dSF/3wr68QSMeTyld10+89MUq/GPmfCZO
mad5QZ4QSnp5ycaG94aV0ibOPBgq1nzOr82tu/eCLHAmN0XlD0cixgEovS6DXGqk
R8Hn0NhrgUY/IRf1B8VDWqZnLLh7YBG1g+71dApycUQ9WP7oGqs4w1nbf244fXbH
cmmYNpZX02Yc0lSRBC5UGbDcPbUiXobVKn4g313merFl/sUCTjEtAgMBAAGjggEc
MIIBGDASBgNVHRMBAf8ECDAGAQH/AgEAMDQGA1UdHwQtMCswKaAnoCWGI2h0dHA6
Ly9jcmwudGhhd3RlLmNvbS9UaGF3dGVQQ0EuY3JsMA4GA1UdDwEB/wQEAwIBBjAy
BggrBgEFBQcBAQQmMCQwIgYIKwYBBQUHMAGGFmh0dHA6Ly9vY3NwLnRoYXd0ZS5j
b20wHQYDVR0lBBYwFAYIKwYBBQUHAwIGCCsGAQUFBwMDMCkGA1UdEQQiMCCkHjAc
MRowGAYDVQQDExFWZXJpU2lnbk1QS0ktMi0xMDAdBgNVHQ4EFgQU1A1lP3q9NMb+
R+dMDcC98t4Vq3EwHwYDVR0jBBgwFoAUe1tFz6/Oy3r9MZIaarbzRutXSFAwDQYJ
KoZIhvcNAQEFBQADggEBAFb+U1zhx568p+1+U21qFEtRjEBegF+qpOgv7zjIBMnK
Ps/fOlhOsNS2Y8UpV/oCBZpFTWjbKhvUND2fAMNay5VJpW7hsMX8QU1BSm/Td8jX
OI3kGd4Y8x8VZYNtRQxT+QqaLqVdv28ygRiSGWpVAK1jHFIGflXZKWiuSnwYmnmI
ayMj2Cc4KimHdsr7x7ZiIx/telZM3ZwyW/U9DEYYlTsqI2iDZEHZAG0PGSQVaHK9
xXFnbqxM25DrUaUaYgfQvmoARzxyL+xPYT5zhc5aCre6wBwTdeMiOSjdbR0JRp1P
uuhAgZHGpM6UchsBzypuFWeVia59t7fN+Qo9dbZrPCU=
-----END CERTIFICATE-----

Certificate:
    Data:
        Version: 3 (0x2)
        Serial Number:
            7e:1f:df:72:99:e8:d2:45:a1:5d:0b:a8:e5:b1:59:ba
    Signature Algorithm: sha1WithRSAEncryption
        Issuer: C=US, O=Symantec Corporation, CN=Symantec Time Stamping Services CA - G2
        Validity
            Not Before: Oct 18 00:00:00 2012 GMT
            Not After : May 19 23:59:59 2022 GMT
        Subject: C=US, O=Symantec Corporation, CN=Symantec Time Stamping Services Signer - G4
        Subject Public Key Info:
            Public Key Algorithm: rsaEncryption
                Public-Key: (2048 bit)
                Modulus:
                    00:a2:63:0b:39:44:b8:bb:23:a7:44:49:bb:0e:ff:
                    a1:f0:61:0a:53:93:b0:98:db:ad:2c:0f:4a:c5:6e:
                    ff:86:3c:53:55:0f:15:ce:04:3f:2b:fd:a9:96:96:
                    d9:be:61:79:0b:5b:c9:4c:86:76:e5:e0:43:4b:22:
                    95:ee:c2:2b:43:c1:9f:d8:68:b4:8e:40:4f:ee:85:
                    38:b9:11:c5:23:f2:64:58:f0:15:32:6f:4e:57:a1:
                    ae:88:a4:02:d7:2a:1e:cd:4b:e1:dd:63:d5:17:89:
                    32:5b:b0:5e:99:5a:a8:9d:28:50:0e:17:ee:96:db:
                    61:3b:45:51:1d:cf:12:56:0b:92:47:fc:ab:ae:f6:
                    66:3d:47:ac:70:72:e7:92:e7:5f:cd:10:b9:c4:83:
                    64:94:19:bd:25:80:e1:e8:d2:22:a5:d0:ba:02:7a:
                    a1:77:93:5b:65:c3:ee:17:74:bc:41:86:2a:dc:08:
                    4c:8c:92:8c:91:2d:9e:77:44:1f:68:d6:a8:74:77:
                    db:0e:5b:32:8b:56:8b:33:bd:d9:63:c8:49:9d:3a:
                    c5:c5:ea:33:0b:d2:f1:a3:1b:f4:8b:be:d9:b3:57:
                    8b:3b:de:04:a7:7a:22:b2:24:ae:2e:c7:70:c5:be:
                    4e:83:26:08:fb:0b:bd:a9:4f:99:08:e1:10:28:72:
                    aa:cd
                Exponent: 65537 (0x10001)
        X509v3 extensions:
            X509v3 Basic Constraints: critical
                CA:FALSE
            X509v3 Extended Key Usage: critical
                Time Stamping
            X509v3 Key Usage: critical
                Digital Signature
            Authority Information Access: 
                OCSP - URI:http://ts-ocsp.ws.symantec.com
                CA Issuers - URI:http://ts-aia.ws.symantec.com/tss-ca-g2.cer

            X509v3 CRL Distribution Points: 

                Full Name:
                  URI:http://ts-crl.ws.symantec.com/tss-ca-g2.crl

            X509v3 Subject Alternative Name: 
                DirName:/CN=TimeStamp-2048-2
            X509v3 Subject Key Identifier: 
                46:C6:69:A3:0E:4A:14:1E:D5:4C:DA:52:63:17:3F:5E:36:BC:0D:E6
            X509v3 Authority Key Identifier: 
                keyid:5F:9A:F5:6E:5C:CC:CC:74:9A:D4:DD:7D:EF:3F:DB:EC:4C:80:2E:DD

    Signature Algorithm: sha1WithRSAEncryption
         63:00:32:8d:17:1f:28:dc:04:79:c9:27:19:84:b8:36:68:a7:
         75:19:18:b2:4f:49:ac:5d:61:2b:86:32:d0:0d:4d:ba:b5:7c:
         5e:b6:d2:37:e8:ed:5b:88:2c:d2:29:61:be:1f:50:29:4a:22:
         f9:17:86:bd:87:21:5b:d1:3c:4d:bf:64:c0:ba:2e:9b:a6:10:
         a1:f1:c4:84:53:b0:8d:58:f2:8e:af:12:19:77:1f:ad:f7:be:
         be:81:2d:8e:82:7e:70:f8:39:96:33:65:59:a8:4f:7f:8b:22:
         c9:18:7e:5e:64:e2:b9:30:6d:06:b4:b7:11:8c:66:ba:2c:26:
         44:b9:8a:dc:b1:87:91:b5:dc:bf:14:a1:dc:83:a3:60:af:29:
         5e:66:8a:2b:0d:ed:9d:d0:39:05:b9:b8:6f:1e:b9:ba:71:cc:
         68:de:b2:79:3a:03:d6:88:e1:1d:29:b3:34:e7:21:d8:a3:0f:
         2b:72:1a:42:b5:9e:45:fa:df:a7:2b:9d:d7:f2:cd:1d:c8:56:
         12:2f:8d:9d:4d:ce:32:c9:26:61:64:d0:9a:78:e5:2f:12:6a:
         4a:44:02:24:d8:57:85:32:7f:cd:59:8c:6b:73:33:00:a5:5e:
         ab:c3:f0:22:c0:cb:08:c3:e0:f7:b8:b8:04:14:ec:4a:ef:39:
         f9:cf:ca:25
-----BEGIN CERTIFICATE-----
MIIEozCCA4ugAwIBAgIQfh/fcpno0kWhXQuo5bFZujANBgkqhkiG9w0BAQUFADBe
MQswCQYDVQQGEwJVUzEdMBsGA1UEChMUU3ltYW50ZWMgQ29ycG9yYXRpb24xMDAu
BgNVBAMTJ1N5bWFudGVjIFRpbWUgU3RhbXBpbmcgU2VydmljZXMgQ0EgLSBHMjAe
Fw0xMjEwMTgwMDAwMDBaFw0yMjA1MTkyMzU5NTlaMGIxCzAJBgNVBAYTAlVTMR0w
GwYDVQQKExRTeW1hbnRlYyBDb3Jwb3JhdGlvbjE0MDIGA1UEAxMrU3ltYW50ZWMg
VGltZSBTdGFtcGluZyBTZXJ2aWNlcyBTaWduZXIgLSBHNDCCASIwDQYJKoZIhvcN
AQEBBQADggEPADCCAQoCggEBAKJjCzlEuLsjp0RJuw7/ofBhClOTsJjbrSwPSsVu
/4Y8U1UPFc4EPyv9qZaW2b5heQtbyUyGduXgQ0sile7CK0PBn9hotI5AT+6FOLkR
xSPyZFjwFTJvTlehroikAtcqHs1L4d1j1ReJMluwXplaqJ0oUA4X7pbbYTtFUR3P
ElYLkkf8q672Zj1HrHBy55LnX80QucSDZJQZvSWA4ejSIqXQugJ6oXeTW2XD7hd0
vEGGKtwITIySjJEtnndEH2jWqHR32w5bMotWizO92WPISZ06xcXqMwvS8aMb9Iu+
2bNXizveBKd6IrIkri7HcMW+ToMmCPsLvalPmQjhEChyqs0CAwEAAaOCAVcwggFT
MAwGA1UdEwEB/wQCMAAwFgYDVR0lAQH/BAwwCgYIKwYBBQUHAwgwDgYDVR0PAQH/
BAQDAgeAMHMGCCsGAQUFBwEBBGcwZTAqBggrBgEFBQcwAYYeaHR0cDovL3RzLW9j
c3Aud3Muc3ltYW50ZWMuY29tMDcGCCsGAQUFBzAChitodHRwOi8vdHMtYWlhLndz
LnN5bWFudGVjLmNvbS90c3MtY2EtZzIuY2VyMDwGA1UdHwQ1MDMwMaAvoC2GK2h0
dHA6Ly90cy1jcmwud3Muc3ltYW50ZWMuY29tL3Rzcy1jYS1nMi5jcmwwKAYDVR0R
BCEwH6QdMBsxGTAXBgNVBAMTEFRpbWVTdGFtcC0yMDQ4LTIwHQYDVR0OBBYEFEbG
aaMOShQe1UzaUmMXP142vA3mMB8GA1UdIwQYMBaAFF+a9W5czMx0mtTdfe8/2+xM
gC7dMA0GCSqGSIb3DQEBBQUAA4IBAQBjADKNFx8o3AR5yScZhLg2aKd1GRiyT0ms
XWErhjLQDU26tXxettI36O1biCzSKWG+H1ApSiL5F4a9hyFb0TxNv2TAui6bphCh
8cSEU7CNWPKOrxIZdx+t976+gS2Ogn5w+DmWM2VZqE9/iyLJGH5eZOK5MG0GtLcR
jGa6LCZEuYrcsYeRtdy/FKHcg6NgryleZoorDe2d0DkFubhvHrm6ccxo3rJ5OgPW
iOEdKbM05yHYow8rchpCtZ5F+t+nK53X8s0dyFYSL42dTc4yySZhZNCaeOUvEmpK
RAIk2FeFMn/NWYxrczMApV6rw/AiwMsIw+D3uLgEFOxK7zn5z8ol
-----END CERTIFICATE-----

