Certificate:
    Data:
        Version: 3 (0x2)
        Serial Number:
            c9:3d:c2:0b:07:25:71:09:5c:96:b1:2f:26:18:b3:45
    Signature Algorithm: sha256WithRSAEncryption
        Issuer: C=GB, ST=Greater Manchester, L=Salford, O=COMODO CA Limited, CN=COMODO RSA Code Signing CA
        Validity
            Not Before: May 19 00:00:00 2016 GMT
            Not After : May 19 23:59:59 2019 GMT
        Subject: C=HR/postalCode=10000, ST=HR, L=Zagreb/street=Kapelska 5, O=ART PLUS D.O.O., CN=ART PLUS D.O.O.
        Subject Public Key Info:
            Public Key Algorithm: rsaEncryption
                Public-Key: (2048 bit)
                Modulus:
                    00:d4:19:7b:bc:20:7a:1d:64:3d:8b:5d:e6:4c:90:
                    21:c0:89:40:2d:61:f6:cd:72:35:a1:8b:c1:89:f9:
                    4c:fc:58:b8:a9:40:78:93:f7:f7:7e:2d:d4:63:1b:
                    96:e6:0d:3c:bc:40:9a:74:3d:9a:58:ac:6a:75:20:
                    ba:f0:78:72:b1:64:0c:9b:63:c5:68:8b:5c:62:63:
                    4a:d9:25:c6:6b:eb:35:79:cf:af:34:09:a9:7b:03:
                    14:73:b0:d6:48:26:c9:17:3b:46:b7:60:02:ae:82:
                    63:b8:46:c3:4e:80:74:c0:10:ed:0e:6b:96:bb:da:
                    df:d0:78:a7:11:2d:be:d3:59:35:29:28:91:87:9d:
                    99:35:a7:66:45:52:47:56:b0:ae:fb:15:b9:73:c0:
                    bd:54:3c:2f:3e:64:72:33:7e:08:49:19:de:09:85:
                    e7:fa:dc:19:ac:03:b1:ed:f5:55:56:6d:41:04:9d:
                    c0:66:03:35:94:bb:b6:59:73:8a:c2:7c:be:05:51:
                    46:10:96:1a:86:00:43:aa:60:b8:f6:30:cc:eb:cb:
                    7e:c7:54:43:1a:8e:b4:e5:02:5a:a9:31:46:3a:35:
                    ee:49:a1:f9:89:a5:6a:51:ee:67:ec:c2:39:e5:52:
                    22:f9:f4:d9:ce:9e:f2:8a:7e:af:c2:fb:4a:a2:8e:
                    f3:fd
                Exponent: 65537 (0x10001)
        X509v3 extensions:
            X509v3 Authority Key Identifier: 
                keyid:29:91:60:FF:8A:4D:FA:EB:F9:A6:6A:B8:CF:F9:E6:4B:BD:49:CE:12

            X509v3 Subject Key Identifier: 
                3D:AE:15:56:A8:7E:36:B2:6E:81:16:E9:0D:84:9E:A5:C5:E9:67:DE
            X509v3 Key Usage: critical
                Digital Signature
            X509v3 Basic Constraints: critical
                CA:FALSE
            X509v3 Extended Key Usage: 
                Code Signing
            Netscape Cert Type: 
                Object Signing
            X509v3 Certificate Policies: 
                Policy: 1.3.6.1.4.1.6449.1.2.1.3.2
                  CPS: https://secure.comodo.net/CPS

            X509v3 CRL Distribution Points: 

                Full Name:
                  URI:http://crl.comodoca.com/COMODORSACodeSigningCA.crl

            Authority Information Access: 
                CA Issuers - URI:http://crt.comodoca.com/COMODORSACodeSigningCA.crt
                OCSP - URI:http://ocsp.comodoca.com

    Signature Algorithm: sha256WithRSAEncryption
         7c:e0:d1:9e:25:b0:f2:7d:0a:9a:44:4b:4d:05:42:60:18:ef:
         f2:6e:20:c0:d7:be:01:b5:66:76:1c:e4:c2:64:1f:85:c3:5f:
         a8:ce:61:0c:b6:ce:eb:6d:56:14:d8:eb:d5:3d:72:61:66:87:
         1c:d4:71:29:ab:cc:39:14:73:c2:23:dd:d4:3c:44:a8:22:b4:
         56:f2:f6:5c:e9:0b:af:99:33:c4:f7:9b:eb:c5:a5:e8:77:5f:
         69:81:17:6e:6a:52:4b:4e:af:db:bc:8b:d2:13:e0:67:80:a2:
         97:00:a6:8a:89:37:99:6f:4e:6c:ad:6c:bf:f7:5e:1e:cb:c7:
         67:c2:1d:b9:e6:38:c8:cf:b9:c3:cd:60:ff:27:c3:44:d1:9e:
         a6:61:c6:3d:a8:d4:5e:34:47:91:7e:c7:34:9f:cc:4c:44:7f:
         8d:7c:02:3f:05:22:9b:36:f2:d7:f2:2a:1d:e0:21:4e:96:e4:
         ec:7e:c9:b1:1c:fc:2a:c2:0b:3e:60:8e:71:4c:df:74:d2:f0:
         62:8d:d5:ee:70:04:23:ed:0d:0c:1d:47:cd:8a:73:f4:3f:44:
         fe:ab:20:f8:05:56:9f:f8:b0:7a:e6:80:fa:a2:2b:f3:f1:fa:
         2b:2f:81:3a:ba:17:ac:ae:2a:69:eb:10:e8:14:49:80:e0:21:
         a9:a4:a4:85
-----BEGIN CERTIFICATE-----
MIIFHDCCBASgAwIBAgIRAMk9wgsHJXEJXJaxLyYYs0UwDQYJKoZIhvcNAQELBQAw
fTELMAkGA1UEBhMCR0IxGzAZBgNVBAgTEkdyZWF0ZXIgTWFuY2hlc3RlcjEQMA4G
A1UEBxMHU2FsZm9yZDEaMBgGA1UEChMRQ09NT0RPIENBIExpbWl0ZWQxIzAhBgNV
BAMTGkNPTU9ETyBSU0EgQ29kZSBTaWduaW5nIENBMB4XDTE2MDUxOTAwMDAwMFoX
DTE5MDUxOTIzNTk1OVowgYQxCzAJBgNVBAYTAkhSMQ4wDAYDVQQRDAUxMDAwMDEL
MAkGA1UECAwCSFIxDzANBgNVBAcMBlphZ3JlYjETMBEGA1UECQwKS2FwZWxza2Eg
NTEYMBYGA1UECgwPQVJUIFBMVVMgRC5PLk8uMRgwFgYDVQQDDA9BUlQgUExVUyBE
Lk8uTy4wggEiMA0GCSqGSIb3DQEBAQUAA4IBDwAwggEKAoIBAQDUGXu8IHodZD2L
XeZMkCHAiUAtYfbNcjWhi8GJ+Uz8WLipQHiT9/d+LdRjG5bmDTy8QJp0PZpYrGp1
ILrweHKxZAybY8Voi1xiY0rZJcZr6zV5z680Cal7AxRzsNZIJskXO0a3YAKugmO4
RsNOgHTAEO0Oa5a72t/QeKcRLb7TWTUpKJGHnZk1p2ZFUkdWsK77FblzwL1UPC8+
ZHIzfghJGd4Jhef63BmsA7Ht9VVWbUEEncBmAzWUu7ZZc4rCfL4FUUYQlhqGAEOq
YLj2MMzry37HVEMajrTlAlqpMUY6Ne5JofmJpWpR7mfswjnlUiL59NnOnvKKfq/C
+0qijvP9AgMBAAGjggGNMIIBiTAfBgNVHSMEGDAWgBQpkWD/ik366/mmarjP+eZL
vUnOEjAdBgNVHQ4EFgQUPa4VVqh+NrJugRbpDYSepcXpZ94wDgYDVR0PAQH/BAQD
AgeAMAwGA1UdEwEB/wQCMAAwEwYDVR0lBAwwCgYIKwYBBQUHAwMwEQYJYIZIAYb4
QgEBBAQDAgQQMEYGA1UdIAQ/MD0wOwYMKwYBBAGyMQECAQMCMCswKQYIKwYBBQUH
AgEWHWh0dHBzOi8vc2VjdXJlLmNvbW9kby5uZXQvQ1BTMEMGA1UdHwQ8MDowOKA2
oDSGMmh0dHA6Ly9jcmwuY29tb2RvY2EuY29tL0NPTU9ET1JTQUNvZGVTaWduaW5n
Q0EuY3JsMHQGCCsGAQUFBwEBBGgwZjA+BggrBgEFBQcwAoYyaHR0cDovL2NydC5j
b21vZG9jYS5jb20vQ09NT0RPUlNBQ29kZVNpZ25pbmdDQS5jcnQwJAYIKwYBBQUH
MAGGGGh0dHA6Ly9vY3NwLmNvbW9kb2NhLmNvbTANBgkqhkiG9w0BAQsFAAOCAQEA
fODRniWw8n0KmkRLTQVCYBjv8m4gwNe+AbVmdhzkwmQfhcNfqM5hDLbO621WFNjr
1T1yYWaHHNRxKavMORRzwiPd1DxEqCK0VvL2XOkLr5kzxPeb68Wl6HdfaYEXbmpS
S06v27yL0hPgZ4CilwCmiok3mW9ObK1sv/deHsvHZ8IdueY4yM+5w81g/yfDRNGe
pmHGPajUXjRHkX7HNJ/MTER/jXwCPwUimzby1/IqHeAhTpbk7H7JsRz8KsILPmCO
cUzfdNLwYo3V7nAEI+0NDB1HzYpz9D9E/qsg+AVWn/iweuaA+qIr8/H6Ky+BOroX
rK4qaesQ6BRJgOAhqaSkhQ==
-----END CERTIFICATE-----

Certificate:
    Data:
        Version: 3 (0x2)
        Serial Number:
            2e:7c:87:cc:0e:93:4a:52:fe:94:fd:1c:b7:cd:34:af
    Signature Algorithm: sha384WithRSAEncryption
        Issuer: C=GB, ST=Greater Manchester, L=Salford, O=COMODO CA Limited, CN=COMODO RSA Certification Authority
        Validity
            Not Before: May  9 00:00:00 2013 GMT
            Not After : May  8 23:59:59 2028 GMT
        Subject: C=GB, ST=Greater Manchester, L=Salford, O=COMODO CA Limited, CN=COMODO RSA Code Signing CA
        Subject Public Key Info:
            Public Key Algorithm: rsaEncryption
                Public-Key: (2048 bit)
                Modulus:
                    00:a6:98:90:63:77:91:34:7f:8a:d1:dd:e9:67:31:
                    11:eb:cc:1e:fd:31:1d:b3:b9:62:57:3f:93:bc:5b:
                    e3:9f:1e:24:32:11:27:6b:bc:51:91:a7:cf:9e:9e:
                    25:b3:5f:81:a8:18:0f:1d:1e:20:30:0e:fb:61:7b:
                    86:09:b3:e3:fd:a2:68:9d:1c:2c:9d:bf:72:e3:e4:
                    75:a0:e5:35:23:8e:c9:8a:ee:1a:0c:64:c7:d8:42:
                    a1:7b:b5:52:03:4b:3a:b0:8e:23:4b:4b:63:e0:22:
                    94:37:7b:d5:79:90:0a:14:18:51:2c:e6:fe:c1:12:
                    f0:1c:3f:61:61:0a:8c:a2:dc:f6:c3:30:aa:cd:28:
                    18:75:48:c1:79:5a:08:cd:bb:8c:55:8c:f7:d4:76:
                    90:3a:33:46:50:73:98:5c:f4:85:4a:6b:0f:80:dd:
                    5e:d6:bd:fd:a9:2f:c0:25:f5:f9:78:d7:8d:5f:10:
                    c2:44:55:3c:90:3c:31:46:cb:70:ae:07:a9:0a:e3:
                    af:c1:01:6f:90:1a:23:e2:5f:38:db:c6:08:5d:47:
                    b3:83:41:f0:2e:00:37:14:b9:12:aa:79:92:52:cd:
                    87:0f:7b:d8:62:29:a4:7e:30:bd:1b:b5:8c:72:b4:
                    48:f2:e3:e8:21:f9:5e:4c:62:79:8b:02:06:9f:7f:
                    d5:0b
                Exponent: 65537 (0x10001)
        X509v3 extensions:
            X509v3 Authority Key Identifier: 
                keyid:BB:AF:7E:02:3D:FA:A6:F1:3C:84:8E:AD:EE:38:98:EC:D9:32:32:D4

            X509v3 Subject Key Identifier: 
                29:91:60:FF:8A:4D:FA:EB:F9:A6:6A:B8:CF:F9:E6:4B:BD:49:CE:12
            X509v3 Key Usage: critical
                Digital Signature, Certificate Sign, CRL Sign
            X509v3 Basic Constraints: critical
                CA:TRUE, pathlen:0
            X509v3 Extended Key Usage: 
                Code Signing
            X509v3 Certificate Policies: 
                Policy: X509v3 Any Policy

            X509v3 CRL Distribution Points: 

                Full Name:
                  URI:http://crl.comodoca.com/COMODORSACertificationAuthority.crl

            Authority Information Access: 
                CA Issuers - URI:http://crt.comodoca.com/COMODORSAAddTrustCA.crt
                OCSP - URI:http://ocsp.comodoca.com

    Signature Algorithm: sha384WithRSAEncryption
         02:3f:02:39:c3:ee:f8:ca:3b:89:de:0c:6d:4d:b1:f1:4e:92:
         4f:af:c2:38:2c:04:cc:c5:63:11:ab:09:63:af:ab:a2:d7:02:
         3f:cc:6f:19:c3:3d:d6:1a:08:94:ff:25:d8:a9:88:a7:2b:10:
         1a:e0:9b:b1:07:22:1a:51:1c:3a:d4:e1:e9:09:bf:e6:24:74:
         af:1e:7b:16:31:6e:23:ef:54:51:2d:52:02:e2:75:08:05:4c:
         f1:b7:51:e1:51:00:c6:87:f6:6c:ee:10:44:76:57:6a:f1:df:
         58:6b:21:aa:49:d4:7c:37:4e:bd:ff:b6:75:54:40:18:36:57:
         67:11:cd:4f:02:e4:fe:f3:da:fc:75:17:db:ec:b7:f7:65:09:
         23:49:1f:43:57:83:ea:7e:20:77:61:c8:4d:f2:bb:65:4d:a8:
         f7:85:45:07:af:7a:69:27:65:90:29:40:8b:df:7b:3a:51:39:
         8c:a8:1f:70:79:ad:6d:42:20:a2:cf:0c:6c:03:8c:4c:cd:73:
         07:94:e7:5a:8e:3a:04:ba:a2:a1:7c:1f:cb:63:3a:15:a7:d4:
         15:1b:a7:52:47:32:a9:f4:bf:64:47:d1:aa:1f:53:4e:32:30:
         73:c2:6f:b7:78:82:9d:5c:ff:46:bb:6b:22:1d:88:0b:f8:1b:
         aa:34:a6:fc:8c:f5:dd:7f:65:8c:8c:31:57:31:d0:36:ec:47:
         a1:cf:cb:8b:a8:ef:1c:18:58:c5:06:77:ca:4b:9b:51:af:4c:
         08:4a:7a:8f:e2:a3:52:e2:8e:8e:cc:26:e4:b2:d8:e5:38:c2:
         a8:ed:c6:81:9c:35:6b:a9:58:61:4a:0a:97:b4:4b:42:b6:55:
         9d:be:99:e7:70:6d:59:f8:6d:2a:0c:7f:19:60:5f:0c:9a:88:
         6c:30:ac:52:09:90:16:1b:ff:2b:9d:db:d0:20:ca:89:ea:28:
         7e:32:8e:19:df:7b:48:33:1e:d7:65:f8:ae:c9:f8:83:14:93:
         76:7d:64:d0:8e:ce:be:35:7d:ff:72:31:4d:9f:9e:bd:1e:6c:
         2f:a8:8f:0c:06:50:fb:8c:27:b3:76:c9:f4:e6:d7:c3:34:e2:
         8c:87:21:86:61:fe:bf:55:74:e1:21:77:03:0a:68:6c:bb:e4:
         c9:a9:e6:cf:59:25:eb:7c:ec:45:0e:79:66:68:e8:22:cd:b8:
         ef:98:85:4d:96:11:3c:09:8a:d0:7f:bc:28:28:13:fb:6a:ca:
         54:8d:92:5c:cd:c2:65:98:06:9e:ce:48:5b:d4:b5:37:93:46:
         41:7c:07:dd:cf:fa:43:ef:ba:67:61:ff:7d:49:e0:bb:30:7d:
         5c:80:e3:e6:16:39:4b:a7
-----BEGIN CERTIFICATE-----
MIIF4DCCA8igAwIBAgIQLnyHzA6TSlL+lP0ct800rzANBgkqhkiG9w0BAQwFADCB
hTELMAkGA1UEBhMCR0IxGzAZBgNVBAgTEkdyZWF0ZXIgTWFuY2hlc3RlcjEQMA4G
A1UEBxMHU2FsZm9yZDEaMBgGA1UEChMRQ09NT0RPIENBIExpbWl0ZWQxKzApBgNV
BAMTIkNPTU9ETyBSU0EgQ2VydGlmaWNhdGlvbiBBdXRob3JpdHkwHhcNMTMwNTA5
MDAwMDAwWhcNMjgwNTA4MjM1OTU5WjB9MQswCQYDVQQGEwJHQjEbMBkGA1UECBMS
R3JlYXRlciBNYW5jaGVzdGVyMRAwDgYDVQQHEwdTYWxmb3JkMRowGAYDVQQKExFD
T01PRE8gQ0EgTGltaXRlZDEjMCEGA1UEAxMaQ09NT0RPIFJTQSBDb2RlIFNpZ25p
bmcgQ0EwggEiMA0GCSqGSIb3DQEBAQUAA4IBDwAwggEKAoIBAQCmmJBjd5E0f4rR
3elnMRHrzB79MR2zuWJXP5O8W+OfHiQyESdrvFGRp8+eniWzX4GoGA8dHiAwDvth
e4YJs+P9omidHCydv3Lj5HWg5TUjjsmK7hoMZMfYQqF7tVIDSzqwjiNLS2PgIpQ3
e9V5kAoUGFEs5v7BEvAcP2FhCoyi3PbDMKrNKBh1SMF5WgjNu4xVjPfUdpA6M0ZQ
c5hc9IVKaw+A3V7Wvf2pL8Al9fl4141fEMJEVTyQPDFGy3CuB6kK46/BAW+QGiPi
XzjbxghdR7ODQfAuADcUuRKqeZJSzYcPe9hiKaR+ML0btYxytEjy4+gh+V5MYnmL
Agaff9ULAgMBAAGjggFRMIIBTTAfBgNVHSMEGDAWgBS7r34CPfqm8TyEjq3uOJjs
2TIy1DAdBgNVHQ4EFgQUKZFg/4pN+uv5pmq4z/nmS71JzhIwDgYDVR0PAQH/BAQD
AgGGMBIGA1UdEwEB/wQIMAYBAf8CAQAwEwYDVR0lBAwwCgYIKwYBBQUHAwMwEQYD
VR0gBAowCDAGBgRVHSAAMEwGA1UdHwRFMEMwQaA/oD2GO2h0dHA6Ly9jcmwuY29t
b2RvY2EuY29tL0NPTU9ET1JTQUNlcnRpZmljYXRpb25BdXRob3JpdHkuY3JsMHEG
CCsGAQUFBwEBBGUwYzA7BggrBgEFBQcwAoYvaHR0cDovL2NydC5jb21vZG9jYS5j
b20vQ09NT0RPUlNBQWRkVHJ1c3RDQS5jcnQwJAYIKwYBBQUHMAGGGGh0dHA6Ly9v
Y3NwLmNvbW9kb2NhLmNvbTANBgkqhkiG9w0BAQwFAAOCAgEAAj8COcPu+Mo7id4M
bU2x8U6ST6/COCwEzMVjEasJY6+rotcCP8xvGcM91hoIlP8l2KmIpysQGuCbsQci
GlEcOtTh6Qm/5iR0rx57FjFuI+9UUS1SAuJ1CAVM8bdR4VEAxof2bO4QRHZXavHf
WGshqknUfDdOvf+2dVRAGDZXZxHNTwLk/vPa/HUX2+y392UJI0kfQ1eD6n4gd2HI
TfK7ZU2o94VFB696aSdlkClAi997OlE5jKgfcHmtbUIgos8MbAOMTM1zB5TnWo46
BLqioXwfy2M6FafUFRunUkcyqfS/ZEfRqh9TTjIwc8Jvt3iCnVz/RrtrIh2IC/gb
qjSm/Iz13X9ljIwxVzHQNuxHoc/Li6jvHBhYxQZ3ykubUa9MCEp6j+KjUuKOjswm
5LLY5TjCqO3GgZw1a6lYYUoKl7RLQrZVnb6Z53BtWfhtKgx/GWBfDJqIbDCsUgmQ
Fhv/K53b0CDKieoofjKOGd97SDMe12X4rsn4gxSTdn1k0I7OvjV9/3IxTZ+evR5s
L6iPDAZQ+4wns3bJ9ObXwzTijIchhmH+v1V04SF3AwpobLvkyanmz1kl63zsRQ55
ZmjoIs2475iFTZYRPAmK0H+8KCgT+2rKVI2SXM3CZZgGns5IW9S1N5NGQXwH3c/6
Q++6Z2H/fUnguzB9XIDj5hY5S6c=
-----END CERTIFICATE-----

