Certificate:
    Data:
        Version: 3 (0x2)
        Serial Number:
            1c:4d:86:74:94:64:03:50:78:be:89:b1:86:10:f3:af
    Signature Algorithm: sha256WithRSAEncryption
        Issuer: C=IL, O=StartCom Ltd., OU=StartCom Certification Authority, CN=StartCom Class 2 Object CA
        Validity
            Not Before: May 10 11:57:48 2016 GMT
            Not After : May 10 11:57:48 2018 GMT
        Subject: C=EG, ST=Al Minya, L=Al Minya, O=Ahmed Osama, CN=Ahmed Osama
        Subject Public Key Info:
            Public Key Algorithm: rsaEncryption
                Public-Key: (2048 bit)
                Modulus:
                    00:e9:eb:7c:5e:22:c9:56:6e:3d:54:ae:b2:b2:2c:
                    c0:49:e3:d9:43:9c:e5:5c:39:54:91:0e:8d:6c:27:
                    d6:3d:73:70:c4:e1:5c:fa:f9:24:a6:24:04:78:d4:
                    94:2a:7f:45:4b:a2:11:90:28:34:6f:1e:93:0e:e8:
                    c6:27:f4:41:41:35:d3:88:6a:44:6f:47:ac:19:fd:
                    b3:7a:8b:e5:2e:65:ef:e0:b3:a4:bc:f7:33:5f:97:
                    b6:91:62:32:31:40:6f:36:cf:b7:86:bc:eb:44:b0:
                    61:7f:6f:a5:7b:9a:83:34:60:91:9b:a5:7c:73:a3:
                    47:0a:0b:dd:2d:33:b7:16:79:a8:cb:36:1e:f0:2e:
                    43:d1:d8:21:ee:19:33:01:2f:01:46:61:6e:ea:c0:
                    93:43:44:d9:fc:84:d8:f6:d8:15:6a:6d:15:e7:6c:
                    4c:e2:53:58:4a:57:e0:72:e6:9f:93:58:87:05:29:
                    eb:88:63:91:f1:80:66:05:ae:69:93:43:af:8c:1c:
                    80:23:b5:59:4a:65:dc:bc:f1:77:6a:08:4e:66:2e:
                    c6:e4:67:4f:3c:e7:c1:b4:62:06:5b:52:41:57:72:
                    bb:da:e9:7c:64:6e:b3:65:cd:73:2a:9b:e3:0d:9e:
                    31:3a:ca:c2:8b:01:55:5d:c1:34:c6:63:a1:41:8e:
                    7c:1b
                Exponent: 65537 (0x10001)
        X509v3 extensions:
            X509v3 Key Usage: critical
                Digital Signature
            X509v3 Extended Key Usage: 
                Code Signing
            X509v3 Basic Constraints: 
                CA:FALSE
            X509v3 Subject Key Identifier: 
                44:FD:3C:6E:32:EB:5A:4E:D8:1A:B6:62:EF:0F:58:B3:B8:4C:75:37
            X509v3 Authority Key Identifier: 
                keyid:3E:62:93:9A:D7:C7:19:EE:3E:8F:49:10:85:55:15:20:E3:94:84:1C

            Authority Information Access: 
                OCSP - URI:http://ocsp.startssl.com
                CA Issuers - URI:http://aia.startssl.com/certs/sca.code2.crt

            X509v3 CRL Distribution Points: 

                Full Name:
                  URI:http://crl.startssl.com/sca-code2.crl

            X509v3 Issuer Alternative Name: 
                URI:http://www.startssl.com/
            X509v3 Certificate Policies: 
                Policy: 2.23.140.1.4.1
                Policy: 1.3.6.1.4.1.23223.1.2.5
                  CPS: https://www.startssl.com/policy

    Signature Algorithm: sha256WithRSAEncryption
         57:9d:bd:19:a0:59:aa:f7:78:be:f4:ad:40:37:4f:cb:99:ea:
         27:95:78:16:c9:54:0f:71:92:23:2b:cb:e2:d6:bd:24:a0:6e:
         b2:a0:37:8e:85:47:ce:c1:57:98:40:48:90:c2:69:97:72:8f:
         c0:04:48:81:6f:bf:0a:eb:75:b4:1b:fd:e2:81:9e:cc:fb:cf:
         66:aa:dc:4e:4c:66:fe:ca:28:f1:1c:e0:97:7a:e3:4a:f4:fd:
         92:6f:23:0c:f7:79:d5:20:c7:56:c4:e1:c8:18:31:3c:6f:43:
         27:a2:28:7a:74:db:84:42:e6:09:7e:a1:82:7c:11:21:e9:09:
         5f:0e:39:a0:12:e2:ae:85:ce:5a:e8:43:44:97:79:96:80:a5:
         91:6e:18:8f:cb:2f:4f:cc:4a:e0:11:e2:b4:46:d1:73:1e:74:
         16:d2:fd:c0:92:c3:f5:11:ee:69:85:2a:95:c7:34:c9:18:0e:
         6c:09:7e:bc:eb:90:9d:72:d9:43:62:b4:29:ab:3f:7d:e6:1d:
         5b:c5:7f:48:26:ea:39:c9:8d:4a:b8:e4:25:3b:19:8e:ff:73:
         0f:73:4b:a8:36:b2:94:3e:5e:d4:72:6a:9a:4e:fd:f1:d0:d9:
         22:94:85:bf:d5:b5:e4:20:5e:27:6c:a3:ff:b5:27:ee:bb:58:
         f1:04:5c:1b
-----BEGIN CERTIFICATE-----
MIIE8zCCA9ugAwIBAgIQHE2GdJRkA1B4vomxhhDzrzANBgkqhkiG9w0BAQsFADB1
MQswCQYDVQQGEwJJTDEWMBQGA1UEChMNU3RhcnRDb20gTHRkLjEpMCcGA1UECxMg
U3RhcnRDb20gQ2VydGlmaWNhdGlvbiBBdXRob3JpdHkxIzAhBgNVBAMTGlN0YXJ0
Q29tIENsYXNzIDIgT2JqZWN0IENBMB4XDTE2MDUxMDExNTc0OFoXDTE4MDUxMDEx
NTc0OFowXzELMAkGA1UEBhMCRUcxETAPBgNVBAgMCEFsIE1pbnlhMREwDwYDVQQH
DAhBbCBNaW55YTEUMBIGA1UECgwLQWhtZWQgT3NhbWExFDASBgNVBAMMC0FobWVk
IE9zYW1hMIIBIjANBgkqhkiG9w0BAQEFAAOCAQ8AMIIBCgKCAQEA6et8XiLJVm49
VK6ysizASePZQ5zlXDlUkQ6NbCfWPXNwxOFc+vkkpiQEeNSUKn9FS6IRkCg0bx6T
DujGJ/RBQTXTiGpEb0esGf2zeovlLmXv4LOkvPczX5e2kWIyMUBvNs+3hrzrRLBh
f2+le5qDNGCRm6V8c6NHCgvdLTO3FnmoyzYe8C5D0dgh7hkzAS8BRmFu6sCTQ0TZ
/ITY9tgVam0V52xM4lNYSlfgcuafk1iHBSnriGOR8YBmBa5pk0OvjByAI7VZSmXc
vPF3aghOZi7G5GdPPOfBtGIGW1JBV3K72ul8ZG6zZc1zKpvjDZ4xOsrCiwFVXcE0
xmOhQY58GwIDAQABo4IBkzCCAY8wDgYDVR0PAQH/BAQDAgeAMBMGA1UdJQQMMAoG
CCsGAQUFBwMDMAkGA1UdEwQCMAAwHQYDVR0OBBYEFET9PG4y61pO2Bq2Yu8PWLO4
THU3MB8GA1UdIwQYMBaAFD5ik5rXxxnuPo9JEIVVFSDjlIQcMG0GCCsGAQUFBwEB
BGEwXzAkBggrBgEFBQcwAYYYaHR0cDovL29jc3Auc3RhcnRzc2wuY29tMDcGCCsG
AQUFBzAChitodHRwOi8vYWlhLnN0YXJ0c3NsLmNvbS9jZXJ0cy9zY2EuY29kZTIu
Y3J0MDYGA1UdHwQvMC0wK6ApoCeGJWh0dHA6Ly9jcmwuc3RhcnRzc2wuY29tL3Nj
YS1jb2RlMi5jcmwwIwYDVR0SBBwwGoYYaHR0cDovL3d3dy5zdGFydHNzbC5jb20v
MFEGA1UdIARKMEgwCAYGZ4EMAQQBMDwGCysGAQQBgbU3AQIFMC0wKwYIKwYBBQUH
AgEWH2h0dHBzOi8vd3d3LnN0YXJ0c3NsLmNvbS9wb2xpY3kwDQYJKoZIhvcNAQEL
BQADggEBAFedvRmgWar3eL70rUA3T8uZ6ieVeBbJVA9xkiMry+LWvSSgbrKgN46F
R87BV5hASJDCaZdyj8AESIFvvwrrdbQb/eKBnsz7z2aq3E5MZv7KKPEc4Jd640r0
/ZJvIwz3edUgx1bE4cgYMTxvQyeiKHp024RC5gl+oYJ8ESHpCV8OOaAS4q6Fzlro
Q0SXeZaApZFuGI/LL0/MSuAR4rRG0XMedBbS/cCSw/UR7mmFKpXHNMkYDmwJfrzr
kJ1y2UNitCmrP33mHVvFf0gm6jnJjUq45CU7GY7/cw9zS6g2spQ+XtRyappO/fHQ
2SKUhb/VteQgXidso/+1J+67WPEEXBs=
-----END CERTIFICATE-----

Certificate:
    Data:
        Version: 3 (0x2)
        Serial Number:
            6c:3b:d2:7e:dd:3c:94:9e:95:8e:28:a9:b3:c7:57:a0
    Signature Algorithm: sha256WithRSAEncryption
        Issuer: C=IL, O=StartCom Ltd., OU=Secure Digital Certificate Signing, CN=StartCom Certification Authority
        Validity
            Not Before: Dec 16 01:00:05 2015 GMT
            Not After : Dec 16 01:00:05 2030 GMT
        Subject: C=IL, O=StartCom Ltd., OU=StartCom Certification Authority, CN=StartCom Class 2 Object CA
        Subject Public Key Info:
            Public Key Algorithm: rsaEncryption
                Public-Key: (2048 bit)
                Modulus:
                    00:b9:14:04:58:f7:b2:c5:86:2c:08:32:60:ad:08:
                    26:c0:81:77:b9:68:19:d9:15:2b:1d:18:69:e4:da:
                    1a:96:05:97:2e:64:79:1a:a9:3d:51:33:5a:d0:77:
                    6a:f4:02:93:41:c3:8e:ba:70:1b:ab:d8:7b:74:6f:
                    98:e8:d7:b9:a9:3e:68:76:a4:89:a0:22:ac:17:d6:
                    29:f8:bb:b8:61:9f:d2:07:d0:66:0e:30:47:20:2b:
                    70:02:1e:fe:73:09:1c:71:34:b5:e2:7e:a9:ac:a8:
                    a7:f1:8e:3a:40:06:76:92:ca:f7:78:6c:ef:58:05:
                    73:7d:7f:83:50:e9:a2:55:02:e3:00:ae:96:a7:c6:
                    c2:64:7b:e3:f8:58:40:95:2e:4d:7b:bf:dd:82:00:
                    de:49:55:a7:33:23:e6:da:4f:f9:60:a3:93:55:71:
                    31:24:96:80:95:89:26:c8:7d:4e:88:2d:ec:a1:39:
                    24:19:be:9a:26:31:89:3c:78:9a:88:d2:78:a6:39:
                    32:49:7e:65:da:9e:03:43:b2:b5:fc:9e:9f:b7:95:
                    70:f4:fb:aa:c2:66:2b:17:45:62:1a:79:f7:f2:4c:
                    c1:d9:df:54:23:d4:3e:74:59:87:51:b5:7e:72:7a:
                    fe:16:81:a5:e8:28:94:0d:de:59:20:5d:47:32:b6:
                    fc:87
                Exponent: 65537 (0x10001)
        X509v3 extensions:
            X509v3 Key Usage: critical
                Certificate Sign, CRL Sign
            X509v3 Extended Key Usage: 
                Code Signing
            X509v3 Basic Constraints: critical
                CA:TRUE, pathlen:0
            X509v3 CRL Distribution Points: 

                Full Name:
                  URI:http://crl.startssl.com/sfsca.crl

            Authority Information Access: 
                OCSP - URI:http://ocsp.startssl.com
                CA Issuers - URI:http://aia.startssl.com/certs/ca.crt

            X509v3 Subject Key Identifier: 
                3E:62:93:9A:D7:C7:19:EE:3E:8F:49:10:85:55:15:20:E3:94:84:1C
            X509v3 Authority Key Identifier: 
                keyid:4E:0B:EF:1A:A4:40:5B:A5:17:69:87:30:CA:34:68:43:D0:41:AE:F2

            X509v3 Certificate Policies: 
                Policy: X509v3 Any Policy
                  CPS: http://www.startssl.com/policy

    Signature Algorithm: sha256WithRSAEncryption
         63:a5:3c:d5:b3:6d:27:28:d8:eb:ba:53:af:30:0b:ea:4a:5d:
         12:d5:f9:9a:ca:70:fa:4c:63:8c:d7:4d:54:7e:46:ea:52:e7:
         85:a1:24:23:1a:9d:a6:f6:3f:59:dc:3e:51:d3:6d:13:1b:3e:
         37:c7:9f:28:f4:b0:87:69:bf:07:15:e3:d9:f4:9e:2c:cc:17:
         73:01:c5:a2:89:12:70:41:11:f1:ec:f4:aa:e0:8d:ce:2a:2a:
         34:76:9c:ec:b0:97:3c:49:d0:cd:bb:46:d8:51:e5:78:f2:8d:
         0d:68:7c:79:4e:8a:c6:20:33:37:32:2b:23:13:ed:86:29:c7:
         1a:02:d3:04:e0:02:1d:03:36:61:39:43:f1:8a:14:e6:83:77:
         74:b9:81:3a:ab:47:d0:10:cc:66:82:dc:8c:42:28:11:6d:73:
         0b:e4:e7:55:bd:f2:53:51:b4:c6:e6:fa:82:73:7b:94:fe:74:
         bd:b0:22:1c:96:2b:9f:2c:10:89:76:a5:a0:15:7c:07:d6:18:
         7d:ee:99:82:f8:ea:c7:0b:9f:c0:57:0c:57:21:37:52:60:ae:
         0d:3b:0e:a6:3a:83:10:aa:49:db:9b:3e:15:47:64:89:ee:55:
         a8:24:b5:69:ab:9d:2e:8d:f5:5f:ef:54:bc:fe:39:a5:f8:32:
         46:ac:f2:7d:49:d5:12:11:f8:65:7c:65:05:66:4c:ce:3d:97:
         a2:fe:7e:9b:ff:87:de:4c:58:b8:50:39:c5:da:9d:b2:18:ff:
         67:1d:34:4b:b3:e4:09:21:7e:f0:cd:4d:09:cb:c5:81:0c:23:
         23:0e:b5:6d:90:23:0c:19:77:3f:76:bc:c4:d4:d7:b1:bd:82:
         8c:57:62:34:a6:d3:dc:b0:fa:20:67:88:7f:46:ff:11:b3:df:
         d0:55:dd:bc:1a:f1:9b:4a:1f:30:e8:67:9e:07:4f:a2:53:d8:
         0a:da:0e:1a:d6:4f:01:57:bf:c5:eb:be:fd:9c:8a:bf:a4:d2:
         1e:5b:21:69:43:b4:89:87:ec:99:b5:e7:67:9d:6f:be:df:e4:
         92:3c:26:b3:df:ea:3c:5c:52:b8:4d:1f:8c:47:c5:ed:a4:1a:
         cf:04:44:0d:fd:a1:89:53:d1:d2:90:21:bd:28:6d:33:7a:14:
         e1:7a:de:10:51:14:58:46:07:b3:6e:5f:61:5e:16:32:6c:64:
         50:a4:a0:99:29:b0:46:ae:39:b6:fb:46:1f:82:d3:6f:9f:9c:
         77:e8:8b:a8:af:2b:05:02:f4:13:ac:5a:52:38:c6:7e:c6:31:
         ed:bb:9e:22:fa:93:bc:29:2b:42:fa:31:31:b9:ff:a8:31:c2:
         8b:2a:68:c0:35:6a:e9:30
-----BEGIN CERTIFICATE-----
MIIF2DCCA8CgAwIBAgIQbDvSft08lJ6Vjiips8dXoDANBgkqhkiG9w0BAQsFADB9
MQswCQYDVQQGEwJJTDEWMBQGA1UEChMNU3RhcnRDb20gTHRkLjErMCkGA1UECxMi
U2VjdXJlIERpZ2l0YWwgQ2VydGlmaWNhdGUgU2lnbmluZzEpMCcGA1UEAxMgU3Rh
cnRDb20gQ2VydGlmaWNhdGlvbiBBdXRob3JpdHkwHhcNMTUxMjE2MDEwMDA1WhcN
MzAxMjE2MDEwMDA1WjB1MQswCQYDVQQGEwJJTDEWMBQGA1UEChMNU3RhcnRDb20g
THRkLjEpMCcGA1UECxMgU3RhcnRDb20gQ2VydGlmaWNhdGlvbiBBdXRob3JpdHkx
IzAhBgNVBAMTGlN0YXJ0Q29tIENsYXNzIDIgT2JqZWN0IENBMIIBIjANBgkqhkiG
9w0BAQEFAAOCAQ8AMIIBCgKCAQEAuRQEWPeyxYYsCDJgrQgmwIF3uWgZ2RUrHRhp
5NoalgWXLmR5Gqk9UTNa0Hdq9AKTQcOOunAbq9h7dG+Y6Ne5qT5odqSJoCKsF9Yp
+Lu4YZ/SB9BmDjBHICtwAh7+cwkccTS14n6prKin8Y46QAZ2ksr3eGzvWAVzfX+D
UOmiVQLjAK6Wp8bCZHvj+FhAlS5Ne7/dggDeSVWnMyPm2k/5YKOTVXExJJaAlYkm
yH1OiC3soTkkGb6aJjGJPHiaiNJ4pjkySX5l2p4DQ7K1/J6ft5Vw9PuqwmYrF0Vi
Gnn38kzB2d9UI9Q+dFmHUbV+cnr+FoGl6CiUDd5ZIF1HMrb8hwIDAQABo4IBWjCC
AVYwDgYDVR0PAQH/BAQDAgEGMBMGA1UdJQQMMAoGCCsGAQUFBwMDMBIGA1UdEwEB
/wQIMAYBAf8CAQAwMgYDVR0fBCswKTAnoCWgI4YhaHR0cDovL2NybC5zdGFydHNz
bC5jb20vc2ZzY2EuY3JsMGYGCCsGAQUFBwEBBFowWDAkBggrBgEFBQcwAYYYaHR0
cDovL29jc3Auc3RhcnRzc2wuY29tMDAGCCsGAQUFBzAChiRodHRwOi8vYWlhLnN0
YXJ0c3NsLmNvbS9jZXJ0cy9jYS5jcnQwHQYDVR0OBBYEFD5ik5rXxxnuPo9JEIVV
FSDjlIQcMB8GA1UdIwQYMBaAFE4L7xqkQFulF2mHMMo0aEPQQa7yMD8GA1UdIAQ4
MDYwNAYEVR0gADAsMCoGCCsGAQUFBwIBFh5odHRwOi8vd3d3LnN0YXJ0c3NsLmNv
bS9wb2xpY3kwDQYJKoZIhvcNAQELBQADggIBAGOlPNWzbSco2Ou6U68wC+pKXRLV
+ZrKcPpMY4zXTVR+RupS54WhJCManab2P1ncPlHTbRMbPjfHnyj0sIdpvwcV49n0
nizMF3MBxaKJEnBBEfHs9Krgjc4qKjR2nOywlzxJ0M27RthR5XjyjQ1ofHlOisYg
MzcyKyMT7YYpxxoC0wTgAh0DNmE5Q/GKFOaDd3S5gTqrR9AQzGaC3IxCKBFtcwvk
51W98lNRtMbm+oJze5T+dL2wIhyWK58sEIl2paAVfAfWGH3umYL46scLn8BXDFch
N1Jgrg07DqY6gxCqSdubPhVHZInuVagktWmrnS6N9V/vVLz+OaX4Mkas8n1J1RIR
+GV8ZQVmTM49l6L+fpv/h95MWLhQOcXanbIY/2cdNEuz5AkhfvDNTQnLxYEMIyMO
tW2QIwwZdz92vMTU17G9goxXYjSm09yw+iBniH9G/xGz39BV3bwa8ZtKHzDoZ54H
T6JT2AraDhrWTwFXv8Xrvv2cir+k0h5bIWlDtImH7Jm152edb77f5JI8JrPf6jxc
UrhNH4xHxe2kGs8ERA39oYlT0dKQIb0obTN6FOF63hBRFFhGB7NuX2FeFjJsZFCk
oJkpsEauObb7Rh+C02+fnHfoi6ivKwUC9BOsWlI4xn7GMe27niL6k7wpK0L6MTG5
/6gxwosqaMA1aukw
-----END CERTIFICATE-----

