Certificate:
    Data:
        Version: 3 (0x2)
        Serial Number:
            7e:93:eb:fb:7c:c6:4e:59:ea:4b:9a:77:d4:06:fc:3b
    Signature Algorithm: sha1WithRSAEncryption
        Issuer: C=ZA, ST=Western Cape, L=Durbanville, O=Thawte, OU=Thawte Certification, CN=Thawte Timestamping CA
        Validity
            Not Before: Dec 21 00:00:00 2012 GMT
            Not After : Dec 30 23:59:59 2020 GMT
        Subject: C=US, O=Symantec Corporation, CN=Symantec Time Stamping Services CA - G2
        Subject Public Key Info:
            Public Key Algorithm: rsaEncryption
                Public-Key: (2048 bit)
                Modulus:
                    00:b1:ac:b3:49:54:4b:97:1c:12:0a:d8:25:79:91:
                    22:57:2a:6f:dc:b8:26:c4:43:73:6b:c2:bf:2e:50:
                    5a:fb:14:c2:76:8e:43:01:25:43:b4:a1:e2:45:f4:
                    e8:b7:7b:c3:74:cc:22:d7:b4:94:00:02:f7:4d:ed:
                    bf:b4:b7:44:24:6b:cd:5f:45:3b:d1:44:ce:43:12:
                    73:17:82:8b:69:b4:2b:cb:99:1e:ac:72:1b:26:4d:
                    71:1f:b1:31:dd:fb:51:61:02:53:a6:aa:f5:49:2c:
                    05:78:45:a5:2f:89:ce:e7:99:e7:fe:8c:e2:57:3f:
                    3d:c6:92:dc:4a:f8:7b:33:e4:79:0a:fb:f0:75:88:
                    41:9c:ff:c5:03:51:99:aa:d7:6c:9f:93:69:87:65:
                    29:83:85:c2:60:14:c4:c8:c9:3b:14:da:c0:81:f0:
                    1f:0d:74:de:92:22:ab:ca:f7:fb:74:7c:27:e6:f7:
                    4a:1b:7f:a7:c3:9e:2d:ae:8a:ea:a6:e6:aa:27:16:
                    7d:61:f7:98:71:11:bc:e2:50:a1:4b:e5:5d:fa:e5:
                    0e:a7:2c:9f:aa:65:20:d3:d8:96:e8:c8:7c:a5:4e:
                    48:44:ff:19:e2:44:07:92:0b:d7:68:84:80:5d:6a:
                    78:64:45:cd:60:46:7e:54:c1:13:7c:c5:79:f1:c9:
                    c1:71
                Exponent: 65537 (0x10001)
        X509v3 extensions:
            X509v3 Subject Key Identifier: 
                5F:9A:F5:6E:5C:CC:CC:74:9A:D4:DD:7D:EF:3F:DB:EC:4C:80:2E:DD
            Authority Information Access: 
                OCSP - URI:http://ocsp.thawte.com

            X509v3 Basic Constraints: critical
                CA:TRUE, pathlen:0
            X509v3 CRL Distribution Points: 

                Full Name:
                  URI:http://crl.thawte.com/ThawteTimestampingCA.crl

            X509v3 Extended Key Usage: 
                Time Stamping
            X509v3 Key Usage: critical
                Certificate Sign, CRL Sign
            X509v3 Subject Alternative Name: 
                DirName:/CN=TimeStamp-2048-1
    Signature Algorithm: sha1WithRSAEncryption
         03:09:9b:8f:79:ef:7f:59:30:aa:ef:68:b5:fa:e3:09:1d:bb:
         4f:82:06:5d:37:5f:a6:52:9f:16:8d:ea:1c:92:09:44:6e:f5:
         6d:eb:58:7c:30:e8:f9:69:8d:23:73:0b:12:6f:47:a9:ae:39:
         11:f8:2a:b1:9b:b0:1a:c3:8e:eb:59:96:00:ad:ce:0c:4d:b2:
         d0:31:a6:08:5c:2a:7a:fc:e2:7a:1d:57:4c:a8:65:18:e9:79:
         40:62:25:96:6e:c7:c7:37:6a:83:21:08:8e:41:ea:dd:d9:57:
         3f:1d:77:49:87:2a:16:06:5e:a6:38:6a:22:12:a3:51:19:83:
         7e:b6
-----BEGIN CERTIFICATE-----
MIID7jCCA1egAwIBAgIQfpPr+3zGTlnqS5p31Ab8OzANBgkqhkiG9w0BAQUFADCB
izELMAkGA1UEBhMCWkExFTATBgNVBAgTDFdlc3Rlcm4gQ2FwZTEUMBIGA1UEBxML
RHVyYmFudmlsbGUxDzANBgNVBAoTBlRoYXd0ZTEdMBsGA1UECxMUVGhhd3RlIENl
cnRpZmljYXRpb24xHzAdBgNVBAMTFlRoYXd0ZSBUaW1lc3RhbXBpbmcgQ0EwHhcN
MTIxMjIxMDAwMDAwWhcNMjAxMjMwMjM1OTU5WjBeMQswCQYDVQQGEwJVUzEdMBsG
A1UEChMUU3ltYW50ZWMgQ29ycG9yYXRpb24xMDAuBgNVBAMTJ1N5bWFudGVjIFRp
bWUgU3RhbXBpbmcgU2VydmljZXMgQ0EgLSBHMjCCASIwDQYJKoZIhvcNAQEBBQAD
ggEPADCCAQoCggEBALGss0lUS5ccEgrYJXmRIlcqb9y4JsRDc2vCvy5QWvsUwnaO
QwElQ7Sh4kX06Ld7w3TMIte0lAAC903tv7S3RCRrzV9FO9FEzkMScxeCi2m0K8uZ
HqxyGyZNcR+xMd37UWECU6aq9UksBXhFpS+JzueZ5/6M4lc/PcaS3Er4ezPkeQr7
8HWIQZz/xQNRmarXbJ+TaYdlKYOFwmAUxMjJOxTawIHwHw103pIiq8r3+3R8J+b3
Sht/p8OeLa6K6qbmqicWfWH3mHERvOJQoUvlXfrlDqcsn6plINPYlujIfKVOSET/
GeJEB5IL12iEgF1qeGRFzWBGflTBE3zFefHJwXECAwEAAaOB+jCB9zAdBgNVHQ4E
FgQUX5r1blzMzHSa1N197z/b7EyALt0wMgYIKwYBBQUHAQEEJjAkMCIGCCsGAQUF
BzABhhZodHRwOi8vb2NzcC50aGF3dGUuY29tMBIGA1UdEwEB/wQIMAYBAf8CAQAw
PwYDVR0fBDgwNjA0oDKgMIYuaHR0cDovL2NybC50aGF3dGUuY29tL1RoYXd0ZVRp
bWVzdGFtcGluZ0NBLmNybDATBgNVHSUEDDAKBggrBgEFBQcDCDAOBgNVHQ8BAf8E
BAMCAQYwKAYDVR0RBCEwH6QdMBsxGTAXBgNVBAMTEFRpbWVTdGFtcC0yMDQ4LTEw
DQYJKoZIhvcNAQEFBQADgYEAAwmbj3nvf1kwqu9otfrjCR27T4IGXTdfplKfFo3q
HJIJRG71betYfDDo+WmNI3MLEm9Hqa45EfgqsZuwGsOO61mWAK3ODE2y0DGmCFwq
evzieh1XTKhlGOl5QGIllm7HxzdqgyEIjkHq3dlXPx13SYcqFgZepjhqIhKjURmD
frY=
-----END CERTIFICATE-----

Certificate:
    Data:
        Version: 3 (0x2)
        Serial Number:
            0e:cf:f4:38:c8:fe:bf:35:6e:04:d8:6a:98:1b:1a:50
    Signature Algorithm: sha1WithRSAEncryption
        Issuer: C=US, O=Symantec Corporation, CN=Symantec Time Stamping Services CA - G2
        Validity
            Not Before: Oct 18 00:00:00 2012 GMT
            Not After : Dec 29 23:59:59 2020 GMT
        Subject: C=US, O=Symantec Corporation, CN=Symantec Time Stamping Services Signer - G4
        Subject Public Key Info:
            Public Key Algorithm: rsaEncryption
                Public-Key: (2048 bit)
                Modulus:
                    00:a2:63:0b:39:44:b8:bb:23:a7:44:49:bb:0e:ff:
                    a1:f0:61:0a:53:93:b0:98:db:ad:2c:0f:4a:c5:6e:
                    ff:86:3c:53:55:0f:15:ce:04:3f:2b:fd:a9:96:96:
                    d9:be:61:79:0b:5b:c9:4c:86:76:e5:e0:43:4b:22:
                    95:ee:c2:2b:43:c1:9f:d8:68:b4:8e:40:4f:ee:85:
                    38:b9:11:c5:23:f2:64:58:f0:15:32:6f:4e:57:a1:
                    ae:88:a4:02:d7:2a:1e:cd:4b:e1:dd:63:d5:17:89:
                    32:5b:b0:5e:99:5a:a8:9d:28:50:0e:17:ee:96:db:
                    61:3b:45:51:1d:cf:12:56:0b:92:47:fc:ab:ae:f6:
                    66:3d:47:ac:70:72:e7:92:e7:5f:cd:10:b9:c4:83:
                    64:94:19:bd:25:80:e1:e8:d2:22:a5:d0:ba:02:7a:
                    a1:77:93:5b:65:c3:ee:17:74:bc:41:86:2a:dc:08:
                    4c:8c:92:8c:91:2d:9e:77:44:1f:68:d6:a8:74:77:
                    db:0e:5b:32:8b:56:8b:33:bd:d9:63:c8:49:9d:3a:
                    c5:c5:ea:33:0b:d2:f1:a3:1b:f4:8b:be:d9:b3:57:
                    8b:3b:de:04:a7:7a:22:b2:24:ae:2e:c7:70:c5:be:
                    4e:83:26:08:fb:0b:bd:a9:4f:99:08:e1:10:28:72:
                    aa:cd
                Exponent: 65537 (0x10001)
        X509v3 extensions:
            X509v3 Basic Constraints: critical
                CA:FALSE
            X509v3 Extended Key Usage: critical
                Time Stamping
            X509v3 Key Usage: critical
                Digital Signature
            Authority Information Access: 
                OCSP - URI:http://ts-ocsp.ws.symantec.com
                CA Issuers - URI:http://ts-aia.ws.symantec.com/tss-ca-g2.cer

            X509v3 CRL Distribution Points: 

                Full Name:
                  URI:http://ts-crl.ws.symantec.com/tss-ca-g2.crl

            X509v3 Subject Alternative Name: 
                DirName:/CN=TimeStamp-2048-2
            X509v3 Subject Key Identifier: 
                46:C6:69:A3:0E:4A:14:1E:D5:4C:DA:52:63:17:3F:5E:36:BC:0D:E6
            X509v3 Authority Key Identifier: 
                keyid:5F:9A:F5:6E:5C:CC:CC:74:9A:D4:DD:7D:EF:3F:DB:EC:4C:80:2E:DD

    Signature Algorithm: sha1WithRSAEncryption
         78:3b:b4:91:2a:00:4c:f0:8f:62:30:37:78:a3:84:27:07:6f:
         18:b2:de:25:dc:a0:d4:94:03:aa:86:4e:25:9f:9a:40:03:1c:
         dd:ce:e3:79:cb:21:68:06:da:b6:32:b4:6d:bf:f4:2c:26:63:
         33:e4:49:64:6d:0d:e6:c3:67:0e:f7:05:a4:35:6c:7c:89:16:
         c6:e9:b2:df:b2:e9:dd:20:c6:71:0f:cd:95:74:dc:b6:5c:de:
         bd:37:1f:43:78:e6:78:b5:cd:28:04:20:a3:aa:f1:4b:c4:88:
         29:91:0e:80:d1:11:fc:dd:5c:76:6e:4f:5e:0e:45:46:41:6e:
         0d:b0:ea:38:9a:b1:3a:da:09:71:10:fc:1c:79:b4:80:7b:ac:
         69:f4:fd:9c:b6:0c:16:2b:f1:7f:5b:09:3d:9b:5b:e2:16:ca:
         13:81:6d:00:2e:38:0d:a8:29:8f:2c:e1:b2:f4:5a:a9:01:af:
         15:9c:2c:2f:49:1b:db:22:bb:c3:fe:78:94:51:c3:86:b1:82:
         88:5d:f0:3d:b4:51:a1:79:33:2b:2e:7b:b9:dc:20:09:13:71:
         eb:6a:19:5b:cf:e8:a5:30:57:2c:89:49:3f:b9:cf:7f:c9:bf:
         3e:22:68:63:53:9a:bd:69:74:ac:c5:1d:3c:7f:92:e0:c3:bc:
         1c:d8:04:75
-----BEGIN CERTIFICATE-----
MIIEozCCA4ugAwIBAgIQDs/0OMj+vzVuBNhqmBsaUDANBgkqhkiG9w0BAQUFADBe
MQswCQYDVQQGEwJVUzEdMBsGA1UEChMUU3ltYW50ZWMgQ29ycG9yYXRpb24xMDAu
BgNVBAMTJ1N5bWFudGVjIFRpbWUgU3RhbXBpbmcgU2VydmljZXMgQ0EgLSBHMjAe
Fw0xMjEwMTgwMDAwMDBaFw0yMDEyMjkyMzU5NTlaMGIxCzAJBgNVBAYTAlVTMR0w
GwYDVQQKExRTeW1hbnRlYyBDb3Jwb3JhdGlvbjE0MDIGA1UEAxMrU3ltYW50ZWMg
VGltZSBTdGFtcGluZyBTZXJ2aWNlcyBTaWduZXIgLSBHNDCCASIwDQYJKoZIhvcN
AQEBBQADggEPADCCAQoCggEBAKJjCzlEuLsjp0RJuw7/ofBhClOTsJjbrSwPSsVu
/4Y8U1UPFc4EPyv9qZaW2b5heQtbyUyGduXgQ0sile7CK0PBn9hotI5AT+6FOLkR
xSPyZFjwFTJvTlehroikAtcqHs1L4d1j1ReJMluwXplaqJ0oUA4X7pbbYTtFUR3P
ElYLkkf8q672Zj1HrHBy55LnX80QucSDZJQZvSWA4ejSIqXQugJ6oXeTW2XD7hd0
vEGGKtwITIySjJEtnndEH2jWqHR32w5bMotWizO92WPISZ06xcXqMwvS8aMb9Iu+
2bNXizveBKd6IrIkri7HcMW+ToMmCPsLvalPmQjhEChyqs0CAwEAAaOCAVcwggFT
MAwGA1UdEwEB/wQCMAAwFgYDVR0lAQH/BAwwCgYIKwYBBQUHAwgwDgYDVR0PAQH/
BAQDAgeAMHMGCCsGAQUFBwEBBGcwZTAqBggrBgEFBQcwAYYeaHR0cDovL3RzLW9j
c3Aud3Muc3ltYW50ZWMuY29tMDcGCCsGAQUFBzAChitodHRwOi8vdHMtYWlhLndz
LnN5bWFudGVjLmNvbS90c3MtY2EtZzIuY2VyMDwGA1UdHwQ1MDMwMaAvoC2GK2h0
dHA6Ly90cy1jcmwud3Muc3ltYW50ZWMuY29tL3Rzcy1jYS1nMi5jcmwwKAYDVR0R
BCEwH6QdMBsxGTAXBgNVBAMTEFRpbWVTdGFtcC0yMDQ4LTIwHQYDVR0OBBYEFEbG
aaMOShQe1UzaUmMXP142vA3mMB8GA1UdIwQYMBaAFF+a9W5czMx0mtTdfe8/2+xM
gC7dMA0GCSqGSIb3DQEBBQUAA4IBAQB4O7SRKgBM8I9iMDd4o4QnB28Yst4l3KDU
lAOqhk4ln5pAAxzdzuN5yyFoBtq2MrRtv/QsJmMz5ElkbQ3mw2cO9wWkNWx8iRbG
6bLfsundIMZxD82VdNy2XN69Nx9DeOZ4tc0oBCCjqvFLxIgpkQ6A0RH83Vx2bk9e
DkVGQW4NsOo4mrE62glxEPwcebSAe6xp9P2ctgwWK/F/Wwk9m1viFsoTgW0ALjgN
qCmPLOGy9FqpAa8VnCwvSRvbIrvD/niUUcOGsYKIXfA9tFGheTMrLnu53CAJE3Hr
ahlbz+ilMFcsiUk/uc9/yb8+ImhjU5q9aXSsxR08f5Lgw7wc2AR1
-----END CERTIFICATE-----

Certificate:
    Data:
        Version: 3 (0x2)
        Serial Number: 769 (0x301)
    Signature Algorithm: sha1WithRSAEncryption
        Issuer: C=US, O=The Go Daddy Group, Inc., OU=Go Daddy Class 2 Certification Authority
        Validity
            Not Before: Nov 16 01:54:37 2006 GMT
            Not After : Nov 16 01:54:37 2026 GMT
        Subject: C=US, ST=Arizona, L=Scottsdale, O=GoDaddy.com, Inc., OU=http://certificates.godaddy.com/repository, CN=Go Daddy Secure Certification Authority/serialNumber=07969287
        Subject Public Key Info:
            Public Key Algorithm: rsaEncryption
                Public-Key: (2048 bit)
                Modulus:
                    00:c4:2d:d5:15:8c:9c:26:4c:ec:32:35:eb:5f:b8:
                    59:01:5a:a6:61:81:59:3b:70:63:ab:e3:dc:3d:c7:
                    2a:b8:c9:33:d3:79:e4:3a:ed:3c:30:23:84:8e:b3:
                    30:14:b6:b2:87:c3:3d:95:54:04:9e:df:99:dd:0b:
                    25:1e:21:de:65:29:7e:35:a8:a9:54:eb:f6:f7:32:
                    39:d4:26:55:95:ad:ef:fb:fe:58:86:d7:9e:f4:00:
                    8d:8c:2a:0c:bd:42:04:ce:a7:3f:04:f6:ee:80:f2:
                    aa:ef:52:a1:69:66:da:be:1a:ad:5d:da:2c:66:ea:
                    1a:6b:bb:e5:1a:51:4a:00:2f:48:c7:98:75:d8:b9:
                    29:c8:ee:f8:66:6d:0a:9c:b3:f3:fc:78:7c:a2:f8:
                    a3:f2:b5:c3:f3:b9:7a:91:c1:a7:e6:25:2e:9c:a8:
                    ed:12:65:6e:6a:f6:12:44:53:70:30:95:c3:9c:2b:
                    58:2b:3d:08:74:4a:f2:be:51:b0:bf:87:d0:4c:27:
                    58:6b:b5:35:c5:9d:af:17:31:f8:0b:8f:ee:ad:81:
                    36:05:89:08:98:cf:3a:af:25:87:c0:49:ea:a7:fd:
                    67:f7:45:8e:97:cc:14:39:e2:36:85:b5:7e:1a:37:
                    fd:16:f6:71:11:9a:74:30:16:fe:13:94:a3:3f:84:
                    0d:4f
                Exponent: 65537 (0x10001)
        X509v3 extensions:
            X509v3 Subject Key Identifier: 
                FD:AC:61:32:93:6C:45:D6:E2:EE:85:5F:9A:BA:E7:76:99:68:CC:E7
            X509v3 Authority Key Identifier: 
                keyid:D2:C4:B0:D2:91:D4:4C:11:71:B3:61:CB:3D:A1:FE:DD:A8:6A:D4:E3

            X509v3 Basic Constraints: critical
                CA:TRUE, pathlen:0
            Authority Information Access: 
                OCSP - URI:http://ocsp.godaddy.com

            X509v3 CRL Distribution Points: 

                Full Name:
                  URI:http://certificates.godaddy.com/repository/gdroot.crl

            X509v3 Certificate Policies: 
                Policy: X509v3 Any Policy
                  CPS: http://certificates.godaddy.com/repository

            X509v3 Key Usage: critical
                Certificate Sign, CRL Sign
    Signature Algorithm: sha1WithRSAEncryption
         d2:86:c0:ec:bd:f9:a1:b6:67:ee:66:0b:a2:06:3a:04:50:8e:
         15:72:ac:4a:74:95:53:cb:37:cb:44:49:ef:07:90:6b:33:d9:
         96:f0:94:56:a5:13:30:05:3c:85:32:21:7b:c9:c7:0a:a8:24:
         a4:90:de:46:d3:25:23:14:03:67:c2:10:d6:6f:0f:5d:7b:7a:
         cc:9f:c5:58:2a:c1:c4:9e:21:a8:5a:f3:ac:a4:46:f3:9e:e4:
         63:cb:2f:90:a4:29:29:01:d9:72:2c:29:df:37:01:27:bc:4f:
         ee:68:d3:21:8f:c0:b3:e4:f5:09:ed:d2:10:aa:53:b4:be:f0:
         cc:59:0b:d6:3b:96:1c:95:24:49:df:ce:ec:fd:a7:48:91:14:
         45:0e:3a:36:6f:da:45:b3:45:a2:41:c9:d4:d7:44:4e:3e:b9:
         74:76:d5:a2:13:55:2c:c6:87:a3:b5:99:ac:06:84:87:7f:75:
         06:fc:bf:14:4c:0e:cc:6e:c4:df:3d:b7:12:71:f4:e8:f1:51:
         40:22:28:49:e0:1d:4b:87:a8:34:cc:06:a2:dd:12:5a:d1:86:
         36:64:03:35:6f:6f:77:6e:eb:f2:85:50:98:5e:ab:03:53:ad:
         91:23:63:1f:16:9c:cd:b9:b2:05:63:3a:e1:f4:68:1b:17:05:
         35:95:53:ee
-----BEGIN CERTIFICATE-----
MIIE3jCCA8agAwIBAgICAwEwDQYJKoZIhvcNAQEFBQAwYzELMAkGA1UEBhMCVVMx
ITAfBgNVBAoTGFRoZSBHbyBEYWRkeSBHcm91cCwgSW5jLjExMC8GA1UECxMoR28g
RGFkZHkgQ2xhc3MgMiBDZXJ0aWZpY2F0aW9uIEF1dGhvcml0eTAeFw0wNjExMTYw
MTU0MzdaFw0yNjExMTYwMTU0MzdaMIHKMQswCQYDVQQGEwJVUzEQMA4GA1UECBMH
QXJpem9uYTETMBEGA1UEBxMKU2NvdHRzZGFsZTEaMBgGA1UEChMRR29EYWRkeS5j
b20sIEluYy4xMzAxBgNVBAsTKmh0dHA6Ly9jZXJ0aWZpY2F0ZXMuZ29kYWRkeS5j
b20vcmVwb3NpdG9yeTEwMC4GA1UEAxMnR28gRGFkZHkgU2VjdXJlIENlcnRpZmlj
YXRpb24gQXV0aG9yaXR5MREwDwYDVQQFEwgwNzk2OTI4NzCCASIwDQYJKoZIhvcN
AQEBBQADggEPADCCAQoCggEBAMQt1RWMnCZM7DI161+4WQFapmGBWTtwY6vj3D3H
KrjJM9N55DrtPDAjhI6zMBS2sofDPZVUBJ7fmd0LJR4h3mUpfjWoqVTr9vcyOdQm
VZWt7/v+WIbXnvQAjYwqDL1CBM6nPwT27oDyqu9SoWlm2r4arV3aLGbqGmu75RpR
SgAvSMeYddi5Kcju+GZtCpyz8/x4fKL4o/K1w/O5epHBp+YlLpyo7RJlbmr2EkRT
cDCVw5wrWCs9CHRK8r5RsL+H0EwnWGu1NcWdrxcx+AuP7q2BNgWJCJjPOq8lh8BJ
6qf9Z/dFjpfMFDniNoW1fho3/Rb2cRGadDAW/hOUoz+EDU8CAwEAAaOCATIwggEu
MB0GA1UdDgQWBBT9rGEyk2xF1uLuhV+auud2mWjM5zAfBgNVHSMEGDAWgBTSxLDS
kdRMEXGzYcs9of7dqGrU4zASBgNVHRMBAf8ECDAGAQH/AgEAMDMGCCsGAQUFBwEB
BCcwJTAjBggrBgEFBQcwAYYXaHR0cDovL29jc3AuZ29kYWRkeS5jb20wRgYDVR0f
BD8wPTA7oDmgN4Y1aHR0cDovL2NlcnRpZmljYXRlcy5nb2RhZGR5LmNvbS9yZXBv
c2l0b3J5L2dkcm9vdC5jcmwwSwYDVR0gBEQwQjBABgRVHSAAMDgwNgYIKwYBBQUH
AgEWKmh0dHA6Ly9jZXJ0aWZpY2F0ZXMuZ29kYWRkeS5jb20vcmVwb3NpdG9yeTAO
BgNVHQ8BAf8EBAMCAQYwDQYJKoZIhvcNAQEFBQADggEBANKGwOy9+aG2Z+5mC6IG
OgRQjhVyrEp0lVPLN8tESe8HkGsz2ZbwlFalEzAFPIUyIXvJxwqoJKSQ3kbTJSMU
A2fCENZvD117esyfxVgqwcSeIaha86ykRvOe5GPLL5CkKSkB2XIsKd83ASe8T+5o
0yGPwLPk9Qnt0hCqU7S+8MxZC9Y7lhyVJEnfzuz9p0iRFEUOOjZv2kWzRaJBydTX
RE4+uXR21aITVSzGh6O1mawGhId/dQb8vxRMDsxuxN89txJx9OjxUUAiKEngHUuH
qDTMBqLdElrRhjZkAzVvb3du6/KFUJheqwNTrZEjYx8WnM25sgVjOuH0aBsXBTWV
U+4=
-----END CERTIFICATE-----

Certificate:
    Data:
        Version: 3 (0x2)
        Serial Number: 12142575507567632 (0x2b239babc97410)
    Signature Algorithm: sha1WithRSAEncryption
        Issuer: C=US, ST=Arizona, L=Scottsdale, O=GoDaddy.com, Inc., OU=http://certificates.godaddy.com/repository, CN=Go Daddy Secure Certification Authority/serialNumber=07969287
        Validity
            Not Before: Apr  5 18:29:35 2013 GMT
            Not After : Apr  3 14:23:14 2015 GMT
        Subject: C=GB, ST=UK, L=London, O=PC Utilities Software Limited, CN=PC Utilities Software Limited
        Subject Public Key Info:
            Public Key Algorithm: rsaEncryption
                Public-Key: (2048 bit)
                Modulus:
                    00:b1:97:ca:a0:31:99:82:38:64:af:6a:e4:15:83:
                    a4:cb:63:e7:6c:e8:0e:dd:72:a8:62:53:58:46:27:
                    6f:69:32:6d:3b:7a:b0:8c:bd:8a:d9:2a:8d:9a:67:
                    c8:bf:e0:34:1a:5f:26:fc:fd:29:32:9b:fc:4d:06:
                    35:67:a8:79:f8:2e:f7:1b:cd:46:a5:8a:3b:08:49:
                    95:cf:65:62:f7:a0:44:8c:52:52:8c:05:4b:14:b1:
                    a7:c0:25:70:c6:51:73:f1:41:07:6b:48:54:4c:1f:
                    56:fc:d3:4b:23:62:d2:ed:e0:ee:28:ac:73:bc:89:
                    61:a3:93:f0:8e:b9:06:0a:b5:96:80:0a:e5:1c:38:
                    2a:54:64:43:64:05:4e:cc:a2:35:7c:1c:ab:fa:43:
                    3d:fb:db:cb:8a:1e:4e:fd:be:5f:b0:3d:b3:f8:aa:
                    df:72:c5:37:45:88:22:79:03:5c:e1:77:6e:80:1f:
                    32:26:f5:db:fe:db:45:e2:00:34:4c:37:a5:42:4c:
                    2a:9c:dc:9d:95:0e:b0:f2:a9:80:33:b8:dc:d9:d5:
                    0b:9e:05:2d:3a:bf:da:2a:c1:75:64:42:f7:ac:d9:
                    cf:65:0e:f5:d3:50:48:ba:ae:77:14:3c:c7:14:0f:
                    03:df:bb:14:7e:1f:40:3d:ce:23:58:f4:1d:ad:a2:
                    46:09
                Exponent: 65537 (0x10001)
        X509v3 extensions:
            X509v3 Basic Constraints: critical
                CA:FALSE
            X509v3 Extended Key Usage: 
                Code Signing
            X509v3 Key Usage: critical
                Digital Signature
            X509v3 CRL Distribution Points: 

                Full Name:
                  URI:http://crl.godaddy.com/gds5-16.crl

            X509v3 Certificate Policies: 
                Policy: 2.16.840.1.114413.1.7.23.2
                  CPS: http://certificates.godaddy.com/repository/

            Authority Information Access: 
                OCSP - URI:http://ocsp.godaddy.com/
                CA Issuers - URI:http://certificates.godaddy.com/repository/gd_intermediate.crt

            X509v3 Authority Key Identifier: 
                keyid:FD:AC:61:32:93:6C:45:D6:E2:EE:85:5F:9A:BA:E7:76:99:68:CC:E7

            X509v3 Subject Key Identifier: 
                E3:F2:61:93:D5:9A:50:F6:FF:3C:95:5E:E1:D3:9E:75:FA:AB:F0:2C
    Signature Algorithm: sha1WithRSAEncryption
         a8:75:32:e6:f8:22:5b:7f:a2:55:d8:71:73:a3:3d:cb:1c:f6:
         85:12:b1:87:27:06:09:80:78:74:01:a2:8c:44:ea:21:72:2b:
         08:61:90:b5:05:a5:2a:a6:0a:99:51:3b:34:b3:22:ae:36:68:
         9d:f0:87:1e:6f:05:96:c5:43:35:29:dd:aa:b4:c7:2a:fd:8e:
         4c:b8:f1:ef:46:68:2e:0b:b2:68:f9:e9:76:a4:1f:84:dc:ef:
         20:db:e4:f2:b1:2f:7e:85:ac:bb:af:2c:8e:3b:91:0d:c7:23:
         c2:14:87:64:36:0f:f0:79:62:b4:05:7d:93:c2:b2:79:a3:cd:
         86:03:a2:e6:5d:00:d0:41:eb:ab:3f:24:94:34:5c:71:af:ac:
         9e:65:53:8d:71:77:a2:4f:c9:50:f4:9f:d4:5f:87:ff:78:c2:
         ed:08:c6:39:fe:e0:eb:18:fe:67:bd:1a:2e:4b:c1:2d:b6:df:
         9f:8e:32:d5:bf:fb:ce:32:d8:ec:30:ee:3d:5f:bf:c8:13:0f:
         ca:cb:39:e6:f7:9c:98:b4:a6:49:33:a0:1d:0b:3f:73:d9:a0:
         04:83:56:4e:72:a5:0b:65:c0:94:5d:f6:f9:54:3c:e2:43:17:
         5e:35:f2:02:d2:bf:d2:c1:ba:31:9f:7a:25:04:27:31:14:f2:
         d3:7b:d8:1e
-----BEGIN CERTIFICATE-----
MIIFUDCCBDigAwIBAgIHKyObq8l0EDANBgkqhkiG9w0BAQUFADCByjELMAkGA1UE
BhMCVVMxEDAOBgNVBAgTB0FyaXpvbmExEzARBgNVBAcTClNjb3R0c2RhbGUxGjAY
BgNVBAoTEUdvRGFkZHkuY29tLCBJbmMuMTMwMQYDVQQLEypodHRwOi8vY2VydGlm
aWNhdGVzLmdvZGFkZHkuY29tL3JlcG9zaXRvcnkxMDAuBgNVBAMTJ0dvIERhZGR5
IFNlY3VyZSBDZXJ0aWZpY2F0aW9uIEF1dGhvcml0eTERMA8GA1UEBRMIMDc5Njky
ODcwHhcNMTMwNDA1MTgyOTM1WhcNMTUwNDAzMTQyMzE0WjB7MQswCQYDVQQGEwJH
QjELMAkGA1UECBMCVUsxDzANBgNVBAcTBkxvbmRvbjEmMCQGA1UEChMdUEMgVXRp
bGl0aWVzIFNvZnR3YXJlIExpbWl0ZWQxJjAkBgNVBAMTHVBDIFV0aWxpdGllcyBT
b2Z0d2FyZSBMaW1pdGVkMIIBIjANBgkqhkiG9w0BAQEFAAOCAQ8AMIIBCgKCAQEA
sZfKoDGZgjhkr2rkFYOky2PnbOgO3XKoYlNYRidvaTJtO3qwjL2K2SqNmmfIv+A0
Gl8m/P0pMpv8TQY1Z6h5+C73G81GpYo7CEmVz2Vi96BEjFJSjAVLFLGnwCVwxlFz
8UEHa0hUTB9W/NNLI2LS7eDuKKxzvIlho5PwjrkGCrWWgArlHDgqVGRDZAVOzKI1
fByr+kM9+9vLih5O/b5fsD2z+KrfcsU3RYgieQNc4XdugB8yJvXb/ttF4gA0TDel
QkwqnNydlQ6w8qmAM7jc2dULngUtOr/aKsF1ZEL3rNnPZQ7101BIuq53FDzHFA8D
37sUfh9APc4jWPQdraJGCQIDAQABo4IBhzCCAYMwDwYDVR0TAQH/BAUwAwEBADAT
BgNVHSUEDDAKBggrBgEFBQcDAzAOBgNVHQ8BAf8EBAMCB4AwMwYDVR0fBCwwKjAo
oCagJIYiaHR0cDovL2NybC5nb2RhZGR5LmNvbS9nZHM1LTE2LmNybDBTBgNVHSAE
TDBKMEgGC2CGSAGG/W0BBxcCMDkwNwYIKwYBBQUHAgEWK2h0dHA6Ly9jZXJ0aWZp
Y2F0ZXMuZ29kYWRkeS5jb20vcmVwb3NpdG9yeS8wgYAGCCsGAQUFBwEBBHQwcjAk
BggrBgEFBQcwAYYYaHR0cDovL29jc3AuZ29kYWRkeS5jb20vMEoGCCsGAQUFBzAC
hj5odHRwOi8vY2VydGlmaWNhdGVzLmdvZGFkZHkuY29tL3JlcG9zaXRvcnkvZ2Rf
aW50ZXJtZWRpYXRlLmNydDAfBgNVHSMEGDAWgBT9rGEyk2xF1uLuhV+auud2mWjM
5zAdBgNVHQ4EFgQU4/Jhk9WaUPb/PJVe4dOedfqr8CwwDQYJKoZIhvcNAQEFBQAD
ggEBAKh1Mub4Ilt/olXYcXOjPcsc9oUSsYcnBgmAeHQBooxE6iFyKwhhkLUFpSqm
CplROzSzIq42aJ3whx5vBZbFQzUp3aq0xyr9jky48e9GaC4Lsmj56XakH4Tc7yDb
5PKxL36FrLuvLI47kQ3HI8IUh2Q2D/B5YrQFfZPCsnmjzYYDouZdANBB66s/JJQ0
XHGvrJ5lU41xd6JPyVD0n9Rfh/94wu0Ixjn+4OsY/me9Gi5LwS2235+OMtW/+84y
2Oww7j1fv8gTD8rLOeb3nJi0pkkzoB0LP3PZoASDVk5ypQtlwJRd9vlUPOJDF141
8gLSv9LBujGfeiUEJzEU8tN72B4=
-----END CERTIFICATE-----

