Certificate:
    Data:
        Version: 3 (0x2)
        Serial Number:
            38:25:d7:fa:f8:61:af:9e:f4:90:e7:26:b5:d6:5a:d5
    Signature Algorithm: sha1WithRSAEncryption
        Issuer: C=US, O=VeriSign, Inc., CN=VeriSign Time Stamping Services CA
        Validity
            Not Before: Jun 15 00:00:00 2007 GMT
            Not After : Jun 14 23:59:59 2012 GMT
        Subject: C=US, O=VeriSign, Inc., CN=VeriSign Time Stamping Services Signer - G2
        Subject Public Key Info:
            Public Key Algorithm: rsaEncryption
                Public-Key: (1024 bit)
                Modulus:
                    00:c4:b5:f2:52:15:bc:88:86:60:29:16:4a:5b:2f:
                    4b:91:6b:87:91:f3:35:54:58:35:ea:d1:36:5e:62:
                    4d:52:51:34:71:c2:7b:66:1d:89:c8:dd:2a:c4:6a:
                    0a:f6:37:d9:98:74:91:f6:92:ae:b0:b5:76:96:f1:
                    a9:4a:63:45:47:2e:6b:0b:92:4e:4b:2b:8c:ee:58:
                    4a:8b:d4:07:e4:1a:2c:f8:82:aa:58:d9:cd:42:f3:
                    2d:c0:75:de:8d:ab:c7:8e:1d:9a:6c:4c:08:95:1e:
                    de:db:ef:67:e1:72:c2:49:c2:9e:60:3c:e1:e2:be:
                    16:a3:63:78:69:14:7b:ad:2d
                Exponent: 65537 (0x10001)
        X509v3 extensions:
            Authority Information Access: 
                OCSP - URI:http://ocsp.verisign.com

            X509v3 Basic Constraints: critical
                CA:FALSE
            X509v3 CRL Distribution Points: 

                Full Name:
                  URI:http://crl.verisign.com/tss-ca.crl

            X509v3 Extended Key Usage: critical
                Time Stamping
            X509v3 Key Usage: critical
                Digital Signature, Non Repudiation
            X509v3 Subject Alternative Name: 
                DirName:/CN=TSA1-2
    Signature Algorithm: sha1WithRSAEncryption
         50:c5:4b:c8:24:80:df:e4:0d:24:c2:de:1a:b1:a1:02:a1:a6:
         82:2d:0c:83:15:81:37:0a:82:0e:2c:b0:5a:17:61:b5:d8:05:
         fe:88:db:f1:91:91:b3:56:1a:40:a6:eb:92:be:38:39:b0:75:
         36:74:3a:98:4f:e4:37:ba:99:89:ca:95:42:1d:b0:b9:c7:a0:
         8d:57:e0:fa:d5:64:04:42:35:4e:01:d1:33:a2:17:c8:4d:aa:
         27:c7:f2:e1:86:4c:02:38:4d:83:78:c6:fc:53:e0:eb:e0:06:
         87:dd:a4:96:9e:5e:0c:98:e2:a5:be:bf:82:85:c3:60:e1:df:
         ad:28:d8:c7:a5:4b:64:da:c7:1b:5b:bd:ac:39:08:d5:38:22:
         a1:33:8b:2f:8a:9a:eb:bc:07:21:3f:44:41:09:07:b5:65:1c:
         24:bc:48:d3:44:80:eb:a1:cf:c9:02:b4:14:cf:54:c7:16:a3:
         80:5c:f9:79:3e:5d:72:7d:88:17:9e:2c:43:a2:ca:53:ce:7d:
         3d:f6:2a:3a:b8:4f:94:00:a5:6d:0a:83:5d:f9:5e:53:f4:18:
         b3:57:0f:70:c3:fb:f5:ad:95:a0:0e:17:de:c4:16:80:60:c9:
         0f:2b:6e:86:04:f1:eb:f4:78:27:d1:05:c5:ee:34:5b:5e:b9:
         49:32:f2:33
-----BEGIN CERTIFICATE-----
MIIDejCCAmKgAwIBAgIQOCXX+vhhr570kOcmtdZa1TANBgkqhkiG9w0BAQUFADBT
MQswCQYDVQQGEwJVUzEXMBUGA1UEChMOVmVyaVNpZ24sIEluYy4xKzApBgNVBAMT
IlZlcmlTaWduIFRpbWUgU3RhbXBpbmcgU2VydmljZXMgQ0EwHhcNMDcwNjE1MDAw
MDAwWhcNMTIwNjE0MjM1OTU5WjBcMQswCQYDVQQGEwJVUzEXMBUGA1UEChMOVmVy
aVNpZ24sIEluYy4xNDAyBgNVBAMTK1ZlcmlTaWduIFRpbWUgU3RhbXBpbmcgU2Vy
dmljZXMgU2lnbmVyIC0gRzIwgZ8wDQYJKoZIhvcNAQEBBQADgY0AMIGJAoGBAMS1
8lIVvIiGYCkWSlsvS5Frh5HzNVRYNerRNl5iTVJRNHHCe2YdicjdKsRqCvY32Zh0
kfaSrrC1dpbxqUpjRUcuawuSTksrjO5YSovUB+QaLPiCqljZzULzLcB13o2rx44d
mmxMCJUe3tvvZ+FywknCnmA84eK+FqNjeGkUe60tAgMBAAGjgcQwgcEwNAYIKwYB
BQUHAQEEKDAmMCQGCCsGAQUFBzABhhhodHRwOi8vb2NzcC52ZXJpc2lnbi5jb20w
DAYDVR0TAQH/BAIwADAzBgNVHR8ELDAqMCigJqAkhiJodHRwOi8vY3JsLnZlcmlz
aWduLmNvbS90c3MtY2EuY3JsMBYGA1UdJQEB/wQMMAoGCCsGAQUFBwMIMA4GA1Ud
DwEB/wQEAwIGwDAeBgNVHREEFzAVpBMwETEPMA0GA1UEAxMGVFNBMS0yMA0GCSqG
SIb3DQEBBQUAA4IBAQBQxUvIJIDf5A0kwt4asaECoaaCLQyDFYE3CoIOLLBaF2G1
2AX+iNvxkZGzVhpApuuSvjg5sHU2dDqYT+Q3upmJypVCHbC5x6CNV+D61WQEQjVO
AdEzohfITaonx/LhhkwCOE2DeMb8U+Dr4AaH3aSWnl4MmOKlvr+ChcNg4d+tKNjH
pUtk2scbW72sOQjVOCKhM4sviprrvAchP0RBCQe1ZRwkvEjTRIDroc/JArQUz1TH
FqOAXPl5Pl1yfYgXnixDospTzn099io6uE+UAKVtCoNd+V5T9BizVw9ww/v1rZWg
DhfexBaAYMkPK26GBPHr9Hgn0QXF7jRbXrlJMvIz
-----END CERTIFICATE-----

Certificate:
    Data:
        Version: 3 (0x2)
        Serial Number:
            47:bf:19:95:df:8d:52:46:43:f7:db:6d:48:0d:31:a4
    Signature Algorithm: sha1WithRSAEncryption
        Issuer: C=ZA, ST=Western Cape, L=Durbanville, O=Thawte, OU=Thawte Certification, CN=Thawte Timestamping CA
        Validity
            Not Before: Dec  4 00:00:00 2003 GMT
            Not After : Dec  3 23:59:59 2013 GMT
        Subject: C=US, O=VeriSign, Inc., CN=VeriSign Time Stamping Services CA
        Subject Public Key Info:
            Public Key Algorithm: rsaEncryption
                Public-Key: (2048 bit)
                Modulus:
                    00:a9:ca:b2:a4:cc:cd:20:af:0a:7d:89:ac:87:75:
                    f0:b4:4e:f1:df:c1:0f:bf:67:61:bd:a3:64:1c:da:
                    bb:f9:ca:33:ab:84:30:89:58:7e:8c:db:6b:dd:36:
                    9e:0f:bf:d1:ec:78:f2:77:a6:7e:6f:3c:bf:93:af:
                    0d:ba:68:f4:6c:94:ca:bd:52:2d:ab:48:3d:f5:b6:
                    d5:5d:5f:1b:02:9f:fa:2f:6b:1e:a4:f7:a3:9a:a6:
                    1a:c8:02:e1:7f:4c:52:e3:0e:60:ec:40:1c:7e:b9:
                    0d:de:3f:c7:b4:df:87:bd:5f:7a:6a:31:2e:03:99:
                    81:13:a8:47:20:ce:31:73:0d:57:2d:cd:78:34:33:
                    95:12:99:12:b9:de:68:2f:aa:e6:e3:c2:8a:8c:2a:
                    c3:8b:21:87:66:bd:83:58:57:6f:75:bf:3c:aa:26:
                    87:5d:ca:10:15:3c:9f:84:ea:54:c1:0a:6e:c4:fe:
                    c5:4a:dd:b9:07:11:97:22:7c:db:3e:27:d1:1e:78:
                    ec:9f:31:c9:f1:e6:22:19:db:c4:b3:47:43:9a:1a:
                    5f:a0:1e:90:e4:5e:f5:ee:7c:f1:7d:ab:62:01:8f:
                    f5:4d:0b:de:d0:22:56:a8:95:cd:ae:88:76:ae:ee:
                    ba:0d:f3:e4:4d:d9:a0:fb:68:a0:ae:14:3b:b3:87:
                    c1:bb
                Exponent: 65537 (0x10001)
        X509v3 extensions:
            Authority Information Access: 
                OCSP - URI:http://ocsp.verisign.com

            X509v3 Basic Constraints: critical
                CA:TRUE, pathlen:0
            X509v3 CRL Distribution Points: 

                Full Name:
                  URI:http://crl.verisign.com/ThawteTimestampingCA.crl

            X509v3 Extended Key Usage: 
                Time Stamping
            X509v3 Key Usage: critical
                Certificate Sign, CRL Sign
            X509v3 Subject Alternative Name: 
                DirName:/CN=TSA2048-1-53
    Signature Algorithm: sha1WithRSAEncryption
         4a:6b:f9:ea:58:c2:44:1c:31:89:79:99:2b:96:bf:82:ac:01:
         d6:1c:4c:cd:b0:8a:58:6e:df:08:29:a3:5e:c8:ca:93:13:e7:
         04:52:0d:ef:47:27:2f:00:38:b0:e4:c9:93:4e:9a:d4:22:62:
         15:f7:3f:37:21:4f:70:31:80:f1:8b:38:87:b3:e8:e8:97:00:
         fe:cf:55:96:4e:24:d2:a9:27:4e:7a:ae:b7:61:41:f3:2a:ce:
         e7:c9:d9:5e:dd:bb:2b:85:3e:b5:9d:b5:d9:e1:57:ff:be:b4:
         c5:7e:f5:cf:0c:9e:f0:97:fe:2b:d3:3b:52:1b:1b:38:27:f7:
         3f:4a
-----BEGIN CERTIFICATE-----
MIIDxDCCAy2gAwIBAgIQR78Zld+NUkZD99ttSA0xpDANBgkqhkiG9w0BAQUFADCB
izELMAkGA1UEBhMCWkExFTATBgNVBAgTDFdlc3Rlcm4gQ2FwZTEUMBIGA1UEBxML
RHVyYmFudmlsbGUxDzANBgNVBAoTBlRoYXd0ZTEdMBsGA1UECxMUVGhhd3RlIENl
cnRpZmljYXRpb24xHzAdBgNVBAMTFlRoYXd0ZSBUaW1lc3RhbXBpbmcgQ0EwHhcN
MDMxMjA0MDAwMDAwWhcNMTMxMjAzMjM1OTU5WjBTMQswCQYDVQQGEwJVUzEXMBUG
A1UEChMOVmVyaVNpZ24sIEluYy4xKzApBgNVBAMTIlZlcmlTaWduIFRpbWUgU3Rh
bXBpbmcgU2VydmljZXMgQ0EwggEiMA0GCSqGSIb3DQEBAQUAA4IBDwAwggEKAoIB
AQCpyrKkzM0grwp9iayHdfC0TvHfwQ+/Z2G9o2Qc2rv5yjOrhDCJWH6M22vdNp4P
v9HsePJ3pn5vPL+Trw26aPRslMq9Ui2rSD31ttVdXxsCn/ovax6k96OaphrIAuF/
TFLjDmDsQBx+uQ3eP8e034e9X3pqMS4DmYETqEcgzjFzDVctzXg0M5USmRK53mgv
qubjwoqMKsOLIYdmvYNYV291vzyqJoddyhAVPJ+E6lTBCm7E/sVK3bkHEZcifNs+
J9EeeOyfMcnx5iIZ28SzR0OaGl+gHpDkXvXufPF9q2IBj/VNC97QIlaolc2uiHau
7roN8+RN2aD7aKCuFDuzh8G7AgMBAAGjgdswgdgwNAYIKwYBBQUHAQEEKDAmMCQG
CCsGAQUFBzABhhhodHRwOi8vb2NzcC52ZXJpc2lnbi5jb20wEgYDVR0TAQH/BAgw
BgEB/wIBADBBBgNVHR8EOjA4MDagNKAyhjBodHRwOi8vY3JsLnZlcmlzaWduLmNv
bS9UaGF3dGVUaW1lc3RhbXBpbmdDQS5jcmwwEwYDVR0lBAwwCgYIKwYBBQUHAwgw
DgYDVR0PAQH/BAQDAgEGMCQGA1UdEQQdMBukGTAXMRUwEwYDVQQDEwxUU0EyMDQ4
LTEtNTMwDQYJKoZIhvcNAQEFBQADgYEASmv56ljCRBwxiXmZK5a/gqwB1hxMzbCK
WG7fCCmjXsjKkxPnBFIN70cnLwA4sOTJk06a1CJiFfc/NyFPcDGA8Ys4h7Po6JcA
/s9Vlk4k0qknTnqut2FB8yrO58nZXt27K4U+tZ212eFX/760xX71zwye8Jf+K9M7
UhsbOCf3P0o=
-----END CERTIFICATE-----

Certificate:
    Data:
        Version: 3 (0x2)
        Serial Number:
            41:91:a1:5a:39:78:df:cf:49:65:66:38:1d:4c:75:c2
    Signature Algorithm: sha1WithRSAEncryption
        Issuer: C=US, O=VeriSign, Inc., OU=Class 3 Public Primary Certification Authority
        Validity
            Not Before: Jul 16 00:00:00 2004 GMT
            Not After : Jul 15 23:59:59 2014 GMT
        Subject: C=US, O=VeriSign, Inc., OU=VeriSign Trust Network, OU=Terms of use at https://www.verisign.com/rpa (c)04, CN=VeriSign Class 3 Code Signing 2004 CA
        Subject Public Key Info:
            Public Key Algorithm: rsaEncryption
                Public-Key: (2048 bit)
                Modulus:
                    00:be:bc:ee:bc:7e:ef:83:eb:e0:37:4f:fb:03:10:
                    38:be:08:d2:8c:7d:9d:fa:92:7f:19:0c:c2:6b:ee:
                    42:52:8c:de:d3:1c:48:13:25:ea:c1:63:7a:f9:51:
                    65:ee:d3:aa:3b:f5:f0:94:9c:2b:fb:f2:66:d4:24:
                    da:f7:f5:9f:6e:19:39:36:bc:d0:a3:76:08:1e:22:
                    27:24:6c:38:91:27:e2:84:49:ae:1b:8a:a1:fd:25:
                    82:2c:10:30:e8:71:ab:28:e8:77:4a:51:f1:ec:cd:
                    f8:f0:54:d4:6f:c0:e3:6d:0a:8f:d9:d8:64:8d:63:
                    b2:2d:4e:27:f6:85:0e:fe:6d:e3:29:99:e2:85:47:
                    7c:2d:86:7f:e8:57:8f:ad:67:c2:33:32:91:13:20:
                    fc:a9:23:14:9a:6d:c2:84:4b:76:68:04:d5:71:2c:
                    5d:21:fa:88:0d:26:fd:1f:2d:91:2b:e7:01:55:4d:
                    f2:6d:35:28:82:df:d9:6b:5c:b6:d6:d9:aa:81:fd:
                    5f:cd:83:ba:63:9d:d0:22:fc:a9:3b:42:69:b2:8e:
                    3a:b5:bc:b4:9e:0f:5e:c4:ea:2c:82:8b:28:fd:53:
                    08:96:dd:b5:01:20:d1:f9:a5:18:e7:c0:ee:51:70:
                    37:e1:b6:05:48:52:48:6f:38:ea:c3:e8:6c:7b:44:
                    84:bb
                Exponent: 65537 (0x10001)
        X509v3 extensions:
            X509v3 Basic Constraints: critical
                CA:TRUE, pathlen:0
            X509v3 Certificate Policies: 
                Policy: 2.16.840.1.113733.1.7.23.3
                  CPS: https://www.verisign.com/rpa

            X509v3 CRL Distribution Points: 

                Full Name:
                  URI:http://crl.verisign.com/pca3.crl

            X509v3 Extended Key Usage: 
                TLS Web Client Authentication, Code Signing
            X509v3 Key Usage: critical
                Certificate Sign, CRL Sign
            Netscape Cert Type: 
                Object Signing CA
            X509v3 Subject Alternative Name: 
                DirName:/CN=Class3CA2048-1-43
            X509v3 Subject Key Identifier: 
                08:F5:51:E8:FB:FE:3D:3D:64:36:7C:68:CF:5B:78:A8:DF:B9:C5:37
            X509v3 Authority Key Identifier: 
                DirName:/C=US/O=VeriSign, Inc./OU=Class 3 Public Primary Certification Authority
                serial:70:BA:E4:1D:10:D9:29:34:B6:38:CA:7B:03:CC:BA:BF

    Signature Algorithm: sha1WithRSAEncryption
         ae:3a:17:b8:4a:7b:55:fa:64:55:ec:40:a4:ed:49:41:90:99:
         9c:89:bc:af:2e:1d:ca:78:23:f9:1c:19:0f:7f:eb:68:bc:32:
         d9:88:38:de:dc:3f:d3:89:b4:3f:b1:82:96:f1:a4:5a:ba:ed:
         2e:26:d3:de:7c:01:6e:00:0a:00:a4:06:92:11:48:09:40:f9:
         1c:18:79:67:23:24:e0:bb:d5:e1:50:ae:1b:f5:0e:dd:e0:2e:
         81:cd:80:a3:6c:52:4f:91:75:55:8a:ba:22:f2:d2:ea:41:75:
         88:2f:63:55:7d:1e:54:5a:95:59:ca:d9:34:81:c0:5f:5e:f6:
         7a:b5
-----BEGIN CERTIFICATE-----
MIIEvzCCBCigAwIBAgIQQZGhWjl4389JZWY4HUx1wjANBgkqhkiG9w0BAQUFADBf
MQswCQYDVQQGEwJVUzEXMBUGA1UEChMOVmVyaVNpZ24sIEluYy4xNzA1BgNVBAsT
LkNsYXNzIDMgUHVibGljIFByaW1hcnkgQ2VydGlmaWNhdGlvbiBBdXRob3JpdHkw
HhcNMDQwNzE2MDAwMDAwWhcNMTQwNzE1MjM1OTU5WjCBtDELMAkGA1UEBhMCVVMx
FzAVBgNVBAoTDlZlcmlTaWduLCBJbmMuMR8wHQYDVQQLExZWZXJpU2lnbiBUcnVz
dCBOZXR3b3JrMTswOQYDVQQLEzJUZXJtcyBvZiB1c2UgYXQgaHR0cHM6Ly93d3cu
dmVyaXNpZ24uY29tL3JwYSAoYykwNDEuMCwGA1UEAxMlVmVyaVNpZ24gQ2xhc3Mg
MyBDb2RlIFNpZ25pbmcgMjAwNCBDQTCCASIwDQYJKoZIhvcNAQEBBQADggEPADCC
AQoCggEBAL687rx+74Pr4DdP+wMQOL4I0ox9nfqSfxkMwmvuQlKM3tMcSBMl6sFj
evlRZe7Tqjv18JScK/vyZtQk2vf1n24ZOTa80KN2CB4iJyRsOJEn4oRJrhuKof0l
giwQMOhxqyjod0pR8ezN+PBU1G/A420Kj9nYZI1jsi1OJ/aFDv5t4ymZ4oVHfC2G
f+hXj61nwjMykRMg/KkjFJptwoRLdmgE1XEsXSH6iA0m/R8tkSvnAVVN8m01KILf
2WtcttbZqoH9X82DumOd0CL8qTtCabKOOrW8tJ4PXsTqLIKLKP1TCJbdtQEg0fml
GOfA7lFwN+G2BUhSSG846sPobHtEhLsCAwEAAaOCAaAwggGcMBIGA1UdEwEB/wQI
MAYBAf8CAQAwRAYDVR0gBD0wOzA5BgtghkgBhvhFAQcXAzAqMCgGCCsGAQUFBwIB
FhxodHRwczovL3d3dy52ZXJpc2lnbi5jb20vcnBhMDEGA1UdHwQqMCgwJqAkoCKG
IGh0dHA6Ly9jcmwudmVyaXNpZ24uY29tL3BjYTMuY3JsMB0GA1UdJQQWMBQGCCsG
AQUFBwMCBggrBgEFBQcDAzAOBgNVHQ8BAf8EBAMCAQYwEQYJYIZIAYb4QgEBBAQD
AgABMCkGA1UdEQQiMCCkHjAcMRowGAYDVQQDExFDbGFzczNDQTIwNDgtMS00MzAd
BgNVHQ4EFgQUCPVR6Pv+PT1kNnxoz1t4qN+5xTcwgYAGA1UdIwR5MHehY6RhMF8x
CzAJBgNVBAYTAlVTMRcwFQYDVQQKEw5WZXJpU2lnbiwgSW5jLjE3MDUGA1UECxMu
Q2xhc3MgMyBQdWJsaWMgUHJpbWFyeSBDZXJ0aWZpY2F0aW9uIEF1dGhvcml0eYIQ
cLrkHRDZKTS2OMp7A8y6vzANBgkqhkiG9w0BAQUFAAOBgQCuOhe4SntV+mRV7ECk
7UlBkJmcibyvLh3KeCP5HBkPf+tovDLZiDje3D/TibQ/sYKW8aRauu0uJtPefAFu
AAoApAaSEUgJQPkcGHlnIyTgu9XhUK4b9Q7d4C6BzYCjbFJPkXVViroi8tLqQXWI
L2NVfR5UWpVZytk0gcBfXvZ6tQ==
-----END CERTIFICATE-----

Certificate:
    Data:
        Version: 3 (0x2)
        Serial Number:
            01:23:ca:a9:97:2e:fb:16:6e:26:e9:e4:ee:f9:da:0b
    Signature Algorithm: sha1WithRSAEncryption
        Issuer: C=US, O=VeriSign, Inc., OU=VeriSign Trust Network, OU=Terms of use at https://www.verisign.com/rpa (c)04, CN=VeriSign Class 3 Code Signing 2004 CA
        Validity
            Not Before: Oct 11 00:00:00 2007 GMT
            Not After : Oct 29 23:59:59 2010 GMT
        Subject: C=US, ST=Washington, L=Seattle, O=Big Fish Games, OU=Digital ID Class 3 - Microsoft Software Validation v2, OU=Big Fish Games, CN=Big Fish Games
        Subject Public Key Info:
            Public Key Algorithm: rsaEncryption
                Public-Key: (1024 bit)
                Modulus:
                    00:bd:7d:2e:6e:dc:c6:f8:ef:63:57:1b:c2:d5:48:
                    9e:2d:f7:36:39:bd:47:c0:8e:ad:d8:d0:16:25:a6:
                    bb:68:9d:ed:30:20:1e:93:1e:4e:cd:2b:89:21:77:
                    ea:ac:51:79:31:52:98:6f:7b:15:25:03:cd:19:70:
                    a0:80:23:f3:5a:a0:73:bc:2f:d9:3c:46:9c:4d:3f:
                    01:ca:75:a6:ea:fb:ae:04:25:2f:41:ad:27:03:d4:
                    52:9b:53:45:34:34:8a:93:11:a3:fc:70:4c:af:e5:
                    31:e5:63:a1:77:a1:19:84:92:e7:37:52:0e:5c:4b:
                    33:70:c5:12:b7:0d:e1:b4:43
                Exponent: 65537 (0x10001)
        X509v3 extensions:
            X509v3 Basic Constraints: 
                CA:FALSE
            X509v3 Key Usage: critical
                Digital Signature
            X509v3 CRL Distribution Points: 

                Full Name:
                  URI:http://CSC3-2004-crl.verisign.com/CSC3-2004.crl

            X509v3 Certificate Policies: 
                Policy: 2.16.840.1.113733.1.7.23.3
                  CPS: https://www.verisign.com/rpa

            X509v3 Extended Key Usage: 
                Code Signing
            Authority Information Access: 
                OCSP - URI:http://ocsp.verisign.com
                CA Issuers - URI:http://CSC3-2004-aia.verisign.com/CSC3-2004-aia.cer

            X509v3 Authority Key Identifier: 
                keyid:08:F5:51:E8:FB:FE:3D:3D:64:36:7C:68:CF:5B:78:A8:DF:B9:C5:37

            Netscape Cert Type: 
                Object Signing
            1.3.6.1.4.1.311.2.1.27: 
                0.......
    Signature Algorithm: sha1WithRSAEncryption
         24:77:90:58:6e:0b:11:64:20:83:28:0c:f6:a3:9a:e6:47:34:
         6d:89:13:a2:65:d0:ad:6b:5c:5d:7f:c2:b4:70:dd:24:22:93:
         ba:f5:47:0c:27:d4:94:fb:61:67:83:d0:8a:0d:58:54:d1:ed:
         0a:78:eb:ac:01:7c:4e:21:db:b1:e7:9f:27:4d:77:27:97:98:
         7e:ad:3f:83:1c:81:ae:26:de:b1:2e:67:0f:34:95:e5:12:b9:
         62:ae:74:75:ae:70:ce:20:34:10:60:83:ff:6d:ba:98:7d:71:
         e8:57:e1:30:e8:c4:38:fe:08:a3:fd:5e:bb:ca:70:2b:10:3f:
         1a:9c:7c:64:1e:ba:13:e7:e0:37:80:e4:d4:0e:25:6b:44:f6:
         10:3f:d8:37:bc:e9:79:ea:48:1b:bb:60:e8:41:19:1f:97:d5:
         fc:fe:36:21:f8:84:26:b1:5e:2b:51:2c:37:29:21:e5:08:91:
         0a:ab:df:5d:78:eb:04:e7:cc:e6:f2:b4:22:16:b9:a9:0d:e7:
         81:65:e8:a1:34:24:ce:0b:6b:1f:01:01:f1:cc:20:f0:26:31:
         ee:4e:21:ab:39:f4:bd:bb:c3:dd:09:6f:6f:1c:89:d5:59:fd:
         e3:77:e4:e7:bf:a3:ab:93:f1:a3:9f:da:38:9a:ed:2d:ef:22:
         24:cd:d4:3c
-----BEGIN CERTIFICATE-----
MIIE/DCCA+SgAwIBAgIQASPKqZcu+xZuJunk7vnaCzANBgkqhkiG9w0BAQUFADCB
tDELMAkGA1UEBhMCVVMxFzAVBgNVBAoTDlZlcmlTaWduLCBJbmMuMR8wHQYDVQQL
ExZWZXJpU2lnbiBUcnVzdCBOZXR3b3JrMTswOQYDVQQLEzJUZXJtcyBvZiB1c2Ug
YXQgaHR0cHM6Ly93d3cudmVyaXNpZ24uY29tL3JwYSAoYykwNDEuMCwGA1UEAxMl
VmVyaVNpZ24gQ2xhc3MgMyBDb2RlIFNpZ25pbmcgMjAwNCBDQTAeFw0wNzEwMTEw
MDAwMDBaFw0xMDEwMjkyMzU5NTlaMIG/MQswCQYDVQQGEwJVUzETMBEGA1UECBMK
V2FzaGluZ3RvbjEQMA4GA1UEBxMHU2VhdHRsZTEXMBUGA1UEChQOQmlnIEZpc2gg
R2FtZXMxPjA8BgNVBAsTNURpZ2l0YWwgSUQgQ2xhc3MgMyAtIE1pY3Jvc29mdCBT
b2Z0d2FyZSBWYWxpZGF0aW9uIHYyMRcwFQYDVQQLFA5CaWcgRmlzaCBHYW1lczEX
MBUGA1UEAxQOQmlnIEZpc2ggR2FtZXMwgZ8wDQYJKoZIhvcNAQEBBQADgY0AMIGJ
AoGBAL19Lm7cxvjvY1cbwtVIni33Njm9R8COrdjQFiWmu2id7TAgHpMeTs0riSF3
6qxReTFSmG97FSUDzRlwoIAj81qgc7wv2TxGnE0/Acp1pur7rgQlL0GtJwPUUptT
RTQ0ipMRo/xwTK/lMeVjoXehGYSS5zdSDlxLM3DFErcN4bRDAgMBAAGjggF/MIIB
ezAJBgNVHRMEAjAAMA4GA1UdDwEB/wQEAwIHgDBABgNVHR8EOTA3MDWgM6Axhi9o
dHRwOi8vQ1NDMy0yMDA0LWNybC52ZXJpc2lnbi5jb20vQ1NDMy0yMDA0LmNybDBE
BgNVHSAEPTA7MDkGC2CGSAGG+EUBBxcDMCowKAYIKwYBBQUHAgEWHGh0dHBzOi8v
d3d3LnZlcmlzaWduLmNvbS9ycGEwEwYDVR0lBAwwCgYIKwYBBQUHAwMwdQYIKwYB
BQUHAQEEaTBnMCQGCCsGAQUFBzABhhhodHRwOi8vb2NzcC52ZXJpc2lnbi5jb20w
PwYIKwYBBQUHMAKGM2h0dHA6Ly9DU0MzLTIwMDQtYWlhLnZlcmlzaWduLmNvbS9D
U0MzLTIwMDQtYWlhLmNlcjAfBgNVHSMEGDAWgBQI9VHo+/49PWQ2fGjPW3io37nF
NzARBglghkgBhvhCAQEEBAMCBBAwFgYKKwYBBAGCNwIBGwQIMAYBAQABAf8wDQYJ
KoZIhvcNAQEFBQADggEBACR3kFhuCxFkIIMoDPajmuZHNG2JE6Jl0K1rXF1/wrRw
3SQik7r1Rwwn1JT7YWeD0IoNWFTR7Qp466wBfE4h27HnnydNdyeXmH6tP4Mcga4m
3rEuZw80leUSuWKudHWucM4gNBBgg/9tuph9cehX4TDoxDj+CKP9XrvKcCsQPxqc
fGQeuhPn4DeA5NQOJWtE9hA/2De86XnqSBu7YOhBGR+X1fz+NiH4hCaxXitRLDcp
IeUIkQqr31146wTnzObytCIWuakN54Fl6KE0JM4Lax8BAfHMIPAmMe5OIas59L27
w90Jb28cidVZ/eN35Oe/o6uT8aOf2jia7S3vIiTN1Dw=
-----END CERTIFICATE-----

