Certificate:
    Data:
        Version: 3 (0x2)
        Serial Number:
            04:68:e1:d3:69:fe:2a:5f:2a:a4:8e:ac:33:61:5a:0b
    Signature Algorithm: sha1WithRSAEncryption
        Issuer: C=US, O=DigiCert Inc, OU=www.digicert.com, CN=DigiCert Assured ID CA-1
        Validity
            Not Before: May 22 00:00:00 2011 GMT
            Not After : Jun  5 00:00:00 2012 GMT
        Subject: C=US, O=DigiCert, CN=DigiCert Timestamp Responder
        Subject Public Key Info:
            Public Key Algorithm: rsaEncryption
                Public-Key: (2048 bit)
                Modulus:
                    00:80:cc:10:0c:64:c3:16:7d:34:d0:c7:4a:cf:d8:
                    65:04:01:d1:2a:ce:0f:1d:90:05:17:09:94:b8:ea:
                    97:0e:bd:84:33:92:28:f4:ec:c3:7c:13:a1:7e:7c:
                    33:c1:14:b2:87:2e:0e:5a:50:93:6f:f5:0a:09:47:
                    47:10:8f:60:c8:3b:13:1f:c9:c5:fc:4d:44:fa:d9:
                    75:db:d5:22:cc:b6:9a:01:52:14:ac:35:38:e5:fd:
                    2c:e6:8f:b9:70:7f:32:35:7f:e2:3c:d1:a0:6f:cc:
                    ba:a7:e2:35:37:1a:c1:1e:7e:da:27:26:22:3e:60:
                    11:d0:18:11:84:c2:e9:ec:9d:5d:a3:84:63:cd:95:
                    65:e3:51:f8:ce:76:c2:d6:fc:e9:f0:f4:41:1b:db:
                    a7:4c:86:54:89:df:1d:03:53:71:2d:19:cf:28:ad:
                    cb:0b:e7:18:1a:1c:71:44:89:74:5b:3b:b9:bc:27:
                    0e:1a:76:e2:fb:42:1d:52:0f:08:ae:af:d6:08:d0:
                    84:d1:e5:ab:14:cc:b1:7b:64:9e:88:f5:a1:29:69:
                    e2:d1:6e:7e:00:ff:9d:a8:16:f7:e7:cf:c4:28:23:
                    3b:e3:2e:41:9f:70:f1:60:a6:0c:f5:37:2e:10:03:
                    31:d9:b7:6b:07:ec:d0:f4:7b:2c:46:e2:27:1a:f1:
                    d9:b7
                Exponent: 65537 (0x10001)
        X509v3 extensions:
            X509v3 Key Usage: critical
                Digital Signature, Non Repudiation
            X509v3 Basic Constraints: critical
                CA:FALSE
            X509v3 Extended Key Usage: critical
                Time Stamping
            X509v3 Certificate Policies: 
                Policy: 2.16.840.1.114412.7.1
                  CPS: http://www.digicert.com/ssl-cps-repository.htm
                  User Notice:
                    Explicit Text: 

            X509v3 Authority Key Identifier: 
                keyid:15:00:12:2B:13:98:B2:99:07:ED:1E:DF:A2:BE:57:0D:2B:67:02:CD

            X509v3 Subject Key Identifier: 
                EC:1D:2C:34:FB:22:4F:8A:88:2D:FC:65:7E:4C:15:73:89:8E:AB:A7
            Authority Information Access: 
                OCSP - URI:http://ocsp.digicert.com
                CA Issuers - URI:http://www.digicert.com/CACerts/DigiCertAssuredIDCA-1.crt

            X509v3 CRL Distribution Points: 

                Full Name:
                  URI:http://crl3.digicert.com/DigiCertAssuredIDCA-1.crl

                Full Name:
                  URI:http://crl4.digicert.com/DigiCertAssuredIDCA-1.crl

    Signature Algorithm: sha1WithRSAEncryption
         c8:41:cb:44:16:de:7c:62:85:a2:4c:03:31:bd:b5:31:8c:0a:
         1e:ca:12:0a:8d:13:14:e0:86:4c:a7:a9:ca:26:8e:11:ed:08:
         20:12:a4:f4:f3:56:5c:6d:44:69:9b:07:20:40:c0:cf:94:31:
         22:e4:77:56:38:18:53:89:fa:20:2d:4c:ea:90:96:2a:97:48:
         ab:19:00:74:a9:9c:87:89:00:00:c4:1e:d9:3e:16:f0:ff:0a:
         cc:da:01:7f:ee:17:23:cd:dd:e3:ee:de:55:de:25:ea:b6:5c:
         c5:3c:ac:2d:c7:af:1d:26:47:cd:6b:5e:fd:6a:0c:43:82:21:
         c1:e7:d3:3b:5a:0d:28:4a:8d:89:70:4d:1d:95:30:f9:3f:87:
         06:f8:3e:58:cc:cf:5a:b3:45:1c:9d:a4:24:ee:e9:6c:7a:9d:
         9c:07:7d:a8:63:f2:6f:9e:c7:16:7e:cf:e0:74:69:37:7a:ef:
         a5:c6:45:fc:d7:0e:bf:aa:46:d0:5f:6a:09:a3:1f:17:40:20:
         dd:ff:60:06:a1:41:98:7a:d1:33:bf:83:2f:19:56:13:ab:7a:
         c9:bb:94:31:07:ec:2c:24:89:ce:cc:e4:ae:ee:30:4c:64:ec:
         68:9f:2c:53:cd:fc:1c:17:29:00:62:d2:a2:6c:18:2e:3b:55:
         c8:0c:d7:fe
-----BEGIN CERTIFICATE-----
MIIGczCCBVugAwIBAgIQBGjh02n+Kl8qpI6sM2FaCzANBgkqhkiG9w0BAQUFADBi
MQswCQYDVQQGEwJVUzEVMBMGA1UEChMMRGlnaUNlcnQgSW5jMRkwFwYDVQQLExB3
d3cuZGlnaWNlcnQuY29tMSEwHwYDVQQDExhEaWdpQ2VydCBBc3N1cmVkIElEIENB
LTEwHhcNMTEwNTIyMDAwMDAwWhcNMTIwNjA1MDAwMDAwWjBHMQswCQYDVQQGEwJV
UzERMA8GA1UEChMIRGlnaUNlcnQxJTAjBgNVBAMTHERpZ2lDZXJ0IFRpbWVzdGFt
cCBSZXNwb25kZXIwggEiMA0GCSqGSIb3DQEBAQUAA4IBDwAwggEKAoIBAQCAzBAM
ZMMWfTTQx0rP2GUEAdEqzg8dkAUXCZS46pcOvYQzkij07MN8E6F+fDPBFLKHLg5a
UJNv9QoJR0cQj2DIOxMfycX8TUT62XXb1SLMtpoBUhSsNTjl/Szmj7lwfzI1f+I8
0aBvzLqn4jU3GsEeftonJiI+YBHQGBGEwunsnV2jhGPNlWXjUfjOdsLW/Onw9EEb
26dMhlSJ3x0DU3EtGc8orcsL5xgaHHFEiXRbO7m8Jw4aduL7Qh1SDwiur9YI0ITR
5asUzLF7ZJ6I9aEpaeLRbn4A/52oFvfnz8QoIzvjLkGfcPFgpgz1Ny4QAzHZt2sH
7ND0eyxG4ica8dm3AgMBAAGjggM+MIIDOjAOBgNVHQ8BAf8EBAMCBsAwDAYDVR0T
AQH/BAIwADAWBgNVHSUBAf8EDDAKBggrBgEFBQcDCDCCAcQGA1UdIASCAbswggG3
MIIBswYJYIZIAYb9bAcBMIIBpDA6BggrBgEFBQcCARYuaHR0cDovL3d3dy5kaWdp
Y2VydC5jb20vc3NsLWNwcy1yZXBvc2l0b3J5Lmh0bTCCAWQGCCsGAQUFBwICMIIB
Vh6CAVIAQQBuAHkAIAB1AHMAZQAgAG8AZgAgAHQAaABpAHMAIABDAGUAcgB0AGkA
ZgBpAGMAYQB0AGUAIABjAG8AbgBzAHQAaQB0AHUAdABlAHMAIABhAGMAYwBlAHAA
dABhAG4AYwBlACAAbwBmACAAdABoAGUAIABEAGkAZwBpAEMAZQByAHQAIABDAFAA
LwBDAFAAUwAgAGEAbgBkACAAdABoAGUAIABSAGUAbAB5AGkAbgBnACAAUABhAHIA
dAB5ACAAQQBnAHIAZQBlAG0AZQBuAHQAIAB3AGgAaQBjAGgAIABsAGkAbQBpAHQA
IABsAGkAYQBiAGkAbABpAHQAeQAgAGEAbgBkACAAYQByAGUAIABpAG4AYwBvAHIA
cABvAHIAYQB0AGUAZAAgAGgAZQByAGUAaQBuACAAYgB5ACAAcgBlAGYAZQByAGUA
bgBjAGUALjAfBgNVHSMEGDAWgBQVABIrE5iymQftHt+ivlcNK2cCzTAdBgNVHQ4E
FgQU7B0sNPsiT4qILfxlfkwVc4mOq6cwewYIKwYBBQUHAQEEbzBtMCQGCCsGAQUF
BzABhhhodHRwOi8vb2NzcC5kaWdpY2VydC5jb20wRQYIKwYBBQUHMAKGOWh0dHA6
Ly93d3cuZGlnaWNlcnQuY29tL0NBQ2VydHMvRGlnaUNlcnRBc3N1cmVkSURDQS0x
LmNydDB9BgNVHR8EdjB0MDigNqA0hjJodHRwOi8vY3JsMy5kaWdpY2VydC5jb20v
RGlnaUNlcnRBc3N1cmVkSURDQS0xLmNybDA4oDagNIYyaHR0cDovL2NybDQuZGln
aWNlcnQuY29tL0RpZ2lDZXJ0QXNzdXJlZElEQ0EtMS5jcmwwDQYJKoZIhvcNAQEF
BQADggEBAMhBy0QW3nxihaJMAzG9tTGMCh7KEgqNExTghkynqcomjhHtCCASpPTz
VlxtRGmbByBAwM+UMSLkd1Y4GFOJ+iAtTOqQliqXSKsZAHSpnIeJAADEHtk+FvD/
CszaAX/uFyPN3ePu3lXeJeq2XMU8rC3Hrx0mR81rXv1qDEOCIcHn0ztaDShKjYlw
TR2VMPk/hwb4PljMz1qzRRydpCTu6Wx6nZwHfahj8m+exxZ+z+B0aTd676XGRfzX
Dr+qRtBfagmjHxdAIN3/YAahQZh60TO/gy8ZVhOresm7lDEH7Cwkic7M5K7uMExk
7GifLFPN/BwXKQBi0qJsGC47VcgM1/4=
-----END CERTIFICATE-----

Certificate:
    Data:
        Version: 3 (0x2)
        Serial Number:
            02:03:d2:f5:e7:ab:e9:3e:2f:c7:2b:d3:38:1c:32:c0
    Signature Algorithm: sha1WithRSAEncryption
        Issuer: C=US, O=DigiCert Inc, OU=www.digicert.com, CN=DigiCert High Assurance Code Signing CA-1
        Validity
            Not Before: Jul  9 00:00:00 2011 GMT
            Not After : Jul 12 12:00:00 2013 GMT
        Subject: C=US, ST=California, L=San Francisco, O=CBS Interactive, Inc., CN=CBS Interactive, Inc.
        Subject Public Key Info:
            Public Key Algorithm: rsaEncryption
                Public-Key: (2048 bit)
                Modulus:
                    00:c2:8b:32:d0:af:0b:36:a9:ce:61:1e:a8:45:8a:
                    53:ab:90:33:70:3b:a2:c2:0d:c4:8a:b2:e4:5b:54:
                    a5:7b:ea:44:a8:2d:c6:f6:b1:99:f2:3c:29:04:f4:
                    b5:5a:3a:7b:9c:67:5c:28:1b:7a:4e:85:d3:33:98:
                    5d:a9:e1:3e:93:72:48:8a:91:e6:3c:2b:46:d4:5f:
                    24:29:50:d0:ea:b2:b5:49:fc:76:2d:41:90:c4:34:
                    0c:34:39:84:bf:6d:8b:2d:c9:52:36:bb:ea:d4:22:
                    07:0e:25:1b:fd:08:b0:aa:07:f1:26:18:2a:22:9a:
                    d1:09:20:37:ea:d7:0d:85:62:55:0e:a5:31:2a:c7:
                    21:c1:3a:33:54:a3:ef:6a:9e:42:f2:16:0e:45:9a:
                    5e:2e:d2:44:f7:c2:e4:b3:d2:85:19:af:36:b0:c1:
                    29:9a:ee:ff:1e:9d:30:b8:88:26:8b:c6:78:45:a7:
                    2a:a1:5b:e5:2b:d1:29:86:ad:c1:c1:73:b7:63:8a:
                    28:4b:b3:85:cd:b7:59:5c:da:ac:08:ab:c7:70:45:
                    c5:a3:2a:d8:64:76:ac:f2:88:60:5c:83:6e:dc:2c:
                    90:fb:2a:ad:21:90:5e:b0:33:21:b5:d1:39:a1:7c:
                    d7:02:bb:69:8d:37:ad:c5:35:cc:5a:e7:b8:11:2b:
                    f6:4b
                Exponent: 65537 (0x10001)
        X509v3 extensions:
            X509v3 Authority Key Identifier: 
                keyid:97:48:03:EB:15:08:6B:B9:B2:58:23:CC:94:2E:F1:C6:65:D2:64:8E

            X509v3 Subject Key Identifier: 
                49:FD:3B:E8:47:7E:21:4E:6E:AF:79:12:B1:6C:F3:04:A4:3A:5B:C3
            X509v3 Certificate Policies: 
                Policy: 2.16.840.1.114412.3.1
                  CPS: http://www.digicert.com/ssl-cps-repository.htm
                  User Notice:
                    Explicit Text: 

            Authority Information Access: 
                OCSP - URI:http://ocsp.digicert.com
                CA Issuers - URI:http://cacerts.digicert.com/DigiCertHighAssuranceCodeSigningCA-1.crt

            X509v3 Basic Constraints: critical
                CA:FALSE
            X509v3 CRL Distribution Points: 

                Full Name:
                  URI:http://crl3.digicert.com/ha-cs-2011a.crl

                Full Name:
                  URI:http://crl4.digicert.com/ha-cs-2011a.crl

            X509v3 Extended Key Usage: 
                Code Signing
            X509v3 Key Usage: critical
                Digital Signature
    Signature Algorithm: sha1WithRSAEncryption
         62:0f:4f:89:69:4e:c2:8b:ae:89:a3:f0:ce:76:6b:8d:8f:e6:
         94:f1:04:02:3f:fe:ba:f4:59:5a:2f:00:5f:c5:4e:76:07:82:
         09:66:61:2d:fe:ff:c7:11:16:ff:e9:fb:b6:6a:be:ae:db:a8:
         2f:fb:59:c1:52:8e:34:1d:a2:ff:07:3e:4f:9f:c4:bb:59:e3:
         6a:5b:f1:12:e2:2c:63:f8:e5:6f:0e:0b:b8:5f:8e:f2:18:fd:
         11:3a:38:07:6b:13:ea:23:81:7b:15:7d:38:34:cd:80:a4:49:
         41:8d:6c:3e:f1:63:70:67:9f:b2:70:20:03:45:6c:e6:ba:e6:
         0c:ca:3a:5c:4b:0f:f2:6a:c4:99:27:ab:4d:39:37:17:b7:7a:
         29:76:7b:3d:e5:53:4b:2e:a7:cf:4c:90:ca:77:26:31:14:ed:
         1a:4c:d9:8f:13:27:25:e5:a4:11:33:e1:9b:ea:23:4f:aa:43:
         99:3d:16:c0:4a:87:e5:ce:69:87:25:7a:85:73:48:b8:12:8c:
         01:b2:d7:8b:80:a8:a0:ad:fa:c2:c3:66:a1:d0:63:8e:dd:6b:
         f5:05:a9:c1:c4:13:ac:bc:20:11:f9:dd:be:95:f8:e2:43:dc:
         18:37:aa:60:39:90:d1:49:58:e9:33:97:cf:0b:97:02:32:59:
         9b:5b:41:ca
-----BEGIN CERTIFICATE-----
MIIGrDCCBZSgAwIBAgIQAgPS9eer6T4vxyvTOBwywDANBgkqhkiG9w0BAQUFADBz
MQswCQYDVQQGEwJVUzEVMBMGA1UEChMMRGlnaUNlcnQgSW5jMRkwFwYDVQQLExB3
d3cuZGlnaWNlcnQuY29tMTIwMAYDVQQDEylEaWdpQ2VydCBIaWdoIEFzc3VyYW5j
ZSBDb2RlIFNpZ25pbmcgQ0EtMTAeFw0xMTA3MDkwMDAwMDBaFw0xMzA3MTIxMjAw
MDBaMHoxCzAJBgNVBAYTAlVTMRMwEQYDVQQIEwpDYWxpZm9ybmlhMRYwFAYDVQQH
Ew1TYW4gRnJhbmNpc2NvMR4wHAYDVQQKExVDQlMgSW50ZXJhY3RpdmUsIEluYy4x
HjAcBgNVBAMTFUNCUyBJbnRlcmFjdGl2ZSwgSW5jLjCCASIwDQYJKoZIhvcNAQEB
BQADggEPADCCAQoCggEBAMKLMtCvCzapzmEeqEWKU6uQM3A7osINxIqy5FtUpXvq
RKgtxvaxmfI8KQT0tVo6e5xnXCgbek6F0zOYXanhPpNySIqR5jwrRtRfJClQ0Oqy
tUn8di1BkMQ0DDQ5hL9tiy3JUja76tQiBw4lG/0IsKoH8SYYKiKa0QkgN+rXDYVi
VQ6lMSrHIcE6M1Sj72qeQvIWDkWaXi7SRPfC5LPShRmvNrDBKZru/x6dMLiIJovG
eEWnKqFb5SvRKYatwcFzt2OKKEuzhc23WVzarAirx3BFxaMq2GR2rPKIYFyDbtws
kPsqrSGQXrAzIbXROaF81wK7aY03rcU1zFrnuBEr9ksCAwEAAaOCAzMwggMvMB8G
A1UdIwQYMBaAFJdIA+sVCGu5slgjzJQu8cZl0mSOMB0GA1UdDgQWBBRJ/TvoR34h
Tm6veRKxbPMEpDpbwzCCAcQGA1UdIASCAbswggG3MIIBswYJYIZIAYb9bAMBMIIB
pDA6BggrBgEFBQcCARYuaHR0cDovL3d3dy5kaWdpY2VydC5jb20vc3NsLWNwcy1y
ZXBvc2l0b3J5Lmh0bTCCAWQGCCsGAQUFBwICMIIBVh6CAVIAQQBuAHkAIAB1AHMA
ZQAgAG8AZgAgAHQAaABpAHMAIABDAGUAcgB0AGkAZgBpAGMAYQB0AGUAIABjAG8A
bgBzAHQAaQB0AHUAdABlAHMAIABhAGMAYwBlAHAAdABhAG4AYwBlACAAbwBmACAA
dABoAGUAIABEAGkAZwBpAEMAZQByAHQAIABDAFAALwBDAFAAUwAgAGEAbgBkACAA
dABoAGUAIABSAGUAbAB5AGkAbgBnACAAUABhAHIAdAB5ACAAQQBnAHIAZQBlAG0A
ZQBuAHQAIAB3AGgAaQBjAGgAIABsAGkAbQBpAHQAIABsAGkAYQBiAGkAbABpAHQA
eQAgAGEAbgBkACAAYQByAGUAIABpAG4AYwBvAHIAcABvAHIAYQB0AGUAZAAgAGgA
ZQByAGUAaQBuACAAYgB5ACAAcgBlAGYAZQByAGUAbgBjAGUALjCBhgYIKwYBBQUH
AQEEejB4MCQGCCsGAQUFBzABhhhodHRwOi8vb2NzcC5kaWdpY2VydC5jb20wUAYI
KwYBBQUHMAKGRGh0dHA6Ly9jYWNlcnRzLmRpZ2ljZXJ0LmNvbS9EaWdpQ2VydEhp
Z2hBc3N1cmFuY2VDb2RlU2lnbmluZ0NBLTEuY3J0MAwGA1UdEwEB/wQCMAAwaQYD
VR0fBGIwYDAuoCygKoYoaHR0cDovL2NybDMuZGlnaWNlcnQuY29tL2hhLWNzLTIw
MTFhLmNybDAuoCygKoYoaHR0cDovL2NybDQuZGlnaWNlcnQuY29tL2hhLWNzLTIw
MTFhLmNybDATBgNVHSUEDDAKBggrBgEFBQcDAzAOBgNVHQ8BAf8EBAMCB4AwDQYJ
KoZIhvcNAQEFBQADggEBAGIPT4lpTsKLromj8M52a42P5pTxBAI//rr0WVovAF/F
TnYHgglmYS3+/8cRFv/p+7Zqvq7bqC/7WcFSjjQdov8HPk+fxLtZ42pb8RLiLGP4
5W8OC7hfjvIY/RE6OAdrE+ojgXsVfTg0zYCkSUGNbD7xY3Bnn7JwIANFbOa65gzK
OlxLD/JqxJknq005Nxe3eil2ez3lU0sup89MkMp3JjEU7RpM2Y8TJyXlpBEz4Zvq
I0+qQ5k9FsBKh+XOaYcleoVzSLgSjAGy14uAqKCt+sLDZqHQY47da/UFqcHEE6y8
IBH53b6V+OJD3Bg3qmA5kNFJWOkzl88LlwIyWZtbQco=
-----END CERTIFICATE-----

Certificate:
    Data:
        Version: 3 (0x2)
        Serial Number:
            08:1c:57:ee:5d:70:eb:9b:a0:b1:52:0c:72:9c:1b:09
    Signature Algorithm: sha1WithRSAEncryption
        Issuer: C=US, O=DigiCert Inc, OU=www.digicert.com, CN=DigiCert High Assurance EV Root CA
        Validity
            Not Before: Feb 10 12:00:00 2011 GMT
            Not After : Feb 10 12:00:00 2026 GMT
        Subject: C=US, O=DigiCert Inc, OU=www.digicert.com, CN=DigiCert High Assurance Code Signing CA-1
        Subject Public Key Info:
            Public Key Algorithm: rsaEncryption
                Public-Key: (2048 bit)
                Modulus:
                    00:c5:f9:23:e6:94:27:c4:80:14:a4:80:32:5f:40:
                    a3:8d:6f:70:c0:e5:36:71:71:3a:75:a4:aa:1a:92:
                    94:89:5e:ac:23:71:cb:4e:67:7d:41:3f:aa:e3:4b:
                    b7:7b:be:9d:c1:a8:38:8f:69:2f:3a:24:e9:77:59:
                    12:c7:66:04:43:c2:0d:26:82:89:40:19:f2:2c:ea:
                    e7:4c:e7:7c:05:1a:b8:ff:88:09:4f:26:37:ef:3a:
                    a4:fa:22:6c:88:c9:4a:1b:61:f2:ae:10:5e:6f:bc:
                    d1:79:9b:59:18:60:e5:ee:29:b5:03:2a:a4:ce:f1:
                    83:19:4f:69:05:73:28:09:fb:22:10:93:22:a0:90:
                    19:1a:4c:31:f2:d3:2b:d8:84:43:af:3c:63:ff:98:
                    db:20:d2:09:2b:54:c1:ea:fd:6a:83:e7:10:a3:12:
                    71:f5:d6:d7:e1:12:7a:d5:e0:56:5a:ce:ea:01:5b:
                    68:65:5b:c1:3f:58:52:33:a9:35:61:4e:22:cb:81:
                    ca:36:a3:12:cb:06:d6:cf:1b:4d:18:7e:b9:92:b9:
                    12:cf:40:26:d8:9a:36:85:b3:15:aa:47:93:84:6b:
                    07:bb:bc:d5:b3:de:25:00:11:89:00:68:c1:29:3c:
                    ea:3e:2d:ee:50:ab:d7:1c:30:06:78:3c:a5:10:23:
                    67:91
                Exponent: 65537 (0x10001)
        X509v3 extensions:
            X509v3 Key Usage: critical
                Certificate Sign, CRL Sign
            X509v3 Extended Key Usage: 
                Code Signing
            X509v3 Certificate Policies: 
                Policy: 2.16.840.1.114412.3
                  CPS: http://www.digicert.com/ssl-cps-repository.htm
                  User Notice:
                    Explicit Text: 

            X509v3 Basic Constraints: critical
                CA:TRUE
            Authority Information Access: 
                OCSP - URI:http://ocsp.digicert.com
                CA Issuers - URI:http://cacerts.digicert.com/DigiCertHighAssuranceEVRootCA.crt

            X509v3 CRL Distribution Points: 

                Full Name:
                  URI:http://crl3.digicert.com/DigiCertHighAssuranceEVRootCA.crl

                Full Name:
                  URI:http://crl4.digicert.com/DigiCertHighAssuranceEVRootCA.crl

            X509v3 Subject Key Identifier: 
                97:48:03:EB:15:08:6B:B9:B2:58:23:CC:94:2E:F1:C6:65:D2:64:8E
            X509v3 Authority Key Identifier: 
                keyid:B1:3E:C3:69:03:F8:BF:47:01:D4:98:26:1A:08:02:EF:63:64:2B:C3

    Signature Algorithm: sha1WithRSAEncryption
         82:05:e9:85:af:a7:4c:bf:af:ce:3d:b2:ea:60:b1:68:de:67:
         c2:d2:cb:26:e0:c3:2f:9b:b5:6b:0e:53:90:85:f6:9b:e0:35:
         02:ff:fa:69:83:aa:b4:74:32:14:3c:2e:10:4c:28:9b:0a:ad:
         08:09:f9:f3:84:11:93:8f:cb:60:40:56:e9:77:2f:69:b2:83:
         99:55:ab:47:24:96:cb:7f:4b:b0:10:b4:97:bf:c4:a5:99:06:
         fe:8e:ec:14:50:1e:5e:57:97:cb:47:b9:34:d9:fc:3a:a2:ff:
         50:29:c2:0a:62:04:ee:de:96:3a:6f:a0:c2:85:0f:6f:fc:08:
         e4:32:7b:d3:84:ae:69:60:09:46:26:9c:e8:f0:ff:ff:86:d9:
         c8:09:3a:66:c3:a7:36:8f:18:4f:e8:b1:96:92:2e:4e:be:0b:
         a7:33:90:ae:bc:6e:4f:f1:7e:8d:b4:46:0e:64:f9:59:06:22:
         21:64:00:4b:e2:7a:08:03:e7:bc:89:90:9e:42:4f:01:c0:b6:
         16:7f:75:ea:46:b2:a5:54:2f:8c:93:cd:11:36:34:6a:28:57:
         cc:94:3f:e9:7c:c8:18:03:03:04:7e:43:da:f9:97:a1:59:47:
         da:12:aa:e0:6d:38:00:5d:35:2b:c5:22:86:cb:06:ca:bc:7a:
         4d:3d:26:46
-----BEGIN CERTIFICATE-----
MIIGvzCCBaegAwIBAgIQCBxX7l1w65ugsVIMcpwbCTANBgkqhkiG9w0BAQUFADBs
MQswCQYDVQQGEwJVUzEVMBMGA1UEChMMRGlnaUNlcnQgSW5jMRkwFwYDVQQLExB3
d3cuZGlnaWNlcnQuY29tMSswKQYDVQQDEyJEaWdpQ2VydCBIaWdoIEFzc3VyYW5j
ZSBFViBSb290IENBMB4XDTExMDIxMDEyMDAwMFoXDTI2MDIxMDEyMDAwMFowczEL
MAkGA1UEBhMCVVMxFTATBgNVBAoTDERpZ2lDZXJ0IEluYzEZMBcGA1UECxMQd3d3
LmRpZ2ljZXJ0LmNvbTEyMDAGA1UEAxMpRGlnaUNlcnQgSGlnaCBBc3N1cmFuY2Ug
Q29kZSBTaWduaW5nIENBLTEwggEiMA0GCSqGSIb3DQEBAQUAA4IBDwAwggEKAoIB
AQDF+SPmlCfEgBSkgDJfQKONb3DA5TZxcTp1pKoakpSJXqwjcctOZ31BP6rjS7d7
vp3BqDiPaS86JOl3WRLHZgRDwg0mgolAGfIs6udM53wFGrj/iAlPJjfvOqT6ImyI
yUobYfKuEF5vvNF5m1kYYOXuKbUDKqTO8YMZT2kFcygJ+yIQkyKgkBkaTDHy0yvY
hEOvPGP/mNsg0gkrVMHq/WqD5xCjEnH11tfhEnrV4FZazuoBW2hlW8E/WFIzqTVh
TiLLgco2oxLLBtbPG00YfrmSuRLPQCbYmjaFsxWqR5OEawe7vNWz3iUAEYkAaMEp
POo+Le5Qq9ccMAZ4PKUQI2eRAgMBAAGjggNUMIIDUDAOBgNVHQ8BAf8EBAMCAQYw
EwYDVR0lBAwwCgYIKwYBBQUHAwMwggHDBgNVHSAEggG6MIIBtjCCAbIGCGCGSAGG
/WwDMIIBpDA6BggrBgEFBQcCARYuaHR0cDovL3d3dy5kaWdpY2VydC5jb20vc3Ns
LWNwcy1yZXBvc2l0b3J5Lmh0bTCCAWQGCCsGAQUFBwICMIIBVh6CAVIAQQBuAHkA
IAB1AHMAZQAgAG8AZgAgAHQAaABpAHMAIABDAGUAcgB0AGkAZgBpAGMAYQB0AGUA
IABjAG8AbgBzAHQAaQB0AHUAdABlAHMAIABhAGMAYwBlAHAAdABhAG4AYwBlACAA
bwBmACAAdABoAGUAIABEAGkAZwBpAEMAZQByAHQAIABFAFYAIABDAFAAUwAgAGEA
bgBkACAAdABoAGUAIABSAGUAbAB5AGkAbgBnACAAUABhAHIAdAB5ACAAQQBnAHIA
ZQBlAG0AZQBuAHQAIAB3AGgAaQBjAGgAIABsAGkAbQBpAHQAIABsAGkAYQBiAGkA
bABpAHQAeQAgAGEAbgBkACAAYQByAGUAIABpAG4AYwBvAHIAcABvAHIAYQB0AGUA
ZAAgAGgAZQByAGUAaQBuACAAYgB5ACAAcgBlAGYAZQByAGUAbgBjAGUALjAPBgNV
HRMBAf8EBTADAQH/MH8GCCsGAQUFBwEBBHMwcTAkBggrBgEFBQcwAYYYaHR0cDov
L29jc3AuZGlnaWNlcnQuY29tMEkGCCsGAQUFBzAChj1odHRwOi8vY2FjZXJ0cy5k
aWdpY2VydC5jb20vRGlnaUNlcnRIaWdoQXNzdXJhbmNlRVZSb290Q0EuY3J0MIGP
BgNVHR8EgYcwgYQwQKA+oDyGOmh0dHA6Ly9jcmwzLmRpZ2ljZXJ0LmNvbS9EaWdp
Q2VydEhpZ2hBc3N1cmFuY2VFVlJvb3RDQS5jcmwwQKA+oDyGOmh0dHA6Ly9jcmw0
LmRpZ2ljZXJ0LmNvbS9EaWdpQ2VydEhpZ2hBc3N1cmFuY2VFVlJvb3RDQS5jcmww
HQYDVR0OBBYEFJdIA+sVCGu5slgjzJQu8cZl0mSOMB8GA1UdIwQYMBaAFLE+w2kD
+L9HAdSYJhoIAu9jZCvDMA0GCSqGSIb3DQEBBQUAA4IBAQCCBemFr6dMv6/OPbLq
YLFo3mfC0ssm4MMvm7VrDlOQhfab4DUC//ppg6q0dDIUPC4QTCibCq0ICfnzhBGT
j8tgQFbpdy9psoOZVatHJJbLf0uwELSXv8SlmQb+juwUUB5eV5fLR7k02fw6ov9Q
KcIKYgTu3pY6b6DChQ9v/AjkMnvThK5pYAlGJpzo8P//htnICTpmw6c2jxhP6LGW
ki5OvgunM5CuvG5P8X6NtEYOZPlZBiIhZABL4noIA+e8iZCeQk8BwLYWf3XqRrKl
VC+Mk80RNjRqKFfMlD/pfMgYAwMEfkPa+ZehWUfaEqrgbTgAXTUrxSKGywbKvHpN
PSZG
-----END CERTIFICATE-----

Certificate:
    Data:
        Version: 3 (0x2)
        Serial Number:
            0a:04:df:21:74:5d:4d:2b:8c:ea:33:72:05:00:50:e9
    Signature Algorithm: sha1WithRSAEncryption
        Issuer: C=US, O=DigiCert Inc, OU=www.digicert.com, CN=DigiCert Assured ID Root CA
        Validity
            Not Before: Nov 10 00:00:00 2006 GMT
            Not After : Nov 10 00:00:00 2021 GMT
        Subject: C=US, O=DigiCert Inc, OU=www.digicert.com, CN=DigiCert Assured ID CA-1
        Subject Public Key Info:
            Public Key Algorithm: rsaEncryption
                Public-Key: (2048 bit)
                Modulus:
                    00:e8:82:2d:99:f9:ca:c2:42:95:a5:80:73:40:70:
                    d2:9e:56:54:5c:a9:c4:d2:41:06:8f:c9:33:fc:4d:
                    45:91:5c:81:9f:ed:2c:9c:f8:16:59:df:9e:b5:24:
                    15:c2:98:b9:b4:77:49:dc:89:c4:0a:da:af:cb:5e:
                    6b:ed:ad:b0:71:31:eb:cf:3a:40:0c:46:4d:93:ec:
                    8b:7a:36:08:03:ab:0c:34:fe:18:49:82:fe:c7:c7:
                    31:48:80:7c:1e:a2:0f:92:0e:50:c9:c6:87:eb:36:
                    3f:d8:30:c3:ff:a6:f7:fb:a2:cd:6f:73:23:fe:ac:
                    56:05:90:f0:32:21:16:89:c6:70:88:f9:05:97:7d:
                    a3:c7:43:dd:02:e8:3b:3d:ed:b1:41:a3:ed:3f:be:
                    db:95:48:c4:ee:1e:b3:f2:bc:0c:2b:99:d0:c6:5d:
                    12:42:81:e1:83:6e:82:73:3f:26:4b:14:90:ae:59:
                    66:0a:c4:8d:be:d2:ce:06:ae:ad:84:6f:48:84:9b:
                    4f:40:b9:f1:4c:f2:af:98:fb:f6:ce:40:5d:5c:f6:
                    a8:f1:2f:af:ec:89:22:f2:6b:18:65:b1:c1:73:ad:
                    d7:f1:d8:cf:1e:0a:74:5c:42:b8:68:7e:b7:d5:77:
                    0a:27:56:7c:0f:62:a4:3f:32:14:60:95:fd:07:04:
                    a2:09
                Exponent: 65537 (0x10001)
        X509v3 extensions:
            X509v3 Key Usage: critical
                Digital Signature, Certificate Sign, CRL Sign
            X509v3 Extended Key Usage: 
                TLS Web Server Authentication, TLS Web Client Authentication, Code Signing, E-mail Protection, Time Stamping
            X509v3 Certificate Policies: 
                Policy: 2.16.840.1.114412.1.3.0.4
                  CPS: http://www.digicert.com/ssl-cps-repository.htm
                  User Notice:
                    Explicit Text: 

            X509v3 Basic Constraints: critical
                CA:TRUE
            Authority Information Access: 
                OCSP - URI:http://ocsp.digicert.com
                CA Issuers - URI:http://www.digicert.com/CACerts/DigiCertAssuredIDRootCA.crt

            X509v3 CRL Distribution Points: 

                Full Name:
                  URI:http://crl3.digicert.com/DigiCertAssuredIDRootCA.crl

                Full Name:
                  URI:http://crl4.digicert.com/DigiCertAssuredIDRootCA.crl

            X509v3 Subject Key Identifier: 
                15:00:12:2B:13:98:B2:99:07:ED:1E:DF:A2:BE:57:0D:2B:67:02:CD
            X509v3 Authority Key Identifier: 
                keyid:45:EB:A2:AF:F4:92:CB:82:31:2D:51:8B:A7:A7:21:9D:F3:6D:C8:0F

    Signature Algorithm: sha1WithRSAEncryption
         84:61:4e:41:1e:b8:76:04:2a:b5:b6:ef:8f:f2:55:85:b9:5d:
         56:fe:0a:98:e6:e4:bd:65:8a:7d:40:29:d3:fc:b1:5d:45:fd:
         3a:b8:2a:5b:33:4b:24:5c:cd:b9:b4:e4:73:ad:61:5d:76:ad:
         74:33:8a:66:d5:23:af:4c:1f:72:6e:45:d9:75:40:bb:a2:3b:
         cf:8d:49:2f:c0:41:b0:e2:29:a3:51:38:43:50:99:14:ac:33:
         06:35:62:89:7d:77:a9:52:07:e5:6c:20:57:b6:81:ba:6f:bc:
         b3:c2:94:ed:76:02:80:d9:7c:ce:85:a8:1c:ec:c7:43:4a:4b:
         b1:57:cf:72:ce:df:f5:25:3c:cb:22:4f:fd:9f:52:d1:37:cb:
         08:bb:38:3e:e0:d5:3e:6f:79:09:ad:5b:7c:31:b3:77:35:c3:
         e4:63:f9:68:0a:98:07:e7:46:38:77:84:d2:3e:97:bc:0a:a0:
         a8:ac:25:4f:44:6e:91:e1:d2:5a:af:6b:ef:30:1c:8d:a3:44:
         42:b3:10:8b:23:fa:d7:e6:35:74:37:ac:cf:eb:ab:58:1f:c9:
         88:23:ff:36:d4:07:ea:34:6a:47:ea:9d:95:6c:9e:29:4f:53:
         ed:e3:2b:95:20:4e:2a:cf:96:60:7a:f8:2c:80:f0:95:52:ce:
         29:96:81:62
-----BEGIN CERTIFICATE-----
MIIGwjCCBaqgAwIBAgIQCgTfIXRdTSuM6jNyBQBQ6TANBgkqhkiG9w0BAQUFADBl
MQswCQYDVQQGEwJVUzEVMBMGA1UEChMMRGlnaUNlcnQgSW5jMRkwFwYDVQQLExB3
d3cuZGlnaWNlcnQuY29tMSQwIgYDVQQDExtEaWdpQ2VydCBBc3N1cmVkIElEIFJv
b3QgQ0EwHhcNMDYxMTEwMDAwMDAwWhcNMjExMTEwMDAwMDAwWjBiMQswCQYDVQQG
EwJVUzEVMBMGA1UEChMMRGlnaUNlcnQgSW5jMRkwFwYDVQQLExB3d3cuZGlnaWNl
cnQuY29tMSEwHwYDVQQDExhEaWdpQ2VydCBBc3N1cmVkIElEIENBLTEwggEiMA0G
CSqGSIb3DQEBAQUAA4IBDwAwggEKAoIBAQDogi2Z+crCQpWlgHNAcNKeVlRcqcTS
QQaPyTP8TUWRXIGf7Syc+BZZ3561JBXCmLm0d0ncicQK2q/LXmvtrbBxMevPOkAM
Rk2T7It6NggDqww0/hhJgv7HxzFIgHweog+SDlDJxofrNj/YMMP/pvf7os1vcyP+
rFYFkPAyIRaJxnCI+QWXfaPHQ90C6Ds97bFBo+0/vtuVSMTuHrPyvAwrmdDGXRJC
geGDboJzPyZLFJCuWWYKxI2+0s4Grq2Eb0iEm09AufFM8q+Y+/bOQF1c9qjxL6/s
iSLyaxhlscFzrdfx2M8eCnRcQrhofrfVdwonVnwPYqQ/MhRglf0HBKIJAgMBAAGj
ggNvMIIDazAOBgNVHQ8BAf8EBAMCAYYwOwYDVR0lBDQwMgYIKwYBBQUHAwEGCCsG
AQUFBwMCBggrBgEFBQcDAwYIKwYBBQUHAwQGCCsGAQUFBwMIMIIBxgYDVR0gBIIB
vTCCAbkwggG1BgtghkgBhv1sAQMABDCCAaQwOgYIKwYBBQUHAgEWLmh0dHA6Ly93
d3cuZGlnaWNlcnQuY29tL3NzbC1jcHMtcmVwb3NpdG9yeS5odG0wggFkBggrBgEF
BQcCAjCCAVYeggFSAEEAbgB5ACAAdQBzAGUAIABvAGYAIAB0AGgAaQBzACAAQwBl
AHIAdABpAGYAaQBjAGEAdABlACAAYwBvAG4AcwB0AGkAdAB1AHQAZQBzACAAYQBj
AGMAZQBwAHQAYQBuAGMAZQAgAG8AZgAgAHQAaABlACAARABpAGcAaQBDAGUAcgB0
ACAAQwBQAC8AQwBQAFMAIABhAG4AZAAgAHQAaABlACAAUgBlAGwAeQBpAG4AZwAg
AFAAYQByAHQAeQAgAEEAZwByAGUAZQBtAGUAbgB0ACAAdwBoAGkAYwBoACAAbABp
AG0AaQB0ACAAbABpAGEAYgBpAGwAaQB0AHkAIABhAG4AZAAgAGEAcgBlACAAaQBu
AGMAbwByAHAAbwByAGEAdABlAGQAIABoAGUAcgBlAGkAbgAgAGIAeQAgAHIAZQBm
AGUAcgBlAG4AYwBlAC4wDwYDVR0TAQH/BAUwAwEB/zB9BggrBgEFBQcBAQRxMG8w
JAYIKwYBBQUHMAGGGGh0dHA6Ly9vY3NwLmRpZ2ljZXJ0LmNvbTBHBggrBgEFBQcw
AoY7aHR0cDovL3d3dy5kaWdpY2VydC5jb20vQ0FDZXJ0cy9EaWdpQ2VydEFzc3Vy
ZWRJRFJvb3RDQS5jcnQwgYEGA1UdHwR6MHgwOqA4oDaGNGh0dHA6Ly9jcmwzLmRp
Z2ljZXJ0LmNvbS9EaWdpQ2VydEFzc3VyZWRJRFJvb3RDQS5jcmwwOqA4oDaGNGh0
dHA6Ly9jcmw0LmRpZ2ljZXJ0LmNvbS9EaWdpQ2VydEFzc3VyZWRJRFJvb3RDQS5j
cmwwHQYDVR0OBBYEFBUAEisTmLKZB+0e36K+Vw0rZwLNMB8GA1UdIwQYMBaAFEXr
oq/0ksuCMS1Ri6enIZ3zbcgPMA0GCSqGSIb3DQEBBQUAA4IBAQCEYU5BHrh2BCq1
tu+P8lWFuV1W/gqY5uS9ZYp9QCnT/LFdRf06uCpbM0skXM25tORzrWFddq10M4pm
1SOvTB9ybkXZdUC7ojvPjUkvwEGw4imjUThDUJkUrDMGNWKJfXepUgflbCBXtoG6
b7yzwpTtdgKA2XzOhagc7MdDSkuxV89yzt/1JTzLIk/9n1LRN8sIuzg+4NU+b3kJ
rVt8MbN3NcPkY/loCpgH50Y4d4TSPpe8CqCorCVPRG6R4dJar2vvMByNo0RCsxCL
I/rX5jV0N6zP66tYH8mII/821AfqNGpH6p2VbJ4pT1Pt4yuVIE4qz5ZgevgsgPCV
Us4ploFi
-----END CERTIFICATE-----

