Certificate:
    Data:
        Version: 3 (0x2)
        Serial Number:
            04:00:00:00:00:01:25:07:1d:f9:af
    Signature Algorithm: sha256WithRSAEncryption
        Issuer: C=BE, O=GlobalSign nv-sa, OU=Root CA, CN=GlobalSign Root CA
        Validity
            Not Before: Nov 18 10:00:00 2009 GMT
            Not After : Mar 18 10:00:00 2019 GMT
        Subject: OU=GlobalSign Root CA - R3, O=GlobalSign, CN=GlobalSign
        Subject Public Key Info:
            Public Key Algorithm: rsaEncryption
                Public-Key: (2048 bit)
                Modulus:
                    00:cc:25:76:90:79:06:78:22:16:f5:c0:83:b6:84:
                    ca:28:9e:fd:05:76:11:c5:ad:88:72:fc:46:02:43:
                    c7:b2:8a:9d:04:5f:24:cb:2e:4b:e1:60:82:46:e1:
                    52:ab:0c:81:47:70:6c:dd:64:d1:eb:f5:2c:a3:0f:
                    82:3d:0c:2b:ae:97:d7:b6:14:86:10:79:bb:3b:13:
                    80:77:8c:08:e1:49:d2:6a:62:2f:1f:5e:fa:96:68:
                    df:89:27:95:38:9f:06:d7:3e:c9:cb:26:59:0d:73:
                    de:b0:c8:e9:26:0e:83:15:c6:ef:5b:8b:d2:04:60:
                    ca:49:a6:28:f6:69:3b:f6:cb:c8:28:91:e5:9d:8a:
                    61:57:37:ac:74:14:dc:74:e0:3a:ee:72:2f:2e:9c:
                    fb:d0:bb:bf:f5:3d:00:e1:06:33:e8:82:2b:ae:53:
                    a6:3a:16:73:8c:dd:41:0e:20:3a:c0:b4:a7:a1:e9:
                    b2:4f:90:2e:32:60:e9:57:cb:b9:04:92:68:68:e5:
                    38:26:60:75:b2:9f:77:ff:91:14:ef:ae:20:49:fc:
                    ad:40:15:48:d1:02:31:61:19:5e:b8:97:ef:ad:77:
                    b7:64:9a:7a:bf:5f:c1:13:ef:9b:62:fb:0d:6c:e0:
                    54:69:16:a9:03:da:6e:e9:83:93:71:76:c6:69:85:
                    82:17
                Exponent: 65537 (0x10001)
        X509v3 extensions:
            X509v3 Key Usage: critical
                Certificate Sign, CRL Sign
            X509v3 Basic Constraints: critical
                CA:TRUE
            X509v3 Subject Key Identifier: 
                8F:F0:4B:7F:A8:2E:45:24:AE:4D:50:FA:63:9A:8B:DE:E2:DD:1B:BC
            X509v3 Certificate Policies: 
                Policy: X509v3 Any Policy
                  CPS: http://www.globalsign.net/repository/

            X509v3 CRL Distribution Points: 

                Full Name:
                  URI:http://crl.globalsign.net/root.crl

            Authority Information Access: 
                OCSP - URI:http://ocsp.globalsign.com/ExtendedSSLSHA256CACross

            X509v3 Authority Key Identifier: 
                keyid:60:7B:66:1A:45:0D:97:CA:89:50:2F:7D:04:CD:34:A8:FF:FC:FD:4B

    Signature Algorithm: sha256WithRSAEncryption
         42:52:a9:7e:a2:cf:5b:3b:cb:4b:dd:ba:f8:57:59:d3:24:a4:
         77:72:ef:62:44:37:82:ed:06:ee:04:d5:16:5f:24:a3:14:dc:
         6c:54:05:6a:b0:9b:3d:da:81:39:da:ad:28:db:95:6f:81:83:
         f5:cd:62:b1:45:24:b1:dd:29:e5:08:54:95:95:8c:f0:1d:06:
         5f:1a:d6:46:3f:13:40:17:48:11:16:9b:47:4d:d1:3a:b5:0f:
         57:1c:92:30:d0:f8:b2:25:3b:0a:cd:f6:87:f9:c7:b2:57:d3:
         3f:7d:a5:8c:14:ce:9c:a8:c7:9f:46:93:da:59:fa:79:5d:65:
         20:35:44:5a:4f:c1:90:9d:c1:54:92:56:dc:34:c8:f5:c1:03:
         d0:5d:c0:59:48:9c:00:fc:95:a0:f1:d1:76:f7:16:36:c8:13:
         92:7f:2d:2b:c0:b8:80:f1:26:26:1f:41:4d:52:bf:1e:97:bb:
         01:82:08:e7:15:f6:c1:d5:34:2a:cc:f5:e4:c3:87:7a:57:81:
         e1:d6:d7:42:86:62:01:77:e2:a9:c4:7a:86:f4:04:38:7a:07:
         6a:7d:00:ec:73:f7:a8:0b:34:78:c5:9e:b3:ef:b8:38:40:0e:
         8c:33:53:c8:75:ec:5f:3e:ea:75:5e:ff:82:0e:74:15:dc:19:
         05:f3:ba:31
-----BEGIN CERTIFICATE-----
MIIEXTCCA0WgAwIBAgILBAAAAAABJQcd+a8wDQYJKoZIhvcNAQELBQAwVzELMAkG
A1UEBhMCQkUxGTAXBgNVBAoTEEdsb2JhbFNpZ24gbnYtc2ExEDAOBgNVBAsTB1Jv
b3QgQ0ExGzAZBgNVBAMTEkdsb2JhbFNpZ24gUm9vdCBDQTAeFw0wOTExMTgxMDAw
MDBaFw0xOTAzMTgxMDAwMDBaMEwxIDAeBgNVBAsTF0dsb2JhbFNpZ24gUm9vdCBD
QSAtIFIzMRMwEQYDVQQKEwpHbG9iYWxTaWduMRMwEQYDVQQDEwpHbG9iYWxTaWdu
MIIBIjANBgkqhkiG9w0BAQEFAAOCAQ8AMIIBCgKCAQEAzCV2kHkGeCIW9cCDtoTK
KJ79BXYRxa2IcvxGAkPHsoqdBF8kyy5L4WCCRuFSqwyBR3Bs3WTR6/Usow+CPQwr
rpfXthSGEHm7OxOAd4wI4UnSamIvH176lmjfiSeVOJ8G1z7JyyZZDXPesMjpJg6D
FcbvW4vSBGDKSaYo9mk79svIKJHlnYphVzesdBTcdOA67nIvLpz70Lu/9T0A4QYz
6IIrrlOmOhZzjN1BDiA6wLSnoemyT5AuMmDpV8u5BJJoaOU4JmB1sp93/5EU764g
SfytQBVI0QIxYRleuJfvrXe3ZJp6v1/BE++bYvsNbOBUaRapA9pu6YOTcXbGaYWC
FwIDAQABo4IBMzCCAS8wDgYDVR0PAQH/BAQDAgEGMA8GA1UdEwEB/wQFMAMBAf8w
HQYDVR0OBBYEFI/wS3+oLkUkrk1Q+mOai97i3Ru8MEYGA1UdIAQ/MD0wOwYEVR0g
ADAzMDEGCCsGAQUFBwIBFiVodHRwOi8vd3d3Lmdsb2JhbHNpZ24ubmV0L3JlcG9z
aXRvcnkvMDMGA1UdHwQsMCowKKAmoCSGImh0dHA6Ly9jcmwuZ2xvYmFsc2lnbi5u
ZXQvcm9vdC5jcmwwTwYIKwYBBQUHAQEEQzBBMD8GCCsGAQUFBzABhjNodHRwOi8v
b2NzcC5nbG9iYWxzaWduLmNvbS9FeHRlbmRlZFNTTFNIQTI1NkNBQ3Jvc3MwHwYD
VR0jBBgwFoAUYHtmGkUNl8qJUC99BM00qP/8/UswDQYJKoZIhvcNAQELBQADggEB
AEJSqX6iz1s7y0vduvhXWdMkpHdy72JEN4LtBu4E1RZfJKMU3GxUBWqwmz3agTna
rSjblW+Bg/XNYrFFJLHdKeUIVJWVjPAdBl8a1kY/E0AXSBEWm0dN0Tq1D1cckjDQ
+LIlOwrN9of5x7JX0z99pYwUzpyox59Gk9pZ+nldZSA1RFpPwZCdwVSSVtw0yPXB
A9BdwFlInAD8laDx0Xb3FjbIE5J/LSvAuIDxJiYfQU1Svx6XuwGCCOcV9sHVNCrM
9eTDh3pXgeHW10KGYgF34qnEeob0BDh6B2p9AOxz96gLNHjFnrPvuDhADowzU8h1
7F8+6nVe/4IOdBXcGQXzujE=
-----END CERTIFICATE-----

Certificate:
    Data:
        Version: 3 (0x2)
        Serial Number:
            04:00:00:00:00:01:31:89:c6:4d:e1
    Signature Algorithm: sha256WithRSAEncryption
        Issuer: OU=GlobalSign Root CA - R3, O=GlobalSign, CN=GlobalSign
        Validity
            Not Before: Aug  2 10:00:00 2011 GMT
            Not After : Aug  2 10:00:00 2019 GMT
        Subject: C=BE, O=GlobalSign nv-sa, CN=GlobalSign Extended Validation CodeSigning CA - SHA256 - G2
        Subject Public Key Info:
            Public Key Algorithm: rsaEncryption
                Public-Key: (2048 bit)
                Modulus:
                    00:9b:b6:1f:7f:17:55:ac:35:56:aa:a4:b3:fe:8a:
                    d0:3a:94:9e:69:ed:1c:a8:b5:ff:37:a4:59:cb:d2:
                    80:e5:ff:2e:db:19:8e:64:d0:eb:aa:15:1e:65:ad:
                    86:b9:74:ec:64:ba:9e:05:fa:df:98:7e:0b:0b:b5:
                    62:6b:f5:10:9d:b3:13:a2:fa:b8:d5:cf:e1:9e:24:
                    e7:5c:01:08:e3:b4:ac:aa:32:49:80:0a:76:7b:e5:
                    d1:1e:f8:f1:e5:57:2c:ab:18:9f:6f:37:46:dd:29:
                    4d:df:da:e1:9d:41:46:42:bc:53:e2:af:46:a8:0c:
                    6f:f0:ba:51:a1:a8:ab:fb:1d:ca:f3:40:37:66:35:
                    bd:be:a0:f8:0b:49:53:f1:47:05:46:ef:05:77:97:
                    97:f5:90:ff:af:4f:30:54:1b:49:fb:db:31:a7:08:
                    89:3a:bc:8d:ca:70:3c:e6:54:64:f7:59:b4:4b:da:
                    b4:97:8d:a8:a8:0c:ce:d6:55:7a:c4:da:d4:42:00:
                    45:3f:93:0f:64:8d:3d:f8:b9:12:77:bc:08:8a:b1:
                    aa:b6:12:01:c8:48:de:e9:e4:0a:e5:26:8b:ce:09:
                    d9:e2:df:ab:2b:1c:16:3d:de:ee:31:42:4a:e8:9d:
                    08:f4:89:53:ef:c9:72:a7:fa:a3:86:13:a9:e1:d4:
                    c6:d7
                Exponent: 65537 (0x10001)
        X509v3 extensions:
            X509v3 Key Usage: critical
                Certificate Sign, CRL Sign
            X509v3 Basic Constraints: critical
                CA:TRUE, pathlen:0
            X509v3 Subject Key Identifier: 
                0A:BC:24:2C:2C:F7:9C:E5:9F:95:7C:AD:BB:D5:F0:18:51:39:85:6E
            X509v3 Certificate Policies: 
                Policy: X509v3 Any Policy
                  CPS: https://www.globalsign.com/repository/

            X509v3 CRL Distribution Points: 

                Full Name:
                  URI:http://crl.globalsign.net/root-r3.crl

            Authority Information Access: 
                OCSP - URI:http://ocsp2.globalsign.com/rootr3

            X509v3 Extended Key Usage: 
                Code Signing
            X509v3 Authority Key Identifier: 
                keyid:8F:F0:4B:7F:A8:2E:45:24:AE:4D:50:FA:63:9A:8B:DE:E2:DD:1B:BC

    Signature Algorithm: sha256WithRSAEncryption
         aa:a1:11:97:ff:b4:23:e8:f3:03:ec:d3:8e:ef:52:a1:5c:83:
         35:63:e5:ff:f1:42:b7:83:35:c6:93:f5:50:5e:9b:89:21:e8:
         58:53:18:88:34:fb:dd:49:e1:22:ea:0f:8a:b1:22:48:29:19:
         dc:2e:f9:23:68:58:81:14:55:2d:24:b9:29:68:78:53:ac:72:
         fd:cb:f1:8a:53:a0:da:c8:10:6f:89:38:23:6e:bb:99:f1:73:
         90:db:f1:bf:80:a3:ae:8d:49:15:bc:8d:88:fd:59:1d:fe:13:
         ae:54:c3:a6:97:cd:00:6b:3d:41:48:90:15:05:e4:a4:18:03:
         d4:d7:a9:e3:a9:40:b6:6c:21:ac:d3:7e:1c:e6:5d:f4:04:b1:
         8b:da:0c:d8:aa:eb:b9:36:51:7f:17:3a:8d:37:28:c7:b7:b8:
         71:90:12:c6:6c:6c:b4:84:3b:f1:a5:47:dc:c4:a3:3b:2c:5d:
         ea:08:83:c4:e3:39:10:e4:ab:21:65:0a:42:56:d8:b2:68:f6:
         93:e5:1e:e2:83:01:ab:0b:86:b2:cf:a5:4a:37:a4:b2:dc:6c:
         d7:82:31:8d:3f:90:e6:b1:2a:05:70:89:fc:20:1d:9f:2a:f7:
         cc:dd:93:b5:57:0d:eb:40:03:02:d0:04:4f:84:ed:f0:72:80:
         07:95:12:14
-----BEGIN CERTIFICATE-----
MIIEfzCCA2egAwIBAgILBAAAAAABMYnGTeEwDQYJKoZIhvcNAQELBQAwTDEgMB4G
A1UECxMXR2xvYmFsU2lnbiBSb290IENBIC0gUjMxEzARBgNVBAoTCkdsb2JhbFNp
Z24xEzARBgNVBAMTCkdsb2JhbFNpZ24wHhcNMTEwODAyMTAwMDAwWhcNMTkwODAy
MTAwMDAwWjBuMQswCQYDVQQGEwJCRTEZMBcGA1UEChMQR2xvYmFsU2lnbiBudi1z
YTFEMEIGA1UEAxM7R2xvYmFsU2lnbiBFeHRlbmRlZCBWYWxpZGF0aW9uIENvZGVT
aWduaW5nIENBIC0gU0hBMjU2IC0gRzIwggEiMA0GCSqGSIb3DQEBAQUAA4IBDwAw
ggEKAoIBAQCbth9/F1WsNVaqpLP+itA6lJ5p7Ryotf83pFnL0oDl/y7bGY5k0Ouq
FR5lrYa5dOxkup4F+t+YfgsLtWJr9RCdsxOi+rjVz+GeJOdcAQjjtKyqMkmACnZ7
5dEe+PHlVyyrGJ9vN0bdKU3f2uGdQUZCvFPir0aoDG/wulGhqKv7HcrzQDdmNb2+
oPgLSVPxRwVG7wV3l5f1kP+vTzBUG0n72zGnCIk6vI3KcDzmVGT3WbRL2rSXjaio
DM7WVXrE2tRCAEU/kw9kjT34uRJ3vAiKsaq2EgHISN7p5ArlJovOCdni36srHBY9
3u4xQkronQj0iVPvyXKn+qOGE6nh1MbXAgMBAAGjggE+MIIBOjAOBgNVHQ8BAf8E
BAMCAQYwEgYDVR0TAQH/BAgwBgEB/wIBADAdBgNVHQ4EFgQUCrwkLCz3nOWflXyt
u9XwGFE5hW4wRwYDVR0gBEAwPjA8BgRVHSAAMDQwMgYIKwYBBQUHAgEWJmh0dHBz
Oi8vd3d3Lmdsb2JhbHNpZ24uY29tL3JlcG9zaXRvcnkvMDYGA1UdHwQvMC0wK6Ap
oCeGJWh0dHA6Ly9jcmwuZ2xvYmFsc2lnbi5uZXQvcm9vdC1yMy5jcmwwPgYIKwYB
BQUHAQEEMjAwMC4GCCsGAQUFBzABhiJodHRwOi8vb2NzcDIuZ2xvYmFsc2lnbi5j
b20vcm9vdHIzMBMGA1UdJQQMMAoGCCsGAQUFBwMDMB8GA1UdIwQYMBaAFI/wS3+o
LkUkrk1Q+mOai97i3Ru8MA0GCSqGSIb3DQEBCwUAA4IBAQCqoRGX/7Qj6PMD7NOO
71KhXIM1Y+X/8UK3gzXGk/VQXpuJIehYUxiINPvdSeEi6g+KsSJIKRncLvkjaFiB
FFUtJLkpaHhTrHL9y/GKU6DayBBviTgjbruZ8XOQ2/G/gKOujUkVvI2I/Vkd/hOu
VMOml80Aaz1BSJAVBeSkGAPU16njqUC2bCGs034c5l30BLGL2gzYquu5NlF/FzqN
NyjHt7hxkBLGbGy0hDvxpUfcxKM7LF3qCIPE4zkQ5KshZQpCVtiyaPaT5R7igwGr
C4ayz6VKN6Sy3GzXgjGNP5DmsSoFcIn8IB2fKvfM3ZO1Vw3rQAMC0ARPhO3wcoAH
lRIU
-----END CERTIFICATE-----

Certificate:
    Data:
        Version: 3 (0x2)
        Serial Number:
            11:21:80:f5:b1:cd:10:f5:53:4b:10:97:ae:d3:76:87:e9:91
    Signature Algorithm: sha256WithRSAEncryption
        Issuer: C=BE, O=GlobalSign nv-sa, CN=GlobalSign Extended Validation CodeSigning CA - SHA256 - G2
        Validity
            Not Before: Apr 19 05:00:17 2016 GMT
            Not After : Apr 20 05:00:17 2019 GMT
        Subject: businessCategory=Private Organization/serialNumber=837843-V/jurisdictionC=MY, C=MY, ST=Kuala Lumpur, L=Kuala Lumpur/street=Level 8 Pavilion Kuala Lumpur 168 Jalan Bukit Bintang, O=NewSoftwares.net, Inc SDN. BHD., OU=Development, CN=NewSoftwares.net, Inc SDN. BHD.
        Subject Public Key Info:
            Public Key Algorithm: rsaEncryption
                Public-Key: (2048 bit)
                Modulus:
                    00:e8:6d:b8:f4:89:2c:ab:50:d1:ba:98:22:ce:d0:
                    bc:da:7d:06:7f:1e:35:2c:34:64:e2:61:a6:ec:40:
                    88:7d:6a:d6:e5:c4:12:29:f3:22:f8:88:fe:60:48:
                    98:10:b9:c5:09:ed:b6:6c:87:76:12:d7:5c:3e:c2:
                    3f:b0:ee:9e:04:cc:a7:b6:62:e5:a8:c7:25:a0:05:
                    76:da:29:08:9b:29:3a:57:65:02:1c:cd:5d:25:75:
                    b4:5a:a0:64:7d:52:07:88:3c:9b:e1:c2:12:48:46:
                    db:ed:30:a4:80:df:72:08:37:67:30:0b:82:c1:ae:
                    ae:83:0c:43:c0:26:51:68:41:ab:d0:a3:38:30:41:
                    de:fa:5c:47:a6:4d:b6:13:b6:11:72:e4:32:75:b9:
                    8b:6b:84:ec:02:36:eb:a4:e3:68:8a:67:18:5b:49:
                    ed:9a:ac:ff:7d:ed:69:c2:f1:0e:fd:4a:38:50:e7:
                    d5:4e:c0:25:d7:95:4e:af:cf:6b:cf:dc:7c:66:8d:
                    71:d6:eb:98:d9:38:1b:fb:4c:cd:43:24:34:b2:f3:
                    8c:0d:89:a1:d9:65:23:f0:7a:d4:21:35:b6:57:b7:
                    b8:09:f4:6a:31:04:da:42:c2:a2:86:fc:df:ea:1c:
                    b9:f4:c3:1c:d1:9d:b8:93:59:50:57:25:08:f6:12:
                    38:71
                Exponent: 65537 (0x10001)
        X509v3 extensions:
            X509v3 Key Usage: critical
                Digital Signature
            X509v3 Certificate Policies: 
                Policy: 1.3.6.1.4.1.4146.1.2
                  CPS: https://www.globalsign.com/repository/
                Policy: 2.23.140.1.3

            X509v3 Basic Constraints: 
                CA:FALSE
            X509v3 Extended Key Usage: 
                Code Signing
            X509v3 CRL Distribution Points: 

                Full Name:
                  URI:http://crl.globalsign.com/gs/gsevcodesignsha2g2.crl

            Authority Information Access: 
                CA Issuers - URI:http://secure.globalsign.com/cacert/gsextendcodesignsha2g2.crt
                OCSP - URI:http://ocsp2.globalsign.com/gsevcodesignsha2g2

            X509v3 Subject Alternative Name: 
                othername:<unsupported>
            X509v3 Subject Key Identifier: 
                22:4E:DC:60:D8:FD:AE:D4:81:D3:49:07:D1:9A:05:FA:2B:8B:1F:07
            X509v3 Authority Key Identifier: 
                keyid:0A:BC:24:2C:2C:F7:9C:E5:9F:95:7C:AD:BB:D5:F0:18:51:39:85:6E

    Signature Algorithm: sha256WithRSAEncryption
         08:49:55:ce:c7:be:07:ba:e8:c9:a4:ea:dc:22:37:3d:5e:08:
         fe:a7:5f:e6:9f:bd:6e:af:2a:f5:9d:55:69:8a:da:5b:b4:b2:
         6d:0f:b3:72:3d:1c:cf:4b:93:49:b7:38:f9:bc:55:a9:07:79:
         90:ac:1d:de:8c:4b:50:a6:a6:fb:1e:9c:0c:92:e0:f1:1b:66:
         0c:02:8a:ee:ef:1e:5e:c6:08:6c:dc:14:40:9d:0b:58:3b:c8:
         36:1c:ff:b8:1e:13:78:93:45:89:7e:f5:05:8c:41:93:8c:fe:
         76:f8:89:67:ed:a9:b3:86:12:57:73:98:d5:80:21:f3:d0:c7:
         4a:f7:fb:63:cf:cb:1d:3a:13:4c:0e:49:2f:03:ce:a7:54:fd:
         31:5b:0d:a0:8f:0a:6e:44:6b:1f:79:37:26:05:87:14:22:00:
         b7:f6:e0:b4:25:25:6d:64:f3:07:18:c6:d2:17:07:85:a3:e9:
         69:84:8b:af:e8:06:7c:9f:75:83:6f:b0:fa:4d:c5:73:26:95:
         04:6d:d9:bd:04:53:f0:00:d8:b5:56:5f:b7:ef:b0:97:cf:3a:
         00:ab:c9:97:c3:53:c7:5d:d8:e1:e3:80:1d:b5:56:c9:3a:ba:
         54:85:43:b9:d2:70:2b:ae:0b:bc:2f:05:45:3d:b7:d9:52:59:
         d5:f7:5e:8b
-----BEGIN CERTIFICATE-----
MIIF/jCCBOagAwIBAgISESGA9bHNEPVTSxCXrtN2h+mRMA0GCSqGSIb3DQEBCwUA
MG4xCzAJBgNVBAYTAkJFMRkwFwYDVQQKExBHbG9iYWxTaWduIG52LXNhMUQwQgYD
VQQDEztHbG9iYWxTaWduIEV4dGVuZGVkIFZhbGlkYXRpb24gQ29kZVNpZ25pbmcg
Q0EgLSBTSEEyNTYgLSBHMjAeFw0xNjA0MTkwNTAwMTdaFw0xOTA0MjAwNTAwMTda
MIIBLDEdMBsGA1UEDwwUUHJpdmF0ZSBPcmdhbml6YXRpb24xETAPBgNVBAUTCDgz
Nzg0My1WMRMwEQYLKwYBBAGCNzwCAQMTAk1ZMQswCQYDVQQGEwJNWTEVMBMGA1UE
CBMMS3VhbGEgTHVtcHVyMRUwEwYDVQQHEwxLdWFsYSBMdW1wdXIxPjA8BgNVBAkT
NUxldmVsIDggUGF2aWxpb24gS3VhbGEgTHVtcHVyIDE2OCBKYWxhbiBCdWtpdCBC
aW50YW5nMSgwJgYDVQQKEx9OZXdTb2Z0d2FyZXMubmV0LCBJbmMgU0ROLiBCSEQu
MRQwEgYDVQQLEwtEZXZlbG9wbWVudDEoMCYGA1UEAxMfTmV3U29mdHdhcmVzLm5l
dCwgSW5jIFNETi4gQkhELjCCASIwDQYJKoZIhvcNAQEBBQADggEPADCCAQoCggEB
AOhtuPSJLKtQ0bqYIs7QvNp9Bn8eNSw0ZOJhpuxAiH1q1uXEEinzIviI/mBImBC5
xQnttmyHdhLXXD7CP7DungTMp7Zi5ajHJaAFdtopCJspOldlAhzNXSV1tFqgZH1S
B4g8m+HCEkhG2+0wpIDfcgg3ZzALgsGuroMMQ8AmUWhBq9CjODBB3vpcR6ZNthO2
EXLkMnW5i2uE7AI266TjaIpnGFtJ7Zqs/33tacLxDv1KOFDn1U7AJdeVTq/Pa8/c
fGaNcdbrmNk4G/tMzUMkNLLzjA2JodllI/B61CE1tle3uAn0ajEE2kLCoob83+oc
ufTDHNGduJNZUFclCPYSOHECAwEAAaOCAdQwggHQMA4GA1UdDwEB/wQEAwIHgDBV
BgNVHSAETjBMMEEGCSsGAQQBoDIBAjA0MDIGCCsGAQUFBwIBFiZodHRwczovL3d3
dy5nbG9iYWxzaWduLmNvbS9yZXBvc2l0b3J5LzAHBgVngQwBAzAJBgNVHRMEAjAA
MBMGA1UdJQQMMAoGCCsGAQUFBwMDMEQGA1UdHwQ9MDswOaA3oDWGM2h0dHA6Ly9j
cmwuZ2xvYmFsc2lnbi5jb20vZ3MvZ3NldmNvZGVzaWduc2hhMmcyLmNybDCBmAYI
KwYBBQUHAQEEgYswgYgwSgYIKwYBBQUHMAKGPmh0dHA6Ly9zZWN1cmUuZ2xvYmFs
c2lnbi5jb20vY2FjZXJ0L2dzZXh0ZW5kY29kZXNpZ25zaGEyZzIuY3J0MDoGCCsG
AQUFBzABhi5odHRwOi8vb2NzcDIuZ2xvYmFsc2lnbi5jb20vZ3NldmNvZGVzaWdu
c2hhMmcyMCYGA1UdEQQfMB2gGwYIKwYBBQUHCAOgDzANDAtNWS04Mzc4NDMtVjAd
BgNVHQ4EFgQUIk7cYNj9rtSB00kH0ZoF+iuLHwcwHwYDVR0jBBgwFoAUCrwkLCz3
nOWflXytu9XwGFE5hW4wDQYJKoZIhvcNAQELBQADggEBAAhJVc7Hvge66Mmk6twi
Nz1eCP6nX+afvW6vKvWdVWmK2lu0sm0Ps3I9HM9Lk0m3OPm8VakHeZCsHd6MS1Cm
pvsenAyS4PEbZgwCiu7vHl7GCGzcFECdC1g7yDYc/7geE3iTRYl+9QWMQZOM/nb4
iWftqbOGEldzmNWAIfPQx0r3+2PPyx06E0wOSS8DzqdU/TFbDaCPCm5Eax95NyYF
hxQiALf24LQlJW1k8wcYxtIXB4Wj6WmEi6/oBnyfdYNvsPpNxXMmlQRt2b0EU/AA
2LVWX7fvsJfPOgCryZfDU8dd2OHjgB21Vsk6ulSFQ7nScCuuC7wvBUU9t9lSWdX3
Xos=
-----END CERTIFICATE-----

