Certificate:
    Data:
        Version: 3 (0x2)
        Serial Number:
            7e:93:eb:fb:7c:c6:4e:59:ea:4b:9a:77:d4:06:fc:3b
    Signature Algorithm: sha1WithRSAEncryption
        Issuer: C=ZA, ST=Western Cape, L=Durbanville, O=Thawte, OU=Thawte Certification, CN=Thawte Timestamping CA
        Validity
            Not Before: Dec 21 00:00:00 2012 GMT
            Not After : Dec 30 23:59:59 2020 GMT
        Subject: C=US, O=Symantec Corporation, CN=Symantec Time Stamping Services CA - G2
        Subject Public Key Info:
            Public Key Algorithm: rsaEncryption
                Public-Key: (2048 bit)
                Modulus:
                    00:b1:ac:b3:49:54:4b:97:1c:12:0a:d8:25:79:91:
                    22:57:2a:6f:dc:b8:26:c4:43:73:6b:c2:bf:2e:50:
                    5a:fb:14:c2:76:8e:43:01:25:43:b4:a1:e2:45:f4:
                    e8:b7:7b:c3:74:cc:22:d7:b4:94:00:02:f7:4d:ed:
                    bf:b4:b7:44:24:6b:cd:5f:45:3b:d1:44:ce:43:12:
                    73:17:82:8b:69:b4:2b:cb:99:1e:ac:72:1b:26:4d:
                    71:1f:b1:31:dd:fb:51:61:02:53:a6:aa:f5:49:2c:
                    05:78:45:a5:2f:89:ce:e7:99:e7:fe:8c:e2:57:3f:
                    3d:c6:92:dc:4a:f8:7b:33:e4:79:0a:fb:f0:75:88:
                    41:9c:ff:c5:03:51:99:aa:d7:6c:9f:93:69:87:65:
                    29:83:85:c2:60:14:c4:c8:c9:3b:14:da:c0:81:f0:
                    1f:0d:74:de:92:22:ab:ca:f7:fb:74:7c:27:e6:f7:
                    4a:1b:7f:a7:c3:9e:2d:ae:8a:ea:a6:e6:aa:27:16:
                    7d:61:f7:98:71:11:bc:e2:50:a1:4b:e5:5d:fa:e5:
                    0e:a7:2c:9f:aa:65:20:d3:d8:96:e8:c8:7c:a5:4e:
                    48:44:ff:19:e2:44:07:92:0b:d7:68:84:80:5d:6a:
                    78:64:45:cd:60:46:7e:54:c1:13:7c:c5:79:f1:c9:
                    c1:71
                Exponent: 65537 (0x10001)
        X509v3 extensions:
            X509v3 Subject Key Identifier: 
                5F:9A:F5:6E:5C:CC:CC:74:9A:D4:DD:7D:EF:3F:DB:EC:4C:80:2E:DD
            Authority Information Access: 
                OCSP - URI:http://ocsp.thawte.com

            X509v3 Basic Constraints: critical
                CA:TRUE, pathlen:0
            X509v3 CRL Distribution Points: 

                Full Name:
                  URI:http://crl.thawte.com/ThawteTimestampingCA.crl

            X509v3 Extended Key Usage: 
                Time Stamping
            X509v3 Key Usage: critical
                Certificate Sign, CRL Sign
            X509v3 Subject Alternative Name: 
                DirName:/CN=TimeStamp-2048-1
    Signature Algorithm: sha1WithRSAEncryption
         03:09:9b:8f:79:ef:7f:59:30:aa:ef:68:b5:fa:e3:09:1d:bb:
         4f:82:06:5d:37:5f:a6:52:9f:16:8d:ea:1c:92:09:44:6e:f5:
         6d:eb:58:7c:30:e8:f9:69:8d:23:73:0b:12:6f:47:a9:ae:39:
         11:f8:2a:b1:9b:b0:1a:c3:8e:eb:59:96:00:ad:ce:0c:4d:b2:
         d0:31:a6:08:5c:2a:7a:fc:e2:7a:1d:57:4c:a8:65:18:e9:79:
         40:62:25:96:6e:c7:c7:37:6a:83:21:08:8e:41:ea:dd:d9:57:
         3f:1d:77:49:87:2a:16:06:5e:a6:38:6a:22:12:a3:51:19:83:
         7e:b6
-----BEGIN CERTIFICATE-----
MIID7jCCA1egAwIBAgIQfpPr+3zGTlnqS5p31Ab8OzANBgkqhkiG9w0BAQUFADCB
izELMAkGA1UEBhMCWkExFTATBgNVBAgTDFdlc3Rlcm4gQ2FwZTEUMBIGA1UEBxML
RHVyYmFudmlsbGUxDzANBgNVBAoTBlRoYXd0ZTEdMBsGA1UECxMUVGhhd3RlIENl
cnRpZmljYXRpb24xHzAdBgNVBAMTFlRoYXd0ZSBUaW1lc3RhbXBpbmcgQ0EwHhcN
MTIxMjIxMDAwMDAwWhcNMjAxMjMwMjM1OTU5WjBeMQswCQYDVQQGEwJVUzEdMBsG
A1UEChMUU3ltYW50ZWMgQ29ycG9yYXRpb24xMDAuBgNVBAMTJ1N5bWFudGVjIFRp
bWUgU3RhbXBpbmcgU2VydmljZXMgQ0EgLSBHMjCCASIwDQYJKoZIhvcNAQEBBQAD
ggEPADCCAQoCggEBALGss0lUS5ccEgrYJXmRIlcqb9y4JsRDc2vCvy5QWvsUwnaO
QwElQ7Sh4kX06Ld7w3TMIte0lAAC903tv7S3RCRrzV9FO9FEzkMScxeCi2m0K8uZ
HqxyGyZNcR+xMd37UWECU6aq9UksBXhFpS+JzueZ5/6M4lc/PcaS3Er4ezPkeQr7
8HWIQZz/xQNRmarXbJ+TaYdlKYOFwmAUxMjJOxTawIHwHw103pIiq8r3+3R8J+b3
Sht/p8OeLa6K6qbmqicWfWH3mHERvOJQoUvlXfrlDqcsn6plINPYlujIfKVOSET/
GeJEB5IL12iEgF1qeGRFzWBGflTBE3zFefHJwXECAwEAAaOB+jCB9zAdBgNVHQ4E
FgQUX5r1blzMzHSa1N197z/b7EyALt0wMgYIKwYBBQUHAQEEJjAkMCIGCCsGAQUF
BzABhhZodHRwOi8vb2NzcC50aGF3dGUuY29tMBIGA1UdEwEB/wQIMAYBAf8CAQAw
PwYDVR0fBDgwNjA0oDKgMIYuaHR0cDovL2NybC50aGF3dGUuY29tL1RoYXd0ZVRp
bWVzdGFtcGluZ0NBLmNybDATBgNVHSUEDDAKBggrBgEFBQcDCDAOBgNVHQ8BAf8E
BAMCAQYwKAYDVR0RBCEwH6QdMBsxGTAXBgNVBAMTEFRpbWVTdGFtcC0yMDQ4LTEw
DQYJKoZIhvcNAQEFBQADgYEAAwmbj3nvf1kwqu9otfrjCR27T4IGXTdfplKfFo3q
HJIJRG71betYfDDo+WmNI3MLEm9Hqa45EfgqsZuwGsOO61mWAK3ODE2y0DGmCFwq
evzieh1XTKhlGOl5QGIllm7HxzdqgyEIjkHq3dlXPx13SYcqFgZepjhqIhKjURmD
frY=
-----END CERTIFICATE-----

Certificate:
    Data:
        Version: 3 (0x2)
        Serial Number:
            0e:cf:f4:38:c8:fe:bf:35:6e:04:d8:6a:98:1b:1a:50
    Signature Algorithm: sha1WithRSAEncryption
        Issuer: C=US, O=Symantec Corporation, CN=Symantec Time Stamping Services CA - G2
        Validity
            Not Before: Oct 18 00:00:00 2012 GMT
            Not After : Dec 29 23:59:59 2020 GMT
        Subject: C=US, O=Symantec Corporation, CN=Symantec Time Stamping Services Signer - G4
        Subject Public Key Info:
            Public Key Algorithm: rsaEncryption
                Public-Key: (2048 bit)
                Modulus:
                    00:a2:63:0b:39:44:b8:bb:23:a7:44:49:bb:0e:ff:
                    a1:f0:61:0a:53:93:b0:98:db:ad:2c:0f:4a:c5:6e:
                    ff:86:3c:53:55:0f:15:ce:04:3f:2b:fd:a9:96:96:
                    d9:be:61:79:0b:5b:c9:4c:86:76:e5:e0:43:4b:22:
                    95:ee:c2:2b:43:c1:9f:d8:68:b4:8e:40:4f:ee:85:
                    38:b9:11:c5:23:f2:64:58:f0:15:32:6f:4e:57:a1:
                    ae:88:a4:02:d7:2a:1e:cd:4b:e1:dd:63:d5:17:89:
                    32:5b:b0:5e:99:5a:a8:9d:28:50:0e:17:ee:96:db:
                    61:3b:45:51:1d:cf:12:56:0b:92:47:fc:ab:ae:f6:
                    66:3d:47:ac:70:72:e7:92:e7:5f:cd:10:b9:c4:83:
                    64:94:19:bd:25:80:e1:e8:d2:22:a5:d0:ba:02:7a:
                    a1:77:93:5b:65:c3:ee:17:74:bc:41:86:2a:dc:08:
                    4c:8c:92:8c:91:2d:9e:77:44:1f:68:d6:a8:74:77:
                    db:0e:5b:32:8b:56:8b:33:bd:d9:63:c8:49:9d:3a:
                    c5:c5:ea:33:0b:d2:f1:a3:1b:f4:8b:be:d9:b3:57:
                    8b:3b:de:04:a7:7a:22:b2:24:ae:2e:c7:70:c5:be:
                    4e:83:26:08:fb:0b:bd:a9:4f:99:08:e1:10:28:72:
                    aa:cd
                Exponent: 65537 (0x10001)
        X509v3 extensions:
            X509v3 Basic Constraints: critical
                CA:FALSE
            X509v3 Extended Key Usage: critical
                Time Stamping
            X509v3 Key Usage: critical
                Digital Signature
            Authority Information Access: 
                OCSP - URI:http://ts-ocsp.ws.symantec.com
                CA Issuers - URI:http://ts-aia.ws.symantec.com/tss-ca-g2.cer

            X509v3 CRL Distribution Points: 

                Full Name:
                  URI:http://ts-crl.ws.symantec.com/tss-ca-g2.crl

            X509v3 Subject Alternative Name: 
                DirName:/CN=TimeStamp-2048-2
            X509v3 Subject Key Identifier: 
                46:C6:69:A3:0E:4A:14:1E:D5:4C:DA:52:63:17:3F:5E:36:BC:0D:E6
            X509v3 Authority Key Identifier: 
                keyid:5F:9A:F5:6E:5C:CC:CC:74:9A:D4:DD:7D:EF:3F:DB:EC:4C:80:2E:DD

    Signature Algorithm: sha1WithRSAEncryption
         78:3b:b4:91:2a:00:4c:f0:8f:62:30:37:78:a3:84:27:07:6f:
         18:b2:de:25:dc:a0:d4:94:03:aa:86:4e:25:9f:9a:40:03:1c:
         dd:ce:e3:79:cb:21:68:06:da:b6:32:b4:6d:bf:f4:2c:26:63:
         33:e4:49:64:6d:0d:e6:c3:67:0e:f7:05:a4:35:6c:7c:89:16:
         c6:e9:b2:df:b2:e9:dd:20:c6:71:0f:cd:95:74:dc:b6:5c:de:
         bd:37:1f:43:78:e6:78:b5:cd:28:04:20:a3:aa:f1:4b:c4:88:
         29:91:0e:80:d1:11:fc:dd:5c:76:6e:4f:5e:0e:45:46:41:6e:
         0d:b0:ea:38:9a:b1:3a:da:09:71:10:fc:1c:79:b4:80:7b:ac:
         69:f4:fd:9c:b6:0c:16:2b:f1:7f:5b:09:3d:9b:5b:e2:16:ca:
         13:81:6d:00:2e:38:0d:a8:29:8f:2c:e1:b2:f4:5a:a9:01:af:
         15:9c:2c:2f:49:1b:db:22:bb:c3:fe:78:94:51:c3:86:b1:82:
         88:5d:f0:3d:b4:51:a1:79:33:2b:2e:7b:b9:dc:20:09:13:71:
         eb:6a:19:5b:cf:e8:a5:30:57:2c:89:49:3f:b9:cf:7f:c9:bf:
         3e:22:68:63:53:9a:bd:69:74:ac:c5:1d:3c:7f:92:e0:c3:bc:
         1c:d8:04:75
-----BEGIN CERTIFICATE-----
MIIEozCCA4ugAwIBAgIQDs/0OMj+vzVuBNhqmBsaUDANBgkqhkiG9w0BAQUFADBe
MQswCQYDVQQGEwJVUzEdMBsGA1UEChMUU3ltYW50ZWMgQ29ycG9yYXRpb24xMDAu
BgNVBAMTJ1N5bWFudGVjIFRpbWUgU3RhbXBpbmcgU2VydmljZXMgQ0EgLSBHMjAe
Fw0xMjEwMTgwMDAwMDBaFw0yMDEyMjkyMzU5NTlaMGIxCzAJBgNVBAYTAlVTMR0w
GwYDVQQKExRTeW1hbnRlYyBDb3Jwb3JhdGlvbjE0MDIGA1UEAxMrU3ltYW50ZWMg
VGltZSBTdGFtcGluZyBTZXJ2aWNlcyBTaWduZXIgLSBHNDCCASIwDQYJKoZIhvcN
AQEBBQADggEPADCCAQoCggEBAKJjCzlEuLsjp0RJuw7/ofBhClOTsJjbrSwPSsVu
/4Y8U1UPFc4EPyv9qZaW2b5heQtbyUyGduXgQ0sile7CK0PBn9hotI5AT+6FOLkR
xSPyZFjwFTJvTlehroikAtcqHs1L4d1j1ReJMluwXplaqJ0oUA4X7pbbYTtFUR3P
ElYLkkf8q672Zj1HrHBy55LnX80QucSDZJQZvSWA4ejSIqXQugJ6oXeTW2XD7hd0
vEGGKtwITIySjJEtnndEH2jWqHR32w5bMotWizO92WPISZ06xcXqMwvS8aMb9Iu+
2bNXizveBKd6IrIkri7HcMW+ToMmCPsLvalPmQjhEChyqs0CAwEAAaOCAVcwggFT
MAwGA1UdEwEB/wQCMAAwFgYDVR0lAQH/BAwwCgYIKwYBBQUHAwgwDgYDVR0PAQH/
BAQDAgeAMHMGCCsGAQUFBwEBBGcwZTAqBggrBgEFBQcwAYYeaHR0cDovL3RzLW9j
c3Aud3Muc3ltYW50ZWMuY29tMDcGCCsGAQUFBzAChitodHRwOi8vdHMtYWlhLndz
LnN5bWFudGVjLmNvbS90c3MtY2EtZzIuY2VyMDwGA1UdHwQ1MDMwMaAvoC2GK2h0
dHA6Ly90cy1jcmwud3Muc3ltYW50ZWMuY29tL3Rzcy1jYS1nMi5jcmwwKAYDVR0R
BCEwH6QdMBsxGTAXBgNVBAMTEFRpbWVTdGFtcC0yMDQ4LTIwHQYDVR0OBBYEFEbG
aaMOShQe1UzaUmMXP142vA3mMB8GA1UdIwQYMBaAFF+a9W5czMx0mtTdfe8/2+xM
gC7dMA0GCSqGSIb3DQEBBQUAA4IBAQB4O7SRKgBM8I9iMDd4o4QnB28Yst4l3KDU
lAOqhk4ln5pAAxzdzuN5yyFoBtq2MrRtv/QsJmMz5ElkbQ3mw2cO9wWkNWx8iRbG
6bLfsundIMZxD82VdNy2XN69Nx9DeOZ4tc0oBCCjqvFLxIgpkQ6A0RH83Vx2bk9e
DkVGQW4NsOo4mrE62glxEPwcebSAe6xp9P2ctgwWK/F/Wwk9m1viFsoTgW0ALjgN
qCmPLOGy9FqpAa8VnCwvSRvbIrvD/niUUcOGsYKIXfA9tFGheTMrLnu53CAJE3Hr
ahlbz+ilMFcsiUk/uc9/yb8+ImhjU5q9aXSsxR08f5Lgw7wc2AR1
-----END CERTIFICATE-----

Certificate:
    Data:
        Version: 3 (0x2)
        Serial Number:
            78:22:43:a1:53:df:28:0a:1f:fa:e1:5c:d0:28:4c:86
    Signature Algorithm: sha256WithRSAEncryption
        Issuer: C=IL, O=StartCom Ltd., OU=Secure Digital Certificate Signing, CN=StartCom Certification Authority
        Validity
            Not Before: Dec 16 01:00:05 2015 GMT
            Not After : Dec 16 01:00:05 2030 GMT
        Subject: C=IL, O=StartCom Ltd., OU=StartCom Certification Authority, CN=StartCom Class 3 Object CA
        Subject Public Key Info:
            Public Key Algorithm: rsaEncryption
                Public-Key: (2048 bit)
                Modulus:
                    00:d8:6c:25:36:14:64:5c:79:cd:61:98:02:9f:05:
                    95:51:bc:c8:40:66:ca:57:57:32:93:65:a0:55:bb:
                    c2:7a:df:af:fe:e5:55:28:32:67:e6:63:2f:c2:ef:
                    65:c0:c1:e6:77:ed:4d:a4:a5:bd:de:4c:08:e2:56:
                    f5:69:4c:20:24:64:b0:b4:bf:da:fa:39:6f:f0:6c:
                    3a:32:2c:e4:0f:63:f0:54:ad:d1:f6:ab:e2:6b:44:
                    d1:d9:6e:e6:64:37:fb:a8:5b:9f:6b:60:8d:6f:a6:
                    e9:a9:2c:a8:3c:a6:b0:02:00:01:6f:cd:14:a0:ac:
                    ca:b0:e5:a8:d3:9a:ba:35:e4:7e:67:69:6d:ed:24:
                    79:9a:8a:7c:30:f0:ec:3a:07:67:28:0f:f5:ee:8a:
                    68:39:f4:a5:cb:a1:7a:26:0d:6b:e4:fe:72:a9:6b:
                    57:c4:f0:de:c6:66:cc:fc:b1:bf:f8:ad:48:28:91:
                    dc:6f:b2:a3:d2:ca:0d:9c:15:15:f4:63:fe:da:40:
                    26:11:40:a1:d1:c4:c3:d4:b0:9d:ad:85:45:89:69:
                    03:54:d9:83:dd:d0:48:40:de:bb:a1:e3:4d:1f:40:
                    24:f1:c0:e0:8e:12:46:1b:08:2f:92:ee:19:65:61:
                    bb:14:f5:85:7d:a9:2e:62:92:2f:69:8f:00:25:77:
                    7a:d7
                Exponent: 65537 (0x10001)
        X509v3 extensions:
            X509v3 Key Usage: critical
                Certificate Sign, CRL Sign
            X509v3 Extended Key Usage: 
                Code Signing, 1.3.6.1.4.1.311.61.1.1
            X509v3 Basic Constraints: critical
                CA:TRUE, pathlen:0
            X509v3 CRL Distribution Points: 

                Full Name:
                  URI:http://crl.startssl.com/sfsca.crl

            Authority Information Access: 
                OCSP - URI:http://ocsp.startssl.com
                CA Issuers - URI:http://aia.startssl.com/certs/ca.crt

            X509v3 Subject Key Identifier: 
                66:7A:9E:CD:9C:73:86:6A:69:A0:AE:FA:8C:BB:18:8F:08:EC:D5:04
            X509v3 Authority Key Identifier: 
                keyid:4E:0B:EF:1A:A4:40:5B:A5:17:69:87:30:CA:34:68:43:D0:41:AE:F2

            X509v3 Certificate Policies: 
                Policy: X509v3 Any Policy
                  CPS: http://www.startssl.com/policy

    Signature Algorithm: sha256WithRSAEncryption
         0b:1f:77:f0:a4:b6:e6:92:05:f5:47:f1:74:73:a5:60:1a:b7:
         a1:98:ae:ba:80:99:f1:b8:96:d4:fa:23:e9:ca:63:05:82:08:
         00:af:94:cc:21:39:53:d5:51:98:68:01:c0:e0:f6:53:be:58:
         11:98:bd:d9:ae:11:e7:9f:ef:d3:23:4d:cc:67:2b:78:5e:5b:
         95:9b:4a:a3:bb:4c:34:47:e1:29:79:46:47:c9:c5:d3:28:ae:
         75:1b:c2:63:bd:f9:fd:bb:51:a7:b2:02:93:40:53:5e:7a:9d:
         69:f9:fe:34:2e:f4:1a:8b:6c:0b:42:00:89:e1:27:2f:a8:85:
         0a:e7:ed:85:26:f4:b8:c8:d3:ae:81:97:a3:37:2c:38:e5:db:
         97:53:25:ae:90:16:a1:1b:67:d0:15:c5:ba:c9:9b:af:8c:71:
         e1:ee:a7:c0:8b:60:f2:bf:5c:3a:15:e2:5e:1c:d3:ff:b4:f8:
         58:75:02:ba:6d:12:83:33:ff:c4:0c:5c:97:63:ff:b1:11:66:
         81:44:40:c3:23:c0:f6:1c:95:6f:27:ca:74:00:86:50:6a:d3:
         cd:06:21:7b:01:d8:8f:49:95:41:63:08:57:06:bf:67:ec:dc:
         0e:ac:59:2a:01:1b:c7:99:e7:2b:75:0d:61:23:04:8c:52:d2:
         2e:bc:7b:51:50:92:a2:9f:a2:78:74:95:83:9e:f3:b7:96:59:
         ca:ae:11:d8:9e:9b:b8:4a:0c:c2:e8:39:36:28:66:e9:a6:76:
         da:c4:ff:31:e2:b2:5d:8d:69:24:8a:5b:58:7d:8b:af:d2:8c:
         bc:52:31:0f:1d:90:2f:96:a8:46:9a:77:36:ab:99:2f:55:cd:
         0d:b5:78:03:e4:88:a9:13:cc:72:6d:7a:c8:f6:77:79:b8:4a:
         cf:85:1e:1e:4a:f8:2e:47:2e:5a:36:eb:2e:17:ff:db:75:c0:
         7d:94:68:4c:33:75:76:43:22:d1:80:00:57:87:7e:13:c1:f0:
         55:4a:f2:eb:9f:04:e1:a8:2d:3a:b7:ae:a7:89:7c:b1:a8:0f:
         fd:f2:26:9d:f0:f7:40:1d:f4:a4:c9:10:4c:30:dc:64:d0:b5:
         52:11:37:c9:fc:5b:55:26:be:89:bd:63:df:42:04:71:7a:4f:
         8b:f2:ce:ac:c3:f6:db:e0:9a:fa:2e:70:82:42:36:82:86:80:
         c5:ae:7d:02:7a:f4:60:0e:ca:1d:30:96:db:14:f4:e8:4c:99:
         3c:b2:03:8e:2b:50:f7:99:63:80:84:b2:f5:1b:be:b9:0c:3f:
         34:ca:dc:d7:fd:a3:8e:5c:0e:70:7e:94:13:4f:32:1b:ff:a4:
         8f:5c:75:f5:9c:a4:58:c9
-----BEGIN CERTIFICATE-----
MIIF5DCCA8ygAwIBAgIQeCJDoVPfKAof+uFc0ChMhjANBgkqhkiG9w0BAQsFADB9
MQswCQYDVQQGEwJJTDEWMBQGA1UEChMNU3RhcnRDb20gTHRkLjErMCkGA1UECxMi
U2VjdXJlIERpZ2l0YWwgQ2VydGlmaWNhdGUgU2lnbmluZzEpMCcGA1UEAxMgU3Rh
cnRDb20gQ2VydGlmaWNhdGlvbiBBdXRob3JpdHkwHhcNMTUxMjE2MDEwMDA1WhcN
MzAxMjE2MDEwMDA1WjB1MQswCQYDVQQGEwJJTDEWMBQGA1UEChMNU3RhcnRDb20g
THRkLjEpMCcGA1UECxMgU3RhcnRDb20gQ2VydGlmaWNhdGlvbiBBdXRob3JpdHkx
IzAhBgNVBAMTGlN0YXJ0Q29tIENsYXNzIDMgT2JqZWN0IENBMIIBIjANBgkqhkiG
9w0BAQEFAAOCAQ8AMIIBCgKCAQEA2GwlNhRkXHnNYZgCnwWVUbzIQGbKV1cyk2Wg
VbvCet+v/uVVKDJn5mMvwu9lwMHmd+1NpKW93kwI4lb1aUwgJGSwtL/a+jlv8Gw6
MizkD2PwVK3R9qvia0TR2W7mZDf7qFufa2CNb6bpqSyoPKawAgABb80UoKzKsOWo
05q6NeR+Z2lt7SR5mop8MPDsOgdnKA/17opoOfSly6F6Jg1r5P5yqWtXxPDexmbM
/LG/+K1IKJHcb7Kj0soNnBUV9GP+2kAmEUCh0cTD1LCdrYVFiWkDVNmD3dBIQN67
oeNNH0Ak8cDgjhJGGwgvku4ZZWG7FPWFfakuYpIvaY8AJXd61wIDAQABo4IBZjCC
AWIwDgYDVR0PAQH/BAQDAgEGMB8GA1UdJQQYMBYGCCsGAQUFBwMDBgorBgEEAYI3
PQEBMBIGA1UdEwEB/wQIMAYBAf8CAQAwMgYDVR0fBCswKTAnoCWgI4YhaHR0cDov
L2NybC5zdGFydHNzbC5jb20vc2ZzY2EuY3JsMGYGCCsGAQUFBwEBBFowWDAkBggr
BgEFBQcwAYYYaHR0cDovL29jc3Auc3RhcnRzc2wuY29tMDAGCCsGAQUFBzAChiRo
dHRwOi8vYWlhLnN0YXJ0c3NsLmNvbS9jZXJ0cy9jYS5jcnQwHQYDVR0OBBYEFGZ6
ns2cc4ZqaaCu+oy7GI8I7NUEMB8GA1UdIwQYMBaAFE4L7xqkQFulF2mHMMo0aEPQ
Qa7yMD8GA1UdIAQ4MDYwNAYEVR0gADAsMCoGCCsGAQUFBwIBFh5odHRwOi8vd3d3
LnN0YXJ0c3NsLmNvbS9wb2xpY3kwDQYJKoZIhvcNAQELBQADggIBAAsfd/CktuaS
BfVH8XRzpWAat6GYrrqAmfG4ltT6I+nKYwWCCACvlMwhOVPVUZhoAcDg9lO+WBGY
vdmuEeef79MjTcxnK3heW5WbSqO7TDRH4Sl5RkfJxdMornUbwmO9+f27UaeyApNA
U156nWn5/jQu9BqLbAtCAInhJy+ohQrn7YUm9LjI066Bl6M3LDjl25dTJa6QFqEb
Z9AVxbrJm6+MceHup8CLYPK/XDoV4l4c0/+0+Fh1ArptEoMz/8QMXJdj/7ERZoFE
QMMjwPYclW8nynQAhlBq080GIXsB2I9JlUFjCFcGv2fs3A6sWSoBG8eZ5yt1DWEj
BIxS0i68e1FQkqKfonh0lYOe87eWWcquEdiem7hKDMLoOTYoZummdtrE/zHisl2N
aSSKW1h9i6/SjLxSMQ8dkC+WqEaadzarmS9VzQ21eAPkiKkTzHJtesj2d3m4Ss+F
Hh5K+C5HLlo26y4X/9t1wH2UaEwzdXZDItGAAFeHfhPB8FVK8uufBOGoLTq3rqeJ
fLGoD/3yJp3w90Ad9KTJEEww3GTQtVIRN8n8W1Umvom9Y99CBHF6T4vyzqzD9tvg
mvoucIJCNoKGgMWufQJ69GAOyh0wltsU9OhMmTyyA44rUPeZY4CEsvUbvrkMPzTK
3Nf9o45cDnB+lBNPMhv/pI9cdfWcpFjJ
-----END CERTIFICATE-----

Certificate:
    Data:
        Version: 3 (0x2)
        Serial Number:
            4e:5b:6c:6b:86:2f:f3:7a:3c:84:d0:2f:4d:69:05:9c
    Signature Algorithm: sha256WithRSAEncryption
        Issuer: C=IL, O=StartCom Ltd., OU=StartCom Certification Authority, CN=StartCom Class 3 Object CA
        Validity
            Not Before: Jan 19 12:36:57 2016 GMT
            Not After : Jan 19 12:36:57 2019 GMT
        Subject: C=RU, ST=Moscow City, L=Moscow, O=Fun Factory LLC - \xD0\x9E\xD0\x9E\xD0\x9E \xE2\x80\x9D\xD0\xA4\xD0\xB0\xD0\xB1\xD1\x80\xD0\xB8\xD0\xBA\xD0\xB0 \xD0\xA0\xD0\xB0\xD0\xB7\xD0\xB2\xD0\xBB\xD0\xB5\xD1\x87\xD0\xB5\xD0\xBD\xD0\xB8\xD0\xB9\xE2\x80\x9D, CN=Fun Factory LLC - \xD0\x9E\xD0\x9E\xD0\x9E \xE2\x80\x9D\xD0\xA4\xD0\xB0\xD0\xB1\xD1\x80\xD0\xB8\xD0\xBA\xD0\xB0 \xD0\xA0\xD0\xB0\xD0\xB7\xD0\xB2\xD0\xBB\xD0\xB5\xD1\x87\xD0\xB5\xD0\xBD\xD0\xB8\xD0\xB9\xE2\x80\x9D
        Subject Public Key Info:
            Public Key Algorithm: rsaEncryption
                Public-Key: (4096 bit)
                Modulus:
                    00:d3:37:7d:21:f6:8a:2b:74:e3:a3:05:87:be:db:
                    b3:8b:9a:53:97:ad:14:29:ec:73:16:12:ee:08:a1:
                    48:08:18:fe:90:9a:68:22:de:3e:f9:b2:59:ea:48:
                    c9:11:a4:8c:56:3a:03:0a:14:ba:0e:b2:dc:a9:b0:
                    6d:62:73:fd:8f:1f:c2:56:55:8f:6a:30:6f:95:c6:
                    0e:bb:4f:90:d0:e2:cd:37:44:6f:61:06:7e:d6:c7:
                    39:c5:2d:cf:cf:8c:54:f0:cc:34:23:01:0a:57:a9:
                    fc:7b:12:64:f8:fa:ff:7c:ce:87:8e:58:0c:97:db:
                    cc:ca:20:46:e7:1d:8b:8d:a3:f4:88:35:a9:bb:01:
                    7f:af:d2:8a:e4:1b:df:30:64:1b:d0:bf:19:2c:19:
                    64:ad:5e:8c:b9:52:38:2f:46:c0:eb:b9:e9:12:bc:
                    35:5d:74:1f:6a:7a:ed:a1:cc:29:53:22:b5:7e:ef:
                    47:af:2a:a3:cb:cd:96:ea:46:15:50:d6:a1:40:b2:
                    53:89:81:9e:7c:fe:30:10:7e:78:f6:2f:2a:26:33:
                    35:a0:a1:91:42:81:29:0a:6a:a8:07:64:44:34:bd:
                    98:94:75:93:79:13:47:4b:42:eb:af:40:ff:6c:40:
                    ea:db:7a:14:31:b0:15:41:df:ad:dc:15:a1:b0:ff:
                    96:f4:ef:05:0f:09:e2:84:7c:c6:1f:5b:5b:67:ed:
                    33:c7:29:d7:1d:de:4a:ba:fb:af:be:55:84:80:d5:
                    08:fd:b3:a5:91:20:0a:47:75:25:62:95:57:87:f5:
                    fe:2c:90:1e:99:ac:3c:83:de:52:1c:1f:e9:87:eb:
                    4b:93:f2:fe:bf:18:83:dd:94:dc:57:33:22:47:99:
                    17:8d:29:e9:01:51:54:cf:2d:15:5f:f6:bd:42:bd:
                    a2:63:cb:a6:fc:76:fb:0e:61:29:32:89:0a:5d:c4:
                    91:a1:d0:3f:e2:38:75:14:cd:d8:e1:2a:59:58:ef:
                    0e:51:fa:01:31:13:36:f2:7e:b9:28:03:2f:69:00:
                    aa:b7:13:d0:28:1c:0c:c3:e7:1d:31:ec:44:de:08:
                    a3:a4:e5:6d:c6:4d:37:55:79:7f:da:e1:89:ea:f8:
                    3b:ac:e8:01:de:ea:de:90:ba:4e:f0:45:65:36:6e:
                    6e:a8:33:82:a2:f7:d2:77:79:fc:ad:8f:c9:00:49:
                    1d:98:88:b8:37:df:ef:f1:0d:d6:05:97:f8:1a:ee:
                    45:16:a1:ab:db:89:5c:5f:c9:f7:c8:b1:84:c7:db:
                    6b:92:78:4a:0a:45:f5:85:4b:62:95:44:a8:2d:f0:
                    8d:6c:ee:ba:45:b4:36:5b:ae:92:49:0e:14:0c:a2:
                    e0:be:05
                Exponent: 65537 (0x10001)
        X509v3 extensions:
            X509v3 Key Usage: critical
                Digital Signature
            X509v3 Extended Key Usage: 
                Code Signing, 1.3.6.1.4.1.311.61.1.1
            X509v3 Basic Constraints: 
                CA:FALSE
            X509v3 Subject Key Identifier: 
                B6:BD:70:1C:4F:81:E6:2E:78:21:CD:67:11:31:ED:7A:7D:00:31:77
            X509v3 Authority Key Identifier: 
                keyid:66:7A:9E:CD:9C:73:86:6A:69:A0:AE:FA:8C:BB:18:8F:08:EC:D5:04

            Authority Information Access: 
                OCSP - URI:http://ocsp.startssl.com
                CA Issuers - URI:http://aia.startssl.com/certs/sca.code3.crt

            X509v3 CRL Distribution Points: 

                Full Name:
                  URI:http://crl.startssl.com/sca-code3.crl

            X509v3 Issuer Alternative Name: 
                URI:http://www.startssl.com/
            X509v3 Certificate Policies: 
                Policy: 2.23.140.1.4.1
                Policy: 1.3.6.1.4.1.23223.1.2.4
                  CPS: http://www.startssl.com/policy

    Signature Algorithm: sha256WithRSAEncryption
         6d:fc:95:af:9b:a0:cd:54:d8:7c:19:2f:65:8b:13:6e:7d:96:
         7d:86:f3:8c:34:83:44:74:1f:e2:30:10:d7:88:d5:9b:4e:06:
         d8:48:83:e7:51:64:d5:89:81:83:4d:41:ec:8a:41:c7:3e:fa:
         97:9a:ef:90:ad:21:e4:23:87:55:7f:60:1a:e0:d0:17:b2:44:
         60:c6:e0:20:f1:b7:d4:88:9b:e9:b2:e6:f9:d9:f4:2a:42:a7:
         24:d5:8e:4b:b8:9f:f0:9e:5b:5d:06:ee:5c:e4:9e:4c:67:99:
         28:b7:83:6b:0c:ac:37:87:0e:e4:08:c1:ca:8f:5f:19:0b:df:
         28:29:74:0b:f6:a7:b4:26:50:66:bb:72:e0:ce:55:2f:bf:6d:
         7d:28:2a:30:36:cd:53:5a:45:6f:c7:6d:24:81:5b:ad:7e:d6:
         b6:ff:27:d7:b0:5e:96:fc:62:86:fc:d1:ce:c5:db:0e:a2:18:
         d2:09:03:d0:1f:c9:13:ae:ae:7a:59:b5:63:18:60:c5:a0:9c:
         4a:48:4e:d8:54:ba:c0:77:c9:f8:6c:dc:ba:ea:e8:80:84:ea:
         ad:85:f2:d3:79:f8:d8:c4:a2:1e:50:90:94:65:b8:23:87:d8:
         9c:1f:45:7e:51:3a:57:e0:db:15:48:ec:86:b0:76:97:f5:e8:
         5f:c9:f2:61
-----BEGIN CERTIFICATE-----
MIIGcjCCBVqgAwIBAgIQTltsa4Yv83o8hNAvTWkFnDANBgkqhkiG9w0BAQsFADB1
MQswCQYDVQQGEwJJTDEWMBQGA1UEChMNU3RhcnRDb20gTHRkLjEpMCcGA1UECxMg
U3RhcnRDb20gQ2VydGlmaWNhdGlvbiBBdXRob3JpdHkxIzAhBgNVBAMTGlN0YXJ0
Q29tIENsYXNzIDMgT2JqZWN0IENBMB4XDTE2MDExOTEyMzY1N1oXDTE5MDExOTEy
MzY1N1owgdIxCzAJBgNVBAYTAlJVMRQwEgYDVQQIDAtNb3Njb3cgQ2l0eTEPMA0G
A1UEBwwGTW9zY293MU0wSwYDVQQKDERGdW4gRmFjdG9yeSBMTEMgLSDQntCe0J4g
4oCd0KTQsNCx0YDQuNC60LAg0KDQsNC30LLQu9C10YfQtdC90LjQueKAnTFNMEsG
A1UEAwxERnVuIEZhY3RvcnkgTExDIC0g0J7QntCeIOKAndCk0LDQsdGA0LjQutCw
INCg0LDQt9Cy0LvQtdGH0LXQvdC40LnigJ0wggIiMA0GCSqGSIb3DQEBAQUAA4IC
DwAwggIKAoICAQDTN30h9oordOOjBYe+27OLmlOXrRQp7HMWEu4IoUgIGP6Qmmgi
3j75slnqSMkRpIxWOgMKFLoOstypsG1ic/2PH8JWVY9qMG+Vxg67T5DQ4s03RG9h
Bn7WxznFLc/PjFTwzDQjAQpXqfx7EmT4+v98zoeOWAyX28zKIEbnHYuNo/SINam7
AX+v0orkG98wZBvQvxksGWStXoy5UjgvRsDruekSvDVddB9qeu2hzClTIrV+70ev
KqPLzZbqRhVQ1qFAslOJgZ58/jAQfnj2LyomMzWgoZFCgSkKaqgHZEQ0vZiUdZN5
E0dLQuuvQP9sQOrbehQxsBVB363cFaGw/5b07wUPCeKEfMYfW1tn7TPHKdcd3kq6
+6++VYSA1Qj9s6WRIApHdSVilVeH9f4skB6ZrDyD3lIcH+mH60uT8v6/GIPdlNxX
MyJHmReNKekBUVTPLRVf9r1CvaJjy6b8dvsOYSkyiQpdxJGh0D/iOHUUzdjhKllY
7w5R+gExEzbyfrkoAy9pAKq3E9AoHAzD5x0x7ETeCKOk5W3GTTdVeX/a4Ynq+Dus
6AHe6t6Quk7wRWU2bm6oM4Ki99J3efytj8kASR2YiLg33+/xDdYFl/ga7kUWoavb
iVxfyffIsYTH22uSeEoKRfWFS2KVRKgt8I1s7rpFtDZbrpJJDhQMouC+BQIDAQAB
o4IBnjCCAZowDgYDVR0PAQH/BAQDAgeAMB8GA1UdJQQYMBYGCCsGAQUFBwMDBgor
BgEEAYI3PQEBMAkGA1UdEwQCMAAwHQYDVR0OBBYEFLa9cBxPgeYueCHNZxEx7Xp9
ADF3MB8GA1UdIwQYMBaAFGZ6ns2cc4ZqaaCu+oy7GI8I7NUEMG0GCCsGAQUFBwEB
BGEwXzAkBggrBgEFBQcwAYYYaHR0cDovL29jc3Auc3RhcnRzc2wuY29tMDcGCCsG
AQUFBzAChitodHRwOi8vYWlhLnN0YXJ0c3NsLmNvbS9jZXJ0cy9zY2EuY29kZTMu
Y3J0MDYGA1UdHwQvMC0wK6ApoCeGJWh0dHA6Ly9jcmwuc3RhcnRzc2wuY29tL3Nj
YS1jb2RlMy5jcmwwIwYDVR0SBBwwGoYYaHR0cDovL3d3dy5zdGFydHNzbC5jb20v
MFAGA1UdIARJMEcwCAYGZ4EMAQQBMDsGCysGAQQBgbU3AQIEMCwwKgYIKwYBBQUH
AgEWHmh0dHA6Ly93d3cuc3RhcnRzc2wuY29tL3BvbGljeTANBgkqhkiG9w0BAQsF
AAOCAQEAbfyVr5ugzVTYfBkvZYsTbn2WfYbzjDSDRHQf4jAQ14jVm04G2EiD51Fk
1YmBg01B7IpBxz76l5rvkK0h5COHVX9gGuDQF7JEYMbgIPG31Iib6bLm+dn0KkKn
JNWOS7if8J5bXQbuXOSeTGeZKLeDawysN4cO5AjByo9fGQvfKCl0C/antCZQZrty
4M5VL79tfSgqMDbNU1pFb8dtJIFbrX7Wtv8n17BelvxihvzRzsXbDqIY0gkD0B/J
E66uelm1YxhgxaCcSkhO2FS6wHfJ+GzcuurogITqrYXy03n42MSiHlCQlGW4I4fY
nB9FflE6V+DbFUjshrB2l/XoX8nyYQ==
-----END CERTIFICATE-----

