Certificate:
    Data:
        Version: 3 (0x2)
        Serial Number: 12212456256003661 (0x2b632a0cf95e4d)
    Signature Algorithm: sha1WithRSAEncryption
        Issuer: C=US, ST=Arizona, L=Scottsdale, O=GoDaddy.com, Inc., OU=http://certificates.godaddy.com/repository, CN=Go Daddy Secure Certification Authority/serialNumber=07969287
        Validity
            Not Before: Jun 13 14:06:55 2013 GMT
            Not After : Jun 13 14:06:55 2014 GMT
        Subject: C=ES, ST=Santa Cruz de Tenerife, L=Adeje, O=tuguu sl, CN=tuguu sl
        Subject Public Key Info:
            Public Key Algorithm: rsaEncryption
                Public-Key: (2048 bit)
                Modulus:
                    00:b0:4a:34:5e:05:66:cf:a5:17:8d:ab:80:ca:9d:
                    36:07:09:0c:3c:fd:89:aa:24:5e:f6:9b:62:38:b9:
                    d3:5e:16:4b:45:06:27:5f:16:d0:d8:23:48:c6:7a:
                    69:d1:89:72:e1:f5:e7:5d:d4:57:71:43:57:06:2f:
                    f4:05:e9:70:66:55:bf:8e:aa:10:3f:11:58:58:94:
                    cb:f7:f8:23:31:e8:69:76:a6:96:ff:ab:77:05:7e:
                    34:d9:ea:88:e0:1d:9a:be:4b:e6:6d:8f:59:30:a6:
                    6b:d1:6d:1e:66:ce:5c:8d:a0:c6:23:06:da:89:c9:
                    d7:b4:6b:fb:7b:8e:bc:88:36:ec:da:f1:c6:b2:8e:
                    96:68:1f:38:0f:53:1c:47:96:19:1b:17:62:f0:7f:
                    1c:de:9c:19:17:90:3a:be:7c:de:cf:94:ce:c9:50:
                    b6:23:83:2b:6a:6d:de:00:d5:6b:75:f7:ba:54:ea:
                    87:65:f3:20:f9:4f:e4:f5:31:de:6f:df:03:1e:34:
                    c7:4f:29:5a:40:0c:14:a2:11:71:3e:af:18:f4:a3:
                    21:bc:c2:26:7a:78:07:a3:e9:fd:16:34:e2:27:d9:
                    5d:ea:0a:0c:3b:77:13:02:c1:05:91:7b:bf:89:84:
                    92:7e:1c:b6:8e:52:39:fa:6a:95:01:90:c1:76:5e:
                    22:c9
                Exponent: 65537 (0x10001)
        X509v3 extensions:
            X509v3 Basic Constraints: critical
                CA:FALSE
            X509v3 Extended Key Usage: 
                Code Signing
            X509v3 Key Usage: critical
                Digital Signature
            X509v3 CRL Distribution Points: 

                Full Name:
                  URI:http://crl.godaddy.com/gds5-16.crl

            X509v3 Certificate Policies: 
                Policy: 2.16.840.1.114413.1.7.23.2
                  CPS: http://certificates.godaddy.com/repository/

            Authority Information Access: 
                OCSP - URI:http://ocsp.godaddy.com/
                CA Issuers - URI:http://certificates.godaddy.com/repository/gd_intermediate.crt

            X509v3 Authority Key Identifier: 
                keyid:FD:AC:61:32:93:6C:45:D6:E2:EE:85:5F:9A:BA:E7:76:99:68:CC:E7

            X509v3 Subject Key Identifier: 
                40:99:51:6D:E9:DF:54:E7:D1:83:E0:02:71:59:45:9A:94:A2:44:54
    Signature Algorithm: sha1WithRSAEncryption
         67:79:63:20:cb:33:55:d4:21:c1:e1:77:24:15:2b:1d:34:23:
         37:76:f1:3f:6e:de:fc:17:65:18:57:95:4b:2a:a7:54:16:31:
         5d:a6:47:90:a9:0f:ac:91:81:e0:01:b2:62:85:c3:1f:1d:63:
         08:90:a0:1f:64:4d:d5:13:6d:23:ab:45:dc:54:bd:da:1d:36:
         a6:4c:6c:4f:0d:d7:05:24:de:ef:2d:4a:f7:71:5e:7d:d3:74:
         26:eb:fb:05:b4:17:cf:af:14:62:26:28:a2:f0:89:f7:b9:10:
         c6:8a:2f:ad:1f:0b:ad:51:8f:5a:a0:d2:2e:4c:46:88:ae:0b:
         f7:75:fd:fa:98:7f:3e:0d:3b:b7:f9:78:18:25:78:48:84:ed:
         76:0c:23:a0:77:a6:cd:5d:5b:bd:4b:02:bb:97:90:b9:5c:d5:
         0c:77:82:cc:9c:68:1d:bd:8e:f3:91:22:3f:12:69:23:95:8c:
         b5:56:e3:af:22:94:76:35:e9:10:12:16:8d:f5:8a:57:9a:2f:
         b6:3b:e7:b4:f4:38:a5:dd:2c:23:76:4d:7b:a2:0d:3d:93:02:
         00:19:b8:86:4c:4b:1f:43:0b:81:4a:a0:93:74:66:10:08:95:
         87:08:ea:fe:59:9b:00:07:ef:e3:b6:5f:b6:28:3f:ae:88:0d:
         ff:05:bf:1d
-----BEGIN CERTIFICATE-----
MIIFOTCCBCGgAwIBAgIHK2MqDPleTTANBgkqhkiG9w0BAQUFADCByjELMAkGA1UE
BhMCVVMxEDAOBgNVBAgTB0FyaXpvbmExEzARBgNVBAcTClNjb3R0c2RhbGUxGjAY
BgNVBAoTEUdvRGFkZHkuY29tLCBJbmMuMTMwMQYDVQQLEypodHRwOi8vY2VydGlm
aWNhdGVzLmdvZGFkZHkuY29tL3JlcG9zaXRvcnkxMDAuBgNVBAMTJ0dvIERhZGR5
IFNlY3VyZSBDZXJ0aWZpY2F0aW9uIEF1dGhvcml0eTERMA8GA1UEBRMIMDc5Njky
ODcwHhcNMTMwNjEzMTQwNjU1WhcNMTQwNjEzMTQwNjU1WjBkMQswCQYDVQQGEwJF
UzEfMB0GA1UECBMWU2FudGEgQ3J1eiBkZSBUZW5lcmlmZTEOMAwGA1UEBxMFQWRl
amUxETAPBgNVBAoTCHR1Z3V1IHNsMREwDwYDVQQDEwh0dWd1dSBzbDCCASIwDQYJ
KoZIhvcNAQEBBQADggEPADCCAQoCggEBALBKNF4FZs+lF42rgMqdNgcJDDz9iaok
XvabYji5014WS0UGJ18W0NgjSMZ6adGJcuH1513UV3FDVwYv9AXpcGZVv46qED8R
WFiUy/f4IzHoaXamlv+rdwV+NNnqiOAdmr5L5m2PWTCma9FtHmbOXI2gxiMG2onJ
17Rr+3uOvIg27NrxxrKOlmgfOA9THEeWGRsXYvB/HN6cGReQOr583s+UzslQtiOD
K2pt3gDVa3X3ulTqh2XzIPlP5PUx3m/fAx40x08pWkAMFKIRcT6vGPSjIbzCJnp4
B6Pp/RY04ifZXeoKDDt3EwLBBZF7v4mEkn4cto5SOfpqlQGQwXZeIskCAwEAAaOC
AYcwggGDMA8GA1UdEwEB/wQFMAMBAQAwEwYDVR0lBAwwCgYIKwYBBQUHAwMwDgYD
VR0PAQH/BAQDAgeAMDMGA1UdHwQsMCowKKAmoCSGImh0dHA6Ly9jcmwuZ29kYWRk
eS5jb20vZ2RzNS0xNi5jcmwwUwYDVR0gBEwwSjBIBgtghkgBhv1tAQcXAjA5MDcG
CCsGAQUFBwIBFitodHRwOi8vY2VydGlmaWNhdGVzLmdvZGFkZHkuY29tL3JlcG9z
aXRvcnkvMIGABggrBgEFBQcBAQR0MHIwJAYIKwYBBQUHMAGGGGh0dHA6Ly9vY3Nw
LmdvZGFkZHkuY29tLzBKBggrBgEFBQcwAoY+aHR0cDovL2NlcnRpZmljYXRlcy5n
b2RhZGR5LmNvbS9yZXBvc2l0b3J5L2dkX2ludGVybWVkaWF0ZS5jcnQwHwYDVR0j
BBgwFoAU/axhMpNsRdbi7oVfmrrndplozOcwHQYDVR0OBBYEFECZUW3p31Tn0YPg
AnFZRZqUokRUMA0GCSqGSIb3DQEBBQUAA4IBAQBneWMgyzNV1CHB4XckFSsdNCM3
dvE/bt78F2UYV5VLKqdUFjFdpkeQqQ+skYHgAbJihcMfHWMIkKAfZE3VE20jq0Xc
VL3aHTamTGxPDdcFJN7vLUr3cV5903Qm6/sFtBfPrxRiJiii8In3uRDGii+tHwut
UY9aoNIuTEaIrgv3df36mH8+DTu3+XgYJXhIhO12DCOgd6bNXVu9SwK7l5C5XNUM
d4LMnGgdvY7zkSI/EmkjlYy1VuOvIpR2NekQEhaN9YpXmi+2O+e09Dil3Swjdk17
og09kwIAGbiGTEsfQwuBSqCTdGYQCJWHCOr+WZsAB+/jtl+2KD+uiA3/Bb8d
-----END CERTIFICATE-----

Certificate:
    Data:
        Version: 3 (0x2)
        Serial Number: 769 (0x301)
    Signature Algorithm: sha1WithRSAEncryption
        Issuer: C=US, O=The Go Daddy Group, Inc., OU=Go Daddy Class 2 Certification Authority
        Validity
            Not Before: Nov 16 01:54:37 2006 GMT
            Not After : Nov 16 01:54:37 2026 GMT
        Subject: C=US, ST=Arizona, L=Scottsdale, O=GoDaddy.com, Inc., OU=http://certificates.godaddy.com/repository, CN=Go Daddy Secure Certification Authority/serialNumber=07969287
        Subject Public Key Info:
            Public Key Algorithm: rsaEncryption
                Public-Key: (2048 bit)
                Modulus:
                    00:c4:2d:d5:15:8c:9c:26:4c:ec:32:35:eb:5f:b8:
                    59:01:5a:a6:61:81:59:3b:70:63:ab:e3:dc:3d:c7:
                    2a:b8:c9:33:d3:79:e4:3a:ed:3c:30:23:84:8e:b3:
                    30:14:b6:b2:87:c3:3d:95:54:04:9e:df:99:dd:0b:
                    25:1e:21:de:65:29:7e:35:a8:a9:54:eb:f6:f7:32:
                    39:d4:26:55:95:ad:ef:fb:fe:58:86:d7:9e:f4:00:
                    8d:8c:2a:0c:bd:42:04:ce:a7:3f:04:f6:ee:80:f2:
                    aa:ef:52:a1:69:66:da:be:1a:ad:5d:da:2c:66:ea:
                    1a:6b:bb:e5:1a:51:4a:00:2f:48:c7:98:75:d8:b9:
                    29:c8:ee:f8:66:6d:0a:9c:b3:f3:fc:78:7c:a2:f8:
                    a3:f2:b5:c3:f3:b9:7a:91:c1:a7:e6:25:2e:9c:a8:
                    ed:12:65:6e:6a:f6:12:44:53:70:30:95:c3:9c:2b:
                    58:2b:3d:08:74:4a:f2:be:51:b0:bf:87:d0:4c:27:
                    58:6b:b5:35:c5:9d:af:17:31:f8:0b:8f:ee:ad:81:
                    36:05:89:08:98:cf:3a:af:25:87:c0:49:ea:a7:fd:
                    67:f7:45:8e:97:cc:14:39:e2:36:85:b5:7e:1a:37:
                    fd:16:f6:71:11:9a:74:30:16:fe:13:94:a3:3f:84:
                    0d:4f
                Exponent: 65537 (0x10001)
        X509v3 extensions:
            X509v3 Subject Key Identifier: 
                FD:AC:61:32:93:6C:45:D6:E2:EE:85:5F:9A:BA:E7:76:99:68:CC:E7
            X509v3 Authority Key Identifier: 
                keyid:D2:C4:B0:D2:91:D4:4C:11:71:B3:61:CB:3D:A1:FE:DD:A8:6A:D4:E3

            X509v3 Basic Constraints: critical
                CA:TRUE, pathlen:0
            Authority Information Access: 
                OCSP - URI:http://ocsp.godaddy.com

            X509v3 CRL Distribution Points: 

                Full Name:
                  URI:http://certificates.godaddy.com/repository/gdroot.crl

            X509v3 Certificate Policies: 
                Policy: X509v3 Any Policy
                  CPS: http://certificates.godaddy.com/repository

            X509v3 Key Usage: critical
                Certificate Sign, CRL Sign
    Signature Algorithm: sha1WithRSAEncryption
         d2:86:c0:ec:bd:f9:a1:b6:67:ee:66:0b:a2:06:3a:04:50:8e:
         15:72:ac:4a:74:95:53:cb:37:cb:44:49:ef:07:90:6b:33:d9:
         96:f0:94:56:a5:13:30:05:3c:85:32:21:7b:c9:c7:0a:a8:24:
         a4:90:de:46:d3:25:23:14:03:67:c2:10:d6:6f:0f:5d:7b:7a:
         cc:9f:c5:58:2a:c1:c4:9e:21:a8:5a:f3:ac:a4:46:f3:9e:e4:
         63:cb:2f:90:a4:29:29:01:d9:72:2c:29:df:37:01:27:bc:4f:
         ee:68:d3:21:8f:c0:b3:e4:f5:09:ed:d2:10:aa:53:b4:be:f0:
         cc:59:0b:d6:3b:96:1c:95:24:49:df:ce:ec:fd:a7:48:91:14:
         45:0e:3a:36:6f:da:45:b3:45:a2:41:c9:d4:d7:44:4e:3e:b9:
         74:76:d5:a2:13:55:2c:c6:87:a3:b5:99:ac:06:84:87:7f:75:
         06:fc:bf:14:4c:0e:cc:6e:c4:df:3d:b7:12:71:f4:e8:f1:51:
         40:22:28:49:e0:1d:4b:87:a8:34:cc:06:a2:dd:12:5a:d1:86:
         36:64:03:35:6f:6f:77:6e:eb:f2:85:50:98:5e:ab:03:53:ad:
         91:23:63:1f:16:9c:cd:b9:b2:05:63:3a:e1:f4:68:1b:17:05:
         35:95:53:ee
-----BEGIN CERTIFICATE-----
MIIE3jCCA8agAwIBAgICAwEwDQYJKoZIhvcNAQEFBQAwYzELMAkGA1UEBhMCVVMx
ITAfBgNVBAoTGFRoZSBHbyBEYWRkeSBHcm91cCwgSW5jLjExMC8GA1UECxMoR28g
RGFkZHkgQ2xhc3MgMiBDZXJ0aWZpY2F0aW9uIEF1dGhvcml0eTAeFw0wNjExMTYw
MTU0MzdaFw0yNjExMTYwMTU0MzdaMIHKMQswCQYDVQQGEwJVUzEQMA4GA1UECBMH
QXJpem9uYTETMBEGA1UEBxMKU2NvdHRzZGFsZTEaMBgGA1UEChMRR29EYWRkeS5j
b20sIEluYy4xMzAxBgNVBAsTKmh0dHA6Ly9jZXJ0aWZpY2F0ZXMuZ29kYWRkeS5j
b20vcmVwb3NpdG9yeTEwMC4GA1UEAxMnR28gRGFkZHkgU2VjdXJlIENlcnRpZmlj
YXRpb24gQXV0aG9yaXR5MREwDwYDVQQFEwgwNzk2OTI4NzCCASIwDQYJKoZIhvcN
AQEBBQADggEPADCCAQoCggEBAMQt1RWMnCZM7DI161+4WQFapmGBWTtwY6vj3D3H
KrjJM9N55DrtPDAjhI6zMBS2sofDPZVUBJ7fmd0LJR4h3mUpfjWoqVTr9vcyOdQm
VZWt7/v+WIbXnvQAjYwqDL1CBM6nPwT27oDyqu9SoWlm2r4arV3aLGbqGmu75RpR
SgAvSMeYddi5Kcju+GZtCpyz8/x4fKL4o/K1w/O5epHBp+YlLpyo7RJlbmr2EkRT
cDCVw5wrWCs9CHRK8r5RsL+H0EwnWGu1NcWdrxcx+AuP7q2BNgWJCJjPOq8lh8BJ
6qf9Z/dFjpfMFDniNoW1fho3/Rb2cRGadDAW/hOUoz+EDU8CAwEAAaOCATIwggEu
MB0GA1UdDgQWBBT9rGEyk2xF1uLuhV+auud2mWjM5zAfBgNVHSMEGDAWgBTSxLDS
kdRMEXGzYcs9of7dqGrU4zASBgNVHRMBAf8ECDAGAQH/AgEAMDMGCCsGAQUFBwEB
BCcwJTAjBggrBgEFBQcwAYYXaHR0cDovL29jc3AuZ29kYWRkeS5jb20wRgYDVR0f
BD8wPTA7oDmgN4Y1aHR0cDovL2NlcnRpZmljYXRlcy5nb2RhZGR5LmNvbS9yZXBv
c2l0b3J5L2dkcm9vdC5jcmwwSwYDVR0gBEQwQjBABgRVHSAAMDgwNgYIKwYBBQUH
AgEWKmh0dHA6Ly9jZXJ0aWZpY2F0ZXMuZ29kYWRkeS5jb20vcmVwb3NpdG9yeTAO
BgNVHQ8BAf8EBAMCAQYwDQYJKoZIhvcNAQEFBQADggEBANKGwOy9+aG2Z+5mC6IG
OgRQjhVyrEp0lVPLN8tESe8HkGsz2ZbwlFalEzAFPIUyIXvJxwqoJKSQ3kbTJSMU
A2fCENZvD117esyfxVgqwcSeIaha86ykRvOe5GPLL5CkKSkB2XIsKd83ASe8T+5o
0yGPwLPk9Qnt0hCqU7S+8MxZC9Y7lhyVJEnfzuz9p0iRFEUOOjZv2kWzRaJBydTX
RE4+uXR21aITVSzGh6O1mawGhId/dQb8vxRMDsxuxN89txJx9OjxUUAiKEngHUuH
qDTMBqLdElrRhjZkAzVvb3du6/KFUJheqwNTrZEjYx8WnM25sgVjOuH0aBsXBTWV
U+4=
-----END CERTIFICATE-----

Certificate:
    Data:
        Version: 3 (0x2)
        Serial Number: 0 (0x0)
    Signature Algorithm: sha1WithRSAEncryption
        Issuer: C=US, O=The Go Daddy Group, Inc., OU=Go Daddy Class 2 Certification Authority
        Validity
            Not Before: Jun 29 17:06:20 2004 GMT
            Not After : Jun 29 17:06:20 2034 GMT
        Subject: C=US, O=The Go Daddy Group, Inc., OU=Go Daddy Class 2 Certification Authority
        Subject Public Key Info:
            Public Key Algorithm: rsaEncryption
                Public-Key: (2048 bit)
                Modulus:
                    00:de:9d:d7:ea:57:18:49:a1:5b:eb:d7:5f:48:86:
                    ea:be:dd:ff:e4:ef:67:1c:f4:65:68:b3:57:71:a0:
                    5e:77:bb:ed:9b:49:e9:70:80:3d:56:18:63:08:6f:
                    da:f2:cc:d0:3f:7f:02:54:22:54:10:d8:b2:81:d4:
                    c0:75:3d:4b:7f:c7:77:c3:3e:78:ab:1a:03:b5:20:
                    6b:2f:6a:2b:b1:c5:88:7e:c4:bb:1e:b0:c1:d8:45:
                    27:6f:aa:37:58:f7:87:26:d7:d8:2d:f6:a9:17:b7:
                    1f:72:36:4e:a6:17:3f:65:98:92:db:2a:6e:5d:a2:
                    fe:88:e0:0b:de:7f:e5:8d:15:e1:eb:cb:3a:d5:e2:
                    12:a2:13:2d:d8:8e:af:5f:12:3d:a0:08:05:08:b6:
                    5c:a5:65:38:04:45:99:1e:a3:60:60:74:c5:41:a5:
                    72:62:1b:62:c5:1f:6f:5f:1a:42:be:02:51:65:a8:
                    ae:23:18:6a:fc:78:03:a9:4d:7f:80:c3:fa:ab:5a:
                    fc:a1:40:a4:ca:19:16:fe:b2:c8:ef:5e:73:0d:ee:
                    77:bd:9a:f6:79:98:bc:b1:07:67:a2:15:0d:dd:a0:
                    58:c6:44:7b:0a:3e:62:28:5f:ba:41:07:53:58:cf:
                    11:7e:38:74:c5:f8:ff:b5:69:90:8f:84:74:ea:97:
                    1b:af
                Exponent: 3 (0x3)
        X509v3 extensions:
            X509v3 Subject Key Identifier: 
                D2:C4:B0:D2:91:D4:4C:11:71:B3:61:CB:3D:A1:FE:DD:A8:6A:D4:E3
            X509v3 Authority Key Identifier: 
                keyid:D2:C4:B0:D2:91:D4:4C:11:71:B3:61:CB:3D:A1:FE:DD:A8:6A:D4:E3
                DirName:/C=US/O=The Go Daddy Group, Inc./OU=Go Daddy Class 2 Certification Authority
                serial:00

            X509v3 Basic Constraints: 
                CA:TRUE
    Signature Algorithm: sha1WithRSAEncryption
         32:4b:f3:b2:ca:3e:91:fc:12:c6:a1:07:8c:8e:77:a0:33:06:
         14:5c:90:1e:18:f7:08:a6:3d:0a:19:f9:87:80:11:6e:69:e4:
         96:17:30:ff:34:91:63:72:38:ee:cc:1c:01:a3:1d:94:28:a4:
         31:f6:7a:c4:54:d7:f6:e5:31:58:03:a2:cc:ce:62:db:94:45:
         73:b5:bf:45:c9:24:b5:d5:82:02:ad:23:79:69:8d:b8:b6:4d:
         ce:cf:4c:ca:33:23:e8:1c:88:aa:9d:8b:41:6e:16:c9:20:e5:
         89:9e:cd:3b:da:70:f7:7e:99:26:20:14:54:25:ab:6e:73:85:
         e6:9b:21:9d:0a:6c:82:0e:a8:f8:c2:0c:fa:10:1e:6c:96:ef:
         87:0d:c4:0f:61:8b:ad:ee:83:2b:95:f8:8e:92:84:72:39:eb:
         20:ea:83:ed:83:cd:97:6e:08:bc:eb:4e:26:b6:73:2b:e4:d3:
         f6:4c:fe:26:71:e2:61:11:74:4a:ff:57:1a:87:0f:75:48:2e:
         cf:51:69:17:a0:02:12:61:95:d5:d1:40:b2:10:4c:ee:c4:ac:
         10:43:a6:a5:9e:0a:d5:95:62:9a:0d:cf:88:82:c5:32:0c:e4:
         2b:9f:45:e6:0d:9f:28:9c:b1:b9:2a:5a:57:ad:37:0f:af:1d:
         7f:db:bd:9f
-----BEGIN CERTIFICATE-----
MIIEADCCAuigAwIBAgIBADANBgkqhkiG9w0BAQUFADBjMQswCQYDVQQGEwJVUzEh
MB8GA1UEChMYVGhlIEdvIERhZGR5IEdyb3VwLCBJbmMuMTEwLwYDVQQLEyhHbyBE
YWRkeSBDbGFzcyAyIENlcnRpZmljYXRpb24gQXV0aG9yaXR5MB4XDTA0MDYyOTE3
MDYyMFoXDTM0MDYyOTE3MDYyMFowYzELMAkGA1UEBhMCVVMxITAfBgNVBAoTGFRo
ZSBHbyBEYWRkeSBHcm91cCwgSW5jLjExMC8GA1UECxMoR28gRGFkZHkgQ2xhc3Mg
MiBDZXJ0aWZpY2F0aW9uIEF1dGhvcml0eTCCASAwDQYJKoZIhvcNAQEBBQADggEN
ADCCAQgCggEBAN6d1+pXGEmhW+vXX0iG6r7d/+TvZxz0ZWizV3GgXne77ZtJ6XCA
PVYYYwhv2vLM0D9/AlQiVBDYsoHUwHU9S3/Hd8M+eKsaA7Ugay9qK7HFiH7Eux6w
wdhFJ2+qN1j3hybX2C32qRe3H3I2TqYXP2WYktsqbl2i/ojgC95/5Y0V4evLOtXi
EqITLdiOr18SPaAIBQi2XKVlOARFmR6jYGB0xUGlcmIbYsUfb18aQr4CUWWoriMY
avx4A6lNf4DD+qta/KFApMoZFv6yyO9ecw3ud72a9nmYvLEHZ6IVDd2gWMZEewo+
YihfukEHU1jPEX44dMX4/7VpkI+EdOqXG68CAQOjgcAwgb0wHQYDVR0OBBYEFNLE
sNKR1EwRcbNhyz2h/t2oatTjMIGNBgNVHSMEgYUwgYKAFNLEsNKR1EwRcbNhyz2h
/t2oatTjoWekZTBjMQswCQYDVQQGEwJVUzEhMB8GA1UEChMYVGhlIEdvIERhZGR5
IEdyb3VwLCBJbmMuMTEwLwYDVQQLEyhHbyBEYWRkeSBDbGFzcyAyIENlcnRpZmlj
YXRpb24gQXV0aG9yaXR5ggEAMAwGA1UdEwQFMAMBAf8wDQYJKoZIhvcNAQEFBQAD
ggEBADJL87LKPpH8EsahB4yOd6AzBhRckB4Y9wimPQoZ+YeAEW5p5JYXMP80kWNy
OO7MHAGjHZQopDH2esRU1/blMVgDoszOYtuURXO1v0XJJLXVggKtI3lpjbi2Tc7P
TMozI+gciKqdi0FuFskg5YmezTvacPd+mSYgFFQlq25zheabIZ0KbIIOqPjCDPoQ
HmyW74cNxA9hi63ugyuV+I6ShHI56yDqg+2DzZduCLzrTia2cyvk0/ZM/iZx4mER
dEr/VxqHD3VILs9RaRegAhJhldXRQLIQTO7ErBBDpqWeCtWVYpoNz4iCxTIM5Cuf
ReYNnyicsbkqWletNw+vHX/bvZ8=
-----END CERTIFICATE-----

