Certificate:
    Data:
        Version: 3 (0x2)
        Serial Number:
            6a:5d:73:f2:62:c3:8b:bd:45:78:ab:6a:d7:13:31:8d
    Signature Algorithm: sha1WithRSAEncryption
        Issuer: C=US, O=VeriSign, Inc., OU=VeriSign Trust Network, OU=Terms of use at https://www.verisign.com/rpa (c)10, CN=VeriSign Class 3 Code Signing 2010 CA
        Validity
            Not Before: Jun 19 00:00:00 2011 GMT
            Not After : Jul  1 23:59:59 2013 GMT
        Subject: C=US, ST=Minnesota, L=Sartell, O=W3i, LLC, OU=Digital ID Class 3 - Microsoft Software Validation v2, CN=W3i, LLC
        Subject Public Key Info:
            Public Key Algorithm: rsaEncryption
                Public-Key: (2048 bit)
                Modulus:
                    00:cf:10:fd:80:3a:34:12:1c:5b:38:22:87:05:b8:
                    c8:60:f0:cd:f2:f2:f8:62:05:91:d0:a2:52:d2:f0:
                    65:40:63:91:39:35:5d:22:f2:4b:7a:71:46:83:e9:
                    76:e7:ea:66:11:e6:ef:c6:92:bb:08:da:8b:5d:73:
                    a5:c6:77:46:62:70:50:80:e6:89:8f:1f:5c:ce:84:
                    34:8b:19:cc:77:48:2a:de:38:27:63:91:0b:ed:db:
                    03:a6:f9:78:e0:fc:89:01:c1:11:f3:47:91:5c:11:
                    a4:b7:a0:03:49:17:41:a5:a5:09:56:26:a5:76:74:
                    d0:7a:89:6b:d2:11:8d:7c:d4:c3:a7:e5:30:9a:0a:
                    ce:42:55:2e:9e:d4:ba:1f:3f:00:61:e4:46:90:17:
                    6b:3c:75:81:98:c2:b7:86:1b:98:46:ed:51:d9:8a:
                    a2:a0:01:9a:2a:c3:aa:80:6b:be:02:d1:f6:6d:90:
                    5f:00:2a:26:df:5f:ed:7b:a7:bb:1f:98:cb:c4:6a:
                    63:e9:bc:d0:9a:24:06:5b:a3:aa:70:35:f7:7e:82:
                    40:06:b4:40:cd:29:55:de:61:4e:4e:cd:6f:ca:6a:
                    53:a7:a2:30:a8:c7:eb:4f:97:42:b1:ce:d8:8d:aa:
                    9d:d2:1b:2b:2b:14:62:f4:00:46:b5:01:0d:f1:ef:
                    32:e1
                Exponent: 65537 (0x10001)
        X509v3 extensions:
            X509v3 Basic Constraints: 
                CA:FALSE
            X509v3 Key Usage: critical
                Digital Signature
            X509v3 CRL Distribution Points: 

                Full Name:
                  URI:http://csc3-2010-crl.verisign.com/CSC3-2010.crl

            X509v3 Certificate Policies: 
                Policy: 2.16.840.1.113733.1.7.23.3
                  CPS: https://www.verisign.com/rpa

            X509v3 Extended Key Usage: 
                Code Signing
            Authority Information Access: 
                OCSP - URI:http://ocsp.verisign.com
                CA Issuers - URI:http://csc3-2010-aia.verisign.com/CSC3-2010.cer

            X509v3 Authority Key Identifier: 
                keyid:CF:99:A9:EA:7B:26:F4:4B:C9:8E:8F:D7:F0:05:26:EF:E3:D2:A7:9D

            Netscape Cert Type: 
                Object Signing
            1.3.6.1.4.1.311.2.1.27: 
                0.......
    Signature Algorithm: sha1WithRSAEncryption
         c7:c1:20:49:80:2f:5c:09:c2:4f:43:5e:e4:98:f2:45:33:3e:
         9c:22:e5:65:99:3b:de:67:6d:41:06:15:81:4a:a7:cf:87:80:
         67:e6:1a:1e:ff:ef:e7:a2:3f:55:73:dd:cd:2b:10:5c:15:55:
         88:a9:1c:23:83:26:f0:09:31:f9:5d:07:ef:b2:99:46:f7:65:
         a0:30:07:83:71:2a:0d:b8:22:2d:ee:39:a4:ed:91:8f:09:b9:
         03:91:cf:fa:a3:b7:a5:45:3c:f4:5c:f5:8a:ef:dd:d9:80:a8:
         32:39:fe:eb:dd:5d:5d:26:55:c0:24:42:32:a8:47:26:d6:3a:
         ab:91:02:9f:86:31:10:81:98:08:f3:1e:f0:48:57:41:b6:19:
         d4:c7:91:5e:6d:bd:fc:80:b8:54:61:b3:7c:c3:3f:16:52:1f:
         6b:10:71:8d:55:cf:27:48:ff:d3:53:4f:79:26:57:c7:7e:39:
         2e:70:28:79:31:5a:c5:2a:58:6b:10:ba:3c:97:b9:31:28:22:
         e9:eb:7a:26:2f:c2:c4:bd:df:53:74:79:9d:49:63:cd:9b:f7:
         e9:c3:97:21:40:b3:6d:27:09:73:b0:a4:8e:4c:3a:5b:8f:1a:
         38:bc:ee:ce:5a:c1:9c:3a:9f:7e:fb:43:c0:fe:1f:b2:29:9e:
         71:cf:35:4b
-----BEGIN CERTIFICATE-----
MIIFVjCCBD6gAwIBAgIQal1z8mLDi71FeKtq1xMxjTANBgkqhkiG9w0BAQUFADCB
tDELMAkGA1UEBhMCVVMxFzAVBgNVBAoTDlZlcmlTaWduLCBJbmMuMR8wHQYDVQQL
ExZWZXJpU2lnbiBUcnVzdCBOZXR3b3JrMTswOQYDVQQLEzJUZXJtcyBvZiB1c2Ug
YXQgaHR0cHM6Ly93d3cudmVyaXNpZ24uY29tL3JwYSAoYykxMDEuMCwGA1UEAxMl
VmVyaVNpZ24gQ2xhc3MgMyBDb2RlIFNpZ25pbmcgMjAxMCBDQTAeFw0xMTA2MTkw
MDAwMDBaFw0xMzA3MDEyMzU5NTlaMIGZMQswCQYDVQQGEwJVUzESMBAGA1UECBMJ
TWlubmVzb3RhMRAwDgYDVQQHEwdTYXJ0ZWxsMREwDwYDVQQKFAhXM2ksIExMQzE+
MDwGA1UECxM1RGlnaXRhbCBJRCBDbGFzcyAzIC0gTWljcm9zb2Z0IFNvZnR3YXJl
IFZhbGlkYXRpb24gdjIxETAPBgNVBAMUCFczaSwgTExDMIIBIjANBgkqhkiG9w0B
AQEFAAOCAQ8AMIIBCgKCAQEAzxD9gDo0EhxbOCKHBbjIYPDN8vL4YgWR0KJS0vBl
QGOROTVdIvJLenFGg+l25+pmEebvxpK7CNqLXXOlxndGYnBQgOaJjx9czoQ0ixnM
d0gq3jgnY5EL7dsDpvl44PyJAcER80eRXBGkt6ADSRdBpaUJVialdnTQeolr0hGN
fNTDp+UwmgrOQlUuntS6Hz8AYeRGkBdrPHWBmMK3hhuYRu1R2YqioAGaKsOqgGu+
AtH2bZBfACom31/te6e7H5jLxGpj6bzQmiQGW6OqcDX3foJABrRAzSlV3mFOTs1v
ympTp6IwqMfrT5dCsc7Yjaqd0hsrKxRi9ABGtQEN8e8y4QIDAQABo4IBezCCAXcw
CQYDVR0TBAIwADAOBgNVHQ8BAf8EBAMCB4AwQAYDVR0fBDkwNzA1oDOgMYYvaHR0
cDovL2NzYzMtMjAxMC1jcmwudmVyaXNpZ24uY29tL0NTQzMtMjAxMC5jcmwwRAYD
VR0gBD0wOzA5BgtghkgBhvhFAQcXAzAqMCgGCCsGAQUFBwIBFhxodHRwczovL3d3
dy52ZXJpc2lnbi5jb20vcnBhMBMGA1UdJQQMMAoGCCsGAQUFBwMDMHEGCCsGAQUF
BwEBBGUwYzAkBggrBgEFBQcwAYYYaHR0cDovL29jc3AudmVyaXNpZ24uY29tMDsG
CCsGAQUFBzAChi9odHRwOi8vY3NjMy0yMDEwLWFpYS52ZXJpc2lnbi5jb20vQ1ND
My0yMDEwLmNlcjAfBgNVHSMEGDAWgBTPmanqeyb0S8mOj9fwBSbv49KnnTARBglg
hkgBhvhCAQEEBAMCBBAwFgYKKwYBBAGCNwIBGwQIMAYBAQABAf8wDQYJKoZIhvcN
AQEFBQADggEBAMfBIEmAL1wJwk9DXuSY8kUzPpwi5WWZO95nbUEGFYFKp8+HgGfm
Gh7/7+eiP1Vz3c0rEFwVVYipHCODJvAJMfldB++ymUb3ZaAwB4NxKg24Ii3uOaTt
kY8JuQORz/qjt6VFPPRc9Yrv3dmAqDI5/uvdXV0mVcAkQjKoRybWOquRAp+GMRCB
mAjzHvBIV0G2GdTHkV5tvfyAuFRhs3zDPxZSH2sQcY1VzydI/9NTT3kmV8d+OS5w
KHkxWsUqWGsQujyXuTEoIunreiYvwsS931N0eZ1JY82b9+nDlyFAs20nCXOwpI5M
OluPGji87s5awZw6n377Q8D+H7IpnnHPNUs=
-----END CERTIFICATE-----

Certificate:
    Data:
        Version: 3 (0x2)
        Serial Number:
            52:00:e5:aa:25:56:fc:1a:86:ed:96:c9:d4:4b:33:c7
    Signature Algorithm: sha1WithRSAEncryption
        Issuer: C=US, O=VeriSign, Inc., OU=VeriSign Trust Network, OU=(c) 2006 VeriSign, Inc. - For authorized use only, CN=VeriSign Class 3 Public Primary Certification Authority - G5
        Validity
            Not Before: Feb  8 00:00:00 2010 GMT
            Not After : Feb  7 23:59:59 2020 GMT
        Subject: C=US, O=VeriSign, Inc., OU=VeriSign Trust Network, OU=Terms of use at https://www.verisign.com/rpa (c)10, CN=VeriSign Class 3 Code Signing 2010 CA
        Subject Public Key Info:
            Public Key Algorithm: rsaEncryption
                Public-Key: (2048 bit)
                Modulus:
                    00:f5:23:4b:5e:a5:d7:8a:bb:32:e9:d4:57:f7:ef:
                    e4:c7:26:7e:ad:19:98:fe:a8:9d:7d:94:f6:36:6b:
                    10:d7:75:81:30:7f:04:68:7f:cb:2b:75:1e:cd:1d:
                    08:8c:df:69:94:a7:37:a3:9c:7b:80:e0:99:e1:ee:
                    37:4d:5f:ce:3b:14:ee:86:d4:d0:f5:27:35:bc:25:
                    0b:38:a7:8c:63:9d:17:a3:08:a5:ab:b0:fb:cd:6a:
                    62:82:4c:d5:21:da:1b:d9:f1:e3:84:3b:8a:2a:4f:
                    85:5b:90:01:4f:c9:a7:76:10:7f:27:03:7c:be:ae:
                    7e:7d:c1:dd:f9:05:bc:1b:48:9c:69:e7:c0:a4:3c:
                    3c:41:00:3e:df:96:e5:c5:e4:94:71:d6:55:01:c7:
                    00:26:4a:40:3c:b5:a1:26:a9:0c:a7:6d:80:8e:90:
                    25:7b:cf:bf:3f:1c:eb:2f:96:fa:e5:87:77:c6:b5:
                    56:b2:7a:3b:54:30:53:1b:df:62:34:ff:1e:d1:f4:
                    5a:93:28:85:e5:4c:17:4e:7e:5b:fd:a4:93:99:7f:
                    df:cd:ef:a4:75:ef:ef:15:f6:47:e7:f8:19:72:d8:
                    2e:34:1a:a6:b4:a7:4c:7e:bd:bb:4f:0c:3d:57:f1:
                    30:d6:a6:36:8e:d6:80:76:d7:19:2e:a5:cd:7e:34:
                    2d:89
                Exponent: 65537 (0x10001)
        X509v3 extensions:
            X509v3 Basic Constraints: critical
                CA:TRUE, pathlen:0
            X509v3 Certificate Policies: 
                Policy: 2.16.840.1.113733.1.7.23.3
                  CPS: https://www.verisign.com/cps
                  User Notice:
                    Explicit Text: https://www.verisign.com/rpa

            X509v3 Key Usage: critical
                Certificate Sign, CRL Sign
            1.3.6.1.5.5.7.1.12: 
                0_.].[0Y0W0U..image/gif0!0.0...+..............k...j.H.,{..0%.#http://logo.verisign.com/vslogo.gif
            X509v3 CRL Distribution Points: 

                Full Name:
                  URI:http://crl.verisign.com/pca3-g5.crl

            Authority Information Access: 
                OCSP - URI:http://ocsp.verisign.com

            X509v3 Extended Key Usage: 
                TLS Web Client Authentication, Code Signing
            X509v3 Subject Alternative Name: 
                DirName:/CN=VeriSignMPKI-2-8
            X509v3 Subject Key Identifier: 
                CF:99:A9:EA:7B:26:F4:4B:C9:8E:8F:D7:F0:05:26:EF:E3:D2:A7:9D
            X509v3 Authority Key Identifier: 
                keyid:7F:D3:65:A7:C2:DD:EC:BB:F0:30:09:F3:43:39:FA:02:AF:33:31:33

    Signature Algorithm: sha1WithRSAEncryption
         56:22:e6:34:a4:c4:61:cb:48:b9:01:ad:56:a8:64:0f:d9:8c:
         91:c4:bb:cc:0c:e5:ad:7a:a0:22:7f:df:47:38:4a:2d:6c:d1:
         7f:71:1a:7c:ec:70:a9:b1:f0:4f:e4:0f:0c:53:fa:15:5e:fe:
         74:98:49:24:85:81:26:1c:91:14:47:b0:4c:63:8c:bb:a1:34:
         d4:c6:45:e8:0d:85:26:73:03:d0:a9:8c:64:6d:dc:71:92:e6:
         45:05:60:15:59:51:39:fc:58:14:6b:fe:d4:a4:ed:79:6b:08:
         0c:41:72:e7:37:22:06:09:be:23:e9:3f:44:9a:1e:e9:61:9d:
         cc:b1:90:5c:fc:3d:d2:8d:ac:42:3d:65:36:d4:b4:3d:40:28:
         8f:9b:10:cf:23:26:cc:4b:20:cb:90:1f:5d:8c:4c:34:ca:3c:
         d8:e5:37:d6:6f:a5:20:bd:34:eb:26:d9:ae:0d:e7:c5:9a:f7:
         a1:b4:21:91:33:6f:86:e8:58:bb:25:7c:74:0e:58:fe:75:1b:
         63:3f:ce:31:7c:9b:8f:1b:96:9e:c5:53:76:84:5b:9c:ad:91:
         fa:ac:ed:93:ba:5d:c8:21:53:c2:82:53:63:af:12:0d:50:87:
         11:1b:3d:54:52:96:8a:2c:9c:3d:92:1a:08:9a:05:2e:c7:93:
         a5:48:91:d3
-----BEGIN CERTIFICATE-----
MIIGCjCCBPKgAwIBAgIQUgDlqiVW/BqG7ZbJ1EszxzANBgkqhkiG9w0BAQUFADCB
yjELMAkGA1UEBhMCVVMxFzAVBgNVBAoTDlZlcmlTaWduLCBJbmMuMR8wHQYDVQQL
ExZWZXJpU2lnbiBUcnVzdCBOZXR3b3JrMTowOAYDVQQLEzEoYykgMjAwNiBWZXJp
U2lnbiwgSW5jLiAtIEZvciBhdXRob3JpemVkIHVzZSBvbmx5MUUwQwYDVQQDEzxW
ZXJpU2lnbiBDbGFzcyAzIFB1YmxpYyBQcmltYXJ5IENlcnRpZmljYXRpb24gQXV0
aG9yaXR5IC0gRzUwHhcNMTAwMjA4MDAwMDAwWhcNMjAwMjA3MjM1OTU5WjCBtDEL
MAkGA1UEBhMCVVMxFzAVBgNVBAoTDlZlcmlTaWduLCBJbmMuMR8wHQYDVQQLExZW
ZXJpU2lnbiBUcnVzdCBOZXR3b3JrMTswOQYDVQQLEzJUZXJtcyBvZiB1c2UgYXQg
aHR0cHM6Ly93d3cudmVyaXNpZ24uY29tL3JwYSAoYykxMDEuMCwGA1UEAxMlVmVy
aVNpZ24gQ2xhc3MgMyBDb2RlIFNpZ25pbmcgMjAxMCBDQTCCASIwDQYJKoZIhvcN
AQEBBQADggEPADCCAQoCggEBAPUjS16l14q7MunUV/fv5Mcmfq0ZmP6onX2U9jZr
ENd1gTB/BGh/yyt1Hs0dCIzfaZSnN6Oce4DgmeHuN01fzjsU7obU0PUnNbwlCzin
jGOdF6MIpauw+81qYoJM1SHaG9nx44Q7iipPhVuQAU/Jp3YQfycDfL6ufn3B3fkF
vBtInGnnwKQ8PEEAPt+W5cXklHHWVQHHACZKQDy1oSapDKdtgI6QJXvPvz8c6y+W
+uWHd8a1VrJ6O1QwUxvfYjT/HtH0WpMoheVMF05+W/2kk5l/383vpHXv7xX2R+f4
GXLYLjQaprSnTH69u08MPVfxMNamNo7WgHbXGS6lzX40LYkCAwEAAaOCAf4wggH6
MBIGA1UdEwEB/wQIMAYBAf8CAQAwcAYDVR0gBGkwZzBlBgtghkgBhvhFAQcXAzBW
MCgGCCsGAQUFBwIBFhxodHRwczovL3d3dy52ZXJpc2lnbi5jb20vY3BzMCoGCCsG
AQUFBwICMB4aHGh0dHBzOi8vd3d3LnZlcmlzaWduLmNvbS9ycGEwDgYDVR0PAQH/
BAQDAgEGMG0GCCsGAQUFBwEMBGEwX6FdoFswWTBXMFUWCWltYWdlL2dpZjAhMB8w
BwYFKw4DAhoEFI/l0xqGrI2Oa8PPgGrUSBgsexkuMCUWI2h0dHA6Ly9sb2dvLnZl
cmlzaWduLmNvbS92c2xvZ28uZ2lmMDQGA1UdHwQtMCswKaAnoCWGI2h0dHA6Ly9j
cmwudmVyaXNpZ24uY29tL3BjYTMtZzUuY3JsMDQGCCsGAQUFBwEBBCgwJjAkBggr
BgEFBQcwAYYYaHR0cDovL29jc3AudmVyaXNpZ24uY29tMB0GA1UdJQQWMBQGCCsG
AQUFBwMCBggrBgEFBQcDAzAoBgNVHREEITAfpB0wGzEZMBcGA1UEAxMQVmVyaVNp
Z25NUEtJLTItODAdBgNVHQ4EFgQUz5mp6nsm9EvJjo/X8AUm7+PSp50wHwYDVR0j
BBgwFoAUf9Nlp8Ld7LvwMAnzQzn6Aq8zMTMwDQYJKoZIhvcNAQEFBQADggEBAFYi
5jSkxGHLSLkBrVaoZA/ZjJHEu8wM5a16oCJ/30c4Si1s0X9xGnzscKmx8E/kDwxT
+hVe/nSYSSSFgSYckRRHsExjjLuhNNTGRegNhSZzA9CpjGRt3HGS5kUFYBVZUTn8
WBRr/tSk7XlrCAxBcuc3IgYJviPpP0SaHulhncyxkFz8PdKNrEI9ZTbUtD1AKI+b
EM8jJsxLIMuQH12MTDTKPNjlN9ZvpSC9NOsm2a4N58Wa96G0IZEzb4boWLslfHQO
WP51G2M/zjF8m48blp7FU3aEW5ytkfqs7ZO6XcghU8KCU2OvEg1QhxEbPVRSloos
nD2SGgiaBS7Hk6VIkdM=
-----END CERTIFICATE-----

