Certificate:
    Data:
        Version: 3 (0x2)
        Serial Number:
            28:ca:c6:87:0f:3d:5b:50:38:e1:87:4c:ce:3e:47:83
    Signature Algorithm: sha256WithRSAEncryption
        Issuer: C=CN, O=WoSign CA Limited, CN=WoSign Class 3 Code Signing CA G2
        Validity
            Not Before: Jul 22 00:48:05 2015 GMT
            Not After : Oct 22 00:48:05 2018 GMT
        Subject: C=CN, ST=\xE6\xB1\x9F\xE8\x8B\x8F\xE7\x9C\x81, L=\xE9\x95\x87\xE6\xB1\x9F\xE5\xB8\x82, O=\xE9\x95\x87\xE6\xB1\x9F\xE5\xBE\xAE\xE7\xAB\xAF\xE7\xBD\x91\xE7\xBB\x9C\xE7\xA7\x91\xE6\x8A\x80\xE6\x9C\x89\xE9\x99\x90\xE5\x85\xAC\xE5\x8F\xB8/emailAddress=9219172@qq.com, CN=\xE9\x95\x87\xE6\xB1\x9F\xE5\xBE\xAE\xE7\xAB\xAF\xE7\xBD\x91\xE7\xBB\x9C\xE7\xA7\x91\xE6\x8A\x80\xE6\x9C\x89\xE9\x99\x90\xE5\x85\xAC\xE5\x8F\xB8
        Subject Public Key Info:
            Public Key Algorithm: rsaEncryption
                Public-Key: (2048 bit)
                Modulus:
                    00:cb:30:63:56:3c:ab:e4:34:e5:66:a9:44:34:e6:
                    0f:f1:3b:03:c4:cf:be:5a:93:07:5b:0b:2d:15:dd:
                    ba:73:42:35:8b:d9:d2:50:b0:02:34:1e:ab:fc:7e:
                    e4:bf:49:48:5e:52:3f:25:96:04:c4:7f:f0:84:d5:
                    52:f2:6e:51:1e:97:4e:3f:05:f5:b9:5d:76:f5:a2:
                    7a:36:b3:80:cd:1d:fe:36:9a:3a:66:65:de:e3:fc:
                    64:a6:d3:e2:c1:c2:65:5a:72:ed:d2:a1:c1:6e:15:
                    f5:07:27:02:52:51:7b:ab:a5:51:3e:ca:ff:10:10:
                    38:61:89:7e:51:1c:c0:bc:ba:28:76:ea:90:42:86:
                    81:5e:6b:6c:29:52:2e:03:8c:9d:be:63:6d:51:ff:
                    53:e9:de:e6:b4:58:ac:81:cf:56:0e:5c:b7:af:3c:
                    b7:7a:d2:82:5b:9b:a8:3d:9b:1e:9c:04:78:ed:ae:
                    cd:cd:05:bd:63:0e:a7:19:16:ff:a8:09:50:d8:5a:
                    36:a4:69:29:d9:cf:99:1e:ec:10:28:f8:5e:94:d1:
                    5c:67:3f:b9:9a:a5:8a:b5:7d:2f:12:2a:bf:20:8b:
                    9b:3c:7e:78:c6:2d:10:a5:76:26:1e:9a:4b:10:dc:
                    52:ca:df:c2:8d:9e:8e:ea:a4:fc:aa:a6:dd:c7:2a:
                    88:bb
                Exponent: 65537 (0x10001)
        X509v3 extensions:
            X509v3 Key Usage: critical
                Digital Signature
            X509v3 Extended Key Usage: 
                Code Signing
            X509v3 Basic Constraints: 
                CA:FALSE
            X509v3 Subject Key Identifier: 
                53:D6:87:E7:83:0F:43:AF:B9:9D:60:85:8C:91:2E:C0:F9:A9:04:E9
            X509v3 Authority Key Identifier: 
                keyid:AE:94:18:AE:18:3B:ED:FC:76:EE:3A:95:55:73:F8:F4:B8:84:2E:01

            Authority Information Access: 
                OCSP - URI:http://ocsp6.wosign.com/ca6/code3
                CA Issuers - URI:http://aia6.wosign.com/ca6.code3.cer

            X509v3 CRL Distribution Points: 

                Full Name:
                  URI:http://crls6.wosign.com/ca6-code3.crl

            X509v3 Certificate Policies: 
                Policy: 2.23.140.1.4
                Policy: 1.3.6.1.4.1.36305.6.3.3.1
                  CPS: http://www.wosign.com/policy/

    Signature Algorithm: sha256WithRSAEncryption
         81:c3:24:98:c0:ec:fc:24:57:2e:88:2d:18:4f:fe:b3:3d:2e:
         bd:ec:9c:dc:46:d9:53:cf:46:df:9b:67:28:87:fa:6b:4c:98:
         71:7d:d0:b7:65:59:42:68:e1:a5:61:dc:ac:21:18:95:ab:3f:
         9a:cb:9a:4f:ed:aa:ec:06:ce:ba:20:e3:b5:e5:44:0a:ef:f3:
         13:9b:a4:1d:1a:cb:7d:28:aa:c8:59:39:70:f8:a5:f3:ef:74:
         ed:00:5a:29:2a:ec:44:4f:f2:83:1d:3e:a4:97:c1:11:fe:c0:
         c8:b8:ac:ae:10:3d:d8:ab:f7:73:a4:78:e3:92:90:67:3e:f1:
         a3:f9:85:5c:6e:4b:18:e4:76:4b:12:c4:44:e1:d6:7e:a9:e9:
         fd:49:76:d3:8d:c5:18:e6:a4:77:fb:9b:ca:cc:06:fb:c2:1b:
         e6:12:70:59:10:6a:22:1d:b1:7c:0b:fe:7b:99:c2:33:29:b1:
         98:10:aa:62:e4:d7:a0:12:de:fa:0e:80:3e:20:24:76:46:54:
         e6:bd:5f:69:4d:ae:92:d0:07:bb:f6:be:b6:62:7e:69:f5:91:
         a1:71:28:ee:19:64:0f:c6:c6:4f:a6:1a:bc:67:a7:97:2a:70:
         4a:df:65:02:e6:fe:20:ce:75:6b:07:99:22:07:63:8d:af:ce:
         d1:b4:eb:75
-----BEGIN CERTIFICATE-----
MIIFAjCCA+qgAwIBAgIQKMrGhw89W1A44YdMzj5HgzANBgkqhkiG9w0BAQsFADBV
MQswCQYDVQQGEwJDTjEaMBgGA1UEChMRV29TaWduIENBIExpbWl0ZWQxKjAoBgNV
BAMTIVdvU2lnbiBDbGFzcyAzIENvZGUgU2lnbmluZyBDQSBHMjAeFw0xNTA3MjIw
MDQ4MDVaFw0xODEwMjIwMDQ4MDVaMIGyMQswCQYDVQQGEwJDTjESMBAGA1UECAwJ
5rGf6IuP55yBMRIwEAYDVQQHDAnplYfmsZ/luIIxLTArBgNVBAoMJOmVh+axn+W+
ruerr+e9kee7nOenkeaKgOaciemZkOWFrOWPuDEdMBsGCSqGSIb3DQEJARYOOTIx
OTE3MkBxcS5jb20xLTArBgNVBAMMJOmVh+axn+W+ruerr+e9kee7nOenkeaKgOac
iemZkOWFrOWPuDCCASIwDQYJKoZIhvcNAQEBBQADggEPADCCAQoCggEBAMswY1Y8
q+Q05WapRDTmD/E7A8TPvlqTB1sLLRXdunNCNYvZ0lCwAjQeq/x+5L9JSF5SPyWW
BMR/8ITVUvJuUR6XTj8F9blddvWiejazgM0d/jaaOmZl3uP8ZKbT4sHCZVpy7dKh
wW4V9QcnAlJRe6ulUT7K/xAQOGGJflEcwLy6KHbqkEKGgV5rbClSLgOMnb5jbVH/
U+ne5rRYrIHPVg5ct688t3rSglubqD2bHpwEeO2uzc0FvWMOpxkW/6gJUNhaNqRp
KdnPmR7sECj4XpTRXGc/uZqlirV9LxIqvyCLmzx+eMYtEKV2Jh6aSxDcUsrfwo2e
juqk/Kqm3ccqiLsCAwEAAaOCAW4wggFqMA4GA1UdDwEB/wQEAwIHgDATBgNVHSUE
DDAKBggrBgEFBQcDAzAJBgNVHRMEAjAAMB0GA1UdDgQWBBRT1ofngw9Dr7mdYIWM
kS7A+akE6TAfBgNVHSMEGDAWgBSulBiuGDvt/HbuOpVVc/j0uIQuATBvBggrBgEF
BQcBAQRjMGEwLQYIKwYBBQUHMAGGIWh0dHA6Ly9vY3NwNi53b3NpZ24uY29tL2Nh
Ni9jb2RlMzAwBggrBgEFBQcwAoYkaHR0cDovL2FpYTYud29zaWduLmNvbS9jYTYu
Y29kZTMuY2VyMDYGA1UdHwQvMC0wK6ApoCeGJWh0dHA6Ly9jcmxzNi53b3NpZ24u
Y29tL2NhNi1jb2RlMy5jcmwwTwYDVR0gBEgwRjAHBgVngQwBBDA7BgwrBgEEAYKb
UQYDAwEwKzApBggrBgEFBQcCARYdaHR0cDovL3d3dy53b3NpZ24uY29tL3BvbGlj
eS8wDQYJKoZIhvcNAQELBQADggEBAIHDJJjA7PwkVy6ILRhP/rM9Lr3snNxG2VPP
Rt+bZyiH+mtMmHF90LdlWUJo4aVh3KwhGJWrP5rLmk/tquwGzrog47XlRArv8xOb
pB0ay30oqshZOXD4pfPvdO0AWikq7ERP8oMdPqSXwRH+wMi4rK4QPdir93OkeOOS
kGc+8aP5hVxuSxjkdksSxETh1n6p6f1JdtONxRjmpHf7m8rMBvvCG+YScFkQaiId
sXwL/nuZwjMpsZgQqmLk16AS3voOgD4gJHZGVOa9X2lNrpLQB7v2vrZifmn1kaFx
KO4ZZA/Gxk+mGrxnp5cqcErfZQLm/iDOdWsHmSIHY42vztG063U=
-----END CERTIFICATE-----

Certificate:
    Data:
        Version: 3 (0x2)
        Serial Number:
            5e:68:d6:11:71:94:63:50:56:00:68:f3:3e:c9:c5:91
    Signature Algorithm: sha1WithRSAEncryption
        Issuer: C=CN, O=WoSign CA Limited, CN=Certification Authority of WoSign
        Validity
            Not Before: Aug  8 01:00:01 2009 GMT
            Not After : Aug  8 01:00:01 2039 GMT
        Subject: C=CN, O=WoSign CA Limited, CN=Certification Authority of WoSign
        Subject Public Key Info:
            Public Key Algorithm: rsaEncryption
                Public-Key: (4096 bit)
                Modulus:
                    00:bd:ca:8d:ac:b8:91:15:56:97:7b:6b:5c:7a:c2:
                    de:6b:d9:a1:b0:c3:10:23:fa:a7:a1:b2:cc:31:fa:
                    3e:d9:a6:29:6f:16:3d:e0:6b:f8:b8:40:5f:db:39:
                    a8:00:7a:8b:a0:4d:54:7d:c2:22:78:fc:8e:09:b8:
                    a8:85:d7:cc:95:97:4b:74:d8:9e:7e:f0:00:e4:0e:
                    89:ae:49:28:44:1a:10:99:32:0f:25:88:53:a4:0d:
                    b3:0f:12:08:16:0b:03:71:27:1c:7f:e1:db:d2:fd:
                    67:68:c4:05:5d:0a:0e:5d:70:d7:d8:97:a0:bc:53:
                    41:9a:91:8d:f4:9e:36:66:7a:7e:56:c1:90:5f:e6:
                    b1:68:20:36:a4:8c:24:2c:2c:47:0b:59:76:66:30:
                    b5:be:de:ed:8f:f8:9d:d3:bb:01:30:e6:f2:f3:0e:
                    e0:2c:92:80:f3:85:f9:28:8a:b4:54:2e:9a:ed:f7:
                    76:fc:15:68:16:eb:4a:6c:eb:2e:12:8f:d4:cf:fe:
                    0c:c7:5c:1d:0b:7e:05:32:be:5e:b0:09:2a:42:d5:
                    c9:4e:90:b3:59:0d:bb:7a:7e:cd:d5:08:5a:b4:7f:
                    d8:1c:69:11:f9:27:0f:7b:06:af:54:83:18:7b:e1:
                    dd:54:7a:51:68:6e:77:fc:c6:bf:52:4a:66:46:a1:
                    b2:67:1a:bb:a3:4f:77:a0:be:5d:ff:fc:56:0b:43:
                    72:77:90:ca:9e:f9:f2:39:f5:0d:a9:f4:ea:d7:e7:
                    b3:10:2f:30:42:37:21:cc:30:70:c9:86:98:0f:cc:
                    58:4d:83:bb:7d:e5:1a:a5:37:8d:b6:ac:32:97:00:
                    3a:63:71:24:1e:9e:37:c4:ff:74:d4:37:c0:e2:fe:
                    88:46:60:11:dd:08:3f:50:36:ab:b8:7a:a4:95:62:
                    6a:6e:b0:ca:6a:21:5a:69:f3:f3:fb:1d:70:39:95:
                    f3:a7:6e:a6:81:89:a1:88:c5:3b:71:ca:a3:52:ee:
                    83:bb:fd:a0:77:f4:e4:6f:e7:42:db:6d:4a:99:8a:
                    34:48:bc:17:dc:e4:80:08:22:b6:f2:31:c0:3f:04:
                    3e:eb:9f:20:79:d6:b8:06:64:64:02:31:d7:a9:cd:
                    52:fb:84:45:69:09:00:2a:dc:55:8b:c4:06:46:4b:
                    c0:4a:1d:09:5b:39:28:fd:a9:ab:ce:00:f9:2e:48:
                    4b:26:e6:30:4c:a5:58:ca:b4:44:82:4f:e7:91:1e:
                    33:c3:b0:93:ff:11:fc:81:d2:ca:1f:71:29:dd:76:
                    4f:92:25:af:1d:81:b7:0f:2f:8c:c3:06:cc:2f:27:
                    a3:4a:e4:0e:99:ba:7c:1e:45:1f:7f:aa:19:45:96:
                    fd:fc:3d
                Exponent: 65537 (0x10001)
        X509v3 extensions:
            X509v3 Key Usage: critical
                Certificate Sign, CRL Sign
            X509v3 Basic Constraints: critical
                CA:TRUE
            X509v3 Subject Key Identifier: 
                E1:66:CF:0E:D1:F1:B3:4B:B7:06:20:14:FE:87:12:D5:F6:FE:FB:3E
    Signature Algorithm: sha1WithRSAEncryption
         a8:cb:72:40:b2:76:c1:7e:7b:fc:ad:64:e3:32:7b:cc:3c:b6:
         5d:46:d3:f5:2c:e2:70:5d:c8:2e:d8:06:7d:98:d1:0b:21:a0:
         89:59:24:01:9d:f9:af:09:7d:0a:23:82:34:d5:fc:7c:72:99:
         b9:a3:d7:54:f4:ea:52:70:0e:c5:f5:d6:3b:e1:3a:09:32:e6:
         21:39:93:bd:b3:15:ea:4f:6a:f4:f5:8b:3f:2f:7c:8d:58:2e:
         c5:e1:39:a0:3e:c7:3d:4a:73:9e:40:7a:c0:2b:61:a9:67:c9:
         f3:24:b9:b3:6d:55:2c:5a:1d:9e:25:72:ce:0b:ad:aa:c7:55:
         62:0b:be:fb:63:b3:61:44:23:a3:cb:e1:1a:0e:f7:9a:06:4d:
         de:d4:23:4e:21:96:5b:39:5b:57:1d:2f:5d:08:5e:09:79:ff:
         7c:97:b5:4d:83:ae:0d:d6:e6:a3:79:e0:33:d0:99:96:02:30:
         a7:3e:ff:d2:a3:43:3f:05:5a:06:ea:44:02:da:7c:f8:48:d0:
         33:a9:f9:07:c7:95:e1:f5:3e:f5:5d:71:ba:f2:95:a9:74:88:
         61:59:e3:bf:ca:5a:13:ba:72:b4:8c:5d:36:87:e9:a6:c5:3c:
         13:bf:de:d0:44:26:ee:b7:ec:2e:70:fa:d7:9d:b7:ac:e5:c5:
         40:5a:e6:d7:6c:7b:2c:c3:56:9b:47:cd:0b:ce:fa:1b:b4:21:
         d7:b7:66:b8:f4:25:30:8b:5c:0d:b9:ea:67:b2:f4:6d:ae:d5:
         a1:9e:4f:d8:9f:e9:27:02:b0:1d:06:d6:8f:e3:fb:48:12:9f:
         7f:11:a1:10:3e:4c:51:3a:96:b0:d1:13:f1:c7:d8:26:ae:3a:
         ca:91:c4:69:9d:df:01:29:64:51:6f:68:da:14:ec:08:41:97:
         90:8d:d0:b2:80:f2:cf:c2:3d:bf:91:68:c5:80:67:1e:c4:60:
         13:55:d5:61:99:57:7c:ba:95:0f:61:49:3a:ca:75:bc:c9:0a:
         93:3f:67:0e:12:f2:28:e2:31:1b:c0:57:16:df:08:7c:19:c1:
         7e:0f:1f:85:1e:0a:36:7c:5b:7e:27:bc:7a:bf:e0:db:f4:da:
         52:bd:de:0c:54:70:31:91:43:95:c8:bc:f0:3e:dd:09:7e:30:
         64:50:ed:7f:01:a4:33:67:4d:68:4f:be:15:ef:b0:f6:02:11:
         a2:1b:13:25:3a:dc:c2:59:f1:e3:5c:46:bb:67:2c:02:46:ea:
         1e:48:a6:e6:5b:d9:b5:bc:51:a2:92:96:db:aa:c6:37:22:a6:
         fe:cc:20:74:a3:2d:a9:2e:6b:cb:c0:82:11:21:b5:93:79:ee:
         44:86:be:d7:1e:e4:1e:fb
-----BEGIN CERTIFICATE-----
MIIFdjCCA16gAwIBAgIQXmjWEXGUY1BWAGjzPsnFkTANBgkqhkiG9w0BAQUFADBV
MQswCQYDVQQGEwJDTjEaMBgGA1UEChMRV29TaWduIENBIExpbWl0ZWQxKjAoBgNV
BAMTIUNlcnRpZmljYXRpb24gQXV0aG9yaXR5IG9mIFdvU2lnbjAeFw0wOTA4MDgw
MTAwMDFaFw0zOTA4MDgwMTAwMDFaMFUxCzAJBgNVBAYTAkNOMRowGAYDVQQKExFX
b1NpZ24gQ0EgTGltaXRlZDEqMCgGA1UEAxMhQ2VydGlmaWNhdGlvbiBBdXRob3Jp
dHkgb2YgV29TaWduMIICIjANBgkqhkiG9w0BAQEFAAOCAg8AMIICCgKCAgEAvcqN
rLiRFVaXe2tcesLea9mhsMMQI/qnobLMMfo+2aYpbxY94Gv4uEBf2zmoAHqLoE1U
fcIiePyOCbiohdfMlZdLdNiefvAA5A6JrkkoRBoQmTIPJYhTpA2zDxIIFgsDcScc
f+Hb0v1naMQFXQoOXXDX2JegvFNBmpGN9J42Znp+VsGQX+axaCA2pIwkLCxHC1l2
ZjC1vt7tj/id07sBMOby8w7gLJKA84X5KIq0VC6a7fd2/BVoFutKbOsuEo/Uz/4M
x1wdC34FMr5esAkqQtXJTpCzWQ27en7N1QhatH/YHGkR+ScPewavVIMYe+HdVHpR
aG53/Ma/UkpmRqGyZxq7o093oL5d//xWC0Nyd5DKnvnyOfUNqfTq1+ezEC8wQjch
zDBwyYaYD8xYTYO7feUapTeNtqwylwA6Y3EkHp43xP901DfA4v6IRmAR3Qg/UDar
uHqklWJqbrDKaiFaafPz+x1wOZXzp26mgYmhiMU7ccqjUu6Du/2gd/Tkb+dC221K
mYo0SLwX3OSACCK28jHAPwQ+658geda4BmRkAjHXqc1S+4RFaQkAKtxVi8QGRkvA
Sh0JWzko/amrzgD5LkhLJuYwTKVYyrREgk/nkR4zw7CT/xH8gdLKH3Ep3XZPkiWv
HYG3Dy+MwwbMLyejSuQOmbp8HkUff6oZRZb9/D0CAwEAAaNCMEAwDgYDVR0PAQH/
BAQDAgEGMA8GA1UdEwEB/wQFMAMBAf8wHQYDVR0OBBYEFOFmzw7R8bNLtwYgFP6H
EtX2/vs+MA0GCSqGSIb3DQEBBQUAA4ICAQCoy3JAsnbBfnv8rWTjMnvMPLZdRtP1
LOJwXcgu2AZ9mNELIaCJWSQBnfmvCX0KI4I01fx8cpm5o9dU9OpScA7F9dY74ToJ
MuYhOZO9sxXqT2r09Ys/L3yNWC7F4TmgPsc9SnOeQHrAK2GpZ8nzJLmzbVUsWh2e
JXLOC62qx1ViC777Y7NhRCOjy+EaDveaBk3e1CNOIZZbOVtXHS9dCF4Jef98l7VN
g64N1uajeeAz0JmWAjCnPv/So0M/BVoG6kQC2nz4SNAzqfkHx5Xh9T71XXG68pWp
dIhhWeO/yloTunK0jF02h+mmxTwTv97QRCbut+wucPrXnbes5cVAWubXbHssw1ab
R80LzvobtCHXt2a49CUwi1wNuepnsvRtrtWhnk/Yn+knArAdBtaP4/tIEp9/EaEQ
PkxROpaw0RPxx9gmrjrKkcRpnd8BKWRRb2jaFOwIQZeQjdCygPLPwj2/kWjFgGce
xGATVdVhmVd8upUPYUk6ynW8yQqTP2cOEvIo4jEbwFcW3wh8GcF+Dx+FHgo2fFt+
J7x6v+Db9NpSvd4MVHAxkUOVyLzwPt0JfjBkUO1/AaQzZ01oT74V77D2AhGiGxMl
OtzCWfHjXEa7ZywCRuoeSKbmW9m1vFGikpbbqsY3Iqb+zCB0oy2pLmvLwIIRIbWT
ee5Ehr7XHuQe+w==
-----END CERTIFICATE-----

Certificate:
    Data:
        Version: 3 (0x2)
        Serial Number:
            37:a6:0e:92:5f:23:f8:0c:fd:cd:97:65:92:98:c3:54
    Signature Algorithm: sha256WithRSAEncryption
        Issuer: C=CN, O=WoSign CA Limited, CN=Certification Authority of WoSign
        Validity
            Not Before: Nov  8 00:58:58 2014 GMT
            Not After : Nov  8 00:58:58 2029 GMT
        Subject: C=CN, O=WoSign CA Limited, CN=WoSign Class 3 Code Signing CA G2
        Subject Public Key Info:
            Public Key Algorithm: rsaEncryption
                Public-Key: (2048 bit)
                Modulus:
                    00:9d:33:e2:aa:da:28:f0:f0:31:9b:ba:34:c7:52:
                    d5:a2:99:74:30:d5:54:2d:76:0d:eb:42:e1:78:df:
                    3f:9c:4f:f4:c6:f9:9d:bb:a4:a4:bf:2c:b7:66:09:
                    f4:8c:0d:31:32:53:ae:ae:fd:a7:30:b0:26:3b:bb:
                    03:dd:a1:d3:fd:fa:54:19:ce:26:2d:d4:ce:41:d8:
                    b8:50:4b:1b:5a:44:c3:3e:c9:47:5e:a0:0e:eb:1e:
                    48:f7:ca:c5:01:2f:8f:a3:2b:ca:71:fa:e4:4c:7f:
                    ed:ff:4d:31:09:1b:74:42:97:98:6b:e9:7f:3d:ef:
                    3b:03:51:99:e7:bb:6c:15:71:3c:57:b7:19:3b:54:
                    bb:02:f9:03:f1:a1:b8:17:25:88:34:88:87:45:69:
                    58:4a:b2:62:a9:5c:37:7f:1d:3c:99:54:8c:08:f9:
                    19:04:da:85:25:b9:be:ca:61:f6:00:57:40:d6:3a:
                    f4:ec:69:b2:e3:66:05:b9:3c:f4:33:05:3f:3e:d3:
                    46:44:ef:e8:e3:6f:d9:35:3c:f1:d2:8c:7b:ed:90:
                    1c:e3:d2:31:e4:85:7f:af:6e:ee:9a:40:60:a3:47:
                    68:62:6f:aa:f8:ad:9e:a4:ee:f5:b7:32:de:b6:5d:
                    79:54:18:a4:58:18:0b:02:1f:36:a1:1c:90:d7:01:
                    20:8d
                Exponent: 65537 (0x10001)
        X509v3 extensions:
            X509v3 Key Usage: critical
                Certificate Sign, CRL Sign
            X509v3 Extended Key Usage: 
                Code Signing, Microsoft Commercial Code Signing
            X509v3 Basic Constraints: critical
                CA:TRUE, pathlen:0
            X509v3 CRL Distribution Points: 

                Full Name:
                  URI:http://crls1.wosign.com/ca1.crl

            Authority Information Access: 
                OCSP - URI:http://ocsp1.wosign.com/ca1
                CA Issuers - URI:http://aia1.wosign.com/ca1g2-code3.cer

            X509v3 Subject Key Identifier: 
                AE:94:18:AE:18:3B:ED:FC:76:EE:3A:95:55:73:F8:F4:B8:84:2E:01
            X509v3 Authority Key Identifier: 
                keyid:E1:66:CF:0E:D1:F1:B3:4B:B7:06:20:14:FE:87:12:D5:F6:FE:FB:3E

            X509v3 Certificate Policies: 
                Policy: 1.3.6.1.4.1.36305.6.3.3.1
                  CPS: http://www.wosign.com/policy/

    Signature Algorithm: sha256WithRSAEncryption
         1c:89:89:7f:e3:4a:fa:b3:73:d9:0a:97:ea:21:22:91:46:5f:
         9f:6f:eb:14:c4:84:04:ae:6c:e6:53:31:54:dc:c2:27:b3:25:
         1c:52:b9:f4:8a:bc:a8:1f:1e:5c:a2:9e:68:20:f2:81:72:f1:
         28:5b:8d:0d:ab:00:69:ed:cb:66:91:24:8c:da:33:c4:ee:99:
         10:14:26:71:1d:64:57:92:09:5b:44:69:df:c9:b8:a8:72:70:
         d4:75:de:02:e8:5b:a5:63:5a:17:dd:23:9d:66:6b:27:bd:18:
         d6:13:9e:cb:ad:c7:7f:01:22:81:a8:e3:92:aa:c0:b4:d5:fc:
         e6:6a:20:3f:cb:f4:ea:8e:04:aa:ba:81:d2:28:9b:de:1f:b4:
         27:3b:fa:c6:67:a4:f7:93:a0:19:a4:e3:24:b8:43:9b:eb:62:
         4b:e9:bb:8f:8a:a0:3e:7f:1b:9c:81:34:e2:5e:4a:a7:df:d6:
         28:cb:e7:99:06:35:91:34:c0:07:7d:b8:fb:ec:eb:d0:65:01:
         f5:a0:a6:f3:e4:32:41:bf:b8:1b:36:c7:16:8b:a9:80:f1:4e:
         0f:a8:3d:95:5b:69:58:96:a0:f7:90:ff:3a:42:bc:48:de:a5:
         0f:60:c2:3f:c7:bf:3e:8d:23:7e:64:68:07:22:0e:ad:8a:55:
         b2:92:c4:e8:09:0a:b3:71:80:67:09:c7:8d:b2:c5:fa:a5:ce:
         5b:61:cc:be:47:3d:55:4f:f0:89:1a:6b:e3:4d:1e:e7:dd:d3:
         04:d7:38:d0:37:dc:3a:96:f6:4c:71:f3:a6:41:12:28:24:2b:
         3f:fe:aa:11:1e:36:1e:d8:ed:54:32:e3:ab:79:43:41:e3:70:
         05:12:98:73:33:a6:b7:40:72:4f:78:19:94:f3:7d:29:a3:0a:
         c3:aa:71:67:a1:63:05:d4:e6:97:c2:56:d2:b6:e4:82:41:b0:
         26:f6:f3:e7:38:49:93:61:1b:92:0e:61:70:72:99:96:75:5d:
         b7:0b:cc:ab:28:ec:bc:17:76:14:0b:dc:f9:f3:d3:4f:39:e7:
         bb:57:dd:0f:36:44:bb:30:eb:c9:b4:3e:5a:72:f3:d2:45:46:
         89:76:c9:ce:a8:aa:16:c0:90:0f:19:09:c0:86:44:93:2c:56:
         63:fc:3f:64:7b:7c:b3:0b:11:8b:7a:9a:61:2c:81:fd:b5:2a:
         21:4e:f6:a7:e2:3f:3f:cb:72:f6:57:d9:83:9b:09:bf:78:85:
         91:16:d6:35:de:95:37:bf:b0:87:e3:7f:96:ba:d6:c6:92:3d:
         05:ed:b1:66:aa:0c:72:fd:d0:f1:d1:7a:22:a0:64:38:3c:27:
         40:c4:8b:88:81:7b:db:75
-----BEGIN CERTIFICATE-----
MIIFpjCCA46gAwIBAgIQN6YOkl8j+Az9zZdlkpjDVDANBgkqhkiG9w0BAQsFADBV
MQswCQYDVQQGEwJDTjEaMBgGA1UEChMRV29TaWduIENBIExpbWl0ZWQxKjAoBgNV
BAMTIUNlcnRpZmljYXRpb24gQXV0aG9yaXR5IG9mIFdvU2lnbjAeFw0xNDExMDgw
MDU4NThaFw0yOTExMDgwMDU4NThaMFUxCzAJBgNVBAYTAkNOMRowGAYDVQQKExFX
b1NpZ24gQ0EgTGltaXRlZDEqMCgGA1UEAxMhV29TaWduIENsYXNzIDMgQ29kZSBT
aWduaW5nIENBIEcyMIIBIjANBgkqhkiG9w0BAQEFAAOCAQ8AMIIBCgKCAQEAnTPi
qtoo8PAxm7o0x1LVopl0MNVULXYN60LheN8/nE/0xvmdu6Skvyy3Zgn0jA0xMlOu
rv2nMLAmO7sD3aHT/fpUGc4mLdTOQdi4UEsbWkTDPslHXqAO6x5I98rFAS+PoyvK
cfrkTH/t/00xCRt0QpeYa+l/Pe87A1GZ57tsFXE8V7cZO1S7AvkD8aG4FyWINIiH
RWlYSrJiqVw3fx08mVSMCPkZBNqFJbm+ymH2AFdA1jr07Gmy42YFuTz0MwU/PtNG
RO/o42/ZNTzx0ox77ZAc49Ix5IV/r27umkBgo0doYm+q+K2epO71tzLetl15VBik
WBgLAh82oRyQ1wEgjQIDAQABo4IBcDCCAWwwDgYDVR0PAQH/BAQDAgEGMB8GA1Ud
JQQYMBYGCCsGAQUFBwMDBgorBgEEAYI3AgEWMBIGA1UdEwEB/wQIMAYBAf8CAQAw
MAYDVR0fBCkwJzAloCOgIYYfaHR0cDovL2NybHMxLndvc2lnbi5jb20vY2ExLmNy
bDBrBggrBgEFBQcBAQRfMF0wJwYIKwYBBQUHMAGGG2h0dHA6Ly9vY3NwMS53b3Np
Z24uY29tL2NhMTAyBggrBgEFBQcwAoYmaHR0cDovL2FpYTEud29zaWduLmNvbS9j
YTFnMi1jb2RlMy5jZXIwHQYDVR0OBBYEFK6UGK4YO+38du46lVVz+PS4hC4BMB8G
A1UdIwQYMBaAFOFmzw7R8bNLtwYgFP6HEtX2/vs+MEYGA1UdIAQ/MD0wOwYMKwYB
BAGCm1EGAwMBMCswKQYIKwYBBQUHAgEWHWh0dHA6Ly93d3cud29zaWduLmNvbS9w
b2xpY3kvMA0GCSqGSIb3DQEBCwUAA4ICAQAciYl/40r6s3PZCpfqISKRRl+fb+sU
xIQErmzmUzFU3MInsyUcUrn0iryoHx5cop5oIPKBcvEoW40NqwBp7ctmkSSM2jPE
7pkQFCZxHWRXkglbRGnfybiocnDUdd4C6FulY1oX3SOdZmsnvRjWE57Lrcd/ASKB
qOOSqsC01fzmaiA/y/TqjgSquoHSKJveH7QnO/rGZ6T3k6AZpOMkuEOb62JL6buP
iqA+fxucgTTiXkqn39Yoy+eZBjWRNMAHfbj77OvQZQH1oKbz5DJBv7gbNscWi6mA
8U4PqD2VW2lYlqD3kP86QrxI3qUPYMI/x78+jSN+ZGgHIg6tilWyksToCQqzcYBn
CceNssX6pc5bYcy+Rz1VT/CJGmvjTR7n3dME1zjQN9w6lvZMcfOmQRIoJCs//qoR
HjYe2O1UMuOreUNB43AFEphzM6a3QHJPeBmU830powrDqnFnoWMF1OaXwlbStuSC
QbAm9vPnOEmTYRuSDmFwcpmWdV23C8yrKOy8F3YUC9z589NPOee7V90PNkS7MOvJ
tD5acvPSRUaJdsnOqKoWwJAPGQnAhkSTLFZj/D9ke3yzCxGLepphLIH9tSohTvan
4j8/y3L2V9mDmwm/eIWRFtY13pU3v7CH43+WutbGkj0F7bFmqgxy/dDx0XoioGQ4
PCdAxIuIgXvbdQ==
-----END CERTIFICATE-----

