Certificate:
    Data:
        Version: 3 (0x2)
        Serial Number:
            04:00:00:00:00:01:2f:4e:e1:52:d7
    Signature Algorithm: sha1WithRSAEncryption
        Issuer: C=BE, O=GlobalSign nv-sa, OU=Root CA, CN=GlobalSign Root CA
        Validity
            Not Before: Apr 13 10:00:00 2011 GMT
            Not After : Jan 28 12:00:00 2028 GMT
        Subject: C=BE, O=GlobalSign nv-sa, CN=GlobalSign Timestamping CA - G2
        Subject Public Key Info:
            Public Key Algorithm: rsaEncryption
                Public-Key: (2048 bit)
                Modulus:
                    00:94:ef:65:f8:b5:57:9f:a0:53:0d:34:06:eb:09:
                    1f:b7:47:18:6a:cb:f0:5b:e4:ff:27:a5:34:d1:f7:
                    89:1a:bf:9e:b1:cd:12:41:6e:66:d4:81:a0:85:8b:
                    64:5a:46:2f:99:a0:8d:77:b1:e2:bc:5c:dd:22:d7:
                    6a:67:d0:bb:e8:ca:74:de:8b:4f:0d:b0:52:e5:90:
                    5b:eb:47:0e:f1:e7:9f:9c:0b:90:65:3e:17:96:30:
                    45:72:6d:39:a1:17:36:ca:b9:a0:8c:1b:4f:08:19:
                    f6:81:31:ad:61:16:a4:62:e6:b4:40:9e:c3:fc:fb:
                    95:f6:fb:b5:2e:95:81:98:e0:ef:c5:eb:d8:02:59:
                    78:77:f7:aa:e3:52:6b:50:91:29:c5:fc:f7:cd:93:
                    65:d2:60:61:22:f2:06:fb:32:dd:16:51:fa:0e:fd:
                    8a:30:f0:17:09:a7:bb:f3:04:ae:ab:90:e7:6c:df:
                    7a:a9:f4:ef:c4:62:27:5f:6f:99:6d:38:74:aa:11:
                    8b:da:df:c7:14:4c:e9:85:b2:ec:c2:7d:4a:26:8f:
                    e7:56:ba:a6:e0:cf:92:53:80:74:f4:03:ec:68:b2:
                    60:bc:84:20:00:83:1b:a1:ee:b4:74:05:c1:29:8e:
                    62:d0:47:b1:fa:f0:53:cc:18:f9:2e:3b:f9:70:7e:
                    b4:25
                Exponent: 65537 (0x10001)
        X509v3 extensions:
            X509v3 Key Usage: critical
                Certificate Sign, CRL Sign
            X509v3 Basic Constraints: critical
                CA:TRUE, pathlen:0
            X509v3 Subject Key Identifier: 
                46:D8:3E:FF:DC:E3:BE:FF:83:E6:F4:85:9B:B0:DD:6A:D6:14:A9:C1
            X509v3 Certificate Policies: 
                Policy: X509v3 Any Policy
                  CPS: https://www.globalsign.com/repository/

            X509v3 CRL Distribution Points: 

                Full Name:
                  URI:http://crl.globalsign.net/root.crl

            X509v3 Authority Key Identifier: 
                keyid:60:7B:66:1A:45:0D:97:CA:89:50:2F:7D:04:CD:34:A8:FF:FC:FD:4B

    Signature Algorithm: sha1WithRSAEncryption
         4e:5e:56:90:1e:46:b4:d9:49:31:f3:bb:17:39:28:1b:c2:16:
         dd:fd:41:dc:09:05:04:9b:6f:b2:a2:9a:d6:99:2e:40:99:00:
         55:b5:ea:3f:a5:20:76:d3:86:34:d4:17:cc:55:3a:c7:82:ee:
         ef:a8:ba:bc:d8:06:9f:15:50:df:cd:16:7b:52:3a:02:d7:19:
         1a:fd:af:f0:78:5c:e0:4b:c5:18:df:3a:24:1e:da:ac:b8:a9:
         58:04:02:07:30:db:b0:12:5e:fe:31:be:f0:04:48:f4:f0:70:
         f8:3a:5e:56:83:cf:3d:fb:0d:bc:f4:c5:ed:97:9d:b9:d4:db:
         a5:27:84:e3:38:9b:8b:a7:35:86:44:20:a4:3b:6d:a4:6a:0b:
         a1:83:fd:28:eb:da:ef:28:f6:cc:88:5d:fb:0a:3b:00:ab:e0:
         21:eb:e2:2f:35:6c:0f:8e:34:45:97:eb:a2:f7:99:33:35:7e:
         cb:9a:8a:bb:45:4d:e7:3f:9f:c2:d9:8a:fa:65:b2:6e:c7:7e:
         65:ff:e8:92:e1:2c:31:a2:f7:b0:27:36:48:8f:26:6f:3b:ee:
         4d:76:1f:79:c3:e5:7f:96:35:bc:2d:0e:cc:01:b0:8e:7f:ff:
         51:80:80:a7:92:d4:b3:44:46:64:8c:87:4f:16:63:07:31:4b:
         63:b0:df:f3
-----BEGIN CERTIFICATE-----
MIIEFDCCAvygAwIBAgILBAAAAAABL07hUtcwDQYJKoZIhvcNAQEFBQAwVzELMAkG
A1UEBhMCQkUxGTAXBgNVBAoTEEdsb2JhbFNpZ24gbnYtc2ExEDAOBgNVBAsTB1Jv
b3QgQ0ExGzAZBgNVBAMTEkdsb2JhbFNpZ24gUm9vdCBDQTAeFw0xMTA0MTMxMDAw
MDBaFw0yODAxMjgxMjAwMDBaMFIxCzAJBgNVBAYTAkJFMRkwFwYDVQQKExBHbG9i
YWxTaWduIG52LXNhMSgwJgYDVQQDEx9HbG9iYWxTaWduIFRpbWVzdGFtcGluZyBD
QSAtIEcyMIIBIjANBgkqhkiG9w0BAQEFAAOCAQ8AMIIBCgKCAQEAlO9l+LVXn6BT
DTQG6wkft0cYasvwW+T/J6U00feJGr+esc0SQW5m1IGghYtkWkYvmaCNd7HivFzd
ItdqZ9C76Mp03otPDbBS5ZBb60cO8eefnAuQZT4XljBFcm05oRc2yrmgjBtPCBn2
gTGtYRakYua0QJ7D/PuV9vu1LpWBmODvxevYAll4d/eq41JrUJEpxfz3zZNl0mBh
IvIG+zLdFlH6Dv2KMPAXCae78wSuq5DnbN96qfTvxGInX2+ZbTh0qhGL2t/HFEzp
hbLswn1KJo/nVrqm4M+SU4B09APsaLJgvIQgAIMboe60dAXBKY5i0Eex+vBTzBj5
Ljv5cH60JQIDAQABo4HlMIHiMA4GA1UdDwEB/wQEAwIBBjASBgNVHRMBAf8ECDAG
AQH/AgEAMB0GA1UdDgQWBBRG2D7/3OO+/4Pm9IWbsN1q1hSpwTBHBgNVHSAEQDA+
MDwGBFUdIAAwNDAyBggrBgEFBQcCARYmaHR0cHM6Ly93d3cuZ2xvYmFsc2lnbi5j
b20vcmVwb3NpdG9yeS8wMwYDVR0fBCwwKjAooCagJIYiaHR0cDovL2NybC5nbG9i
YWxzaWduLm5ldC9yb290LmNybDAfBgNVHSMEGDAWgBRge2YaRQ2XyolQL30EzTSo
//z9SzANBgkqhkiG9w0BAQUFAAOCAQEATl5WkB5GtNlJMfO7FzkoG8IW3f1B3AkF
BJtvsqKa1pkuQJkAVbXqP6UgdtOGNNQXzFU6x4Lu76i6vNgGnxVQ380We1I6AtcZ
Gv2v8Hhc4EvFGN86JB7arLipWAQCBzDbsBJe/jG+8ARI9PBw+DpeVoPPPfsNvPTF
7ZedudTbpSeE4zibi6c1hkQgpDttpGoLoYP9KOva7yj2zIhd+wo7AKvgIeviLzVs
D440RZfroveZMzV+y5qKu0VN5z+fwtmK+mWybsd+Zf/okuEsMaL3sCc2SI8mbzvu
TXYfecPlf5Y1vC0OzAGwjn//UYCAp5LUs0RGZIyHTxZjBzFLY7Df8w==
-----END CERTIFICATE-----

Certificate:
    Data:
        Version: 3 (0x2)
        Serial Number:
            04:00:00:00:00:01:31:89:c6:37:e8
    Signature Algorithm: sha256WithRSAEncryption
        Issuer: OU=GlobalSign Root CA - R3, O=GlobalSign, CN=GlobalSign
        Validity
            Not Before: Aug  2 10:00:00 2011 GMT
            Not After : Aug  2 10:00:00 2019 GMT
        Subject: C=BE, O=GlobalSign nv-sa, CN=GlobalSign CodeSigning CA - SHA256 - G2
        Subject Public Key Info:
            Public Key Algorithm: rsaEncryption
                Public-Key: (2048 bit)
                Modulus:
                    00:a3:ef:d1:9f:29:e9:d8:d3:82:76:3c:62:a0:d2:
                    49:d6:16:1e:f1:cf:f0:d0:ba:48:43:03:2d:a7:1d:
                    f2:01:34:49:a4:10:e9:62:13:f4:13:f4:16:83:b5:
                    d5:57:42:48:86:2b:95:58:87:ea:28:04:74:cb:72:
                    11:0f:61:26:e1:fa:1c:61:15:c7:28:9b:4d:0b:82:
                    0f:26:2b:90:3a:96:ed:a4:d0:6b:29:9c:f5:61:88:
                    e6:a4:57:6f:ee:f4:70:d0:8d:17:de:e6:66:76:5f:
                    74:1e:5e:0c:53:38:5d:90:f4:df:30:2d:1b:13:d1:
                    79:98:54:1a:4b:38:04:f4:07:c4:23:03:d3:92:cb:
                    f7:80:5d:aa:9c:56:06:44:2d:41:4c:48:b4:2d:ec:
                    35:92:9a:c6:95:d7:f5:ce:90:31:e2:76:b3:61:b8:
                    f1:75:57:42:ac:3b:ce:2b:c8:90:49:e8:b7:26:cf:
                    bb:0c:89:cb:d0:c3:a3:6a:a1:c9:d5:e3:9c:53:2b:
                    57:26:fe:56:9a:76:fd:61:46:a2:60:ec:29:46:47:
                    f2:cd:e0:82:62:c6:04:5a:e7:ed:4e:40:5c:48:06:
                    7d:9d:5f:e7:74:c9:9e:84:65:0d:5b:de:dc:d3:24:
                    1c:b4:14:11:eb:ab:bf:c4:1f:a4:ba:99:d0:17:58:
                    35:cd
                Exponent: 65537 (0x10001)
        X509v3 extensions:
            X509v3 Key Usage: critical
                Certificate Sign, CRL Sign
            X509v3 Basic Constraints: critical
                CA:TRUE, pathlen:0
            X509v3 Subject Key Identifier: 
                19:4A:B8:5A:E4:4D:31:A5:14:E5:5E:EC:2F:A3:1C:FA:80:8C:32:6B
            X509v3 Certificate Policies: 
                Policy: X509v3 Any Policy
                  CPS: https://www.globalsign.com/repository/

            X509v3 CRL Distribution Points: 

                Full Name:
                  URI:http://crl.globalsign.net/root-r3.crl

            X509v3 Extended Key Usage: 
                Code Signing
            X509v3 Authority Key Identifier: 
                keyid:8F:F0:4B:7F:A8:2E:45:24:AE:4D:50:FA:63:9A:8B:DE:E2:DD:1B:BC

    Signature Algorithm: sha256WithRSAEncryption
         79:b0:69:34:e2:05:87:f6:fe:d4:60:2c:2f:86:79:34:03:e0:
         b1:07:93:0c:84:5c:f9:e4:dc:6c:cf:6e:b5:ec:0a:5c:ba:0b:
         d0:68:31:2e:3f:64:bd:0f:82:6b:66:77:81:7f:c6:29:a5:17:
         d8:f0:89:4d:83:24:11:f6:6e:fe:9d:e1:48:0a:28:a0:e2:7b:
         24:80:a4:ec:c2:9a:00:d7:b0:6d:6c:cd:88:d5:15:78:cf:13:
         f9:88:a5:73:4d:c1:36:2b:dc:cb:ce:db:7e:7c:d2:8b:ef:2f:
         bd:b3:4f:4d:3a:ad:bb:62:6e:28:93:c4:0c:cb:d9:e6:ca:e0:
         11:02:94:03:b0:bd:3f:94:28:56:90:1e:53:c2:27:d5:c9:3c:
         cd:1a:63:1e:82:59:15:b6:40:ca:a7:81:aa:c3:55:af:33:d1:
         b5:75:e8:09:ea:47:08:48:22:fb:5d:1b:f3:2c:7a:69:7e:c5:
         d7:5a:5e:56:33:3c:ad:57:e8:93:25:42:c3:d2:5e:71:3b:4a:
         1c:54:ed:a9:55:ac:28:05:c7:c4:6c:5d:dc:3c:93:f6:69:3c:
         82:51:ce:1a:15:3d:5e:01:73:ff:40:a2:ea:b4:ae:d3:8e:fa:
         ee:5d:6c:47:c7:41:f5:d4:56:57:f2:18:37:32:d6:d4:cc:4b:
         f6:71:e0:76
-----BEGIN CERTIFICATE-----
MIIEKTCCAxGgAwIBAgILBAAAAAABMYnGN+gwDQYJKoZIhvcNAQELBQAwTDEgMB4G
A1UECxMXR2xvYmFsU2lnbiBSb290IENBIC0gUjMxEzARBgNVBAoTCkdsb2JhbFNp
Z24xEzARBgNVBAMTCkdsb2JhbFNpZ24wHhcNMTEwODAyMTAwMDAwWhcNMTkwODAy
MTAwMDAwWjBaMQswCQYDVQQGEwJCRTEZMBcGA1UEChMQR2xvYmFsU2lnbiBudi1z
YTEwMC4GA1UEAxMnR2xvYmFsU2lnbiBDb2RlU2lnbmluZyBDQSAtIFNIQTI1NiAt
IEcyMIIBIjANBgkqhkiG9w0BAQEFAAOCAQ8AMIIBCgKCAQEAo+/Rnynp2NOCdjxi
oNJJ1hYe8c/w0LpIQwMtpx3yATRJpBDpYhP0E/QWg7XVV0JIhiuVWIfqKAR0y3IR
D2Em4focYRXHKJtNC4IPJiuQOpbtpNBrKZz1YYjmpFdv7vRw0I0X3uZmdl90Hl4M
UzhdkPTfMC0bE9F5mFQaSzgE9AfEIwPTksv3gF2qnFYGRC1BTEi0Lew1kprGldf1
zpAx4nazYbjxdVdCrDvOK8iQSei3Js+7DInL0MOjaqHJ1eOcUytXJv5Wmnb9YUai
YOwpRkfyzeCCYsYEWuftTkBcSAZ9nV/ndMmehGUNW97c0yQctBQR66u/xB+kupnQ
F1g1zQIDAQABo4H9MIH6MA4GA1UdDwEB/wQEAwIBBjASBgNVHRMBAf8ECDAGAQH/
AgEAMB0GA1UdDgQWBBQZSrha5E0xpRTlXuwvoxz6gIwyazBHBgNVHSAEQDA+MDwG
BFUdIAAwNDAyBggrBgEFBQcCARYmaHR0cHM6Ly93d3cuZ2xvYmFsc2lnbi5jb20v
cmVwb3NpdG9yeS8wNgYDVR0fBC8wLTAroCmgJ4YlaHR0cDovL2NybC5nbG9iYWxz
aWduLm5ldC9yb290LXIzLmNybDATBgNVHSUEDDAKBggrBgEFBQcDAzAfBgNVHSME
GDAWgBSP8Et/qC5FJK5NUPpjmove4t0bvDANBgkqhkiG9w0BAQsFAAOCAQEAebBp
NOIFh/b+1GAsL4Z5NAPgsQeTDIRc+eTcbM9utewKXLoL0GgxLj9kvQ+Ca2Z3gX/G
KaUX2PCJTYMkEfZu/p3hSAoooOJ7JICk7MKaANewbWzNiNUVeM8T+Yilc03BNivc
y87bfnzSi+8vvbNPTTqtu2JuKJPEDMvZ5srgEQKUA7C9P5QoVpAeU8In1ck8zRpj
HoJZFbZAyqeBqsNVrzPRtXXoCepHCEgi+10b8yx6aX7F11peVjM8rVfokyVCw9Je
cTtKHFTtqVWsKAXHxGxd3DyT9mk8glHOGhU9XgFz/0Ci6rSu04767l1sR8dB9dRW
V/IYNzLW1MxL9nHgdg==
-----END CERTIFICATE-----

Certificate:
    Data:
        Version: 3 (0x2)
        Serial Number:
            47:2c:cb:a9:49:bb:94:24:e9:8f:41:6f:ad:41
    Signature Algorithm: sha256WithRSAEncryption
        Issuer: OU=GlobalSign Root CA - R3, O=GlobalSign, CN=GlobalSign
        Validity
            Not Before: Aug  2 10:00:00 2011 GMT
            Not After : Aug  2 10:00:00 2019 GMT
        Subject: C=BE, O=GlobalSign nv-sa, CN=GlobalSign CodeSigning CA - SHA256 - G2
        Subject Public Key Info:
            Public Key Algorithm: rsaEncryption
                Public-Key: (2048 bit)
                Modulus:
                    00:a3:ef:d1:9f:29:e9:d8:d3:82:76:3c:62:a0:d2:
                    49:d6:16:1e:f1:cf:f0:d0:ba:48:43:03:2d:a7:1d:
                    f2:01:34:49:a4:10:e9:62:13:f4:13:f4:16:83:b5:
                    d5:57:42:48:86:2b:95:58:87:ea:28:04:74:cb:72:
                    11:0f:61:26:e1:fa:1c:61:15:c7:28:9b:4d:0b:82:
                    0f:26:2b:90:3a:96:ed:a4:d0:6b:29:9c:f5:61:88:
                    e6:a4:57:6f:ee:f4:70:d0:8d:17:de:e6:66:76:5f:
                    74:1e:5e:0c:53:38:5d:90:f4:df:30:2d:1b:13:d1:
                    79:98:54:1a:4b:38:04:f4:07:c4:23:03:d3:92:cb:
                    f7:80:5d:aa:9c:56:06:44:2d:41:4c:48:b4:2d:ec:
                    35:92:9a:c6:95:d7:f5:ce:90:31:e2:76:b3:61:b8:
                    f1:75:57:42:ac:3b:ce:2b:c8:90:49:e8:b7:26:cf:
                    bb:0c:89:cb:d0:c3:a3:6a:a1:c9:d5:e3:9c:53:2b:
                    57:26:fe:56:9a:76:fd:61:46:a2:60:ec:29:46:47:
                    f2:cd:e0:82:62:c6:04:5a:e7:ed:4e:40:5c:48:06:
                    7d:9d:5f:e7:74:c9:9e:84:65:0d:5b:de:dc:d3:24:
                    1c:b4:14:11:eb:ab:bf:c4:1f:a4:ba:99:d0:17:58:
                    35:cd
                Exponent: 65537 (0x10001)
        X509v3 extensions:
            X509v3 Key Usage: critical
                Certificate Sign, CRL Sign
            X509v3 Extended Key Usage: 
                Code Signing
            X509v3 Basic Constraints: critical
                CA:TRUE, pathlen:0
            X509v3 Subject Key Identifier: 
                19:4A:B8:5A:E4:4D:31:A5:14:E5:5E:EC:2F:A3:1C:FA:80:8C:32:6B
            X509v3 Authority Key Identifier: 
                keyid:8F:F0:4B:7F:A8:2E:45:24:AE:4D:50:FA:63:9A:8B:DE:E2:DD:1B:BC

            Authority Information Access: 
                OCSP - URI:http://ocsp2.globalsign.com/rootr3

            X509v3 CRL Distribution Points: 

                Full Name:
                  URI:http://crl.globalsign.net/root-r3.crl

            X509v3 Certificate Policies: 
                Policy: X509v3 Any Policy
                  CPS: https://www.globalsign.com/repository/

    Signature Algorithm: sha256WithRSAEncryption
         6b:aa:4d:96:b3:eb:f2:b3:c2:ca:4a:ee:c8:66:f2:ed:56:4a:
         a8:f1:69:e4:25:88:2e:d0:30:45:e7:56:a0:41:91:0d:28:77:
         fb:84:9c:f1:79:52:f8:fd:e7:ae:fe:04:7a:54:ef:e1:8e:c5:
         c9:ed:4b:cc:45:4e:d1:b8:93:45:62:c9:4b:d4:5a:44:05:11:
         65:a9:e4:4e:0e:27:2e:fe:2d:ca:27:36:1e:91:98:5b:70:1a:
         83:06:60:e6:6f:4a:c1:76:62:00:f5:33:77:1d:ba:e8:51:51:
         f6:a2:9e:22:3b:c2:e0:52:1a:fc:fe:2a:b3:62:24:2b:c9:6d:
         c0:4d:8c:00:84:2e:9b:10:97:d6:d2:ea:02:51:25:92:99:2b:
         1f:17:9f:8a:dd:3b:fe:b7:0a:89:c5:06:b0:87:f6:d1:da:5f:
         65:09:41:09:6a:c3:e7:74:94:68:2a:da:03:b8:50:7a:ea:0c:
         e6:18:27:6a:77:fa:a5:90:48:e8:02:41:85:2b:a9:de:9f:55:
         6e:cc:36:0c:a7:16:c6:30:a0:e3:c4:df:55:f4:96:1f:36:af:
         5f:6b:87:0d:68:b2:72:ed:7b:48:20:8e:d0:61:fc:8e:95:5e:
         3e:fc:fc:3f:69:f1:48:1b:57:93:8d:2e:90:bc:4f:ab:54:22:
         84:d7:10:87
-----BEGIN CERTIFICATE-----
MIIEbjCCA1agAwIBAgIORyzLqUm7lCTpj0FvrUEwDQYJKoZIhvcNAQELBQAwTDEg
MB4GA1UECxMXR2xvYmFsU2lnbiBSb290IENBIC0gUjMxEzARBgNVBAoTCkdsb2Jh
bFNpZ24xEzARBgNVBAMTCkdsb2JhbFNpZ24wHhcNMTEwODAyMTAwMDAwWhcNMTkw
ODAyMTAwMDAwWjBaMQswCQYDVQQGEwJCRTEZMBcGA1UEChMQR2xvYmFsU2lnbiBu
di1zYTEwMC4GA1UEAxMnR2xvYmFsU2lnbiBDb2RlU2lnbmluZyBDQSAtIFNIQTI1
NiAtIEcyMIIBIjANBgkqhkiG9w0BAQEFAAOCAQ8AMIIBCgKCAQEAo+/Rnynp2NOC
djxioNJJ1hYe8c/w0LpIQwMtpx3yATRJpBDpYhP0E/QWg7XVV0JIhiuVWIfqKAR0
y3IRD2Em4focYRXHKJtNC4IPJiuQOpbtpNBrKZz1YYjmpFdv7vRw0I0X3uZmdl90
Hl4MUzhdkPTfMC0bE9F5mFQaSzgE9AfEIwPTksv3gF2qnFYGRC1BTEi0Lew1kprG
ldf1zpAx4nazYbjxdVdCrDvOK8iQSei3Js+7DInL0MOjaqHJ1eOcUytXJv5Wmnb9
YUaiYOwpRkfyzeCCYsYEWuftTkBcSAZ9nV/ndMmehGUNW97c0yQctBQR66u/xB+k
upnQF1g1zQIDAQABo4IBPjCCATowDgYDVR0PAQH/BAQDAgEGMBMGA1UdJQQMMAoG
CCsGAQUFBwMDMBIGA1UdEwEB/wQIMAYBAf8CAQAwHQYDVR0OBBYEFBlKuFrkTTGl
FOVe7C+jHPqAjDJrMB8GA1UdIwQYMBaAFI/wS3+oLkUkrk1Q+mOai97i3Ru8MD4G
CCsGAQUFBwEBBDIwMDAuBggrBgEFBQcwAYYiaHR0cDovL29jc3AyLmdsb2JhbHNp
Z24uY29tL3Jvb3RyMzA2BgNVHR8ELzAtMCugKaAnhiVodHRwOi8vY3JsLmdsb2Jh
bHNpZ24ubmV0L3Jvb3QtcjMuY3JsMEcGA1UdIARAMD4wPAYEVR0gADA0MDIGCCsG
AQUFBwIBFiZodHRwczovL3d3dy5nbG9iYWxzaWduLmNvbS9yZXBvc2l0b3J5LzAN
BgkqhkiG9w0BAQsFAAOCAQEAa6pNlrPr8rPCykruyGby7VZKqPFp5CWILtAwRedW
oEGRDSh3+4Sc8XlS+P3nrv4EelTv4Y7Fye1LzEVO0biTRWLJS9RaRAURZankTg4n
Lv4tyic2HpGYW3AagwZg5m9KwXZiAPUzdx266FFR9qKeIjvC4FIa/P4qs2IkK8lt
wE2MAIQumxCX1tLqAlElkpkrHxefit07/rcKicUGsIf20dpfZQlBCWrD53SUaCra
A7hQeuoM5hgnanf6pZBI6AJBhSup3p9Vbsw2DKcWxjCg48TfVfSWHzavX2uHDWiy
cu17SCCO0GH8jpVePvz8P2nxSBtXk40ukLxPq1QihNcQhw==
-----END CERTIFICATE-----

Certificate:
    Data:
        Version: 3 (0x2)
        Serial Number:
            11:21:06:a0:81:d3:3f:d8:7a:e5:82:4c:c1:6b:52:09:4e:03
    Signature Algorithm: sha1WithRSAEncryption
        Issuer: C=BE, O=GlobalSign nv-sa, CN=GlobalSign Timestamping CA - G2
        Validity
            Not Before: Feb  3 00:00:00 2015 GMT
            Not After : Mar  3 00:00:00 2026 GMT
        Subject: C=SG, O=GMO GlobalSign Pte Ltd, CN=GlobalSign TSA for MS Authenticode - G2
        Subject Public Key Info:
            Public Key Algorithm: rsaEncryption
                Public-Key: (2048 bit)
                Modulus:
                    00:b0:17:ae:a2:d3:b6:04:30:56:1e:58:0f:b1:ed:
                    55:a4:d6:54:cb:d8:f6:73:3a:ec:5d:5e:ab:25:fd:
                    36:a5:fa:84:c3:61:40:c5:46:b5:59:52:3b:42:a2:
                    2e:5f:13:62:10:a9:5b:e6:73:d6:92:25:b1:7d:23:
                    e3:06:b3:87:3a:0e:43:f0:d7:00:89:53:a2:11:31:
                    52:28:6e:5d:40:72:3c:f2:09:77:a7:49:92:97:d4:
                    6c:90:a0:76:a7:fd:b8:dc:b3:9d:f2:07:60:2c:4f:
                    58:98:00:6b:d3:15:54:e0:fa:dd:ff:80:2c:5f:18:
                    a6:98:ff:d4:ab:ec:a1:45:59:b2:2e:6f:62:5d:e0:
                    d9:19:ac:8b:57:9c:a8:26:2b:d9:17:a5:10:d2:47:
                    08:1a:70:2c:33:8b:7f:68:80:2a:b5:a1:5d:6b:dd:
                    8d:02:02:29:03:aa:7c:37:bb:bb:29:4e:3d:53:93:
                    b3:a6:fa:8f:d2:58:93:15:4c:b9:2d:ab:80:a3:a3:
                    25:fb:af:f7:08:64:b0:7a:44:0f:5c:10:d7:5f:61:
                    37:aa:4e:6b:d3:d2:53:25:9d:82:73:fa:2c:f9:72:
                    b0:a9:19:39:2a:50:fa:a9:d0:3c:3a:ca:e8:5b:ef:
                    f5:5f:51:f4:f9:0a:d9:97:35:de:6a:85:e6:23:04:
                    42:af
                Exponent: 65537 (0x10001)
        X509v3 extensions:
            X509v3 Key Usage: critical
                Digital Signature
            X509v3 Certificate Policies: 
                Policy: 1.3.6.1.4.1.4146.1.30
                  CPS: https://www.globalsign.com/repository/

            X509v3 Basic Constraints: 
                CA:FALSE
            X509v3 Extended Key Usage: critical
                Time Stamping
            X509v3 CRL Distribution Points: 

                Full Name:
                  URI:http://crl.globalsign.com/gs/gstimestampingg2.crl

            Authority Information Access: 
                CA Issuers - URI:http://secure.globalsign.com/cacert/gstimestampingg2.crt

            X509v3 Subject Key Identifier: 
                D4:A2:84:4A:38:5A:18:7F:BA:4F:30:50:BD:9D:D5:7A:87:D6:09:F7
            X509v3 Authority Key Identifier: 
                keyid:46:D8:3E:FF:DC:E3:BE:FF:83:E6:F4:85:9B:B0:DD:6A:D6:14:A9:C1

    Signature Algorithm: sha1WithRSAEncryption
         80:32:dc:07:8d:1c:a0:9c:9d:3c:2a:e8:3d:21:8b:59:a1:4d:
         7e:cc:44:ce:03:be:7e:aa:bc:c4:e6:7b:73:bb:4b:f1:88:da:
         90:4e:75:37:28:38:63:b9:d7:2b:0f:54:a9:56:ce:77:39:97:
         30:73:cd:9b:d9:d9:05:45:1c:8d:a4:b8:03:5d:4f:d9:1c:2e:
         98:e0:e9:88:e6:ec:d7:05:7e:56:2a:7b:f7:16:5b:a3:ad:8f:
         97:25:12:84:1b:b2:5c:63:4a:0a:d2:ef:10:54:47:82:84:35:
         69:28:9c:0c:e4:1f:14:16:24:fa:75:dc:74:72:6e:4e:ca:e3:
         6a:43:af:cf:7d:36:48:d1:bd:e9:06:91:2c:2f:a6:c8:71:fd:
         cf:bd:d8:9d:21:98:fc:af:db:de:22:8c:af:a7:f3:77:ef:9d:
         dc:a3:70:4b:44:1a:f0:78:85:1e:f2:a5:8c:39:b5:dc:88:1c:
         37:ed:ad:14:f5:07:0b:26:bd:be:6d:02:5e:b1:b8:b0:58:6c:
         85:3a:0d:f6:ff:5a:27:0c:c5:de:53:e7:54:3c:56:4c:c9:4e:
         4c:30:f6:f2:5c:fb:1a:8c:c2:82:be:ad:59:91:f6:1b:4d:55:
         7b:cf:5b:01:dc:fd:7a:d3:6f:23:5c:32:47:9b:01:f3:c1:51:
         14:46:8a:9b
-----BEGIN CERTIFICATE-----
MIIEnzCCA4egAwIBAgISESEGoIHTP9h65YJMwWtSCU4DMA0GCSqGSIb3DQEBBQUA
MFIxCzAJBgNVBAYTAkJFMRkwFwYDVQQKExBHbG9iYWxTaWduIG52LXNhMSgwJgYD
VQQDEx9HbG9iYWxTaWduIFRpbWVzdGFtcGluZyBDQSAtIEcyMB4XDTE1MDIwMzAw
MDAwMFoXDTI2MDMwMzAwMDAwMFowYDELMAkGA1UEBhMCU0cxHzAdBgNVBAoTFkdN
TyBHbG9iYWxTaWduIFB0ZSBMdGQxMDAuBgNVBAMTJ0dsb2JhbFNpZ24gVFNBIGZv
ciBNUyBBdXRoZW50aWNvZGUgLSBHMjCCASIwDQYJKoZIhvcNAQEBBQADggEPADCC
AQoCggEBALAXrqLTtgQwVh5YD7HtVaTWVMvY9nM67F1eqyX9NqX6hMNhQMVGtVlS
O0KiLl8TYhCpW+Zz1pIlsX0j4wazhzoOQ/DXAIlTohExUihuXUByPPIJd6dJkpfU
bJCgdqf9uNyznfIHYCxPWJgAa9MVVOD63f+ALF8Yppj/1KvsoUVZsi5vYl3g2Rms
i1ecqCYr2RelENJHCBpwLDOLf2iAKrWhXWvdjQICKQOqfDe7uylOPVOTs6b6j9JY
kxVMuS2rgKOjJfuv9whksHpED1wQ119hN6pOa9PSUyWdgnP6LPlysKkZOSpQ+qnQ
PDrK6Fvv9V9R9PkK2Zc13mqF5iMEQq8CAwEAAaOCAV8wggFbMA4GA1UdDwEB/wQE
AwIHgDBMBgNVHSAERTBDMEEGCSsGAQQBoDIBHjA0MDIGCCsGAQUFBwIBFiZodHRw
czovL3d3dy5nbG9iYWxzaWduLmNvbS9yZXBvc2l0b3J5LzAJBgNVHRMEAjAAMBYG
A1UdJQEB/wQMMAoGCCsGAQUFBwMIMEIGA1UdHwQ7MDkwN6A1oDOGMWh0dHA6Ly9j
cmwuZ2xvYmFsc2lnbi5jb20vZ3MvZ3N0aW1lc3RhbXBpbmdnMi5jcmwwVAYIKwYB
BQUHAQEESDBGMEQGCCsGAQUFBzAChjhodHRwOi8vc2VjdXJlLmdsb2JhbHNpZ24u
Y29tL2NhY2VydC9nc3RpbWVzdGFtcGluZ2cyLmNydDAdBgNVHQ4EFgQU1KKESjha
GH+6TzBQvZ3VeofWCfcwHwYDVR0jBBgwFoAURtg+/9zjvv+D5vSFm7DdatYUqcEw
DQYJKoZIhvcNAQEFBQADggEBAIAy3AeNHKCcnTwq6D0hi1mhTX7MRM4Dvn6qvMTm
e3O7S/GI2pBOdTcoOGO51ysPVKlWznc5lzBzzZvZ2QVFHI2kuANdT9kcLpjg6Yjm
7NcFflYqe/cWW6Otj5clEoQbslxjSgrS7xBUR4KENWkonAzkHxQWJPp13HRybk7K
42pDr899NkjRvekGkSwvpshx/c+92J0hmPyv294ijK+n83fvndyjcEtEGvB4hR7y
pYw5tdyIHDftrRT1Bwsmvb5tAl6xuLBYbIU6Dfb/WicMxd5T51Q8VkzJTkww9vJc
+xqMwoK+rVmR9htNVXvPWwHc/XrTbyNcMkebAfPBURRGips=
-----END CERTIFICATE-----

Certificate:
    Data:
        Version: 3 (0x2)
        Serial Number:
            11:21:4e:62:df:3c:5c:8a:02:48:92:33:8d:70:da:b8:97:82
    Signature Algorithm: sha256WithRSAEncryption
        Issuer: C=BE, O=GlobalSign nv-sa, CN=GlobalSign CodeSigning CA - SHA256 - G2
        Validity
            Not Before: Dec 31 12:33:37 2015 GMT
            Not After : Apr 23 10:56:49 2017 GMT
        Subject: C=ES, L=Bilbao, O=Panda Security S.L, CN=Panda Security S.L
        Subject Public Key Info:
            Public Key Algorithm: rsaEncryption
                Public-Key: (2048 bit)
                Modulus:
                    00:cf:55:f5:87:0e:22:c6:43:d8:42:90:3d:29:4a:
                    4f:6c:02:7e:e1:e2:67:09:16:e9:0a:13:4d:ee:a7:
                    d4:b5:f2:ba:f5:42:50:34:31:52:c1:1d:88:5b:10:
                    10:50:65:9f:9c:60:a7:ab:e1:28:60:e9:c8:d4:b4:
                    22:a6:3f:10:61:3b:c3:d6:21:f1:79:a5:9f:46:8b:
                    b3:dd:5a:ed:4b:c7:7d:36:5e:f1:c1:ee:b5:0b:5e:
                    45:54:cf:04:14:ee:b4:6c:20:46:3c:73:88:56:ff:
                    e0:b0:e4:83:e1:f0:7f:24:9a:97:3b:7c:cd:ef:26:
                    a4:6b:87:e2:7a:00:c0:f3:01:e6:86:3e:61:dd:eb:
                    6a:1d:97:ee:f8:48:b2:be:05:b5:28:62:25:89:fc:
                    99:c7:e0:b8:a4:7d:f8:df:7f:34:55:b5:45:c0:46:
                    30:c0:32:42:d5:f6:4c:d3:8b:3d:e5:2b:11:30:0b:
                    0c:75:22:1d:58:0f:fa:a3:27:ec:b3:5f:3f:8f:4e:
                    6d:6b:8e:3b:92:45:97:bb:3a:04:27:05:8b:6f:45:
                    29:90:bc:fa:35:bb:ab:71:41:e3:dd:e5:b3:3b:8b:
                    04:d8:a6:da:15:e6:fb:7d:da:9a:fa:ae:9d:28:c6:
                    f0:30:1a:3f:f0:0c:1b:6a:61:dd:91:46:69:1f:60:
                    88:0f
                Exponent: 65537 (0x10001)
        X509v3 extensions:
            X509v3 Key Usage: critical
                Digital Signature
            X509v3 Certificate Policies: 
                Policy: 1.3.6.1.4.1.4146.1.50
                  CPS: https://www.globalsign.com/repository/

            X509v3 Basic Constraints: 
                CA:FALSE
            X509v3 Extended Key Usage: 
                Code Signing
            X509v3 CRL Distribution Points: 

                Full Name:
                  URI:http://crl.globalsign.com/gs/gscodesignsha2g2.crl

            Authority Information Access: 
                CA Issuers - URI:http://secure.globalsign.com/cacert/gscodesignsha2g2.crt
                OCSP - URI:http://ocsp2.globalsign.com/gscodesignsha2g2

            X509v3 Subject Key Identifier: 
                DD:E9:32:2C:6C:51:C1:0F:57:F4:90:2B:B9:A4:D8:47:47:6E:8A:6E
            X509v3 Authority Key Identifier: 
                keyid:19:4A:B8:5A:E4:4D:31:A5:14:E5:5E:EC:2F:A3:1C:FA:80:8C:32:6B

    Signature Algorithm: sha256WithRSAEncryption
         76:ce:96:9c:4f:c0:4e:4e:5d:07:a0:4f:e7:b1:35:9a:43:06:
         e2:ae:f7:30:a9:ad:0b:97:d9:32:ba:b8:1c:8a:67:cc:11:0f:
         38:65:50:6b:9a:c1:8b:31:db:19:7a:3f:6b:e3:e0:41:0b:f2:
         9b:76:0b:3f:a1:48:5e:1d:e0:ab:ac:93:b1:d4:72:90:0e:91:
         44:2c:c6:cd:d7:8c:78:43:55:36:85:3f:cc:78:04:ee:18:c6:
         94:4f:52:73:62:c1:18:05:48:9e:4a:74:26:84:c8:47:44:6d:
         7d:c3:12:0b:89:14:ba:8d:25:8a:d3:a2:25:ba:3c:1b:1d:27:
         55:57:89:fc:0e:d6:89:2a:b8:36:28:0e:e0:f8:eb:02:ac:e4:
         cd:e1:0f:45:b4:7f:07:ee:eb:52:f4:84:18:59:cb:17:c9:1c:
         60:1b:a7:ad:b3:df:4f:a8:b2:5d:c8:b6:24:20:70:db:c4:b8:
         28:e7:f6:1a:94:09:d1:18:ae:89:f2:90:18:32:1c:6a:58:73:
         9a:6a:3d:e0:4e:98:7e:9d:8f:08:1c:09:9d:22:a2:08:48:56:
         5c:c6:64:c5:98:9e:b4:fd:fc:69:b6:37:c0:bd:ee:62:a8:43:
         77:7d:7b:1f:fb:ed:e9:7b:7b:61:e6:6f:50:9b:91:ef:04:e9:
         0b:da:a1:70
-----BEGIN CERTIFICATE-----
MIIE2TCCA8GgAwIBAgISESFOYt88XIoCSJIzjXDauJeCMA0GCSqGSIb3DQEBCwUA
MFoxCzAJBgNVBAYTAkJFMRkwFwYDVQQKExBHbG9iYWxTaWduIG52LXNhMTAwLgYD
VQQDEydHbG9iYWxTaWduIENvZGVTaWduaW5nIENBIC0gU0hBMjU2IC0gRzIwHhcN
MTUxMjMxMTIzMzM3WhcNMTcwNDIzMTA1NjQ5WjBYMQswCQYDVQQGEwJFUzEPMA0G
A1UEBxMGQmlsYmFvMRswGQYDVQQKExJQYW5kYSBTZWN1cml0eSBTLkwxGzAZBgNV
BAMTElBhbmRhIFNlY3VyaXR5IFMuTDCCASIwDQYJKoZIhvcNAQEBBQADggEPADCC
AQoCggEBAM9V9YcOIsZD2EKQPSlKT2wCfuHiZwkW6QoTTe6n1LXyuvVCUDQxUsEd
iFsQEFBln5xgp6vhKGDpyNS0IqY/EGE7w9Yh8Xmln0aLs91a7UvHfTZe8cHutQte
RVTPBBTutGwgRjxziFb/4LDkg+HwfySalzt8ze8mpGuH4noAwPMB5oY+Yd3rah2X
7vhIsr4FtShiJYn8mcfguKR9+N9/NFW1RcBGMMAyQtX2TNOLPeUrETALDHUiHVgP
+qMn7LNfP49ObWuOO5JFl7s6BCcFi29FKZC8+jW7q3FB493lszuLBNim2hXm+33a
mvqunSjG8DAaP/AMG2ph3ZFGaR9giA8CAwEAAaOCAZkwggGVMA4GA1UdDwEB/wQE
AwIHgDBMBgNVHSAERTBDMEEGCSsGAQQBoDIBMjA0MDIGCCsGAQUFBwIBFiZodHRw
czovL3d3dy5nbG9iYWxzaWduLmNvbS9yZXBvc2l0b3J5LzAJBgNVHRMEAjAAMBMG
A1UdJQQMMAoGCCsGAQUFBwMDMEIGA1UdHwQ7MDkwN6A1oDOGMWh0dHA6Ly9jcmwu
Z2xvYmFsc2lnbi5jb20vZ3MvZ3Njb2Rlc2lnbnNoYTJnMi5jcmwwgZAGCCsGAQUF
BwEBBIGDMIGAMEQGCCsGAQUFBzAChjhodHRwOi8vc2VjdXJlLmdsb2JhbHNpZ24u
Y29tL2NhY2VydC9nc2NvZGVzaWduc2hhMmcyLmNydDA4BggrBgEFBQcwAYYsaHR0
cDovL29jc3AyLmdsb2JhbHNpZ24uY29tL2dzY29kZXNpZ25zaGEyZzIwHQYDVR0O
BBYEFN3pMixsUcEPV/SQK7mk2EdHbopuMB8GA1UdIwQYMBaAFBlKuFrkTTGlFOVe
7C+jHPqAjDJrMA0GCSqGSIb3DQEBCwUAA4IBAQB2zpacT8BOTl0HoE/nsTWaQwbi
rvcwqa0Ll9kyurgcimfMEQ84ZVBrmsGLMdsZej9r4+BBC/Kbdgs/oUheHeCrrJOx
1HKQDpFELMbN14x4Q1U2hT/MeATuGMaUT1JzYsEYBUieSnQmhMhHRG19wxILiRS6
jSWK06IlujwbHSdVV4n8DtaJKrg2KA7g+OsCrOTN4Q9FtH8H7utS9IQYWcsXyRxg
G6ets99PqLJdyLYkIHDbxLgo5/YalAnRGK6J8pAYMhxqWHOaaj3gTph+nY8IHAmd
IqIISFZcxmTFmJ60/fxptjfAve5iqEN3fXsf++3pe3th5m9Qm5HvBOkL2qFw
-----END CERTIFICATE-----

