Certificate:
    Data:
        Version: 3 (0x2)
        Serial Number:
            04:00:00:00:00:01:2f:4e:e1:52:d7
    Signature Algorithm: sha1WithRSAEncryption
        Issuer: C=BE, O=GlobalSign nv-sa, OU=Root CA, CN=GlobalSign Root CA
        Validity
            Not Before: Apr 13 10:00:00 2011 GMT
            Not After : Jan 28 12:00:00 2028 GMT
        Subject: C=BE, O=GlobalSign nv-sa, CN=GlobalSign Timestamping CA - G2
        Subject Public Key Info:
            Public Key Algorithm: rsaEncryption
                Public-Key: (2048 bit)
                Modulus:
                    00:94:ef:65:f8:b5:57:9f:a0:53:0d:34:06:eb:09:
                    1f:b7:47:18:6a:cb:f0:5b:e4:ff:27:a5:34:d1:f7:
                    89:1a:bf:9e:b1:cd:12:41:6e:66:d4:81:a0:85:8b:
                    64:5a:46:2f:99:a0:8d:77:b1:e2:bc:5c:dd:22:d7:
                    6a:67:d0:bb:e8:ca:74:de:8b:4f:0d:b0:52:e5:90:
                    5b:eb:47:0e:f1:e7:9f:9c:0b:90:65:3e:17:96:30:
                    45:72:6d:39:a1:17:36:ca:b9:a0:8c:1b:4f:08:19:
                    f6:81:31:ad:61:16:a4:62:e6:b4:40:9e:c3:fc:fb:
                    95:f6:fb:b5:2e:95:81:98:e0:ef:c5:eb:d8:02:59:
                    78:77:f7:aa:e3:52:6b:50:91:29:c5:fc:f7:cd:93:
                    65:d2:60:61:22:f2:06:fb:32:dd:16:51:fa:0e:fd:
                    8a:30:f0:17:09:a7:bb:f3:04:ae:ab:90:e7:6c:df:
                    7a:a9:f4:ef:c4:62:27:5f:6f:99:6d:38:74:aa:11:
                    8b:da:df:c7:14:4c:e9:85:b2:ec:c2:7d:4a:26:8f:
                    e7:56:ba:a6:e0:cf:92:53:80:74:f4:03:ec:68:b2:
                    60:bc:84:20:00:83:1b:a1:ee:b4:74:05:c1:29:8e:
                    62:d0:47:b1:fa:f0:53:cc:18:f9:2e:3b:f9:70:7e:
                    b4:25
                Exponent: 65537 (0x10001)
        X509v3 extensions:
            X509v3 Key Usage: critical
                Certificate Sign, CRL Sign
            X509v3 Basic Constraints: critical
                CA:TRUE, pathlen:0
            X509v3 Subject Key Identifier: 
                46:D8:3E:FF:DC:E3:BE:FF:83:E6:F4:85:9B:B0:DD:6A:D6:14:A9:C1
            X509v3 Certificate Policies: 
                Policy: X509v3 Any Policy
                  CPS: https://www.globalsign.com/repository/

            X509v3 CRL Distribution Points: 

                Full Name:
                  URI:http://crl.globalsign.net/root.crl

            X509v3 Authority Key Identifier: 
                keyid:60:7B:66:1A:45:0D:97:CA:89:50:2F:7D:04:CD:34:A8:FF:FC:FD:4B

    Signature Algorithm: sha1WithRSAEncryption
         4e:5e:56:90:1e:46:b4:d9:49:31:f3:bb:17:39:28:1b:c2:16:
         dd:fd:41:dc:09:05:04:9b:6f:b2:a2:9a:d6:99:2e:40:99:00:
         55:b5:ea:3f:a5:20:76:d3:86:34:d4:17:cc:55:3a:c7:82:ee:
         ef:a8:ba:bc:d8:06:9f:15:50:df:cd:16:7b:52:3a:02:d7:19:
         1a:fd:af:f0:78:5c:e0:4b:c5:18:df:3a:24:1e:da:ac:b8:a9:
         58:04:02:07:30:db:b0:12:5e:fe:31:be:f0:04:48:f4:f0:70:
         f8:3a:5e:56:83:cf:3d:fb:0d:bc:f4:c5:ed:97:9d:b9:d4:db:
         a5:27:84:e3:38:9b:8b:a7:35:86:44:20:a4:3b:6d:a4:6a:0b:
         a1:83:fd:28:eb:da:ef:28:f6:cc:88:5d:fb:0a:3b:00:ab:e0:
         21:eb:e2:2f:35:6c:0f:8e:34:45:97:eb:a2:f7:99:33:35:7e:
         cb:9a:8a:bb:45:4d:e7:3f:9f:c2:d9:8a:fa:65:b2:6e:c7:7e:
         65:ff:e8:92:e1:2c:31:a2:f7:b0:27:36:48:8f:26:6f:3b:ee:
         4d:76:1f:79:c3:e5:7f:96:35:bc:2d:0e:cc:01:b0:8e:7f:ff:
         51:80:80:a7:92:d4:b3:44:46:64:8c:87:4f:16:63:07:31:4b:
         63:b0:df:f3
-----BEGIN CERTIFICATE-----
MIIEFDCCAvygAwIBAgILBAAAAAABL07hUtcwDQYJKoZIhvcNAQEFBQAwVzELMAkG
A1UEBhMCQkUxGTAXBgNVBAoTEEdsb2JhbFNpZ24gbnYtc2ExEDAOBgNVBAsTB1Jv
b3QgQ0ExGzAZBgNVBAMTEkdsb2JhbFNpZ24gUm9vdCBDQTAeFw0xMTA0MTMxMDAw
MDBaFw0yODAxMjgxMjAwMDBaMFIxCzAJBgNVBAYTAkJFMRkwFwYDVQQKExBHbG9i
YWxTaWduIG52LXNhMSgwJgYDVQQDEx9HbG9iYWxTaWduIFRpbWVzdGFtcGluZyBD
QSAtIEcyMIIBIjANBgkqhkiG9w0BAQEFAAOCAQ8AMIIBCgKCAQEAlO9l+LVXn6BT
DTQG6wkft0cYasvwW+T/J6U00feJGr+esc0SQW5m1IGghYtkWkYvmaCNd7HivFzd
ItdqZ9C76Mp03otPDbBS5ZBb60cO8eefnAuQZT4XljBFcm05oRc2yrmgjBtPCBn2
gTGtYRakYua0QJ7D/PuV9vu1LpWBmODvxevYAll4d/eq41JrUJEpxfz3zZNl0mBh
IvIG+zLdFlH6Dv2KMPAXCae78wSuq5DnbN96qfTvxGInX2+ZbTh0qhGL2t/HFEzp
hbLswn1KJo/nVrqm4M+SU4B09APsaLJgvIQgAIMboe60dAXBKY5i0Eex+vBTzBj5
Ljv5cH60JQIDAQABo4HlMIHiMA4GA1UdDwEB/wQEAwIBBjASBgNVHRMBAf8ECDAG
AQH/AgEAMB0GA1UdDgQWBBRG2D7/3OO+/4Pm9IWbsN1q1hSpwTBHBgNVHSAEQDA+
MDwGBFUdIAAwNDAyBggrBgEFBQcCARYmaHR0cHM6Ly93d3cuZ2xvYmFsc2lnbi5j
b20vcmVwb3NpdG9yeS8wMwYDVR0fBCwwKjAooCagJIYiaHR0cDovL2NybC5nbG9i
YWxzaWduLm5ldC9yb290LmNybDAfBgNVHSMEGDAWgBRge2YaRQ2XyolQL30EzTSo
//z9SzANBgkqhkiG9w0BAQUFAAOCAQEATl5WkB5GtNlJMfO7FzkoG8IW3f1B3AkF
BJtvsqKa1pkuQJkAVbXqP6UgdtOGNNQXzFU6x4Lu76i6vNgGnxVQ380We1I6AtcZ
Gv2v8Hhc4EvFGN86JB7arLipWAQCBzDbsBJe/jG+8ARI9PBw+DpeVoPPPfsNvPTF
7ZedudTbpSeE4zibi6c1hkQgpDttpGoLoYP9KOva7yj2zIhd+wo7AKvgIeviLzVs
D440RZfroveZMzV+y5qKu0VN5z+fwtmK+mWybsd+Zf/okuEsMaL3sCc2SI8mbzvu
TXYfecPlf5Y1vC0OzAGwjn//UYCAp5LUs0RGZIyHTxZjBzFLY7Df8w==
-----END CERTIFICATE-----

Certificate:
    Data:
        Version: 3 (0x2)
        Serial Number:
            48:1b:6a:07:26:d2:e8:3f:26:02:d4:82:5a:cd
    Signature Algorithm: sha256WithRSAEncryption
        Issuer: OU=GlobalSign Root CA - R3, O=GlobalSign, CN=GlobalSign
        Validity
            Not Before: Jun 15 00:00:00 2016 GMT
            Not After : Jun 15 00:00:00 2024 GMT
        Subject: C=BE, O=GlobalSign nv-sa, CN=GlobalSign CodeSigning CA - SHA256 - G3
        Subject Public Key Info:
            Public Key Algorithm: rsaEncryption
                Public-Key: (2048 bit)
                Modulus:
                    00:8d:85:55:23:a9:1f:53:af:c9:ed:36:c2:29:b5:
                    6e:d8:f9:42:f5:21:8b:87:f0:43:a1:2f:c0:3f:97:
                    e3:18:47:d4:96:4e:88:ab:c6:63:e9:b6:49:15:85:
                    f1:d9:9b:7b:1b:fd:d8:4a:cc:6d:4e:86:40:17:cd:
                    7b:ba:47:28:b5:d6:14:40:0c:86:ee:1e:4b:33:f3:
                    2c:55:ee:21:8c:da:b6:c1:fe:b0:4e:3a:ae:51:9f:
                    a5:14:e3:10:e6:93:ca:fa:f9:5d:b1:90:87:ef:f8:
                    35:2d:fc:a2:5c:26:ee:7b:15:8b:1f:d9:c3:a1:97:
                    35:41:b3:30:fd:72:13:ad:91:97:3a:ce:72:9d:06:
                    0a:75:3c:1f:98:e3:cb:18:2f:8c:9f:08:4a:91:0a:
                    d9:d9:35:d9:83:92:76:62:5e:df:83:ae:e4:d6:01:
                    4e:cc:f3:3c:70:61:58:37:1f:14:e3:6a:a0:af:6b:
                    f4:d9:d2:6c:2c:19:30:5d:a0:6f:52:df:d1:9c:c9:
                    e0:0d:d9:75:11:65:96:d9:43:b4:a7:90:39:ae:47:
                    1c:54:cb:b1:95:6e:25:de:8e:f1:12:1c:f0:d7:6e:
                    e7:14:4d:b3:1a:65:d6:84:4a:57:ee:04:af:62:38:
                    c5:10:9b:43:8e:52:b8:3e:b6:ae:9e:2c:97:ff:8e:
                    74:ef
                Exponent: 65537 (0x10001)
        X509v3 extensions:
            X509v3 Key Usage: critical
                Certificate Sign, CRL Sign
            X509v3 Extended Key Usage: 
                Code Signing, OCSP Signing
            X509v3 Basic Constraints: critical
                CA:TRUE, pathlen:0
            X509v3 Subject Key Identifier: 
                0F:3A:E7:AC:94:91:74:2D:96:02:73:83:AD:9C:2E:49:3F:19:AA:54
            X509v3 Authority Key Identifier: 
                keyid:8F:F0:4B:7F:A8:2E:45:24:AE:4D:50:FA:63:9A:8B:DE:E2:DD:1B:BC

            Authority Information Access: 
                OCSP - URI:http://ocsp2.globalsign.com/rootr3

            X509v3 CRL Distribution Points: 

                Full Name:
                  URI:http://crl.globalsign.com/root-r3.crl

            X509v3 Certificate Policies: 
                Policy: 1.3.6.1.4.1.4146.1.50
                Policy: 2.23.140.1.4.1
                Policy: 1.3.6.1.4.1.4146.1.95
                  CPS: https://www.globalsign.com/repository/

    Signature Algorithm: sha256WithRSAEncryption
         15:84:28:0c:ed:a1:c3:19:82:db:63:27:41:d7:cc:63:7d:d6:
         bc:cf:36:9b:cf:d2:5d:4c:02:8b:58:1a:16:08:7a:b1:98:99:
         7f:d8:33:8a:5c:9e:62:0a:9a:ea:90:c2:c5:63:04:0b:e8:87:
         58:06:00:07:82:59:c3:a8:94:32:d9:e0:14:4d:a0:d5:23:e0:
         c7:dd:ba:f0:69:e2:4a:45:65:2d:4d:49:90:78:66:32:0e:b0:
         68:c0:b0:88:b0:8e:ed:5c:06:f8:5c:10:48:3f:23:73:ba:3b:
         53:84:52:80:cd:f0:b3:15:c8:11:0a:8b:05:78:46:59:08:d4:
         be:b7:ff:4b:f5:9c:6a:4c:9c:76:a2:11:85:45:8c:d4:37:ee:
         50:dd:e1:33:34:a9:a1:1f:3a:0b:f1:56:44:8a:6f:b3:33:d0:
         b1:8e:d1:0c:60:07:ee:32:c2:f0:24:6f:bf:af:fb:81:01:76:
         67:c4:a3:e8:e0:ab:dc:33:55:28:e3:67:47:3c:eb:6a:a4:df:
         94:e9:f4:a6:c0:81:d1:52:98:51:a6:d6:02:b7:3c:ea:4a:ef:
         d0:ba:65:d2:37:83:53:4b:7e:67:7c:8c:40:f6:07:1c:b0:af:
         04:06:dc:f8:6c:46:88:72:9c:eb:4e:9d:c3:b0:b9:54:a3:b9:
         4e:97:ca:14
-----BEGIN CERTIFICATE-----
MIIElDCCA3ygAwIBAgIOSBtqBybS6D8mAtSCWs0wDQYJKoZIhvcNAQELBQAwTDEg
MB4GA1UECxMXR2xvYmFsU2lnbiBSb290IENBIC0gUjMxEzARBgNVBAoTCkdsb2Jh
bFNpZ24xEzARBgNVBAMTCkdsb2JhbFNpZ24wHhcNMTYwNjE1MDAwMDAwWhcNMjQw
NjE1MDAwMDAwWjBaMQswCQYDVQQGEwJCRTEZMBcGA1UEChMQR2xvYmFsU2lnbiBu
di1zYTEwMC4GA1UEAxMnR2xvYmFsU2lnbiBDb2RlU2lnbmluZyBDQSAtIFNIQTI1
NiAtIEczMIIBIjANBgkqhkiG9w0BAQEFAAOCAQ8AMIIBCgKCAQEAjYVVI6kfU6/J
7TbCKbVu2PlC9SGLh/BDoS/AP5fjGEfUlk6Iq8Zj6bZJFYXx2Zt7G/3YSsxtToZA
F817ukcotdYUQAyG7h5LM/MsVe4hjNq2wf6wTjquUZ+lFOMQ5pPK+vldsZCH7/g1
LfyiXCbuexWLH9nDoZc1QbMw/XITrZGXOs5ynQYKdTwfmOPLGC+MnwhKkQrZ2TXZ
g5J2Yl7fg67k1gFOzPM8cGFYNx8U42qgr2v02dJsLBkwXaBvUt/RnMngDdl1EWWW
2UO0p5A5rkccVMuxlW4l3o7xEhzw127nFE2zGmXWhEpX7gSvYjjFEJtDjlK4Prau
niyX/4507wIDAQABo4IBZDCCAWAwDgYDVR0PAQH/BAQDAgEGMB0GA1UdJQQWMBQG
CCsGAQUFBwMDBggrBgEFBQcDCTASBgNVHRMBAf8ECDAGAQH/AgEAMB0GA1UdDgQW
BBQPOueslJF0LZYCc4OtnC5JPxmqVDAfBgNVHSMEGDAWgBSP8Et/qC5FJK5NUPpj
move4t0bvDA+BggrBgEFBQcBAQQyMDAwLgYIKwYBBQUHMAGGImh0dHA6Ly9vY3Nw
Mi5nbG9iYWxzaWduLmNvbS9yb290cjMwNgYDVR0fBC8wLTAroCmgJ4YlaHR0cDov
L2NybC5nbG9iYWxzaWduLmNvbS9yb290LXIzLmNybDBjBgNVHSAEXDBaMAsGCSsG
AQQBoDIBMjAIBgZngQwBBAEwQQYJKwYBBAGgMgFfMDQwMgYIKwYBBQUHAgEWJmh0
dHBzOi8vd3d3Lmdsb2JhbHNpZ24uY29tL3JlcG9zaXRvcnkvMA0GCSqGSIb3DQEB
CwUAA4IBAQAVhCgM7aHDGYLbYydB18xjfda8zzabz9JdTAKLWBoWCHqxmJl/2DOK
XJ5iCprqkMLFYwQL6IdYBgAHglnDqJQy2eAUTaDVI+DH3brwaeJKRWUtTUmQeGYy
DrBowLCIsI7tXAb4XBBIPyNzujtThFKAzfCzFcgRCosFeEZZCNS+t/9L9ZxqTJx2
ohGFRYzUN+5Q3eEzNKmhHzoL8VZEim+zM9CxjtEMYAfuMsLwJG+/r/uBAXZnxKPo
4KvcM1Uo42dHPOtqpN+U6fSmwIHRUphRptYCtzzqSu/QumXSN4NTS35nfIxA9gcc
sK8EBtz4bEaIcpzrTp3DsLlUo7lOl8oU
-----END CERTIFICATE-----

Certificate:
    Data:
        Version: 3 (0x2)
        Serial Number:
            11:21:d6:99:a7:64:97:3e:f1:f8:42:7e:e9:19:cc:53:41:14
    Signature Algorithm: sha1WithRSAEncryption
        Issuer: C=BE, O=GlobalSign nv-sa, CN=GlobalSign Timestamping CA - G2
        Validity
            Not Before: May 24 00:00:00 2016 GMT
            Not After : Jun 24 00:00:00 2027 GMT
        Subject: C=SG, O=GMO GlobalSign Pte Ltd, CN=GlobalSign TSA for MS Authenticode - G2
        Subject Public Key Info:
            Public Key Algorithm: rsaEncryption
                Public-Key: (2048 bit)
                Modulus:
                    00:b0:17:ae:a2:d3:b6:04:30:56:1e:58:0f:b1:ed:
                    55:a4:d6:54:cb:d8:f6:73:3a:ec:5d:5e:ab:25:fd:
                    36:a5:fa:84:c3:61:40:c5:46:b5:59:52:3b:42:a2:
                    2e:5f:13:62:10:a9:5b:e6:73:d6:92:25:b1:7d:23:
                    e3:06:b3:87:3a:0e:43:f0:d7:00:89:53:a2:11:31:
                    52:28:6e:5d:40:72:3c:f2:09:77:a7:49:92:97:d4:
                    6c:90:a0:76:a7:fd:b8:dc:b3:9d:f2:07:60:2c:4f:
                    58:98:00:6b:d3:15:54:e0:fa:dd:ff:80:2c:5f:18:
                    a6:98:ff:d4:ab:ec:a1:45:59:b2:2e:6f:62:5d:e0:
                    d9:19:ac:8b:57:9c:a8:26:2b:d9:17:a5:10:d2:47:
                    08:1a:70:2c:33:8b:7f:68:80:2a:b5:a1:5d:6b:dd:
                    8d:02:02:29:03:aa:7c:37:bb:bb:29:4e:3d:53:93:
                    b3:a6:fa:8f:d2:58:93:15:4c:b9:2d:ab:80:a3:a3:
                    25:fb:af:f7:08:64:b0:7a:44:0f:5c:10:d7:5f:61:
                    37:aa:4e:6b:d3:d2:53:25:9d:82:73:fa:2c:f9:72:
                    b0:a9:19:39:2a:50:fa:a9:d0:3c:3a:ca:e8:5b:ef:
                    f5:5f:51:f4:f9:0a:d9:97:35:de:6a:85:e6:23:04:
                    42:af
                Exponent: 65537 (0x10001)
        X509v3 extensions:
            X509v3 Key Usage: critical
                Digital Signature
            X509v3 Certificate Policies: 
                Policy: 1.3.6.1.4.1.4146.1.30
                  CPS: https://www.globalsign.com/repository/

            X509v3 Basic Constraints: 
                CA:FALSE
            X509v3 Extended Key Usage: critical
                Time Stamping
            X509v3 CRL Distribution Points: 

                Full Name:
                  URI:http://crl.globalsign.com/gs/gstimestampingg2.crl

            Authority Information Access: 
                CA Issuers - URI:http://secure.globalsign.com/cacert/gstimestampingg2.crt

            X509v3 Subject Key Identifier: 
                D4:A2:84:4A:38:5A:18:7F:BA:4F:30:50:BD:9D:D5:7A:87:D6:09:F7
            X509v3 Authority Key Identifier: 
                keyid:46:D8:3E:FF:DC:E3:BE:FF:83:E6:F4:85:9B:B0:DD:6A:D6:14:A9:C1

    Signature Algorithm: sha1WithRSAEncryption
         8f:a9:1a:91:6d:04:a6:37:20:0e:83:96:de:23:d3:6b:6e:1f:
         6e:dd:64:3d:68:21:22:b5:f8:47:36:69:8e:e1:a5:45:c7:24:
         a2:22:b7:29:09:cc:54:5a:ae:c6:bc:cd:63:8e:b3:3d:50:48:
         e5:b4:cc:ae:cd:92:8d:9e:28:8b:13:4a:11:aa:bd:a3:ef:d3:
         b2:36:fc:b4:a1:72:bf:6d:97:63:79:8c:44:bc:70:2f:7e:f3:
         bc:dd:82:53:ab:1a:f6:eb:fa:1c:97:bc:b6:37:9c:a4:1c:30:
         bc:ab:bc:2d:47:36:df:92:20:03:e8:71:c6:58:f6:75:05:9a:
         34:f0:0b:59:5a:82:44:34:aa:80:e4:2f:84:f6:47:5d:96:c9:
         b6:ca:ca:9d:b7:a6:ba:e4:50:d3:d4:37:b8:ba:20:0e:d0:d3:
         92:2a:5b:c4:59:bb:a1:6d:db:3c:ce:44:9d:c1:38:2a:ad:e3:
         8d:bd:cd:09:77:1a:10:be:67:0a:02:36:64:88:b9:b3:1b:26:
         ee:e7:9e:60:c4:46:a8:bc:61:33:6c:cf:4e:b9:9c:b9:6a:f0:
         9f:37:fe:b5:3d:4f:9a:d3:4d:ff:de:20:8e:4e:97:a6:fd:9f:
         09:bc:4d:ca:18:76:c9:b0:4d:85:50:f2:80:d2:1d:06:f5:58:
         04:07:b1:18
-----BEGIN CERTIFICATE-----
MIIEnzCCA4egAwIBAgISESHWmadklz7x+EJ+6RnMU0EUMA0GCSqGSIb3DQEBBQUA
MFIxCzAJBgNVBAYTAkJFMRkwFwYDVQQKExBHbG9iYWxTaWduIG52LXNhMSgwJgYD
VQQDEx9HbG9iYWxTaWduIFRpbWVzdGFtcGluZyBDQSAtIEcyMB4XDTE2MDUyNDAw
MDAwMFoXDTI3MDYyNDAwMDAwMFowYDELMAkGA1UEBhMCU0cxHzAdBgNVBAoTFkdN
TyBHbG9iYWxTaWduIFB0ZSBMdGQxMDAuBgNVBAMTJ0dsb2JhbFNpZ24gVFNBIGZv
ciBNUyBBdXRoZW50aWNvZGUgLSBHMjCCASIwDQYJKoZIhvcNAQEBBQADggEPADCC
AQoCggEBALAXrqLTtgQwVh5YD7HtVaTWVMvY9nM67F1eqyX9NqX6hMNhQMVGtVlS
O0KiLl8TYhCpW+Zz1pIlsX0j4wazhzoOQ/DXAIlTohExUihuXUByPPIJd6dJkpfU
bJCgdqf9uNyznfIHYCxPWJgAa9MVVOD63f+ALF8Yppj/1KvsoUVZsi5vYl3g2Rms
i1ecqCYr2RelENJHCBpwLDOLf2iAKrWhXWvdjQICKQOqfDe7uylOPVOTs6b6j9JY
kxVMuS2rgKOjJfuv9whksHpED1wQ119hN6pOa9PSUyWdgnP6LPlysKkZOSpQ+qnQ
PDrK6Fvv9V9R9PkK2Zc13mqF5iMEQq8CAwEAAaOCAV8wggFbMA4GA1UdDwEB/wQE
AwIHgDBMBgNVHSAERTBDMEEGCSsGAQQBoDIBHjA0MDIGCCsGAQUFBwIBFiZodHRw
czovL3d3dy5nbG9iYWxzaWduLmNvbS9yZXBvc2l0b3J5LzAJBgNVHRMEAjAAMBYG
A1UdJQEB/wQMMAoGCCsGAQUFBwMIMEIGA1UdHwQ7MDkwN6A1oDOGMWh0dHA6Ly9j
cmwuZ2xvYmFsc2lnbi5jb20vZ3MvZ3N0aW1lc3RhbXBpbmdnMi5jcmwwVAYIKwYB
BQUHAQEESDBGMEQGCCsGAQUFBzAChjhodHRwOi8vc2VjdXJlLmdsb2JhbHNpZ24u
Y29tL2NhY2VydC9nc3RpbWVzdGFtcGluZ2cyLmNydDAdBgNVHQ4EFgQU1KKESjha
GH+6TzBQvZ3VeofWCfcwHwYDVR0jBBgwFoAURtg+/9zjvv+D5vSFm7DdatYUqcEw
DQYJKoZIhvcNAQEFBQADggEBAI+pGpFtBKY3IA6Dlt4j02tuH27dZD1oISK1+Ec2
aY7hpUXHJKIitykJzFRarsa8zWOOsz1QSOW0zK7Nko2eKIsTShGqvaPv07I2/LSh
cr9tl2N5jES8cC9+87zdglOrGvbr+hyXvLY3nKQcMLyrvC1HNt+SIAPoccZY9nUF
mjTwC1lagkQ0qoDkL4T2R12WybbKyp23prrkUNPUN7i6IA7Q05IqW8RZu6Ft2zzO
RJ3BOCqt4429zQl3GhC+ZwoCNmSIubMbJu7nnmDERqi8YTNsz065nLlq8J83/rU9
T5rTTf/eII5Ol6b9nwm8TcoYdsmwTYVQ8oDSHQb1WAQHsRg=
-----END CERTIFICATE-----

Certificate:
    Data:
        Version: 3 (0x2)
        Serial Number:
            7f:48:80:35:89:e4:0c:64:71:83:f2:6d
    Signature Algorithm: sha256WithRSAEncryption
        Issuer: C=BE, O=GlobalSign nv-sa, CN=GlobalSign CodeSigning CA - SHA256 - G3
        Validity
            Not Before: Aug 16 15:38:13 2017 GMT
            Not After : Aug 17 15:38:13 2019 GMT
        Subject: C=RO, ST=Bucure\xC8\x99ti, L=Bucuresti, O=Greentree Applications SRL, CN=Greentree Applications SRL
        Subject Public Key Info:
            Public Key Algorithm: rsaEncryption
                Public-Key: (2048 bit)
                Modulus:
                    00:b6:ba:04:68:da:c8:d2:78:2a:4a:5e:b2:1f:ca:
                    b4:cb:dc:c5:bc:c7:1b:04:11:b9:5c:61:57:e6:8f:
                    36:09:0b:12:6d:61:d4:4f:bf:9d:b9:04:ee:a6:d3:
                    92:e5:7d:0a:bc:75:88:ef:8a:6a:2f:c9:cd:1f:2e:
                    42:53:61:bc:34:f0:a1:9a:93:30:c7:ed:0d:47:9a:
                    f9:69:1e:7b:ca:fb:c1:44:6a:1b:68:04:52:0a:6b:
                    87:1d:dc:a6:f4:44:87:2f:ba:c6:bd:b2:bf:fd:80:
                    6f:74:54:89:10:c8:7b:be:85:33:13:6c:27:63:02:
                    28:53:95:08:66:5c:6a:39:d5:41:f9:b7:23:71:57:
                    d3:c9:0d:7a:0c:fe:e0:aa:4e:4f:fe:7d:b9:9c:0d:
                    ba:7b:b7:37:05:3b:d5:d2:9a:f6:df:93:8f:34:3d:
                    7b:18:58:cb:b2:ed:45:71:11:d7:42:ca:b4:cb:28:
                    80:2e:37:8f:16:de:89:c9:c0:0c:48:7a:85:02:58:
                    ed:da:7b:da:dd:38:a7:42:34:f4:6d:80:e0:fe:31:
                    d5:5d:de:67:02:33:b4:cf:9a:54:42:5b:02:31:05:
                    98:ad:16:5c:42:5f:ad:91:be:86:20:01:92:71:04:
                    e6:74:79:fe:c7:8f:00:43:11:4c:06:8c:31:62:81:
                    b1:dd
                Exponent: 65537 (0x10001)
        X509v3 extensions:
            X509v3 Key Usage: critical
                Digital Signature
            Authority Information Access: 
                CA Issuers - URI:http://secure.globalsign.com/cacert/gscodesignsha2g3ocsp.crt
                OCSP - URI:http://ocsp2.globalsign.com/gscodesignsha2g3

            X509v3 Certificate Policies: 
                Policy: 1.3.6.1.4.1.4146.1.50
                  CPS: https://www.globalsign.com/repository/
                Policy: 2.23.140.1.4.1

            X509v3 Basic Constraints: 
                CA:FALSE
            X509v3 CRL Distribution Points: 

                Full Name:
                  URI:http://crl.globalsign.com/gscodesignsha2g3.crl

            X509v3 Extended Key Usage: 
                Code Signing
            X509v3 Subject Key Identifier: 
                D0:D6:EE:95:30:67:E2:11:D6:5B:CE:2E:13:A1:4B:7D:72:BD:8F:55
            X509v3 Authority Key Identifier: 
                keyid:0F:3A:E7:AC:94:91:74:2D:96:02:73:83:AD:9C:2E:49:3F:19:AA:54

    Signature Algorithm: sha256WithRSAEncryption
         75:a5:24:18:e4:e6:ef:37:f7:53:64:7d:ae:2e:d3:1f:4e:22:
         b7:af:0b:34:6a:5d:7c:6b:de:d9:22:ef:38:7d:49:d2:83:e0:
         ff:71:34:f0:c3:c7:39:2e:df:4f:2f:34:bc:d0:d1:31:17:ba:
         99:eb:40:68:67:f8:d5:29:53:aa:70:e7:6b:fb:e1:c3:4b:3d:
         11:b0:7e:98:c5:fc:98:d3:a0:6d:d0:06:14:47:0b:71:a5:99:
         0b:1e:d2:22:4c:6e:d6:03:ab:b2:ef:78:31:e9:77:6f:cd:85:
         02:15:bf:04:79:59:5c:41:37:fd:7e:3d:40:2f:14:f1:17:c4:
         0b:f7:1f:b7:33:ae:ad:fd:33:86:4f:13:ec:cf:89:98:b6:d0:
         10:d2:71:23:1e:ec:cf:59:44:5d:ba:27:55:08:c8:fb:de:64:
         45:38:29:f3:6c:48:f7:08:db:a9:7d:a0:6e:fd:dd:04:65:95:
         de:80:60:74:90:a3:99:d3:09:fd:af:65:1b:4b:08:45:13:5e:
         4a:bb:47:b4:cc:d3:01:f9:10:20:42:18:60:25:a2:e5:ce:5c:
         ae:b4:f3:6f:f3:79:fc:cb:cd:0c:fc:d7:3f:9b:c8:34:97:ab:
         d5:26:02:58:b6:bc:12:dc:f2:18:35:41:bb:34:44:58:22:1e:
         72:95:cb:ae
-----BEGIN CERTIFICATE-----
MIIFBzCCA++gAwIBAgIMf0iANYnkDGRxg/JtMA0GCSqGSIb3DQEBCwUAMFoxCzAJ
BgNVBAYTAkJFMRkwFwYDVQQKExBHbG9iYWxTaWduIG52LXNhMTAwLgYDVQQDEydH
bG9iYWxTaWduIENvZGVTaWduaW5nIENBIC0gU0hBMjU2IC0gRzMwHhcNMTcwODE2
MTUzODEzWhcNMTkwODE3MTUzODEzWjCBgDELMAkGA1UEBhMCUk8xEzARBgNVBAgM
CkJ1Y3VyZciZdGkxEjAQBgNVBAcTCUJ1Y3VyZXN0aTEjMCEGA1UEChMaR3JlZW50
cmVlIEFwcGxpY2F0aW9ucyBTUkwxIzAhBgNVBAMTGkdyZWVudHJlZSBBcHBsaWNh
dGlvbnMgU1JMMIIBIjANBgkqhkiG9w0BAQEFAAOCAQ8AMIIBCgKCAQEAtroEaNrI
0ngqSl6yH8q0y9zFvMcbBBG5XGFX5o82CQsSbWHUT7+duQTuptOS5X0KvHWI74pq
L8nNHy5CU2G8NPChmpMwx+0NR5r5aR57yvvBRGobaARSCmuHHdym9ESHL7rGvbK/
/YBvdFSJEMh7voUzE2wnYwIoU5UIZlxqOdVB+bcjcVfTyQ16DP7gqk5P/n25nA26
e7c3BTvV0pr235OPND17GFjLsu1FcRHXQsq0yyiALjePFt6JycAMSHqFAljt2nva
3TinQjT0bYDg/jHVXd5nAjO0z5pUQlsCMQWYrRZcQl+tkb6GIAGScQTmdHn+x48A
QxFMBowxYoGx3QIDAQABo4IBpDCCAaAwDgYDVR0PAQH/BAQDAgeAMIGUBggrBgEF
BQcBAQSBhzCBhDBIBggrBgEFBQcwAoY8aHR0cDovL3NlY3VyZS5nbG9iYWxzaWdu
LmNvbS9jYWNlcnQvZ3Njb2Rlc2lnbnNoYTJnM29jc3AuY3J0MDgGCCsGAQUFBzAB
hixodHRwOi8vb2NzcDIuZ2xvYmFsc2lnbi5jb20vZ3Njb2Rlc2lnbnNoYTJnMzBW
BgNVHSAETzBNMEEGCSsGAQQBoDIBMjA0MDIGCCsGAQUFBwIBFiZodHRwczovL3d3
dy5nbG9iYWxzaWduLmNvbS9yZXBvc2l0b3J5LzAIBgZngQwBBAEwCQYDVR0TBAIw
ADA/BgNVHR8EODA2MDSgMqAwhi5odHRwOi8vY3JsLmdsb2JhbHNpZ24uY29tL2dz
Y29kZXNpZ25zaGEyZzMuY3JsMBMGA1UdJQQMMAoGCCsGAQUFBwMDMB0GA1UdDgQW
BBTQ1u6VMGfiEdZbzi4ToUt9cr2PVTAfBgNVHSMEGDAWgBQPOueslJF0LZYCc4Ot
nC5JPxmqVDANBgkqhkiG9w0BAQsFAAOCAQEAdaUkGOTm7zf3U2R9ri7TH04it68L
NGpdfGve2SLvOH1J0oPg/3E08MPHOS7fTy80vNDRMRe6metAaGf41SlTqnDna/vh
w0s9EbB+mMX8mNOgbdAGFEcLcaWZCx7SIkxu1gOrsu94Mel3b82FAhW/BHlZXEE3
/X49QC8U8RfEC/cftzOurf0zhk8T7M+JmLbQENJxIx7sz1lEXbonVQjI+95kRTgp
82xI9wjbqX2gbv3dBGWV3oBgdJCjmdMJ/a9lG0sIRRNeSrtHtMzTAfkQIEIYYCWi
5c5crrTzb/N5/MvNDPzXP5vINJer1SYCWLa8EtzyGDVBuzREWCIecpXLrg==
-----END CERTIFICATE-----

