Certificate:
    Data:
        Version: 3 (0x2)
        Serial Number:
            41:98:fa:be:de:82:23:24:07:da:79:f1:08:a8:55:4f
    Signature Algorithm: sha256WithRSAEncryption
        Issuer: C=GB, ST=Greater Manchester, L=Salford, O=COMODO CA Limited, CN=COMODO RSA Code Signing CA
        Validity
            Not Before: May  3 00:00:00 2017 GMT
            Not After : May  2 23:59:59 2020 GMT
        Subject: C=US/postalCode=70815, ST=Louisiana, L=Baton Rouge/street=1359 Wellington Dr/postOfficeBox=22032, O=JPL Technical Solutions, OU=Information Technology, CN=JPL Technical Solutions
        Subject Public Key Info:
            Public Key Algorithm: rsaEncryption
                Public-Key: (2048 bit)
                Modulus:
                    00:b3:6d:1c:16:f6:84:92:47:29:3a:22:7c:33:19:
                    68:92:32:de:3d:60:26:d8:ce:43:34:e4:31:f1:1e:
                    cf:36:b6:a0:76:f6:c9:00:dc:ab:f3:5b:a2:f5:da:
                    ae:d2:98:b8:ce:6b:b7:43:9a:83:6a:14:cc:4f:e4:
                    3d:fd:e3:2f:37:58:ec:34:aa:86:87:ca:61:16:0e:
                    7f:23:a8:2c:96:a8:35:51:ce:e2:e6:04:86:bb:7f:
                    da:4a:17:88:da:cf:7f:f1:29:70:b7:b5:9e:dc:89:
                    5a:0b:de:d9:dc:8a:ea:c8:d7:cc:2e:d0:9c:4d:4c:
                    88:37:ff:03:64:6c:cb:ec:38:9c:38:11:f5:f5:f4:
                    39:3d:c5:82:ef:4f:ea:67:c2:aa:d5:96:0c:c5:f8:
                    2e:ce:4a:0f:17:c5:87:44:e5:ba:ee:42:2f:07:0d:
                    f6:69:16:ae:49:2c:f1:ca:96:4c:47:61:f1:2d:c6:
                    18:c4:41:f1:4b:99:e2:30:b5:9b:4b:04:03:35:9c:
                    71:85:74:ee:40:16:1c:a5:87:b3:6d:8c:2b:81:ca:
                    aa:0d:ab:de:8e:1b:b7:da:84:a3:08:ef:33:72:6c:
                    c9:06:4b:ca:fb:ce:62:a7:67:12:b0:94:56:05:b8:
                    1d:72:da:66:2d:04:53:21:4e:33:dd:31:fb:55:f7:
                    c8:df
                Exponent: 65537 (0x10001)
        X509v3 extensions:
            X509v3 Authority Key Identifier: 
                keyid:29:91:60:FF:8A:4D:FA:EB:F9:A6:6A:B8:CF:F9:E6:4B:BD:49:CE:12

            X509v3 Subject Key Identifier: 
                BF:F9:29:57:30:5D:92:13:5C:F8:B6:11:74:BC:4A:C7:17:4C:EC:17
            X509v3 Key Usage: critical
                Digital Signature
            X509v3 Basic Constraints: critical
                CA:FALSE
            X509v3 Extended Key Usage: 
                Code Signing
            Netscape Cert Type: 
                Object Signing
            X509v3 Certificate Policies: 
                Policy: 1.3.6.1.4.1.6449.1.2.1.3.2
                  CPS: https://secure.comodo.net/CPS

            X509v3 CRL Distribution Points: 

                Full Name:
                  URI:http://crl.comodoca.com/COMODORSACodeSigningCA.crl

            Authority Information Access: 
                CA Issuers - URI:http://crt.comodoca.com/COMODORSACodeSigningCA.crt
                OCSP - URI:http://ocsp.comodoca.com

            X509v3 Subject Alternative Name: 
                email:support@jpltech.com
    Signature Algorithm: sha256WithRSAEncryption
         5b:1f:05:20:cc:62:03:c5:e2:00:81:83:12:33:69:37:dc:b9:
         f3:22:e3:dc:8b:ce:49:b3:c1:8a:23:79:38:11:b4:82:2f:20:
         a5:04:9e:4a:23:a4:36:74:62:8a:b6:80:48:d0:f3:e4:1d:b8:
         5b:0a:45:97:85:97:16:31:21:07:f1:a7:3d:91:89:bf:be:57:
         9b:73:2c:74:42:45:70:91:64:c2:f6:65:f2:78:c2:ca:2e:2c:
         af:20:2f:86:ad:42:99:be:f2:78:d0:f3:4a:ce:5d:37:2f:fb:
         cc:8c:89:71:8b:6a:b0:70:20:0e:74:90:4e:fd:56:48:28:70:
         b9:b7:64:5a:ca:d4:ef:80:e1:7e:cc:e3:9a:3f:8b:76:c6:61:
         7d:d1:77:8a:8b:a1:2c:79:72:be:44:ff:8f:bb:77:f1:0d:8e:
         16:64:71:6f:fe:81:2b:c6:e3:bc:39:f1:df:f1:ff:7a:36:15:
         49:8a:17:51:b3:13:18:db:97:f0:07:e7:d0:35:ad:cf:c9:a9:
         8f:f7:ef:84:94:5c:94:fa:09:31:5c:cd:22:10:e4:de:11:54:
         86:9f:5d:e6:1a:bc:21:75:29:5e:37:9a:28:75:f7:ab:51:bd:
         71:23:5d:c5:a3:ae:62:00:2f:80:48:e6:bc:91:84:72:60:e2:
         2a:c2:16:d8
-----BEGIN CERTIFICATE-----
MIIFkDCCBHigAwIBAgIQQZj6vt6CIyQH2nnxCKhVTzANBgkqhkiG9w0BAQsFADB9
MQswCQYDVQQGEwJHQjEbMBkGA1UECBMSR3JlYXRlciBNYW5jaGVzdGVyMRAwDgYD
VQQHEwdTYWxmb3JkMRowGAYDVQQKExFDT01PRE8gQ0EgTGltaXRlZDEjMCEGA1UE
AxMaQ09NT0RPIFJTQSBDb2RlIFNpZ25pbmcgQ0EwHhcNMTcwNTAzMDAwMDAwWhcN
MjAwNTAyMjM1OTU5WjCB2TELMAkGA1UEBhMCVVMxDjAMBgNVBBEMBTcwODE1MRIw
EAYDVQQIDAlMb3Vpc2lhbmExFDASBgNVBAcMC0JhdG9uIFJvdWdlMRswGQYDVQQJ
DBIxMzU5IFdlbGxpbmd0b24gRHIxDjAMBgNVBBIMBTIyMDMyMSAwHgYDVQQKDBdK
UEwgVGVjaG5pY2FsIFNvbHV0aW9uczEfMB0GA1UECwwWSW5mb3JtYXRpb24gVGVj
aG5vbG9neTEgMB4GA1UEAwwXSlBMIFRlY2huaWNhbCBTb2x1dGlvbnMwggEiMA0G
CSqGSIb3DQEBAQUAA4IBDwAwggEKAoIBAQCzbRwW9oSSRyk6InwzGWiSMt49YCbY
zkM05DHxHs82tqB29skA3KvzW6L12q7SmLjOa7dDmoNqFMxP5D394y83WOw0qoaH
ymEWDn8jqCyWqDVRzuLmBIa7f9pKF4jaz3/xKXC3tZ7ciVoL3tnciurI18wu0JxN
TIg3/wNkbMvsOJw4EfX19Dk9xYLvT+pnwqrVlgzF+C7OSg8XxYdE5bruQi8HDfZp
Fq5JLPHKlkxHYfEtxhjEQfFLmeIwtZtLBAM1nHGFdO5AFhylh7NtjCuByqoNq96O
G7fahKMI7zNybMkGS8r7zmKnZxKwlFYFuB1y2mYtBFMhTjPdMftV98jfAgMBAAGj
ggGtMIIBqTAfBgNVHSMEGDAWgBQpkWD/ik366/mmarjP+eZLvUnOEjAdBgNVHQ4E
FgQUv/kpVzBdkhNc+LYRdLxKxxdM7BcwDgYDVR0PAQH/BAQDAgeAMAwGA1UdEwEB
/wQCMAAwEwYDVR0lBAwwCgYIKwYBBQUHAwMwEQYJYIZIAYb4QgEBBAQDAgQQMEYG
A1UdIAQ/MD0wOwYMKwYBBAGyMQECAQMCMCswKQYIKwYBBQUHAgEWHWh0dHBzOi8v
c2VjdXJlLmNvbW9kby5uZXQvQ1BTMEMGA1UdHwQ8MDowOKA2oDSGMmh0dHA6Ly9j
cmwuY29tb2RvY2EuY29tL0NPTU9ET1JTQUNvZGVTaWduaW5nQ0EuY3JsMHQGCCsG
AQUFBwEBBGgwZjA+BggrBgEFBQcwAoYyaHR0cDovL2NydC5jb21vZG9jYS5jb20v
Q09NT0RPUlNBQ29kZVNpZ25pbmdDQS5jcnQwJAYIKwYBBQUHMAGGGGh0dHA6Ly9v
Y3NwLmNvbW9kb2NhLmNvbTAeBgNVHREEFzAVgRNzdXBwb3J0QGpwbHRlY2guY29t
MA0GCSqGSIb3DQEBCwUAA4IBAQBbHwUgzGIDxeIAgYMSM2k33LnzIuPci85Js8GK
I3k4EbSCLyClBJ5KI6Q2dGKKtoBI0PPkHbhbCkWXhZcWMSEH8ac9kYm/vlebcyx0
QkVwkWTC9mXyeMLKLiyvIC+GrUKZvvJ40PNKzl03L/vMjIlxi2qwcCAOdJBO/VZI
KHC5t2RaytTvgOF+zOOaP4t2xmF90XeKi6EseXK+RP+Pu3fxDY4WZHFv/oErxuO8
OfHf8f96NhVJihdRsxMY25fwB+fQNa3PyamP9++ElFyU+gkxXM0iEOTeEVSGn13m
GrwhdSleN5oodferUb1xI13Fo65iAC+ASOa8kYRyYOIqwhbY
-----END CERTIFICATE-----

Certificate:
    Data:
        Version: 3 (0x2)
        Serial Number:
            2e:7c:87:cc:0e:93:4a:52:fe:94:fd:1c:b7:cd:34:af
    Signature Algorithm: sha384WithRSAEncryption
        Issuer: C=GB, ST=Greater Manchester, L=Salford, O=COMODO CA Limited, CN=COMODO RSA Certification Authority
        Validity
            Not Before: May  9 00:00:00 2013 GMT
            Not After : May  8 23:59:59 2028 GMT
        Subject: C=GB, ST=Greater Manchester, L=Salford, O=COMODO CA Limited, CN=COMODO RSA Code Signing CA
        Subject Public Key Info:
            Public Key Algorithm: rsaEncryption
                Public-Key: (2048 bit)
                Modulus:
                    00:a6:98:90:63:77:91:34:7f:8a:d1:dd:e9:67:31:
                    11:eb:cc:1e:fd:31:1d:b3:b9:62:57:3f:93:bc:5b:
                    e3:9f:1e:24:32:11:27:6b:bc:51:91:a7:cf:9e:9e:
                    25:b3:5f:81:a8:18:0f:1d:1e:20:30:0e:fb:61:7b:
                    86:09:b3:e3:fd:a2:68:9d:1c:2c:9d:bf:72:e3:e4:
                    75:a0:e5:35:23:8e:c9:8a:ee:1a:0c:64:c7:d8:42:
                    a1:7b:b5:52:03:4b:3a:b0:8e:23:4b:4b:63:e0:22:
                    94:37:7b:d5:79:90:0a:14:18:51:2c:e6:fe:c1:12:
                    f0:1c:3f:61:61:0a:8c:a2:dc:f6:c3:30:aa:cd:28:
                    18:75:48:c1:79:5a:08:cd:bb:8c:55:8c:f7:d4:76:
                    90:3a:33:46:50:73:98:5c:f4:85:4a:6b:0f:80:dd:
                    5e:d6:bd:fd:a9:2f:c0:25:f5:f9:78:d7:8d:5f:10:
                    c2:44:55:3c:90:3c:31:46:cb:70:ae:07:a9:0a:e3:
                    af:c1:01:6f:90:1a:23:e2:5f:38:db:c6:08:5d:47:
                    b3:83:41:f0:2e:00:37:14:b9:12:aa:79:92:52:cd:
                    87:0f:7b:d8:62:29:a4:7e:30:bd:1b:b5:8c:72:b4:
                    48:f2:e3:e8:21:f9:5e:4c:62:79:8b:02:06:9f:7f:
                    d5:0b
                Exponent: 65537 (0x10001)
        X509v3 extensions:
            X509v3 Authority Key Identifier: 
                keyid:BB:AF:7E:02:3D:FA:A6:F1:3C:84:8E:AD:EE:38:98:EC:D9:32:32:D4

            X509v3 Subject Key Identifier: 
                29:91:60:FF:8A:4D:FA:EB:F9:A6:6A:B8:CF:F9:E6:4B:BD:49:CE:12
            X509v3 Key Usage: critical
                Digital Signature, Certificate Sign, CRL Sign
            X509v3 Basic Constraints: critical
                CA:TRUE, pathlen:0
            X509v3 Extended Key Usage: 
                Code Signing
            X509v3 Certificate Policies: 
                Policy: X509v3 Any Policy

            X509v3 CRL Distribution Points: 

                Full Name:
                  URI:http://crl.comodoca.com/COMODORSACertificationAuthority.crl

            Authority Information Access: 
                CA Issuers - URI:http://crt.comodoca.com/COMODORSAAddTrustCA.crt
                OCSP - URI:http://ocsp.comodoca.com

    Signature Algorithm: sha384WithRSAEncryption
         02:3f:02:39:c3:ee:f8:ca:3b:89:de:0c:6d:4d:b1:f1:4e:92:
         4f:af:c2:38:2c:04:cc:c5:63:11:ab:09:63:af:ab:a2:d7:02:
         3f:cc:6f:19:c3:3d:d6:1a:08:94:ff:25:d8:a9:88:a7:2b:10:
         1a:e0:9b:b1:07:22:1a:51:1c:3a:d4:e1:e9:09:bf:e6:24:74:
         af:1e:7b:16:31:6e:23:ef:54:51:2d:52:02:e2:75:08:05:4c:
         f1:b7:51:e1:51:00:c6:87:f6:6c:ee:10:44:76:57:6a:f1:df:
         58:6b:21:aa:49:d4:7c:37:4e:bd:ff:b6:75:54:40:18:36:57:
         67:11:cd:4f:02:e4:fe:f3:da:fc:75:17:db:ec:b7:f7:65:09:
         23:49:1f:43:57:83:ea:7e:20:77:61:c8:4d:f2:bb:65:4d:a8:
         f7:85:45:07:af:7a:69:27:65:90:29:40:8b:df:7b:3a:51:39:
         8c:a8:1f:70:79:ad:6d:42:20:a2:cf:0c:6c:03:8c:4c:cd:73:
         07:94:e7:5a:8e:3a:04:ba:a2:a1:7c:1f:cb:63:3a:15:a7:d4:
         15:1b:a7:52:47:32:a9:f4:bf:64:47:d1:aa:1f:53:4e:32:30:
         73:c2:6f:b7:78:82:9d:5c:ff:46:bb:6b:22:1d:88:0b:f8:1b:
         aa:34:a6:fc:8c:f5:dd:7f:65:8c:8c:31:57:31:d0:36:ec:47:
         a1:cf:cb:8b:a8:ef:1c:18:58:c5:06:77:ca:4b:9b:51:af:4c:
         08:4a:7a:8f:e2:a3:52:e2:8e:8e:cc:26:e4:b2:d8:e5:38:c2:
         a8:ed:c6:81:9c:35:6b:a9:58:61:4a:0a:97:b4:4b:42:b6:55:
         9d:be:99:e7:70:6d:59:f8:6d:2a:0c:7f:19:60:5f:0c:9a:88:
         6c:30:ac:52:09:90:16:1b:ff:2b:9d:db:d0:20:ca:89:ea:28:
         7e:32:8e:19:df:7b:48:33:1e:d7:65:f8:ae:c9:f8:83:14:93:
         76:7d:64:d0:8e:ce:be:35:7d:ff:72:31:4d:9f:9e:bd:1e:6c:
         2f:a8:8f:0c:06:50:fb:8c:27:b3:76:c9:f4:e6:d7:c3:34:e2:
         8c:87:21:86:61:fe:bf:55:74:e1:21:77:03:0a:68:6c:bb:e4:
         c9:a9:e6:cf:59:25:eb:7c:ec:45:0e:79:66:68:e8:22:cd:b8:
         ef:98:85:4d:96:11:3c:09:8a:d0:7f:bc:28:28:13:fb:6a:ca:
         54:8d:92:5c:cd:c2:65:98:06:9e:ce:48:5b:d4:b5:37:93:46:
         41:7c:07:dd:cf:fa:43:ef:ba:67:61:ff:7d:49:e0:bb:30:7d:
         5c:80:e3:e6:16:39:4b:a7
-----BEGIN CERTIFICATE-----
MIIF4DCCA8igAwIBAgIQLnyHzA6TSlL+lP0ct800rzANBgkqhkiG9w0BAQwFADCB
hTELMAkGA1UEBhMCR0IxGzAZBgNVBAgTEkdyZWF0ZXIgTWFuY2hlc3RlcjEQMA4G
A1UEBxMHU2FsZm9yZDEaMBgGA1UEChMRQ09NT0RPIENBIExpbWl0ZWQxKzApBgNV
BAMTIkNPTU9ETyBSU0EgQ2VydGlmaWNhdGlvbiBBdXRob3JpdHkwHhcNMTMwNTA5
MDAwMDAwWhcNMjgwNTA4MjM1OTU5WjB9MQswCQYDVQQGEwJHQjEbMBkGA1UECBMS
R3JlYXRlciBNYW5jaGVzdGVyMRAwDgYDVQQHEwdTYWxmb3JkMRowGAYDVQQKExFD
T01PRE8gQ0EgTGltaXRlZDEjMCEGA1UEAxMaQ09NT0RPIFJTQSBDb2RlIFNpZ25p
bmcgQ0EwggEiMA0GCSqGSIb3DQEBAQUAA4IBDwAwggEKAoIBAQCmmJBjd5E0f4rR
3elnMRHrzB79MR2zuWJXP5O8W+OfHiQyESdrvFGRp8+eniWzX4GoGA8dHiAwDvth
e4YJs+P9omidHCydv3Lj5HWg5TUjjsmK7hoMZMfYQqF7tVIDSzqwjiNLS2PgIpQ3
e9V5kAoUGFEs5v7BEvAcP2FhCoyi3PbDMKrNKBh1SMF5WgjNu4xVjPfUdpA6M0ZQ
c5hc9IVKaw+A3V7Wvf2pL8Al9fl4141fEMJEVTyQPDFGy3CuB6kK46/BAW+QGiPi
XzjbxghdR7ODQfAuADcUuRKqeZJSzYcPe9hiKaR+ML0btYxytEjy4+gh+V5MYnmL
Agaff9ULAgMBAAGjggFRMIIBTTAfBgNVHSMEGDAWgBS7r34CPfqm8TyEjq3uOJjs
2TIy1DAdBgNVHQ4EFgQUKZFg/4pN+uv5pmq4z/nmS71JzhIwDgYDVR0PAQH/BAQD
AgGGMBIGA1UdEwEB/wQIMAYBAf8CAQAwEwYDVR0lBAwwCgYIKwYBBQUHAwMwEQYD
VR0gBAowCDAGBgRVHSAAMEwGA1UdHwRFMEMwQaA/oD2GO2h0dHA6Ly9jcmwuY29t
b2RvY2EuY29tL0NPTU9ET1JTQUNlcnRpZmljYXRpb25BdXRob3JpdHkuY3JsMHEG
CCsGAQUFBwEBBGUwYzA7BggrBgEFBQcwAoYvaHR0cDovL2NydC5jb21vZG9jYS5j
b20vQ09NT0RPUlNBQWRkVHJ1c3RDQS5jcnQwJAYIKwYBBQUHMAGGGGh0dHA6Ly9v
Y3NwLmNvbW9kb2NhLmNvbTANBgkqhkiG9w0BAQwFAAOCAgEAAj8COcPu+Mo7id4M
bU2x8U6ST6/COCwEzMVjEasJY6+rotcCP8xvGcM91hoIlP8l2KmIpysQGuCbsQci
GlEcOtTh6Qm/5iR0rx57FjFuI+9UUS1SAuJ1CAVM8bdR4VEAxof2bO4QRHZXavHf
WGshqknUfDdOvf+2dVRAGDZXZxHNTwLk/vPa/HUX2+y392UJI0kfQ1eD6n4gd2HI
TfK7ZU2o94VFB696aSdlkClAi997OlE5jKgfcHmtbUIgos8MbAOMTM1zB5TnWo46
BLqioXwfy2M6FafUFRunUkcyqfS/ZEfRqh9TTjIwc8Jvt3iCnVz/RrtrIh2IC/gb
qjSm/Iz13X9ljIwxVzHQNuxHoc/Li6jvHBhYxQZ3ykubUa9MCEp6j+KjUuKOjswm
5LLY5TjCqO3GgZw1a6lYYUoKl7RLQrZVnb6Z53BtWfhtKgx/GWBfDJqIbDCsUgmQ
Fhv/K53b0CDKieoofjKOGd97SDMe12X4rsn4gxSTdn1k0I7OvjV9/3IxTZ+evR5s
L6iPDAZQ+4wns3bJ9ObXwzTijIchhmH+v1V04SF3AwpobLvkyanmz1kl63zsRQ55
ZmjoIs2475iFTZYRPAmK0H+8KCgT+2rKVI2SXM3CZZgGns5IW9S1N5NGQXwH3c/6
Q++6Z2H/fUnguzB9XIDj5hY5S6c=
-----END CERTIFICATE-----

