Certificate:
    Data:
        Version: 3 (0x2)
        Serial Number:
            35:8c:15:ee:fd:d3:3c:61:c0:15:8b:ad:ee:ae:c2:d7
    Signature Algorithm: sha1WithRSAEncryption
        Issuer: C=US, O=Thawte, Inc., CN=Thawte Code Signing CA - G2
        Validity
            Not Before: Sep 19 00:00:00 2011 GMT
            Not After : Nov  7 23:59:59 2013 GMT
        Subject: C=US, ST=California, L=Sunnyvale, O=EVERNOTE CORPORATION, CN=EVERNOTE CORPORATION
        Subject Public Key Info:
            Public Key Algorithm: rsaEncryption
                Public-Key: (2048 bit)
                Modulus:
                    00:ab:ae:87:27:18:a6:a6:f5:cc:5f:39:7e:3b:67:
                    42:09:9a:96:4f:6d:51:f1:51:5a:bd:a0:22:20:c2:
                    ef:ae:73:97:bf:b8:e2:b3:3e:47:ab:26:4f:3d:9b:
                    4c:99:48:4f:2d:d6:1c:c0:af:95:d9:be:73:99:9e:
                    fd:a8:29:c2:e9:ce:d2:61:3f:52:c6:44:a3:ac:dc:
                    3f:f6:12:00:4d:af:24:d0:47:2c:66:ac:f8:bd:5d:
                    b0:98:da:b8:c9:69:e2:02:60:83:20:c2:8c:07:d0:
                    21:5f:2c:27:fd:81:ef:2c:50:b0:51:5a:7d:78:61:
                    63:14:7b:ca:63:66:d2:30:57:f9:d8:3a:c5:20:c0:
                    d5:e8:2a:66:e3:0c:e1:e8:59:6b:65:8f:cb:4d:4a:
                    ea:56:8b:2e:40:55:0b:8d:5f:9e:44:1a:62:bc:d2:
                    33:8e:46:9b:37:c4:61:fe:ad:20:a6:0d:de:66:ce:
                    a1:19:fe:97:9b:08:99:8f:89:a2:04:2a:a9:3b:4c:
                    e8:e8:3f:9d:14:0f:29:12:80:02:e5:63:d4:bd:48:
                    08:72:7c:76:e2:a0:0f:f5:94:9d:c5:4d:0d:d2:f0:
                    49:d3:88:ba:68:c5:53:bf:9a:8c:7c:72:cf:66:e9:
                    b0:cc:d7:28:af:fe:c0:f5:9b:dc:72:75:aa:be:7c:
                    7c:b7
                Exponent: 65537 (0x10001)
        X509v3 extensions:
            X509v3 Basic Constraints: critical
                CA:FALSE
            X509v3 CRL Distribution Points: 

                Full Name:
                  URI:http://cs-g2-crl.thawte.com/ThawteCSG2.crl

            X509v3 Extended Key Usage: 
                Code Signing, Microsoft Commercial Code Signing
            2.5.29.4: 
                0.0.0..
+.....7.......
            Authority Information Access: 
                OCSP - URI:http://ocsp.thawte.com

            Netscape Cert Type: 
                Object Signing
    Signature Algorithm: sha1WithRSAEncryption
         3d:92:38:d8:49:ce:b0:a6:62:27:97:12:06:62:60:e6:c9:2c:
         55:ec:cb:22:96:59:50:d7:e0:01:f6:57:e0:de:15:79:c0:2b:
         1a:4d:5d:5c:af:c2:56:18:7d:2d:a9:b0:4a:a8:f5:04:64:55:
         1e:5b:f0:a9:aa:f4:96:a9:e9:d4:5c:64:40:71:bf:ec:e6:de:
         65:b6:64:bb:45:7a:b8:42:19:e6:25:f2:64:d5:8c:d5:88:3d:
         b8:9d:17:94:87:cc:ea:c2:e1:98:dd:33:c5:99:cb:04:02:37:
         33:41:a6:2a:38:7b:60:87:7d:3e:2a:b9:3b:0a:2e:a8:f8:f1:
         f0:63:69:5c:a2:06:4d:ee:ec:cb:5f:16:3f:5d:27:f3:82:f0:
         f5:17:af:a3:77:fd:b9:11:a5:92:e9:26:82:db:de:72:ef:d1:
         65:71:c5:a5:ce:4a:c5:bb:ef:4f:76:15:4b:bc:55:da:01:a6:
         06:54:bc:b4:69:fd:cf:60:a1:7b:a2:42:e9:fd:a4:88:ba:2c:
         00:4a:f9:9a:c3:25:ac:b2:53:06:95:0a:f3:ed:54:79:89:cb:
         f6:3d:3a:bd:9f:3f:0e:92:28:99:f2:a5:27:bc:19:fb:12:2f:
         2e:9f:72:92:6b:01:62:e8:ca:da:94:d9:4e:72:d0:84:9c:ca:
         ae:8d:73:90
-----BEGIN CERTIFICATE-----
MIIEHjCCAwagAwIBAgIQNYwV7v3TPGHAFYut7q7C1zANBgkqhkiG9w0BAQUFADBK
MQswCQYDVQQGEwJVUzEVMBMGA1UEChMMVGhhd3RlLCBJbmMuMSQwIgYDVQQDExtU
aGF3dGUgQ29kZSBTaWduaW5nIENBIC0gRzIwHhcNMTEwOTE5MDAwMDAwWhcNMTMx
MTA3MjM1OTU5WjB0MQswCQYDVQQGEwJVUzETMBEGA1UECBMKQ2FsaWZvcm5pYTES
MBAGA1UEBxMJU3Vubnl2YWxlMR0wGwYDVQQKFBRFVkVSTk9URSBDT1JQT1JBVElP
TjEdMBsGA1UEAxQURVZFUk5PVEUgQ09SUE9SQVRJT04wggEiMA0GCSqGSIb3DQEB
AQUAA4IBDwAwggEKAoIBAQCrrocnGKam9cxfOX47Z0IJmpZPbVHxUVq9oCIgwu+u
c5e/uOKzPkerJk89m0yZSE8t1hzAr5XZvnOZnv2oKcLpztJhP1LGRKOs3D/2EgBN
ryTQRyxmrPi9XbCY2rjJaeICYIMgwowH0CFfLCf9ge8sULBRWn14YWMUe8pjZtIw
V/nYOsUgwNXoKmbjDOHoWWtlj8tNSupWiy5AVQuNX55EGmK80jOORps3xGH+rSCm
Dd5mzqEZ/pebCJmPiaIEKqk7TOjoP50UDykSgALlY9S9SAhyfHbioA/1lJ3FTQ3S
8EnTiLpoxVO/mox8cs9m6bDM1yiv/sD1m9xydaq+fHy3AgMBAAGjgdUwgdIwDAYD
VR0TAQH/BAIwADA7BgNVHR8ENDAyMDCgLqAshipodHRwOi8vY3MtZzItY3JsLnRo
YXd0ZS5jb20vVGhhd3RlQ1NHMi5jcmwwHwYDVR0lBBgwFgYIKwYBBQUHAwMGCisG
AQQBgjcCARYwHQYDVR0EBBYwFDAOMAwGCisGAQQBgjcCARYDAgeAMDIGCCsGAQUF
BwEBBCYwJDAiBggrBgEFBQcwAYYWaHR0cDovL29jc3AudGhhd3RlLmNvbTARBglg
hkgBhvhCAQEEBAMCBBAwDQYJKoZIhvcNAQEFBQADggEBAD2SONhJzrCmYieXEgZi
YObJLFXsyyKWWVDX4AH2V+DeFXnAKxpNXVyvwlYYfS2psEqo9QRkVR5b8Kmq9Jap
6dRcZEBxv+zm3mW2ZLtFerhCGeYl8mTVjNWIPbidF5SHzOrC4ZjdM8WZywQCNzNB
pio4e2CHfT4quTsKLqj48fBjaVyiBk3u7MtfFj9dJ/OC8PUXr6N3/bkRpZLpJoLb
3nLv0WVxxaXOSsW77092FUu8VdoBpgZUvLRp/c9goXuiQun9pIi6LABK+ZrDJayy
UwaVCvPtVHmJy/Y9Or2fPw6SKJnypSe8GfsSLy6fcpJrAWLoytqU2U5y0IScyq6N
c5A=
-----END CERTIFICATE-----

Certificate:
    Data:
        Version: 3 (0x2)
        Serial Number:
            47:97:4d:78:73:a5:bc:ab:0d:2f:b3:70:19:2f:ce:5e
    Signature Algorithm: sha1WithRSAEncryption
        Issuer: C=US, O=thawte, Inc., OU=Certification Services Division, OU=(c) 2006 thawte, Inc. - For authorized use only, CN=thawte Primary Root CA
        Validity
            Not Before: Feb  8 00:00:00 2010 GMT
            Not After : Feb  7 23:59:59 2020 GMT
        Subject: C=US, O=Thawte, Inc., CN=Thawte Code Signing CA - G2
        Subject Public Key Info:
            Public Key Algorithm: rsaEncryption
                Public-Key: (2048 bit)
                Modulus:
                    00:b7:8b:cf:75:5b:9f:25:da:7e:39:b0:93:db:38:
                    d3:a9:23:d0:82:fa:e9:24:7e:5c:0b:8e:83:f8:e6:
                    7a:59:e6:a3:c5:98:a7:99:d2:44:ff:00:a6:a5:39:
                    04:8a:da:29:88:ea:db:a2:f3:1c:99:15:26:c2:b1:
                    f4:fc:e1:0c:47:a9:09:11:06:0a:20:92:b9:c7:a0:
                    04:8c:5c:94:19:ab:5b:25:2c:1d:62:7e:70:0d:ce:
                    61:6c:dd:2b:82:c9:ce:5d:48:5f:f7:c2:be:bc:41:
                    23:1e:4f:29:5d:d7:4f:bc:f4:c5:2a:fc:63:e6:7c:
                    26:4e:99:a7:79:41:9e:10:4a:7a:79:c9:c6:86:f7:
                    86:95:d2:26:ce:3c:18:2a:d6:7c:ce:af:cd:ad:bb:
                    f7:82:2c:70:26:37:45:e5:0f:47:22:c6:01:28:bd:
                    2e:83:5c:6a:a4:47:c1:e7:d0:d8:6b:81:46:3f:21:
                    17:f5:07:c5:43:5a:a6:67:2c:b8:7b:60:11:b5:83:
                    ee:f5:74:0a:72:71:44:3d:58:fe:e8:1a:ab:38:c3:
                    59:db:7f:6e:38:7d:76:c7:72:69:98:36:96:57:d3:
                    66:1c:d2:54:91:04:2e:54:19:b0:dc:3d:b5:22:5e:
                    86:d5:2a:7e:20:df:5d:e6:7a:b1:65:fe:c5:02:4e:
                    31:2d
                Exponent: 65537 (0x10001)
        X509v3 extensions:
            X509v3 Basic Constraints: critical
                CA:TRUE, pathlen:0
            X509v3 CRL Distribution Points: 

                Full Name:
                  URI:http://crl.thawte.com/ThawtePCA.crl

            X509v3 Key Usage: critical
                Certificate Sign, CRL Sign
            Authority Information Access: 
                OCSP - URI:http://ocsp.thawte.com

            X509v3 Extended Key Usage: 
                TLS Web Client Authentication, Code Signing
            X509v3 Subject Alternative Name: 
                DirName:/CN=VeriSignMPKI-2-10
            X509v3 Subject Key Identifier: 
                D4:0D:65:3F:7A:BD:34:C6:FE:47:E7:4C:0D:C0:BD:F2:DE:15:AB:71
            X509v3 Authority Key Identifier: 
                keyid:7B:5B:45:CF:AF:CE:CB:7A:FD:31:92:1A:6A:B6:F3:46:EB:57:48:50

    Signature Algorithm: sha1WithRSAEncryption
         56:fe:53:5c:e1:c7:9e:bc:a7:ed:7e:53:6d:6a:14:4b:51:8c:
         40:5e:80:5f:aa:a4:e8:2f:ef:38:c8:04:c9:ca:3e:cf:df:3a:
         58:4e:b0:d4:b6:63:c5:29:57:fa:02:05:9a:45:4d:68:db:2a:
         1b:d4:34:3d:9f:00:c3:5a:cb:95:49:a5:6e:e1:b0:c5:fc:41:
         4d:41:4a:6f:d3:77:c8:d7:38:8d:e4:19:de:18:f3:1f:15:65:
         83:6d:45:0c:53:f9:0a:9a:2e:a5:5d:bf:6f:32:81:18:92:19:
         6a:55:00:ad:63:1c:52:06:7e:55:d9:29:68:ae:4a:7c:18:9a:
         79:88:6b:23:23:d8:27:38:2a:29:87:76:ca:fb:c7:b6:62:23:
         1f:ed:7a:56:4c:dd:9c:32:5b:f5:3d:0c:46:18:95:3b:2a:23:
         68:83:64:41:d9:00:6d:0f:19:24:15:68:72:bd:c5:71:67:6e:
         ac:4c:db:90:eb:51:a5:1a:62:07:d0:be:6a:00:47:3c:72:2f:
         ec:4f:61:3e:73:85:ce:5a:0a:b7:ba:c0:1c:13:75:e3:22:39:
         28:dd:6d:1d:09:46:9d:4f:ba:e8:40:81:91:c6:a4:ce:94:72:
         1b:01:cf:2a:6e:15:67:95:89:ae:7d:b7:b7:cd:f9:0a:3d:75:
         b6:6b:3c:25
-----BEGIN CERTIFICATE-----
MIIEnDCCA4SgAwIBAgIQR5dNeHOlvKsNL7NwGS/OXjANBgkqhkiG9w0BAQUFADCB
qTELMAkGA1UEBhMCVVMxFTATBgNVBAoTDHRoYXd0ZSwgSW5jLjEoMCYGA1UECxMf
Q2VydGlmaWNhdGlvbiBTZXJ2aWNlcyBEaXZpc2lvbjE4MDYGA1UECxMvKGMpIDIw
MDYgdGhhd3RlLCBJbmMuIC0gRm9yIGF1dGhvcml6ZWQgdXNlIG9ubHkxHzAdBgNV
BAMTFnRoYXd0ZSBQcmltYXJ5IFJvb3QgQ0EwHhcNMTAwMjA4MDAwMDAwWhcNMjAw
MjA3MjM1OTU5WjBKMQswCQYDVQQGEwJVUzEVMBMGA1UEChMMVGhhd3RlLCBJbmMu
MSQwIgYDVQQDExtUaGF3dGUgQ29kZSBTaWduaW5nIENBIC0gRzIwggEiMA0GCSqG
SIb3DQEBAQUAA4IBDwAwggEKAoIBAQC3i891W58l2n45sJPbONOpI9CC+ukkflwL
joP45npZ5qPFmKeZ0kT/AKalOQSK2imI6tui8xyZFSbCsfT84QxHqQkRBgogkrnH
oASMXJQZq1slLB1ifnANzmFs3SuCyc5dSF/3wr68QSMeTyld10+89MUq/GPmfCZO
mad5QZ4QSnp5ycaG94aV0ibOPBgq1nzOr82tu/eCLHAmN0XlD0cixgEovS6DXGqk
R8Hn0NhrgUY/IRf1B8VDWqZnLLh7YBG1g+71dApycUQ9WP7oGqs4w1nbf244fXbH
cmmYNpZX02Yc0lSRBC5UGbDcPbUiXobVKn4g313merFl/sUCTjEtAgMBAAGjggEc
MIIBGDASBgNVHRMBAf8ECDAGAQH/AgEAMDQGA1UdHwQtMCswKaAnoCWGI2h0dHA6
Ly9jcmwudGhhd3RlLmNvbS9UaGF3dGVQQ0EuY3JsMA4GA1UdDwEB/wQEAwIBBjAy
BggrBgEFBQcBAQQmMCQwIgYIKwYBBQUHMAGGFmh0dHA6Ly9vY3NwLnRoYXd0ZS5j
b20wHQYDVR0lBBYwFAYIKwYBBQUHAwIGCCsGAQUFBwMDMCkGA1UdEQQiMCCkHjAc
MRowGAYDVQQDExFWZXJpU2lnbk1QS0ktMi0xMDAdBgNVHQ4EFgQU1A1lP3q9NMb+
R+dMDcC98t4Vq3EwHwYDVR0jBBgwFoAUe1tFz6/Oy3r9MZIaarbzRutXSFAwDQYJ
KoZIhvcNAQEFBQADggEBAFb+U1zhx568p+1+U21qFEtRjEBegF+qpOgv7zjIBMnK
Ps/fOlhOsNS2Y8UpV/oCBZpFTWjbKhvUND2fAMNay5VJpW7hsMX8QU1BSm/Td8jX
OI3kGd4Y8x8VZYNtRQxT+QqaLqVdv28ygRiSGWpVAK1jHFIGflXZKWiuSnwYmnmI
ayMj2Cc4KimHdsr7x7ZiIx/telZM3ZwyW/U9DEYYlTsqI2iDZEHZAG0PGSQVaHK9
xXFnbqxM25DrUaUaYgfQvmoARzxyL+xPYT5zhc5aCre6wBwTdeMiOSjdbR0JRp1P
uuhAgZHGpM6UchsBzypuFWeVia59t7fN+Qo9dbZrPCU=
-----END CERTIFICATE-----

