Certificate:
    Data:
        Version: 3 (0x2)
        Serial Number: 10 (0xa)
    Signature Algorithm: sha1WithRSAEncryption
        Issuer: C=ZA, ST=Western Cape, L=Cape Town, O=Thawte Consulting cc, OU=Certification Services Division, CN=Thawte Premium Server CA/emailAddress=premium-server@thawte.com
        Validity
            Not Before: Aug  6 00:00:00 2003 GMT
            Not After : Aug  5 23:59:59 2013 GMT
        Subject: C=ZA, O=Thawte Consulting (Pty) Ltd., CN=Thawte Code Signing CA
        Subject Public Key Info:
            Public Key Algorithm: rsaEncryption
                Public-Key: (1024 bit)
                Modulus:
                    00:c6:b8:b9:27:60:af:0b:e3:91:69:65:db:7e:8d:
                    ed:91:e6:aa:f1:be:d5:ed:fe:6d:d4:2c:7f:d1:70:
                    77:fb:26:99:57:b4:dd:3f:30:b8:dc:21:ea:68:8d:
                    81:92:fc:2e:4b:91:35:84:20:f2:da:4a:ba:b4:fc:
                    e6:da:88:f2:20:c5:21:92:09:47:95:a0:09:1c:a6:
                    79:be:b1:4c:1d:fc:f1:8a:6e:54:d2:69:a1:f1:4c:
                    93:3a:41:fe:7d:d4:64:7b:63:45:f7:60:60:1d:31:
                    1d:a4:e9:d3:0f:8b:fb:6e:26:24:b3:a8:ff:e5:e5:
                    90:d4:b4:c2:dc:50:60:ae:59
                Exponent: 65537 (0x10001)
        X509v3 extensions:
            X509v3 Basic Constraints: critical
                CA:TRUE, pathlen:0
            X509v3 CRL Distribution Points: 

                Full Name:
                  URI:http://crl.thawte.com/ThawtePremiumServerCA.crl

            X509v3 Extended Key Usage: 
                TLS Web Client Authentication, Code Signing
            X509v3 Key Usage: critical
                Certificate Sign, CRL Sign
            X509v3 Subject Alternative Name: 
                DirName:/CN=PrivateLabel2-144
    Signature Algorithm: sha1WithRSAEncryption
         76:b2:9c:ee:13:9f:1b:f6:2d:34:92:94:45:73:34:dc:8e:6b:
         2e:5c:fc:4c:7d:89:eb:c3:68:f1:d7:99:0f:2e:1d:17:c8:b5:
         16:8b:be:cd:8a:05:06:f2:19:49:3a:03:5b:05:c9:20:8e:6d:
         52:e1:76:81:a0:c3:65:8a:22:67:e4:1c:53:53:37:46:bf:bc:
         d7:2f:eb:7b:9e:d0:14:45:6c:40:21:08:e2:5d:75:76:66:30:
         1e:f4:df:82:8a:2f:bd:f3:a2:0c:bf:1d:db:9f:14:a2:9a:72:
         37:4d:b0:77:48:e8:4a:3f:09:ce:55:19:2c:ef:e6:07:24:e1:
         af:ec
-----BEGIN CERTIFICATE-----
MIIDTjCCAregAwIBAgIBCjANBgkqhkiG9w0BAQUFADCBzjELMAkGA1UEBhMCWkEx
FTATBgNVBAgTDFdlc3Rlcm4gQ2FwZTESMBAGA1UEBxMJQ2FwZSBUb3duMR0wGwYD
VQQKExRUaGF3dGUgQ29uc3VsdGluZyBjYzEoMCYGA1UECxMfQ2VydGlmaWNhdGlv
biBTZXJ2aWNlcyBEaXZpc2lvbjEhMB8GA1UEAxMYVGhhd3RlIFByZW1pdW0gU2Vy
dmVyIENBMSgwJgYJKoZIhvcNAQkBFhlwcmVtaXVtLXNlcnZlckB0aGF3dGUuY29t
MB4XDTAzMDgwNjAwMDAwMFoXDTEzMDgwNTIzNTk1OVowVTELMAkGA1UEBhMCWkEx
JTAjBgNVBAoTHFRoYXd0ZSBDb25zdWx0aW5nIChQdHkpIEx0ZC4xHzAdBgNVBAMT
FlRoYXd0ZSBDb2RlIFNpZ25pbmcgQ0EwgZ8wDQYJKoZIhvcNAQEBBQADgY0AMIGJ
AoGBAMa4uSdgrwvjkWll236N7ZHmqvG+1e3+bdQsf9Fwd/smmVe03T8wuNwh6miN
gZL8LkuRNYQg8tpKurT85tqI8iDFIZIJR5WgCRymeb6xTB388YpuVNJpofFMkzpB
/n3UZHtjRfdgYB0xHaTp0w+L+24mJLOo/+XlkNS0wtxQYK5ZAgMBAAGjgbMwgbAw
EgYDVR0TAQH/BAgwBgEB/wIBADBABgNVHR8EOTA3MDWgM6Axhi9odHRwOi8vY3Js
LnRoYXd0ZS5jb20vVGhhd3RlUHJlbWl1bVNlcnZlckNBLmNybDAdBgNVHSUEFjAU
BggrBgEFBQcDAgYIKwYBBQUHAwMwDgYDVR0PAQH/BAQDAgEGMCkGA1UdEQQiMCCk
HjAcMRowGAYDVQQDExFQcml2YXRlTGFiZWwyLTE0NDANBgkqhkiG9w0BAQUFAAOB
gQB2spzuE58b9i00kpRFczTcjmsuXPxMfYnrw2jx15kPLh0XyLUWi77NigUG8hlJ
OgNbBckgjm1S4XaBoMNliiJn5BxTUzdGv7zXL+t7ntAURWxAIQjiXXV2ZjAe9N+C
ii+986IMvx3bnxSimnI3TbB3SOhKPwnOVRks7+YHJOGv7A==
-----END CERTIFICATE-----

Certificate:
    Data:
        Version: 3 (0x2)
        Serial Number:
            38:25:d7:fa:f8:61:af:9e:f4:90:e7:26:b5:d6:5a:d5
    Signature Algorithm: sha1WithRSAEncryption
        Issuer: C=US, O=VeriSign, Inc., CN=VeriSign Time Stamping Services CA
        Validity
            Not Before: Jun 15 00:00:00 2007 GMT
            Not After : Jun 14 23:59:59 2012 GMT
        Subject: C=US, O=VeriSign, Inc., CN=VeriSign Time Stamping Services Signer - G2
        Subject Public Key Info:
            Public Key Algorithm: rsaEncryption
                Public-Key: (1024 bit)
                Modulus:
                    00:c4:b5:f2:52:15:bc:88:86:60:29:16:4a:5b:2f:
                    4b:91:6b:87:91:f3:35:54:58:35:ea:d1:36:5e:62:
                    4d:52:51:34:71:c2:7b:66:1d:89:c8:dd:2a:c4:6a:
                    0a:f6:37:d9:98:74:91:f6:92:ae:b0:b5:76:96:f1:
                    a9:4a:63:45:47:2e:6b:0b:92:4e:4b:2b:8c:ee:58:
                    4a:8b:d4:07:e4:1a:2c:f8:82:aa:58:d9:cd:42:f3:
                    2d:c0:75:de:8d:ab:c7:8e:1d:9a:6c:4c:08:95:1e:
                    de:db:ef:67:e1:72:c2:49:c2:9e:60:3c:e1:e2:be:
                    16:a3:63:78:69:14:7b:ad:2d
                Exponent: 65537 (0x10001)
        X509v3 extensions:
            Authority Information Access: 
                OCSP - URI:http://ocsp.verisign.com

            X509v3 Basic Constraints: critical
                CA:FALSE
            X509v3 CRL Distribution Points: 

                Full Name:
                  URI:http://crl.verisign.com/tss-ca.crl

            X509v3 Extended Key Usage: critical
                Time Stamping
            X509v3 Key Usage: critical
                Digital Signature, Non Repudiation
            X509v3 Subject Alternative Name: 
                DirName:/CN=TSA1-2
    Signature Algorithm: sha1WithRSAEncryption
         50:c5:4b:c8:24:80:df:e4:0d:24:c2:de:1a:b1:a1:02:a1:a6:
         82:2d:0c:83:15:81:37:0a:82:0e:2c:b0:5a:17:61:b5:d8:05:
         fe:88:db:f1:91:91:b3:56:1a:40:a6:eb:92:be:38:39:b0:75:
         36:74:3a:98:4f:e4:37:ba:99:89:ca:95:42:1d:b0:b9:c7:a0:
         8d:57:e0:fa:d5:64:04:42:35:4e:01:d1:33:a2:17:c8:4d:aa:
         27:c7:f2:e1:86:4c:02:38:4d:83:78:c6:fc:53:e0:eb:e0:06:
         87:dd:a4:96:9e:5e:0c:98:e2:a5:be:bf:82:85:c3:60:e1:df:
         ad:28:d8:c7:a5:4b:64:da:c7:1b:5b:bd:ac:39:08:d5:38:22:
         a1:33:8b:2f:8a:9a:eb:bc:07:21:3f:44:41:09:07:b5:65:1c:
         24:bc:48:d3:44:80:eb:a1:cf:c9:02:b4:14:cf:54:c7:16:a3:
         80:5c:f9:79:3e:5d:72:7d:88:17:9e:2c:43:a2:ca:53:ce:7d:
         3d:f6:2a:3a:b8:4f:94:00:a5:6d:0a:83:5d:f9:5e:53:f4:18:
         b3:57:0f:70:c3:fb:f5:ad:95:a0:0e:17:de:c4:16:80:60:c9:
         0f:2b:6e:86:04:f1:eb:f4:78:27:d1:05:c5:ee:34:5b:5e:b9:
         49:32:f2:33
-----BEGIN CERTIFICATE-----
MIIDejCCAmKgAwIBAgIQOCXX+vhhr570kOcmtdZa1TANBgkqhkiG9w0BAQUFADBT
MQswCQYDVQQGEwJVUzEXMBUGA1UEChMOVmVyaVNpZ24sIEluYy4xKzApBgNVBAMT
IlZlcmlTaWduIFRpbWUgU3RhbXBpbmcgU2VydmljZXMgQ0EwHhcNMDcwNjE1MDAw
MDAwWhcNMTIwNjE0MjM1OTU5WjBcMQswCQYDVQQGEwJVUzEXMBUGA1UEChMOVmVy
aVNpZ24sIEluYy4xNDAyBgNVBAMTK1ZlcmlTaWduIFRpbWUgU3RhbXBpbmcgU2Vy
dmljZXMgU2lnbmVyIC0gRzIwgZ8wDQYJKoZIhvcNAQEBBQADgY0AMIGJAoGBAMS1
8lIVvIiGYCkWSlsvS5Frh5HzNVRYNerRNl5iTVJRNHHCe2YdicjdKsRqCvY32Zh0
kfaSrrC1dpbxqUpjRUcuawuSTksrjO5YSovUB+QaLPiCqljZzULzLcB13o2rx44d
mmxMCJUe3tvvZ+FywknCnmA84eK+FqNjeGkUe60tAgMBAAGjgcQwgcEwNAYIKwYB
BQUHAQEEKDAmMCQGCCsGAQUFBzABhhhodHRwOi8vb2NzcC52ZXJpc2lnbi5jb20w
DAYDVR0TAQH/BAIwADAzBgNVHR8ELDAqMCigJqAkhiJodHRwOi8vY3JsLnZlcmlz
aWduLmNvbS90c3MtY2EuY3JsMBYGA1UdJQEB/wQMMAoGCCsGAQUFBwMIMA4GA1Ud
DwEB/wQEAwIGwDAeBgNVHREEFzAVpBMwETEPMA0GA1UEAxMGVFNBMS0yMA0GCSqG
SIb3DQEBBQUAA4IBAQBQxUvIJIDf5A0kwt4asaECoaaCLQyDFYE3CoIOLLBaF2G1
2AX+iNvxkZGzVhpApuuSvjg5sHU2dDqYT+Q3upmJypVCHbC5x6CNV+D61WQEQjVO
AdEzohfITaonx/LhhkwCOE2DeMb8U+Dr4AaH3aSWnl4MmOKlvr+ChcNg4d+tKNjH
pUtk2scbW72sOQjVOCKhM4sviprrvAchP0RBCQe1ZRwkvEjTRIDroc/JArQUz1TH
FqOAXPl5Pl1yfYgXnixDospTzn099io6uE+UAKVtCoNd+V5T9BizVw9ww/v1rZWg
DhfexBaAYMkPK26GBPHr9Hgn0QXF7jRbXrlJMvIz
-----END CERTIFICATE-----

Certificate:
    Data:
        Version: 3 (0x2)
        Serial Number:
            13:11:e3:e9:30:be:9f:6c:c2:90:8f:4b:e1:05:1c:f2
    Signature Algorithm: sha1WithRSAEncryption
        Issuer: C=ZA, O=Thawte Consulting (Pty) Ltd., CN=Thawte Code Signing CA
        Validity
            Not Before: Jul  2 19:06:03 2008 GMT
            Not After : Jun 28 22:05:32 2009 GMT
        Subject: C=SE, ST=Uppsala, L=Uppsala, O=MySQL AB, OU=Engineering, CN=MySQL AB
        Subject Public Key Info:
            Public Key Algorithm: rsaEncryption
                Public-Key: (2048 bit)
                Modulus:
                    00:d1:6a:1c:18:38:7f:78:19:f0:67:04:2c:ff:12:
                    4b:2d:ab:45:e2:70:6c:d2:c4:14:ae:81:63:83:0e:
                    8e:f5:c7:8d:fe:5c:6e:a6:69:32:5a:a1:4f:36:af:
                    c4:d8:9b:d5:02:2d:c9:55:5a:4a:d2:69:fe:3a:db:
                    5d:e0:75:78:64:e3:33:12:3e:8d:c9:be:97:81:2c:
                    c9:cd:99:89:34:da:ed:ad:4f:6d:98:91:6b:9b:d4:
                    48:7a:f8:b8:6f:39:1a:ce:f5:eb:4e:4c:ad:0d:90:
                    95:2c:c4:75:56:4d:51:af:40:6d:0f:0d:bf:07:b2:
                    47:21:7f:c7:29:e0:c2:98:76:df:3a:15:ef:97:6d:
                    ee:9e:7d:b2:f7:7b:23:16:b5:50:54:09:8c:a1:e5:
                    7f:24:9c:04:2a:5f:7e:12:d3:a7:d5:0d:e9:3a:1e:
                    3d:f0:ec:09:5b:c1:15:13:fd:74:cc:36:5c:38:ae:
                    e5:74:a8:2a:ed:85:d0:c9:b8:4a:01:fa:43:78:bb:
                    f5:c7:4c:5a:e7:0e:bc:a5:7f:cf:c9:50:68:f9:b3:
                    35:5e:7b:d8:28:bd:57:2b:e8:fd:7e:6e:bd:e8:16:
                    48:a9:be:46:07:07:42:d1:24:47:94:f3:fc:c0:df:
                    b2:c3:cc:ee:1a:14:2c:af:9c:fb:51:71:4b:c8:a4:
                    d0:17
                Exponent: 65537 (0x10001)
        X509v3 extensions:
            X509v3 Extended Key Usage: 
                Code Signing, Microsoft Commercial Code Signing
            Netscape Cert Type: 
                Object Signing
            2.5.29.4: 
                0.0.0..
+.....7.......
            X509v3 Subject Alternative Name: 
                DNS:www.mysql.com
            X509v3 CRL Distribution Points: 

                Full Name:
                  URI:http://crl.thawte.com/ThawteCodeSigningCA.crl

            Authority Information Access: 
                OCSP - URI:http://ocsp.thawte.com

            X509v3 Basic Constraints: critical
                CA:FALSE
    Signature Algorithm: sha1WithRSAEncryption
         5c:ab:54:21:b2:9c:8f:33:59:ca:e5:93:3c:a3:b9:df:2c:56:
         6c:9e:55:6d:97:13:b1:60:56:f0:81:d7:92:ee:09:8b:99:61:
         d9:44:2f:aa:e4:16:0c:59:79:d0:89:2d:32:46:99:3d:dc:8f:
         aa:ae:58:ab:8f:ae:d6:f5:f1:05:94:03:c6:39:4b:fc:f8:29:
         e0:18:92:fc:7a:c1:e0:c3:4a:1b:7c:75:2a:5e:58:d3:53:04:
         23:41:c5:75:0d:68:b5:fc:62:1b:66:cb:a8:5d:50:b5:4d:f2:
         84:f1:ef:44:50:4c:f8:cd:4d:cd:05:25:55:ba:51:31:66:95:
         5a:b9
-----BEGIN CERTIFICATE-----
MIIDvjCCAyegAwIBAgIQExHj6TC+n2zCkI9L4QUc8jANBgkqhkiG9w0BAQUFADBV
MQswCQYDVQQGEwJaQTElMCMGA1UEChMcVGhhd3RlIENvbnN1bHRpbmcgKFB0eSkg
THRkLjEfMB0GA1UEAxMWVGhhd3RlIENvZGUgU2lnbmluZyBDQTAeFw0wODA3MDIx
OTA2MDNaFw0wOTA2MjgyMjA1MzJaMG0xCzAJBgNVBAYTAlNFMRAwDgYDVQQIEwdV
cHBzYWxhMRAwDgYDVQQHEwdVcHBzYWxhMREwDwYDVQQKEwhNeVNRTCBBQjEUMBIG
A1UECxMLRW5naW5lZXJpbmcxETAPBgNVBAMTCE15U1FMIEFCMIIBIjANBgkqhkiG
9w0BAQEFAAOCAQ8AMIIBCgKCAQEA0WocGDh/eBnwZwQs/xJLLatF4nBs0sQUroFj
gw6O9ceN/lxupmkyWqFPNq/E2JvVAi3JVVpK0mn+Ottd4HV4ZOMzEj6Nyb6XgSzJ
zZmJNNrtrU9tmJFrm9RIevi4bzkazvXrTkytDZCVLMR1Vk1Rr0BtDw2/B7JHIX/H
KeDCmHbfOhXvl23unn2y93sjFrVQVAmMoeV/JJwEKl9+EtOn1Q3pOh498OwJW8EV
E/10zDZcOK7ldKgq7YXQybhKAfpDeLv1x0xa5w68pX/PyVBo+bM1XnvYKL1XK+j9
fm696BZIqb5GBwdC0SRHlPP8wN+yw8zuGhQsr5z7UXFLyKTQFwIDAQABo4HyMIHv
MB8GA1UdJQQYMBYGCCsGAQUFBwMDBgorBgEEAYI3AgEWMBEGCWCGSAGG+EIBAQQE
AwIEEDAdBgNVHQQEFjAUMA4wDAYKKwYBBAGCNwIBFgMCB4AwGAYDVR0RBBEwD4IN
d3d3Lm15c3FsLmNvbTA+BgNVHR8ENzA1MDOgMaAvhi1odHRwOi8vY3JsLnRoYXd0
ZS5jb20vVGhhd3RlQ29kZVNpZ25pbmdDQS5jcmwwMgYIKwYBBQUHAQEEJjAkMCIG
CCsGAQUFBzABhhZodHRwOi8vb2NzcC50aGF3dGUuY29tMAwGA1UdEwEB/wQCMAAw
DQYJKoZIhvcNAQEFBQADgYEAXKtUIbKcjzNZyuWTPKO53yxWbJ5VbZcTsWBW8IHX
ku4Ji5lh2UQvquQWDFl50IktMkaZPdyPqq5Yq4+u1vXxBZQDxjlL/Pgp4BiS/HrB
4MNKG3x1Kl5Y01MEI0HFdQ1otfxiG2bLqF1QtU3yhPHvRFBM+M1NzQUlVbpRMWaV
Wrk=
-----END CERTIFICATE-----

Certificate:
    Data:
        Version: 3 (0x2)
        Serial Number:
            47:bf:19:95:df:8d:52:46:43:f7:db:6d:48:0d:31:a4
    Signature Algorithm: sha1WithRSAEncryption
        Issuer: C=ZA, ST=Western Cape, L=Durbanville, O=Thawte, OU=Thawte Certification, CN=Thawte Timestamping CA
        Validity
            Not Before: Dec  4 00:00:00 2003 GMT
            Not After : Dec  3 23:59:59 2013 GMT
        Subject: C=US, O=VeriSign, Inc., CN=VeriSign Time Stamping Services CA
        Subject Public Key Info:
            Public Key Algorithm: rsaEncryption
                Public-Key: (2048 bit)
                Modulus:
                    00:a9:ca:b2:a4:cc:cd:20:af:0a:7d:89:ac:87:75:
                    f0:b4:4e:f1:df:c1:0f:bf:67:61:bd:a3:64:1c:da:
                    bb:f9:ca:33:ab:84:30:89:58:7e:8c:db:6b:dd:36:
                    9e:0f:bf:d1:ec:78:f2:77:a6:7e:6f:3c:bf:93:af:
                    0d:ba:68:f4:6c:94:ca:bd:52:2d:ab:48:3d:f5:b6:
                    d5:5d:5f:1b:02:9f:fa:2f:6b:1e:a4:f7:a3:9a:a6:
                    1a:c8:02:e1:7f:4c:52:e3:0e:60:ec:40:1c:7e:b9:
                    0d:de:3f:c7:b4:df:87:bd:5f:7a:6a:31:2e:03:99:
                    81:13:a8:47:20:ce:31:73:0d:57:2d:cd:78:34:33:
                    95:12:99:12:b9:de:68:2f:aa:e6:e3:c2:8a:8c:2a:
                    c3:8b:21:87:66:bd:83:58:57:6f:75:bf:3c:aa:26:
                    87:5d:ca:10:15:3c:9f:84:ea:54:c1:0a:6e:c4:fe:
                    c5:4a:dd:b9:07:11:97:22:7c:db:3e:27:d1:1e:78:
                    ec:9f:31:c9:f1:e6:22:19:db:c4:b3:47:43:9a:1a:
                    5f:a0:1e:90:e4:5e:f5:ee:7c:f1:7d:ab:62:01:8f:
                    f5:4d:0b:de:d0:22:56:a8:95:cd:ae:88:76:ae:ee:
                    ba:0d:f3:e4:4d:d9:a0:fb:68:a0:ae:14:3b:b3:87:
                    c1:bb
                Exponent: 65537 (0x10001)
        X509v3 extensions:
            Authority Information Access: 
                OCSP - URI:http://ocsp.verisign.com

            X509v3 Basic Constraints: critical
                CA:TRUE, pathlen:0
            X509v3 CRL Distribution Points: 

                Full Name:
                  URI:http://crl.verisign.com/ThawteTimestampingCA.crl

            X509v3 Extended Key Usage: 
                Time Stamping
            X509v3 Key Usage: critical
                Certificate Sign, CRL Sign
            X509v3 Subject Alternative Name: 
                DirName:/CN=TSA2048-1-53
    Signature Algorithm: sha1WithRSAEncryption
         4a:6b:f9:ea:58:c2:44:1c:31:89:79:99:2b:96:bf:82:ac:01:
         d6:1c:4c:cd:b0:8a:58:6e:df:08:29:a3:5e:c8:ca:93:13:e7:
         04:52:0d:ef:47:27:2f:00:38:b0:e4:c9:93:4e:9a:d4:22:62:
         15:f7:3f:37:21:4f:70:31:80:f1:8b:38:87:b3:e8:e8:97:00:
         fe:cf:55:96:4e:24:d2:a9:27:4e:7a:ae:b7:61:41:f3:2a:ce:
         e7:c9:d9:5e:dd:bb:2b:85:3e:b5:9d:b5:d9:e1:57:ff:be:b4:
         c5:7e:f5:cf:0c:9e:f0:97:fe:2b:d3:3b:52:1b:1b:38:27:f7:
         3f:4a
-----BEGIN CERTIFICATE-----
MIIDxDCCAy2gAwIBAgIQR78Zld+NUkZD99ttSA0xpDANBgkqhkiG9w0BAQUFADCB
izELMAkGA1UEBhMCWkExFTATBgNVBAgTDFdlc3Rlcm4gQ2FwZTEUMBIGA1UEBxML
RHVyYmFudmlsbGUxDzANBgNVBAoTBlRoYXd0ZTEdMBsGA1UECxMUVGhhd3RlIENl
cnRpZmljYXRpb24xHzAdBgNVBAMTFlRoYXd0ZSBUaW1lc3RhbXBpbmcgQ0EwHhcN
MDMxMjA0MDAwMDAwWhcNMTMxMjAzMjM1OTU5WjBTMQswCQYDVQQGEwJVUzEXMBUG
A1UEChMOVmVyaVNpZ24sIEluYy4xKzApBgNVBAMTIlZlcmlTaWduIFRpbWUgU3Rh
bXBpbmcgU2VydmljZXMgQ0EwggEiMA0GCSqGSIb3DQEBAQUAA4IBDwAwggEKAoIB
AQCpyrKkzM0grwp9iayHdfC0TvHfwQ+/Z2G9o2Qc2rv5yjOrhDCJWH6M22vdNp4P
v9HsePJ3pn5vPL+Trw26aPRslMq9Ui2rSD31ttVdXxsCn/ovax6k96OaphrIAuF/
TFLjDmDsQBx+uQ3eP8e034e9X3pqMS4DmYETqEcgzjFzDVctzXg0M5USmRK53mgv
qubjwoqMKsOLIYdmvYNYV291vzyqJoddyhAVPJ+E6lTBCm7E/sVK3bkHEZcifNs+
J9EeeOyfMcnx5iIZ28SzR0OaGl+gHpDkXvXufPF9q2IBj/VNC97QIlaolc2uiHau
7roN8+RN2aD7aKCuFDuzh8G7AgMBAAGjgdswgdgwNAYIKwYBBQUHAQEEKDAmMCQG
CCsGAQUFBzABhhhodHRwOi8vb2NzcC52ZXJpc2lnbi5jb20wEgYDVR0TAQH/BAgw
BgEB/wIBADBBBgNVHR8EOjA4MDagNKAyhjBodHRwOi8vY3JsLnZlcmlzaWduLmNv
bS9UaGF3dGVUaW1lc3RhbXBpbmdDQS5jcmwwEwYDVR0lBAwwCgYIKwYBBQUHAwgw
DgYDVR0PAQH/BAQDAgEGMCQGA1UdEQQdMBukGTAXMRUwEwYDVQQDEwxUU0EyMDQ4
LTEtNTMwDQYJKoZIhvcNAQEFBQADgYEASmv56ljCRBwxiXmZK5a/gqwB1hxMzbCK
WG7fCCmjXsjKkxPnBFIN70cnLwA4sOTJk06a1CJiFfc/NyFPcDGA8Ys4h7Po6JcA
/s9Vlk4k0qknTnqut2FB8yrO58nZXt27K4U+tZ212eFX/760xX71zwye8Jf+K9M7
UhsbOCf3P0o=
-----END CERTIFICATE-----

