Certificate:
    Data:
        Version: 3 (0x2)
        Serial Number:
            69:38:b2:23:fb:5a:2c:2f:44:95:1c:9e:42:3a:12:e9
    Signature Algorithm: sha1WithRSAEncryption
        Issuer: C=US, O=VeriSign, Inc., OU=VeriSign Trust Network, OU=Terms of use at https://www.verisign.com/rpa (c)10, CN=VeriSign Class 3 Code Signing 2010 CA
        Validity
            Not Before: Mar  4 00:00:00 2015 GMT
            Not After : Mar 27 23:59:59 2018 GMT
        Subject: C=US, ST=California, L=San Jose, O=Qualcomm Atheros, CN=Qualcomm Atheros
        Subject Public Key Info:
            Public Key Algorithm: rsaEncryption
                Public-Key: (2048 bit)
                Modulus:
                    00:f1:87:87:8b:c1:5e:a6:b7:7e:63:62:15:b2:5c:
                    58:0b:7c:f7:8e:0b:5f:2a:74:ee:49:e0:f0:59:7b:
                    d9:b9:8b:55:82:87:c0:87:4b:46:a2:b8:77:a9:a6:
                    ba:9c:5b:7f:a6:e9:4d:91:17:ca:99:6d:53:79:9b:
                    e9:81:ec:c3:a7:01:ac:cd:23:80:fd:4d:dc:f7:aa:
                    9b:e4:7c:3a:85:d9:e9:15:71:c5:f6:f9:7f:5f:f6:
                    e5:89:3a:ab:e6:02:aa:e0:67:f0:8c:64:02:68:66:
                    57:0a:cc:c6:1e:67:fe:b6:8d:48:8f:86:75:c8:9a:
                    29:bb:23:29:f9:92:ea:c5:01:f7:60:ab:47:0e:96:
                    13:f0:de:3b:05:f7:0f:f8:b6:36:88:90:5e:98:c9:
                    1d:05:9c:db:64:6b:9c:ee:75:23:33:6a:92:6a:97:
                    3d:ff:5d:b3:e6:2e:39:3c:d7:d6:9d:9b:14:69:e2:
                    42:9b:b5:8d:6f:1a:d4:4f:0a:1c:24:b2:9b:53:97:
                    82:a4:19:2e:77:10:51:c7:bc:09:23:a6:a0:b6:51:
                    13:df:0b:05:92:df:68:6b:49:79:42:89:7f:96:e9:
                    b9:5e:22:1c:68:6b:4b:ca:96:22:4c:f6:40:c1:42:
                    c4:6a:bc:b7:83:da:1f:46:2b:78:5e:8f:de:08:df:
                    77:21
                Exponent: 65537 (0x10001)
        X509v3 extensions:
            X509v3 Basic Constraints: 
                CA:FALSE
            X509v3 Key Usage: critical
                Digital Signature
            X509v3 CRL Distribution Points: 

                Full Name:
                  URI:http://sf.symcb.com/sf.crl

            X509v3 Certificate Policies: 
                Policy: 2.16.840.1.113733.1.7.23.3
                  CPS: https://d.symcb.com/cps
                  User Notice:
                    Explicit Text: https://d.symcb.com/rpa

            X509v3 Extended Key Usage: 
                Code Signing
            Authority Information Access: 
                OCSP - URI:http://sf.symcd.com
                CA Issuers - URI:http://sf.symcb.com/sf.crt

            X509v3 Authority Key Identifier: 
                keyid:CF:99:A9:EA:7B:26:F4:4B:C9:8E:8F:D7:F0:05:26:EF:E3:D2:A7:9D

            X509v3 Subject Key Identifier: 
                FE:3C:9C:05:63:4C:7F:5D:83:47:96:C7:26:97:1B:10:E9:B7:26:B3
            Netscape Cert Type: 
                Object Signing
            1.3.6.1.4.1.311.2.1.27: 
                0.......
    Signature Algorithm: sha1WithRSAEncryption
         89:2e:a7:61:61:0b:d3:2d:2d:af:4c:41:72:6b:4c:df:65:5f:
         d7:e6:0f:eb:90:d6:dc:d3:aa:4d:3e:47:48:63:e5:76:72:e9:
         01:18:a5:03:3c:2f:26:b4:ad:99:80:55:93:89:9d:c6:36:c2:
         35:5c:dd:a0:b7:46:84:25:da:49:78:90:49:bd:23:df:e2:8d:
         56:1e:a1:48:39:3a:38:8b:59:32:2d:18:ae:c1:b9:41:33:52:
         e1:d9:9e:d0:f2:3d:e5:9d:90:ef:53:e0:31:db:34:6b:39:8f:
         5c:a3:76:ef:5b:c7:f7:e9:a1:98:3b:bd:e4:57:20:e0:ae:61:
         5d:84:1a:34:90:23:52:d8:5a:8e:e7:0e:f5:4c:31:b0:c6:bc:
         c5:ac:67:7a:a7:48:79:35:8e:5e:37:b9:28:7f:38:1f:5d:6d:
         48:e6:f2:0c:d0:4c:ac:d6:27:33:6e:22:5e:2f:dc:6d:e5:63:
         fe:99:75:4b:c4:b3:f0:be:d9:87:76:eb:d9:02:98:90:7e:cb:
         78:16:1f:69:2a:61:a4:e8:36:39:40:49:cc:e8:8b:30:75:da:
         01:21:8d:c5:2e:7f:c7:93:56:cc:d7:bc:66:c5:e3:17:e7:1b:
         ca:7c:28:77:0e:85:65:78:74:8b:6d:cb:8c:c1:2d:37:24:65:
         28:85:6f:02
-----BEGIN CERTIFICATE-----
MIIFOTCCBCGgAwIBAgIQaTiyI/taLC9ElRyeQjoS6TANBgkqhkiG9w0BAQUFADCB
tDELMAkGA1UEBhMCVVMxFzAVBgNVBAoTDlZlcmlTaWduLCBJbmMuMR8wHQYDVQQL
ExZWZXJpU2lnbiBUcnVzdCBOZXR3b3JrMTswOQYDVQQLEzJUZXJtcyBvZiB1c2Ug
YXQgaHR0cHM6Ly93d3cudmVyaXNpZ24uY29tL3JwYSAoYykxMDEuMCwGA1UEAxMl
VmVyaVNpZ24gQ2xhc3MgMyBDb2RlIFNpZ25pbmcgMjAxMCBDQTAeFw0xNTAzMDQw
MDAwMDBaFw0xODAzMjcyMzU5NTlaMGsxCzAJBgNVBAYTAlVTMRMwEQYDVQQIEwpD
YWxpZm9ybmlhMREwDwYDVQQHEwhTYW4gSm9zZTEZMBcGA1UEChQQUXVhbGNvbW0g
QXRoZXJvczEZMBcGA1UEAxQQUXVhbGNvbW0gQXRoZXJvczCCASIwDQYJKoZIhvcN
AQEBBQADggEPADCCAQoCggEBAPGHh4vBXqa3fmNiFbJcWAt8944LXyp07kng8Fl7
2bmLVYKHwIdLRqK4d6mmupxbf6bpTZEXypltU3mb6YHsw6cBrM0jgP1N3Peqm+R8
OoXZ6RVxxfb5f1/25Yk6q+YCquBn8IxkAmhmVwrMxh5n/raNSI+GdciaKbsjKfmS
6sUB92CrRw6WE/DeOwX3D/i2NoiQXpjJHQWc22RrnO51IzNqkmqXPf9ds+YuOTzX
1p2bFGniQpu1jW8a1E8KHCSym1OXgqQZLncQUce8CSOmoLZRE98LBZLfaGtJeUKJ
f5bpuV4iHGhrS8qWIkz2QMFCxGq8t4PaH0YreF6P3gjfdyECAwEAAaOCAY0wggGJ
MAkGA1UdEwQCMAAwDgYDVR0PAQH/BAQDAgeAMCsGA1UdHwQkMCIwIKAeoByGGmh0
dHA6Ly9zZi5zeW1jYi5jb20vc2YuY3JsMGYGA1UdIARfMF0wWwYLYIZIAYb4RQEH
FwMwTDAjBggrBgEFBQcCARYXaHR0cHM6Ly9kLnN5bWNiLmNvbS9jcHMwJQYIKwYB
BQUHAgIwGQwXaHR0cHM6Ly9kLnN5bWNiLmNvbS9ycGEwEwYDVR0lBAwwCgYIKwYB
BQUHAwMwVwYIKwYBBQUHAQEESzBJMB8GCCsGAQUFBzABhhNodHRwOi8vc2Yuc3lt
Y2QuY29tMCYGCCsGAQUFBzAChhpodHRwOi8vc2Yuc3ltY2IuY29tL3NmLmNydDAf
BgNVHSMEGDAWgBTPmanqeyb0S8mOj9fwBSbv49KnnTAdBgNVHQ4EFgQU/jycBWNM
f12DR5bHJpcbEOm3JrMwEQYJYIZIAYb4QgEBBAQDAgQQMBYGCisGAQQBgjcCARsE
CDAGAQEAAQH/MA0GCSqGSIb3DQEBBQUAA4IBAQCJLqdhYQvTLS2vTEFya0zfZV/X
5g/rkNbc06pNPkdIY+V2cukBGKUDPC8mtK2ZgFWTiZ3GNsI1XN2gt0aEJdpJeJBJ
vSPf4o1WHqFIOTo4i1kyLRiuwblBM1Lh2Z7Q8j3lnZDvU+Ax2zRrOY9co3bvW8f3
6aGYO73kVyDgrmFdhBo0kCNS2FqO5w71TDGwxrzFrGd6p0h5NY5eN7kofzgfXW1I
5vIM0Eys1iczbiJeL9xt5WP+mXVLxLPwvtmHduvZApiQfst4Fh9pKmGk6DY5QEnM
6IswddoBIY3FLn/Hk1bM17xmxeMX5xvKfCh3DoVleHSLbcuMwS03JGUohW8C
-----END CERTIFICATE-----

Certificate:
    Data:
        Version: 3 (0x2)
        Serial Number:
            52:00:e5:aa:25:56:fc:1a:86:ed:96:c9:d4:4b:33:c7
    Signature Algorithm: sha1WithRSAEncryption
        Issuer: C=US, O=VeriSign, Inc., OU=VeriSign Trust Network, OU=(c) 2006 VeriSign, Inc. - For authorized use only, CN=VeriSign Class 3 Public Primary Certification Authority - G5
        Validity
            Not Before: Feb  8 00:00:00 2010 GMT
            Not After : Feb  7 23:59:59 2020 GMT
        Subject: C=US, O=VeriSign, Inc., OU=VeriSign Trust Network, OU=Terms of use at https://www.verisign.com/rpa (c)10, CN=VeriSign Class 3 Code Signing 2010 CA
        Subject Public Key Info:
            Public Key Algorithm: rsaEncryption
                Public-Key: (2048 bit)
                Modulus:
                    00:f5:23:4b:5e:a5:d7:8a:bb:32:e9:d4:57:f7:ef:
                    e4:c7:26:7e:ad:19:98:fe:a8:9d:7d:94:f6:36:6b:
                    10:d7:75:81:30:7f:04:68:7f:cb:2b:75:1e:cd:1d:
                    08:8c:df:69:94:a7:37:a3:9c:7b:80:e0:99:e1:ee:
                    37:4d:5f:ce:3b:14:ee:86:d4:d0:f5:27:35:bc:25:
                    0b:38:a7:8c:63:9d:17:a3:08:a5:ab:b0:fb:cd:6a:
                    62:82:4c:d5:21:da:1b:d9:f1:e3:84:3b:8a:2a:4f:
                    85:5b:90:01:4f:c9:a7:76:10:7f:27:03:7c:be:ae:
                    7e:7d:c1:dd:f9:05:bc:1b:48:9c:69:e7:c0:a4:3c:
                    3c:41:00:3e:df:96:e5:c5:e4:94:71:d6:55:01:c7:
                    00:26:4a:40:3c:b5:a1:26:a9:0c:a7:6d:80:8e:90:
                    25:7b:cf:bf:3f:1c:eb:2f:96:fa:e5:87:77:c6:b5:
                    56:b2:7a:3b:54:30:53:1b:df:62:34:ff:1e:d1:f4:
                    5a:93:28:85:e5:4c:17:4e:7e:5b:fd:a4:93:99:7f:
                    df:cd:ef:a4:75:ef:ef:15:f6:47:e7:f8:19:72:d8:
                    2e:34:1a:a6:b4:a7:4c:7e:bd:bb:4f:0c:3d:57:f1:
                    30:d6:a6:36:8e:d6:80:76:d7:19:2e:a5:cd:7e:34:
                    2d:89
                Exponent: 65537 (0x10001)
        X509v3 extensions:
            X509v3 Basic Constraints: critical
                CA:TRUE, pathlen:0
            X509v3 Certificate Policies: 
                Policy: 2.16.840.1.113733.1.7.23.3
                  CPS: https://www.verisign.com/cps
                  User Notice:
                    Explicit Text: https://www.verisign.com/rpa

            X509v3 Key Usage: critical
                Certificate Sign, CRL Sign
            1.3.6.1.5.5.7.1.12: 
                0_.].[0Y0W0U..image/gif0!0.0...+..............k...j.H.,{..0%.#http://logo.verisign.com/vslogo.gif
            X509v3 CRL Distribution Points: 

                Full Name:
                  URI:http://crl.verisign.com/pca3-g5.crl

            Authority Information Access: 
                OCSP - URI:http://ocsp.verisign.com

            X509v3 Extended Key Usage: 
                TLS Web Client Authentication, Code Signing
            X509v3 Subject Alternative Name: 
                DirName:/CN=VeriSignMPKI-2-8
            X509v3 Subject Key Identifier: 
                CF:99:A9:EA:7B:26:F4:4B:C9:8E:8F:D7:F0:05:26:EF:E3:D2:A7:9D
            X509v3 Authority Key Identifier: 
                keyid:7F:D3:65:A7:C2:DD:EC:BB:F0:30:09:F3:43:39:FA:02:AF:33:31:33

    Signature Algorithm: sha1WithRSAEncryption
         56:22:e6:34:a4:c4:61:cb:48:b9:01:ad:56:a8:64:0f:d9:8c:
         91:c4:bb:cc:0c:e5:ad:7a:a0:22:7f:df:47:38:4a:2d:6c:d1:
         7f:71:1a:7c:ec:70:a9:b1:f0:4f:e4:0f:0c:53:fa:15:5e:fe:
         74:98:49:24:85:81:26:1c:91:14:47:b0:4c:63:8c:bb:a1:34:
         d4:c6:45:e8:0d:85:26:73:03:d0:a9:8c:64:6d:dc:71:92:e6:
         45:05:60:15:59:51:39:fc:58:14:6b:fe:d4:a4:ed:79:6b:08:
         0c:41:72:e7:37:22:06:09:be:23:e9:3f:44:9a:1e:e9:61:9d:
         cc:b1:90:5c:fc:3d:d2:8d:ac:42:3d:65:36:d4:b4:3d:40:28:
         8f:9b:10:cf:23:26:cc:4b:20:cb:90:1f:5d:8c:4c:34:ca:3c:
         d8:e5:37:d6:6f:a5:20:bd:34:eb:26:d9:ae:0d:e7:c5:9a:f7:
         a1:b4:21:91:33:6f:86:e8:58:bb:25:7c:74:0e:58:fe:75:1b:
         63:3f:ce:31:7c:9b:8f:1b:96:9e:c5:53:76:84:5b:9c:ad:91:
         fa:ac:ed:93:ba:5d:c8:21:53:c2:82:53:63:af:12:0d:50:87:
         11:1b:3d:54:52:96:8a:2c:9c:3d:92:1a:08:9a:05:2e:c7:93:
         a5:48:91:d3
-----BEGIN CERTIFICATE-----
MIIGCjCCBPKgAwIBAgIQUgDlqiVW/BqG7ZbJ1EszxzANBgkqhkiG9w0BAQUFADCB
yjELMAkGA1UEBhMCVVMxFzAVBgNVBAoTDlZlcmlTaWduLCBJbmMuMR8wHQYDVQQL
ExZWZXJpU2lnbiBUcnVzdCBOZXR3b3JrMTowOAYDVQQLEzEoYykgMjAwNiBWZXJp
U2lnbiwgSW5jLiAtIEZvciBhdXRob3JpemVkIHVzZSBvbmx5MUUwQwYDVQQDEzxW
ZXJpU2lnbiBDbGFzcyAzIFB1YmxpYyBQcmltYXJ5IENlcnRpZmljYXRpb24gQXV0
aG9yaXR5IC0gRzUwHhcNMTAwMjA4MDAwMDAwWhcNMjAwMjA3MjM1OTU5WjCBtDEL
MAkGA1UEBhMCVVMxFzAVBgNVBAoTDlZlcmlTaWduLCBJbmMuMR8wHQYDVQQLExZW
ZXJpU2lnbiBUcnVzdCBOZXR3b3JrMTswOQYDVQQLEzJUZXJtcyBvZiB1c2UgYXQg
aHR0cHM6Ly93d3cudmVyaXNpZ24uY29tL3JwYSAoYykxMDEuMCwGA1UEAxMlVmVy
aVNpZ24gQ2xhc3MgMyBDb2RlIFNpZ25pbmcgMjAxMCBDQTCCASIwDQYJKoZIhvcN
AQEBBQADggEPADCCAQoCggEBAPUjS16l14q7MunUV/fv5Mcmfq0ZmP6onX2U9jZr
ENd1gTB/BGh/yyt1Hs0dCIzfaZSnN6Oce4DgmeHuN01fzjsU7obU0PUnNbwlCzin
jGOdF6MIpauw+81qYoJM1SHaG9nx44Q7iipPhVuQAU/Jp3YQfycDfL6ufn3B3fkF
vBtInGnnwKQ8PEEAPt+W5cXklHHWVQHHACZKQDy1oSapDKdtgI6QJXvPvz8c6y+W
+uWHd8a1VrJ6O1QwUxvfYjT/HtH0WpMoheVMF05+W/2kk5l/383vpHXv7xX2R+f4
GXLYLjQaprSnTH69u08MPVfxMNamNo7WgHbXGS6lzX40LYkCAwEAAaOCAf4wggH6
MBIGA1UdEwEB/wQIMAYBAf8CAQAwcAYDVR0gBGkwZzBlBgtghkgBhvhFAQcXAzBW
MCgGCCsGAQUFBwIBFhxodHRwczovL3d3dy52ZXJpc2lnbi5jb20vY3BzMCoGCCsG
AQUFBwICMB4aHGh0dHBzOi8vd3d3LnZlcmlzaWduLmNvbS9ycGEwDgYDVR0PAQH/
BAQDAgEGMG0GCCsGAQUFBwEMBGEwX6FdoFswWTBXMFUWCWltYWdlL2dpZjAhMB8w
BwYFKw4DAhoEFI/l0xqGrI2Oa8PPgGrUSBgsexkuMCUWI2h0dHA6Ly9sb2dvLnZl
cmlzaWduLmNvbS92c2xvZ28uZ2lmMDQGA1UdHwQtMCswKaAnoCWGI2h0dHA6Ly9j
cmwudmVyaXNpZ24uY29tL3BjYTMtZzUuY3JsMDQGCCsGAQUFBwEBBCgwJjAkBggr
BgEFBQcwAYYYaHR0cDovL29jc3AudmVyaXNpZ24uY29tMB0GA1UdJQQWMBQGCCsG
AQUFBwMCBggrBgEFBQcDAzAoBgNVHREEITAfpB0wGzEZMBcGA1UEAxMQVmVyaVNp
Z25NUEtJLTItODAdBgNVHQ4EFgQUz5mp6nsm9EvJjo/X8AUm7+PSp50wHwYDVR0j
BBgwFoAUf9Nlp8Ld7LvwMAnzQzn6Aq8zMTMwDQYJKoZIhvcNAQEFBQADggEBAFYi
5jSkxGHLSLkBrVaoZA/ZjJHEu8wM5a16oCJ/30c4Si1s0X9xGnzscKmx8E/kDwxT
+hVe/nSYSSSFgSYckRRHsExjjLuhNNTGRegNhSZzA9CpjGRt3HGS5kUFYBVZUTn8
WBRr/tSk7XlrCAxBcuc3IgYJviPpP0SaHulhncyxkFz8PdKNrEI9ZTbUtD1AKI+b
EM8jJsxLIMuQH12MTDTKPNjlN9ZvpSC9NOsm2a4N58Wa96G0IZEzb4boWLslfHQO
WP51G2M/zjF8m48blp7FU3aEW5ytkfqs7ZO6XcghU8KCU2OvEg1QhxEbPVRSloos
nD2SGgiaBS7Hk6VIkdM=
-----END CERTIFICATE-----

