Certificate:
    Data:
        Version: 3 (0x2)
        Serial Number:
            7e:93:eb:fb:7c:c6:4e:59:ea:4b:9a:77:d4:06:fc:3b
    Signature Algorithm: sha1WithRSAEncryption
        Issuer: C=ZA, ST=Western Cape, L=Durbanville, O=Thawte, OU=Thawte Certification, CN=Thawte Timestamping CA
        Validity
            Not Before: Dec 21 00:00:00 2012 GMT
            Not After : Dec 30 23:59:59 2020 GMT
        Subject: C=US, O=Symantec Corporation, CN=Symantec Time Stamping Services CA - G2
        Subject Public Key Info:
            Public Key Algorithm: rsaEncryption
                Public-Key: (2048 bit)
                Modulus:
                    00:b1:ac:b3:49:54:4b:97:1c:12:0a:d8:25:79:91:
                    22:57:2a:6f:dc:b8:26:c4:43:73:6b:c2:bf:2e:50:
                    5a:fb:14:c2:76:8e:43:01:25:43:b4:a1:e2:45:f4:
                    e8:b7:7b:c3:74:cc:22:d7:b4:94:00:02:f7:4d:ed:
                    bf:b4:b7:44:24:6b:cd:5f:45:3b:d1:44:ce:43:12:
                    73:17:82:8b:69:b4:2b:cb:99:1e:ac:72:1b:26:4d:
                    71:1f:b1:31:dd:fb:51:61:02:53:a6:aa:f5:49:2c:
                    05:78:45:a5:2f:89:ce:e7:99:e7:fe:8c:e2:57:3f:
                    3d:c6:92:dc:4a:f8:7b:33:e4:79:0a:fb:f0:75:88:
                    41:9c:ff:c5:03:51:99:aa:d7:6c:9f:93:69:87:65:
                    29:83:85:c2:60:14:c4:c8:c9:3b:14:da:c0:81:f0:
                    1f:0d:74:de:92:22:ab:ca:f7:fb:74:7c:27:e6:f7:
                    4a:1b:7f:a7:c3:9e:2d:ae:8a:ea:a6:e6:aa:27:16:
                    7d:61:f7:98:71:11:bc:e2:50:a1:4b:e5:5d:fa:e5:
                    0e:a7:2c:9f:aa:65:20:d3:d8:96:e8:c8:7c:a5:4e:
                    48:44:ff:19:e2:44:07:92:0b:d7:68:84:80:5d:6a:
                    78:64:45:cd:60:46:7e:54:c1:13:7c:c5:79:f1:c9:
                    c1:71
                Exponent: 65537 (0x10001)
        X509v3 extensions:
            X509v3 Subject Key Identifier: 
                5F:9A:F5:6E:5C:CC:CC:74:9A:D4:DD:7D:EF:3F:DB:EC:4C:80:2E:DD
            Authority Information Access: 
                OCSP - URI:http://ocsp.thawte.com

            X509v3 Basic Constraints: critical
                CA:TRUE, pathlen:0
            X509v3 CRL Distribution Points: 

                Full Name:
                  URI:http://crl.thawte.com/ThawteTimestampingCA.crl

            X509v3 Extended Key Usage: 
                Time Stamping
            X509v3 Key Usage: critical
                Certificate Sign, CRL Sign
            X509v3 Subject Alternative Name: 
                DirName:/CN=TimeStamp-2048-1
    Signature Algorithm: sha1WithRSAEncryption
         03:09:9b:8f:79:ef:7f:59:30:aa:ef:68:b5:fa:e3:09:1d:bb:
         4f:82:06:5d:37:5f:a6:52:9f:16:8d:ea:1c:92:09:44:6e:f5:
         6d:eb:58:7c:30:e8:f9:69:8d:23:73:0b:12:6f:47:a9:ae:39:
         11:f8:2a:b1:9b:b0:1a:c3:8e:eb:59:96:00:ad:ce:0c:4d:b2:
         d0:31:a6:08:5c:2a:7a:fc:e2:7a:1d:57:4c:a8:65:18:e9:79:
         40:62:25:96:6e:c7:c7:37:6a:83:21:08:8e:41:ea:dd:d9:57:
         3f:1d:77:49:87:2a:16:06:5e:a6:38:6a:22:12:a3:51:19:83:
         7e:b6
-----BEGIN CERTIFICATE-----
MIID7jCCA1egAwIBAgIQfpPr+3zGTlnqS5p31Ab8OzANBgkqhkiG9w0BAQUFADCB
izELMAkGA1UEBhMCWkExFTATBgNVBAgTDFdlc3Rlcm4gQ2FwZTEUMBIGA1UEBxML
RHVyYmFudmlsbGUxDzANBgNVBAoTBlRoYXd0ZTEdMBsGA1UECxMUVGhhd3RlIENl
cnRpZmljYXRpb24xHzAdBgNVBAMTFlRoYXd0ZSBUaW1lc3RhbXBpbmcgQ0EwHhcN
MTIxMjIxMDAwMDAwWhcNMjAxMjMwMjM1OTU5WjBeMQswCQYDVQQGEwJVUzEdMBsG
A1UEChMUU3ltYW50ZWMgQ29ycG9yYXRpb24xMDAuBgNVBAMTJ1N5bWFudGVjIFRp
bWUgU3RhbXBpbmcgU2VydmljZXMgQ0EgLSBHMjCCASIwDQYJKoZIhvcNAQEBBQAD
ggEPADCCAQoCggEBALGss0lUS5ccEgrYJXmRIlcqb9y4JsRDc2vCvy5QWvsUwnaO
QwElQ7Sh4kX06Ld7w3TMIte0lAAC903tv7S3RCRrzV9FO9FEzkMScxeCi2m0K8uZ
HqxyGyZNcR+xMd37UWECU6aq9UksBXhFpS+JzueZ5/6M4lc/PcaS3Er4ezPkeQr7
8HWIQZz/xQNRmarXbJ+TaYdlKYOFwmAUxMjJOxTawIHwHw103pIiq8r3+3R8J+b3
Sht/p8OeLa6K6qbmqicWfWH3mHERvOJQoUvlXfrlDqcsn6plINPYlujIfKVOSET/
GeJEB5IL12iEgF1qeGRFzWBGflTBE3zFefHJwXECAwEAAaOB+jCB9zAdBgNVHQ4E
FgQUX5r1blzMzHSa1N197z/b7EyALt0wMgYIKwYBBQUHAQEEJjAkMCIGCCsGAQUF
BzABhhZodHRwOi8vb2NzcC50aGF3dGUuY29tMBIGA1UdEwEB/wQIMAYBAf8CAQAw
PwYDVR0fBDgwNjA0oDKgMIYuaHR0cDovL2NybC50aGF3dGUuY29tL1RoYXd0ZVRp
bWVzdGFtcGluZ0NBLmNybDATBgNVHSUEDDAKBggrBgEFBQcDCDAOBgNVHQ8BAf8E
BAMCAQYwKAYDVR0RBCEwH6QdMBsxGTAXBgNVBAMTEFRpbWVTdGFtcC0yMDQ4LTEw
DQYJKoZIhvcNAQEFBQADgYEAAwmbj3nvf1kwqu9otfrjCR27T4IGXTdfplKfFo3q
HJIJRG71betYfDDo+WmNI3MLEm9Hqa45EfgqsZuwGsOO61mWAK3ODE2y0DGmCFwq
evzieh1XTKhlGOl5QGIllm7HxzdqgyEIjkHq3dlXPx13SYcqFgZepjhqIhKjURmD
frY=
-----END CERTIFICATE-----

Certificate:
    Data:
        Version: 3 (0x2)
        Serial Number:
            0e:cf:f4:38:c8:fe:bf:35:6e:04:d8:6a:98:1b:1a:50
    Signature Algorithm: sha1WithRSAEncryption
        Issuer: C=US, O=Symantec Corporation, CN=Symantec Time Stamping Services CA - G2
        Validity
            Not Before: Oct 18 00:00:00 2012 GMT
            Not After : Dec 29 23:59:59 2020 GMT
        Subject: C=US, O=Symantec Corporation, CN=Symantec Time Stamping Services Signer - G4
        Subject Public Key Info:
            Public Key Algorithm: rsaEncryption
                Public-Key: (2048 bit)
                Modulus:
                    00:a2:63:0b:39:44:b8:bb:23:a7:44:49:bb:0e:ff:
                    a1:f0:61:0a:53:93:b0:98:db:ad:2c:0f:4a:c5:6e:
                    ff:86:3c:53:55:0f:15:ce:04:3f:2b:fd:a9:96:96:
                    d9:be:61:79:0b:5b:c9:4c:86:76:e5:e0:43:4b:22:
                    95:ee:c2:2b:43:c1:9f:d8:68:b4:8e:40:4f:ee:85:
                    38:b9:11:c5:23:f2:64:58:f0:15:32:6f:4e:57:a1:
                    ae:88:a4:02:d7:2a:1e:cd:4b:e1:dd:63:d5:17:89:
                    32:5b:b0:5e:99:5a:a8:9d:28:50:0e:17:ee:96:db:
                    61:3b:45:51:1d:cf:12:56:0b:92:47:fc:ab:ae:f6:
                    66:3d:47:ac:70:72:e7:92:e7:5f:cd:10:b9:c4:83:
                    64:94:19:bd:25:80:e1:e8:d2:22:a5:d0:ba:02:7a:
                    a1:77:93:5b:65:c3:ee:17:74:bc:41:86:2a:dc:08:
                    4c:8c:92:8c:91:2d:9e:77:44:1f:68:d6:a8:74:77:
                    db:0e:5b:32:8b:56:8b:33:bd:d9:63:c8:49:9d:3a:
                    c5:c5:ea:33:0b:d2:f1:a3:1b:f4:8b:be:d9:b3:57:
                    8b:3b:de:04:a7:7a:22:b2:24:ae:2e:c7:70:c5:be:
                    4e:83:26:08:fb:0b:bd:a9:4f:99:08:e1:10:28:72:
                    aa:cd
                Exponent: 65537 (0x10001)
        X509v3 extensions:
            X509v3 Basic Constraints: critical
                CA:FALSE
            X509v3 Extended Key Usage: critical
                Time Stamping
            X509v3 Key Usage: critical
                Digital Signature
            Authority Information Access: 
                OCSP - URI:http://ts-ocsp.ws.symantec.com
                CA Issuers - URI:http://ts-aia.ws.symantec.com/tss-ca-g2.cer

            X509v3 CRL Distribution Points: 

                Full Name:
                  URI:http://ts-crl.ws.symantec.com/tss-ca-g2.crl

            X509v3 Subject Alternative Name: 
                DirName:/CN=TimeStamp-2048-2
            X509v3 Subject Key Identifier: 
                46:C6:69:A3:0E:4A:14:1E:D5:4C:DA:52:63:17:3F:5E:36:BC:0D:E6
            X509v3 Authority Key Identifier: 
                keyid:5F:9A:F5:6E:5C:CC:CC:74:9A:D4:DD:7D:EF:3F:DB:EC:4C:80:2E:DD

    Signature Algorithm: sha1WithRSAEncryption
         78:3b:b4:91:2a:00:4c:f0:8f:62:30:37:78:a3:84:27:07:6f:
         18:b2:de:25:dc:a0:d4:94:03:aa:86:4e:25:9f:9a:40:03:1c:
         dd:ce:e3:79:cb:21:68:06:da:b6:32:b4:6d:bf:f4:2c:26:63:
         33:e4:49:64:6d:0d:e6:c3:67:0e:f7:05:a4:35:6c:7c:89:16:
         c6:e9:b2:df:b2:e9:dd:20:c6:71:0f:cd:95:74:dc:b6:5c:de:
         bd:37:1f:43:78:e6:78:b5:cd:28:04:20:a3:aa:f1:4b:c4:88:
         29:91:0e:80:d1:11:fc:dd:5c:76:6e:4f:5e:0e:45:46:41:6e:
         0d:b0:ea:38:9a:b1:3a:da:09:71:10:fc:1c:79:b4:80:7b:ac:
         69:f4:fd:9c:b6:0c:16:2b:f1:7f:5b:09:3d:9b:5b:e2:16:ca:
         13:81:6d:00:2e:38:0d:a8:29:8f:2c:e1:b2:f4:5a:a9:01:af:
         15:9c:2c:2f:49:1b:db:22:bb:c3:fe:78:94:51:c3:86:b1:82:
         88:5d:f0:3d:b4:51:a1:79:33:2b:2e:7b:b9:dc:20:09:13:71:
         eb:6a:19:5b:cf:e8:a5:30:57:2c:89:49:3f:b9:cf:7f:c9:bf:
         3e:22:68:63:53:9a:bd:69:74:ac:c5:1d:3c:7f:92:e0:c3:bc:
         1c:d8:04:75
-----BEGIN CERTIFICATE-----
MIIEozCCA4ugAwIBAgIQDs/0OMj+vzVuBNhqmBsaUDANBgkqhkiG9w0BAQUFADBe
MQswCQYDVQQGEwJVUzEdMBsGA1UEChMUU3ltYW50ZWMgQ29ycG9yYXRpb24xMDAu
BgNVBAMTJ1N5bWFudGVjIFRpbWUgU3RhbXBpbmcgU2VydmljZXMgQ0EgLSBHMjAe
Fw0xMjEwMTgwMDAwMDBaFw0yMDEyMjkyMzU5NTlaMGIxCzAJBgNVBAYTAlVTMR0w
GwYDVQQKExRTeW1hbnRlYyBDb3Jwb3JhdGlvbjE0MDIGA1UEAxMrU3ltYW50ZWMg
VGltZSBTdGFtcGluZyBTZXJ2aWNlcyBTaWduZXIgLSBHNDCCASIwDQYJKoZIhvcN
AQEBBQADggEPADCCAQoCggEBAKJjCzlEuLsjp0RJuw7/ofBhClOTsJjbrSwPSsVu
/4Y8U1UPFc4EPyv9qZaW2b5heQtbyUyGduXgQ0sile7CK0PBn9hotI5AT+6FOLkR
xSPyZFjwFTJvTlehroikAtcqHs1L4d1j1ReJMluwXplaqJ0oUA4X7pbbYTtFUR3P
ElYLkkf8q672Zj1HrHBy55LnX80QucSDZJQZvSWA4ejSIqXQugJ6oXeTW2XD7hd0
vEGGKtwITIySjJEtnndEH2jWqHR32w5bMotWizO92WPISZ06xcXqMwvS8aMb9Iu+
2bNXizveBKd6IrIkri7HcMW+ToMmCPsLvalPmQjhEChyqs0CAwEAAaOCAVcwggFT
MAwGA1UdEwEB/wQCMAAwFgYDVR0lAQH/BAwwCgYIKwYBBQUHAwgwDgYDVR0PAQH/
BAQDAgeAMHMGCCsGAQUFBwEBBGcwZTAqBggrBgEFBQcwAYYeaHR0cDovL3RzLW9j
c3Aud3Muc3ltYW50ZWMuY29tMDcGCCsGAQUFBzAChitodHRwOi8vdHMtYWlhLndz
LnN5bWFudGVjLmNvbS90c3MtY2EtZzIuY2VyMDwGA1UdHwQ1MDMwMaAvoC2GK2h0
dHA6Ly90cy1jcmwud3Muc3ltYW50ZWMuY29tL3Rzcy1jYS1nMi5jcmwwKAYDVR0R
BCEwH6QdMBsxGTAXBgNVBAMTEFRpbWVTdGFtcC0yMDQ4LTIwHQYDVR0OBBYEFEbG
aaMOShQe1UzaUmMXP142vA3mMB8GA1UdIwQYMBaAFF+a9W5czMx0mtTdfe8/2+xM
gC7dMA0GCSqGSIb3DQEBBQUAA4IBAQB4O7SRKgBM8I9iMDd4o4QnB28Yst4l3KDU
lAOqhk4ln5pAAxzdzuN5yyFoBtq2MrRtv/QsJmMz5ElkbQ3mw2cO9wWkNWx8iRbG
6bLfsundIMZxD82VdNy2XN69Nx9DeOZ4tc0oBCCjqvFLxIgpkQ6A0RH83Vx2bk9e
DkVGQW4NsOo4mrE62glxEPwcebSAe6xp9P2ctgwWK/F/Wwk9m1viFsoTgW0ALjgN
qCmPLOGy9FqpAa8VnCwvSRvbIrvD/niUUcOGsYKIXfA9tFGheTMrLnu53CAJE3Hr
ahlbz+ilMFcsiUk/uc9/yb8+ImhjU5q9aXSsxR08f5Lgw7wc2AR1
-----END CERTIFICATE-----

Certificate:
    Data:
        Version: 3 (0x2)
        Serial Number:
            04:4e:3b:f5:89:76:88:0f:fd:07:44:48:a8:f7:a0:58
    Signature Algorithm: sha1WithRSAEncryption
        Issuer: C=US, O=DigiCert Inc, OU=www.digicert.com, CN=DigiCert Assured ID Code Signing CA-1
        Validity
            Not Before: Jul 21 00:00:00 2016 GMT
            Not After : Jul 25 12:00:00 2019 GMT
        Subject: C=US, ST=CA, L=Santa Clara, O=Malwarebytes Corporation, CN=Malwarebytes Corporation
        Subject Public Key Info:
            Public Key Algorithm: rsaEncryption
                Public-Key: (2048 bit)
                Modulus:
                    00:9d:f0:b2:3f:e9:90:d4:a4:8d:e0:3b:11:ea:1d:
                    07:98:5b:f0:02:1b:07:15:61:33:d4:c3:37:b2:5a:
                    ab:0d:84:1e:3c:a3:fa:4c:4e:29:0a:ad:a6:c7:b3:
                    35:d7:a5:40:d9:02:54:af:79:25:9a:de:e7:67:8c:
                    4b:60:2d:71:db:90:16:2c:11:59:9d:44:1a:9d:8b:
                    96:22:8a:d2:14:09:3b:e2:1f:96:a1:2c:60:91:0c:
                    5a:4b:98:1c:fd:1e:15:24:3c:b0:9b:ef:2d:fb:60:
                    b0:8f:77:91:0e:44:82:53:fc:b0:77:20:8e:fa:93:
                    32:ca:ac:9b:63:94:71:a6:89:27:70:c8:57:6f:b8:
                    30:4d:db:6e:22:18:c1:b6:0a:ec:d2:7b:1f:c1:dc:
                    1f:6a:8c:a3:62:f6:b2:41:2f:24:d2:67:1c:39:08:
                    e2:e1:a3:72:de:3b:2e:f4:ca:c2:a1:09:97:06:7e:
                    bc:c9:8d:87:e9:a2:c5:5d:f7:e4:55:9a:a8:9e:c7:
                    fd:06:39:67:23:af:8e:30:91:15:03:fc:2a:4a:af:
                    bc:cd:c3:52:f2:0c:ce:72:ad:91:f9:e3:77:5a:ce:
                    64:db:2c:a1:03:bb:5f:77:5e:80:53:c1:e3:7b:56:
                    40:3a:40:55:c9:18:a1:ba:7c:73:69:d2:be:a2:3d:
                    c5:67
                Exponent: 65537 (0x10001)
        X509v3 extensions:
            X509v3 Authority Key Identifier: 
                keyid:7B:68:CE:29:AA:C0:17:BE:49:7A:E1:E5:3F:D6:A7:F7:45:8F:35:32

            X509v3 Subject Key Identifier: 
                22:2F:EB:47:B5:D2:46:8A:C5:4E:13:91:8E:2D:29:1E:89:81:63:FE
            X509v3 Key Usage: critical
                Digital Signature
            X509v3 Extended Key Usage: 
                Code Signing
            X509v3 CRL Distribution Points: 

                Full Name:
                  URI:http://crl3.digicert.com/assured-cs-g1.crl

                Full Name:
                  URI:http://crl4.digicert.com/assured-cs-g1.crl

            X509v3 Certificate Policies: 
                Policy: 2.16.840.1.114412.3.1
                  CPS: https://www.digicert.com/CPS
                Policy: 2.23.140.1.4.1

            Authority Information Access: 
                OCSP - URI:http://ocsp.digicert.com
                CA Issuers - URI:http://cacerts.digicert.com/DigiCertAssuredIDCodeSigningCA-1.crt

            X509v3 Basic Constraints: critical
                CA:FALSE
    Signature Algorithm: sha1WithRSAEncryption
         17:0d:a4:e0:f6:4d:f1:37:d0:96:87:94:97:c2:fd:f7:05:7c:
         90:75:18:e7:24:21:a5:14:7c:0e:42:05:30:97:5a:b8:a5:f5:
         7c:d2:ee:6e:ac:ff:70:90:f0:ce:c1:c6:e6:26:85:8d:ad:1f:
         d7:08:16:c5:55:2f:dd:97:cf:6e:14:f5:48:1c:89:ae:d2:ba:
         2d:70:7e:a6:45:21:ce:18:05:0d:7b:2a:4c:4f:44:20:63:44:
         e4:ee:10:89:ea:74:dc:98:eb:9d:97:44:78:5e:b2:21:18:6b:
         cd:26:a6:ad:32:24:46:5d:48:26:5e:c9:5d:31:e9:2c:7b:8b:
         42:db:a7:aa:17:1a:db:06:32:b2:82:c6:54:ad:85:29:97:fc:
         dd:4c:9f:4d:2b:da:2a:37:ab:6f:81:ef:07:2f:2a:16:e5:32:
         e9:19:d2:20:0d:a1:e5:b6:30:67:0c:d0:9d:b7:eb:8a:89:3d:
         46:a4:9b:f2:1f:ca:6c:60:ad:31:60:89:ef:60:2d:5f:86:1f:
         11:c0:da:2e:a2:8e:b0:96:2e:1e:fa:3c:11:7e:18:59:b5:89:
         99:43:06:57:dd:75:a8:ec:c6:5a:d0:18:f0:4e:8f:07:a1:61:
         4c:4d:3f:7c:73:e2:53:7f:41:10:e5:f4:70:eb:2c:da:ef:68:
         6e:78:52:13
-----BEGIN CERTIFICATE-----
MIIFKjCCBBKgAwIBAgIQBE479Yl2iA/9B0RIqPegWDANBgkqhkiG9w0BAQUFADBv
MQswCQYDVQQGEwJVUzEVMBMGA1UEChMMRGlnaUNlcnQgSW5jMRkwFwYDVQQLExB3
d3cuZGlnaWNlcnQuY29tMS4wLAYDVQQDEyVEaWdpQ2VydCBBc3N1cmVkIElEIENv
ZGUgU2lnbmluZyBDQS0xMB4XDTE2MDcyMTAwMDAwMFoXDTE5MDcyNTEyMDAwMFow
djELMAkGA1UEBhMCVVMxCzAJBgNVBAgTAkNBMRQwEgYDVQQHEwtTYW50YSBDbGFy
YTEhMB8GA1UEChMYTWFsd2FyZWJ5dGVzIENvcnBvcmF0aW9uMSEwHwYDVQQDExhN
YWx3YXJlYnl0ZXMgQ29ycG9yYXRpb24wggEiMA0GCSqGSIb3DQEBAQUAA4IBDwAw
ggEKAoIBAQCd8LI/6ZDUpI3gOxHqHQeYW/ACGwcVYTPUwzeyWqsNhB48o/pMTikK
rabHszXXpUDZAlSveSWa3udnjEtgLXHbkBYsEVmdRBqdi5YiitIUCTviH5ahLGCR
DFpLmBz9HhUkPLCb7y37YLCPd5EORIJT/LB3II76kzLKrJtjlHGmiSdwyFdvuDBN
224iGMG2CuzSex/B3B9qjKNi9rJBLyTSZxw5COLho3LeOy70ysKhCZcGfrzJjYfp
osVd9+RVmqiex/0GOWcjr44wkRUD/CpKr7zNw1LyDM5yrZH543dazmTbLKEDu193
XoBTweN7VkA6QFXJGKG6fHNp0r6iPcVnAgMBAAGjggG5MIIBtTAfBgNVHSMEGDAW
gBR7aM4pqsAXvkl64eU/1qf3RY81MjAdBgNVHQ4EFgQUIi/rR7XSRorFThORji0p
HomBY/4wDgYDVR0PAQH/BAQDAgeAMBMGA1UdJQQMMAoGCCsGAQUFBwMDMG0GA1Ud
HwRmMGQwMKAuoCyGKmh0dHA6Ly9jcmwzLmRpZ2ljZXJ0LmNvbS9hc3N1cmVkLWNz
LWcxLmNybDAwoC6gLIYqaHR0cDovL2NybDQuZGlnaWNlcnQuY29tL2Fzc3VyZWQt
Y3MtZzEuY3JsMEwGA1UdIARFMEMwNwYJYIZIAYb9bAMBMCowKAYIKwYBBQUHAgEW
HGh0dHBzOi8vd3d3LmRpZ2ljZXJ0LmNvbS9DUFMwCAYGZ4EMAQQBMIGCBggrBgEF
BQcBAQR2MHQwJAYIKwYBBQUHMAGGGGh0dHA6Ly9vY3NwLmRpZ2ljZXJ0LmNvbTBM
BggrBgEFBQcwAoZAaHR0cDovL2NhY2VydHMuZGlnaWNlcnQuY29tL0RpZ2lDZXJ0
QXNzdXJlZElEQ29kZVNpZ25pbmdDQS0xLmNydDAMBgNVHRMBAf8EAjAAMA0GCSqG
SIb3DQEBBQUAA4IBAQAXDaTg9k3xN9CWh5SXwv33BXyQdRjnJCGlFHwOQgUwl1q4
pfV80u5urP9wkPDOwcbmJoWNrR/XCBbFVS/dl89uFPVIHImu0rotcH6mRSHOGAUN
eypMT0QgY0Tk7hCJ6nTcmOudl0R4XrIhGGvNJqatMiRGXUgmXsldMekse4tC26eq
FxrbBjKygsZUrYUpl/zdTJ9NK9oqN6tvge8HLyoW5TLpGdIgDaHltjBnDNCdt+uK
iT1GpJvyH8psYK0xYInvYC1fhh8RwNouoo6wli4e+jwRfhhZtYmZQwZX3XWo7MZa
0BjwTo8HoWFMTT98c+JTf0EQ5fRw6yza72hueFIT
-----END CERTIFICATE-----

Certificate:
    Data:
        Version: 3 (0x2)
        Serial Number:
            0f:a8:49:06:15:d7:00:a0:be:21:76:fd:c5:ec:6d:bd
    Signature Algorithm: sha1WithRSAEncryption
        Issuer: C=US, O=DigiCert Inc, OU=www.digicert.com, CN=DigiCert Assured ID Root CA
        Validity
            Not Before: Feb 11 12:00:00 2011 GMT
            Not After : Feb 10 12:00:00 2026 GMT
        Subject: C=US, O=DigiCert Inc, OU=www.digicert.com, CN=DigiCert Assured ID Code Signing CA-1
        Subject Public Key Info:
            Public Key Algorithm: rsaEncryption
                Public-Key: (2048 bit)
                Modulus:
                    00:9c:7c:f9:a0:8f:0a:ca:89:4b:53:9a:3c:ec:19:
                    22:7f:0c:cb:f7:48:44:d0:3f:22:6e:9a:4f:fa:ce:
                    df:c6:d3:24:91:ff:a8:52:93:e7:72:f8:f1:46:86:
                    94:c5:ab:17:f4:78:7f:cb:7a:be:90:26:1c:7c:53:
                    2f:e5:83:e7:bb:6a:05:28:cc:a0:17:11:4b:18:20:
                    f3:b7:bd:f2:dc:cb:b8:86:40:45:1f:4f:f9:39:98:
                    d3:3b:eb:6f:69:a4:5c:01:2e:b1:66:e9:a6:b8:dc:
                    06:de:ae:8d:62:fe:44:27:82:a9:03:c3:fe:e6:26:
                    0b:93:49:71:e5:38:6d:4e:fe:80:5c:67:77:b5:d5:
                    6f:66:64:94:6b:bb:88:49:68:d8:d1:f4:7e:21:c1:
                    e6:c5:1e:c9:e0:96:b8:09:95:f9:4b:9e:ae:cc:31:
                    bd:6a:5a:42:a7:c4:05:47:7d:60:2b:d9:a1:5d:bd:
                    fb:56:93:ef:1b:fc:72:f9:df:3e:32:fd:dd:2a:2c:
                    32:46:da:5e:63:bc:d0:b8:cb:4c:10:35:fc:50:5f:
                    ac:43:44:7c:fe:84:44:50:b4:8c:2a:3d:74:0c:f4:
                    7a:8b:72:4b:e0:56:b5:13:b6:63:e9:3f:4e:49:23:
                    e7:06:16:f0:25:ab:01:f8:28:41:e6:c7:d4:64:3b:
                    5d:ab
                Exponent: 65537 (0x10001)
        X509v3 extensions:
            X509v3 Key Usage: critical
                Digital Signature, Certificate Sign, CRL Sign
            X509v3 Extended Key Usage: 
                Code Signing
            X509v3 Certificate Policies: 
                Policy: 2.16.840.1.114412.3
                  CPS: http://www.digicert.com/ssl-cps-repository.htm
                  User Notice:
                    Explicit Text: 

            X509v3 Basic Constraints: critical
                CA:TRUE, pathlen:0
            Authority Information Access: 
                OCSP - URI:http://ocsp.digicert.com
                CA Issuers - URI:http://cacerts.digicert.com/DigiCertAssuredIDRootCA.crt

            X509v3 CRL Distribution Points: 

                Full Name:
                  URI:http://crl3.digicert.com/DigiCertAssuredIDRootCA.crl

                Full Name:
                  URI:http://crl4.digicert.com/DigiCertAssuredIDRootCA.crl

            X509v3 Subject Key Identifier: 
                7B:68:CE:29:AA:C0:17:BE:49:7A:E1:E5:3F:D6:A7:F7:45:8F:35:32
            X509v3 Authority Key Identifier: 
                keyid:45:EB:A2:AF:F4:92:CB:82:31:2D:51:8B:A7:A7:21:9D:F3:6D:C8:0F

    Signature Algorithm: sha1WithRSAEncryption
         7b:72:1d:64:ff:88:c8:3a:c1:b7:e9:e7:a9:c4:87:bb:db:94:
         92:d7:90:59:33:fa:2b:87:de:a8:5b:80:25:3f:13:8f:9b:83:
         1b:7c:43:c4:e6:8c:df:39:3e:c3:15:ec:b0:da:3b:21:25:7b:
         24:c1:72:5d:b8:47:91:81:13:46:fa:9c:3f:6a:51:38:de:b4:
         25:cb:f0:ab:df:c5:28:01:54:79:10:46:24:d1:38:0f:26:a1:
         61:90:4d:ba:bd:28:e6:3f:f1:c4:aa:9b:f6:da:35:53:4f:c9:
         f2:3d:d3:6c:dc:23:ed:aa:a0:4d:67:09:f3:3a:80:3d:3c:fb:
         36:4c:90:e7:76:a4:dd:f2:3a:bf:56:35:2f:a2:4c:65:e8:e0:
         d4:da:d1:c7:c8:91:6a:2d:23:4f:37:3b:19:94:18:d4:d5:9c:
         10:3c:d5:b1:1c:19:ff:8f:c8:6b:9b:9e:f8:ae:9c:99:96:78:
         d1:cd:9c:51:15:5b:42:26:72:5a:8d:0a:4a:23:92:40:e8:86:
         de:22:c2:93:3a:d4:9b:68:a6:df:29:7f:06:b9:3c:0e:bd:9f:
         c4:86:9c:82:47:42:71:32:86:09:99:72:09:79:4b:9d:71:69:
         f5:41:ff:7f:39:77:64:f1:84:8d:be:8b:1e:b2:7d:68:a3:a5:
         90:b1:0c:ff
-----BEGIN CERTIFICATE-----
MIIGozCCBYugAwIBAgIQD6hJBhXXAKC+IXb9xextvTANBgkqhkiG9w0BAQUFADBl
MQswCQYDVQQGEwJVUzEVMBMGA1UEChMMRGlnaUNlcnQgSW5jMRkwFwYDVQQLExB3
d3cuZGlnaWNlcnQuY29tMSQwIgYDVQQDExtEaWdpQ2VydCBBc3N1cmVkIElEIFJv
b3QgQ0EwHhcNMTEwMjExMTIwMDAwWhcNMjYwMjEwMTIwMDAwWjBvMQswCQYDVQQG
EwJVUzEVMBMGA1UEChMMRGlnaUNlcnQgSW5jMRkwFwYDVQQLExB3d3cuZGlnaWNl
cnQuY29tMS4wLAYDVQQDEyVEaWdpQ2VydCBBc3N1cmVkIElEIENvZGUgU2lnbmlu
ZyBDQS0xMIIBIjANBgkqhkiG9w0BAQEFAAOCAQ8AMIIBCgKCAQEAnHz5oI8KyolL
U5o87BkifwzL90hE0D8ibppP+s7fxtMkkf+oUpPncvjxRoaUxasX9Hh/y3q+kCYc
fFMv5YPnu2oFKMygFxFLGCDzt73y3Mu4hkBFH0/5OZjTO+tvaaRcAS6xZummuNwG
3q6NYv5EJ4KpA8P+5iYLk0lx5ThtTv6AXGd3tdVvZmSUa7uISWjY0fR+IcHmxR7J
4Ja4CZX5S56uzDG9alpCp8QFR31gK9mhXb37VpPvG/xy+d8+Mv3dKiwyRtpeY7zQ
uMtMEDX8UF+sQ0R8/oREULSMKj10DPR6i3JL4Fa1E7Zj6T9OSSPnBhbwJasB+ChB
5sfUZDtdqwIDAQABo4IDQzCCAz8wDgYDVR0PAQH/BAQDAgGGMBMGA1UdJQQMMAoG
CCsGAQUFBwMDMIIBwwYDVR0gBIIBujCCAbYwggGyBghghkgBhv1sAzCCAaQwOgYI
KwYBBQUHAgEWLmh0dHA6Ly93d3cuZGlnaWNlcnQuY29tL3NzbC1jcHMtcmVwb3Np
dG9yeS5odG0wggFkBggrBgEFBQcCAjCCAVYeggFSAEEAbgB5ACAAdQBzAGUAIABv
AGYAIAB0AGgAaQBzACAAQwBlAHIAdABpAGYAaQBjAGEAdABlACAAYwBvAG4AcwB0
AGkAdAB1AHQAZQBzACAAYQBjAGMAZQBwAHQAYQBuAGMAZQAgAG8AZgAgAHQAaABl
ACAARABpAGcAaQBDAGUAcgB0ACAAQwBQAC8AQwBQAFMAIABhAG4AZAAgAHQAaABl
ACAAUgBlAGwAeQBpAG4AZwAgAFAAYQByAHQAeQAgAEEAZwByAGUAZQBtAGUAbgB0
ACAAdwBoAGkAYwBoACAAbABpAG0AaQB0ACAAbABpAGEAYgBpAGwAaQB0AHkAIABh
AG4AZAAgAGEAcgBlACAAaQBuAGMAbwByAHAAbwByAGEAdABlAGQAIABoAGUAcgBl
AGkAbgAgAGIAeQAgAHIAZQBmAGUAcgBlAG4AYwBlAC4wEgYDVR0TAQH/BAgwBgEB
/wIBADB5BggrBgEFBQcBAQRtMGswJAYIKwYBBQUHMAGGGGh0dHA6Ly9vY3NwLmRp
Z2ljZXJ0LmNvbTBDBggrBgEFBQcwAoY3aHR0cDovL2NhY2VydHMuZGlnaWNlcnQu
Y29tL0RpZ2lDZXJ0QXNzdXJlZElEUm9vdENBLmNydDCBgQYDVR0fBHoweDA6oDig
NoY0aHR0cDovL2NybDMuZGlnaWNlcnQuY29tL0RpZ2lDZXJ0QXNzdXJlZElEUm9v
dENBLmNybDA6oDigNoY0aHR0cDovL2NybDQuZGlnaWNlcnQuY29tL0RpZ2lDZXJ0
QXNzdXJlZElEUm9vdENBLmNybDAdBgNVHQ4EFgQUe2jOKarAF75JeuHlP9an90WP
NTIwHwYDVR0jBBgwFoAUReuir/SSy4IxLVGLp6chnfNtyA8wDQYJKoZIhvcNAQEF
BQADggEBAHtyHWT/iMg6wbfp56nEh7vblJLXkFkz+iuH3qhbgCU/E4+bgxt8Q8Tm
jN85PsMV7LDaOyEleyTBcl24R5GBE0b6nD9qUTjetCXL8KvfxSgBVHkQRiTROA8m
oWGQTbq9KOY/8cSqm/baNVNPyfI902zcI+2qoE1nCfM6gD08+zZMkOd2pN3yOr9W
NS+iTGXo4NTa0cfIkWotI083OxmUGNTVnBA81bEcGf+PyGubnviunJmWeNHNnFEV
W0ImclqNCkojkkDoht4iwpM61Jtopt8pfwa5PA69n8SGnIJHQnEyhgmZcgl5S51x
afVB/385d2TxhI2+ix6yfWijpZCxDP8=
-----END CERTIFICATE-----

