Certificate:
    Data:
        Version: 3 (0x2)
        Serial Number:
            04:00:00:00:00:01:2f:4e:e1:52:d7
    Signature Algorithm: sha1WithRSAEncryption
        Issuer: C=BE, O=GlobalSign nv-sa, OU=Root CA, CN=GlobalSign Root CA
        Validity
            Not Before: Apr 13 10:00:00 2011 GMT
            Not After : Jan 28 12:00:00 2028 GMT
        Subject: C=BE, O=GlobalSign nv-sa, CN=GlobalSign Timestamping CA - G2
        Subject Public Key Info:
            Public Key Algorithm: rsaEncryption
                Public-Key: (2048 bit)
                Modulus:
                    00:94:ef:65:f8:b5:57:9f:a0:53:0d:34:06:eb:09:
                    1f:b7:47:18:6a:cb:f0:5b:e4:ff:27:a5:34:d1:f7:
                    89:1a:bf:9e:b1:cd:12:41:6e:66:d4:81:a0:85:8b:
                    64:5a:46:2f:99:a0:8d:77:b1:e2:bc:5c:dd:22:d7:
                    6a:67:d0:bb:e8:ca:74:de:8b:4f:0d:b0:52:e5:90:
                    5b:eb:47:0e:f1:e7:9f:9c:0b:90:65:3e:17:96:30:
                    45:72:6d:39:a1:17:36:ca:b9:a0:8c:1b:4f:08:19:
                    f6:81:31:ad:61:16:a4:62:e6:b4:40:9e:c3:fc:fb:
                    95:f6:fb:b5:2e:95:81:98:e0:ef:c5:eb:d8:02:59:
                    78:77:f7:aa:e3:52:6b:50:91:29:c5:fc:f7:cd:93:
                    65:d2:60:61:22:f2:06:fb:32:dd:16:51:fa:0e:fd:
                    8a:30:f0:17:09:a7:bb:f3:04:ae:ab:90:e7:6c:df:
                    7a:a9:f4:ef:c4:62:27:5f:6f:99:6d:38:74:aa:11:
                    8b:da:df:c7:14:4c:e9:85:b2:ec:c2:7d:4a:26:8f:
                    e7:56:ba:a6:e0:cf:92:53:80:74:f4:03:ec:68:b2:
                    60:bc:84:20:00:83:1b:a1:ee:b4:74:05:c1:29:8e:
                    62:d0:47:b1:fa:f0:53:cc:18:f9:2e:3b:f9:70:7e:
                    b4:25
                Exponent: 65537 (0x10001)
        X509v3 extensions:
            X509v3 Key Usage: critical
                Certificate Sign, CRL Sign
            X509v3 Basic Constraints: critical
                CA:TRUE, pathlen:0
            X509v3 Subject Key Identifier: 
                46:D8:3E:FF:DC:E3:BE:FF:83:E6:F4:85:9B:B0:DD:6A:D6:14:A9:C1
            X509v3 Certificate Policies: 
                Policy: X509v3 Any Policy
                  CPS: https://www.globalsign.com/repository/

            X509v3 CRL Distribution Points: 

                Full Name:
                  URI:http://crl.globalsign.net/root.crl

            X509v3 Authority Key Identifier: 
                keyid:60:7B:66:1A:45:0D:97:CA:89:50:2F:7D:04:CD:34:A8:FF:FC:FD:4B

    Signature Algorithm: sha1WithRSAEncryption
         4e:5e:56:90:1e:46:b4:d9:49:31:f3:bb:17:39:28:1b:c2:16:
         dd:fd:41:dc:09:05:04:9b:6f:b2:a2:9a:d6:99:2e:40:99:00:
         55:b5:ea:3f:a5:20:76:d3:86:34:d4:17:cc:55:3a:c7:82:ee:
         ef:a8:ba:bc:d8:06:9f:15:50:df:cd:16:7b:52:3a:02:d7:19:
         1a:fd:af:f0:78:5c:e0:4b:c5:18:df:3a:24:1e:da:ac:b8:a9:
         58:04:02:07:30:db:b0:12:5e:fe:31:be:f0:04:48:f4:f0:70:
         f8:3a:5e:56:83:cf:3d:fb:0d:bc:f4:c5:ed:97:9d:b9:d4:db:
         a5:27:84:e3:38:9b:8b:a7:35:86:44:20:a4:3b:6d:a4:6a:0b:
         a1:83:fd:28:eb:da:ef:28:f6:cc:88:5d:fb:0a:3b:00:ab:e0:
         21:eb:e2:2f:35:6c:0f:8e:34:45:97:eb:a2:f7:99:33:35:7e:
         cb:9a:8a:bb:45:4d:e7:3f:9f:c2:d9:8a:fa:65:b2:6e:c7:7e:
         65:ff:e8:92:e1:2c:31:a2:f7:b0:27:36:48:8f:26:6f:3b:ee:
         4d:76:1f:79:c3:e5:7f:96:35:bc:2d:0e:cc:01:b0:8e:7f:ff:
         51:80:80:a7:92:d4:b3:44:46:64:8c:87:4f:16:63:07:31:4b:
         63:b0:df:f3
-----BEGIN CERTIFICATE-----
MIIEFDCCAvygAwIBAgILBAAAAAABL07hUtcwDQYJKoZIhvcNAQEFBQAwVzELMAkG
A1UEBhMCQkUxGTAXBgNVBAoTEEdsb2JhbFNpZ24gbnYtc2ExEDAOBgNVBAsTB1Jv
b3QgQ0ExGzAZBgNVBAMTEkdsb2JhbFNpZ24gUm9vdCBDQTAeFw0xMTA0MTMxMDAw
MDBaFw0yODAxMjgxMjAwMDBaMFIxCzAJBgNVBAYTAkJFMRkwFwYDVQQKExBHbG9i
YWxTaWduIG52LXNhMSgwJgYDVQQDEx9HbG9iYWxTaWduIFRpbWVzdGFtcGluZyBD
QSAtIEcyMIIBIjANBgkqhkiG9w0BAQEFAAOCAQ8AMIIBCgKCAQEAlO9l+LVXn6BT
DTQG6wkft0cYasvwW+T/J6U00feJGr+esc0SQW5m1IGghYtkWkYvmaCNd7HivFzd
ItdqZ9C76Mp03otPDbBS5ZBb60cO8eefnAuQZT4XljBFcm05oRc2yrmgjBtPCBn2
gTGtYRakYua0QJ7D/PuV9vu1LpWBmODvxevYAll4d/eq41JrUJEpxfz3zZNl0mBh
IvIG+zLdFlH6Dv2KMPAXCae78wSuq5DnbN96qfTvxGInX2+ZbTh0qhGL2t/HFEzp
hbLswn1KJo/nVrqm4M+SU4B09APsaLJgvIQgAIMboe60dAXBKY5i0Eex+vBTzBj5
Ljv5cH60JQIDAQABo4HlMIHiMA4GA1UdDwEB/wQEAwIBBjASBgNVHRMBAf8ECDAG
AQH/AgEAMB0GA1UdDgQWBBRG2D7/3OO+/4Pm9IWbsN1q1hSpwTBHBgNVHSAEQDA+
MDwGBFUdIAAwNDAyBggrBgEFBQcCARYmaHR0cHM6Ly93d3cuZ2xvYmFsc2lnbi5j
b20vcmVwb3NpdG9yeS8wMwYDVR0fBCwwKjAooCagJIYiaHR0cDovL2NybC5nbG9i
YWxzaWduLm5ldC9yb290LmNybDAfBgNVHSMEGDAWgBRge2YaRQ2XyolQL30EzTSo
//z9SzANBgkqhkiG9w0BAQUFAAOCAQEATl5WkB5GtNlJMfO7FzkoG8IW3f1B3AkF
BJtvsqKa1pkuQJkAVbXqP6UgdtOGNNQXzFU6x4Lu76i6vNgGnxVQ380We1I6AtcZ
Gv2v8Hhc4EvFGN86JB7arLipWAQCBzDbsBJe/jG+8ARI9PBw+DpeVoPPPfsNvPTF
7ZedudTbpSeE4zibi6c1hkQgpDttpGoLoYP9KOva7yj2zIhd+wo7AKvgIeviLzVs
D440RZfroveZMzV+y5qKu0VN5z+fwtmK+mWybsd+Zf/okuEsMaL3sCc2SI8mbzvu
TXYfecPlf5Y1vC0OzAGwjn//UYCAp5LUs0RGZIyHTxZjBzFLY7Df8w==
-----END CERTIFICATE-----

Certificate:
    Data:
        Version: 3 (0x2)
        Serial Number:
            48:1b:6a:07:26:d2:e8:3f:26:02:d4:82:5a:cd
    Signature Algorithm: sha256WithRSAEncryption
        Issuer: OU=GlobalSign Root CA - R3, O=GlobalSign, CN=GlobalSign
        Validity
            Not Before: Jun 15 00:00:00 2016 GMT
            Not After : Jun 15 00:00:00 2024 GMT
        Subject: C=BE, O=GlobalSign nv-sa, CN=GlobalSign CodeSigning CA - SHA256 - G3
        Subject Public Key Info:
            Public Key Algorithm: rsaEncryption
                Public-Key: (2048 bit)
                Modulus:
                    00:8d:85:55:23:a9:1f:53:af:c9:ed:36:c2:29:b5:
                    6e:d8:f9:42:f5:21:8b:87:f0:43:a1:2f:c0:3f:97:
                    e3:18:47:d4:96:4e:88:ab:c6:63:e9:b6:49:15:85:
                    f1:d9:9b:7b:1b:fd:d8:4a:cc:6d:4e:86:40:17:cd:
                    7b:ba:47:28:b5:d6:14:40:0c:86:ee:1e:4b:33:f3:
                    2c:55:ee:21:8c:da:b6:c1:fe:b0:4e:3a:ae:51:9f:
                    a5:14:e3:10:e6:93:ca:fa:f9:5d:b1:90:87:ef:f8:
                    35:2d:fc:a2:5c:26:ee:7b:15:8b:1f:d9:c3:a1:97:
                    35:41:b3:30:fd:72:13:ad:91:97:3a:ce:72:9d:06:
                    0a:75:3c:1f:98:e3:cb:18:2f:8c:9f:08:4a:91:0a:
                    d9:d9:35:d9:83:92:76:62:5e:df:83:ae:e4:d6:01:
                    4e:cc:f3:3c:70:61:58:37:1f:14:e3:6a:a0:af:6b:
                    f4:d9:d2:6c:2c:19:30:5d:a0:6f:52:df:d1:9c:c9:
                    e0:0d:d9:75:11:65:96:d9:43:b4:a7:90:39:ae:47:
                    1c:54:cb:b1:95:6e:25:de:8e:f1:12:1c:f0:d7:6e:
                    e7:14:4d:b3:1a:65:d6:84:4a:57:ee:04:af:62:38:
                    c5:10:9b:43:8e:52:b8:3e:b6:ae:9e:2c:97:ff:8e:
                    74:ef
                Exponent: 65537 (0x10001)
        X509v3 extensions:
            X509v3 Key Usage: critical
                Certificate Sign, CRL Sign
            X509v3 Extended Key Usage: 
                Code Signing, OCSP Signing
            X509v3 Basic Constraints: critical
                CA:TRUE, pathlen:0
            X509v3 Subject Key Identifier: 
                0F:3A:E7:AC:94:91:74:2D:96:02:73:83:AD:9C:2E:49:3F:19:AA:54
            X509v3 Authority Key Identifier: 
                keyid:8F:F0:4B:7F:A8:2E:45:24:AE:4D:50:FA:63:9A:8B:DE:E2:DD:1B:BC

            Authority Information Access: 
                OCSP - URI:http://ocsp2.globalsign.com/rootr3

            X509v3 CRL Distribution Points: 

                Full Name:
                  URI:http://crl.globalsign.com/root-r3.crl

            X509v3 Certificate Policies: 
                Policy: 1.3.6.1.4.1.4146.1.50
                Policy: 2.23.140.1.4.1
                Policy: 1.3.6.1.4.1.4146.1.95
                  CPS: https://www.globalsign.com/repository/

    Signature Algorithm: sha256WithRSAEncryption
         15:84:28:0c:ed:a1:c3:19:82:db:63:27:41:d7:cc:63:7d:d6:
         bc:cf:36:9b:cf:d2:5d:4c:02:8b:58:1a:16:08:7a:b1:98:99:
         7f:d8:33:8a:5c:9e:62:0a:9a:ea:90:c2:c5:63:04:0b:e8:87:
         58:06:00:07:82:59:c3:a8:94:32:d9:e0:14:4d:a0:d5:23:e0:
         c7:dd:ba:f0:69:e2:4a:45:65:2d:4d:49:90:78:66:32:0e:b0:
         68:c0:b0:88:b0:8e:ed:5c:06:f8:5c:10:48:3f:23:73:ba:3b:
         53:84:52:80:cd:f0:b3:15:c8:11:0a:8b:05:78:46:59:08:d4:
         be:b7:ff:4b:f5:9c:6a:4c:9c:76:a2:11:85:45:8c:d4:37:ee:
         50:dd:e1:33:34:a9:a1:1f:3a:0b:f1:56:44:8a:6f:b3:33:d0:
         b1:8e:d1:0c:60:07:ee:32:c2:f0:24:6f:bf:af:fb:81:01:76:
         67:c4:a3:e8:e0:ab:dc:33:55:28:e3:67:47:3c:eb:6a:a4:df:
         94:e9:f4:a6:c0:81:d1:52:98:51:a6:d6:02:b7:3c:ea:4a:ef:
         d0:ba:65:d2:37:83:53:4b:7e:67:7c:8c:40:f6:07:1c:b0:af:
         04:06:dc:f8:6c:46:88:72:9c:eb:4e:9d:c3:b0:b9:54:a3:b9:
         4e:97:ca:14
-----BEGIN CERTIFICATE-----
MIIElDCCA3ygAwIBAgIOSBtqBybS6D8mAtSCWs0wDQYJKoZIhvcNAQELBQAwTDEg
MB4GA1UECxMXR2xvYmFsU2lnbiBSb290IENBIC0gUjMxEzARBgNVBAoTCkdsb2Jh
bFNpZ24xEzARBgNVBAMTCkdsb2JhbFNpZ24wHhcNMTYwNjE1MDAwMDAwWhcNMjQw
NjE1MDAwMDAwWjBaMQswCQYDVQQGEwJCRTEZMBcGA1UEChMQR2xvYmFsU2lnbiBu
di1zYTEwMC4GA1UEAxMnR2xvYmFsU2lnbiBDb2RlU2lnbmluZyBDQSAtIFNIQTI1
NiAtIEczMIIBIjANBgkqhkiG9w0BAQEFAAOCAQ8AMIIBCgKCAQEAjYVVI6kfU6/J
7TbCKbVu2PlC9SGLh/BDoS/AP5fjGEfUlk6Iq8Zj6bZJFYXx2Zt7G/3YSsxtToZA
F817ukcotdYUQAyG7h5LM/MsVe4hjNq2wf6wTjquUZ+lFOMQ5pPK+vldsZCH7/g1
LfyiXCbuexWLH9nDoZc1QbMw/XITrZGXOs5ynQYKdTwfmOPLGC+MnwhKkQrZ2TXZ
g5J2Yl7fg67k1gFOzPM8cGFYNx8U42qgr2v02dJsLBkwXaBvUt/RnMngDdl1EWWW
2UO0p5A5rkccVMuxlW4l3o7xEhzw127nFE2zGmXWhEpX7gSvYjjFEJtDjlK4Prau
niyX/4507wIDAQABo4IBZDCCAWAwDgYDVR0PAQH/BAQDAgEGMB0GA1UdJQQWMBQG
CCsGAQUFBwMDBggrBgEFBQcDCTASBgNVHRMBAf8ECDAGAQH/AgEAMB0GA1UdDgQW
BBQPOueslJF0LZYCc4OtnC5JPxmqVDAfBgNVHSMEGDAWgBSP8Et/qC5FJK5NUPpj
move4t0bvDA+BggrBgEFBQcBAQQyMDAwLgYIKwYBBQUHMAGGImh0dHA6Ly9vY3Nw
Mi5nbG9iYWxzaWduLmNvbS9yb290cjMwNgYDVR0fBC8wLTAroCmgJ4YlaHR0cDov
L2NybC5nbG9iYWxzaWduLmNvbS9yb290LXIzLmNybDBjBgNVHSAEXDBaMAsGCSsG
AQQBoDIBMjAIBgZngQwBBAEwQQYJKwYBBAGgMgFfMDQwMgYIKwYBBQUHAgEWJmh0
dHBzOi8vd3d3Lmdsb2JhbHNpZ24uY29tL3JlcG9zaXRvcnkvMA0GCSqGSIb3DQEB
CwUAA4IBAQAVhCgM7aHDGYLbYydB18xjfda8zzabz9JdTAKLWBoWCHqxmJl/2DOK
XJ5iCprqkMLFYwQL6IdYBgAHglnDqJQy2eAUTaDVI+DH3brwaeJKRWUtTUmQeGYy
DrBowLCIsI7tXAb4XBBIPyNzujtThFKAzfCzFcgRCosFeEZZCNS+t/9L9ZxqTJx2
ohGFRYzUN+5Q3eEzNKmhHzoL8VZEim+zM9CxjtEMYAfuMsLwJG+/r/uBAXZnxKPo
4KvcM1Uo42dHPOtqpN+U6fSmwIHRUphRptYCtzzqSu/QumXSN4NTS35nfIxA9gcc
sK8EBtz4bEaIcpzrTp3DsLlUo7lOl8oU
-----END CERTIFICATE-----

Certificate:
    Data:
        Version: 3 (0x2)
        Serial Number:
            11:21:d6:99:a7:64:97:3e:f1:f8:42:7e:e9:19:cc:53:41:14
    Signature Algorithm: sha1WithRSAEncryption
        Issuer: C=BE, O=GlobalSign nv-sa, CN=GlobalSign Timestamping CA - G2
        Validity
            Not Before: May 24 00:00:00 2016 GMT
            Not After : Jun 24 00:00:00 2027 GMT
        Subject: C=SG, O=GMO GlobalSign Pte Ltd, CN=GlobalSign TSA for MS Authenticode - G2
        Subject Public Key Info:
            Public Key Algorithm: rsaEncryption
                Public-Key: (2048 bit)
                Modulus:
                    00:b0:17:ae:a2:d3:b6:04:30:56:1e:58:0f:b1:ed:
                    55:a4:d6:54:cb:d8:f6:73:3a:ec:5d:5e:ab:25:fd:
                    36:a5:fa:84:c3:61:40:c5:46:b5:59:52:3b:42:a2:
                    2e:5f:13:62:10:a9:5b:e6:73:d6:92:25:b1:7d:23:
                    e3:06:b3:87:3a:0e:43:f0:d7:00:89:53:a2:11:31:
                    52:28:6e:5d:40:72:3c:f2:09:77:a7:49:92:97:d4:
                    6c:90:a0:76:a7:fd:b8:dc:b3:9d:f2:07:60:2c:4f:
                    58:98:00:6b:d3:15:54:e0:fa:dd:ff:80:2c:5f:18:
                    a6:98:ff:d4:ab:ec:a1:45:59:b2:2e:6f:62:5d:e0:
                    d9:19:ac:8b:57:9c:a8:26:2b:d9:17:a5:10:d2:47:
                    08:1a:70:2c:33:8b:7f:68:80:2a:b5:a1:5d:6b:dd:
                    8d:02:02:29:03:aa:7c:37:bb:bb:29:4e:3d:53:93:
                    b3:a6:fa:8f:d2:58:93:15:4c:b9:2d:ab:80:a3:a3:
                    25:fb:af:f7:08:64:b0:7a:44:0f:5c:10:d7:5f:61:
                    37:aa:4e:6b:d3:d2:53:25:9d:82:73:fa:2c:f9:72:
                    b0:a9:19:39:2a:50:fa:a9:d0:3c:3a:ca:e8:5b:ef:
                    f5:5f:51:f4:f9:0a:d9:97:35:de:6a:85:e6:23:04:
                    42:af
                Exponent: 65537 (0x10001)
        X509v3 extensions:
            X509v3 Key Usage: critical
                Digital Signature
            X509v3 Certificate Policies: 
                Policy: 1.3.6.1.4.1.4146.1.30
                  CPS: https://www.globalsign.com/repository/

            X509v3 Basic Constraints: 
                CA:FALSE
            X509v3 Extended Key Usage: critical
                Time Stamping
            X509v3 CRL Distribution Points: 

                Full Name:
                  URI:http://crl.globalsign.com/gs/gstimestampingg2.crl

            Authority Information Access: 
                CA Issuers - URI:http://secure.globalsign.com/cacert/gstimestampingg2.crt

            X509v3 Subject Key Identifier: 
                D4:A2:84:4A:38:5A:18:7F:BA:4F:30:50:BD:9D:D5:7A:87:D6:09:F7
            X509v3 Authority Key Identifier: 
                keyid:46:D8:3E:FF:DC:E3:BE:FF:83:E6:F4:85:9B:B0:DD:6A:D6:14:A9:C1

    Signature Algorithm: sha1WithRSAEncryption
         8f:a9:1a:91:6d:04:a6:37:20:0e:83:96:de:23:d3:6b:6e:1f:
         6e:dd:64:3d:68:21:22:b5:f8:47:36:69:8e:e1:a5:45:c7:24:
         a2:22:b7:29:09:cc:54:5a:ae:c6:bc:cd:63:8e:b3:3d:50:48:
         e5:b4:cc:ae:cd:92:8d:9e:28:8b:13:4a:11:aa:bd:a3:ef:d3:
         b2:36:fc:b4:a1:72:bf:6d:97:63:79:8c:44:bc:70:2f:7e:f3:
         bc:dd:82:53:ab:1a:f6:eb:fa:1c:97:bc:b6:37:9c:a4:1c:30:
         bc:ab:bc:2d:47:36:df:92:20:03:e8:71:c6:58:f6:75:05:9a:
         34:f0:0b:59:5a:82:44:34:aa:80:e4:2f:84:f6:47:5d:96:c9:
         b6:ca:ca:9d:b7:a6:ba:e4:50:d3:d4:37:b8:ba:20:0e:d0:d3:
         92:2a:5b:c4:59:bb:a1:6d:db:3c:ce:44:9d:c1:38:2a:ad:e3:
         8d:bd:cd:09:77:1a:10:be:67:0a:02:36:64:88:b9:b3:1b:26:
         ee:e7:9e:60:c4:46:a8:bc:61:33:6c:cf:4e:b9:9c:b9:6a:f0:
         9f:37:fe:b5:3d:4f:9a:d3:4d:ff:de:20:8e:4e:97:a6:fd:9f:
         09:bc:4d:ca:18:76:c9:b0:4d:85:50:f2:80:d2:1d:06:f5:58:
         04:07:b1:18
-----BEGIN CERTIFICATE-----
MIIEnzCCA4egAwIBAgISESHWmadklz7x+EJ+6RnMU0EUMA0GCSqGSIb3DQEBBQUA
MFIxCzAJBgNVBAYTAkJFMRkwFwYDVQQKExBHbG9iYWxTaWduIG52LXNhMSgwJgYD
VQQDEx9HbG9iYWxTaWduIFRpbWVzdGFtcGluZyBDQSAtIEcyMB4XDTE2MDUyNDAw
MDAwMFoXDTI3MDYyNDAwMDAwMFowYDELMAkGA1UEBhMCU0cxHzAdBgNVBAoTFkdN
TyBHbG9iYWxTaWduIFB0ZSBMdGQxMDAuBgNVBAMTJ0dsb2JhbFNpZ24gVFNBIGZv
ciBNUyBBdXRoZW50aWNvZGUgLSBHMjCCASIwDQYJKoZIhvcNAQEBBQADggEPADCC
AQoCggEBALAXrqLTtgQwVh5YD7HtVaTWVMvY9nM67F1eqyX9NqX6hMNhQMVGtVlS
O0KiLl8TYhCpW+Zz1pIlsX0j4wazhzoOQ/DXAIlTohExUihuXUByPPIJd6dJkpfU
bJCgdqf9uNyznfIHYCxPWJgAa9MVVOD63f+ALF8Yppj/1KvsoUVZsi5vYl3g2Rms
i1ecqCYr2RelENJHCBpwLDOLf2iAKrWhXWvdjQICKQOqfDe7uylOPVOTs6b6j9JY
kxVMuS2rgKOjJfuv9whksHpED1wQ119hN6pOa9PSUyWdgnP6LPlysKkZOSpQ+qnQ
PDrK6Fvv9V9R9PkK2Zc13mqF5iMEQq8CAwEAAaOCAV8wggFbMA4GA1UdDwEB/wQE
AwIHgDBMBgNVHSAERTBDMEEGCSsGAQQBoDIBHjA0MDIGCCsGAQUFBwIBFiZodHRw
czovL3d3dy5nbG9iYWxzaWduLmNvbS9yZXBvc2l0b3J5LzAJBgNVHRMEAjAAMBYG
A1UdJQEB/wQMMAoGCCsGAQUFBwMIMEIGA1UdHwQ7MDkwN6A1oDOGMWh0dHA6Ly9j
cmwuZ2xvYmFsc2lnbi5jb20vZ3MvZ3N0aW1lc3RhbXBpbmdnMi5jcmwwVAYIKwYB
BQUHAQEESDBGMEQGCCsGAQUFBzAChjhodHRwOi8vc2VjdXJlLmdsb2JhbHNpZ24u
Y29tL2NhY2VydC9nc3RpbWVzdGFtcGluZ2cyLmNydDAdBgNVHQ4EFgQU1KKESjha
GH+6TzBQvZ3VeofWCfcwHwYDVR0jBBgwFoAURtg+/9zjvv+D5vSFm7DdatYUqcEw
DQYJKoZIhvcNAQEFBQADggEBAI+pGpFtBKY3IA6Dlt4j02tuH27dZD1oISK1+Ec2
aY7hpUXHJKIitykJzFRarsa8zWOOsz1QSOW0zK7Nko2eKIsTShGqvaPv07I2/LSh
cr9tl2N5jES8cC9+87zdglOrGvbr+hyXvLY3nKQcMLyrvC1HNt+SIAPoccZY9nUF
mjTwC1lagkQ0qoDkL4T2R12WybbKyp23prrkUNPUN7i6IA7Q05IqW8RZu6Ft2zzO
RJ3BOCqt4429zQl3GhC+ZwoCNmSIubMbJu7nnmDERqi8YTNsz065nLlq8J83/rU9
T5rTTf/eII5Ol6b9nwm8TcoYdsmwTYVQ8oDSHQb1WAQHsRg=
-----END CERTIFICATE-----

Certificate:
    Data:
        Version: 3 (0x2)
        Serial Number:
            4c:2c:f9:38:34:07:88:9e:51:d4:94:59
    Signature Algorithm: sha256WithRSAEncryption
        Issuer: C=BE, O=GlobalSign nv-sa, CN=GlobalSign CodeSigning CA - SHA256 - G3
        Validity
            Not Before: Sep  8 12:53:46 2017 GMT
            Not After : Dec  8 12:53:46 2020 GMT
        Subject: C=US, ST=CA, L=San Francisco, O=Bittorrent Inc, CN=Bittorrent Inc/emailAddress=neteng@bittorrent.com
        Subject Public Key Info:
            Public Key Algorithm: rsaEncryption
                Public-Key: (2048 bit)
                Modulus:
                    00:83:8a:7c:cc:5d:c7:79:70:b8:62:bd:85:44:5c:
                    59:2d:ff:a1:db:2c:28:32:4a:eb:a2:3c:15:36:a5:
                    a9:17:ef:5c:46:d9:48:5c:9f:98:54:53:ae:c0:51:
                    93:45:83:2a:49:bd:65:c4:e4:28:aa:d4:97:7f:0d:
                    f4:70:d1:22:fb:35:2a:da:37:d2:ff:27:d6:b9:df:
                    ab:e4:52:b6:4b:33:7b:21:00:0b:84:f2:ea:95:c1:
                    04:11:b8:f3:3e:f8:c6:48:fd:ac:3d:b4:d8:1a:42:
                    14:c6:11:8b:2e:29:05:f0:0a:e8:92:bb:49:37:c6:
                    83:51:d0:7f:44:bf:74:76:de:a7:cf:00:b6:5c:47:
                    ed:4d:e7:8c:5f:03:27:9c:9b:40:48:0a:d2:54:de:
                    36:2b:0e:90:16:41:b2:5c:2a:30:ad:78:2e:84:6f:
                    96:1d:1c:d4:b2:28:b1:22:b1:85:b2:22:b6:bf:bc:
                    e5:b8:8e:ea:c5:21:b0:65:98:f9:a6:b7:cb:22:d8:
                    d5:08:00:d2:07:cc:41:09:71:19:c4:eb:c9:e7:33:
                    96:ae:e4:4e:cb:bf:38:56:fb:3e:5c:77:38:08:fe:
                    11:fb:b7:f5:99:c6:b4:3f:5c:2c:b0:84:dc:2f:15:
                    91:04:55:83:6d:54:d8:44:80:03:68:62:19:3b:68:
                    af:3b
                Exponent: 65537 (0x10001)
        X509v3 extensions:
            X509v3 Key Usage: critical
                Digital Signature
            Authority Information Access: 
                CA Issuers - URI:http://secure.globalsign.com/cacert/gscodesignsha2g3ocsp.crt
                OCSP - URI:http://ocsp2.globalsign.com/gscodesignsha2g3

            X509v3 Certificate Policies: 
                Policy: 1.3.6.1.4.1.4146.1.50
                  CPS: https://www.globalsign.com/repository/
                Policy: 2.23.140.1.4.1

            X509v3 Basic Constraints: 
                CA:FALSE
            X509v3 CRL Distribution Points: 

                Full Name:
                  URI:http://crl.globalsign.com/gscodesignsha2g3.crl

            X509v3 Extended Key Usage: 
                Code Signing
            X509v3 Subject Key Identifier: 
                27:D9:B7:64:B2:CA:0D:62:F0:2A:5F:99:B0:63:67:C0:A8:A2:D4:16
            X509v3 Authority Key Identifier: 
                keyid:0F:3A:E7:AC:94:91:74:2D:96:02:73:83:AD:9C:2E:49:3F:19:AA:54

    Signature Algorithm: sha256WithRSAEncryption
         23:a8:05:c9:a1:22:61:84:ad:4e:a4:d5:56:6a:b5:03:9a:a0:
         63:3b:9f:c9:16:2a:59:ca:70:71:a8:ce:95:92:20:2e:a4:22:
         9e:f1:4d:ab:59:00:1a:b4:ee:1a:5a:7f:7a:a5:53:c1:15:c5:
         b3:d9:81:f0:8e:cf:b3:bf:36:b5:b7:46:95:21:a5:4a:2c:1e:
         ab:e0:7c:79:1f:52:40:77:4d:1b:74:31:dc:e2:7e:23:13:78:
         a1:ac:9e:42:cd:9e:51:cb:55:1f:b6:53:71:70:60:93:6e:76:
         bd:6d:de:b6:b0:73:12:f5:d3:10:00:46:a5:21:4b:50:5c:ae:
         63:e8:43:cc:08:38:78:20:b2:61:56:17:1b:84:af:a4:cf:cf:
         c0:74:61:07:5b:ff:ac:73:22:d4:e3:88:a4:45:2e:09:fb:bb:
         72:ce:7b:66:83:83:73:9f:d0:7e:3b:18:47:af:a8:36:f2:2e:
         a7:14:7f:aa:c1:0c:b2:74:ac:8f:7f:51:13:07:04:aa:4a:2e:
         d8:04:78:55:12:ca:5e:3f:53:64:1b:37:81:4d:27:3a:4f:ae:
         6c:f0:99:0f:e2:20:42:8c:8b:db:21:9d:71:a8:2e:32:cd:7f:
         d2:79:d1:b2:62:07:97:c5:24:22:b8:2e:4c:81:b4:cc:29:d6:
         84:ef:6e:d1
-----BEGIN CERTIFICATE-----
MIIFETCCA/mgAwIBAgIMTCz5ODQHiJ5R1JRZMA0GCSqGSIb3DQEBCwUAMFoxCzAJ
BgNVBAYTAkJFMRkwFwYDVQQKExBHbG9iYWxTaWduIG52LXNhMTAwLgYDVQQDEydH
bG9iYWxTaWduIENvZGVTaWduaW5nIENBIC0gU0hBMjU2IC0gRzMwHhcNMTcwOTA4
MTI1MzQ2WhcNMjAxMjA4MTI1MzQ2WjCBijELMAkGA1UEBhMCVVMxCzAJBgNVBAgT
AkNBMRYwFAYDVQQHEw1TYW4gRnJhbmNpc2NvMRcwFQYDVQQKEw5CaXR0b3JyZW50
IEluYzEXMBUGA1UEAxMOQml0dG9ycmVudCBJbmMxJDAiBgkqhkiG9w0BCQEWFW5l
dGVuZ0BiaXR0b3JyZW50LmNvbTCCASIwDQYJKoZIhvcNAQEBBQADggEPADCCAQoC
ggEBAIOKfMxdx3lwuGK9hURcWS3/odssKDJK66I8FTalqRfvXEbZSFyfmFRTrsBR
k0WDKkm9ZcTkKKrUl38N9HDRIvs1Kto30v8n1rnfq+RStkszeyEAC4Ty6pXBBBG4
8z74xkj9rD202BpCFMYRiy4pBfAK6JK7STfGg1HQf0S/dHbep88AtlxH7U3njF8D
J5ybQEgK0lTeNisOkBZBslwqMK14LoRvlh0c1LIosSKxhbIitr+85biO6sUhsGWY
+aa3yyLY1QgA0gfMQQlxGcTryeczlq7kTsu/OFb7Plx3OAj+Efu39ZnGtD9cLLCE
3C8VkQRVg21U2ESAA2hiGTtorzsCAwEAAaOCAaQwggGgMA4GA1UdDwEB/wQEAwIH
gDCBlAYIKwYBBQUHAQEEgYcwgYQwSAYIKwYBBQUHMAKGPGh0dHA6Ly9zZWN1cmUu
Z2xvYmFsc2lnbi5jb20vY2FjZXJ0L2dzY29kZXNpZ25zaGEyZzNvY3NwLmNydDA4
BggrBgEFBQcwAYYsaHR0cDovL29jc3AyLmdsb2JhbHNpZ24uY29tL2dzY29kZXNp
Z25zaGEyZzMwVgYDVR0gBE8wTTBBBgkrBgEEAaAyATIwNDAyBggrBgEFBQcCARYm
aHR0cHM6Ly93d3cuZ2xvYmFsc2lnbi5jb20vcmVwb3NpdG9yeS8wCAYGZ4EMAQQB
MAkGA1UdEwQCMAAwPwYDVR0fBDgwNjA0oDKgMIYuaHR0cDovL2NybC5nbG9iYWxz
aWduLmNvbS9nc2NvZGVzaWduc2hhMmczLmNybDATBgNVHSUEDDAKBggrBgEFBQcD
AzAdBgNVHQ4EFgQUJ9m3ZLLKDWLwKl+ZsGNnwKii1BYwHwYDVR0jBBgwFoAUDzrn
rJSRdC2WAnODrZwuST8ZqlQwDQYJKoZIhvcNAQELBQADggEBACOoBcmhImGErU6k
1VZqtQOaoGM7n8kWKlnKcHGozpWSIC6kIp7xTatZABq07hpaf3qlU8EVxbPZgfCO
z7O/NrW3RpUhpUosHqvgfHkfUkB3TRt0MdzifiMTeKGsnkLNnlHLVR+2U3FwYJNu
dr1t3rawcxL10xAARqUhS1BcrmPoQ8wIOHggsmFWFxuEr6TPz8B0YQdb/6xzItTj
iKRFLgn7u3LOe2aDg3Of0H47GEevqDbyLqcUf6rBDLJ0rI9/URMHBKpKLtgEeFUS
yl4/U2QbN4FNJzpPrmzwmQ/iIEKMi9shnXGoLjLNf9J50bJiB5fFJCK4LkyBtMwp
1oTvbtE=
-----END CERTIFICATE-----

