Certificate:
    Data:
        Version: 3 (0x2)
        Serial Number:
            1b:09:3b:78:60:96:da:37:bb:a4:51:94:46:c8:96:78
    Signature Algorithm: sha1WithRSAEncryption
        Issuer: C=US, O=VeriSign, Inc., OU=Class 3 Public Primary Certification Authority
        Validity
            Not Before: Nov  8 00:00:00 2006 GMT
            Not After : Nov  7 23:59:59 2021 GMT
        Subject: C=US, O=VeriSign, Inc., OU=VeriSign Trust Network, OU=(c) 2006 VeriSign, Inc. - For authorized use only, CN=VeriSign Class 3 Public Primary Certification Authority - G5
        Subject Public Key Info:
            Public Key Algorithm: rsaEncryption
                Public-Key: (2048 bit)
                Modulus:
                    00:af:24:08:08:29:7a:35:9e:60:0c:aa:e7:4b:3b:
                    4e:dc:7c:bc:3c:45:1c:bb:2b:e0:fe:29:02:f9:57:
                    08:a3:64:85:15:27:f5:f1:ad:c8:31:89:5d:22:e8:
                    2a:aa:a6:42:b3:8f:f8:b9:55:b7:b1:b7:4b:b3:fe:
                    8f:7e:07:57:ec:ef:43:db:66:62:15:61:cf:60:0d:
                    a4:d8:de:f8:e0:c3:62:08:3d:54:13:eb:49:ca:59:
                    54:85:26:e5:2b:8f:1b:9f:eb:f5:a1:91:c2:33:49:
                    d8:43:63:6a:52:4b:d2:8f:e8:70:51:4d:d1:89:69:
                    7b:c7:70:f6:b3:dc:12:74:db:7b:5d:4b:56:d3:96:
                    bf:15:77:a1:b0:f4:a2:25:f2:af:1c:92:67:18:e5:
                    f4:06:04:ef:90:b9:e4:00:e4:dd:3a:b5:19:ff:02:
                    ba:f4:3c:ee:e0:8b:eb:37:8b:ec:f4:d7:ac:f2:f6:
                    f0:3d:af:dd:75:91:33:19:1d:1c:40:cb:74:24:19:
                    21:93:d9:14:fe:ac:2a:52:c7:8f:d5:04:49:e4:8d:
                    63:47:88:3c:69:83:cb:fe:47:bd:2b:7e:4f:c5:95:
                    ae:0e:9d:d4:d1:43:c0:67:73:e3:14:08:7e:e5:3f:
                    9f:73:b8:33:0a:cf:5d:3f:34:87:96:8a:ee:53:e8:
                    25:15
                Exponent: 65537 (0x10001)
        X509v3 extensions:
            X509v3 Basic Constraints: critical
                CA:TRUE
            X509v3 CRL Distribution Points: 

                Full Name:
                  URI:http://crl.verisign.com/pca3.crl

            X509v3 Key Usage: critical
                Certificate Sign, CRL Sign
            X509v3 Certificate Policies: 
                Policy: X509v3 Any Policy
                  CPS: https://www.verisign.com/cps

            X509v3 Subject Key Identifier: 
                7F:D3:65:A7:C2:DD:EC:BB:F0:30:09:F3:43:39:FA:02:AF:33:31:33
            1.3.6.1.5.5.7.1.12: 
                0_.].[0Y0W0U..image/gif0!0.0...+..............k...j.H.,{..0%.#http://logo.verisign.com/vslogo.gif
            Authority Information Access: 
                OCSP - URI:http://ocsp.verisign.com

    Signature Algorithm: sha1WithRSAEncryption
         a3:cd:7d:1e:f7:c7:75:8d:48:e7:56:34:4c:00:90:75:a9:51:
         a5:56:c1:6d:bc:fe:f5:53:22:e9:98:a2:ac:9a:7e:70:1e:b3:
         8e:3b:45:e3:86:95:31:da:6d:4c:fb:34:50:80:96:cd:24:f2:
         40:df:04:3f:e2:65:ce:34:22:61:15:ea:66:70:64:d2:f1:6e:
         f3:ca:18:59:6a:41:46:7e:82:de:19:b0:70:31:56:69:0d:0c:
         e6:1d:9d:71:58:dc:cc:de:62:f5:e1:7a:10:02:d8:7a:dc:3b:
         fa:57:bd:c9:e9:8f:46:21:39:9f:51:65:4c:8e:3a:be:28:41:
         70:1d
-----BEGIN CERTIFICATE-----
MIIEkDCCA/mgAwIBAgIQGwk7eGCW2je7pFGURsiWeDANBgkqhkiG9w0BAQUFADBf
MQswCQYDVQQGEwJVUzEXMBUGA1UEChMOVmVyaVNpZ24sIEluYy4xNzA1BgNVBAsT
LkNsYXNzIDMgUHVibGljIFByaW1hcnkgQ2VydGlmaWNhdGlvbiBBdXRob3JpdHkw
HhcNMDYxMTA4MDAwMDAwWhcNMjExMTA3MjM1OTU5WjCByjELMAkGA1UEBhMCVVMx
FzAVBgNVBAoTDlZlcmlTaWduLCBJbmMuMR8wHQYDVQQLExZWZXJpU2lnbiBUcnVz
dCBOZXR3b3JrMTowOAYDVQQLEzEoYykgMjAwNiBWZXJpU2lnbiwgSW5jLiAtIEZv
ciBhdXRob3JpemVkIHVzZSBvbmx5MUUwQwYDVQQDEzxWZXJpU2lnbiBDbGFzcyAz
IFB1YmxpYyBQcmltYXJ5IENlcnRpZmljYXRpb24gQXV0aG9yaXR5IC0gRzUwggEi
MA0GCSqGSIb3DQEBAQUAA4IBDwAwggEKAoIBAQCvJAgIKXo1nmAMqudLO07cfLw8
RRy7K+D+KQL5VwijZIUVJ/XxrcgxiV0i6CqqpkKzj/i5Vbext0uz/o9+B1fs70Pb
ZmIVYc9gDaTY3vjgw2IIPVQT60nKWVSFJuUrjxuf6/WhkcIzSdhDY2pSS9KP6HBR
TdGJaXvHcPaz3BJ023tdS1bTlr8Vd6Gw9KIl8q8ckmcY5fQGBO+QueQA5N06tRn/
Arr0PO7gi+s3i+z016zy9vA9r911kTMZHRxAy3QkGSGT2RT+rCpSx4/VBEnkjWNH
iDxpg8v+R70rfk/Fla4OndTRQ8Bnc+MUCH7lP59zuDMKz10/NIeWiu5T6CUVAgMB
AAGjggFbMIIBVzAPBgNVHRMBAf8EBTADAQH/MDEGA1UdHwQqMCgwJqAkoCKGIGh0
dHA6Ly9jcmwudmVyaXNpZ24uY29tL3BjYTMuY3JsMA4GA1UdDwEB/wQEAwIBBjA9
BgNVHSAENjA0MDIGBFUdIAAwKjAoBggrBgEFBQcCARYcaHR0cHM6Ly93d3cudmVy
aXNpZ24uY29tL2NwczAdBgNVHQ4EFgQUf9Nlp8Ld7LvwMAnzQzn6Aq8zMTMwbQYI
KwYBBQUHAQwEYTBfoV2gWzBZMFcwVRYJaW1hZ2UvZ2lmMCEwHzAHBgUrDgMCGgQU
j+XTGoasjY5rw8+AatRIGCx7GS4wJRYjaHR0cDovL2xvZ28udmVyaXNpZ24uY29t
L3ZzbG9nby5naWYwNAYIKwYBBQUHAQEEKDAmMCQGCCsGAQUFBzABhhhodHRwOi8v
b2NzcC52ZXJpc2lnbi5jb20wDQYJKoZIhvcNAQEFBQADgYEAo819HvfHdY1I51Y0
TACQdalRpVbBbbz+9VMi6ZiirJp+cB6zjjtF44aVMdptTPs0UICWzSTyQN8EP+Jl
zjQiYRXqZnBk0vFu88oYWWpBRn6C3hmwcDFWaQ0M5h2dcVjczN5i9eF6EALYetw7
+le9yemPRiE5n1FlTI46vihBcB0=
-----END CERTIFICATE-----

Certificate:
    Data:
        Version: 3 (0x2)
        Serial Number:
            51:68:1b:3c:9e:66:5d:d0:b2:9e:25:71:46:d5:39:dc
    Signature Algorithm: sha1WithRSAEncryption
        Issuer: C=US, O=VeriSign, Inc., OU=VeriSign Trust Network, OU=Terms of use at https://www.verisign.com/rpa (c)10, CN=VeriSign Class 3 Code Signing 2010 CA
        Validity
            Not Before: Jul  6 00:00:00 2015 GMT
            Not After : Jul  5 23:59:59 2016 GMT
        Subject: C=CN, ST=\xE5\xB9\xBF\xE4\xB8\x9C\xE7\x9C\x81, L=\xE4\xBD\x9B\xE5\xB1\xB1\xE5\xB8\x82, O=\xE4\xBD\x9B\xE5\xB1\xB1\xE5\xB8\x82\xE9\xAB\x98\xE6\x98\x8E\xE7\xA7\x91\xE5\xBE\x97\xE8\xA3\x95\xE7\xBB\x9D\xE7\xBC\x98\xE6\x9D\x90\xE6\x96\x99\xE6\x9C\x89\xE9\x99\x90\xE5\x85\xAC\xE5\x8F\xB8, CN=\xE4\xBD\x9B\xE5\xB1\xB1\xE5\xB8\x82\xE9\xAB\x98\xE6\x98\x8E\xE7\xA7\x91\xE5\xBE\x97\xE8\xA3\x95\xE7\xBB\x9D\xE7\xBC\x98\xE6\x9D\x90\xE6\x96\x99\xE6\x9C\x89\xE9\x99\x90\xE5\x85\xAC\xE5\x8F\xB8
        Subject Public Key Info:
            Public Key Algorithm: rsaEncryption
                Public-Key: (2048 bit)
                Modulus:
                    00:b2:83:09:c2:4c:c9:31:38:9a:44:5e:6c:a7:1d:
                    24:66:40:2f:7b:03:de:25:92:ea:1e:79:1f:4d:e7:
                    3d:57:c1:59:51:56:37:f1:89:38:91:8d:8a:2f:cc:
                    3d:9e:17:64:d3:3c:c8:b4:86:2c:6d:77:a5:45:89:
                    0a:d9:10:6c:ee:71:e8:b7:5b:f9:47:ef:6c:5b:ce:
                    53:26:5d:a8:cd:13:40:10:eb:d6:ba:88:f2:9f:64:
                    64:7f:83:09:03:99:02:13:6a:4a:94:46:6a:fc:b1:
                    2b:19:bb:07:d6:55:3a:84:aa:a8:1f:07:17:00:e9:
                    e2:84:bd:17:74:f4:02:3e:9d:48:88:be:3f:b1:c9:
                    ad:9b:f1:01:66:22:75:3c:90:04:b0:9d:02:b4:16:
                    d8:65:0f:27:7f:3a:15:a5:20:e8:bb:0e:5b:4c:2e:
                    6e:ff:b1:40:8b:7a:84:e5:e2:f6:e3:e6:ee:4c:b2:
                    67:83:3f:c1:91:d5:af:49:9a:fc:08:af:90:9c:f0:
                    3a:b5:9b:be:27:22:1b:04:ab:7f:34:15:9b:f7:17:
                    cc:7d:7c:da:8d:a6:f1:2d:83:9c:9c:b8:1d:cf:c3:
                    ef:df:23:ea:0a:58:19:aa:4f:11:e6:a6:c3:48:d4:
                    87:9f:a3:5e:ff:2f:c0:52:37:6a:19:9f:08:34:1e:
                    2b:bd
                Exponent: 65537 (0x10001)
        X509v3 extensions:
            X509v3 Basic Constraints: 
                CA:FALSE
            X509v3 Key Usage: critical
                Digital Signature
            X509v3 CRL Distribution Points: 

                Full Name:
                  URI:http://sf.symcb.com/sf.crl

            X509v3 Certificate Policies: 
                Policy: 2.16.840.1.113733.1.7.23.3
                  CPS: https://d.symcb.com/cps
                  User Notice:
                    Explicit Text: https://d.symcb.com/rpa

            X509v3 Extended Key Usage: 
                Code Signing
            Authority Information Access: 
                OCSP - URI:http://sf.symcd.com
                CA Issuers - URI:http://sf.symcb.com/sf.crt

            X509v3 Authority Key Identifier: 
                keyid:CF:99:A9:EA:7B:26:F4:4B:C9:8E:8F:D7:F0:05:26:EF:E3:D2:A7:9D

            X509v3 Subject Key Identifier: 
                C1:37:8A:EF:18:82:4B:41:FF:DA:32:7F:9D:4C:B9:43:29:EE:99:E6
    Signature Algorithm: sha1WithRSAEncryption
         c8:3e:06:71:ac:90:c1:0f:8b:2a:69:8b:95:ab:29:06:7d:f9:
         d1:b5:03:5d:03:36:af:66:ab:2b:2a:13:b8:26:3f:a8:a5:6d:
         52:29:91:3b:cf:75:e0:5c:06:a7:b0:11:88:19:46:d0:47:e1:
         c8:ee:95:a2:d2:cd:d0:8c:43:23:d9:ce:9b:1a:95:23:2e:da:
         b3:fb:27:8d:11:69:06:45:9f:6b:53:97:30:af:5d:a4:4a:96:
         74:ee:de:58:58:0c:bc:ae:54:d2:ba:79:1b:32:4b:7c:90:59:
         f6:72:7a:6e:d9:c6:4c:77:0b:d3:64:f0:75:c5:e5:78:42:d9:
         4a:4d:41:e0:2e:f7:5a:db:eb:42:09:83:43:55:df:b6:d9:18:
         71:19:d4:60:65:78:a1:92:42:1f:ab:60:11:c7:89:05:7d:f2:
         4d:bd:2e:34:7b:ad:2e:9f:f1:94:a9:3d:ae:03:3e:27:25:3f:
         16:42:45:4b:e8:6a:4a:a3:27:48:9e:d1:c8:dd:4d:fc:b2:19:
         a9:e6:33:1e:3d:bc:dc:27:2c:fb:91:8c:90:ac:5d:25:c2:fe:
         41:27:ea:ae:5b:bd:1e:6f:ca:ed:17:85:0c:4f:94:27:04:a2:
         8e:38:ca:03:05:18:68:06:39:ca:d0:83:57:10:56:f2:19:42:
         ca:5c:af:46
-----BEGIN CERTIFICATE-----
MIIFTzCCBDegAwIBAgIQUWgbPJ5mXdCyniVxRtU53DANBgkqhkiG9w0BAQUFADCB
tDELMAkGA1UEBhMCVVMxFzAVBgNVBAoTDlZlcmlTaWduLCBJbmMuMR8wHQYDVQQL
ExZWZXJpU2lnbiBUcnVzdCBOZXR3b3JrMTswOQYDVQQLEzJUZXJtcyBvZiB1c2Ug
YXQgaHR0cHM6Ly93d3cudmVyaXNpZ24uY29tL3JwYSAoYykxMDEuMCwGA1UEAxMl
VmVyaVNpZ24gQ2xhc3MgMyBDb2RlIFNpZ25pbmcgMjAxMCBDQTAeFw0xNTA3MDYw
MDAwMDBaFw0xNjA3MDUyMzU5NTlaMIGrMQswCQYDVQQGEwJDTjESMBAGA1UECAwJ
5bm/5Lic55yBMRIwEAYDVQQHDAnkvZvlsbHluIIxOTA3BgNVBAoMMOS9m+WxseW4
gumrmOaYjuenkeW+l+ijlee7nee8mOadkOaWmeaciemZkOWFrOWPuDE5MDcGA1UE
Awww5L2b5bGx5biC6auY5piO56eR5b6X6KOV57ud57yY5p2Q5paZ5pyJ6ZmQ5YWs
5Y+4MIIBIjANBgkqhkiG9w0BAQEFAAOCAQ8AMIIBCgKCAQEAsoMJwkzJMTiaRF5s
px0kZkAvewPeJZLqHnkfTec9V8FZUVY38Yk4kY2KL8w9nhdk0zzItIYsbXelRYkK
2RBs7nHot1v5R+9sW85TJl2ozRNAEOvWuojyn2Rkf4MJA5kCE2pKlEZq/LErGbsH
1lU6hKqoHwcXAOnihL0XdPQCPp1IiL4/scmtm/EBZiJ1PJAEsJ0CtBbYZQ8nfzoV
pSDouw5bTC5u/7FAi3qE5eL24+buTLJngz/BkdWvSZr8CK+QnPA6tZu+JyIbBKt/
NBWb9xfMfXzajabxLYOcnLgdz8Pv3yPqClgZqk8R5qbDSNSHn6Ne/y/AUjdqGZ8I
NB4rvQIDAQABo4IBYjCCAV4wCQYDVR0TBAIwADAOBgNVHQ8BAf8EBAMCB4AwKwYD
VR0fBCQwIjAgoB6gHIYaaHR0cDovL3NmLnN5bWNiLmNvbS9zZi5jcmwwZgYDVR0g
BF8wXTBbBgtghkgBhvhFAQcXAzBMMCMGCCsGAQUFBwIBFhdodHRwczovL2Quc3lt
Y2IuY29tL2NwczAlBggrBgEFBQcCAjAZDBdodHRwczovL2Quc3ltY2IuY29tL3Jw
YTATBgNVHSUEDDAKBggrBgEFBQcDAzBXBggrBgEFBQcBAQRLMEkwHwYIKwYBBQUH
MAGGE2h0dHA6Ly9zZi5zeW1jZC5jb20wJgYIKwYBBQUHMAKGGmh0dHA6Ly9zZi5z
eW1jYi5jb20vc2YuY3J0MB8GA1UdIwQYMBaAFM+Zqep7JvRLyY6P1/AFJu/j0qed
MB0GA1UdDgQWBBTBN4rvGIJLQf/aMn+dTLlDKe6Z5jANBgkqhkiG9w0BAQUFAAOC
AQEAyD4GcayQwQ+LKmmLlaspBn350bUDXQM2r2arKyoTuCY/qKVtUimRO8914FwG
p7ARiBlG0EfhyO6VotLN0IxDI9nOmxqVIy7as/snjRFpBkWfa1OXMK9dpEqWdO7e
WFgMvK5U0rp5GzJLfJBZ9nJ6btnGTHcL02TwdcXleELZSk1B4C73WtvrQgmDQ1Xf
ttkYcRnUYGV4oZJCH6tgEceJBX3yTb0uNHutLp/xlKk9rgM+JyU/FkJFS+hqSqMn
SJ7RyN1N/LIZqeYzHj283Ccs+5GMkKxdJcL+QSfqrlu9Hm/K7ReFDE+UJwSijjjK
AwUYaAY5ytCDVxBW8hlCylyvRg==
-----END CERTIFICATE-----

Certificate:
    Data:
        Version: 3 (0x2)
        Serial Number:
            52:00:e5:aa:25:56:fc:1a:86:ed:96:c9:d4:4b:33:c7
    Signature Algorithm: sha1WithRSAEncryption
        Issuer: C=US, O=VeriSign, Inc., OU=VeriSign Trust Network, OU=(c) 2006 VeriSign, Inc. - For authorized use only, CN=VeriSign Class 3 Public Primary Certification Authority - G5
        Validity
            Not Before: Feb  8 00:00:00 2010 GMT
            Not After : Feb  7 23:59:59 2020 GMT
        Subject: C=US, O=VeriSign, Inc., OU=VeriSign Trust Network, OU=Terms of use at https://www.verisign.com/rpa (c)10, CN=VeriSign Class 3 Code Signing 2010 CA
        Subject Public Key Info:
            Public Key Algorithm: rsaEncryption
                Public-Key: (2048 bit)
                Modulus:
                    00:f5:23:4b:5e:a5:d7:8a:bb:32:e9:d4:57:f7:ef:
                    e4:c7:26:7e:ad:19:98:fe:a8:9d:7d:94:f6:36:6b:
                    10:d7:75:81:30:7f:04:68:7f:cb:2b:75:1e:cd:1d:
                    08:8c:df:69:94:a7:37:a3:9c:7b:80:e0:99:e1:ee:
                    37:4d:5f:ce:3b:14:ee:86:d4:d0:f5:27:35:bc:25:
                    0b:38:a7:8c:63:9d:17:a3:08:a5:ab:b0:fb:cd:6a:
                    62:82:4c:d5:21:da:1b:d9:f1:e3:84:3b:8a:2a:4f:
                    85:5b:90:01:4f:c9:a7:76:10:7f:27:03:7c:be:ae:
                    7e:7d:c1:dd:f9:05:bc:1b:48:9c:69:e7:c0:a4:3c:
                    3c:41:00:3e:df:96:e5:c5:e4:94:71:d6:55:01:c7:
                    00:26:4a:40:3c:b5:a1:26:a9:0c:a7:6d:80:8e:90:
                    25:7b:cf:bf:3f:1c:eb:2f:96:fa:e5:87:77:c6:b5:
                    56:b2:7a:3b:54:30:53:1b:df:62:34:ff:1e:d1:f4:
                    5a:93:28:85:e5:4c:17:4e:7e:5b:fd:a4:93:99:7f:
                    df:cd:ef:a4:75:ef:ef:15:f6:47:e7:f8:19:72:d8:
                    2e:34:1a:a6:b4:a7:4c:7e:bd:bb:4f:0c:3d:57:f1:
                    30:d6:a6:36:8e:d6:80:76:d7:19:2e:a5:cd:7e:34:
                    2d:89
                Exponent: 65537 (0x10001)
        X509v3 extensions:
            X509v3 Basic Constraints: critical
                CA:TRUE, pathlen:0
            X509v3 Certificate Policies: 
                Policy: 2.16.840.1.113733.1.7.23.3
                  CPS: https://www.verisign.com/cps
                  User Notice:
                    Explicit Text: https://www.verisign.com/rpa

            X509v3 Key Usage: critical
                Certificate Sign, CRL Sign
            1.3.6.1.5.5.7.1.12: 
                0_.].[0Y0W0U..image/gif0!0.0...+..............k...j.H.,{..0%.#http://logo.verisign.com/vslogo.gif
            X509v3 CRL Distribution Points: 

                Full Name:
                  URI:http://crl.verisign.com/pca3-g5.crl

            Authority Information Access: 
                OCSP - URI:http://ocsp.verisign.com

            X509v3 Extended Key Usage: 
                TLS Web Client Authentication, Code Signing
            X509v3 Subject Alternative Name: 
                DirName:/CN=VeriSignMPKI-2-8
            X509v3 Subject Key Identifier: 
                CF:99:A9:EA:7B:26:F4:4B:C9:8E:8F:D7:F0:05:26:EF:E3:D2:A7:9D
            X509v3 Authority Key Identifier: 
                keyid:7F:D3:65:A7:C2:DD:EC:BB:F0:30:09:F3:43:39:FA:02:AF:33:31:33

    Signature Algorithm: sha1WithRSAEncryption
         56:22:e6:34:a4:c4:61:cb:48:b9:01:ad:56:a8:64:0f:d9:8c:
         91:c4:bb:cc:0c:e5:ad:7a:a0:22:7f:df:47:38:4a:2d:6c:d1:
         7f:71:1a:7c:ec:70:a9:b1:f0:4f:e4:0f:0c:53:fa:15:5e:fe:
         74:98:49:24:85:81:26:1c:91:14:47:b0:4c:63:8c:bb:a1:34:
         d4:c6:45:e8:0d:85:26:73:03:d0:a9:8c:64:6d:dc:71:92:e6:
         45:05:60:15:59:51:39:fc:58:14:6b:fe:d4:a4:ed:79:6b:08:
         0c:41:72:e7:37:22:06:09:be:23:e9:3f:44:9a:1e:e9:61:9d:
         cc:b1:90:5c:fc:3d:d2:8d:ac:42:3d:65:36:d4:b4:3d:40:28:
         8f:9b:10:cf:23:26:cc:4b:20:cb:90:1f:5d:8c:4c:34:ca:3c:
         d8:e5:37:d6:6f:a5:20:bd:34:eb:26:d9:ae:0d:e7:c5:9a:f7:
         a1:b4:21:91:33:6f:86:e8:58:bb:25:7c:74:0e:58:fe:75:1b:
         63:3f:ce:31:7c:9b:8f:1b:96:9e:c5:53:76:84:5b:9c:ad:91:
         fa:ac:ed:93:ba:5d:c8:21:53:c2:82:53:63:af:12:0d:50:87:
         11:1b:3d:54:52:96:8a:2c:9c:3d:92:1a:08:9a:05:2e:c7:93:
         a5:48:91:d3
-----BEGIN CERTIFICATE-----
MIIGCjCCBPKgAwIBAgIQUgDlqiVW/BqG7ZbJ1EszxzANBgkqhkiG9w0BAQUFADCB
yjELMAkGA1UEBhMCVVMxFzAVBgNVBAoTDlZlcmlTaWduLCBJbmMuMR8wHQYDVQQL
ExZWZXJpU2lnbiBUcnVzdCBOZXR3b3JrMTowOAYDVQQLEzEoYykgMjAwNiBWZXJp
U2lnbiwgSW5jLiAtIEZvciBhdXRob3JpemVkIHVzZSBvbmx5MUUwQwYDVQQDEzxW
ZXJpU2lnbiBDbGFzcyAzIFB1YmxpYyBQcmltYXJ5IENlcnRpZmljYXRpb24gQXV0
aG9yaXR5IC0gRzUwHhcNMTAwMjA4MDAwMDAwWhcNMjAwMjA3MjM1OTU5WjCBtDEL
MAkGA1UEBhMCVVMxFzAVBgNVBAoTDlZlcmlTaWduLCBJbmMuMR8wHQYDVQQLExZW
ZXJpU2lnbiBUcnVzdCBOZXR3b3JrMTswOQYDVQQLEzJUZXJtcyBvZiB1c2UgYXQg
aHR0cHM6Ly93d3cudmVyaXNpZ24uY29tL3JwYSAoYykxMDEuMCwGA1UEAxMlVmVy
aVNpZ24gQ2xhc3MgMyBDb2RlIFNpZ25pbmcgMjAxMCBDQTCCASIwDQYJKoZIhvcN
AQEBBQADggEPADCCAQoCggEBAPUjS16l14q7MunUV/fv5Mcmfq0ZmP6onX2U9jZr
ENd1gTB/BGh/yyt1Hs0dCIzfaZSnN6Oce4DgmeHuN01fzjsU7obU0PUnNbwlCzin
jGOdF6MIpauw+81qYoJM1SHaG9nx44Q7iipPhVuQAU/Jp3YQfycDfL6ufn3B3fkF
vBtInGnnwKQ8PEEAPt+W5cXklHHWVQHHACZKQDy1oSapDKdtgI6QJXvPvz8c6y+W
+uWHd8a1VrJ6O1QwUxvfYjT/HtH0WpMoheVMF05+W/2kk5l/383vpHXv7xX2R+f4
GXLYLjQaprSnTH69u08MPVfxMNamNo7WgHbXGS6lzX40LYkCAwEAAaOCAf4wggH6
MBIGA1UdEwEB/wQIMAYBAf8CAQAwcAYDVR0gBGkwZzBlBgtghkgBhvhFAQcXAzBW
MCgGCCsGAQUFBwIBFhxodHRwczovL3d3dy52ZXJpc2lnbi5jb20vY3BzMCoGCCsG
AQUFBwICMB4aHGh0dHBzOi8vd3d3LnZlcmlzaWduLmNvbS9ycGEwDgYDVR0PAQH/
BAQDAgEGMG0GCCsGAQUFBwEMBGEwX6FdoFswWTBXMFUWCWltYWdlL2dpZjAhMB8w
BwYFKw4DAhoEFI/l0xqGrI2Oa8PPgGrUSBgsexkuMCUWI2h0dHA6Ly9sb2dvLnZl
cmlzaWduLmNvbS92c2xvZ28uZ2lmMDQGA1UdHwQtMCswKaAnoCWGI2h0dHA6Ly9j
cmwudmVyaXNpZ24uY29tL3BjYTMtZzUuY3JsMDQGCCsGAQUFBwEBBCgwJjAkBggr
BgEFBQcwAYYYaHR0cDovL29jc3AudmVyaXNpZ24uY29tMB0GA1UdJQQWMBQGCCsG
AQUFBwMCBggrBgEFBQcDAzAoBgNVHREEITAfpB0wGzEZMBcGA1UEAxMQVmVyaVNp
Z25NUEtJLTItODAdBgNVHQ4EFgQUz5mp6nsm9EvJjo/X8AUm7+PSp50wHwYDVR0j
BBgwFoAUf9Nlp8Ld7LvwMAnzQzn6Aq8zMTMwDQYJKoZIhvcNAQEFBQADggEBAFYi
5jSkxGHLSLkBrVaoZA/ZjJHEu8wM5a16oCJ/30c4Si1s0X9xGnzscKmx8E/kDwxT
+hVe/nSYSSSFgSYckRRHsExjjLuhNNTGRegNhSZzA9CpjGRt3HGS5kUFYBVZUTn8
WBRr/tSk7XlrCAxBcuc3IgYJviPpP0SaHulhncyxkFz8PdKNrEI9ZTbUtD1AKI+b
EM8jJsxLIMuQH12MTDTKPNjlN9ZvpSC9NOsm2a4N58Wa96G0IZEzb4boWLslfHQO
WP51G2M/zjF8m48blp7FU3aEW5ytkfqs7ZO6XcghU8KCU2OvEg1QhxEbPVRSloos
nD2SGgiaBS7Hk6VIkdM=
-----END CERTIFICATE-----

