Certificate:
    Data:
        Version: 1 (0x0)
        Serial Number:
            3c:91:31:cb:1f:f6:d0:1b:0e:9a:b8:d0:44:bf:12:be
    Signature Algorithm: sha1WithRSAEncryption
        Issuer: C=US, O=VeriSign, Inc., OU=Class 3 Public Primary Certification Authority
        Validity
            Not Before: Jan 29 00:00:00 1996 GMT
            Not After : Aug  2 23:59:59 2028 GMT
        Subject: C=US, O=VeriSign, Inc., OU=Class 3 Public Primary Certification Authority
        Subject Public Key Info:
            Public Key Algorithm: rsaEncryption
                Public-Key: (1024 bit)
                Modulus:
                    00:c9:5c:59:9e:f2:1b:8a:01:14:b4:10:df:04:40:
                    db:e3:57:af:6a:45:40:8f:84:0c:0b:d1:33:d9:d9:
                    11:cf:ee:02:58:1f:25:f7:2a:a8:44:05:aa:ec:03:
                    1f:78:7f:9e:93:b9:9a:00:aa:23:7d:d6:ac:85:a2:
                    63:45:c7:72:27:cc:f4:4c:c6:75:71:d2:39:ef:4f:
                    42:f0:75:df:0a:90:c6:8e:20:6f:98:0f:f8:ac:23:
                    5f:70:29:36:a4:c9:86:e7:b1:9a:20:cb:53:a5:85:
                    e7:3d:be:7d:9a:fe:24:45:33:dc:76:15:ed:0f:a2:
                    71:64:4c:65:2e:81:68:45:a7
                Exponent: 65537 (0x10001)
    Signature Algorithm: sha1WithRSAEncryption
         10:72:52:a9:05:14:19:32:08:41:f0:c5:6b:0a:cc:7e:0f:21:
         19:cd:e4:67:dc:5f:a9:1b:e6:ca:e8:73:9d:22:d8:98:6e:73:
         03:61:91:c5:7c:b0:45:40:6e:44:9d:8d:b0:b1:96:74:61:2d:
         0d:a9:45:d2:a4:92:2a:d6:9a:75:97:6e:3f:53:fd:45:99:60:
         1d:a8:2b:4c:f9:5e:a7:09:d8:75:30:d7:d2:65:60:3d:67:d6:
         48:55:75:69:3f:91:f5:48:0b:47:69:22:69:82:96:be:c9:c8:
         38:86:4a:7a:2c:73:19:48:69:4e:6b:7c:65:bf:0f:fc:70:ce:
         88:90
-----BEGIN CERTIFICATE-----
MIICPDCCAaUCEDyRMcsf9tAbDpq40ES/Er4wDQYJKoZIhvcNAQEFBQAwXzELMAkG
A1UEBhMCVVMxFzAVBgNVBAoTDlZlcmlTaWduLCBJbmMuMTcwNQYDVQQLEy5DbGFz
cyAzIFB1YmxpYyBQcmltYXJ5IENlcnRpZmljYXRpb24gQXV0aG9yaXR5MB4XDTk2
MDEyOTAwMDAwMFoXDTI4MDgwMjIzNTk1OVowXzELMAkGA1UEBhMCVVMxFzAVBgNV
BAoTDlZlcmlTaWduLCBJbmMuMTcwNQYDVQQLEy5DbGFzcyAzIFB1YmxpYyBQcmlt
YXJ5IENlcnRpZmljYXRpb24gQXV0aG9yaXR5MIGfMA0GCSqGSIb3DQEBAQUAA4GN
ADCBiQKBgQDJXFme8huKARS0EN8EQNvjV69qRUCPhAwL0TPZ2RHP7gJYHyX3KqhE
BarsAx94f56TuZoAqiN91qyFomNFx3InzPRMxnVx0jnvT0Lwdd8KkMaOIG+YD/is
I19wKTakyYbnsZogy1Olhec9vn2a/iRFM9x2Fe0PonFkTGUugWhFpwIDAQABMA0G
CSqGSIb3DQEBBQUAA4GBABByUqkFFBkyCEHwxWsKzH4PIRnN5GfcX6kb5sroc50i
2JhucwNhkcV8sEVAbkSdjbCxlnRhLQ2pRdKkkirWmnWXbj9T/UWZYB2oK0z5XqcJ
2HUw19JlYD1n1khVdWk/kfVIC0dpImmClr7JyDiGSnoscxlIaU5rfGW/D/xwzoiQ
-----END CERTIFICATE-----

Certificate:
    Data:
        Version: 3 (0x2)
        Serial Number:
            7e:93:eb:fb:7c:c6:4e:59:ea:4b:9a:77:d4:06:fc:3b
    Signature Algorithm: sha1WithRSAEncryption
        Issuer: C=ZA, ST=Western Cape, L=Durbanville, O=Thawte, OU=Thawte Certification, CN=Thawte Timestamping CA
        Validity
            Not Before: Dec 21 00:00:00 2012 GMT
            Not After : Dec 30 23:59:59 2020 GMT
        Subject: C=US, O=Symantec Corporation, CN=Symantec Time Stamping Services CA - G2
        Subject Public Key Info:
            Public Key Algorithm: rsaEncryption
                Public-Key: (2048 bit)
                Modulus:
                    00:b1:ac:b3:49:54:4b:97:1c:12:0a:d8:25:79:91:
                    22:57:2a:6f:dc:b8:26:c4:43:73:6b:c2:bf:2e:50:
                    5a:fb:14:c2:76:8e:43:01:25:43:b4:a1:e2:45:f4:
                    e8:b7:7b:c3:74:cc:22:d7:b4:94:00:02:f7:4d:ed:
                    bf:b4:b7:44:24:6b:cd:5f:45:3b:d1:44:ce:43:12:
                    73:17:82:8b:69:b4:2b:cb:99:1e:ac:72:1b:26:4d:
                    71:1f:b1:31:dd:fb:51:61:02:53:a6:aa:f5:49:2c:
                    05:78:45:a5:2f:89:ce:e7:99:e7:fe:8c:e2:57:3f:
                    3d:c6:92:dc:4a:f8:7b:33:e4:79:0a:fb:f0:75:88:
                    41:9c:ff:c5:03:51:99:aa:d7:6c:9f:93:69:87:65:
                    29:83:85:c2:60:14:c4:c8:c9:3b:14:da:c0:81:f0:
                    1f:0d:74:de:92:22:ab:ca:f7:fb:74:7c:27:e6:f7:
                    4a:1b:7f:a7:c3:9e:2d:ae:8a:ea:a6:e6:aa:27:16:
                    7d:61:f7:98:71:11:bc:e2:50:a1:4b:e5:5d:fa:e5:
                    0e:a7:2c:9f:aa:65:20:d3:d8:96:e8:c8:7c:a5:4e:
                    48:44:ff:19:e2:44:07:92:0b:d7:68:84:80:5d:6a:
                    78:64:45:cd:60:46:7e:54:c1:13:7c:c5:79:f1:c9:
                    c1:71
                Exponent: 65537 (0x10001)
        X509v3 extensions:
            X509v3 Subject Key Identifier: 
                5F:9A:F5:6E:5C:CC:CC:74:9A:D4:DD:7D:EF:3F:DB:EC:4C:80:2E:DD
            Authority Information Access: 
                OCSP - URI:http://ocsp.thawte.com

            X509v3 Basic Constraints: critical
                CA:TRUE, pathlen:0
            X509v3 CRL Distribution Points: 

                Full Name:
                  URI:http://crl.thawte.com/ThawteTimestampingCA.crl

            X509v3 Extended Key Usage: 
                Time Stamping
            X509v3 Key Usage: critical
                Certificate Sign, CRL Sign
            X509v3 Subject Alternative Name: 
                DirName:/CN=TimeStamp-2048-1
    Signature Algorithm: sha1WithRSAEncryption
         03:09:9b:8f:79:ef:7f:59:30:aa:ef:68:b5:fa:e3:09:1d:bb:
         4f:82:06:5d:37:5f:a6:52:9f:16:8d:ea:1c:92:09:44:6e:f5:
         6d:eb:58:7c:30:e8:f9:69:8d:23:73:0b:12:6f:47:a9:ae:39:
         11:f8:2a:b1:9b:b0:1a:c3:8e:eb:59:96:00:ad:ce:0c:4d:b2:
         d0:31:a6:08:5c:2a:7a:fc:e2:7a:1d:57:4c:a8:65:18:e9:79:
         40:62:25:96:6e:c7:c7:37:6a:83:21:08:8e:41:ea:dd:d9:57:
         3f:1d:77:49:87:2a:16:06:5e:a6:38:6a:22:12:a3:51:19:83:
         7e:b6
-----BEGIN CERTIFICATE-----
MIID7jCCA1egAwIBAgIQfpPr+3zGTlnqS5p31Ab8OzANBgkqhkiG9w0BAQUFADCB
izELMAkGA1UEBhMCWkExFTATBgNVBAgTDFdlc3Rlcm4gQ2FwZTEUMBIGA1UEBxML
RHVyYmFudmlsbGUxDzANBgNVBAoTBlRoYXd0ZTEdMBsGA1UECxMUVGhhd3RlIENl
cnRpZmljYXRpb24xHzAdBgNVBAMTFlRoYXd0ZSBUaW1lc3RhbXBpbmcgQ0EwHhcN
MTIxMjIxMDAwMDAwWhcNMjAxMjMwMjM1OTU5WjBeMQswCQYDVQQGEwJVUzEdMBsG
A1UEChMUU3ltYW50ZWMgQ29ycG9yYXRpb24xMDAuBgNVBAMTJ1N5bWFudGVjIFRp
bWUgU3RhbXBpbmcgU2VydmljZXMgQ0EgLSBHMjCCASIwDQYJKoZIhvcNAQEBBQAD
ggEPADCCAQoCggEBALGss0lUS5ccEgrYJXmRIlcqb9y4JsRDc2vCvy5QWvsUwnaO
QwElQ7Sh4kX06Ld7w3TMIte0lAAC903tv7S3RCRrzV9FO9FEzkMScxeCi2m0K8uZ
HqxyGyZNcR+xMd37UWECU6aq9UksBXhFpS+JzueZ5/6M4lc/PcaS3Er4ezPkeQr7
8HWIQZz/xQNRmarXbJ+TaYdlKYOFwmAUxMjJOxTawIHwHw103pIiq8r3+3R8J+b3
Sht/p8OeLa6K6qbmqicWfWH3mHERvOJQoUvlXfrlDqcsn6plINPYlujIfKVOSET/
GeJEB5IL12iEgF1qeGRFzWBGflTBE3zFefHJwXECAwEAAaOB+jCB9zAdBgNVHQ4E
FgQUX5r1blzMzHSa1N197z/b7EyALt0wMgYIKwYBBQUHAQEEJjAkMCIGCCsGAQUF
BzABhhZodHRwOi8vb2NzcC50aGF3dGUuY29tMBIGA1UdEwEB/wQIMAYBAf8CAQAw
PwYDVR0fBDgwNjA0oDKgMIYuaHR0cDovL2NybC50aGF3dGUuY29tL1RoYXd0ZVRp
bWVzdGFtcGluZ0NBLmNybDATBgNVHSUEDDAKBggrBgEFBQcDCDAOBgNVHQ8BAf8E
BAMCAQYwKAYDVR0RBCEwH6QdMBsxGTAXBgNVBAMTEFRpbWVTdGFtcC0yMDQ4LTEw
DQYJKoZIhvcNAQEFBQADgYEAAwmbj3nvf1kwqu9otfrjCR27T4IGXTdfplKfFo3q
HJIJRG71betYfDDo+WmNI3MLEm9Hqa45EfgqsZuwGsOO61mWAK3ODE2y0DGmCFwq
evzieh1XTKhlGOl5QGIllm7HxzdqgyEIjkHq3dlXPx13SYcqFgZepjhqIhKjURmD
frY=
-----END CERTIFICATE-----

Certificate:
    Data:
        Version: 3 (0x2)
        Serial Number:
            0e:cf:f4:38:c8:fe:bf:35:6e:04:d8:6a:98:1b:1a:50
    Signature Algorithm: sha1WithRSAEncryption
        Issuer: C=US, O=Symantec Corporation, CN=Symantec Time Stamping Services CA - G2
        Validity
            Not Before: Oct 18 00:00:00 2012 GMT
            Not After : Dec 29 23:59:59 2020 GMT
        Subject: C=US, O=Symantec Corporation, CN=Symantec Time Stamping Services Signer - G4
        Subject Public Key Info:
            Public Key Algorithm: rsaEncryption
                Public-Key: (2048 bit)
                Modulus:
                    00:a2:63:0b:39:44:b8:bb:23:a7:44:49:bb:0e:ff:
                    a1:f0:61:0a:53:93:b0:98:db:ad:2c:0f:4a:c5:6e:
                    ff:86:3c:53:55:0f:15:ce:04:3f:2b:fd:a9:96:96:
                    d9:be:61:79:0b:5b:c9:4c:86:76:e5:e0:43:4b:22:
                    95:ee:c2:2b:43:c1:9f:d8:68:b4:8e:40:4f:ee:85:
                    38:b9:11:c5:23:f2:64:58:f0:15:32:6f:4e:57:a1:
                    ae:88:a4:02:d7:2a:1e:cd:4b:e1:dd:63:d5:17:89:
                    32:5b:b0:5e:99:5a:a8:9d:28:50:0e:17:ee:96:db:
                    61:3b:45:51:1d:cf:12:56:0b:92:47:fc:ab:ae:f6:
                    66:3d:47:ac:70:72:e7:92:e7:5f:cd:10:b9:c4:83:
                    64:94:19:bd:25:80:e1:e8:d2:22:a5:d0:ba:02:7a:
                    a1:77:93:5b:65:c3:ee:17:74:bc:41:86:2a:dc:08:
                    4c:8c:92:8c:91:2d:9e:77:44:1f:68:d6:a8:74:77:
                    db:0e:5b:32:8b:56:8b:33:bd:d9:63:c8:49:9d:3a:
                    c5:c5:ea:33:0b:d2:f1:a3:1b:f4:8b:be:d9:b3:57:
                    8b:3b:de:04:a7:7a:22:b2:24:ae:2e:c7:70:c5:be:
                    4e:83:26:08:fb:0b:bd:a9:4f:99:08:e1:10:28:72:
                    aa:cd
                Exponent: 65537 (0x10001)
        X509v3 extensions:
            X509v3 Basic Constraints: critical
                CA:FALSE
            X509v3 Extended Key Usage: critical
                Time Stamping
            X509v3 Key Usage: critical
                Digital Signature
            Authority Information Access: 
                OCSP - URI:http://ts-ocsp.ws.symantec.com
                CA Issuers - URI:http://ts-aia.ws.symantec.com/tss-ca-g2.cer

            X509v3 CRL Distribution Points: 

                Full Name:
                  URI:http://ts-crl.ws.symantec.com/tss-ca-g2.crl

            X509v3 Subject Alternative Name: 
                DirName:/CN=TimeStamp-2048-2
            X509v3 Subject Key Identifier: 
                46:C6:69:A3:0E:4A:14:1E:D5:4C:DA:52:63:17:3F:5E:36:BC:0D:E6
            X509v3 Authority Key Identifier: 
                keyid:5F:9A:F5:6E:5C:CC:CC:74:9A:D4:DD:7D:EF:3F:DB:EC:4C:80:2E:DD

    Signature Algorithm: sha1WithRSAEncryption
         78:3b:b4:91:2a:00:4c:f0:8f:62:30:37:78:a3:84:27:07:6f:
         18:b2:de:25:dc:a0:d4:94:03:aa:86:4e:25:9f:9a:40:03:1c:
         dd:ce:e3:79:cb:21:68:06:da:b6:32:b4:6d:bf:f4:2c:26:63:
         33:e4:49:64:6d:0d:e6:c3:67:0e:f7:05:a4:35:6c:7c:89:16:
         c6:e9:b2:df:b2:e9:dd:20:c6:71:0f:cd:95:74:dc:b6:5c:de:
         bd:37:1f:43:78:e6:78:b5:cd:28:04:20:a3:aa:f1:4b:c4:88:
         29:91:0e:80:d1:11:fc:dd:5c:76:6e:4f:5e:0e:45:46:41:6e:
         0d:b0:ea:38:9a:b1:3a:da:09:71:10:fc:1c:79:b4:80:7b:ac:
         69:f4:fd:9c:b6:0c:16:2b:f1:7f:5b:09:3d:9b:5b:e2:16:ca:
         13:81:6d:00:2e:38:0d:a8:29:8f:2c:e1:b2:f4:5a:a9:01:af:
         15:9c:2c:2f:49:1b:db:22:bb:c3:fe:78:94:51:c3:86:b1:82:
         88:5d:f0:3d:b4:51:a1:79:33:2b:2e:7b:b9:dc:20:09:13:71:
         eb:6a:19:5b:cf:e8:a5:30:57:2c:89:49:3f:b9:cf:7f:c9:bf:
         3e:22:68:63:53:9a:bd:69:74:ac:c5:1d:3c:7f:92:e0:c3:bc:
         1c:d8:04:75
-----BEGIN CERTIFICATE-----
MIIEozCCA4ugAwIBAgIQDs/0OMj+vzVuBNhqmBsaUDANBgkqhkiG9w0BAQUFADBe
MQswCQYDVQQGEwJVUzEdMBsGA1UEChMUU3ltYW50ZWMgQ29ycG9yYXRpb24xMDAu
BgNVBAMTJ1N5bWFudGVjIFRpbWUgU3RhbXBpbmcgU2VydmljZXMgQ0EgLSBHMjAe
Fw0xMjEwMTgwMDAwMDBaFw0yMDEyMjkyMzU5NTlaMGIxCzAJBgNVBAYTAlVTMR0w
GwYDVQQKExRTeW1hbnRlYyBDb3Jwb3JhdGlvbjE0MDIGA1UEAxMrU3ltYW50ZWMg
VGltZSBTdGFtcGluZyBTZXJ2aWNlcyBTaWduZXIgLSBHNDCCASIwDQYJKoZIhvcN
AQEBBQADggEPADCCAQoCggEBAKJjCzlEuLsjp0RJuw7/ofBhClOTsJjbrSwPSsVu
/4Y8U1UPFc4EPyv9qZaW2b5heQtbyUyGduXgQ0sile7CK0PBn9hotI5AT+6FOLkR
xSPyZFjwFTJvTlehroikAtcqHs1L4d1j1ReJMluwXplaqJ0oUA4X7pbbYTtFUR3P
ElYLkkf8q672Zj1HrHBy55LnX80QucSDZJQZvSWA4ejSIqXQugJ6oXeTW2XD7hd0
vEGGKtwITIySjJEtnndEH2jWqHR32w5bMotWizO92WPISZ06xcXqMwvS8aMb9Iu+
2bNXizveBKd6IrIkri7HcMW+ToMmCPsLvalPmQjhEChyqs0CAwEAAaOCAVcwggFT
MAwGA1UdEwEB/wQCMAAwFgYDVR0lAQH/BAwwCgYIKwYBBQUHAwgwDgYDVR0PAQH/
BAQDAgeAMHMGCCsGAQUFBwEBBGcwZTAqBggrBgEFBQcwAYYeaHR0cDovL3RzLW9j
c3Aud3Muc3ltYW50ZWMuY29tMDcGCCsGAQUFBzAChitodHRwOi8vdHMtYWlhLndz
LnN5bWFudGVjLmNvbS90c3MtY2EtZzIuY2VyMDwGA1UdHwQ1MDMwMaAvoC2GK2h0
dHA6Ly90cy1jcmwud3Muc3ltYW50ZWMuY29tL3Rzcy1jYS1nMi5jcmwwKAYDVR0R
BCEwH6QdMBsxGTAXBgNVBAMTEFRpbWVTdGFtcC0yMDQ4LTIwHQYDVR0OBBYEFEbG
aaMOShQe1UzaUmMXP142vA3mMB8GA1UdIwQYMBaAFF+a9W5czMx0mtTdfe8/2+xM
gC7dMA0GCSqGSIb3DQEBBQUAA4IBAQB4O7SRKgBM8I9iMDd4o4QnB28Yst4l3KDU
lAOqhk4ln5pAAxzdzuN5yyFoBtq2MrRtv/QsJmMz5ElkbQ3mw2cO9wWkNWx8iRbG
6bLfsundIMZxD82VdNy2XN69Nx9DeOZ4tc0oBCCjqvFLxIgpkQ6A0RH83Vx2bk9e
DkVGQW4NsOo4mrE62glxEPwcebSAe6xp9P2ctgwWK/F/Wwk9m1viFsoTgW0ALjgN
qCmPLOGy9FqpAa8VnCwvSRvbIrvD/niUUcOGsYKIXfA9tFGheTMrLnu53CAJE3Hr
ahlbz+ilMFcsiUk/uc9/yb8+ImhjU5q9aXSsxR08f5Lgw7wc2AR1
-----END CERTIFICATE-----

Certificate:
    Data:
        Version: 3 (0x2)
        Serial Number:
            35:97:31:87:f3:87:3a:07:32:7e:ce:58:0c:9b:7e:da
    Signature Algorithm: sha1WithRSAEncryption
        Issuer: C=US, O=VeriSign, Inc., OU=Class 3 Public Primary Certification Authority
        Validity
            Not Before: Nov  8 00:00:00 2006 GMT
            Not After : Nov  7 23:59:59 2021 GMT
        Subject: C=US, O=VeriSign, Inc., OU=VeriSign Trust Network, OU=(c) 2006 VeriSign, Inc. - For authorized use only, CN=VeriSign Class 3 Public Primary Certification Authority - G5
        Subject Public Key Info:
            Public Key Algorithm: rsaEncryption
                Public-Key: (2048 bit)
                Modulus:
                    00:af:24:08:08:29:7a:35:9e:60:0c:aa:e7:4b:3b:
                    4e:dc:7c:bc:3c:45:1c:bb:2b:e0:fe:29:02:f9:57:
                    08:a3:64:85:15:27:f5:f1:ad:c8:31:89:5d:22:e8:
                    2a:aa:a6:42:b3:8f:f8:b9:55:b7:b1:b7:4b:b3:fe:
                    8f:7e:07:57:ec:ef:43:db:66:62:15:61:cf:60:0d:
                    a4:d8:de:f8:e0:c3:62:08:3d:54:13:eb:49:ca:59:
                    54:85:26:e5:2b:8f:1b:9f:eb:f5:a1:91:c2:33:49:
                    d8:43:63:6a:52:4b:d2:8f:e8:70:51:4d:d1:89:69:
                    7b:c7:70:f6:b3:dc:12:74:db:7b:5d:4b:56:d3:96:
                    bf:15:77:a1:b0:f4:a2:25:f2:af:1c:92:67:18:e5:
                    f4:06:04:ef:90:b9:e4:00:e4:dd:3a:b5:19:ff:02:
                    ba:f4:3c:ee:e0:8b:eb:37:8b:ec:f4:d7:ac:f2:f6:
                    f0:3d:af:dd:75:91:33:19:1d:1c:40:cb:74:24:19:
                    21:93:d9:14:fe:ac:2a:52:c7:8f:d5:04:49:e4:8d:
                    63:47:88:3c:69:83:cb:fe:47:bd:2b:7e:4f:c5:95:
                    ae:0e:9d:d4:d1:43:c0:67:73:e3:14:08:7e:e5:3f:
                    9f:73:b8:33:0a:cf:5d:3f:34:87:96:8a:ee:53:e8:
                    25:15
                Exponent: 65537 (0x10001)
        X509v3 extensions:
            X509v3 Basic Constraints: critical
                CA:TRUE
            X509v3 CRL Distribution Points: 

                Full Name:
                  URI:http://crl.verisign.com/pca3.crl

            X509v3 Key Usage: critical
                Certificate Sign, CRL Sign
            X509v3 Certificate Policies: 
                Policy: X509v3 Any Policy
                  CPS: https://www.verisign.com/cps

            X509v3 Subject Key Identifier: 
                7F:D3:65:A7:C2:DD:EC:BB:F0:30:09:F3:43:39:FA:02:AF:33:31:33
            X509v3 Extended Key Usage: 
                Netscape Server Gated Crypto, 2.16.840.1.113733.1.8.1, TLS Web Server Authentication, TLS Web Client Authentication
            1.3.6.1.5.5.7.1.12: 
                0_.].[0Y0W0U..image/gif0!0.0...+..............k...j.H.,{..0%.#http://logo.verisign.com/vslogo.gif
            Authority Information Access: 
                OCSP - URI:http://ocsp.verisign.com

    Signature Algorithm: sha1WithRSAEncryption
         0f:25:ae:48:ed:1b:33:85:4c:0c:b5:c2:d7:fe:4d:d6:83:28:
         4c:41:65:60:00:0b:77:48:71:82:fe:7f:db:5a:0e:20:cc:d2:
         ea:47:bc:64:42:61:44:34:74:30:81:81:26:8a:4a:f7:44:5d:
         7e:34:80:a8:b8:83:e2:09:d7:6d:23:dd:89:ed:28:08:bd:63:
         5a:11:57:08:c4:9e:da:e2:68:28:af:dd:50:3c:ec:82:21:d8:
         00:c2:55:44:50:70:41:ad:83:17:79:ba:08:f3:2b:de:ed:34:
         1d:44:9e:d2:04:93:f4:cb:05:17:2d:09:2d:2d:63:ef:f6:26:
         0b:7b
-----BEGIN CERTIFICATE-----
MIIExjCCBC+gAwIBAgIQNZcxh/OHOgcyfs5YDJt+2jANBgkqhkiG9w0BAQUFADBf
MQswCQYDVQQGEwJVUzEXMBUGA1UEChMOVmVyaVNpZ24sIEluYy4xNzA1BgNVBAsT
LkNsYXNzIDMgUHVibGljIFByaW1hcnkgQ2VydGlmaWNhdGlvbiBBdXRob3JpdHkw
HhcNMDYxMTA4MDAwMDAwWhcNMjExMTA3MjM1OTU5WjCByjELMAkGA1UEBhMCVVMx
FzAVBgNVBAoTDlZlcmlTaWduLCBJbmMuMR8wHQYDVQQLExZWZXJpU2lnbiBUcnVz
dCBOZXR3b3JrMTowOAYDVQQLEzEoYykgMjAwNiBWZXJpU2lnbiwgSW5jLiAtIEZv
ciBhdXRob3JpemVkIHVzZSBvbmx5MUUwQwYDVQQDEzxWZXJpU2lnbiBDbGFzcyAz
IFB1YmxpYyBQcmltYXJ5IENlcnRpZmljYXRpb24gQXV0aG9yaXR5IC0gRzUwggEi
MA0GCSqGSIb3DQEBAQUAA4IBDwAwggEKAoIBAQCvJAgIKXo1nmAMqudLO07cfLw8
RRy7K+D+KQL5VwijZIUVJ/XxrcgxiV0i6CqqpkKzj/i5Vbext0uz/o9+B1fs70Pb
ZmIVYc9gDaTY3vjgw2IIPVQT60nKWVSFJuUrjxuf6/WhkcIzSdhDY2pSS9KP6HBR
TdGJaXvHcPaz3BJ023tdS1bTlr8Vd6Gw9KIl8q8ckmcY5fQGBO+QueQA5N06tRn/
Arr0PO7gi+s3i+z016zy9vA9r911kTMZHRxAy3QkGSGT2RT+rCpSx4/VBEnkjWNH
iDxpg8v+R70rfk/Fla4OndTRQ8Bnc+MUCH7lP59zuDMKz10/NIeWiu5T6CUVAgMB
AAGjggGRMIIBjTAPBgNVHRMBAf8EBTADAQH/MDEGA1UdHwQqMCgwJqAkoCKGIGh0
dHA6Ly9jcmwudmVyaXNpZ24uY29tL3BjYTMuY3JsMA4GA1UdDwEB/wQEAwIBBjA9
BgNVHSAENjA0MDIGBFUdIAAwKjAoBggrBgEFBQcCARYcaHR0cHM6Ly93d3cudmVy
aXNpZ24uY29tL2NwczAdBgNVHQ4EFgQUf9Nlp8Ld7LvwMAnzQzn6Aq8zMTMwNAYD
VR0lBC0wKwYJYIZIAYb4QgQBBgpghkgBhvhFAQgBBggrBgEFBQcDAQYIKwYBBQUH
AwIwbQYIKwYBBQUHAQwEYTBfoV2gWzBZMFcwVRYJaW1hZ2UvZ2lmMCEwHzAHBgUr
DgMCGgQUj+XTGoasjY5rw8+AatRIGCx7GS4wJRYjaHR0cDovL2xvZ28udmVyaXNp
Z24uY29tL3ZzbG9nby5naWYwNAYIKwYBBQUHAQEEKDAmMCQGCCsGAQUFBzABhhho
dHRwOi8vb2NzcC52ZXJpc2lnbi5jb20wDQYJKoZIhvcNAQEFBQADgYEADyWuSO0b
M4VMDLXC1/5N1oMoTEFlYAALd0hxgv5/21oOIMzS6ke8ZEJhRDR0MIGBJopK90Rd
fjSAqLiD4gnXbSPdie0oCL1jWhFXCMSe2uJoKK/dUDzsgiHYAMJVRFBwQa2DF3m6
CPMr3u00HUSe0gST9MsFFy0JLS1j7/YmC3s=
-----END CERTIFICATE-----

Certificate:
    Data:
        Version: 3 (0x2)
        Serial Number:
            4e:fd:05:5c:6f:5d:45:09:9f:b5:4b:42:82:dd:25:00
    Signature Algorithm: sha1WithRSAEncryption
        Issuer: C=US, O=VeriSign, Inc., OU=VeriSign Trust Network, OU=Terms of use at https://www.verisign.com/rpa (c)10, CN=VeriSign Class 3 Code Signing 2010 CA
        Validity
            Not Before: Aug  6 00:00:00 2013 GMT
            Not After : Oct  5 23:59:59 2015 GMT
        Subject: C=CN, ST=beijing, L=beijing, O=sina.com Technology(China)Co.,ltd, OU=Digital ID Class 3 - Microsoft Software Validation v2, OU=sina.com Technology(China)Co.,ltd, CN=sina.com Technology(China)Co.,ltd
        Subject Public Key Info:
            Public Key Algorithm: rsaEncryption
                Public-Key: (2048 bit)
                Modulus:
                    00:b7:60:ef:9c:87:cd:f4:43:d2:22:7f:9f:4a:94:
                    af:e5:7e:4e:93:a4:76:cf:80:42:31:6d:5c:44:78:
                    eb:c0:6f:3e:3b:77:7d:8e:dc:a2:0a:31:09:48:d4:
                    9a:4e:c8:1d:3c:9f:f4:31:8d:2d:ba:97:ba:00:b7:
                    a4:49:df:d6:0f:3f:ab:18:b7:e4:0a:35:ed:7a:d8:
                    4f:35:b2:bc:81:89:92:49:7a:6f:92:45:d4:5f:43:
                    e2:77:9a:36:86:41:d1:66:0f:28:83:75:d5:ef:8e:
                    b8:68:b9:45:0e:b6:41:77:a6:09:3d:c6:72:9b:43:
                    56:d2:52:d6:07:91:17:59:a0:8f:b4:e8:f5:cc:78:
                    ea:a7:ac:99:cd:cc:0d:72:30:e3:bf:0c:f9:4d:90:
                    c3:58:74:85:bb:41:73:9b:29:59:72:9c:3f:3c:8f:
                    2e:90:03:64:82:24:4e:91:4e:58:5e:e7:97:84:dc:
                    df:c8:ab:69:c9:16:f9:d9:fa:e5:1e:ab:38:45:ae:
                    9b:e0:7f:fc:37:0e:0d:04:6c:72:15:95:bf:fe:bb:
                    be:cb:24:12:10:13:6f:13:f1:fc:6a:ff:3a:55:d5:
                    86:7e:b7:2b:74:2a:8a:6b:c7:31:eb:a5:6c:e0:66:
                    4c:23:26:bb:3f:79:6d:df:f8:66:5e:8b:e5:10:4a:
                    f6:db
                Exponent: 65537 (0x10001)
        X509v3 extensions:
            X509v3 Basic Constraints: 
                CA:FALSE
            X509v3 Key Usage: critical
                Digital Signature
            X509v3 CRL Distribution Points: 

                Full Name:
                  URI:http://csc3-2010-crl.verisign.com/CSC3-2010.crl

            X509v3 Certificate Policies: 
                Policy: 2.16.840.1.113733.1.7.23.3
                  CPS: https://www.verisign.com/rpa

            X509v3 Extended Key Usage: 
                Code Signing
            Authority Information Access: 
                OCSP - URI:http://ocsp.verisign.com
                CA Issuers - URI:http://csc3-2010-aia.verisign.com/CSC3-2010.cer

            X509v3 Authority Key Identifier: 
                keyid:CF:99:A9:EA:7B:26:F4:4B:C9:8E:8F:D7:F0:05:26:EF:E3:D2:A7:9D

            Netscape Cert Type: 
                Object Signing
            1.3.6.1.4.1.311.2.1.27: 
                0.......
    Signature Algorithm: sha1WithRSAEncryption
         57:1a:c2:10:12:0d:2e:8a:7d:21:66:35:40:45:a2:b0:af:16:
         52:1d:fc:c3:cb:de:d2:39:65:ab:b4:c9:6b:2b:36:95:8c:91:
         e1:59:c4:fa:19:35:c2:21:0d:b7:25:18:d4:06:63:15:ea:f2:
         b6:6a:33:e2:c7:11:a9:3f:ce:d5:dd:42:b1:95:e6:80:51:61:
         e4:3c:b1:cc:47:17:94:f3:1d:98:51:9b:1e:38:76:a7:81:a8:
         7a:c6:06:7d:9a:76:38:2b:5e:dc:bd:ca:71:3a:43:3a:f3:dd:
         94:b3:80:91:05:05:24:de:f5:0e:e4:8c:95:a7:b3:c9:83:e7:
         e9:ac:cd:27:e1:4f:98:8f:74:80:ad:01:00:0b:23:b0:55:0c:
         31:f6:5b:a8:02:fd:17:aa:04:9e:f7:76:43:ff:5e:68:ef:85:
         af:b1:dc:bb:7a:39:af:9a:c5:fa:0d:0a:8b:ce:7b:42:70:01:
         a8:26:63:6c:bc:e7:a0:bb:ad:bf:5a:32:2f:46:b5:e2:3f:61:
         9a:b3:a5:35:45:c3:04:24:56:65:a5:87:e7:82:13:22:48:3a:
         b7:34:71:c3:8b:05:d3:9e:32:da:ae:1b:e9:37:ae:73:11:d7:
         b2:ac:2a:67:8e:b3:2d:20:ee:11:6b:97:52:cb:9e:ce:0d:07:
         c7:76:0a:96
-----BEGIN CERTIFICATE-----
MIIFsjCCBJqgAwIBAgIQTv0FXG9dRQmftUtCgt0lADANBgkqhkiG9w0BAQUFADCB
tDELMAkGA1UEBhMCVVMxFzAVBgNVBAoTDlZlcmlTaWduLCBJbmMuMR8wHQYDVQQL
ExZWZXJpU2lnbiBUcnVzdCBOZXR3b3JrMTswOQYDVQQLEzJUZXJtcyBvZiB1c2Ug
YXQgaHR0cHM6Ly93d3cudmVyaXNpZ24uY29tL3JwYSAoYykxMDEuMCwGA1UEAxMl
VmVyaVNpZ24gQ2xhc3MgMyBDb2RlIFNpZ25pbmcgMjAxMCBDQTAeFw0xMzA4MDYw
MDAwMDBaFw0xNTEwMDUyMzU5NTlaMIH1MQswCQYDVQQGEwJDTjEQMA4GA1UECBMH
YmVpamluZzEQMA4GA1UEBxMHYmVpamluZzEqMCgGA1UEChQhc2luYS5jb20gVGVj
aG5vbG9neShDaGluYSlDby4sbHRkMT4wPAYDVQQLEzVEaWdpdGFsIElEIENsYXNz
IDMgLSBNaWNyb3NvZnQgU29mdHdhcmUgVmFsaWRhdGlvbiB2MjEqMCgGA1UECxQh
c2luYS5jb20gVGVjaG5vbG9neShDaGluYSlDby4sbHRkMSowKAYDVQQDFCFzaW5h
LmNvbSBUZWNobm9sb2d5KENoaW5hKUNvLixsdGQwggEiMA0GCSqGSIb3DQEBAQUA
A4IBDwAwggEKAoIBAQC3YO+ch830Q9Iif59KlK/lfk6TpHbPgEIxbVxEeOvAbz47
d32O3KIKMQlI1JpOyB08n/QxjS26l7oAt6RJ39YPP6sYt+QKNe162E81sryBiZJJ
em+SRdRfQ+J3mjaGQdFmDyiDddXvjrhouUUOtkF3pgk9xnKbQ1bSUtYHkRdZoI+0
6PXMeOqnrJnNzA1yMOO/DPlNkMNYdIW7QXObKVlynD88jy6QA2SCJE6RTlhe55eE
3N/Iq2nJFvnZ+uUeqzhFrpvgf/w3Dg0EbHIVlb/+u77LJBIQE28T8fxq/zpV1YZ+
tyt0KoprxzHrpWzgZkwjJrs/eW3f+GZei+UQSvbbAgMBAAGjggF7MIIBdzAJBgNV
HRMEAjAAMA4GA1UdDwEB/wQEAwIHgDBABgNVHR8EOTA3MDWgM6Axhi9odHRwOi8v
Y3NjMy0yMDEwLWNybC52ZXJpc2lnbi5jb20vQ1NDMy0yMDEwLmNybDBEBgNVHSAE
PTA7MDkGC2CGSAGG+EUBBxcDMCowKAYIKwYBBQUHAgEWHGh0dHBzOi8vd3d3LnZl
cmlzaWduLmNvbS9ycGEwEwYDVR0lBAwwCgYIKwYBBQUHAwMwcQYIKwYBBQUHAQEE
ZTBjMCQGCCsGAQUFBzABhhhodHRwOi8vb2NzcC52ZXJpc2lnbi5jb20wOwYIKwYB
BQUHMAKGL2h0dHA6Ly9jc2MzLTIwMTAtYWlhLnZlcmlzaWduLmNvbS9DU0MzLTIw
MTAuY2VyMB8GA1UdIwQYMBaAFM+Zqep7JvRLyY6P1/AFJu/j0qedMBEGCWCGSAGG
+EIBAQQEAwIEEDAWBgorBgEEAYI3AgEbBAgwBgEBAAEB/zANBgkqhkiG9w0BAQUF
AAOCAQEAVxrCEBINLop9IWY1QEWisK8WUh38w8ve0jllq7TJays2lYyR4VnE+hk1
wiENtyUY1AZjFerytmoz4scRqT/O1d1CsZXmgFFh5DyxzEcXlPMdmFGbHjh2p4Go
esYGfZp2OCte3L3KcTpDOvPdlLOAkQUFJN71DuSMlaezyYPn6azNJ+FPmI90gK0B
AAsjsFUMMfZbqAL9F6oEnvd2Q/9eaO+Fr7Hcu3o5r5rF+g0Ki857QnABqCZjbLzn
oLutv1oyL0a14j9hmrOlNUXDBCRWZaWH54ITIkg6tzRxw4sF054y2q4b6TeucxHX
sqwqZ46zLSDuEWuXUsuezg0Hx3YKlg==
-----END CERTIFICATE-----

Certificate:
    Data:
        Version: 3 (0x2)
        Serial Number:
            64:1b:e8:20:ce:02:08:13:f3:2d:4d:2d:95:d6:7e:67
    Signature Algorithm: sha1WithRSAEncryption
        Issuer: C=US, O=VeriSign, Inc., OU=VeriSign Trust Network, OU=(c) 2006 VeriSign, Inc. - For authorized use only, CN=VeriSign Class 3 Public Primary Certification Authority - G5
        Validity
            Not Before: Feb  8 00:00:00 2010 GMT
            Not After : Feb  7 23:59:59 2020 GMT
        Subject: C=US, O=VeriSign, Inc., OU=VeriSign Trust Network, OU=Terms of use at https://www.verisign.com/rpa (c)10, CN=VeriSign Class 3 International Server CA - G3
        Subject Public Key Info:
            Public Key Algorithm: rsaEncryption
                Public-Key: (2048 bit)
                Modulus:
                    00:99:d6:9c:62:f0:15:f4:81:9a:41:08:59:8f:13:
                    9d:17:c9:9f:51:dc:da:b1:52:ef:ff:e3:41:dd:e0:
                    df:c4:28:c6:e3:ad:79:1f:27:10:98:b8:bb:20:97:
                    c1:28:44:41:0f:ea:a9:a8:52:cf:4d:4e:1b:8b:bb:
                    b5:c4:76:d9:cc:56:06:ee:b3:55:20:2a:de:15:8d:
                    71:cb:54:c8:6f:17:cd:89:00:e4:dc:ff:e1:c0:1f:
                    68:71:e9:c7:29:2e:7e:bc:3b:fc:e5:bb:ab:26:54:
                    8b:66:90:cd:f6:92:b9:31:24:80:bc:9e:6c:d5:fc:
                    7e:d2:e1:4b:8c:dc:42:fa:44:4b:5f:f8:18:b5:2e:
                    30:f4:3d:12:98:d3:62:05:73:54:a6:9c:a2:1d:be:
                    52:83:3a:07:46:c4:3b:02:56:21:bf:f2:51:4f:d0:
                    a6:99:39:e9:ae:a5:3f:89:9b:9c:7d:fe:4d:60:07:
                    25:20:f7:bb:d7:69:83:2b:82:93:43:37:d9:83:41:
                    1b:6b:0b:ab:4a:66:84:4f:4a:8e:de:7e:34:99:8e:
                    68:d6:ca:39:06:9b:4c:b3:9a:48:4d:13:46:b4:58:
                    21:04:c4:fb:a0:4d:ac:2e:4b:62:12:e3:fb:4d:f6:
                    c9:51:00:01:1f:fc:1e:6a:81:2a:38:e0:b9:4f:d6:
                    2d:45
                Exponent: 65537 (0x10001)
        X509v3 extensions:
            X509v3 Basic Constraints: critical
                CA:TRUE, pathlen:0
            X509v3 Certificate Policies: 
                Policy: 2.16.840.1.113733.1.7.23.3
                  CPS: https://www.verisign.com/cps
                  User Notice:
                    Explicit Text: https://www.verisign.com/rpa

            X509v3 Key Usage: critical
                Certificate Sign, CRL Sign
            1.3.6.1.5.5.7.1.12: 
                0_.].[0Y0W0U..image/gif0!0.0...+..............k...j.H.,{..0%.#http://logo.verisign.com/vslogo.gif
            X509v3 Extended Key Usage: 
                TLS Web Server Authentication, TLS Web Client Authentication, Netscape Server Gated Crypto, 2.16.840.1.113733.1.8.1
            Authority Information Access: 
                OCSP - URI:http://ocsp.verisign.com

            X509v3 CRL Distribution Points: 

                Full Name:
                  URI:http://crl.verisign.com/pca3-g5.crl

            X509v3 Subject Alternative Name: 
                DirName:/CN=VeriSignMPKI-2-7
            X509v3 Subject Key Identifier: 
                D7:9B:7C:D8:22:A0:15:F7:DD:AD:5F:CE:29:9B:58:C3:BC:46:00:B5
            X509v3 Authority Key Identifier: 
                keyid:7F:D3:65:A7:C2:DD:EC:BB:F0:30:09:F3:43:39:FA:02:AF:33:31:33

    Signature Algorithm: sha1WithRSAEncryption
         71:b5:7d:73:52:4a:dd:d7:4d:34:2b:2e:af:94:46:a5:49:50:
         02:4f:f8:2f:17:70:f2:13:dc:1f:21:86:aa:c2:4f:7c:37:3c:
         d4:46:78:ae:5d:78:6f:d1:ba:5a:bc:10:ab:58:36:c5:8c:62:
         15:45:60:17:21:e2:d5:42:a8:77:a1:55:d8:43:04:51:f6:6e:
         ba:48:e6:5d:4c:b7:44:d3:3e:a4:d5:d6:33:9a:9f:0d:e6:d7:
         4e:96:44:95:5a:6c:d6:a3:16:53:0e:98:43:ce:a4:b8:c3:66:
         7a:05:5c:62:10:e8:1b:12:db:7d:2e:76:50:ff:df:d7:6b:1b:
         cc:8a:cc:71:fa:b3:40:56:7c:33:7a:77:94:5b:f5:0b:53:fb:
         0e:5f:bc:68:fb:af:2a:ee:30:37:79:16:93:25:7f:4d:10:ff:
         57:fb:bf:6e:3b:33:21:de:79:dc:86:17:59:2d:43:64:b7:a6:
         66:87:ea:bc:96:46:19:1a:86:8b:6f:d7:b7:49:00:5b:db:a3:
         bf:29:9a:ee:f7:d3:33:ae:a3:f4:9e:4c:ca:5e:69:d4:1b:ad:
         b7:90:77:6a:d8:59:6f:79:ab:01:fa:55:f0:8a:21:66:e5:65:
         6e:fd:7c:d3:df:1e:eb:7e:3f:06:90:fb:19:0b:d3:06:02:1b:
         78:43:99:a8
-----BEGIN CERTIFICATE-----
MIIGKTCCBRGgAwIBAgIQZBvoIM4CCBPzLU0tldZ+ZzANBgkqhkiG9w0BAQUFADCB
yjELMAkGA1UEBhMCVVMxFzAVBgNVBAoTDlZlcmlTaWduLCBJbmMuMR8wHQYDVQQL
ExZWZXJpU2lnbiBUcnVzdCBOZXR3b3JrMTowOAYDVQQLEzEoYykgMjAwNiBWZXJp
U2lnbiwgSW5jLiAtIEZvciBhdXRob3JpemVkIHVzZSBvbmx5MUUwQwYDVQQDEzxW
ZXJpU2lnbiBDbGFzcyAzIFB1YmxpYyBQcmltYXJ5IENlcnRpZmljYXRpb24gQXV0
aG9yaXR5IC0gRzUwHhcNMTAwMjA4MDAwMDAwWhcNMjAwMjA3MjM1OTU5WjCBvDEL
MAkGA1UEBhMCVVMxFzAVBgNVBAoTDlZlcmlTaWduLCBJbmMuMR8wHQYDVQQLExZW
ZXJpU2lnbiBUcnVzdCBOZXR3b3JrMTswOQYDVQQLEzJUZXJtcyBvZiB1c2UgYXQg
aHR0cHM6Ly93d3cudmVyaXNpZ24uY29tL3JwYSAoYykxMDE2MDQGA1UEAxMtVmVy
aVNpZ24gQ2xhc3MgMyBJbnRlcm5hdGlvbmFsIFNlcnZlciBDQSAtIEczMIIBIjAN
BgkqhkiG9w0BAQEFAAOCAQ8AMIIBCgKCAQEAmdacYvAV9IGaQQhZjxOdF8mfUdza
sVLv/+NB3eDfxCjG4615HycQmLi7IJfBKERBD+qpqFLPTU4bi7u1xHbZzFYG7rNV
ICreFY1xy1TIbxfNiQDk3P/hwB9ocenHKS5+vDv85burJlSLZpDN9pK5MSSAvJ5s
1fx+0uFLjNxC+kRLX/gYtS4w9D0SmNNiBXNUppyiHb5SgzoHRsQ7AlYhv/JRT9Cm
mTnprqU/iZucff5NYAclIPe712mDK4KTQzfZg0EbawurSmaET0qO3n40mY5o1so5
BptMs5pITRNGtFghBMT7oE2sLktiEuP7TfbJUQABH/weaoEqOOC5T9YtRQIDAQAB
o4ICFTCCAhEwEgYDVR0TAQH/BAgwBgEB/wIBADBwBgNVHSAEaTBnMGUGC2CGSAGG
+EUBBxcDMFYwKAYIKwYBBQUHAgEWHGh0dHBzOi8vd3d3LnZlcmlzaWduLmNvbS9j
cHMwKgYIKwYBBQUHAgIwHhocaHR0cHM6Ly93d3cudmVyaXNpZ24uY29tL3JwYTAO
BgNVHQ8BAf8EBAMCAQYwbQYIKwYBBQUHAQwEYTBfoV2gWzBZMFcwVRYJaW1hZ2Uv
Z2lmMCEwHzAHBgUrDgMCGgQUj+XTGoasjY5rw8+AatRIGCx7GS4wJRYjaHR0cDov
L2xvZ28udmVyaXNpZ24uY29tL3ZzbG9nby5naWYwNAYDVR0lBC0wKwYIKwYBBQUH
AwEGCCsGAQUFBwMCBglghkgBhvhCBAEGCmCGSAGG+EUBCAEwNAYIKwYBBQUHAQEE
KDAmMCQGCCsGAQUFBzABhhhodHRwOi8vb2NzcC52ZXJpc2lnbi5jb20wNAYDVR0f
BC0wKzApoCegJYYjaHR0cDovL2NybC52ZXJpc2lnbi5jb20vcGNhMy1nNS5jcmww
KAYDVR0RBCEwH6QdMBsxGTAXBgNVBAMTEFZlcmlTaWduTVBLSS0yLTcwHQYDVR0O
BBYEFNebfNgioBX33a1fzimbWMO8RgC1MB8GA1UdIwQYMBaAFH/TZafC3ey78DAJ
80M5+gKvMzEzMA0GCSqGSIb3DQEBBQUAA4IBAQBxtX1zUkrd1000Ky6vlEalSVAC
T/gvF3DyE9wfIYaqwk98NzzURniuXXhv0bpavBCrWDbFjGIVRWAXIeLVQqh3oVXY
QwRR9m66SOZdTLdE0z6k1dYzmp8N5tdOlkSVWmzWoxZTDphDzqS4w2Z6BVxiEOgb
Ett9LnZQ/9/XaxvMisxx+rNAVnwzeneUW/ULU/sOX7xo+68q7jA3eRaTJX9NEP9X
+79uOzMh3nnchhdZLUNkt6Zmh+q8lkYZGoaLb9e3SQBb26O/KZru99MzrqP0nkzK
XmnUG623kHdq2FlveasB+lXwiiFm5WVu/XzT3x7rfj8GkPsZC9MGAht4Q5mo
-----END CERTIFICATE-----

