Certificate:
    Data:
        Version: 3 (0x2)
        Serial Number:
            44:be:0c:8b:50:00:24:b4:11:d3:36:2d:e0:b3:5f:1b
    Signature Algorithm: sha1WithRSAEncryption
        Issuer: C=US, ST=UT, L=Salt Lake City, O=The USERTRUST Network, OU=http://www.usertrust.com, CN=UTN-USERFirst-Object
        Validity
            Not Before: Jul  9 18:31:20 1999 GMT
            Not After : Jul  9 18:40:36 2019 GMT
        Subject: C=US, ST=UT, L=Salt Lake City, O=The USERTRUST Network, OU=http://www.usertrust.com, CN=UTN-USERFirst-Object
        Subject Public Key Info:
            Public Key Algorithm: rsaEncryption
                Public-Key: (2048 bit)
                Modulus:
                    00:ce:aa:81:3f:a3:a3:61:78:aa:31:00:55:95:11:
                    9e:27:0f:1f:1c:df:3a:9b:82:68:30:c0:4a:61:1d:
                    f1:2f:0e:fa:be:79:f7:a5:23:ef:55:51:96:84:cd:
                    db:e3:b9:6e:3e:31:d8:0a:20:67:c7:f4:d9:bf:94:
                    eb:47:04:3e:02:ce:2a:a2:5d:87:04:09:f6:30:9d:
                    18:8a:97:b2:aa:1c:fc:41:d2:a1:36:cb:fb:3d:91:
                    ba:e7:d9:70:35:fa:e4:e7:90:c3:9b:a3:9b:d3:3c:
                    f5:12:99:77:b1:b7:09:e0:68:e6:1c:b8:f3:94:63:
                    88:6a:6a:fe:0b:76:c9:be:f4:22:e4:67:b9:ab:1a:
                    5e:77:c1:85:07:dd:0d:6c:bf:ee:06:c7:77:6a:41:
                    9e:a7:0f:d7:fb:ee:94:17:b7:fc:85:be:a4:ab:c4:
                    1c:31:dd:d7:b6:d1:e4:f0:ef:df:16:8f:b2:52:93:
                    d7:a1:d4:89:a1:07:2e:bf:e1:01:12:42:1e:1a:e1:
                    d8:95:34:db:64:79:28:ff:ba:2e:11:c2:e5:e8:5b:
                    92:48:fb:47:0b:c2:6c:da:ad:32:83:41:f3:a5:e5:
                    41:70:fd:65:90:6d:fa:fa:51:c4:f9:bd:96:2b:19:
                    04:2c:d3:6d:a7:dc:f0:7f:6f:83:65:e2:6a:ab:87:
                    86:75
                Exponent: 65537 (0x10001)
        X509v3 extensions:
            X509v3 Key Usage: 
                Digital Signature, Non Repudiation, Certificate Sign, CRL Sign
            X509v3 Basic Constraints: critical
                CA:TRUE
            X509v3 Subject Key Identifier: 
                DA:ED:64:74:14:9C:14:3C:AB:DD:99:A9:BD:5B:28:4D:8B:3C:C9:D8
            X509v3 CRL Distribution Points: 

                Full Name:
                  URI:http://crl.usertrust.com/UTN-USERFirst-Object.crl

            X509v3 Extended Key Usage: 
                Code Signing, Time Stamping, Microsoft Encrypted File System
    Signature Algorithm: sha1WithRSAEncryption
         08:1f:52:b1:37:44:78:db:fd:ce:b9:da:95:96:98:aa:55:64:
         80:b5:5a:40:dd:21:a5:c5:c1:f3:5f:2c:4c:c8:47:5a:69:ea:
         e8:f0:35:35:f4:d0:25:f3:c8:a6:a4:87:4a:bd:1b:b1:73:08:
         bd:d4:c3:ca:b6:35:bb:59:86:77:31:cd:a7:80:14:ae:13:ef:
         fc:b1:48:f9:6b:25:25:2d:51:b6:2c:6d:45:c1:98:c8:8a:56:
         5d:3e:ee:43:4e:3e:6b:27:8e:d0:3a:4b:85:0b:5f:d3:ed:6a:
         a7:75:cb:d1:5a:87:2f:39:75:13:5a:72:b0:02:81:9f:be:f0:
         0f:84:54:20:62:6c:69:d4:e1:4d:c6:0d:99:43:01:0d:12:96:
         8c:78:9d:bf:50:a2:b1:44:aa:6a:cf:17:7a:cf:6f:0f:d4:f8:
         24:55:5f:f0:34:16:49:66:3e:50:46:c9:63:71:38:31:62:b8:
         62:b9:f3:53:ad:6c:b5:2b:a2:12:aa:19:4f:09:da:5e:e7:93:
         c6:8e:14:08:fe:f0:30:80:18:a0:86:85:4d:c8:7d:d7:8b:03:
         fe:6e:d5:f7:9d:16:ac:92:2c:a0:23:e5:9c:91:52:1f:94:df:
         17:94:73:c3:b3:c1:c1:71:05:20:00:78:bd:13:52:1d:a8:3e:
         cd:00:1f:c8
-----BEGIN CERTIFICATE-----
MIIEZjCCA06gAwIBAgIQRL4Mi1AAJLQR0zYt4LNfGzANBgkqhkiG9w0BAQUFADCB
lTELMAkGA1UEBhMCVVMxCzAJBgNVBAgTAlVUMRcwFQYDVQQHEw5TYWx0IExha2Ug
Q2l0eTEeMBwGA1UEChMVVGhlIFVTRVJUUlVTVCBOZXR3b3JrMSEwHwYDVQQLExho
dHRwOi8vd3d3LnVzZXJ0cnVzdC5jb20xHTAbBgNVBAMTFFVUTi1VU0VSRmlyc3Qt
T2JqZWN0MB4XDTk5MDcwOTE4MzEyMFoXDTE5MDcwOTE4NDAzNlowgZUxCzAJBgNV
BAYTAlVTMQswCQYDVQQIEwJVVDEXMBUGA1UEBxMOU2FsdCBMYWtlIENpdHkxHjAc
BgNVBAoTFVRoZSBVU0VSVFJVU1QgTmV0d29yazEhMB8GA1UECxMYaHR0cDovL3d3
dy51c2VydHJ1c3QuY29tMR0wGwYDVQQDExRVVE4tVVNFUkZpcnN0LU9iamVjdDCC
ASIwDQYJKoZIhvcNAQEBBQADggEPADCCAQoCggEBAM6qgT+jo2F4qjEAVZURnicP
HxzfOpuCaDDASmEd8S8O+r5596Uj71VRloTN2+O5bj4x2AogZ8f02b+U60cEPgLO
KqJdhwQJ9jCdGIqXsqoc/EHSoTbL+z2RuufZcDX65OeQw5ujm9M89RKZd7G3CeBo
5hy485RjiGpq/gt2yb70IuRnuasaXnfBhQfdDWy/7gbHd2pBnqcP1/vulBe3/IW+
pKvEHDHd17bR5PDv3xaPslKT16HUiaEHLr/hARJCHhrh2JU022R5KP+6LhHC5ehb
kkj7RwvCbNqtMoNB86XlQXD9ZZBt+vpRxPm9lisZBCzTbafc8H9vg2XiaquHhnUC
AwEAAaOBrzCBrDALBgNVHQ8EBAMCAcYwDwYDVR0TAQH/BAUwAwEB/zAdBgNVHQ4E
FgQU2u1kdBScFDyr3ZmpvVsoTYs8ydgwQgYDVR0fBDswOTA3oDWgM4YxaHR0cDov
L2NybC51c2VydHJ1c3QuY29tL1VUTi1VU0VSRmlyc3QtT2JqZWN0LmNybDApBgNV
HSUEIjAgBggrBgEFBQcDAwYIKwYBBQUHAwgGCisGAQQBgjcKAwQwDQYJKoZIhvcN
AQEFBQADggEBAAgfUrE3RHjb/c652pWWmKpVZIC1WkDdIaXFwfNfLEzIR1pp6ujw
NTX00CXzyKakh0q9G7FzCL3Uw8q2NbtZhncxzaeAFK4T7/yxSPlrJSUtUbYsbUXB
mMiKVl0+7kNOPmsnjtA6S4ULX9Ptaqd1y9Fahy85dRNacrACgZ++8A+EVCBibGnU
4U3GDZlDAQ0Slox4nb9QorFEqmrPF3rPbw/U+CRVX/A0FklmPlBGyWNxODFiuGK5
81OtbLUrohKqGU8J2l7nk8aOFAj+8DCAGKCGhU3IfdeLA/5u1fedFqySLKAj5ZyR
Uh+U3xeUc8OzwcFxBSAAeL0TUh2oPs0AH8g=
-----END CERTIFICATE-----

Certificate:
    Data:
        Version: 3 (0x2)
        Serial Number:
            40:ef:58:6f:ba:65:9c:86:4b:6e:a6:eb:bd:11:4a:16
    Signature Algorithm: sha1WithRSAEncryption
        Issuer: C=CN, O=WoSign CA Limited, CN=WoSign Class 3 Code Signing CA
        Validity
            Not Before: Oct 28 02:06:18 2014 GMT
            Not After : Dec 28 02:06:18 2017 GMT
        Subject: C=CN, ST=\xE5\x8C\x97\xE4\xBA\xAC\xE5\xB8\x82, L=\xE5\x8C\x97\xE4\xBA\xAC\xE5\xB8\x82, O=\xE5\x90\x88\xE4\xB8\x80\xE7\xBD\x91\xE7\xBB\x9C\xE6\x8A\x80\xE6\x9C\xAF\xEF\xBC\x88\xE5\x8C\x97\xE4\xBA\xAC\xEF\xBC\x89\xE6\x9C\x89\xE9\x99\x90\xE5\x85\xAC\xE5\x8F\xB8, CN=\xE5\x90\x88\xE4\xB8\x80\xE7\xBD\x91\xE7\xBB\x9C\xE6\x8A\x80\xE6\x9C\xAF\xEF\xBC\x88\xE5\x8C\x97\xE4\xBA\xAC\xEF\xBC\x89\xE6\x9C\x89\xE9\x99\x90\xE5\x85\xAC\xE5\x8F\xB8
        Subject Public Key Info:
            Public Key Algorithm: rsaEncryption
                Public-Key: (2048 bit)
                Modulus:
                    00:b8:0f:75:bc:89:d7:44:d4:14:2d:52:7a:8c:78:
                    b8:7a:27:99:3e:98:f6:2d:59:cc:c7:92:f3:f6:01:
                    c2:11:36:9e:b3:22:42:30:bd:56:9b:d9:3f:f4:c6:
                    e3:6a:db:79:f4:47:50:a7:b0:e9:14:3c:bc:cc:a4:
                    7b:ab:f4:34:1f:c6:c7:ab:05:6f:ab:1c:4c:f0:be:
                    01:8c:ed:c8:ae:a1:8f:87:70:08:d8:09:0d:1f:87:
                    bb:ff:22:82:95:c8:03:a5:96:83:2e:fd:9e:e8:9c:
                    68:c9:68:47:2f:f9:62:80:be:6e:80:72:af:c9:98:
                    71:c4:f2:2b:fc:81:08:e3:24:db:3a:18:cd:92:27:
                    93:66:14:49:2f:e4:b6:f7:95:56:bb:82:78:9c:ca:
                    8a:ea:d7:1f:82:42:3b:0d:d7:fb:9b:85:c2:e0:79:
                    98:4a:bb:bb:9a:ed:23:7d:65:2a:79:85:71:c7:cb:
                    6a:3a:11:31:0d:8a:e1:cb:65:00:f7:79:9c:27:f6:
                    44:12:dd:55:ea:c3:75:65:32:57:5b:34:c1:11:a2:
                    84:89:1b:6f:0b:2f:ea:13:2b:85:2f:9d:9f:4b:e9:
                    21:a9:d6:34:8a:12:1a:d0:4c:83:1a:7e:72:bb:ed:
                    94:15:69:17:05:2f:5e:17:1e:81:fd:58:ae:d3:a4:
                    c0:4b
                Exponent: 3 (0x3)
        X509v3 extensions:
            X509v3 Key Usage: critical
                Digital Signature
            X509v3 Extended Key Usage: 
                Code Signing, Microsoft Commercial Code Signing
            X509v3 Basic Constraints: 
                CA:FALSE
            X509v3 Subject Key Identifier: 
                39:B9:C2:CC:3A:40:B1:6B:69:DB:F3:A9:6F:9F:F4:15:22:F7:8E:19
            X509v3 Authority Key Identifier: 
                keyid:F5:02:AA:4B:D3:E0:1A:8E:77:50:D6:1A:BB:EB:DF:B9:83:70:B0:4E

            Authority Information Access: 
                OCSP - URI:http://ocsp1.wosign.com/class3/code/ca1
                CA Issuers - URI:http://aia1.wosign.com/class3.code.ca1.cer

            X509v3 CRL Distribution Points: 

                Full Name:
                  URI:http://crls1.wosign.com/ca1-code-3.crl

            X509v3 Certificate Policies: 
                Policy: 2.23.140.1.2.2
                Policy: 1.3.6.1.4.1.36305.1.3.3.1.2
                  CPS: http://www.wosign.com/policy/

    Signature Algorithm: sha1WithRSAEncryption
         03:51:21:09:1b:50:1b:0c:df:72:7b:06:50:0f:77:4a:fd:9b:
         74:bf:d9:9b:9b:25:f3:10:44:01:7b:e6:d8:a7:ca:36:e3:f2:
         a0:dd:7a:32:97:3c:5c:b3:46:ff:6b:63:a2:5e:2a:79:40:64:
         f3:30:bb:fc:84:c0:b0:cc:45:83:eb:f0:75:a2:b0:fc:24:04:
         81:c4:77:7c:a9:c5:d5:6d:fa:b0:af:84:9d:5f:cc:89:a6:55:
         29:51:d8:2f:57:5a:6f:8d:54:1d:36:61:81:0c:d1:87:91:60:
         85:29:ba:e1:7c:12:e1:c7:c1:99:ad:75:cd:fb:7b:c5:b4:51:
         b6:ed:11:1a:e6:94:5c:77:7d:be:30:86:33:91:31:c8:fb:58:
         2a:cf:e5:40:2e:d0:4b:f7:70:a8:74:a8:be:7a:ed:47:4c:23:
         66:f8:04:e8:25:66:bc:d6:58:6c:9d:26:f7:d9:c6:31:60:c1:
         b2:96:a0:40:c7:f9:22:12:93:0c:df:53:9e:53:1d:dd:fa:b6:
         cb:75:11:ba:7f:95:7c:e6:89:c4:f5:38:c6:b2:4f:9c:98:14:
         22:a8:a7:f3:28:b6:91:13:93:dd:c9:24:fd:c2:6a:32:dc:45:
         d9:63:21:d1:f6:fa:b0:e2:97:d8:76:91:36:bc:0f:45:a4:7b:
         2e:c2:19:dd
-----BEGIN CERTIFICATE-----
MIIFBTCCA+2gAwIBAgIQQO9Yb7plnIZLbqbrvRFKFjANBgkqhkiG9w0BAQUFADBS
MQswCQYDVQQGEwJDTjEaMBgGA1UEChMRV29TaWduIENBIExpbWl0ZWQxJzAlBgNV
BAMTHldvU2lnbiBDbGFzcyAzIENvZGUgU2lnbmluZyBDQTAeFw0xNDEwMjgwMjA2
MThaFw0xNzEyMjgwMjA2MThaMIGfMQswCQYDVQQGEwJDTjESMBAGA1UECAwJ5YyX
5Lqs5biCMRIwEAYDVQQHDAnljJfkuqzluIIxMzAxBgNVBAoMKuWQiOS4gOe9kee7
nOaKgOacr++8iOWMl+S6rO+8ieaciemZkOWFrOWPuDEzMDEGA1UEAwwq5ZCI5LiA
572R57uc5oqA5pyv77yI5YyX5Lqs77yJ5pyJ6ZmQ5YWs5Y+4MIIBIDANBgkqhkiG
9w0BAQEFAAOCAQ0AMIIBCAKCAQEAuA91vInXRNQULVJ6jHi4eieZPpj2LVnMx5Lz
9gHCETaesyJCML1Wm9k/9Mbjatt59EdQp7DpFDy8zKR7q/Q0H8bHqwVvqxxM8L4B
jO3IrqGPh3AI2AkNH4e7/yKClcgDpZaDLv2e6JxoyWhHL/ligL5ugHKvyZhxxPIr
/IEI4yTbOhjNkieTZhRJL+S295VWu4J4nMqK6tcfgkI7Ddf7m4XC4HmYSru7mu0j
fWUqeYVxx8tqOhExDYrhy2UA93mcJ/ZEEt1V6sN1ZTJXWzTBEaKEiRtvCy/qEyuF
L52fS+khqdY0ihIa0EyDGn5yu+2UFWkXBS9eFx6B/Viu06TASwIBA6OCAYkwggGF
MA4GA1UdDwEB/wQEAwIHgDAfBgNVHSUEGDAWBggrBgEFBQcDAwYKKwYBBAGCNwIB
FjAJBgNVHRMEAjAAMB0GA1UdDgQWBBQ5ucLMOkCxa2nb86lvn/QVIveOGTAfBgNV
HSMEGDAWgBT1AqpL0+AajndQ1hq769+5g3CwTjB7BggrBgEFBQcBAQRvMG0wMwYI
KwYBBQUHMAGGJ2h0dHA6Ly9vY3NwMS53b3NpZ24uY29tL2NsYXNzMy9jb2RlL2Nh
MTA2BggrBgEFBQcwAoYqaHR0cDovL2FpYTEud29zaWduLmNvbS9jbGFzczMuY29k
ZS5jYTEuY2VyMDcGA1UdHwQwMC4wLKAqoCiGJmh0dHA6Ly9jcmxzMS53b3NpZ24u
Y29tL2NhMS1jb2RlLTMuY3JsMFEGA1UdIARKMEgwCAYGZ4EMAQICMDwGDSsGAQQB
gptRAQMDAQIwKzApBggrBgEFBQcCARYdaHR0cDovL3d3dy53b3NpZ24uY29tL3Bv
bGljeS8wDQYJKoZIhvcNAQEFBQADggEBAANRIQkbUBsM33J7BlAPd0r9m3S/2Zub
JfMQRAF75tinyjbj8qDdejKXPFyzRv9rY6JeKnlAZPMwu/yEwLDMRYPr8HWisPwk
BIHEd3ypxdVt+rCvhJ1fzImmVSlR2C9XWm+NVB02YYEM0YeRYIUpuuF8EuHHwZmt
dc37e8W0UbbtERrmlFx3fb4whjORMcj7WCrP5UAu0Ev3cKh0qL567UdMI2b4BOgl
ZrzWWGydJvfZxjFgwbKWoEDH+SISkwzfU55THd36tst1Ebp/lXzmicT1OMayT5yY
FCKop/MotpETk93JJP3CajLcRdljIdH2+rDil9h2kTa8D0Wkey7CGd0=
-----END CERTIFICATE-----

Certificate:
    Data:
        Version: 3 (0x2)
        Serial Number:
            6b:da:df:ef:f0:66:1b:d2:64:2a:f4:6e:cb:b2:79:40
    Signature Algorithm: sha1WithRSAEncryption
        Issuer: C=US, ST=UT, L=Salt Lake City, O=The USERTRUST Network, OU=http://www.usertrust.com, CN=UTN-USERFirst-Object
        Validity
            Not Before: Jul  9 18:31:20 1999 GMT
            Not After : Jul  9 18:40:36 2019 GMT
        Subject: C=CN, O=WoSign CA Limited, CN=Certification Authority of WoSign
        Subject Public Key Info:
            Public Key Algorithm: rsaEncryption
                Public-Key: (4096 bit)
                Modulus:
                    00:bd:ca:8d:ac:b8:91:15:56:97:7b:6b:5c:7a:c2:
                    de:6b:d9:a1:b0:c3:10:23:fa:a7:a1:b2:cc:31:fa:
                    3e:d9:a6:29:6f:16:3d:e0:6b:f8:b8:40:5f:db:39:
                    a8:00:7a:8b:a0:4d:54:7d:c2:22:78:fc:8e:09:b8:
                    a8:85:d7:cc:95:97:4b:74:d8:9e:7e:f0:00:e4:0e:
                    89:ae:49:28:44:1a:10:99:32:0f:25:88:53:a4:0d:
                    b3:0f:12:08:16:0b:03:71:27:1c:7f:e1:db:d2:fd:
                    67:68:c4:05:5d:0a:0e:5d:70:d7:d8:97:a0:bc:53:
                    41:9a:91:8d:f4:9e:36:66:7a:7e:56:c1:90:5f:e6:
                    b1:68:20:36:a4:8c:24:2c:2c:47:0b:59:76:66:30:
                    b5:be:de:ed:8f:f8:9d:d3:bb:01:30:e6:f2:f3:0e:
                    e0:2c:92:80:f3:85:f9:28:8a:b4:54:2e:9a:ed:f7:
                    76:fc:15:68:16:eb:4a:6c:eb:2e:12:8f:d4:cf:fe:
                    0c:c7:5c:1d:0b:7e:05:32:be:5e:b0:09:2a:42:d5:
                    c9:4e:90:b3:59:0d:bb:7a:7e:cd:d5:08:5a:b4:7f:
                    d8:1c:69:11:f9:27:0f:7b:06:af:54:83:18:7b:e1:
                    dd:54:7a:51:68:6e:77:fc:c6:bf:52:4a:66:46:a1:
                    b2:67:1a:bb:a3:4f:77:a0:be:5d:ff:fc:56:0b:43:
                    72:77:90:ca:9e:f9:f2:39:f5:0d:a9:f4:ea:d7:e7:
                    b3:10:2f:30:42:37:21:cc:30:70:c9:86:98:0f:cc:
                    58:4d:83:bb:7d:e5:1a:a5:37:8d:b6:ac:32:97:00:
                    3a:63:71:24:1e:9e:37:c4:ff:74:d4:37:c0:e2:fe:
                    88:46:60:11:dd:08:3f:50:36:ab:b8:7a:a4:95:62:
                    6a:6e:b0:ca:6a:21:5a:69:f3:f3:fb:1d:70:39:95:
                    f3:a7:6e:a6:81:89:a1:88:c5:3b:71:ca:a3:52:ee:
                    83:bb:fd:a0:77:f4:e4:6f:e7:42:db:6d:4a:99:8a:
                    34:48:bc:17:dc:e4:80:08:22:b6:f2:31:c0:3f:04:
                    3e:eb:9f:20:79:d6:b8:06:64:64:02:31:d7:a9:cd:
                    52:fb:84:45:69:09:00:2a:dc:55:8b:c4:06:46:4b:
                    c0:4a:1d:09:5b:39:28:fd:a9:ab:ce:00:f9:2e:48:
                    4b:26:e6:30:4c:a5:58:ca:b4:44:82:4f:e7:91:1e:
                    33:c3:b0:93:ff:11:fc:81:d2:ca:1f:71:29:dd:76:
                    4f:92:25:af:1d:81:b7:0f:2f:8c:c3:06:cc:2f:27:
                    a3:4a:e4:0e:99:ba:7c:1e:45:1f:7f:aa:19:45:96:
                    fd:fc:3d
                Exponent: 65537 (0x10001)
        X509v3 extensions:
            X509v3 Authority Key Identifier: 
                keyid:DA:ED:64:74:14:9C:14:3C:AB:DD:99:A9:BD:5B:28:4D:8B:3C:C9:D8

            X509v3 Subject Key Identifier: 
                E1:66:CF:0E:D1:F1:B3:4B:B7:06:20:14:FE:87:12:D5:F6:FE:FB:3E
            X509v3 Key Usage: critical
                Digital Signature, Certificate Sign, CRL Sign
            X509v3 Basic Constraints: critical
                CA:TRUE, pathlen:2
            X509v3 Extended Key Usage: 
                Code Signing, Time Stamping
            X509v3 Certificate Policies: 
                Policy: X509v3 Any Policy

            X509v3 CRL Distribution Points: 

                Full Name:
                  URI:http://crl.trust-provider.com/UTN-USERFirst-Object.crl

            Authority Information Access: 
                OCSP - URI:http://ocsp.trust-provider.com

    Signature Algorithm: sha1WithRSAEncryption
         58:6c:f1:83:4b:99:f6:73:2b:99:07:a3:d8:57:ce:d4:97:fd:
         6a:02:83:be:60:b1:17:e3:17:74:61:71:65:3c:79:29:b5:fe:
         65:18:c4:d8:1d:e2:da:df:da:0e:f9:a0:75:d7:79:7a:cb:0e:
         cd:f9:30:52:83:e3:da:2e:1e:e5:32:34:65:1b:73:dd:0d:9f:
         f9:31:58:7a:c7:6b:39:ba:61:1e:a1:46:60:91:d4:4f:bc:81:
         ce:52:dd:cb:80:44:bc:8a:18:37:0c:04:45:0e:08:f6:e7:87:
         c5:0c:fb:8b:02:93:24:22:59:5b:5b:30:fa:bd:76:be:fb:b5:
         98:89:43:fe:f1:52:d6:20:51:82:9c:d9:2a:19:3f:18:f8:89:
         5a:fb:46:71:fb:a9:bf:97:99:41:cd:36:da:27:55:02:13:ba:
         d2:53:38:d5:e5:7e:c0:c2:1b:00:aa:0c:3c:b1:a3:6c:56:ff:
         ba:62:7e:81:1e:ca:8f:88:a0:9a:5d:6f:67:ea:ce:1b:8d:1f:
         5a:5c:f9:f2:1f:ff:4a:50:04:58:6b:70:d7:dc:fa:3a:fc:a2:
         11:0f:81:76:13:8f:29:11:1b:2a:07:68:cf:50:8c:47:2d:75:
         e5:04:5c:4a:e1:00:9a:89:fd:ff:3e:ab:cc:ad:b9:56:c3:a7:
         25:5b:64:5c
-----BEGIN CERTIFICATE-----
MIIFljCCBH6gAwIBAgIQa9rf7/BmG9JkKvRuy7J5QDANBgkqhkiG9w0BAQUFADCB
lTELMAkGA1UEBhMCVVMxCzAJBgNVBAgTAlVUMRcwFQYDVQQHEw5TYWx0IExha2Ug
Q2l0eTEeMBwGA1UEChMVVGhlIFVTRVJUUlVTVCBOZXR3b3JrMSEwHwYDVQQLExho
dHRwOi8vd3d3LnVzZXJ0cnVzdC5jb20xHTAbBgNVBAMTFFVUTi1VU0VSRmlyc3Qt
T2JqZWN0MB4XDTk5MDcwOTE4MzEyMFoXDTE5MDcwOTE4NDAzNlowVTELMAkGA1UE
BhMCQ04xGjAYBgNVBAoTEVdvU2lnbiBDQSBMaW1pdGVkMSowKAYDVQQDEyFDZXJ0
aWZpY2F0aW9uIEF1dGhvcml0eSBvZiBXb1NpZ24wggIiMA0GCSqGSIb3DQEBAQUA
A4ICDwAwggIKAoICAQC9yo2suJEVVpd7a1x6wt5r2aGwwxAj+qehsswx+j7Zpilv
Fj3ga/i4QF/bOagAeougTVR9wiJ4/I4JuKiF18yVl0t02J5+8ADkDomuSShEGhCZ
Mg8liFOkDbMPEggWCwNxJxx/4dvS/WdoxAVdCg5dcNfYl6C8U0GakY30njZmen5W
wZBf5rFoIDakjCQsLEcLWXZmMLW+3u2P+J3TuwEw5vLzDuAskoDzhfkoirRULprt
93b8FWgW60ps6y4Sj9TP/gzHXB0LfgUyvl6wCSpC1clOkLNZDbt6fs3VCFq0f9gc
aRH5Jw97Bq9Ugxh74d1UelFobnf8xr9SSmZGobJnGrujT3egvl3//FYLQ3J3kMqe
+fI59Q2p9OrX57MQLzBCNyHMMHDJhpgPzFhNg7t95RqlN422rDKXADpjcSQenjfE
/3TUN8Di/ohGYBHdCD9QNqu4eqSVYmpusMpqIVpp8/P7HXA5lfOnbqaBiaGIxTtx
yqNS7oO7/aB39ORv50LbbUqZijRIvBfc5IAIIrbyMcA/BD7rnyB51rgGZGQCMdep
zVL7hEVpCQAq3FWLxAZGS8BKHQlbOSj9qavOAPkuSEsm5jBMpVjKtESCT+eRHjPD
sJP/EfyB0sofcSnddk+SJa8dgbcPL4zDBswvJ6NK5A6ZunweRR9/qhlFlv38PQID
AQABo4IBHzCCARswHwYDVR0jBBgwFoAU2u1kdBScFDyr3ZmpvVsoTYs8ydgwHQYD
VR0OBBYEFOFmzw7R8bNLtwYgFP6HEtX2/vs+MA4GA1UdDwEB/wQEAwIBhjASBgNV
HRMBAf8ECDAGAQH/AgECMB0GA1UdJQQWMBQGCCsGAQUFBwMDBggrBgEFBQcDCDAR
BgNVHSAECjAIMAYGBFUdIAAwRwYDVR0fBEAwPjA8oDqgOIY2aHR0cDovL2NybC50
cnVzdC1wcm92aWRlci5jb20vVVROLVVTRVJGaXJzdC1PYmplY3QuY3JsMDoGCCsG
AQUFBwEBBC4wLDAqBggrBgEFBQcwAYYeaHR0cDovL29jc3AudHJ1c3QtcHJvdmlk
ZXIuY29tMA0GCSqGSIb3DQEBBQUAA4IBAQBYbPGDS5n2cyuZB6PYV87Ul/1qAoO+
YLEX4xd0YXFlPHkptf5lGMTYHeLa39oO+aB113l6yw7N+TBSg+PaLh7lMjRlG3Pd
DZ/5MVh6x2s5umEeoUZgkdRPvIHOUt3LgES8ihg3DARFDgj254fFDPuLApMkIllb
WzD6vXa++7WYiUP+8VLWIFGCnNkqGT8Y+Ila+0Zx+6m/l5lBzTbaJ1UCE7rSUzjV
5X7AwhsAqgw8saNsVv+6Yn6BHsqPiKCaXW9n6s4bjR9aXPnyH/9KUARYa3DX3Po6
/KIRD4F2E48pERsqB2jPUIxHLXXlBFxK4QCaif3/PqvMrblWw6clW2Rc
-----END CERTIFICATE-----

Certificate:
    Data:
        Version: 3 (0x2)
        Serial Number:
            46:bb:b3:40:fa:b9:c1:79:28:93:8c:93:da:10:86:79
    Signature Algorithm: sha1WithRSAEncryption
        Issuer: C=CN, O=WoSign CA Limited, CN=Certification Authority of WoSign
        Validity
            Not Before: Aug  8 01:00:05 2009 GMT
            Not After : Aug  8 01:00:05 2024 GMT
        Subject: C=CN, O=WoSign CA Limited, CN=WoSign Class 3 Code Signing CA
        Subject Public Key Info:
            Public Key Algorithm: rsaEncryption
                Public-Key: (2048 bit)
                Modulus:
                    00:d1:49:a4:48:63:b9:dd:28:60:6a:d9:17:0d:01:
                    c0:b2:58:86:4e:26:08:44:af:5f:37:84:25:44:45:
                    65:33:46:a3:8a:9f:f6:99:51:ce:d9:43:a4:7a:0e:
                    d6:f1:bf:91:24:ca:d4:24:11:01:5d:a3:3f:f3:d4:
                    9d:6f:d6:99:b1:89:ce:6a:c1:65:a1:f0:df:a3:3a:
                    93:90:80:21:2c:ba:2e:c1:67:31:1e:6b:55:38:85:
                    a8:50:47:6a:49:c4:a5:0b:0c:4b:39:35:8f:80:9d:
                    95:8c:e2:0d:63:55:6d:d6:8d:c4:3e:99:31:03:ea:
                    42:00:1c:b0:16:61:36:80:f5:df:65:3f:e2:9f:8e:
                    ec:3d:49:1b:36:e8:ea:93:d9:83:35:46:18:a5:a4:
                    16:5e:34:68:71:b7:61:5b:3a:5e:40:e2:7f:c8:e6:
                    05:85:8d:c6:db:21:ca:20:3e:2d:00:15:55:8a:7a:
                    ca:dc:90:0a:5a:92:06:90:06:d6:6c:04:2c:8c:d5:
                    9b:0e:b2:d4:a7:e3:30:bf:4e:b8:67:c1:69:c6:70:
                    34:46:6c:66:ab:f2:ff:5f:35:da:13:3f:79:19:19:
                    99:c2:3f:57:db:5a:40:fd:53:bd:08:63:d7:c9:79:
                    cf:d3:b4:a2:09:e0:3f:55:c1:2b:1b:9f:37:fb:e1:
                    b3:ad
                Exponent: 65537 (0x10001)
        X509v3 extensions:
            X509v3 Key Usage: critical
                Certificate Sign, CRL Sign
            X509v3 Extended Key Usage: 
                Code Signing, Microsoft Commercial Code Signing
            X509v3 Basic Constraints: critical
                CA:TRUE, pathlen:0
            X509v3 CRL Distribution Points: 

                Full Name:
                  URI:http://crls1.wosign.com/ca1.crl

            Authority Information Access: 
                OCSP - URI:http://ocsp1.wosign.com/ca1
                CA Issuers - URI:http://aia1.wosign.com/ca1-class3-code.cer

            X509v3 Subject Key Identifier: 
                F5:02:AA:4B:D3:E0:1A:8E:77:50:D6:1A:BB:EB:DF:B9:83:70:B0:4E
            X509v3 Authority Key Identifier: 
                keyid:E1:66:CF:0E:D1:F1:B3:4B:B7:06:20:14:FE:87:12:D5:F6:FE:FB:3E

            X509v3 Certificate Policies: 
                Policy: 1.3.6.1.4.1.36305.1.3.3
                  CPS: http://www.wosign.com/policy/

    Signature Algorithm: sha1WithRSAEncryption
         0e:93:a5:71:25:62:a2:82:62:7a:b5:79:ea:e1:ea:ac:ca:a5:
         8b:c7:a1:4c:dc:cc:ae:1c:e9:ea:2e:88:e2:51:e5:81:22:76:
         e9:f6:e0:66:41:c9:74:e4:de:66:7e:f9:52:99:12:fd:c5:9e:
         6a:85:a4:5d:c5:54:f2:22:1f:bc:78:61:20:c0:fe:1c:1b:24:
         ff:01:e3:dc:ad:13:79:cb:cc:3d:ae:f4:3f:6e:35:ca:cf:5d:
         c6:05:3e:43:1e:a7:8d:03:dd:6e:ab:cd:5c:6a:b8:15:50:85:
         da:b8:96:53:0f:55:7d:19:d9:a3:74:68:1a:84:d0:c2:58:09:
         d6:dd:6a:e7:85:a5:d4:ac:41:5e:de:fd:a6:ab:79:8e:24:ab:
         ed:39:6f:8f:5f:71:99:02:74:fc:42:7e:32:02:20:29:32:c2:
         90:06:c2:7e:d0:ab:06:50:17:c3:ac:fb:a6:b9:6b:be:ee:be:
         a4:1e:18:80:02:ed:44:9d:a2:c6:54:4d:ab:e1:b6:98:19:7e:
         e1:b4:ba:7c:2c:3c:47:19:cb:4a:f7:63:62:66:5e:57:09:a8:
         6c:1e:b8:4d:ec:53:94:d7:81:ff:0c:0b:ef:08:02:15:ae:d8:
         d4:9f:5c:39:87:d7:24:66:84:a0:d0:38:90:4a:4e:99:4d:93:
         60:76:f5:1a:e2:8e:46:5f:5b:12:97:b4:66:d7:7c:4f:42:16:
         23:e8:0a:ed:86:46:0f:6d:9a:e4:7b:af:37:dc:f3:80:54:4b:
         3b:22:dd:90:2c:07:bd:c0:97:f2:c3:ec:7f:7c:fb:be:46:99:
         36:6e:48:c7:81:e5:f2:8c:02:0d:c0:7c:3f:c5:43:9b:70:02:
         81:f5:b0:aa:7f:05:54:c0:c2:30:9c:c5:c2:57:f5:19:b1:90:
         bc:d9:9d:d6:26:08:d6:0c:0e:b2:68:d0:91:e3:e7:3e:27:48:
         37:47:5e:d3:51:b5:0e:59:59:c9:ba:a7:cb:84:6e:03:84:cf:
         ec:50:bb:ee:cd:75:6d:7c:3a:9b:9a:fb:15:18:90:b1:c4:a3:
         e1:98:19:77:08:96:fc:d5:48:c4:55:f7:d3:ac:20:58:ff:47:
         c3:d4:fc:7b:ae:64:18:55:ab:47:2d:84:e4:24:53:b0:00:f4:
         78:73:cb:cc:a6:22:20:2e:7f:f5:45:4d:0a:49:aa:6b:ae:6e:
         66:24:e2:c4:0a:7e:a4:2b:90:8e:90:62:1c:f5:8b:f1:45:28:
         f7:61:4a:cb:b4:8c:48:83:9e:ce:01:f3:a5:84:f4:d2:6a:fd:
         3a:25:68:f2:08:c5:cf:1c:8d:27:c0:36:db:17:13:6c:c1:da:
         21:40:35:f8:66:b3:23:27
-----BEGIN CERTIFICATE-----
MIIFpjCCA46gAwIBAgIQRruzQPq5wXkok4yT2hCGeTANBgkqhkiG9w0BAQUFADBV
MQswCQYDVQQGEwJDTjEaMBgGA1UEChMRV29TaWduIENBIExpbWl0ZWQxKjAoBgNV
BAMTIUNlcnRpZmljYXRpb24gQXV0aG9yaXR5IG9mIFdvU2lnbjAeFw0wOTA4MDgw
MTAwMDVaFw0yNDA4MDgwMTAwMDVaMFIxCzAJBgNVBAYTAkNOMRowGAYDVQQKExFX
b1NpZ24gQ0EgTGltaXRlZDEnMCUGA1UEAxMeV29TaWduIENsYXNzIDMgQ29kZSBT
aWduaW5nIENBMIIBIjANBgkqhkiG9w0BAQEFAAOCAQ8AMIIBCgKCAQEA0UmkSGO5
3ShgatkXDQHAsliGTiYIRK9fN4QlREVlM0ajip/2mVHO2UOkeg7W8b+RJMrUJBEB
XaM/89Sdb9aZsYnOasFlofDfozqTkIAhLLouwWcxHmtVOIWoUEdqScSlCwxLOTWP
gJ2VjOINY1Vt1o3EPpkxA+pCABywFmE2gPXfZT/in47sPUkbNujqk9mDNUYYpaQW
XjRocbdhWzpeQOJ/yOYFhY3G2yHKID4tABVVinrK3JAKWpIGkAbWbAQsjNWbDrLU
p+Mwv064Z8FpxnA0Rmxmq/L/XzXaEz95GRmZwj9X21pA/VO9CGPXyXnP07SiCeA/
VcErG583++GzrQIDAQABo4IBczCCAW8wDgYDVR0PAQH/BAQDAgEGMB8GA1UdJQQY
MBYGCCsGAQUFBwMDBgorBgEEAYI3AgEWMBIGA1UdEwEB/wQIMAYBAf8CAQAwMAYD
VR0fBCkwJzAloCOgIYYfaHR0cDovL2NybHMxLndvc2lnbi5jb20vY2ExLmNybDBv
BggrBgEFBQcBAQRjMGEwJwYIKwYBBQUHMAGGG2h0dHA6Ly9vY3NwMS53b3NpZ24u
Y29tL2NhMTA2BggrBgEFBQcwAoYqaHR0cDovL2FpYTEud29zaWduLmNvbS9jYTEt
Y2xhc3MzLWNvZGUuY2VyMB0GA1UdDgQWBBT1AqpL0+AajndQ1hq769+5g3CwTjAf
BgNVHSMEGDAWgBThZs8O0fGzS7cGIBT+hxLV9v77PjBFBgNVHSAEPjA8MDoGCysG
AQQBgptRAQMDMCswKQYIKwYBBQUHAgEWHWh0dHA6Ly93d3cud29zaWduLmNvbS9w
b2xpY3kvMA0GCSqGSIb3DQEBBQUAA4ICAQAOk6VxJWKigmJ6tXnq4eqsyqWLx6FM
3MyuHOnqLojiUeWBInbp9uBmQcl05N5mfvlSmRL9xZ5qhaRdxVTyIh+8eGEgwP4c
GyT/AePcrRN5y8w9rvQ/bjXKz13GBT5DHqeNA91uq81cargVUIXauJZTD1V9Gdmj
dGgahNDCWAnW3WrnhaXUrEFe3v2mq3mOJKvtOW+PX3GZAnT8Qn4yAiApMsKQBsJ+
0KsGUBfDrPumuWu+7r6kHhiAAu1EnaLGVE2r4baYGX7htLp8LDxHGctK92NiZl5X
CahsHrhN7FOU14H/DAvvCAIVrtjUn1w5h9ckZoSg0DiQSk6ZTZNgdvUa4o5GX1sS
l7Rm13xPQhYj6ArthkYPbZrke6833POAVEs7It2QLAe9wJfyw+x/fPu+Rpk2bkjH
geXyjAINwHw/xUObcAKB9bCqfwVUwMIwnMXCV/UZsZC82Z3WJgjWDA6yaNCR4+c+
J0g3R17TUbUOWVnJuqfLhG4DhM/sULvuzXVtfDqbmvsVGJCxxKPhmBl3CJb81UjE
VffTrCBY/0fD1Px7rmQYVatHLYTkJFOwAPR4c8vMpiIgLn/1RU0KSaprrm5mJOLE
Cn6kK5COkGIc9YvxRSj3YUrLtIxIg57OAfOlhPTSav06JWjyCMXPHI0nwDbbFxNs
wdohQDX4ZrMjJw==
-----END CERTIFICATE-----

