Certificate:
    Data:
        Version: 3 (0x2)
        Serial Number:
            0a:7e:e3:a7:d0:48:81:8c:87:7a:18:6a:91:0f:21:62
    Signature Algorithm: sha1WithRSAEncryption
        Issuer: C=US, O=VeriSign, Inc., OU=VeriSign Trust Network, OU=Terms of use at https://www.verisign.com/rpa (c)10, CN=VeriSign Class 3 Code Signing 2010 CA
        Validity
            Not Before: Nov 10 00:00:00 2014 GMT
            Not After : Dec  9 23:59:59 2017 GMT
        Subject: C=CN, ST=Shanghai, L=Shanghai, O=Shanghai QinHe Internet Tech Software Development Co., Ltd., OU=IT, CN=Shanghai QinHe Internet Tech Software Development Co., Ltd.
        Subject Public Key Info:
            Public Key Algorithm: rsaEncryption
                Public-Key: (2048 bit)
                Modulus:
                    00:88:07:ac:d9:da:7c:1f:5a:7d:f3:d1:1f:07:1a:
                    2c:e4:57:c4:95:38:77:e2:b7:0f:5b:68:8f:a6:e0:
                    fd:b8:f4:7b:99:1a:a5:0b:d2:42:15:38:68:81:6c:
                    46:c2:0d:ce:4f:db:7e:51:45:14:cf:92:4b:b9:0a:
                    8e:e4:3b:41:69:6a:b9:b3:51:22:ab:ae:4d:69:ce:
                    d1:d2:0b:69:05:f6:c0:f7:23:82:77:8f:c3:37:0c:
                    1f:ee:84:8d:bf:1f:d2:ff:0f:43:c9:d0:d3:c0:19:
                    71:e5:74:f8:d4:de:71:36:5e:dc:cb:c4:37:0d:76:
                    07:5f:38:95:9d:9f:c4:a1:5e:6d:64:b2:23:47:a9:
                    14:eb:d8:22:1c:ed:91:37:4c:c5:c1:78:92:b0:ea:
                    8d:d5:ad:2e:e7:f0:8c:fc:68:ff:07:ca:d2:0d:b7:
                    6e:e8:7a:9e:87:c8:e2:f9:88:e4:2b:2e:be:66:1d:
                    af:a0:6d:c1:41:b6:c5:5e:cc:c1:e7:e8:85:e9:c5:
                    82:8b:55:99:00:55:d2:a2:fa:75:b7:6a:86:3d:e0:
                    45:82:0d:ed:a6:e3:93:cb:75:07:6e:8b:4b:14:0b:
                    e5:c3:a9:d1:40:a2:5d:d2:6a:16:fa:9b:a0:c9:e8:
                    dc:d7:e7:68:54:62:f1:8b:55:40:cd:5d:54:81:cb:
                    43:73
                Exponent: 65537 (0x10001)
        X509v3 extensions:
            X509v3 Basic Constraints: 
                CA:FALSE
            X509v3 Key Usage: critical
                Digital Signature
            X509v3 CRL Distribution Points: 

                Full Name:
                  URI:http://sf.symcb.com/sf.crl

            X509v3 Certificate Policies: 
                Policy: 2.16.840.1.113733.1.7.23.3
                  CPS: https://d.symcb.com/cps
                  User Notice:
                    Explicit Text: https://d.symcb.com/rpa

            X509v3 Extended Key Usage: 
                Code Signing
            Authority Information Access: 
                OCSP - URI:http://sf.symcd.com
                CA Issuers - URI:http://sf.symcb.com/sf.crt

            X509v3 Authority Key Identifier: 
                keyid:CF:99:A9:EA:7B:26:F4:4B:C9:8E:8F:D7:F0:05:26:EF:E3:D2:A7:9D

            X509v3 Subject Key Identifier: 
                F7:EB:9D:6E:D9:0A:9A:65:BB:C5:8B:07:71:94:C5:D8:62:FE:A1:44
            Netscape Cert Type: 
                Object Signing
            1.3.6.1.4.1.311.2.1.27: 
                0.......
    Signature Algorithm: sha1WithRSAEncryption
         a4:91:3c:df:4a:a1:dc:d4:f5:6e:39:21:3a:0e:22:d4:b8:42:
         ed:20:87:50:dd:a4:2d:83:98:d2:21:19:40:80:18:c1:2b:e2:
         cf:d3:c9:84:15:55:f0:d8:6d:8f:be:12:72:b4:28:4c:23:b7:
         c6:2e:6c:cb:d6:eb:5f:d0:16:34:03:fc:1b:34:b7:92:9a:6e:
         ac:3a:81:32:46:2b:88:93:96:7a:fa:d2:f8:76:81:83:f9:3e:
         d9:11:79:0b:b2:96:23:a4:3d:68:7d:e9:0e:89:a4:c8:22:a7:
         38:cb:e7:28:15:a3:ab:8d:4d:f5:4d:bd:53:40:d9:66:1c:1d:
         50:63:87:d2:98:09:0c:02:ab:7b:4f:0f:0d:d2:58:d8:a4:69:
         e0:93:84:0c:6d:ef:58:e6:09:21:13:b6:57:76:c4:41:ae:2e:
         5a:48:d8:89:4a:96:e4:0e:72:5d:e4:84:42:e0:8b:31:c7:36:
         55:80:6f:a0:f9:3e:75:55:80:9f:f8:6b:96:cf:9c:ff:b3:bc:
         cd:f0:d7:15:a2:c4:1f:5c:9f:82:64:0b:6e:9c:99:1d:1f:cb:
         34:33:df:89:ad:20:98:26:d1:12:2b:fb:ed:c6:6c:4b:19:ed:
         4c:46:18:f3:36:62:e6:f7:28:f9:0a:29:56:46:55:99:16:93:
         bc:71:9d:dc
-----BEGIN CERTIFICATE-----
MIIFmzCCBIOgAwIBAgIQCn7jp9BIgYyHehhqkQ8hYjANBgkqhkiG9w0BAQUFADCB
tDELMAkGA1UEBhMCVVMxFzAVBgNVBAoTDlZlcmlTaWduLCBJbmMuMR8wHQYDVQQL
ExZWZXJpU2lnbiBUcnVzdCBOZXR3b3JrMTswOQYDVQQLEzJUZXJtcyBvZiB1c2Ug
YXQgaHR0cHM6Ly93d3cudmVyaXNpZ24uY29tL3JwYSAoYykxMDEuMCwGA1UEAxMl
VmVyaVNpZ24gQ2xhc3MgMyBDb2RlIFNpZ25pbmcgMjAxMCBDQTAeFw0xNDExMTAw
MDAwMDBaFw0xNzEyMDkyMzU5NTlaMIHMMQswCQYDVQQGEwJDTjERMA8GA1UECBMI
U2hhbmdoYWkxETAPBgNVBAcTCFNoYW5naGFpMUQwQgYDVQQKFDtTaGFuZ2hhaSBR
aW5IZSBJbnRlcm5ldCBUZWNoIFNvZnR3YXJlIERldmVsb3BtZW50IENvLiwgTHRk
LjELMAkGA1UECxQCSVQxRDBCBgNVBAMUO1NoYW5naGFpIFFpbkhlIEludGVybmV0
IFRlY2ggU29mdHdhcmUgRGV2ZWxvcG1lbnQgQ28uLCBMdGQuMIIBIjANBgkqhkiG
9w0BAQEFAAOCAQ8AMIIBCgKCAQEAiAes2dp8H1p989EfBxos5FfElTh34rcPW2iP
puD9uPR7mRqlC9JCFThogWxGwg3OT9t+UUUUz5JLuQqO5DtBaWq5s1Eiq65Nac7R
0gtpBfbA9yOCd4/DNwwf7oSNvx/S/w9DydDTwBlx5XT41N5xNl7cy8Q3DXYHXziV
nZ/EoV5tZLIjR6kU69giHO2RN0zFwXiSsOqN1a0u5/CM/Gj/B8rSDbdu6Hqeh8ji
+YjkKy6+Zh2voG3BQbbFXszB5+iF6cWCi1WZAFXSovp1t2qGPeBFgg3tpuOTy3UH
botLFAvlw6nRQKJd0moW+pugyejc1+doVGLxi1VAzV1UgctDcwIDAQABo4IBjTCC
AYkwCQYDVR0TBAIwADAOBgNVHQ8BAf8EBAMCB4AwKwYDVR0fBCQwIjAgoB6gHIYa
aHR0cDovL3NmLnN5bWNiLmNvbS9zZi5jcmwwZgYDVR0gBF8wXTBbBgtghkgBhvhF
AQcXAzBMMCMGCCsGAQUFBwIBFhdodHRwczovL2Quc3ltY2IuY29tL2NwczAlBggr
BgEFBQcCAjAZDBdodHRwczovL2Quc3ltY2IuY29tL3JwYTATBgNVHSUEDDAKBggr
BgEFBQcDAzBXBggrBgEFBQcBAQRLMEkwHwYIKwYBBQUHMAGGE2h0dHA6Ly9zZi5z
eW1jZC5jb20wJgYIKwYBBQUHMAKGGmh0dHA6Ly9zZi5zeW1jYi5jb20vc2YuY3J0
MB8GA1UdIwQYMBaAFM+Zqep7JvRLyY6P1/AFJu/j0qedMB0GA1UdDgQWBBT3651u
2QqaZbvFiwdxlMXYYv6hRDARBglghkgBhvhCAQEEBAMCBBAwFgYKKwYBBAGCNwIB
GwQIMAYBAQABAf8wDQYJKoZIhvcNAQEFBQADggEBAKSRPN9KodzU9W45IToOItS4
Qu0gh1DdpC2DmNIhGUCAGMEr4s/TyYQVVfDYbY++EnK0KEwjt8YubMvW61/QFjQD
/Bs0t5Kabqw6gTJGK4iTlnr60vh2gYP5PtkReQuyliOkPWh96Q6JpMgipzjL5ygV
o6uNTfVNvVNA2WYcHVBjh9KYCQwCq3tPDw3SWNikaeCThAxt71jmCSETtld2xEGu
LlpI2IlKluQOcl3khELgizHHNlWAb6D5PnVVgJ/4a5bPnP+zvM3w1xWixB9cn4Jk
C26cmR0fyzQz34mtIJgm0RIr++3GbEsZ7UxGGPM2Yub3KPkKKVZGVZkWk7xxndw=
-----END CERTIFICATE-----

Certificate:
    Data:
        Version: 3 (0x2)
        Serial Number:
            52:00:e5:aa:25:56:fc:1a:86:ed:96:c9:d4:4b:33:c7
    Signature Algorithm: sha1WithRSAEncryption
        Issuer: C=US, O=VeriSign, Inc., OU=VeriSign Trust Network, OU=(c) 2006 VeriSign, Inc. - For authorized use only, CN=VeriSign Class 3 Public Primary Certification Authority - G5
        Validity
            Not Before: Feb  8 00:00:00 2010 GMT
            Not After : Feb  7 23:59:59 2020 GMT
        Subject: C=US, O=VeriSign, Inc., OU=VeriSign Trust Network, OU=Terms of use at https://www.verisign.com/rpa (c)10, CN=VeriSign Class 3 Code Signing 2010 CA
        Subject Public Key Info:
            Public Key Algorithm: rsaEncryption
                Public-Key: (2048 bit)
                Modulus:
                    00:f5:23:4b:5e:a5:d7:8a:bb:32:e9:d4:57:f7:ef:
                    e4:c7:26:7e:ad:19:98:fe:a8:9d:7d:94:f6:36:6b:
                    10:d7:75:81:30:7f:04:68:7f:cb:2b:75:1e:cd:1d:
                    08:8c:df:69:94:a7:37:a3:9c:7b:80:e0:99:e1:ee:
                    37:4d:5f:ce:3b:14:ee:86:d4:d0:f5:27:35:bc:25:
                    0b:38:a7:8c:63:9d:17:a3:08:a5:ab:b0:fb:cd:6a:
                    62:82:4c:d5:21:da:1b:d9:f1:e3:84:3b:8a:2a:4f:
                    85:5b:90:01:4f:c9:a7:76:10:7f:27:03:7c:be:ae:
                    7e:7d:c1:dd:f9:05:bc:1b:48:9c:69:e7:c0:a4:3c:
                    3c:41:00:3e:df:96:e5:c5:e4:94:71:d6:55:01:c7:
                    00:26:4a:40:3c:b5:a1:26:a9:0c:a7:6d:80:8e:90:
                    25:7b:cf:bf:3f:1c:eb:2f:96:fa:e5:87:77:c6:b5:
                    56:b2:7a:3b:54:30:53:1b:df:62:34:ff:1e:d1:f4:
                    5a:93:28:85:e5:4c:17:4e:7e:5b:fd:a4:93:99:7f:
                    df:cd:ef:a4:75:ef:ef:15:f6:47:e7:f8:19:72:d8:
                    2e:34:1a:a6:b4:a7:4c:7e:bd:bb:4f:0c:3d:57:f1:
                    30:d6:a6:36:8e:d6:80:76:d7:19:2e:a5:cd:7e:34:
                    2d:89
                Exponent: 65537 (0x10001)
        X509v3 extensions:
            X509v3 Basic Constraints: critical
                CA:TRUE, pathlen:0
            X509v3 Certificate Policies: 
                Policy: 2.16.840.1.113733.1.7.23.3
                  CPS: https://www.verisign.com/cps
                  User Notice:
                    Explicit Text: https://www.verisign.com/rpa

            X509v3 Key Usage: critical
                Certificate Sign, CRL Sign
            1.3.6.1.5.5.7.1.12: 
                0_.].[0Y0W0U..image/gif0!0.0...+..............k...j.H.,{..0%.#http://logo.verisign.com/vslogo.gif
            X509v3 CRL Distribution Points: 

                Full Name:
                  URI:http://crl.verisign.com/pca3-g5.crl

            Authority Information Access: 
                OCSP - URI:http://ocsp.verisign.com

            X509v3 Extended Key Usage: 
                TLS Web Client Authentication, Code Signing
            X509v3 Subject Alternative Name: 
                DirName:/CN=VeriSignMPKI-2-8
            X509v3 Subject Key Identifier: 
                CF:99:A9:EA:7B:26:F4:4B:C9:8E:8F:D7:F0:05:26:EF:E3:D2:A7:9D
            X509v3 Authority Key Identifier: 
                keyid:7F:D3:65:A7:C2:DD:EC:BB:F0:30:09:F3:43:39:FA:02:AF:33:31:33

    Signature Algorithm: sha1WithRSAEncryption
         56:22:e6:34:a4:c4:61:cb:48:b9:01:ad:56:a8:64:0f:d9:8c:
         91:c4:bb:cc:0c:e5:ad:7a:a0:22:7f:df:47:38:4a:2d:6c:d1:
         7f:71:1a:7c:ec:70:a9:b1:f0:4f:e4:0f:0c:53:fa:15:5e:fe:
         74:98:49:24:85:81:26:1c:91:14:47:b0:4c:63:8c:bb:a1:34:
         d4:c6:45:e8:0d:85:26:73:03:d0:a9:8c:64:6d:dc:71:92:e6:
         45:05:60:15:59:51:39:fc:58:14:6b:fe:d4:a4:ed:79:6b:08:
         0c:41:72:e7:37:22:06:09:be:23:e9:3f:44:9a:1e:e9:61:9d:
         cc:b1:90:5c:fc:3d:d2:8d:ac:42:3d:65:36:d4:b4:3d:40:28:
         8f:9b:10:cf:23:26:cc:4b:20:cb:90:1f:5d:8c:4c:34:ca:3c:
         d8:e5:37:d6:6f:a5:20:bd:34:eb:26:d9:ae:0d:e7:c5:9a:f7:
         a1:b4:21:91:33:6f:86:e8:58:bb:25:7c:74:0e:58:fe:75:1b:
         63:3f:ce:31:7c:9b:8f:1b:96:9e:c5:53:76:84:5b:9c:ad:91:
         fa:ac:ed:93:ba:5d:c8:21:53:c2:82:53:63:af:12:0d:50:87:
         11:1b:3d:54:52:96:8a:2c:9c:3d:92:1a:08:9a:05:2e:c7:93:
         a5:48:91:d3
-----BEGIN CERTIFICATE-----
MIIGCjCCBPKgAwIBAgIQUgDlqiVW/BqG7ZbJ1EszxzANBgkqhkiG9w0BAQUFADCB
yjELMAkGA1UEBhMCVVMxFzAVBgNVBAoTDlZlcmlTaWduLCBJbmMuMR8wHQYDVQQL
ExZWZXJpU2lnbiBUcnVzdCBOZXR3b3JrMTowOAYDVQQLEzEoYykgMjAwNiBWZXJp
U2lnbiwgSW5jLiAtIEZvciBhdXRob3JpemVkIHVzZSBvbmx5MUUwQwYDVQQDEzxW
ZXJpU2lnbiBDbGFzcyAzIFB1YmxpYyBQcmltYXJ5IENlcnRpZmljYXRpb24gQXV0
aG9yaXR5IC0gRzUwHhcNMTAwMjA4MDAwMDAwWhcNMjAwMjA3MjM1OTU5WjCBtDEL
MAkGA1UEBhMCVVMxFzAVBgNVBAoTDlZlcmlTaWduLCBJbmMuMR8wHQYDVQQLExZW
ZXJpU2lnbiBUcnVzdCBOZXR3b3JrMTswOQYDVQQLEzJUZXJtcyBvZiB1c2UgYXQg
aHR0cHM6Ly93d3cudmVyaXNpZ24uY29tL3JwYSAoYykxMDEuMCwGA1UEAxMlVmVy
aVNpZ24gQ2xhc3MgMyBDb2RlIFNpZ25pbmcgMjAxMCBDQTCCASIwDQYJKoZIhvcN
AQEBBQADggEPADCCAQoCggEBAPUjS16l14q7MunUV/fv5Mcmfq0ZmP6onX2U9jZr
ENd1gTB/BGh/yyt1Hs0dCIzfaZSnN6Oce4DgmeHuN01fzjsU7obU0PUnNbwlCzin
jGOdF6MIpauw+81qYoJM1SHaG9nx44Q7iipPhVuQAU/Jp3YQfycDfL6ufn3B3fkF
vBtInGnnwKQ8PEEAPt+W5cXklHHWVQHHACZKQDy1oSapDKdtgI6QJXvPvz8c6y+W
+uWHd8a1VrJ6O1QwUxvfYjT/HtH0WpMoheVMF05+W/2kk5l/383vpHXv7xX2R+f4
GXLYLjQaprSnTH69u08MPVfxMNamNo7WgHbXGS6lzX40LYkCAwEAAaOCAf4wggH6
MBIGA1UdEwEB/wQIMAYBAf8CAQAwcAYDVR0gBGkwZzBlBgtghkgBhvhFAQcXAzBW
MCgGCCsGAQUFBwIBFhxodHRwczovL3d3dy52ZXJpc2lnbi5jb20vY3BzMCoGCCsG
AQUFBwICMB4aHGh0dHBzOi8vd3d3LnZlcmlzaWduLmNvbS9ycGEwDgYDVR0PAQH/
BAQDAgEGMG0GCCsGAQUFBwEMBGEwX6FdoFswWTBXMFUWCWltYWdlL2dpZjAhMB8w
BwYFKw4DAhoEFI/l0xqGrI2Oa8PPgGrUSBgsexkuMCUWI2h0dHA6Ly9sb2dvLnZl
cmlzaWduLmNvbS92c2xvZ28uZ2lmMDQGA1UdHwQtMCswKaAnoCWGI2h0dHA6Ly9j
cmwudmVyaXNpZ24uY29tL3BjYTMtZzUuY3JsMDQGCCsGAQUFBwEBBCgwJjAkBggr
BgEFBQcwAYYYaHR0cDovL29jc3AudmVyaXNpZ24uY29tMB0GA1UdJQQWMBQGCCsG
AQUFBwMCBggrBgEFBQcDAzAoBgNVHREEITAfpB0wGzEZMBcGA1UEAxMQVmVyaVNp
Z25NUEtJLTItODAdBgNVHQ4EFgQUz5mp6nsm9EvJjo/X8AUm7+PSp50wHwYDVR0j
BBgwFoAUf9Nlp8Ld7LvwMAnzQzn6Aq8zMTMwDQYJKoZIhvcNAQEFBQADggEBAFYi
5jSkxGHLSLkBrVaoZA/ZjJHEu8wM5a16oCJ/30c4Si1s0X9xGnzscKmx8E/kDwxT
+hVe/nSYSSSFgSYckRRHsExjjLuhNNTGRegNhSZzA9CpjGRt3HGS5kUFYBVZUTn8
WBRr/tSk7XlrCAxBcuc3IgYJviPpP0SaHulhncyxkFz8PdKNrEI9ZTbUtD1AKI+b
EM8jJsxLIMuQH12MTDTKPNjlN9ZvpSC9NOsm2a4N58Wa96G0IZEzb4boWLslfHQO
WP51G2M/zjF8m48blp7FU3aEW5ytkfqs7ZO6XcghU8KCU2OvEg1QhxEbPVRSloos
nD2SGgiaBS7Hk6VIkdM=
-----END CERTIFICATE-----

