Certificate:
    Data:
        Version: 3 (0x2)
        Serial Number:
            47:8a:8e:fb:59:e1:d8:3f:0c:e1:42:d2:a2:87:07:be
    Signature Algorithm: sha1WithRSAEncryption
        Issuer: C=US, ST=UT, L=Salt Lake City, O=The USERTRUST Network, OU=http://www.usertrust.com, CN=UTN-USERFirst-Object
        Validity
            Not Before: May 10 00:00:00 2010 GMT
            Not After : May 10 23:59:59 2015 GMT
        Subject: C=GB, ST=Greater Manchester, L=Salford, O=COMODO CA Limited, CN=COMODO Time Stamping Signer
        Subject Public Key Info:
            Public Key Algorithm: rsaEncryption
                Public-Key: (2048 bit)
                Modulus:
                    00:bc:35:a0:36:70:22:81:11:c3:b2:83:b9:d3:28:
                    c6:36:cd:25:6b:a9:7b:b2:1c:f6:9b:51:9c:ef:35:
                    f4:ed:08:8e:5e:38:08:f8:77:3c:0a:42:e0:f3:70:
                    dc:a3:d7:ca:f5:4c:0b:cf:ff:22:9c:0a:7e:68:d6:
                    09:a2:2a:84:7b:a6:9d:b4:a9:c1:33:e2:ef:1f:17:
                    48:ca:3a:cd:46:e6:c5:aa:77:bd:e3:77:9a:fa:47:
                    53:40:28:59:43:93:f1:a4:81:ea:ef:80:b5:4f:a7:
                    08:ce:ba:6e:bc:ca:76:0c:97:64:59:86:24:bb:3d:
                    82:90:a8:55:b1:92:d3:a0:a7:05:ac:9f:53:25:08:
                    10:47:99:cd:98:de:68:e5:b4:50:78:a3:af:01:cc:
                    59:43:58:e4:76:6e:7e:ac:c7:e2:9e:1f:4f:b0:47:
                    2d:c8:0c:a3:49:27:80:75:8c:bb:06:91:65:0f:90:
                    9b:f4:ba:d1:81:c8:5c:6a:ec:14:e9:25:09:bf:23:
                    16:f4:95:46:40:40:21:bb:83:96:fd:86:1f:7a:c8:
                    0d:10:8e:a2:f8:19:07:58:7f:9f:bd:37:02:60:f2:
                    a4:e9:9d:44:3f:30:05:e4:a7:70:99:51:9a:e8:17:
                    f1:55:ca:b2:61:89:65:46:a7:6a:f2:58:46:7e:aa:
                    a0:07
                Exponent: 65537 (0x10001)
        X509v3 extensions:
            X509v3 Authority Key Identifier: 
                keyid:DA:ED:64:74:14:9C:14:3C:AB:DD:99:A9:BD:5B:28:4D:8B:3C:C9:D8

            X509v3 Subject Key Identifier: 
                2E:2D:B0:0A:44:4A:D3:87:C0:02:07:CE:97:7D:50:62:20:FD:0F:83
            X509v3 Key Usage: critical
                Digital Signature, Non Repudiation
            X509v3 Basic Constraints: critical
                CA:FALSE
            X509v3 Extended Key Usage: critical
                Time Stamping
            X509v3 CRL Distribution Points: 

                Full Name:
                  URI:http://crl.usertrust.com/UTN-USERFirst-Object.crl

            Authority Information Access: 
                OCSP - URI:http://ocsp.usertrust.com

    Signature Algorithm: sha1WithRSAEncryption
         c8:fb:63:f8:0b:75:75:2c:3a:f1:f2:13:a7:2d:b6:a3:1a:9c:
         ad:01:07:d3:34:8e:77:e0:c2:6e:ae:02:5d:48:4f:a4:d2:21:
         b6:36:fd:2a:35:43:7c:6b:df:80:87:0b:15:f0:76:32:00:b4:
         ce:b5:67:a4:2f:2f:20:1b:9c:54:9e:83:3f:1f:5f:14:95:62:
         82:0f:22:41:22:1f:70:b3:f3:f7:42:de:6c:51:cd:4b:f8:21:
         ac:9b:3b:8c:b1:e5:e6:28:8f:ce:2a:8a:f9:aa:52:4d:8c:5b:
         77:ba:4d:5a:58:db:bb:6a:04:cc:52:1e:9d:e2:28:37:0e:bb:
         e7:0e:91:c7:f8:db:f1:81:98:eb:cd:37:b3:0e:ab:65:d3:62:
         ec:3a:a5:76:eb:13:a8:35:93:c9:2e:0a:01:ec:c0:e8:cc:3d:
         7e:b6:eb:e2:c1:ec:d3:14:92:82:66:87:50:dc:fd:50:97:ac:
         b3:4a:76:73:06:c4:86:11:3a:b3:5f:43:04:52:6f:ea:b3:d0:
         74:36:4c:ca:f1:1b:79:84:37:70:63:ad:74:b9:aa:0e:f3:98:
         b0:86:08:eb:db:e0:1f:8c:10:f2:39:64:9b:ae:4f:0a:2c:92:
         8a:4f:18:b5:91:e5:8d:1a:93:5f:1f:ae:f1:a6:f0:2e:97:d0:
         d2:f6:2b:3c
-----BEGIN CERTIFICATE-----
MIIEkzCCA3ugAwIBAgIQR4qO+1nh2D8M4ULSoocHvjANBgkqhkiG9w0BAQUFADCB
lTELMAkGA1UEBhMCVVMxCzAJBgNVBAgTAlVUMRcwFQYDVQQHEw5TYWx0IExha2Ug
Q2l0eTEeMBwGA1UEChMVVGhlIFVTRVJUUlVTVCBOZXR3b3JrMSEwHwYDVQQLExho
dHRwOi8vd3d3LnVzZXJ0cnVzdC5jb20xHTAbBgNVBAMTFFVUTi1VU0VSRmlyc3Qt
T2JqZWN0MB4XDTEwMDUxMDAwMDAwMFoXDTE1MDUxMDIzNTk1OVowfjELMAkGA1UE
BhMCR0IxGzAZBgNVBAgTEkdyZWF0ZXIgTWFuY2hlc3RlcjEQMA4GA1UEBxMHU2Fs
Zm9yZDEaMBgGA1UEChMRQ09NT0RPIENBIExpbWl0ZWQxJDAiBgNVBAMTG0NPTU9E
TyBUaW1lIFN0YW1waW5nIFNpZ25lcjCCASIwDQYJKoZIhvcNAQEBBQADggEPADCC
AQoCggEBALw1oDZwIoERw7KDudMoxjbNJWupe7Ic9ptRnO819O0Ijl44CPh3PApC
4PNw3KPXyvVMC8//IpwKfmjWCaIqhHumnbSpwTPi7x8XSMo6zUbmxap3veN3mvpH
U0AoWUOT8aSB6u+AtU+nCM66brzKdgyXZFmGJLs9gpCoVbGS06CnBayfUyUIEEeZ
zZjeaOW0UHijrwHMWUNY5HZufqzH4p4fT7BHLcgMo0kngHWMuwaRZQ+Qm/S60YHI
XGrsFOklCb8jFvSVRkBAIbuDlv2GH3rIDRCOovgZB1h/n703AmDypOmdRD8wBeSn
cJlRmugX8VXKsmGJZUanavJYRn6qoAcCAwEAAaOB9DCB8TAfBgNVHSMEGDAWgBTa
7WR0FJwUPKvdmam9WyhNizzJ2DAdBgNVHQ4EFgQULi2wCkRK04fAAgfOl31QYiD9
D4MwDgYDVR0PAQH/BAQDAgbAMAwGA1UdEwEB/wQCMAAwFgYDVR0lAQH/BAwwCgYI
KwYBBQUHAwgwQgYDVR0fBDswOTA3oDWgM4YxaHR0cDovL2NybC51c2VydHJ1c3Qu
Y29tL1VUTi1VU0VSRmlyc3QtT2JqZWN0LmNybDA1BggrBgEFBQcBAQQpMCcwJQYI
KwYBBQUHMAGGGWh0dHA6Ly9vY3NwLnVzZXJ0cnVzdC5jb20wDQYJKoZIhvcNAQEF
BQADggEBAMj7Y/gLdXUsOvHyE6cttqManK0BB9M0jnfgwm6uAl1IT6TSIbY2/So1
Q3xr34CHCxXwdjIAtM61Z6QvLyAbnFSegz8fXxSVYoIPIkEiH3Cz8/dC3mxRzUv4
IaybO4yx5eYoj84qivmqUk2MW3e6TVpY27tqBMxSHp3iKDcOu+cOkcf42/GBmOvN
N7MOq2XTYuw6pXbrE6g1k8kuCgHswOjMPX626+LB7NMUkoJmh1Dc/VCXrLNKdnMG
xIYROrNfQwRSb+qz0HQ2TMrxG3mEN3BjrXS5qg7zmLCGCOvb4B+MEPI5ZJuuTwos
kopPGLWR5Y0ak18frvGm8C6X0NL2Kzw=
-----END CERTIFICATE-----

Certificate:
    Data:
        Version: 3 (0x2)
        Serial Number:
            18:da:d1:9e:26:7d:e8:bb:4a:21:58:cd:cc:6b:3b:4a
    Signature Algorithm: sha1WithRSAEncryption
        Issuer: C=US, O=VeriSign, Inc., OU=VeriSign Trust Network, OU=(c) 2006 VeriSign, Inc. - For authorized use only, CN=VeriSign Class 3 Public Primary Certification Authority - G5
        Validity
            Not Before: Nov  8 00:00:00 2006 GMT
            Not After : Jul 16 23:59:59 2036 GMT
        Subject: C=US, O=VeriSign, Inc., OU=VeriSign Trust Network, OU=(c) 2006 VeriSign, Inc. - For authorized use only, CN=VeriSign Class 3 Public Primary Certification Authority - G5
        Subject Public Key Info:
            Public Key Algorithm: rsaEncryption
                Public-Key: (2048 bit)
                Modulus:
                    00:af:24:08:08:29:7a:35:9e:60:0c:aa:e7:4b:3b:
                    4e:dc:7c:bc:3c:45:1c:bb:2b:e0:fe:29:02:f9:57:
                    08:a3:64:85:15:27:f5:f1:ad:c8:31:89:5d:22:e8:
                    2a:aa:a6:42:b3:8f:f8:b9:55:b7:b1:b7:4b:b3:fe:
                    8f:7e:07:57:ec:ef:43:db:66:62:15:61:cf:60:0d:
                    a4:d8:de:f8:e0:c3:62:08:3d:54:13:eb:49:ca:59:
                    54:85:26:e5:2b:8f:1b:9f:eb:f5:a1:91:c2:33:49:
                    d8:43:63:6a:52:4b:d2:8f:e8:70:51:4d:d1:89:69:
                    7b:c7:70:f6:b3:dc:12:74:db:7b:5d:4b:56:d3:96:
                    bf:15:77:a1:b0:f4:a2:25:f2:af:1c:92:67:18:e5:
                    f4:06:04:ef:90:b9:e4:00:e4:dd:3a:b5:19:ff:02:
                    ba:f4:3c:ee:e0:8b:eb:37:8b:ec:f4:d7:ac:f2:f6:
                    f0:3d:af:dd:75:91:33:19:1d:1c:40:cb:74:24:19:
                    21:93:d9:14:fe:ac:2a:52:c7:8f:d5:04:49:e4:8d:
                    63:47:88:3c:69:83:cb:fe:47:bd:2b:7e:4f:c5:95:
                    ae:0e:9d:d4:d1:43:c0:67:73:e3:14:08:7e:e5:3f:
                    9f:73:b8:33:0a:cf:5d:3f:34:87:96:8a:ee:53:e8:
                    25:15
                Exponent: 65537 (0x10001)
        X509v3 extensions:
            X509v3 Basic Constraints: critical
                CA:TRUE
            X509v3 Key Usage: critical
                Certificate Sign, CRL Sign
            1.3.6.1.5.5.7.1.12: 
                0_.].[0Y0W0U..image/gif0!0.0...+..............k...j.H.,{..0%.#http://logo.verisign.com/vslogo.gif
            X509v3 Subject Key Identifier: 
                7F:D3:65:A7:C2:DD:EC:BB:F0:30:09:F3:43:39:FA:02:AF:33:31:33
    Signature Algorithm: sha1WithRSAEncryption
         93:24:4a:30:5f:62:cf:d8:1a:98:2f:3d:ea:dc:99:2d:bd:77:
         f6:a5:79:22:38:ec:c4:a7:a0:78:12:ad:62:0e:45:70:64:c5:
         e7:97:66:2d:98:09:7e:5f:af:d6:cc:28:65:f2:01:aa:08:1a:
         47:de:f9:f9:7c:92:5a:08:69:20:0d:d9:3e:6d:6e:3c:0d:6e:
         d8:e6:06:91:40:18:b9:f8:c1:ed:df:db:41:aa:e0:96:20:c9:
         cd:64:15:38:81:c9:94:ee:a2:84:29:0b:13:6f:8e:db:0c:dd:
         25:02:db:a4:8b:19:44:d2:41:7a:05:69:4a:58:4f:60:ca:7e:
         82:6a:0b:02:aa:25:17:39:b5:db:7f:e7:84:65:2a:95:8a:bd:
         86:de:5e:81:16:83:2d:10:cc:de:fd:a8:82:2a:6d:28:1f:0d:
         0b:c4:e5:e7:1a:26:19:e1:f4:11:6f:10:b5:95:fc:e7:42:05:
         32:db:ce:9d:51:5e:28:b6:9e:85:d3:5b:ef:a5:7d:45:40:72:
         8e:b7:0e:6b:0e:06:fb:33:35:48:71:b8:9d:27:8b:c4:65:5f:
         0d:86:76:9c:44:7a:f6:95:5c:f6:5d:32:08:33:a4:54:b6:18:
         3f:68:5c:f2:42:4a:85:38:54:83:5f:d1:e8:2c:f2:ac:11:d6:
         a8:ed:63:6a
-----BEGIN CERTIFICATE-----
MIIE0zCCA7ugAwIBAgIQGNrRniZ96LtKIVjNzGs7SjANBgkqhkiG9w0BAQUFADCB
yjELMAkGA1UEBhMCVVMxFzAVBgNVBAoTDlZlcmlTaWduLCBJbmMuMR8wHQYDVQQL
ExZWZXJpU2lnbiBUcnVzdCBOZXR3b3JrMTowOAYDVQQLEzEoYykgMjAwNiBWZXJp
U2lnbiwgSW5jLiAtIEZvciBhdXRob3JpemVkIHVzZSBvbmx5MUUwQwYDVQQDEzxW
ZXJpU2lnbiBDbGFzcyAzIFB1YmxpYyBQcmltYXJ5IENlcnRpZmljYXRpb24gQXV0
aG9yaXR5IC0gRzUwHhcNMDYxMTA4MDAwMDAwWhcNMzYwNzE2MjM1OTU5WjCByjEL
MAkGA1UEBhMCVVMxFzAVBgNVBAoTDlZlcmlTaWduLCBJbmMuMR8wHQYDVQQLExZW
ZXJpU2lnbiBUcnVzdCBOZXR3b3JrMTowOAYDVQQLEzEoYykgMjAwNiBWZXJpU2ln
biwgSW5jLiAtIEZvciBhdXRob3JpemVkIHVzZSBvbmx5MUUwQwYDVQQDEzxWZXJp
U2lnbiBDbGFzcyAzIFB1YmxpYyBQcmltYXJ5IENlcnRpZmljYXRpb24gQXV0aG9y
aXR5IC0gRzUwggEiMA0GCSqGSIb3DQEBAQUAA4IBDwAwggEKAoIBAQCvJAgIKXo1
nmAMqudLO07cfLw8RRy7K+D+KQL5VwijZIUVJ/XxrcgxiV0i6CqqpkKzj/i5Vbex
t0uz/o9+B1fs70PbZmIVYc9gDaTY3vjgw2IIPVQT60nKWVSFJuUrjxuf6/WhkcIz
SdhDY2pSS9KP6HBRTdGJaXvHcPaz3BJ023tdS1bTlr8Vd6Gw9KIl8q8ckmcY5fQG
BO+QueQA5N06tRn/Arr0PO7gi+s3i+z016zy9vA9r911kTMZHRxAy3QkGSGT2RT+
rCpSx4/VBEnkjWNHiDxpg8v+R70rfk/Fla4OndTRQ8Bnc+MUCH7lP59zuDMKz10/
NIeWiu5T6CUVAgMBAAGjgbIwga8wDwYDVR0TAQH/BAUwAwEB/zAOBgNVHQ8BAf8E
BAMCAQYwbQYIKwYBBQUHAQwEYTBfoV2gWzBZMFcwVRYJaW1hZ2UvZ2lmMCEwHzAH
BgUrDgMCGgQUj+XTGoasjY5rw8+AatRIGCx7GS4wJRYjaHR0cDovL2xvZ28udmVy
aXNpZ24uY29tL3ZzbG9nby5naWYwHQYDVR0OBBYEFH/TZafC3ey78DAJ80M5+gKv
MzEzMA0GCSqGSIb3DQEBBQUAA4IBAQCTJEowX2LP2BqYLz3q3JktvXf2pXkiOOzE
p6B4Eq1iDkVwZMXnl2YtmAl+X6/WzChl8gGqCBpH3vn5fJJaCGkgDdk+bW48DW7Y
5gaRQBi5+MHt39tBquCWIMnNZBU4gcmU7qKEKQsTb47bDN0lAtukixlE0kF6BWlK
WE9gyn6CagsCqiUXObXbf+eEZSqVir2G3l6BFoMtEMze/aiCKm0oHw0LxOXnGiYZ
4fQRbxC1lfznQgUy286dUV4otp6F01vvpX1FQHKOtw5rDgb7MzVIcbidJ4vEZV8N
hnacRHr2lVz2XTIIM6RUthg/aFzyQkqFOFSDX9HoLPKsEdao7WNq
-----END CERTIFICATE-----

Certificate:
    Data:
        Version: 3 (0x2)
        Serial Number:
            02:de:95:72:41:43:17:53:1c:3a:3d:52:98:9e:b1:1c
    Signature Algorithm: sha1WithRSAEncryption
        Issuer: C=US, O=VeriSign, Inc., OU=VeriSign Trust Network, OU=Terms of use at https://www.verisign.com/rpa (c)10, CN=VeriSign Class 3 Code Signing 2010 CA
        Validity
            Not Before: Dec  6 00:00:00 2010 GMT
            Not After : Dec 21 23:59:59 2013 GMT
        Subject: C=KR, ST=Kyungki-Do, L=Suwon, O=Samsung Electronics CO., LTD., OU=Digital ID Class 3 - Microsoft Software Validation v2, OU=Computer System, CN=Samsung Electronics CO., LTD.
        Subject Public Key Info:
            Public Key Algorithm: rsaEncryption
                Public-Key: (2048 bit)
                Modulus:
                    00:eb:73:ad:62:b3:3d:c2:23:e7:60:a3:95:40:cc:
                    67:21:da:0f:67:51:a7:9d:e4:8e:33:50:71:86:c8:
                    2b:34:2e:0f:cf:c3:c1:e0:d7:42:d5:07:26:94:63:
                    36:49:90:d1:57:fa:18:57:3a:f0:81:d7:3d:53:95:
                    39:b6:80:89:59:52:4b:e9:71:ec:b5:97:3b:43:ed:
                    21:ec:54:5d:24:2d:ae:39:ab:0c:ea:28:ac:f7:de:
                    27:fe:45:55:bc:ab:9e:76:49:06:84:7b:87:5b:11:
                    a8:42:20:e8:6e:76:7b:a7:a3:2f:a6:4e:75:ff:c5:
                    e2:44:d0:3c:af:a6:63:3f:0c:3d:50:9b:6e:1b:c0:
                    3d:0d:16:73:91:92:4d:f1:33:59:43:75:aa:d4:96:
                    15:31:05:f2:5c:4f:be:97:2a:d8:7d:53:73:35:c1:
                    8e:46:65:d7:11:f7:3a:30:b7:c8:9c:1a:ca:d7:74:
                    9e:71:c9:38:33:e1:70:9d:8a:dc:de:f7:3b:54:cb:
                    ed:66:05:44:a6:92:a8:cd:07:c7:59:6f:f5:9d:a7:
                    e9:60:ae:42:71:9a:1c:e5:f6:87:65:55:14:c6:3d:
                    d8:30:18:90:f3:48:c7:8e:71:15:6b:3a:44:12:47:
                    d0:16:33:13:29:87:c5:d9:8b:31:f4:39:90:f5:4f:
                    f0:8b
                Exponent: 65537 (0x10001)
        X509v3 extensions:
            X509v3 Basic Constraints: 
                CA:FALSE
            X509v3 Key Usage: critical
                Digital Signature
            X509v3 CRL Distribution Points: 

                Full Name:
                  URI:http://csc3-2010-crl.verisign.com/CSC3-2010.crl

            X509v3 Certificate Policies: 
                Policy: 2.16.840.1.113733.1.7.23.3
                  CPS: https://www.verisign.com/rpa

            X509v3 Extended Key Usage: 
                Code Signing
            Authority Information Access: 
                OCSP - URI:http://ocsp.verisign.com
                CA Issuers - URI:http://csc3-2010-aia.verisign.com/CSC3-2010.cer

            X509v3 Authority Key Identifier: 
                keyid:CF:99:A9:EA:7B:26:F4:4B:C9:8E:8F:D7:F0:05:26:EF:E3:D2:A7:9D

            Netscape Cert Type: 
                Object Signing
            1.3.6.1.4.1.311.2.1.27: 
                0.......
    Signature Algorithm: sha1WithRSAEncryption
         20:57:a9:fd:f5:04:5a:03:7d:1d:98:4c:c3:8b:11:8e:36:b7:
         49:e2:58:35:0b:58:8e:86:af:2a:ba:bc:f2:07:18:e1:12:82:
         f5:a0:f7:d8:20:85:b8:56:ad:4b:ca:95:ce:05:1c:05:91:5a:
         10:db:db:75:b4:6e:75:ec:3a:ce:a4:3c:e4:ae:96:c7:fc:fb:
         d0:60:0e:6d:ce:ee:a5:89:0c:38:f5:a4:f4:ae:dc:65:02:05:
         95:12:d3:d4:74:c0:92:eb:78:51:b9:2b:73:85:7e:32:ee:96:
         c2:fa:20:02:38:80:36:5e:50:f1:33:f7:66:3c:ac:30:cf:e8:
         50:a2:5d:15:34:8c:6a:81:59:55:f5:9b:e9:24:64:ec:9b:45:
         d9:96:a7:78:26:97:73:5d:49:47:ce:b4:e5:d0:47:80:a6:5d:
         b5:f7:51:ec:33:0b:22:ff:63:89:d4:a2:08:8d:01:0f:ff:fb:
         55:8c:1c:13:81:0f:d6:a9:68:48:13:ce:cc:72:5a:a7:51:74:
         af:4e:34:f4:b2:6a:fb:94:e6:71:04:a8:6d:5b:3b:4c:ab:81:
         ef:0a:4e:c6:0f:e6:ff:51:7d:a1:2c:da:0d:dd:c0:f2:d6:8a:
         ce:c8:fc:12:77:5b:58:5b:8b:f3:d1:7e:25:cf:4a:f7:09:30:
         56:5d:8b:5f
-----BEGIN CERTIFICATE-----
MIIFmTCCBIGgAwIBAgIQAt6VckFDF1McOj1SmJ6xHDANBgkqhkiG9w0BAQUFADCB
tDELMAkGA1UEBhMCVVMxFzAVBgNVBAoTDlZlcmlTaWduLCBJbmMuMR8wHQYDVQQL
ExZWZXJpU2lnbiBUcnVzdCBOZXR3b3JrMTswOQYDVQQLEzJUZXJtcyBvZiB1c2Ug
YXQgaHR0cHM6Ly93d3cudmVyaXNpZ24uY29tL3JwYSAoYykxMDEuMCwGA1UEAxMl
VmVyaVNpZ24gQ2xhc3MgMyBDb2RlIFNpZ25pbmcgMjAxMCBDQTAeFw0xMDEyMDYw
MDAwMDBaFw0xMzEyMjEyMzU5NTlaMIHcMQswCQYDVQQGEwJLUjETMBEGA1UECBMK
S3l1bmdraS1EbzEOMAwGA1UEBxMFU3V3b24xJjAkBgNVBAoUHVNhbXN1bmcgRWxl
Y3Ryb25pY3MgQ08uLCBMVEQuMT4wPAYDVQQLEzVEaWdpdGFsIElEIENsYXNzIDMg
LSBNaWNyb3NvZnQgU29mdHdhcmUgVmFsaWRhdGlvbiB2MjEYMBYGA1UECxQPQ29t
cHV0ZXIgU3lzdGVtMSYwJAYDVQQDFB1TYW1zdW5nIEVsZWN0cm9uaWNzIENPLiwg
TFRELjCCASIwDQYJKoZIhvcNAQEBBQADggEPADCCAQoCggEBAOtzrWKzPcIj52Cj
lUDMZyHaD2dRp53kjjNQcYbIKzQuD8/DweDXQtUHJpRjNkmQ0Vf6GFc68IHXPVOV
ObaAiVlSS+lx7LWXO0PtIexUXSQtrjmrDOoorPfeJ/5FVbyrnnZJBoR7h1sRqEIg
6G52e6ejL6ZOdf/F4kTQPK+mYz8MPVCbbhvAPQ0Wc5GSTfEzWUN1qtSWFTEF8lxP
vpcq2H1TczXBjkZl1xH3OjC3yJwaytd0nnHJODPhcJ2K3N73O1TL7WYFRKaSqM0H
x1lv9Z2n6WCuQnGaHOX2h2VVFMY92DAYkPNIx45xFWs6RBJH0BYzEymHxdmLMfQ5
kPVP8IsCAwEAAaOCAXswggF3MAkGA1UdEwQCMAAwDgYDVR0PAQH/BAQDAgeAMEAG
A1UdHwQ5MDcwNaAzoDGGL2h0dHA6Ly9jc2MzLTIwMTAtY3JsLnZlcmlzaWduLmNv
bS9DU0MzLTIwMTAuY3JsMEQGA1UdIAQ9MDswOQYLYIZIAYb4RQEHFwMwKjAoBggr
BgEFBQcCARYcaHR0cHM6Ly93d3cudmVyaXNpZ24uY29tL3JwYTATBgNVHSUEDDAK
BggrBgEFBQcDAzBxBggrBgEFBQcBAQRlMGMwJAYIKwYBBQUHMAGGGGh0dHA6Ly9v
Y3NwLnZlcmlzaWduLmNvbTA7BggrBgEFBQcwAoYvaHR0cDovL2NzYzMtMjAxMC1h
aWEudmVyaXNpZ24uY29tL0NTQzMtMjAxMC5jZXIwHwYDVR0jBBgwFoAUz5mp6nsm
9EvJjo/X8AUm7+PSp50wEQYJYIZIAYb4QgEBBAQDAgQQMBYGCisGAQQBgjcCARsE
CDAGAQEAAQH/MA0GCSqGSIb3DQEBBQUAA4IBAQAgV6n99QRaA30dmEzDixGONrdJ
4lg1C1iOhq8qurzyBxjhEoL1oPfYIIW4Vq1LypXOBRwFkVoQ29t1tG517DrOpDzk
rpbH/PvQYA5tzu6liQw49aT0rtxlAgWVEtPUdMCS63hRuStzhX4y7pbC+iACOIA2
XlDxM/dmPKwwz+hQol0VNIxqgVlV9ZvpJGTsm0XZlqd4JpdzXUlHzrTl0EeApl21
91HsMwsi/2OJ1KIIjQEP//tVjBwTgQ/WqWhIE87MclqnUXSvTjT0smr7lOZxBKht
WztMq4HvCk7GD+b/UX2hLNoN3cDy1orOyPwSd1tYW4vz0X4lz0r3CTBWXYtf
-----END CERTIFICATE-----

Certificate:
    Data:
        Version: 3 (0x2)
        Serial Number:
            52:00:e5:aa:25:56:fc:1a:86:ed:96:c9:d4:4b:33:c7
    Signature Algorithm: sha1WithRSAEncryption
        Issuer: C=US, O=VeriSign, Inc., OU=VeriSign Trust Network, OU=(c) 2006 VeriSign, Inc. - For authorized use only, CN=VeriSign Class 3 Public Primary Certification Authority - G5
        Validity
            Not Before: Feb  8 00:00:00 2010 GMT
            Not After : Feb  7 23:59:59 2020 GMT
        Subject: C=US, O=VeriSign, Inc., OU=VeriSign Trust Network, OU=Terms of use at https://www.verisign.com/rpa (c)10, CN=VeriSign Class 3 Code Signing 2010 CA
        Subject Public Key Info:
            Public Key Algorithm: rsaEncryption
                Public-Key: (2048 bit)
                Modulus:
                    00:f5:23:4b:5e:a5:d7:8a:bb:32:e9:d4:57:f7:ef:
                    e4:c7:26:7e:ad:19:98:fe:a8:9d:7d:94:f6:36:6b:
                    10:d7:75:81:30:7f:04:68:7f:cb:2b:75:1e:cd:1d:
                    08:8c:df:69:94:a7:37:a3:9c:7b:80:e0:99:e1:ee:
                    37:4d:5f:ce:3b:14:ee:86:d4:d0:f5:27:35:bc:25:
                    0b:38:a7:8c:63:9d:17:a3:08:a5:ab:b0:fb:cd:6a:
                    62:82:4c:d5:21:da:1b:d9:f1:e3:84:3b:8a:2a:4f:
                    85:5b:90:01:4f:c9:a7:76:10:7f:27:03:7c:be:ae:
                    7e:7d:c1:dd:f9:05:bc:1b:48:9c:69:e7:c0:a4:3c:
                    3c:41:00:3e:df:96:e5:c5:e4:94:71:d6:55:01:c7:
                    00:26:4a:40:3c:b5:a1:26:a9:0c:a7:6d:80:8e:90:
                    25:7b:cf:bf:3f:1c:eb:2f:96:fa:e5:87:77:c6:b5:
                    56:b2:7a:3b:54:30:53:1b:df:62:34:ff:1e:d1:f4:
                    5a:93:28:85:e5:4c:17:4e:7e:5b:fd:a4:93:99:7f:
                    df:cd:ef:a4:75:ef:ef:15:f6:47:e7:f8:19:72:d8:
                    2e:34:1a:a6:b4:a7:4c:7e:bd:bb:4f:0c:3d:57:f1:
                    30:d6:a6:36:8e:d6:80:76:d7:19:2e:a5:cd:7e:34:
                    2d:89
                Exponent: 65537 (0x10001)
        X509v3 extensions:
            X509v3 Basic Constraints: critical
                CA:TRUE, pathlen:0
            X509v3 Certificate Policies: 
                Policy: 2.16.840.1.113733.1.7.23.3
                  CPS: https://www.verisign.com/cps
                  User Notice:
                    Explicit Text: https://www.verisign.com/rpa

            X509v3 Key Usage: critical
                Certificate Sign, CRL Sign
            1.3.6.1.5.5.7.1.12: 
                0_.].[0Y0W0U..image/gif0!0.0...+..............k...j.H.,{..0%.#http://logo.verisign.com/vslogo.gif
            X509v3 CRL Distribution Points: 

                Full Name:
                  URI:http://crl.verisign.com/pca3-g5.crl

            Authority Information Access: 
                OCSP - URI:http://ocsp.verisign.com

            X509v3 Extended Key Usage: 
                TLS Web Client Authentication, Code Signing
            X509v3 Subject Alternative Name: 
                DirName:/CN=VeriSignMPKI-2-8
            X509v3 Subject Key Identifier: 
                CF:99:A9:EA:7B:26:F4:4B:C9:8E:8F:D7:F0:05:26:EF:E3:D2:A7:9D
            X509v3 Authority Key Identifier: 
                keyid:7F:D3:65:A7:C2:DD:EC:BB:F0:30:09:F3:43:39:FA:02:AF:33:31:33

    Signature Algorithm: sha1WithRSAEncryption
         56:22:e6:34:a4:c4:61:cb:48:b9:01:ad:56:a8:64:0f:d9:8c:
         91:c4:bb:cc:0c:e5:ad:7a:a0:22:7f:df:47:38:4a:2d:6c:d1:
         7f:71:1a:7c:ec:70:a9:b1:f0:4f:e4:0f:0c:53:fa:15:5e:fe:
         74:98:49:24:85:81:26:1c:91:14:47:b0:4c:63:8c:bb:a1:34:
         d4:c6:45:e8:0d:85:26:73:03:d0:a9:8c:64:6d:dc:71:92:e6:
         45:05:60:15:59:51:39:fc:58:14:6b:fe:d4:a4:ed:79:6b:08:
         0c:41:72:e7:37:22:06:09:be:23:e9:3f:44:9a:1e:e9:61:9d:
         cc:b1:90:5c:fc:3d:d2:8d:ac:42:3d:65:36:d4:b4:3d:40:28:
         8f:9b:10:cf:23:26:cc:4b:20:cb:90:1f:5d:8c:4c:34:ca:3c:
         d8:e5:37:d6:6f:a5:20:bd:34:eb:26:d9:ae:0d:e7:c5:9a:f7:
         a1:b4:21:91:33:6f:86:e8:58:bb:25:7c:74:0e:58:fe:75:1b:
         63:3f:ce:31:7c:9b:8f:1b:96:9e:c5:53:76:84:5b:9c:ad:91:
         fa:ac:ed:93:ba:5d:c8:21:53:c2:82:53:63:af:12:0d:50:87:
         11:1b:3d:54:52:96:8a:2c:9c:3d:92:1a:08:9a:05:2e:c7:93:
         a5:48:91:d3
-----BEGIN CERTIFICATE-----
MIIGCjCCBPKgAwIBAgIQUgDlqiVW/BqG7ZbJ1EszxzANBgkqhkiG9w0BAQUFADCB
yjELMAkGA1UEBhMCVVMxFzAVBgNVBAoTDlZlcmlTaWduLCBJbmMuMR8wHQYDVQQL
ExZWZXJpU2lnbiBUcnVzdCBOZXR3b3JrMTowOAYDVQQLEzEoYykgMjAwNiBWZXJp
U2lnbiwgSW5jLiAtIEZvciBhdXRob3JpemVkIHVzZSBvbmx5MUUwQwYDVQQDEzxW
ZXJpU2lnbiBDbGFzcyAzIFB1YmxpYyBQcmltYXJ5IENlcnRpZmljYXRpb24gQXV0
aG9yaXR5IC0gRzUwHhcNMTAwMjA4MDAwMDAwWhcNMjAwMjA3MjM1OTU5WjCBtDEL
MAkGA1UEBhMCVVMxFzAVBgNVBAoTDlZlcmlTaWduLCBJbmMuMR8wHQYDVQQLExZW
ZXJpU2lnbiBUcnVzdCBOZXR3b3JrMTswOQYDVQQLEzJUZXJtcyBvZiB1c2UgYXQg
aHR0cHM6Ly93d3cudmVyaXNpZ24uY29tL3JwYSAoYykxMDEuMCwGA1UEAxMlVmVy
aVNpZ24gQ2xhc3MgMyBDb2RlIFNpZ25pbmcgMjAxMCBDQTCCASIwDQYJKoZIhvcN
AQEBBQADggEPADCCAQoCggEBAPUjS16l14q7MunUV/fv5Mcmfq0ZmP6onX2U9jZr
ENd1gTB/BGh/yyt1Hs0dCIzfaZSnN6Oce4DgmeHuN01fzjsU7obU0PUnNbwlCzin
jGOdF6MIpauw+81qYoJM1SHaG9nx44Q7iipPhVuQAU/Jp3YQfycDfL6ufn3B3fkF
vBtInGnnwKQ8PEEAPt+W5cXklHHWVQHHACZKQDy1oSapDKdtgI6QJXvPvz8c6y+W
+uWHd8a1VrJ6O1QwUxvfYjT/HtH0WpMoheVMF05+W/2kk5l/383vpHXv7xX2R+f4
GXLYLjQaprSnTH69u08MPVfxMNamNo7WgHbXGS6lzX40LYkCAwEAAaOCAf4wggH6
MBIGA1UdEwEB/wQIMAYBAf8CAQAwcAYDVR0gBGkwZzBlBgtghkgBhvhFAQcXAzBW
MCgGCCsGAQUFBwIBFhxodHRwczovL3d3dy52ZXJpc2lnbi5jb20vY3BzMCoGCCsG
AQUFBwICMB4aHGh0dHBzOi8vd3d3LnZlcmlzaWduLmNvbS9ycGEwDgYDVR0PAQH/
BAQDAgEGMG0GCCsGAQUFBwEMBGEwX6FdoFswWTBXMFUWCWltYWdlL2dpZjAhMB8w
BwYFKw4DAhoEFI/l0xqGrI2Oa8PPgGrUSBgsexkuMCUWI2h0dHA6Ly9sb2dvLnZl
cmlzaWduLmNvbS92c2xvZ28uZ2lmMDQGA1UdHwQtMCswKaAnoCWGI2h0dHA6Ly9j
cmwudmVyaXNpZ24uY29tL3BjYTMtZzUuY3JsMDQGCCsGAQUFBwEBBCgwJjAkBggr
BgEFBQcwAYYYaHR0cDovL29jc3AudmVyaXNpZ24uY29tMB0GA1UdJQQWMBQGCCsG
AQUFBwMCBggrBgEFBQcDAzAoBgNVHREEITAfpB0wGzEZMBcGA1UEAxMQVmVyaVNp
Z25NUEtJLTItODAdBgNVHQ4EFgQUz5mp6nsm9EvJjo/X8AUm7+PSp50wHwYDVR0j
BBgwFoAUf9Nlp8Ld7LvwMAnzQzn6Aq8zMTMwDQYJKoZIhvcNAQEFBQADggEBAFYi
5jSkxGHLSLkBrVaoZA/ZjJHEu8wM5a16oCJ/30c4Si1s0X9xGnzscKmx8E/kDwxT
+hVe/nSYSSSFgSYckRRHsExjjLuhNNTGRegNhSZzA9CpjGRt3HGS5kUFYBVZUTn8
WBRr/tSk7XlrCAxBcuc3IgYJviPpP0SaHulhncyxkFz8PdKNrEI9ZTbUtD1AKI+b
EM8jJsxLIMuQH12MTDTKPNjlN9ZvpSC9NOsm2a4N58Wa96G0IZEzb4boWLslfHQO
WP51G2M/zjF8m48blp7FU3aEW5ytkfqs7ZO6XcghU8KCU2OvEg1QhxEbPVRSloos
nD2SGgiaBS7Hk6VIkdM=
-----END CERTIFICATE-----

