Certificate:
    Data:
        Version: 3 (0x2)
        Serial Number:
            38:cc:14:0e:0a:cd:4f:d3:da:b0:79:8b:63:b2:9d:36
    Signature Algorithm: sha256WithRSAEncryption
        Issuer: C=US, O=Symantec Corporation, OU=Symantec Trust Network, CN=Symantec Class 3 SHA256 Code Signing CA
        Validity
            Not Before: Oct  3 00:00:00 2017 GMT
            Not After : Oct  3 23:59:59 2018 GMT
        Subject: C=IL, L=Petah-Tikva, O=Exent Technologies Ltd., CN=Exent Technologies Ltd.
        Subject Public Key Info:
            Public Key Algorithm: rsaEncryption
                Public-Key: (2048 bit)
                Modulus:
                    00:c7:73:87:c6:80:5f:c6:bc:1a:70:93:c7:c5:78:
                    2b:b3:7c:44:56:6d:ff:38:ef:45:56:43:0c:6d:4d:
                    a8:12:52:5b:e1:eb:ad:f4:06:0d:a9:5d:6c:a3:a4:
                    bc:c9:1f:c1:b4:88:47:c0:37:59:9f:97:70:53:75:
                    e6:0c:b0:7c:37:c9:c5:e9:61:8e:e3:4e:89:70:c4:
                    79:47:f7:27:02:1a:54:0a:b4:5b:90:2d:74:6f:c3:
                    04:db:a1:bd:3d:ad:9b:1b:d7:f5:41:a3:6e:90:83:
                    27:01:09:de:82:10:80:5a:f6:e1:97:40:94:c2:fb:
                    ba:bf:46:3c:bf:06:f7:d5:da:75:b0:58:63:3e:e4:
                    94:6e:58:d9:01:e8:c7:38:a6:ac:4d:12:c1:8b:40:
                    0c:ad:10:91:b3:0a:4c:f0:df:22:f5:34:6d:9a:a6:
                    68:9a:2c:20:76:f2:21:e3:97:05:8e:0e:17:94:50:
                    25:f4:cb:58:07:bc:4a:fa:4d:96:18:47:dd:40:ad:
                    fa:3d:d7:fa:ca:85:10:fb:55:1b:2f:d8:67:32:63:
                    db:44:ea:89:9a:4b:44:4e:fe:5f:61:86:6a:22:c3:
                    af:80:45:a1:28:32:40:3e:cd:39:ae:07:17:f6:e6:
                    5c:b6:39:26:61:8c:97:e6:40:c6:30:36:af:85:93:
                    b8:d9
                Exponent: 65537 (0x10001)
        X509v3 extensions:
            X509v3 Basic Constraints: 
                CA:FALSE
            X509v3 Key Usage: critical
                Digital Signature
            X509v3 CRL Distribution Points: 

                Full Name:
                  URI:http://sv.symcb.com/sv.crl

            X509v3 Certificate Policies: 
                Policy: 2.23.140.1.4.1
                  CPS: https://d.symcb.com/cps
                  User Notice:
                    Explicit Text: https://d.symcb.com/rpa

            X509v3 Extended Key Usage: 
                Code Signing
            Authority Information Access: 
                OCSP - URI:http://sv.symcd.com
                CA Issuers - URI:http://sv.symcb.com/sv.crt

            X509v3 Authority Key Identifier: 
                keyid:96:3B:53:F0:79:33:97:AF:7D:83:EF:2E:2B:CC:CA:B7:86:1E:72:66

            X509v3 Subject Key Identifier: 
                1F:2E:81:8D:D0:6D:E9:BB:49:CC:CD:47:C4:64:67:78:21:AE:DD:7D
    Signature Algorithm: sha256WithRSAEncryption
         80:52:9d:30:04:d3:be:1e:17:21:c4:15:07:7a:42:fa:51:ee:
         55:86:18:3b:30:8d:82:ab:6f:34:d7:3b:69:92:5e:c5:81:c1:
         a6:98:73:2f:52:8b:44:40:2c:7e:cd:43:ca:dd:e6:12:11:c8:
         54:25:d6:f2:92:56:00:d7:79:4e:f7:a6:0b:14:1f:05:d0:e0:
         df:ee:ef:d8:e9:ac:38:8c:f2:73:6c:bf:5d:12:37:93:de:f0:
         1e:50:5c:23:1a:77:72:98:82:5b:b5:60:eb:5c:fb:dc:11:df:
         c4:ae:c0:29:2f:20:3c:23:bb:f6:d9:39:bb:56:36:01:bc:30:
         c4:1f:2a:2b:ae:35:fd:6c:8e:68:13:b4:c9:20:55:86:83:75:
         15:be:ce:1b:70:ce:07:62:a7:25:a9:fc:03:eb:fd:30:4e:76:
         6a:2a:94:87:da:fd:ab:80:1e:e1:ab:6e:1f:9a:01:1c:ff:64:
         b5:33:6f:5d:5d:33:77:ef:62:35:7b:fb:e5:ab:13:bb:a7:a3:
         a2:c0:a4:b6:b5:29:43:61:a4:0e:ba:ba:84:0a:ae:10:22:b1:
         a6:8d:1d:25:9f:03:b2:59:1c:94:ce:07:4a:ec:7e:97:aa:67:
         09:6a:ab:60:a3:b2:50:2d:dd:fe:e8:c0:9e:56:8c:94:e6:b9:
         4a:03:fe:df
-----BEGIN CERTIFICATE-----
MIIEzzCCA7egAwIBAgIQOMwUDgrNT9PasHmLY7KdNjANBgkqhkiG9w0BAQsFADB/
MQswCQYDVQQGEwJVUzEdMBsGA1UEChMUU3ltYW50ZWMgQ29ycG9yYXRpb24xHzAd
BgNVBAsTFlN5bWFudGVjIFRydXN0IE5ldHdvcmsxMDAuBgNVBAMTJ1N5bWFudGVj
IENsYXNzIDMgU0hBMjU2IENvZGUgU2lnbmluZyBDQTAeFw0xNzEwMDMwMDAwMDBa
Fw0xODEwMDMyMzU5NTlaMGcxCzAJBgNVBAYTAklMMRQwEgYDVQQHDAtQZXRhaC1U
aWt2YTEgMB4GA1UECgwXRXhlbnQgVGVjaG5vbG9naWVzIEx0ZC4xIDAeBgNVBAMM
F0V4ZW50IFRlY2hub2xvZ2llcyBMdGQuMIIBIjANBgkqhkiG9w0BAQEFAAOCAQ8A
MIIBCgKCAQEAx3OHxoBfxrwacJPHxXgrs3xEVm3/OO9FVkMMbU2oElJb4eut9AYN
qV1so6S8yR/BtIhHwDdZn5dwU3XmDLB8N8nF6WGO406JcMR5R/cnAhpUCrRbkC10
b8ME26G9Pa2bG9f1QaNukIMnAQneghCAWvbhl0CUwvu6v0Y8vwb31dp1sFhjPuSU
bljZAejHOKasTRLBi0AMrRCRswpM8N8i9TRtmqZomiwgdvIh45cFjg4XlFAl9MtY
B7xK+k2WGEfdQK36Pdf6yoUQ+1UbL9hnMmPbROqJmktETv5fYYZqIsOvgEWhKDJA
Ps05rgcX9uZctjkmYYyX5kDGMDavhZO42QIDAQABo4IBXTCCAVkwCQYDVR0TBAIw
ADAOBgNVHQ8BAf8EBAMCB4AwKwYDVR0fBCQwIjAgoB6gHIYaaHR0cDovL3N2LnN5
bWNiLmNvbS9zdi5jcmwwYQYDVR0gBFowWDBWBgZngQwBBAEwTDAjBggrBgEFBQcC
ARYXaHR0cHM6Ly9kLnN5bWNiLmNvbS9jcHMwJQYIKwYBBQUHAgIwGQwXaHR0cHM6
Ly9kLnN5bWNiLmNvbS9ycGEwEwYDVR0lBAwwCgYIKwYBBQUHAwMwVwYIKwYBBQUH
AQEESzBJMB8GCCsGAQUFBzABhhNodHRwOi8vc3Yuc3ltY2QuY29tMCYGCCsGAQUF
BzAChhpodHRwOi8vc3Yuc3ltY2IuY29tL3N2LmNydDAfBgNVHSMEGDAWgBSWO1Pw
eTOXr32D7y4rzMq3hh5yZjAdBgNVHQ4EFgQUHy6BjdBt6btJzM1HxGRneCGu3X0w
DQYJKoZIhvcNAQELBQADggEBAIBSnTAE074eFyHEFQd6QvpR7lWGGDswjYKrbzTX
O2mSXsWBwaaYcy9Si0RALH7NQ8rd5hIRyFQl1vKSVgDXeU73pgsUHwXQ4N/u79jp
rDiM8nNsv10SN5Pe8B5QXCMad3KYglu1YOtc+9wR38SuwCkvIDwju/bZObtWNgG8
MMQfKiuuNf1sjmgTtMkgVYaDdRW+zhtwzgdipyWp/APr/TBOdmoqlIfa/auAHuGr
bh+aARz/ZLUzb11dM3fvYjV7++WrE7uno6LApLa1KUNhpA66uoQKrhAisaaNHSWf
A7JZHJTOB0rsfpeqZwlqq2CjslAt3f7owJ5WjJTmuUoD/t8=
-----END CERTIFICATE-----

Certificate:
    Data:
        Version: 3 (0x2)
        Serial Number:
            3d:78:d7:f9:76:49:60:b2:61:7d:f4:f0:1e:ca:86:2a
    Signature Algorithm: sha256WithRSAEncryption
        Issuer: C=US, O=VeriSign, Inc., OU=VeriSign Trust Network, OU=(c) 2006 VeriSign, Inc. - For authorized use only, CN=VeriSign Class 3 Public Primary Certification Authority - G5
        Validity
            Not Before: Dec 10 00:00:00 2013 GMT
            Not After : Dec  9 23:59:59 2023 GMT
        Subject: C=US, O=Symantec Corporation, OU=Symantec Trust Network, CN=Symantec Class 3 SHA256 Code Signing CA
        Subject Public Key Info:
            Public Key Algorithm: rsaEncryption
                Public-Key: (2048 bit)
                Modulus:
                    00:97:83:1e:00:16:af:2c:b1:d2:08:c4:d7:68:93:
                    51:60:1e:71:f6:e2:47:b4:db:58:4d:23:62:6a:b4:
                    bf:5a:1b:51:f7:a3:0d:18:77:68:bb:d8:36:ab:2f:
                    21:50:da:9e:f3:e7:5f:27:4e:0b:c2:97:c8:09:70:
                    93:a9:da:5c:0d:4e:a4:0d:91:a0:b4:ec:14:ce:91:
                    72:54:2e:ce:a3:db:44:e9:52:1b:3f:41:3c:ca:4a:
                    e4:aa:c0:e8:39:ab:53:cc:21:d0:cc:cf:7f:9b:e6:
                    c2:cc:58:6a:82:15:ee:3d:36:cf:1c:c5:97:07:24:
                    8e:f1:7b:be:31:2d:3d:6e:dc:b5:99:42:9f:4b:61:
                    95:5f:1c:70:ee:17:7d:db:8b:e5:61:89:78:c7:68:
                    1b:af:11:78:1a:98:ae:c4:55:47:53:d9:b3:32:d6:
                    a1:0e:46:40:c5:97:92:8a:d1:53:a7:99:5b:85:35:
                    57:d3:ea:93:62:61:20:0a:c7:30:77:24:11:4d:62:
                    83:b6:ba:7b:68:82:31:ee:65:ca:df:f9:d5:8d:b2:
                    35:dc:8c:2b:6f:6a:72:5c:60:84:9c:f2:0c:94:5e:
                    c0:56:52:00:48:cc:d3:f8:a5:7d:de:2f:d7:13:e4:
                    38:a8:84:d5:46:b8:13:86:c2:1b:9d:ea:5a:38:dd:
                    9b:db
                Exponent: 65537 (0x10001)
        X509v3 extensions:
            Authority Information Access: 
                OCSP - URI:http://s2.symcb.com

            X509v3 Basic Constraints: critical
                CA:TRUE, pathlen:0
            X509v3 Certificate Policies: 
                Policy: 2.16.840.1.113733.1.7.23.3
                  CPS: http://www.symauth.com/cps
                  User Notice:
                    Explicit Text: http://www.symauth.com/rpa

            X509v3 CRL Distribution Points: 

                Full Name:
                  URI:http://s1.symcb.com/pca3-g5.crl

            X509v3 Extended Key Usage: 
                TLS Web Client Authentication, Code Signing
            X509v3 Key Usage: critical
                Certificate Sign, CRL Sign
            X509v3 Subject Alternative Name: 
                DirName:/CN=SymantecPKI-1-567
            X509v3 Subject Key Identifier: 
                96:3B:53:F0:79:33:97:AF:7D:83:EF:2E:2B:CC:CA:B7:86:1E:72:66
            X509v3 Authority Key Identifier: 
                keyid:7F:D3:65:A7:C2:DD:EC:BB:F0:30:09:F3:43:39:FA:02:AF:33:31:33

    Signature Algorithm: sha256WithRSAEncryption
         13:85:1a:1e:69:a9:37:f7:a0:bd:a4:af:7e:1d:61:53:fe:9d:
         8c:5e:0c:a6:75:1e:78:17:23:dd:fd:ec:1a:03:55:39:fb:71:
         95:c7:65:5a:a7:8e:30:d2:44:5a:61:db:70:6f:da:21:05:c2:
         2e:73:ba:49:f1:d1:93:fe:5d:c9:cd:5e:03:e0:89:9e:3f:74:
         1e:d7:f7:38:8b:a9:d6:cf:bb:35:2f:33:58:a8:92:56:d1:c8:
         4d:3b:82:e6:79:84:16:fc:28:b0:b1:47:f3:1d:a2:3e:ee:87:
         d9:a6:7f:a4:56:a5:3f:ad:84:2e:29:de:7c:bc:a8:aa:a3:3d:
         04:01:ea:ba:93:a2:0e:50:22:29:17:4c:87:e4:3a:11:5f:d6:
         a4:25:89:9b:05:6b:2f:b4:c9:01:4c:27:7b:0b:ac:19:05:22:
         a0:60:15:3f:da:c9:fb:4d:4c:8f:fb:72:67:77:fd:27:94:c7:
         ba:35:0e:88:49:fe:8d:fd:28:af:4a:12:bd:0d:b3:97:05:de:
         44:0c:15:fa:36:2b:03:dc:c1:50:01:f1:a1:11:5d:14:e5:e2:
         bd:27:4b:54:be:2b:84:5e:0f:a6:c3:74:05:0a:ef:97:c3:89:
         22:b1:1f:77:f3:bd:cd:43:d4:f1:4c:a9:3f:b5:8b:84:af:64:
         f2:d0:14:21
-----BEGIN CERTIFICATE-----
MIIFWTCCBEGgAwIBAgIQPXjX+XZJYLJhffTwHsqGKjANBgkqhkiG9w0BAQsFADCB
yjELMAkGA1UEBhMCVVMxFzAVBgNVBAoTDlZlcmlTaWduLCBJbmMuMR8wHQYDVQQL
ExZWZXJpU2lnbiBUcnVzdCBOZXR3b3JrMTowOAYDVQQLEzEoYykgMjAwNiBWZXJp
U2lnbiwgSW5jLiAtIEZvciBhdXRob3JpemVkIHVzZSBvbmx5MUUwQwYDVQQDEzxW
ZXJpU2lnbiBDbGFzcyAzIFB1YmxpYyBQcmltYXJ5IENlcnRpZmljYXRpb24gQXV0
aG9yaXR5IC0gRzUwHhcNMTMxMjEwMDAwMDAwWhcNMjMxMjA5MjM1OTU5WjB/MQsw
CQYDVQQGEwJVUzEdMBsGA1UEChMUU3ltYW50ZWMgQ29ycG9yYXRpb24xHzAdBgNV
BAsTFlN5bWFudGVjIFRydXN0IE5ldHdvcmsxMDAuBgNVBAMTJ1N5bWFudGVjIENs
YXNzIDMgU0hBMjU2IENvZGUgU2lnbmluZyBDQTCCASIwDQYJKoZIhvcNAQEBBQAD
ggEPADCCAQoCggEBAJeDHgAWryyx0gjE12iTUWAecfbiR7TbWE0jYmq0v1obUfej
DRh3aLvYNqsvIVDanvPnXydOC8KXyAlwk6naXA1OpA2RoLTsFM6RclQuzqPbROlS
Gz9BPMpK5KrA6DmrU8wh0MzPf5vmwsxYaoIV7j02zxzFlwckjvF7vjEtPW7ctZlC
n0thlV8ccO4XfduL5WGJeMdoG68ReBqYrsRVR1PZszLWoQ5GQMWXkorRU6eZW4U1
V9Pqk2JhIArHMHckEU1ig7a6e2iCMe5lyt/51Y2yNdyMK29qclxghJzyDJRewFZS
AEjM0/ilfd4v1xPkOKiE1Ua4E4bCG53qWjjdm9sCAwEAAaOCAYMwggF/MC8GCCsG
AQUFBwEBBCMwITAfBggrBgEFBQcwAYYTaHR0cDovL3MyLnN5bWNiLmNvbTASBgNV
HRMBAf8ECDAGAQH/AgEAMGwGA1UdIARlMGMwYQYLYIZIAYb4RQEHFwMwUjAmBggr
BgEFBQcCARYaaHR0cDovL3d3dy5zeW1hdXRoLmNvbS9jcHMwKAYIKwYBBQUHAgIw
HBoaaHR0cDovL3d3dy5zeW1hdXRoLmNvbS9ycGEwMAYDVR0fBCkwJzAloCOgIYYf
aHR0cDovL3MxLnN5bWNiLmNvbS9wY2EzLWc1LmNybDAdBgNVHSUEFjAUBggrBgEF
BQcDAgYIKwYBBQUHAwMwDgYDVR0PAQH/BAQDAgEGMCkGA1UdEQQiMCCkHjAcMRow
GAYDVQQDExFTeW1hbnRlY1BLSS0xLTU2NzAdBgNVHQ4EFgQUljtT8Hkzl699g+8u
K8zKt4YecmYwHwYDVR0jBBgwFoAUf9Nlp8Ld7LvwMAnzQzn6Aq8zMTMwDQYJKoZI
hvcNAQELBQADggEBABOFGh5pqTf3oL2kr34dYVP+nYxeDKZ1HngXI9397BoDVTn7
cZXHZVqnjjDSRFph23Bv2iEFwi5zuknx0ZP+XcnNXgPgiZ4/dB7X9ziLqdbPuzUv
M1ioklbRyE07guZ5hBb8KLCxR/Mdoj7uh9mmf6RWpT+thC4p3ny8qKqjPQQB6rqT
og5QIikXTIfkOhFf1qQliZsFay+0yQFMJ3sLrBkFIqBgFT/ayftNTI/7cmd3/SeU
x7o1DohJ/o39KK9KEr0Ns5cF3kQMFfo2KwPcwVAB8aERXRTl4r0nS1S+K4ReD6bD
dAUK75fDiSKxH3fzvc1D1PFMqT+1i4SvZPLQFCE=
-----END CERTIFICATE-----

