Certificate:
    Data:
        Version: 3 (0x2)
        Serial Number:
            23:db:3e:48:84:b9:59:66:54:bd:b5:c1:86:35:03:1c
    Signature Algorithm: sha256WithRSAEncryption
        Issuer: C=GB, ST=Greater Manchester, L=Salford, O=COMODO CA Limited, CN=COMODO RSA Code Signing CA
        Validity
            Not Before: Nov 27 00:00:00 2016 GMT
            Not After : Nov 27 23:59:59 2017 GMT
        Subject: C=GB/postalCode=CW9 6PX, ST=Cheshire, L=Northwich/street=10 Pheasant Drive, Wincham/postOfficeBox=CW9 6PX, O=Northcat Ltd, CN=Northcat Ltd
        Subject Public Key Info:
            Public Key Algorithm: rsaEncryption
                Public-Key: (2048 bit)
                Modulus:
                    00:e6:e0:4b:76:70:2e:32:73:fc:5a:e5:09:d8:26:
                    fb:e5:ca:3c:c5:82:01:bf:69:f5:a1:4d:54:36:b4:
                    ad:56:78:e2:8c:14:96:eb:66:01:9d:a0:48:68:5f:
                    9c:22:36:b2:43:fb:22:8a:82:4a:09:2c:f8:d5:1a:
                    fb:e2:ef:ca:58:0d:f6:0d:d8:79:d3:8f:1a:86:72:
                    d9:4f:0a:5e:a4:c4:c5:47:fe:b6:f8:08:b2:b1:48:
                    ac:1b:2e:b2:6a:cf:87:08:63:d3:09:66:c7:20:b8:
                    0d:ab:f7:9d:50:b7:b1:c7:54:24:43:95:bb:6e:20:
                    ef:44:30:be:8c:ba:23:34:ab:e5:fe:7a:6d:71:18:
                    9e:bc:7b:3b:78:bb:76:d1:49:5f:4c:1a:9c:ed:2c:
                    df:fa:13:f3:37:da:dd:fa:17:40:28:94:ce:bf:31:
                    13:7f:80:29:59:4e:99:ad:8d:30:f9:c7:71:1d:dd:
                    05:cf:c2:ff:1f:b7:e8:9f:a5:b4:c9:ed:0f:46:41:
                    93:5d:c5:26:ab:01:25:84:f7:55:bf:84:85:d2:d1:
                    3c:d1:58:88:40:7a:fe:45:c0:65:9d:eb:e5:04:ca:
                    66:5b:a5:78:9f:4f:20:ab:44:3a:f0:f1:ef:8e:4a:
                    9d:07:04:3c:e9:99:fc:74:89:e5:2d:7e:1e:12:99:
                    03:43
                Exponent: 65537 (0x10001)
        X509v3 extensions:
            X509v3 Authority Key Identifier: 
                keyid:29:91:60:FF:8A:4D:FA:EB:F9:A6:6A:B8:CF:F9:E6:4B:BD:49:CE:12

            X509v3 Subject Key Identifier: 
                CA:6B:C8:29:86:1E:B3:6F:75:17:5F:73:E5:93:8C:80:6F:58:66:7D
            X509v3 Key Usage: critical
                Digital Signature
            X509v3 Basic Constraints: critical
                CA:FALSE
            X509v3 Extended Key Usage: 
                Code Signing
            Netscape Cert Type: 
                Object Signing
            X509v3 Certificate Policies: 
                Policy: 1.3.6.1.4.1.6449.1.2.1.3.2
                  CPS: https://secure.comodo.net/CPS

            X509v3 CRL Distribution Points: 

                Full Name:
                  URI:http://crl.comodoca.com/COMODORSACodeSigningCA.crl

            Authority Information Access: 
                CA Issuers - URI:http://crt.comodoca.com/COMODORSACodeSigningCA.crt
                OCSP - URI:http://ocsp.comodoca.com

            X509v3 Subject Alternative Name: 
                email:admin@northcat.co.uk
    Signature Algorithm: sha256WithRSAEncryption
         12:24:5d:13:cd:8e:b4:2b:5e:73:26:b2:db:d7:ba:2c:ac:33:
         64:16:de:4f:4e:6f:8f:24:5d:87:69:f1:63:7a:91:ae:6e:51:
         07:12:6d:bb:ed:ba:64:3f:5d:4e:b4:ac:96:08:97:76:32:8d:
         f1:31:68:1a:0f:28:93:52:da:f9:90:bd:c8:b8:72:4b:69:07:
         d6:8a:2f:3b:43:0a:59:40:fe:5a:40:72:29:5b:f3:37:b7:a0:
         9b:76:ac:79:90:38:9d:23:ec:e1:61:7e:25:b1:61:1f:1c:92:
         9d:84:c8:7c:bd:ae:76:09:c2:0f:1b:7f:45:15:4b:91:a0:99:
         2e:a0:a9:31:67:ca:d7:9a:3a:1b:6f:6c:5e:1a:6c:ed:e8:9a:
         ee:fe:f3:83:59:84:8d:c0:1a:64:24:e4:34:32:bc:c3:9a:dc:
         18:8f:ba:0b:d1:d8:56:c0:9d:bd:10:0e:ae:6b:0a:85:4d:ec:
         0c:60:95:c4:c9:86:27:8d:c1:83:b6:74:c4:e7:ed:0c:8f:d1:
         46:22:2f:9c:38:05:7f:65:27:e8:25:a1:f9:72:50:0c:db:fe:
         f1:bf:31:6b:e1:46:36:7f:89:9a:ff:d0:78:61:06:f7:15:27:
         be:14:2d:c0:c7:38:ad:77:a8:25:47:d7:98:4b:8e:8b:1f:20:
         aa:f3:22:75
-----BEGIN CERTIFICATE-----
MIIFYzCCBEugAwIBAgIQI9s+SIS5WWZUvbXBhjUDHDANBgkqhkiG9w0BAQsFADB9
MQswCQYDVQQGEwJHQjEbMBkGA1UECBMSR3JlYXRlciBNYW5jaGVzdGVyMRAwDgYD
VQQHEwdTYWxmb3JkMRowGAYDVQQKExFDT01PRE8gQ0EgTGltaXRlZDEjMCEGA1UE
AxMaQ09NT0RPIFJTQSBDb2RlIFNpZ25pbmcgQ0EwHhcNMTYxMTI3MDAwMDAwWhcN
MTcxMTI3MjM1OTU5WjCBqzELMAkGA1UEBhMCR0IxEDAOBgNVBBEMB0NXOSA2UFgx
ETAPBgNVBAgMCENoZXNoaXJlMRIwEAYDVQQHDAlOb3J0aHdpY2gxIzAhBgNVBAkM
GjEwIFBoZWFzYW50IERyaXZlLCBXaW5jaGFtMRAwDgYDVQQSDAdDVzkgNlBYMRUw
EwYDVQQKDAxOb3J0aGNhdCBMdGQxFTATBgNVBAMMDE5vcnRoY2F0IEx0ZDCCASIw
DQYJKoZIhvcNAQEBBQADggEPADCCAQoCggEBAObgS3ZwLjJz/FrlCdgm++XKPMWC
Ab9p9aFNVDa0rVZ44owUlutmAZ2gSGhfnCI2skP7IoqCSgks+NUa++LvylgN9g3Y
edOPGoZy2U8KXqTExUf+tvgIsrFIrBsusmrPhwhj0wlmxyC4Dav3nVC3scdUJEOV
u24g70Qwvoy6IzSr5f56bXEYnrx7O3i7dtFJX0wanO0s3/oT8zfa3foXQCiUzr8x
E3+AKVlOma2NMPnHcR3dBc/C/x+36J+ltMntD0ZBk13FJqsBJYT3Vb+EhdLRPNFY
iEB6/kXAZZ3r5QTKZluleJ9PIKtEOvDx745KnQcEPOmZ/HSJ5S1+HhKZA0MCAwEA
AaOCAa4wggGqMB8GA1UdIwQYMBaAFCmRYP+KTfrr+aZquM/55ku9Sc4SMB0GA1Ud
DgQWBBTKa8gphh6zb3UXX3Plk4yAb1hmfTAOBgNVHQ8BAf8EBAMCB4AwDAYDVR0T
AQH/BAIwADATBgNVHSUEDDAKBggrBgEFBQcDAzARBglghkgBhvhCAQEEBAMCBBAw
RgYDVR0gBD8wPTA7BgwrBgEEAbIxAQIBAwIwKzApBggrBgEFBQcCARYdaHR0cHM6
Ly9zZWN1cmUuY29tb2RvLm5ldC9DUFMwQwYDVR0fBDwwOjA4oDagNIYyaHR0cDov
L2NybC5jb21vZG9jYS5jb20vQ09NT0RPUlNBQ29kZVNpZ25pbmdDQS5jcmwwdAYI
KwYBBQUHAQEEaDBmMD4GCCsGAQUFBzAChjJodHRwOi8vY3J0LmNvbW9kb2NhLmNv
bS9DT01PRE9SU0FDb2RlU2lnbmluZ0NBLmNydDAkBggrBgEFBQcwAYYYaHR0cDov
L29jc3AuY29tb2RvY2EuY29tMB8GA1UdEQQYMBaBFGFkbWluQG5vcnRoY2F0LmNv
LnVrMA0GCSqGSIb3DQEBCwUAA4IBAQASJF0TzY60K15zJrLb17osrDNkFt5PTm+P
JF2HafFjepGublEHEm277bpkP11OtKyWCJd2Mo3xMWgaDyiTUtr5kL3IuHJLaQfW
ii87QwpZQP5aQHIpW/M3t6Cbdqx5kDidI+zhYX4lsWEfHJKdhMh8va52CcIPG39F
FUuRoJkuoKkxZ8rXmjobb2xeGmzt6Jru/vODWYSNwBpkJOQ0MrzDmtwYj7oL0dhW
wJ29EA6uawqFTewMYJXEyYYnjcGDtnTE5+0Mj9FGIi+cOAV/ZSfoJaH5clAM2/7x
vzFr4UY2f4ma/9B4YQb3FSe+FC3Axzitd6glR9eYS46LHyCq8yJ1
-----END CERTIFICATE-----

Certificate:
    Data:
        Version: 3 (0x2)
        Serial Number:
            2e:7c:87:cc:0e:93:4a:52:fe:94:fd:1c:b7:cd:34:af
    Signature Algorithm: sha384WithRSAEncryption
        Issuer: C=GB, ST=Greater Manchester, L=Salford, O=COMODO CA Limited, CN=COMODO RSA Certification Authority
        Validity
            Not Before: May  9 00:00:00 2013 GMT
            Not After : May  8 23:59:59 2028 GMT
        Subject: C=GB, ST=Greater Manchester, L=Salford, O=COMODO CA Limited, CN=COMODO RSA Code Signing CA
        Subject Public Key Info:
            Public Key Algorithm: rsaEncryption
                Public-Key: (2048 bit)
                Modulus:
                    00:a6:98:90:63:77:91:34:7f:8a:d1:dd:e9:67:31:
                    11:eb:cc:1e:fd:31:1d:b3:b9:62:57:3f:93:bc:5b:
                    e3:9f:1e:24:32:11:27:6b:bc:51:91:a7:cf:9e:9e:
                    25:b3:5f:81:a8:18:0f:1d:1e:20:30:0e:fb:61:7b:
                    86:09:b3:e3:fd:a2:68:9d:1c:2c:9d:bf:72:e3:e4:
                    75:a0:e5:35:23:8e:c9:8a:ee:1a:0c:64:c7:d8:42:
                    a1:7b:b5:52:03:4b:3a:b0:8e:23:4b:4b:63:e0:22:
                    94:37:7b:d5:79:90:0a:14:18:51:2c:e6:fe:c1:12:
                    f0:1c:3f:61:61:0a:8c:a2:dc:f6:c3:30:aa:cd:28:
                    18:75:48:c1:79:5a:08:cd:bb:8c:55:8c:f7:d4:76:
                    90:3a:33:46:50:73:98:5c:f4:85:4a:6b:0f:80:dd:
                    5e:d6:bd:fd:a9:2f:c0:25:f5:f9:78:d7:8d:5f:10:
                    c2:44:55:3c:90:3c:31:46:cb:70:ae:07:a9:0a:e3:
                    af:c1:01:6f:90:1a:23:e2:5f:38:db:c6:08:5d:47:
                    b3:83:41:f0:2e:00:37:14:b9:12:aa:79:92:52:cd:
                    87:0f:7b:d8:62:29:a4:7e:30:bd:1b:b5:8c:72:b4:
                    48:f2:e3:e8:21:f9:5e:4c:62:79:8b:02:06:9f:7f:
                    d5:0b
                Exponent: 65537 (0x10001)
        X509v3 extensions:
            X509v3 Authority Key Identifier: 
                keyid:BB:AF:7E:02:3D:FA:A6:F1:3C:84:8E:AD:EE:38:98:EC:D9:32:32:D4

            X509v3 Subject Key Identifier: 
                29:91:60:FF:8A:4D:FA:EB:F9:A6:6A:B8:CF:F9:E6:4B:BD:49:CE:12
            X509v3 Key Usage: critical
                Digital Signature, Certificate Sign, CRL Sign
            X509v3 Basic Constraints: critical
                CA:TRUE, pathlen:0
            X509v3 Extended Key Usage: 
                Code Signing
            X509v3 Certificate Policies: 
                Policy: X509v3 Any Policy

            X509v3 CRL Distribution Points: 

                Full Name:
                  URI:http://crl.comodoca.com/COMODORSACertificationAuthority.crl

            Authority Information Access: 
                CA Issuers - URI:http://crt.comodoca.com/COMODORSAAddTrustCA.crt
                OCSP - URI:http://ocsp.comodoca.com

    Signature Algorithm: sha384WithRSAEncryption
         02:3f:02:39:c3:ee:f8:ca:3b:89:de:0c:6d:4d:b1:f1:4e:92:
         4f:af:c2:38:2c:04:cc:c5:63:11:ab:09:63:af:ab:a2:d7:02:
         3f:cc:6f:19:c3:3d:d6:1a:08:94:ff:25:d8:a9:88:a7:2b:10:
         1a:e0:9b:b1:07:22:1a:51:1c:3a:d4:e1:e9:09:bf:e6:24:74:
         af:1e:7b:16:31:6e:23:ef:54:51:2d:52:02:e2:75:08:05:4c:
         f1:b7:51:e1:51:00:c6:87:f6:6c:ee:10:44:76:57:6a:f1:df:
         58:6b:21:aa:49:d4:7c:37:4e:bd:ff:b6:75:54:40:18:36:57:
         67:11:cd:4f:02:e4:fe:f3:da:fc:75:17:db:ec:b7:f7:65:09:
         23:49:1f:43:57:83:ea:7e:20:77:61:c8:4d:f2:bb:65:4d:a8:
         f7:85:45:07:af:7a:69:27:65:90:29:40:8b:df:7b:3a:51:39:
         8c:a8:1f:70:79:ad:6d:42:20:a2:cf:0c:6c:03:8c:4c:cd:73:
         07:94:e7:5a:8e:3a:04:ba:a2:a1:7c:1f:cb:63:3a:15:a7:d4:
         15:1b:a7:52:47:32:a9:f4:bf:64:47:d1:aa:1f:53:4e:32:30:
         73:c2:6f:b7:78:82:9d:5c:ff:46:bb:6b:22:1d:88:0b:f8:1b:
         aa:34:a6:fc:8c:f5:dd:7f:65:8c:8c:31:57:31:d0:36:ec:47:
         a1:cf:cb:8b:a8:ef:1c:18:58:c5:06:77:ca:4b:9b:51:af:4c:
         08:4a:7a:8f:e2:a3:52:e2:8e:8e:cc:26:e4:b2:d8:e5:38:c2:
         a8:ed:c6:81:9c:35:6b:a9:58:61:4a:0a:97:b4:4b:42:b6:55:
         9d:be:99:e7:70:6d:59:f8:6d:2a:0c:7f:19:60:5f:0c:9a:88:
         6c:30:ac:52:09:90:16:1b:ff:2b:9d:db:d0:20:ca:89:ea:28:
         7e:32:8e:19:df:7b:48:33:1e:d7:65:f8:ae:c9:f8:83:14:93:
         76:7d:64:d0:8e:ce:be:35:7d:ff:72:31:4d:9f:9e:bd:1e:6c:
         2f:a8:8f:0c:06:50:fb:8c:27:b3:76:c9:f4:e6:d7:c3:34:e2:
         8c:87:21:86:61:fe:bf:55:74:e1:21:77:03:0a:68:6c:bb:e4:
         c9:a9:e6:cf:59:25:eb:7c:ec:45:0e:79:66:68:e8:22:cd:b8:
         ef:98:85:4d:96:11:3c:09:8a:d0:7f:bc:28:28:13:fb:6a:ca:
         54:8d:92:5c:cd:c2:65:98:06:9e:ce:48:5b:d4:b5:37:93:46:
         41:7c:07:dd:cf:fa:43:ef:ba:67:61:ff:7d:49:e0:bb:30:7d:
         5c:80:e3:e6:16:39:4b:a7
-----BEGIN CERTIFICATE-----
MIIF4DCCA8igAwIBAgIQLnyHzA6TSlL+lP0ct800rzANBgkqhkiG9w0BAQwFADCB
hTELMAkGA1UEBhMCR0IxGzAZBgNVBAgTEkdyZWF0ZXIgTWFuY2hlc3RlcjEQMA4G
A1UEBxMHU2FsZm9yZDEaMBgGA1UEChMRQ09NT0RPIENBIExpbWl0ZWQxKzApBgNV
BAMTIkNPTU9ETyBSU0EgQ2VydGlmaWNhdGlvbiBBdXRob3JpdHkwHhcNMTMwNTA5
MDAwMDAwWhcNMjgwNTA4MjM1OTU5WjB9MQswCQYDVQQGEwJHQjEbMBkGA1UECBMS
R3JlYXRlciBNYW5jaGVzdGVyMRAwDgYDVQQHEwdTYWxmb3JkMRowGAYDVQQKExFD
T01PRE8gQ0EgTGltaXRlZDEjMCEGA1UEAxMaQ09NT0RPIFJTQSBDb2RlIFNpZ25p
bmcgQ0EwggEiMA0GCSqGSIb3DQEBAQUAA4IBDwAwggEKAoIBAQCmmJBjd5E0f4rR
3elnMRHrzB79MR2zuWJXP5O8W+OfHiQyESdrvFGRp8+eniWzX4GoGA8dHiAwDvth
e4YJs+P9omidHCydv3Lj5HWg5TUjjsmK7hoMZMfYQqF7tVIDSzqwjiNLS2PgIpQ3
e9V5kAoUGFEs5v7BEvAcP2FhCoyi3PbDMKrNKBh1SMF5WgjNu4xVjPfUdpA6M0ZQ
c5hc9IVKaw+A3V7Wvf2pL8Al9fl4141fEMJEVTyQPDFGy3CuB6kK46/BAW+QGiPi
XzjbxghdR7ODQfAuADcUuRKqeZJSzYcPe9hiKaR+ML0btYxytEjy4+gh+V5MYnmL
Agaff9ULAgMBAAGjggFRMIIBTTAfBgNVHSMEGDAWgBS7r34CPfqm8TyEjq3uOJjs
2TIy1DAdBgNVHQ4EFgQUKZFg/4pN+uv5pmq4z/nmS71JzhIwDgYDVR0PAQH/BAQD
AgGGMBIGA1UdEwEB/wQIMAYBAf8CAQAwEwYDVR0lBAwwCgYIKwYBBQUHAwMwEQYD
VR0gBAowCDAGBgRVHSAAMEwGA1UdHwRFMEMwQaA/oD2GO2h0dHA6Ly9jcmwuY29t
b2RvY2EuY29tL0NPTU9ET1JTQUNlcnRpZmljYXRpb25BdXRob3JpdHkuY3JsMHEG
CCsGAQUFBwEBBGUwYzA7BggrBgEFBQcwAoYvaHR0cDovL2NydC5jb21vZG9jYS5j
b20vQ09NT0RPUlNBQWRkVHJ1c3RDQS5jcnQwJAYIKwYBBQUHMAGGGGh0dHA6Ly9v
Y3NwLmNvbW9kb2NhLmNvbTANBgkqhkiG9w0BAQwFAAOCAgEAAj8COcPu+Mo7id4M
bU2x8U6ST6/COCwEzMVjEasJY6+rotcCP8xvGcM91hoIlP8l2KmIpysQGuCbsQci
GlEcOtTh6Qm/5iR0rx57FjFuI+9UUS1SAuJ1CAVM8bdR4VEAxof2bO4QRHZXavHf
WGshqknUfDdOvf+2dVRAGDZXZxHNTwLk/vPa/HUX2+y392UJI0kfQ1eD6n4gd2HI
TfK7ZU2o94VFB696aSdlkClAi997OlE5jKgfcHmtbUIgos8MbAOMTM1zB5TnWo46
BLqioXwfy2M6FafUFRunUkcyqfS/ZEfRqh9TTjIwc8Jvt3iCnVz/RrtrIh2IC/gb
qjSm/Iz13X9ljIwxVzHQNuxHoc/Li6jvHBhYxQZ3ykubUa9MCEp6j+KjUuKOjswm
5LLY5TjCqO3GgZw1a6lYYUoKl7RLQrZVnb6Z53BtWfhtKgx/GWBfDJqIbDCsUgmQ
Fhv/K53b0CDKieoofjKOGd97SDMe12X4rsn4gxSTdn1k0I7OvjV9/3IxTZ+evR5s
L6iPDAZQ+4wns3bJ9ObXwzTijIchhmH+v1V04SF3AwpobLvkyanmz1kl63zsRQ55
ZmjoIs2475iFTZYRPAmK0H+8KCgT+2rKVI2SXM3CZZgGns5IW9S1N5NGQXwH3c/6
Q++6Z2H/fUnguzB9XIDj5hY5S6c=
-----END CERTIFICATE-----

