Certificate:
    Data:
        Version: 3 (0x2)
        Serial Number:
            48:1b:6a:07:a9:42:4c:1e:aa:fe:f3:cd:f1:0f
    Signature Algorithm: sha256WithRSAEncryption
        Issuer: OU=GlobalSign Root CA - R3, O=GlobalSign, CN=GlobalSign
        Validity
            Not Before: Jun 15 00:00:00 2016 GMT
            Not After : Jun 15 00:00:00 2024 GMT
        Subject: C=BE, O=GlobalSign nv-sa, CN=GlobalSign Extended Validation CodeSigning CA - SHA256 - G3
        Subject Public Key Info:
            Public Key Algorithm: rsaEncryption
                Public-Key: (2048 bit)
                Modulus:
                    00:d9:b7:ba:25:ad:94:f3:5b:be:41:06:1c:53:ca:
                    0c:10:8c:51:41:59:33:79:64:f4:57:9d:e4:d5:25:
                    c4:ec:50:84:58:98:72:79:40:e2:2f:78:d4:92:ea:
                    26:0e:9e:ae:95:7c:fb:c4:fd:71:44:dd:8c:5f:b7:
                    23:8b:5e:bb:f4:fc:4b:cb:23:3d:c3:76:03:f5:d1:
                    8c:45:bc:71:75:1d:8b:d2:89:89:be:e3:51:3d:c6:
                    c8:8a:b2:31:35:07:6e:b9:f5:ba:6a:0d:f4:10:9f:
                    ae:d5:62:49:28:7b:ec:57:ba:ab:32:7c:b1:7d:d2:
                    a2:56:06:36:ee:b0:ef:d0:6a:ae:ea:ab:1f:d6:0d:
                    9f:7c:96:fb:ad:70:99:2d:5d:95:f0:80:d0:79:46:
                    ec:55:3a:cc:d3:38:fb:04:07:a8:07:75:82:82:e0:
                    d0:7e:77:b8:8f:eb:d2:28:fc:ae:6d:14:68:41:7f:
                    76:43:d7:48:ba:60:44:e1:b7:72:e8:d0:f0:20:03:
                    7b:da:da:b4:06:75:c7:b2:03:de:f8:94:c6:68:8f:
                    5e:7b:9e:9b:9d:36:e0:ce:d2:6b:c6:c6:6b:e9:14:
                    22:b5:71:7e:b6:8f:5a:1f:db:e7:6e:f4:42:10:90:
                    68:e6:2b:45:10:4f:73:ba:2c:d7:c5:31:6a:72:dd:
                    63:73
                Exponent: 65537 (0x10001)
        X509v3 extensions:
            X509v3 Key Usage: critical
                Certificate Sign, CRL Sign
            X509v3 Extended Key Usage: 
                Code Signing, OCSP Signing
            X509v3 Basic Constraints: critical
                CA:TRUE, pathlen:0
            X509v3 Subject Key Identifier: 
                DC:2C:58:2C:2A:6F:35:2D:9F:79:95:A8:48:5D:C4:6D:3E:53:BF:B9
            X509v3 Authority Key Identifier: 
                keyid:8F:F0:4B:7F:A8:2E:45:24:AE:4D:50:FA:63:9A:8B:DE:E2:DD:1B:BC

            Authority Information Access: 
                OCSP - URI:http://ocsp2.globalsign.com/rootr3

            X509v3 CRL Distribution Points: 

                Full Name:
                  URI:http://crl.globalsign.com/root-r3.crl

            X509v3 Certificate Policies: 
                Policy: 1.3.6.1.4.1.4146.1.2
                Policy: 2.23.140.1.3
                Policy: 1.3.6.1.4.1.4146.1.95
                  CPS: https://www.globalsign.com/repository/

    Signature Algorithm: sha256WithRSAEncryption
         76:09:c4:cc:2f:d9:ef:1e:4b:a9:f8:57:f3:40:39:21:ca:4c:
         3c:1d:9e:29:2b:20:d4:2b:44:d2:88:ce:1a:0d:05:cf:83:81:
         bb:eb:69:bc:31:8d:2a:c4:c7:44:cc:60:60:94:1c:cf:a1:e1:
         02:24:0e:ad:5b:be:2c:c2:27:1e:67:b7:e8:28:1f:32:51:e3:
         39:f3:98:df:b8:9f:2e:8b:2a:b4:7b:0a:03:bc:bd:36:04:8f:
         c9:d0:9c:4f:a3:02:27:99:b0:f0:45:e9:34:df:e4:3a:a3:b7:
         06:37:d8:6f:2a:79:90:d4:d4:4e:58:71:ec:53:a9:61:98:f7:
         39:69:e0:12:9c:57:58:72:86:27:29:a5:1d:e5:32:f3:2b:99:
         97:5a:bf:2b:b0:3c:b4:06:ea:0e:64:ec:b7:cd:65:80:24:17:
         c2:d9:37:f5:b1:26:10:35:47:7b:9a:02:ba:54:a2:45:93:ff:
         79:bf:1a:8c:c5:9f:b5:9f:df:78:e7:6b:50:f1:47:94:69:4b:
         24:b8:da:05:e8:0c:9d:4f:06:ec:4a:31:20:7e:4f:5d:86:84:
         2f:35:a3:cd:9c:c1:84:57:1f:1f:ad:c0:e2:a4:b1:ef:29:6b:
         21:97:a6:d4:fe:ed:03:37:b0:fc:f5:8d:2a:bc:dc:84:83:e3:
         de:c3:e7:5f
-----BEGIN CERTIFICATE-----
MIIEpzCCA4+gAwIBAgIOSBtqB6lCTB6q/vPN8Q8wDQYJKoZIhvcNAQELBQAwTDEg
MB4GA1UECxMXR2xvYmFsU2lnbiBSb290IENBIC0gUjMxEzARBgNVBAoTCkdsb2Jh
bFNpZ24xEzARBgNVBAMTCkdsb2JhbFNpZ24wHhcNMTYwNjE1MDAwMDAwWhcNMjQw
NjE1MDAwMDAwWjBuMQswCQYDVQQGEwJCRTEZMBcGA1UEChMQR2xvYmFsU2lnbiBu
di1zYTFEMEIGA1UEAxM7R2xvYmFsU2lnbiBFeHRlbmRlZCBWYWxpZGF0aW9uIENv
ZGVTaWduaW5nIENBIC0gU0hBMjU2IC0gRzMwggEiMA0GCSqGSIb3DQEBAQUAA4IB
DwAwggEKAoIBAQDZt7olrZTzW75BBhxTygwQjFFBWTN5ZPRXneTVJcTsUIRYmHJ5
QOIveNSS6iYOnq6VfPvE/XFE3YxftyOLXrv0/EvLIz3DdgP10YxFvHF1HYvSiYm+
41E9xsiKsjE1B2659bpqDfQQn67VYkkoe+xXuqsyfLF90qJWBjbusO/Qaq7qqx/W
DZ98lvutcJktXZXwgNB5RuxVOszTOPsEB6gHdYKC4NB+d7iP69Io/K5tFGhBf3ZD
10i6YETht3Lo0PAgA3va2rQGdceyA974lMZoj157npudNuDO0mvGxmvpFCK1cX62
j1of2+du9EIQkGjmK0UQT3O6LNfFMWpy3WNzAgMBAAGjggFjMIIBXzAOBgNVHQ8B
Af8EBAMCAQYwHQYDVR0lBBYwFAYIKwYBBQUHAwMGCCsGAQUFBwMJMBIGA1UdEwEB
/wQIMAYBAf8CAQAwHQYDVR0OBBYEFNwsWCwqbzUtn3mVqEhdxG0+U7+5MB8GA1Ud
IwQYMBaAFI/wS3+oLkUkrk1Q+mOai97i3Ru8MD4GCCsGAQUFBwEBBDIwMDAuBggr
BgEFBQcwAYYiaHR0cDovL29jc3AyLmdsb2JhbHNpZ24uY29tL3Jvb3RyMzA2BgNV
HR8ELzAtMCugKaAnhiVodHRwOi8vY3JsLmdsb2JhbHNpZ24uY29tL3Jvb3QtcjMu
Y3JsMGIGA1UdIARbMFkwCwYJKwYBBAGgMgECMAcGBWeBDAEDMEEGCSsGAQQBoDIB
XzA0MDIGCCsGAQUFBwIBFiZodHRwczovL3d3dy5nbG9iYWxzaWduLmNvbS9yZXBv
c2l0b3J5LzANBgkqhkiG9w0BAQsFAAOCAQEAdgnEzC/Z7x5LqfhX80A5IcpMPB2e
KSsg1CtE0ojOGg0Fz4OBu+tpvDGNKsTHRMxgYJQcz6HhAiQOrVu+LMInHme36Cgf
MlHjOfOY37ifLosqtHsKA7y9NgSPydCcT6MCJ5mw8EXpNN/kOqO3BjfYbyp5kNTU
Tlhx7FOpYZj3OWngEpxXWHKGJymlHeUy8yuZl1q/K7A8tAbqDmTst81lgCQXwtk3
9bEmEDVHe5oCulSiRZP/eb8ajMWftZ/feOdrUPFHlGlLJLjaBegMnU8G7EoxIH5P
XYaELzWjzZzBhFcfH63A4qSx7ylrIZem1P7tAzew/PWNKrzchIPj3sPnXw==
-----END CERTIFICATE-----

Certificate:
    Data:
        Version: 3 (0x2)
        Serial Number:
            03:1b:77:91:83:d1:94:fd:19:ca:3b:e9
    Signature Algorithm: sha256WithRSAEncryption
        Issuer: C=BE, O=GlobalSign nv-sa, CN=GlobalSign Extended Validation CodeSigning CA - SHA256 - G3
        Validity
            Not Before: Dec 13 06:48:15 2016 GMT
            Not After : Nov 30 15:16:06 2019 GMT
        Subject: businessCategory=Private Organization/serialNumber=1105262001514/jurisdictionC=RU/jurisdictionST=Nizhny Novgorod Oblast, C=RU, ST=Nizhny Novgorod Oblast, L=Nizhny Novgorod/street=ul. Krasnoselskaya 11B, O=INTERNET PROJECT LLC, CN=INTERNET PROJECT LLC
        Subject Public Key Info:
            Public Key Algorithm: rsaEncryption
                Public-Key: (2048 bit)
                Modulus:
                    00:c1:fe:38:0e:dd:52:01:fd:32:29:c2:c8:6a:c9:
                    c8:0f:2e:a3:c4:20:26:3e:a6:a1:d7:45:1c:ab:39:
                    41:1c:02:bb:cd:d1:53:ff:02:9b:44:af:ee:2b:73:
                    3e:1f:9c:69:d5:51:40:21:05:02:6b:48:ad:c1:39:
                    de:5b:69:34:a0:b6:8f:c4:88:d8:8c:9a:8c:8f:df:
                    90:25:15:be:54:28:a4:5a:43:14:f9:78:fb:25:6b:
                    7a:82:ee:aa:93:56:45:ee:b8:4a:d6:0d:65:53:64:
                    4a:fc:a5:d5:64:cd:ae:0a:f6:37:96:9a:ed:0f:6e:
                    ea:42:13:7d:41:80:61:29:d4:0c:de:be:4a:c7:7e:
                    8d:7d:3c:e6:65:76:3a:95:54:c5:7b:7a:c5:d3:02:
                    28:68:c9:cb:3e:0f:17:fd:04:1f:3f:3e:72:e1:a6:
                    68:23:ae:c6:ea:23:db:99:e1:d8:67:b7:05:cf:3d:
                    c9:6b:41:20:c5:84:cf:60:aa:29:2b:f1:95:b0:6f:
                    ad:54:17:19:25:7c:6b:ee:c9:0d:23:f9:1d:4b:03:
                    87:8b:4a:0c:4f:8c:ad:1e:a1:e3:08:1f:07:41:01:
                    e2:92:e9:bf:c3:a8:61:c8:7f:27:04:b8:c1:ef:ff:
                    76:7c:ff:2d:37:ac:97:a1:3b:1c:9c:5f:b4:7e:4b:
                    31:51
                Exponent: 65537 (0x10001)
        X509v3 extensions:
            X509v3 Key Usage: critical
                Digital Signature
            Authority Information Access: 
                CA Issuers - URI:http://secure.globalsign.com/cacert/gsextendcodesignsha2g3ocsp.crt
                OCSP - URI:http://ocsp2.globalsign.com/gsextendcodesignsha2g3

            X509v3 Certificate Policies: 
                Policy: 1.3.6.1.4.1.4146.1.2
                  CPS: https://www.globalsign.com/repository/
                Policy: 2.23.140.1.3

            X509v3 Basic Constraints: 
                CA:FALSE
            X509v3 CRL Distribution Points: 

                Full Name:
                  URI:http://crl.globalsign.com/gsextendcodesignsha2g3.crl

            X509v3 Subject Alternative Name: 
                othername:<unsupported>
            X509v3 Extended Key Usage: 
                Code Signing
            X509v3 Subject Key Identifier: 
                25:2E:C6:FE:59:8E:E2:57:FF:B0:D4:B3:7C:1B:0C:6D:A7:7F:4C:74
            X509v3 Authority Key Identifier: 
                keyid:DC:2C:58:2C:2A:6F:35:2D:9F:79:95:A8:48:5D:C4:6D:3E:53:BF:B9

    Signature Algorithm: sha256WithRSAEncryption
         c4:6f:37:b7:aa:c9:54:77:98:a9:58:f8:9e:c1:bd:7f:19:97:
         e9:48:0d:c6:36:aa:b6:e9:31:c6:01:16:e2:1c:47:79:2f:e4:
         bd:c9:ac:5d:98:16:0e:20:a0:e2:79:20:a5:bc:fd:73:ad:f6:
         26:1b:e7:66:ed:87:4d:bb:81:51:df:b6:cf:ab:7c:37:2c:8d:
         66:11:22:b4:cf:ee:9c:09:53:a8:d9:38:d8:af:68:d9:46:f5:
         dc:d4:ae:9a:09:83:7d:dc:57:78:a6:93:19:26:51:a1:c0:9d:
         be:15:91:8f:46:fa:17:5b:40:63:9a:47:24:38:c8:17:9b:d4:
         28:23:f8:50:7b:0b:ab:fa:77:76:29:46:19:a6:33:8e:0b:c8:
         e6:0b:5e:e2:55:13:b3:69:ac:24:1c:7c:f1:4e:d5:c9:3c:66:
         07:d6:84:79:d1:cb:7d:91:96:a5:49:7f:f4:04:bb:b4:99:ab:
         42:f6:40:bb:74:63:20:44:aa:a6:f7:3c:15:c4:a4:34:3d:bb:
         f5:fc:e5:c7:17:84:0c:93:07:5b:19:36:f1:b3:f7:db:d0:64:
         ec:b7:3f:61:64:93:92:c2:ca:34:ec:67:88:be:85:57:f5:21:
         a7:75:42:72:48:8f:7a:7a:70:fe:2e:4d:f6:7a:75:f9:98:04:
         fe:41:f0:8a
-----BEGIN CERTIFICATE-----
MIIGDTCCBPWgAwIBAgIMAxt3kYPRlP0ZyjvpMA0GCSqGSIb3DQEBCwUAMG4xCzAJ
BgNVBAYTAkJFMRkwFwYDVQQKExBHbG9iYWxTaWduIG52LXNhMUQwQgYDVQQDEztH
bG9iYWxTaWduIEV4dGVuZGVkIFZhbGlkYXRpb24gQ29kZVNpZ25pbmcgQ0EgLSBT
SEEyNTYgLSBHMzAeFw0xNjEyMTMwNjQ4MTVaFw0xOTExMzAxNTE2MDZaMIIBHDEd
MBsGA1UEDwwUUHJpdmF0ZSBPcmdhbml6YXRpb24xFjAUBgNVBAUTDTExMDUyNjIw
MDE1MTQxEzARBgsrBgEEAYI3PAIBAxMCUlUxJzAlBgsrBgEEAYI3PAIBAhMWTml6
aG55IE5vdmdvcm9kIE9ibGFzdDELMAkGA1UEBhMCUlUxHzAdBgNVBAgTFk5pemhu
eSBOb3Znb3JvZCBPYmxhc3QxGDAWBgNVBAcTD05pemhueSBOb3Znb3JvZDEfMB0G
A1UECRMWdWwuIEtyYXNub3NlbHNrYXlhIDExQjEdMBsGA1UEChMUSU5URVJORVQg
UFJPSkVDVCBMTEMxHTAbBgNVBAMTFElOVEVSTkVUIFBST0pFQ1QgTExDMIIBIjAN
BgkqhkiG9w0BAQEFAAOCAQ8AMIIBCgKCAQEAwf44Dt1SAf0yKcLIasnIDy6jxCAm
Pqah10UcqzlBHAK7zdFT/wKbRK/uK3M+H5xp1VFAIQUCa0itwTneW2k0oLaPxIjY
jJqMj9+QJRW+VCikWkMU+Xj7JWt6gu6qk1ZF7rhK1g1lU2RK/KXVZM2uCvY3lprt
D27qQhN9QYBhKdQM3r5Kx36NfTzmZXY6lVTFe3rF0wIoaMnLPg8X/QQfPz5y4aZo
I67G6iPbmeHYZ7cFzz3Ja0EgxYTPYKopK/GVsG+tVBcZJXxr7skNI/kdSwOHi0oM
T4ytHqHjCB8HQQHikum/w6hhyH8nBLjB7/92fP8tN6yXoTscnF+0fksxUQIDAQAB
o4IB+TCCAfUwDgYDVR0PAQH/BAQDAgeAMIGgBggrBgEFBQcBAQSBkzCBkDBOBggr
BgEFBQcwAoZCaHR0cDovL3NlY3VyZS5nbG9iYWxzaWduLmNvbS9jYWNlcnQvZ3Nl
eHRlbmRjb2Rlc2lnbnNoYTJnM29jc3AuY3J0MD4GCCsGAQUFBzABhjJodHRwOi8v
b2NzcDIuZ2xvYmFsc2lnbi5jb20vZ3NleHRlbmRjb2Rlc2lnbnNoYTJnMzBVBgNV
HSAETjBMMEEGCSsGAQQBoDIBAjA0MDIGCCsGAQUFBwIBFiZodHRwczovL3d3dy5n
bG9iYWxzaWduLmNvbS9yZXBvc2l0b3J5LzAHBgVngQwBAzAJBgNVHRMEAjAAMEUG
A1UdHwQ+MDwwOqA4oDaGNGh0dHA6Ly9jcmwuZ2xvYmFsc2lnbi5jb20vZ3NleHRl
bmRjb2Rlc2lnbnNoYTJnMy5jcmwwQgYDVR0RBDswOaA3BggrBgEFBQcIA6ArMCkM
J1JVLU5JWkhOWSBOT1ZHT1JPRCBPQkxBU1QtMTEwNTI2MjAwMTUxNDATBgNVHSUE
DDAKBggrBgEFBQcDAzAdBgNVHQ4EFgQUJS7G/lmO4lf/sNSzfBsMbad/THQwHwYD
VR0jBBgwFoAU3CxYLCpvNS2feZWoSF3EbT5Tv7kwDQYJKoZIhvcNAQELBQADggEB
AMRvN7eqyVR3mKlY+J7BvX8Zl+lIDcY2qrbpMcYBFuIcR3kv5L3JrF2YFg4goOJ5
IKW8/XOt9iYb52bth027gVHfts+rfDcsjWYRIrTP7pwJU6jZONivaNlG9dzUrpoJ
g33cV3imkxkmUaHAnb4VkY9G+hdbQGOaRyQ4yBeb1Cgj+FB7C6v6d3YpRhmmM44L
yOYLXuJVE7NprCQcfPFO1ck8ZgfWhHnRy32RlqVJf/QEu7SZq0L2QLt0YyBEqqb3
PBXEpDQ9u/X85ccXhAyTB1sZNvGz99vQZOy3P2Fkk5LCyjTsZ4i+hVf1Iad1QnJI
j3p6cP4uTfZ6dfmYBP5B8Io=
-----END CERTIFICATE-----

