Certificate:
    Data:
        Version: 3 (0x2)
        Serial Number:
            4f:63:d0:30:f8:15:a3:a5:b3:44:69:40:06:3d:16:89
    Signature Algorithm: sha1WithRSAEncryption
        Issuer: C=US, ST=UT, L=Salt Lake City, O=The USERTRUST Network, OU=http://www.usertrust.com, CN=UTN-USERFirst-Object
        Validity
            Not Before: May 17 00:00:00 2005 GMT
            Not After : May 16 23:59:59 2010 GMT
        Subject: C=GB, ST=Greater Manchester, L=Salford, O=Comodo CA Limited, CN=Comodo Time Stamping Signer
        Subject Public Key Info:
            Public Key Algorithm: rsaEncryption
                Public-Key: (2048 bit)
                Modulus:
                    00:bc:35:a0:36:70:22:81:11:c3:b2:83:b9:d3:28:
                    c6:36:cd:25:6b:a9:7b:b2:1c:f6:9b:51:9c:ef:35:
                    f4:ed:08:8e:5e:38:08:f8:77:3c:0a:42:e0:f3:70:
                    dc:a3:d7:ca:f5:4c:0b:cf:ff:22:9c:0a:7e:68:d6:
                    09:a2:2a:84:7b:a6:9d:b4:a9:c1:33:e2:ef:1f:17:
                    48:ca:3a:cd:46:e6:c5:aa:77:bd:e3:77:9a:fa:47:
                    53:40:28:59:43:93:f1:a4:81:ea:ef:80:b5:4f:a7:
                    08:ce:ba:6e:bc:ca:76:0c:97:64:59:86:24:bb:3d:
                    82:90:a8:55:b1:92:d3:a0:a7:05:ac:9f:53:25:08:
                    10:47:99:cd:98:de:68:e5:b4:50:78:a3:af:01:cc:
                    59:43:58:e4:76:6e:7e:ac:c7:e2:9e:1f:4f:b0:47:
                    2d:c8:0c:a3:49:27:80:75:8c:bb:06:91:65:0f:90:
                    9b:f4:ba:d1:81:c8:5c:6a:ec:14:e9:25:09:bf:23:
                    16:f4:95:46:40:40:21:bb:83:96:fd:86:1f:7a:c8:
                    0d:10:8e:a2:f8:19:07:58:7f:9f:bd:37:02:60:f2:
                    a4:e9:9d:44:3f:30:05:e4:a7:70:99:51:9a:e8:17:
                    f1:55:ca:b2:61:89:65:46:a7:6a:f2:58:46:7e:aa:
                    a0:07
                Exponent: 65537 (0x10001)
        X509v3 extensions:
            X509v3 Authority Key Identifier: 
                keyid:DA:ED:64:74:14:9C:14:3C:AB:DD:99:A9:BD:5B:28:4D:8B:3C:C9:D8

            X509v3 Subject Key Identifier: 
                2E:2D:B0:0A:44:4A:D3:87:C0:02:07:CE:97:7D:50:62:20:FD:0F:83
            X509v3 Key Usage: critical
                Digital Signature, Non Repudiation
            X509v3 Basic Constraints: critical
                CA:FALSE
            X509v3 Extended Key Usage: critical
                Time Stamping
            X509v3 CRL Distribution Points: 

                Full Name:
                  URI:http://crl.usertrust.com/UTN-USERFirst-Object.crl

    Signature Algorithm: sha1WithRSAEncryption
         4a:8f:fc:1e:30:a8:3c:75:e8:47:e7:73:ae:b0:69:7a:b2:4d:
         bc:50:d6:9a:8f:81:b6:60:2a:f7:02:a5:48:3a:1e:15:c7:18:
         6b:1c:18:a4:c9:df:fd:f1:ce:f7:b8:2a:d6:6d:a7:cd:e5:7d:
         21:3d:1e:3f:74:c8:a2:b8:79:96:28:ae:e1:fa:73:43:f2:7a:
         be:80:2e:67:04:da:17:fa:9e:5a:96:f5:9c:6d:7e:7e:8c:6c:
         81:27:50:7f:68:d8:89:fa:7d:04:59:67:0f:2d:74:e4:99:87:
         d7:c1:e1:5d:11:4a:26:f7:26:10:80:67:c2:c3:f7:cf:34:1b:
         c4:79:21:cc:60:35:bf:a9:60:77:9e:cb:bc:52:32:22:6c:ad:
         da:df:6d:dd:f3:2e:36:cd:c5:a7:54:e0:f4:a4:cc:e3:f5:d4:
         62:4f:99:06:0c:e5:6f:59:6f:11:c7:cf:58:24:bf:af:25:1d:
         45:11:77:99:65:ae:31:d4:5d:48:9d:8c:c3:72:72:29:99:e5:
         0a:f1:b9:cc:5a:3c:48:d3:ff:40:ce:cd:10:03:3d:bf:33:9c:
         08:f3:10:22:2a:47:b0:77:2b:ee:5b:4e:65:e0:d3:23:3c:03:
         c4:cf:2e:45:62:69:0e:1b:d2:0b:f9:f3:20:0f:53:1a:d0:7c:
         71:f1:38:d0
-----BEGIN CERTIFICATE-----
MIIEXDCCA0SgAwIBAgIQT2PQMPgVo6WzRGlABj0WiTANBgkqhkiG9w0BAQUFADCB
lTELMAkGA1UEBhMCVVMxCzAJBgNVBAgTAlVUMRcwFQYDVQQHEw5TYWx0IExha2Ug
Q2l0eTEeMBwGA1UEChMVVGhlIFVTRVJUUlVTVCBOZXR3b3JrMSEwHwYDVQQLExho
dHRwOi8vd3d3LnVzZXJ0cnVzdC5jb20xHTAbBgNVBAMTFFVUTi1VU0VSRmlyc3Qt
T2JqZWN0MB4XDTA1MDUxNzAwMDAwMFoXDTEwMDUxNjIzNTk1OVowfjELMAkGA1UE
BhMCR0IxGzAZBgNVBAgTEkdyZWF0ZXIgTWFuY2hlc3RlcjEQMA4GA1UEBxMHU2Fs
Zm9yZDEaMBgGA1UEChMRQ29tb2RvIENBIExpbWl0ZWQxJDAiBgNVBAMTG0NvbW9k
byBUaW1lIFN0YW1waW5nIFNpZ25lcjCCASIwDQYJKoZIhvcNAQEBBQADggEPADCC
AQoCggEBALw1oDZwIoERw7KDudMoxjbNJWupe7Ic9ptRnO819O0Ijl44CPh3PApC
4PNw3KPXyvVMC8//IpwKfmjWCaIqhHumnbSpwTPi7x8XSMo6zUbmxap3veN3mvpH
U0AoWUOT8aSB6u+AtU+nCM66brzKdgyXZFmGJLs9gpCoVbGS06CnBayfUyUIEEeZ
zZjeaOW0UHijrwHMWUNY5HZufqzH4p4fT7BHLcgMo0kngHWMuwaRZQ+Qm/S60YHI
XGrsFOklCb8jFvSVRkBAIbuDlv2GH3rIDRCOovgZB1h/n703AmDypOmdRD8wBeSn
cJlRmugX8VXKsmGJZUanavJYRn6qoAcCAwEAAaOBvTCBujAfBgNVHSMEGDAWgBTa
7WR0FJwUPKvdmam9WyhNizzJ2DAdBgNVHQ4EFgQULi2wCkRK04fAAgfOl31QYiD9
D4MwDgYDVR0PAQH/BAQDAgbAMAwGA1UdEwEB/wQCMAAwFgYDVR0lAQH/BAwwCgYI
KwYBBQUHAwgwQgYDVR0fBDswOTA3oDWgM4YxaHR0cDovL2NybC51c2VydHJ1c3Qu
Y29tL1VUTi1VU0VSRmlyc3QtT2JqZWN0LmNybDANBgkqhkiG9w0BAQUFAAOCAQEA
So/8HjCoPHXoR+dzrrBperJNvFDWmo+BtmAq9wKlSDoeFccYaxwYpMnf/fHO97gq
1m2nzeV9IT0eP3TIorh5liiu4fpzQ/J6voAuZwTaF/qeWpb1nG1+foxsgSdQf2jY
ifp9BFlnDy105JmH18HhXRFKJvcmEIBnwsP3zzQbxHkhzGA1v6lgd57LvFIyImyt
2t9t3fMuNs3Fp1Tg9KTM4/XUYk+ZBgzlb1lvEcfPWCS/ryUdRRF3mWWuMdRdSJ2M
w3JyKZnlCvG5zFo8SNP/QM7NEAM9vzOcCPMQIipHsHcr7ltOZeDTIzwDxM8uRWJp
DhvSC/nzIA9TGtB8cfE40A==
-----END CERTIFICATE-----

Certificate:
    Data:
        Version: 3 (0x2)
        Serial Number:
            8c:2e:d3:6e:1a:22:d6:95:22:e7:95:2b:cf:27:69:ba
    Signature Algorithm: sha1WithRSAEncryption
        Issuer: C=US, ST=UT, L=Salt Lake City, O=The USERTRUST Network, OU=http://www.usertrust.com, CN=UTN-USERFirst-Object
        Validity
            Not Before: Jun 16 00:00:00 2005 GMT
            Not After : Jun 16 23:59:59 2007 GMT
        Subject: C=US/postalCode=90278, ST=CA, L=Redondo Beach/street=1728 Wollacott St., O=ArcadeTown, CN=ArcadeTown
        Subject Public Key Info:
            Public Key Algorithm: rsaEncryption
                Public-Key: (1024 bit)
                Modulus:
                    00:b2:d1:a7:ed:16:2b:50:a2:78:0e:4c:85:c0:14:
                    ea:fe:a7:3b:44:28:c1:e7:0b:92:8a:28:64:14:7f:
                    bf:c3:69:61:30:df:73:08:6d:8f:90:31:d2:bf:48:
                    22:57:57:e0:bc:d6:c8:e5:43:77:cf:1d:7e:ce:5f:
                    75:ca:5c:25:bf:4f:79:13:8c:ce:76:b9:b1:6f:84:
                    bf:09:1a:80:7e:46:f5:5f:69:63:c3:81:bf:94:7d:
                    ea:21:b6:3a:5a:22:be:14:57:88:eb:7a:25:4a:61:
                    a4:e8:bd:6c:4c:6e:88:cf:44:ee:d5:3c:9b:54:f2:
                    90:1f:4f:4f:09:3d:2b:6a:07
                Exponent: 65537 (0x10001)
        X509v3 extensions:
            X509v3 Authority Key Identifier: 
                keyid:DA:ED:64:74:14:9C:14:3C:AB:DD:99:A9:BD:5B:28:4D:8B:3C:C9:D8

            X509v3 Subject Key Identifier: 
                69:80:7E:4B:15:B1:25:DD:4A:25:DD:3F:DF:A8:04:FA:CF:B4:96:C4
            X509v3 Key Usage: critical
                Digital Signature
            X509v3 Basic Constraints: critical
                CA:FALSE
            X509v3 Extended Key Usage: 
                Code Signing
            X509v3 Certificate Policies: 
                Policy: 1.3.6.1.4.1.6449.1.2.1.3.2
                  CPS: https://secure.comodo.net/CPS

            X509v3 CRL Distribution Points: 

                Full Name:
                  URI:http://crl.usertrust.com/UTN-USERFirst-Object.crl

            Netscape Cert Type: 
                Object Signing
            X509v3 Subject Alternative Name: 
                email:altoparc@yahoo.com
    Signature Algorithm: sha1WithRSAEncryption
         9b:4a:0f:3f:eb:65:dd:c5:bb:27:dc:34:56:3f:87:18:d3:48:
         61:4d:d4:e0:b1:b5:1e:f0:d7:25:d2:4e:e4:6c:5f:c8:b1:4d:
         e4:ca:a5:fa:e3:27:55:e2:15:69:c9:b8:70:a5:56:28:aa:49:
         3d:c7:92:74:df:87:b9:e6:c5:09:32:29:f8:ba:ae:d2:96:80:
         c9:2b:41:28:8f:6f:61:5c:43:8a:63:9e:d1:09:16:d8:e6:f0:
         45:83:5d:fa:b8:c3:fe:58:48:43:be:64:9d:cb:b4:78:ef:0e:
         43:45:3a:68:e7:e7:f8:a5:23:53:24:4e:12:22:07:59:de:65:
         8a:57:b3:20:4d:05:b8:bb:b8:34:6f:1c:75:2c:e0:31:41:ab:
         c1:03:b5:4d:33:76:8c:1f:d3:75:78:3b:31:e9:ac:23:69:06:
         eb:37:28:1a:92:7e:6b:1a:18:dd:27:f9:76:fc:51:21:14:84:
         fe:dd:fe:34:8f:8c:ad:11:09:b2:e7:b3:c2:5b:ef:29:7e:7c:
         6d:60:02:bf:48:2a:b4:d1:c0:14:cc:cd:ea:c8:b4:fa:20:db:
         10:a8:5d:9e:34:ab:b3:94:23:bd:71:01:b0:65:79:b5:41:07:
         08:5f:93:3e:7f:0f:47:e9:a6:61:26:33:40:6c:40:8a:26:df:
         a5:e0:a9:84
-----BEGIN CERTIFICATE-----
MIIEXjCCA0agAwIBAgIRAIwu024aItaVIueVK88nabowDQYJKoZIhvcNAQEFBQAw
gZUxCzAJBgNVBAYTAlVTMQswCQYDVQQIEwJVVDEXMBUGA1UEBxMOU2FsdCBMYWtl
IENpdHkxHjAcBgNVBAoTFVRoZSBVU0VSVFJVU1QgTmV0d29yazEhMB8GA1UECxMY
aHR0cDovL3d3dy51c2VydHJ1c3QuY29tMR0wGwYDVQQDExRVVE4tVVNFUkZpcnN0
LU9iamVjdDAeFw0wNTA2MTYwMDAwMDBaFw0wNzA2MTYyMzU5NTlaMIGJMQswCQYD
VQQGEwJVUzEOMAwGA1UEEQwFOTAyNzgxCzAJBgNVBAgMAkNBMRYwFAYDVQQHDA1S
ZWRvbmRvIEJlYWNoMRswGQYDVQQJDBIxNzI4IFdvbGxhY290dCBTdC4xEzARBgNV
BAoMCkFyY2FkZVRvd24xEzARBgNVBAMMCkFyY2FkZVRvd24wgZ8wDQYJKoZIhvcN
AQEBBQADgY0AMIGJAoGBALLRp+0WK1CieA5MhcAU6v6nO0QowecLkoooZBR/v8Np
YTDfcwhtj5Ax0r9IIldX4LzWyOVDd88dfs5fdcpcJb9PeROMzna5sW+EvwkagH5G
9V9pY8OBv5R96iG2OloivhRXiOt6JUphpOi9bExuiM9E7tU8m1TykB9PTwk9K2oH
AgMBAAGjggE1MIIBMTAfBgNVHSMEGDAWgBTa7WR0FJwUPKvdmam9WyhNizzJ2DAd
BgNVHQ4EFgQUaYB+SxWxJd1KJd0/36gE+s+0lsQwDgYDVR0PAQH/BAQDAgeAMAwG
A1UdEwEB/wQCMAAwEwYDVR0lBAwwCgYIKwYBBQUHAwMwRgYDVR0gBD8wPTA7Bgwr
BgEEAbIxAQIBAwIwKzApBggrBgEFBQcCARYdaHR0cHM6Ly9zZWN1cmUuY29tb2Rv
Lm5ldC9DUFMwQgYDVR0fBDswOTA3oDWgM4YxaHR0cDovL2NybC51c2VydHJ1c3Qu
Y29tL1VUTi1VU0VSRmlyc3QtT2JqZWN0LmNybDARBglghkgBhvhCAQEEBAMCBBAw
HQYDVR0RBBYwFIESYWx0b3BhcmNAeWFob28uY29tMA0GCSqGSIb3DQEBBQUAA4IB
AQCbSg8/62Xdxbsn3DRWP4cY00hhTdTgsbUe8Ncl0k7kbF/IsU3kyqX64ydV4hVp
ybhwpVYoqkk9x5J034e55sUJMin4uq7SloDJK0Eoj29hXEOKY57RCRbY5vBFg136
uMP+WEhDvmSdy7R47w5DRTpo5+f4pSNTJE4SIgdZ3mWKV7MgTQW4u7g0bxx1LOAx
QavBA7VNM3aMH9N1eDsx6awjaQbrNygakn5rGhjdJ/l2/FEhFIT+3f40j4ytEQmy
57PCW+8pfnxtYAK/SCq00cAUzM3qyLT6INsQqF2eNKuzlCO9cQGwZXm1QQcIX5M+
fw9H6aZhJjNAbECKJt+l4KmE
-----END CERTIFICATE-----

Certificate:
    Data:
        Version: 3 (0x2)
        Serial Number:
            44:be:0c:8b:50:00:24:b4:11:d3:36:2d:e0:b3:5f:1b
    Signature Algorithm: sha1WithRSAEncryption
        Issuer: C=US, ST=UT, L=Salt Lake City, O=The USERTRUST Network, OU=http://www.usertrust.com, CN=UTN-USERFirst-Object
        Validity
            Not Before: Jul  9 18:31:20 1999 GMT
            Not After : Jul  9 18:40:36 2019 GMT
        Subject: C=US, ST=UT, L=Salt Lake City, O=The USERTRUST Network, OU=http://www.usertrust.com, CN=UTN-USERFirst-Object
        Subject Public Key Info:
            Public Key Algorithm: rsaEncryption
                Public-Key: (2048 bit)
                Modulus:
                    00:ce:aa:81:3f:a3:a3:61:78:aa:31:00:55:95:11:
                    9e:27:0f:1f:1c:df:3a:9b:82:68:30:c0:4a:61:1d:
                    f1:2f:0e:fa:be:79:f7:a5:23:ef:55:51:96:84:cd:
                    db:e3:b9:6e:3e:31:d8:0a:20:67:c7:f4:d9:bf:94:
                    eb:47:04:3e:02:ce:2a:a2:5d:87:04:09:f6:30:9d:
                    18:8a:97:b2:aa:1c:fc:41:d2:a1:36:cb:fb:3d:91:
                    ba:e7:d9:70:35:fa:e4:e7:90:c3:9b:a3:9b:d3:3c:
                    f5:12:99:77:b1:b7:09:e0:68:e6:1c:b8:f3:94:63:
                    88:6a:6a:fe:0b:76:c9:be:f4:22:e4:67:b9:ab:1a:
                    5e:77:c1:85:07:dd:0d:6c:bf:ee:06:c7:77:6a:41:
                    9e:a7:0f:d7:fb:ee:94:17:b7:fc:85:be:a4:ab:c4:
                    1c:31:dd:d7:b6:d1:e4:f0:ef:df:16:8f:b2:52:93:
                    d7:a1:d4:89:a1:07:2e:bf:e1:01:12:42:1e:1a:e1:
                    d8:95:34:db:64:79:28:ff:ba:2e:11:c2:e5:e8:5b:
                    92:48:fb:47:0b:c2:6c:da:ad:32:83:41:f3:a5:e5:
                    41:70:fd:65:90:6d:fa:fa:51:c4:f9:bd:96:2b:19:
                    04:2c:d3:6d:a7:dc:f0:7f:6f:83:65:e2:6a:ab:87:
                    86:75
                Exponent: 65537 (0x10001)
        X509v3 extensions:
            X509v3 Key Usage: 
                Digital Signature, Non Repudiation, Certificate Sign, CRL Sign
            X509v3 Basic Constraints: critical
                CA:TRUE
            X509v3 Subject Key Identifier: 
                DA:ED:64:74:14:9C:14:3C:AB:DD:99:A9:BD:5B:28:4D:8B:3C:C9:D8
            X509v3 CRL Distribution Points: 

                Full Name:
                  URI:http://crl.usertrust.com/UTN-USERFirst-Object.crl

            X509v3 Extended Key Usage: 
                Code Signing, Time Stamping, Microsoft Encrypted File System
    Signature Algorithm: sha1WithRSAEncryption
         08:1f:52:b1:37:44:78:db:fd:ce:b9:da:95:96:98:aa:55:64:
         80:b5:5a:40:dd:21:a5:c5:c1:f3:5f:2c:4c:c8:47:5a:69:ea:
         e8:f0:35:35:f4:d0:25:f3:c8:a6:a4:87:4a:bd:1b:b1:73:08:
         bd:d4:c3:ca:b6:35:bb:59:86:77:31:cd:a7:80:14:ae:13:ef:
         fc:b1:48:f9:6b:25:25:2d:51:b6:2c:6d:45:c1:98:c8:8a:56:
         5d:3e:ee:43:4e:3e:6b:27:8e:d0:3a:4b:85:0b:5f:d3:ed:6a:
         a7:75:cb:d1:5a:87:2f:39:75:13:5a:72:b0:02:81:9f:be:f0:
         0f:84:54:20:62:6c:69:d4:e1:4d:c6:0d:99:43:01:0d:12:96:
         8c:78:9d:bf:50:a2:b1:44:aa:6a:cf:17:7a:cf:6f:0f:d4:f8:
         24:55:5f:f0:34:16:49:66:3e:50:46:c9:63:71:38:31:62:b8:
         62:b9:f3:53:ad:6c:b5:2b:a2:12:aa:19:4f:09:da:5e:e7:93:
         c6:8e:14:08:fe:f0:30:80:18:a0:86:85:4d:c8:7d:d7:8b:03:
         fe:6e:d5:f7:9d:16:ac:92:2c:a0:23:e5:9c:91:52:1f:94:df:
         17:94:73:c3:b3:c1:c1:71:05:20:00:78:bd:13:52:1d:a8:3e:
         cd:00:1f:c8
-----BEGIN CERTIFICATE-----
MIIEZjCCA06gAwIBAgIQRL4Mi1AAJLQR0zYt4LNfGzANBgkqhkiG9w0BAQUFADCB
lTELMAkGA1UEBhMCVVMxCzAJBgNVBAgTAlVUMRcwFQYDVQQHEw5TYWx0IExha2Ug
Q2l0eTEeMBwGA1UEChMVVGhlIFVTRVJUUlVTVCBOZXR3b3JrMSEwHwYDVQQLExho
dHRwOi8vd3d3LnVzZXJ0cnVzdC5jb20xHTAbBgNVBAMTFFVUTi1VU0VSRmlyc3Qt
T2JqZWN0MB4XDTk5MDcwOTE4MzEyMFoXDTE5MDcwOTE4NDAzNlowgZUxCzAJBgNV
BAYTAlVTMQswCQYDVQQIEwJVVDEXMBUGA1UEBxMOU2FsdCBMYWtlIENpdHkxHjAc
BgNVBAoTFVRoZSBVU0VSVFJVU1QgTmV0d29yazEhMB8GA1UECxMYaHR0cDovL3d3
dy51c2VydHJ1c3QuY29tMR0wGwYDVQQDExRVVE4tVVNFUkZpcnN0LU9iamVjdDCC
ASIwDQYJKoZIhvcNAQEBBQADggEPADCCAQoCggEBAM6qgT+jo2F4qjEAVZURnicP
HxzfOpuCaDDASmEd8S8O+r5596Uj71VRloTN2+O5bj4x2AogZ8f02b+U60cEPgLO
KqJdhwQJ9jCdGIqXsqoc/EHSoTbL+z2RuufZcDX65OeQw5ujm9M89RKZd7G3CeBo
5hy485RjiGpq/gt2yb70IuRnuasaXnfBhQfdDWy/7gbHd2pBnqcP1/vulBe3/IW+
pKvEHDHd17bR5PDv3xaPslKT16HUiaEHLr/hARJCHhrh2JU022R5KP+6LhHC5ehb
kkj7RwvCbNqtMoNB86XlQXD9ZZBt+vpRxPm9lisZBCzTbafc8H9vg2XiaquHhnUC
AwEAAaOBrzCBrDALBgNVHQ8EBAMCAcYwDwYDVR0TAQH/BAUwAwEB/zAdBgNVHQ4E
FgQU2u1kdBScFDyr3ZmpvVsoTYs8ydgwQgYDVR0fBDswOTA3oDWgM4YxaHR0cDov
L2NybC51c2VydHJ1c3QuY29tL1VUTi1VU0VSRmlyc3QtT2JqZWN0LmNybDApBgNV
HSUEIjAgBggrBgEFBQcDAwYIKwYBBQUHAwgGCisGAQQBgjcKAwQwDQYJKoZIhvcN
AQEFBQADggEBAAgfUrE3RHjb/c652pWWmKpVZIC1WkDdIaXFwfNfLEzIR1pp6ujw
NTX00CXzyKakh0q9G7FzCL3Uw8q2NbtZhncxzaeAFK4T7/yxSPlrJSUtUbYsbUXB
mMiKVl0+7kNOPmsnjtA6S4ULX9Ptaqd1y9Fahy85dRNacrACgZ++8A+EVCBibGnU
4U3GDZlDAQ0Slox4nb9QorFEqmrPF3rPbw/U+CRVX/A0FklmPlBGyWNxODFiuGK5
81OtbLUrohKqGU8J2l7nk8aOFAj+8DCAGKCGhU3IfdeLA/5u1fedFqySLKAj5ZyR
Uh+U3xeUc8OzwcFxBSAAeL0TUh2oPs0AH8g=
-----END CERTIFICATE-----

