Certificate:
    Data:
        Version: 3 (0x2)
        Serial Number:
            f7:ab:00:2c:46:d6:c8:05:4a:83:81:7a:95:09:1c:e8
    Signature Algorithm: sha256WithRSAEncryption
        Issuer: C=GB, ST=Greater Manchester, L=Salford, O=COMODO CA Limited, CN=COMODO RSA Code Signing CA
        Validity
            Not Before: Aug 14 00:00:00 2017 GMT
            Not After : Aug 14 23:59:59 2018 GMT
        Subject: C=IL/postalCode=651307, ST=Israel, L=Tel Aviv/street=28A Lilinblum St., O=Supreme Funnel (Alpha Criteria Ltd.), CN=Supreme Funnel (Alpha Criteria Ltd.)
        Subject Public Key Info:
            Public Key Algorithm: rsaEncryption
                Public-Key: (2048 bit)
                Modulus:
                    00:a7:e3:87:07:37:98:7d:f0:ec:50:91:19:d5:a3:
                    57:a3:d0:1c:9f:57:b6:43:66:95:94:9f:75:7b:3c:
                    c1:d3:30:2a:e7:51:09:21:37:2a:06:ce:ad:8b:ef:
                    71:cd:08:0d:a7:bd:1b:13:eb:b1:fe:09:94:f8:20:
                    68:be:d1:5f:4a:6c:66:ab:21:a0:5b:a0:dc:5c:26:
                    bd:8f:53:03:9a:19:36:8a:39:2c:8f:7c:a8:f9:80:
                    21:b7:df:c2:7c:c5:33:49:88:9d:c8:3a:ee:26:0b:
                    6b:5d:b3:e4:01:97:11:7d:0c:ed:81:44:89:57:c8:
                    19:95:33:c3:99:fc:0c:a6:9d:9f:19:83:88:5b:08:
                    1a:02:9d:b6:78:02:93:9c:5c:bb:ce:24:82:14:a1:
                    f7:5e:1d:a7:ac:f7:c4:5c:17:48:f7:92:aa:ec:93:
                    ba:1d:78:13:1e:2d:a8:1f:15:25:78:5a:87:1e:79:
                    34:09:e1:f5:c2:6f:e4:4b:c2:e3:cc:a4:fb:f8:83:
                    01:61:c3:28:7f:e2:a3:a2:17:ee:1c:2d:ab:7a:1f:
                    c5:4b:26:18:b1:3f:75:82:9a:7b:2c:4e:15:1f:e5:
                    de:75:91:c7:70:41:63:e9:0e:61:d5:a9:86:28:08:
                    cf:31:c3:70:6f:cb:9a:02:09:35:d6:79:66:df:45:
                    37:3b
                Exponent: 65537 (0x10001)
        X509v3 extensions:
            X509v3 Authority Key Identifier: 
                keyid:29:91:60:FF:8A:4D:FA:EB:F9:A6:6A:B8:CF:F9:E6:4B:BD:49:CE:12

            X509v3 Subject Key Identifier: 
                19:E1:F3:B0:14:B9:C7:48:78:2F:C6:E9:A8:7F:6A:D2:E4:6A:4D:6D
            X509v3 Key Usage: critical
                Digital Signature
            X509v3 Basic Constraints: critical
                CA:FALSE
            X509v3 Extended Key Usage: 
                Code Signing
            Netscape Cert Type: 
                Object Signing
            X509v3 Certificate Policies: 
                Policy: 1.3.6.1.4.1.6449.1.2.1.3.2
                  CPS: https://secure.comodo.net/CPS

            X509v3 CRL Distribution Points: 

                Full Name:
                  URI:http://crl.comodoca.com/COMODORSACodeSigningCA.crl

            Authority Information Access: 
                CA Issuers - URI:http://crt.comodoca.com/COMODORSACodeSigningCA.crt
                OCSP - URI:http://ocsp.comodoca.com

    Signature Algorithm: sha256WithRSAEncryption
         26:e9:de:86:1d:82:03:07:f0:d9:10:51:4d:87:f0:db:9d:8d:
         54:da:1f:64:6e:bb:b4:ad:3c:21:c1:af:5e:1b:11:1a:8e:7d:
         9d:cd:95:f6:9f:5c:0f:6f:57:e6:77:3e:e6:d2:03:54:e3:1a:
         1f:d5:a6:a4:ea:78:31:65:ff:9c:9a:5a:27:d4:39:f5:80:22:
         6a:23:fa:14:27:56:94:8c:dd:b1:f5:c2:4d:cf:e2:f9:3a:ff:
         99:52:e3:a0:ce:0f:01:a2:f0:35:1d:99:ba:d3:0e:50:c5:6c:
         d9:8f:f7:04:b6:98:42:b3:95:45:00:b8:c2:29:ac:62:7b:db:
         08:8a:4d:9c:d3:d1:03:64:4d:f3:e1:4e:31:93:ce:5e:80:f3:
         ea:15:80:97:06:04:ad:b5:b6:a1:50:6c:94:d4:a7:6e:db:d5:
         36:86:7d:9c:0c:87:c3:20:74:f5:64:04:cd:dd:fa:3d:e8:7e:
         44:4f:ae:cd:a3:5a:04:82:63:95:52:e5:fc:e8:88:70:f7:df:
         27:fb:38:a4:9d:72:aa:45:7c:a6:27:d9:1a:2b:8e:42:63:ac:
         3c:15:eb:cc:20:a9:f7:30:cc:35:bb:6c:7d:67:dc:de:b3:f8:
         c2:25:81:cd:b0:6f:7a:81:bc:65:1f:b4:54:3c:a9:2e:37:61:
         49:03:14:ec
-----BEGIN CERTIFICATE-----
MIIFVDCCBDygAwIBAgIRAPerACxG1sgFSoOBepUJHOgwDQYJKoZIhvcNAQELBQAw
fTELMAkGA1UEBhMCR0IxGzAZBgNVBAgTEkdyZWF0ZXIgTWFuY2hlc3RlcjEQMA4G
A1UEBxMHU2FsZm9yZDEaMBgGA1UEChMRQ09NT0RPIENBIExpbWl0ZWQxIzAhBgNV
BAMTGkNPTU9ETyBSU0EgQ29kZSBTaWduaW5nIENBMB4XDTE3MDgxNDAwMDAwMFoX
DTE4MDgxNDIzNTk1OVowgbwxCzAJBgNVBAYTAklMMQ8wDQYDVQQRDAY2NTEzMDcx
DzANBgNVBAgMBklzcmFlbDERMA8GA1UEBwwIVGVsIEF2aXYxGjAYBgNVBAkMETI4
QSBMaWxpbmJsdW0gU3QuMS0wKwYDVQQKDCRTdXByZW1lIEZ1bm5lbCAoQWxwaGEg
Q3JpdGVyaWEgTHRkLikxLTArBgNVBAMMJFN1cHJlbWUgRnVubmVsIChBbHBoYSBD
cml0ZXJpYSBMdGQuKTCCASIwDQYJKoZIhvcNAQEBBQADggEPADCCAQoCggEBAKfj
hwc3mH3w7FCRGdWjV6PQHJ9XtkNmlZSfdXs8wdMwKudRCSE3KgbOrYvvcc0IDae9
GxPrsf4JlPggaL7RX0psZqshoFug3FwmvY9TA5oZNoo5LI98qPmAIbffwnzFM0mI
ncg67iYLa12z5AGXEX0M7YFEiVfIGZUzw5n8DKadnxmDiFsIGgKdtngCk5xcu84k
ghSh914dp6z3xFwXSPeSquyTuh14Ex4tqB8VJXhahx55NAnh9cJv5EvC48yk+/iD
AWHDKH/io6IX7hwtq3ofxUsmGLE/dYKaeyxOFR/l3nWRx3BBY+kOYdWphigIzzHD
cG/LmgIJNdZ5Zt9FNzsCAwEAAaOCAY0wggGJMB8GA1UdIwQYMBaAFCmRYP+KTfrr
+aZquM/55ku9Sc4SMB0GA1UdDgQWBBQZ4fOwFLnHSHgvxumof2rS5GpNbTAOBgNV
HQ8BAf8EBAMCB4AwDAYDVR0TAQH/BAIwADATBgNVHSUEDDAKBggrBgEFBQcDAzAR
BglghkgBhvhCAQEEBAMCBBAwRgYDVR0gBD8wPTA7BgwrBgEEAbIxAQIBAwIwKzAp
BggrBgEFBQcCARYdaHR0cHM6Ly9zZWN1cmUuY29tb2RvLm5ldC9DUFMwQwYDVR0f
BDwwOjA4oDagNIYyaHR0cDovL2NybC5jb21vZG9jYS5jb20vQ09NT0RPUlNBQ29k
ZVNpZ25pbmdDQS5jcmwwdAYIKwYBBQUHAQEEaDBmMD4GCCsGAQUFBzAChjJodHRw
Oi8vY3J0LmNvbW9kb2NhLmNvbS9DT01PRE9SU0FDb2RlU2lnbmluZ0NBLmNydDAk
BggrBgEFBQcwAYYYaHR0cDovL29jc3AuY29tb2RvY2EuY29tMA0GCSqGSIb3DQEB
CwUAA4IBAQAm6d6GHYIDB/DZEFFNh/DbnY1U2h9kbru0rTwhwa9eGxEajn2dzZX2
n1wPb1fmdz7m0gNU4xof1aak6ngxZf+cmlon1Dn1gCJqI/oUJ1aUjN2x9cJNz+L5
Ov+ZUuOgzg8BovA1HZm60w5QxWzZj/cEtphCs5VFALjCKaxie9sIik2c09EDZE3z
4U4xk85egPPqFYCXBgSttbahUGyU1Kdu29U2hn2cDIfDIHT1ZATN3fo96H5ET67N
o1oEgmOVUuX86Ihw998n+ziknXKqRXymJ9kaK45CY6w8FevMIKn3MMw1u2x9Z9ze
s/jCJYHNsG96gbxlH7RUPKkuN2FJAxTs
-----END CERTIFICATE-----

Certificate:
    Data:
        Version: 3 (0x2)
        Serial Number:
            2e:7c:87:cc:0e:93:4a:52:fe:94:fd:1c:b7:cd:34:af
    Signature Algorithm: sha384WithRSAEncryption
        Issuer: C=GB, ST=Greater Manchester, L=Salford, O=COMODO CA Limited, CN=COMODO RSA Certification Authority
        Validity
            Not Before: May  9 00:00:00 2013 GMT
            Not After : May  8 23:59:59 2028 GMT
        Subject: C=GB, ST=Greater Manchester, L=Salford, O=COMODO CA Limited, CN=COMODO RSA Code Signing CA
        Subject Public Key Info:
            Public Key Algorithm: rsaEncryption
                Public-Key: (2048 bit)
                Modulus:
                    00:a6:98:90:63:77:91:34:7f:8a:d1:dd:e9:67:31:
                    11:eb:cc:1e:fd:31:1d:b3:b9:62:57:3f:93:bc:5b:
                    e3:9f:1e:24:32:11:27:6b:bc:51:91:a7:cf:9e:9e:
                    25:b3:5f:81:a8:18:0f:1d:1e:20:30:0e:fb:61:7b:
                    86:09:b3:e3:fd:a2:68:9d:1c:2c:9d:bf:72:e3:e4:
                    75:a0:e5:35:23:8e:c9:8a:ee:1a:0c:64:c7:d8:42:
                    a1:7b:b5:52:03:4b:3a:b0:8e:23:4b:4b:63:e0:22:
                    94:37:7b:d5:79:90:0a:14:18:51:2c:e6:fe:c1:12:
                    f0:1c:3f:61:61:0a:8c:a2:dc:f6:c3:30:aa:cd:28:
                    18:75:48:c1:79:5a:08:cd:bb:8c:55:8c:f7:d4:76:
                    90:3a:33:46:50:73:98:5c:f4:85:4a:6b:0f:80:dd:
                    5e:d6:bd:fd:a9:2f:c0:25:f5:f9:78:d7:8d:5f:10:
                    c2:44:55:3c:90:3c:31:46:cb:70:ae:07:a9:0a:e3:
                    af:c1:01:6f:90:1a:23:e2:5f:38:db:c6:08:5d:47:
                    b3:83:41:f0:2e:00:37:14:b9:12:aa:79:92:52:cd:
                    87:0f:7b:d8:62:29:a4:7e:30:bd:1b:b5:8c:72:b4:
                    48:f2:e3:e8:21:f9:5e:4c:62:79:8b:02:06:9f:7f:
                    d5:0b
                Exponent: 65537 (0x10001)
        X509v3 extensions:
            X509v3 Authority Key Identifier: 
                keyid:BB:AF:7E:02:3D:FA:A6:F1:3C:84:8E:AD:EE:38:98:EC:D9:32:32:D4

            X509v3 Subject Key Identifier: 
                29:91:60:FF:8A:4D:FA:EB:F9:A6:6A:B8:CF:F9:E6:4B:BD:49:CE:12
            X509v3 Key Usage: critical
                Digital Signature, Certificate Sign, CRL Sign
            X509v3 Basic Constraints: critical
                CA:TRUE, pathlen:0
            X509v3 Extended Key Usage: 
                Code Signing
            X509v3 Certificate Policies: 
                Policy: X509v3 Any Policy

            X509v3 CRL Distribution Points: 

                Full Name:
                  URI:http://crl.comodoca.com/COMODORSACertificationAuthority.crl

            Authority Information Access: 
                CA Issuers - URI:http://crt.comodoca.com/COMODORSAAddTrustCA.crt
                OCSP - URI:http://ocsp.comodoca.com

    Signature Algorithm: sha384WithRSAEncryption
         02:3f:02:39:c3:ee:f8:ca:3b:89:de:0c:6d:4d:b1:f1:4e:92:
         4f:af:c2:38:2c:04:cc:c5:63:11:ab:09:63:af:ab:a2:d7:02:
         3f:cc:6f:19:c3:3d:d6:1a:08:94:ff:25:d8:a9:88:a7:2b:10:
         1a:e0:9b:b1:07:22:1a:51:1c:3a:d4:e1:e9:09:bf:e6:24:74:
         af:1e:7b:16:31:6e:23:ef:54:51:2d:52:02:e2:75:08:05:4c:
         f1:b7:51:e1:51:00:c6:87:f6:6c:ee:10:44:76:57:6a:f1:df:
         58:6b:21:aa:49:d4:7c:37:4e:bd:ff:b6:75:54:40:18:36:57:
         67:11:cd:4f:02:e4:fe:f3:da:fc:75:17:db:ec:b7:f7:65:09:
         23:49:1f:43:57:83:ea:7e:20:77:61:c8:4d:f2:bb:65:4d:a8:
         f7:85:45:07:af:7a:69:27:65:90:29:40:8b:df:7b:3a:51:39:
         8c:a8:1f:70:79:ad:6d:42:20:a2:cf:0c:6c:03:8c:4c:cd:73:
         07:94:e7:5a:8e:3a:04:ba:a2:a1:7c:1f:cb:63:3a:15:a7:d4:
         15:1b:a7:52:47:32:a9:f4:bf:64:47:d1:aa:1f:53:4e:32:30:
         73:c2:6f:b7:78:82:9d:5c:ff:46:bb:6b:22:1d:88:0b:f8:1b:
         aa:34:a6:fc:8c:f5:dd:7f:65:8c:8c:31:57:31:d0:36:ec:47:
         a1:cf:cb:8b:a8:ef:1c:18:58:c5:06:77:ca:4b:9b:51:af:4c:
         08:4a:7a:8f:e2:a3:52:e2:8e:8e:cc:26:e4:b2:d8:e5:38:c2:
         a8:ed:c6:81:9c:35:6b:a9:58:61:4a:0a:97:b4:4b:42:b6:55:
         9d:be:99:e7:70:6d:59:f8:6d:2a:0c:7f:19:60:5f:0c:9a:88:
         6c:30:ac:52:09:90:16:1b:ff:2b:9d:db:d0:20:ca:89:ea:28:
         7e:32:8e:19:df:7b:48:33:1e:d7:65:f8:ae:c9:f8:83:14:93:
         76:7d:64:d0:8e:ce:be:35:7d:ff:72:31:4d:9f:9e:bd:1e:6c:
         2f:a8:8f:0c:06:50:fb:8c:27:b3:76:c9:f4:e6:d7:c3:34:e2:
         8c:87:21:86:61:fe:bf:55:74:e1:21:77:03:0a:68:6c:bb:e4:
         c9:a9:e6:cf:59:25:eb:7c:ec:45:0e:79:66:68:e8:22:cd:b8:
         ef:98:85:4d:96:11:3c:09:8a:d0:7f:bc:28:28:13:fb:6a:ca:
         54:8d:92:5c:cd:c2:65:98:06:9e:ce:48:5b:d4:b5:37:93:46:
         41:7c:07:dd:cf:fa:43:ef:ba:67:61:ff:7d:49:e0:bb:30:7d:
         5c:80:e3:e6:16:39:4b:a7
-----BEGIN CERTIFICATE-----
MIIF4DCCA8igAwIBAgIQLnyHzA6TSlL+lP0ct800rzANBgkqhkiG9w0BAQwFADCB
hTELMAkGA1UEBhMCR0IxGzAZBgNVBAgTEkdyZWF0ZXIgTWFuY2hlc3RlcjEQMA4G
A1UEBxMHU2FsZm9yZDEaMBgGA1UEChMRQ09NT0RPIENBIExpbWl0ZWQxKzApBgNV
BAMTIkNPTU9ETyBSU0EgQ2VydGlmaWNhdGlvbiBBdXRob3JpdHkwHhcNMTMwNTA5
MDAwMDAwWhcNMjgwNTA4MjM1OTU5WjB9MQswCQYDVQQGEwJHQjEbMBkGA1UECBMS
R3JlYXRlciBNYW5jaGVzdGVyMRAwDgYDVQQHEwdTYWxmb3JkMRowGAYDVQQKExFD
T01PRE8gQ0EgTGltaXRlZDEjMCEGA1UEAxMaQ09NT0RPIFJTQSBDb2RlIFNpZ25p
bmcgQ0EwggEiMA0GCSqGSIb3DQEBAQUAA4IBDwAwggEKAoIBAQCmmJBjd5E0f4rR
3elnMRHrzB79MR2zuWJXP5O8W+OfHiQyESdrvFGRp8+eniWzX4GoGA8dHiAwDvth
e4YJs+P9omidHCydv3Lj5HWg5TUjjsmK7hoMZMfYQqF7tVIDSzqwjiNLS2PgIpQ3
e9V5kAoUGFEs5v7BEvAcP2FhCoyi3PbDMKrNKBh1SMF5WgjNu4xVjPfUdpA6M0ZQ
c5hc9IVKaw+A3V7Wvf2pL8Al9fl4141fEMJEVTyQPDFGy3CuB6kK46/BAW+QGiPi
XzjbxghdR7ODQfAuADcUuRKqeZJSzYcPe9hiKaR+ML0btYxytEjy4+gh+V5MYnmL
Agaff9ULAgMBAAGjggFRMIIBTTAfBgNVHSMEGDAWgBS7r34CPfqm8TyEjq3uOJjs
2TIy1DAdBgNVHQ4EFgQUKZFg/4pN+uv5pmq4z/nmS71JzhIwDgYDVR0PAQH/BAQD
AgGGMBIGA1UdEwEB/wQIMAYBAf8CAQAwEwYDVR0lBAwwCgYIKwYBBQUHAwMwEQYD
VR0gBAowCDAGBgRVHSAAMEwGA1UdHwRFMEMwQaA/oD2GO2h0dHA6Ly9jcmwuY29t
b2RvY2EuY29tL0NPTU9ET1JTQUNlcnRpZmljYXRpb25BdXRob3JpdHkuY3JsMHEG
CCsGAQUFBwEBBGUwYzA7BggrBgEFBQcwAoYvaHR0cDovL2NydC5jb21vZG9jYS5j
b20vQ09NT0RPUlNBQWRkVHJ1c3RDQS5jcnQwJAYIKwYBBQUHMAGGGGh0dHA6Ly9v
Y3NwLmNvbW9kb2NhLmNvbTANBgkqhkiG9w0BAQwFAAOCAgEAAj8COcPu+Mo7id4M
bU2x8U6ST6/COCwEzMVjEasJY6+rotcCP8xvGcM91hoIlP8l2KmIpysQGuCbsQci
GlEcOtTh6Qm/5iR0rx57FjFuI+9UUS1SAuJ1CAVM8bdR4VEAxof2bO4QRHZXavHf
WGshqknUfDdOvf+2dVRAGDZXZxHNTwLk/vPa/HUX2+y392UJI0kfQ1eD6n4gd2HI
TfK7ZU2o94VFB696aSdlkClAi997OlE5jKgfcHmtbUIgos8MbAOMTM1zB5TnWo46
BLqioXwfy2M6FafUFRunUkcyqfS/ZEfRqh9TTjIwc8Jvt3iCnVz/RrtrIh2IC/gb
qjSm/Iz13X9ljIwxVzHQNuxHoc/Li6jvHBhYxQZ3ykubUa9MCEp6j+KjUuKOjswm
5LLY5TjCqO3GgZw1a6lYYUoKl7RLQrZVnb6Z53BtWfhtKgx/GWBfDJqIbDCsUgmQ
Fhv/K53b0CDKieoofjKOGd97SDMe12X4rsn4gxSTdn1k0I7OvjV9/3IxTZ+evR5s
L6iPDAZQ+4wns3bJ9ObXwzTijIchhmH+v1V04SF3AwpobLvkyanmz1kl63zsRQ55
ZmjoIs2475iFTZYRPAmK0H+8KCgT+2rKVI2SXM3CZZgGns5IW9S1N5NGQXwH3c/6
Q++6Z2H/fUnguzB9XIDj5hY5S6c=
-----END CERTIFICATE-----

