Certificate:
    Data:
        Version: 3 (0x2)
        Serial Number:
            79:a2:a5:85:f9:d1:15:42:13:d9:b8:3e:f6:b6:8d:ed
    Signature Algorithm: sha1WithRSAEncryption
        Issuer: C=US, O=VeriSign, Inc., CN=VeriSign Time Stamping Services CA
        Validity
            Not Before: May  1 00:00:00 2012 GMT
            Not After : Dec 31 23:59:59 2012 GMT
        Subject: C=US, O=Symantec Corporation, CN=Symantec Time Stamping Services Signer - G3
        Subject Public Key Info:
            Public Key Algorithm: rsaEncryption
                Public-Key: (1024 bit)
                Modulus:
                    00:a9:59:66:74:da:3d:8a:7d:7a:d8:fc:f5:80:44:
                    7b:fe:47:6a:14:55:4e:50:47:0b:ec:d3:ed:ce:f6:
                    38:f7:4f:69:b9:b1:f0:b6:78:82:0a:8c:76:16:67:
                    e2:02:ad:b7:0d:a5:8a:f6:03:fc:66:d3:fc:08:2d:
                    cc:b5:73:59:7b:89:dc:33:6e:66:5a:5e:52:37:b4:
                    62:d1:92:59:35:14:8b:45:ac:59:b2:4d:24:a2:98:
                    94:68:42:72:9f:3a:68:e2:6b:8b:9e:22:2d:f4:98:
                    4e:9a:c6:af:b3:e4:a0:ab:3c:28:bf:23:e1:d7:72:
                    a4:f2:10:53:67:ae:77:af:51
                Exponent: 65537 (0x10001)
        X509v3 extensions:
            X509v3 Basic Constraints: critical
                CA:FALSE
            X509v3 CRL Distribution Points: 

                Full Name:
                  URI:http://crl.verisign.com/tss-ca.crl

            X509v3 Extended Key Usage: critical
                Time Stamping
            Authority Information Access: 
                OCSP - URI:http://ocsp.verisign.com

            X509v3 Key Usage: critical
                Digital Signature
            X509v3 Subject Alternative Name: 
                DirName:/CN=TSA1-3
            X509v3 Subject Key Identifier: 
                B4:B7:F1:89:49:26:60:E7:65:EA:73:AE:DC:D3:38:CD:BF:57:92:6F
    Signature Algorithm: sha1WithRSAEncryption
         1e:98:aa:27:b7:78:b5:08:b5:c9:72:6d:b7:df:c0:0e:98:a6:
         35:c4:88:c9:d2:f6:6d:f1:4b:1a:fb:d5:f9:2d:99:00:9e:d1:
         e7:9b:8b:e1:3f:bd:39:80:0c:66:cd:07:bc:5c:98:54:a6:94:
         ba:10:d1:4e:8b:ab:f5:6f:65:cc:67:09:a2:80:7c:52:e8:0e:
         03:d6:6b:7a:c6:05:18:ec:c8:ac:42:7c:07:2c:a7:3d:08:66:
         dc:00:ed:fd:94:1d:73:f2:72:98:93:b1:11:d6:8f:ef:8e:ea:
         ac:f4:96:51:0c:d0:8d:df:31:52:4f:5e:af:7d:a7:4a:75:e6:
         4e:ce:2b:9f:29:2b:e7:cf:5d:9f:03:7e:6e:27:7b:23:ad:62:
         29:66:af:92:e8:2c:ce:bd:9c:7f:dc:cd:17:3c:43:c2:09:3f:
         75:45:c7:9e:e4:d7:60:7f:97:c6:e4:aa:c7:69:f5:fc:cd:74:
         ac:2c:b0:48:c1:50:4e:70:56:1e:b5:35:d3:8e:be:b1:ed:ac:
         bd:fe:0c:ec:85:7d:d5:bb:85:66:44:19:5d:9f:93:eb:82:ba:
         63:9e:d3:7c:61:ff:c8:1b:d9:23:58:7f:30:a3:66:a1:39:26:
         5e:92:c3:3c:cb:37:32:fa:f5:a3:8d:dc:d5:b0:a3:e9:25:36:
         55:d7:81:fa
-----BEGIN CERTIFICATE-----
MIIDnzCCAoegAwIBAgIQeaKlhfnRFUIT2bg+9raN7TANBgkqhkiG9w0BAQUFADBT
MQswCQYDVQQGEwJVUzEXMBUGA1UEChMOVmVyaVNpZ24sIEluYy4xKzApBgNVBAMT
IlZlcmlTaWduIFRpbWUgU3RhbXBpbmcgU2VydmljZXMgQ0EwHhcNMTIwNTAxMDAw
MDAwWhcNMTIxMjMxMjM1OTU5WjBiMQswCQYDVQQGEwJVUzEdMBsGA1UEChMUU3lt
YW50ZWMgQ29ycG9yYXRpb24xNDAyBgNVBAMTK1N5bWFudGVjIFRpbWUgU3RhbXBp
bmcgU2VydmljZXMgU2lnbmVyIC0gRzMwgZ8wDQYJKoZIhvcNAQEBBQADgY0AMIGJ
AoGBAKlZZnTaPYp9etj89YBEe/5HahRVTlBHC+zT7c72OPdPabmx8LZ4ggqMdhZn
4gKttw2livYD/GbT/AgtzLVzWXuJ3DNuZlpeUje0YtGSWTUUi0WsWbJNJKKYlGhC
cp86aOJri54iLfSYTprGr7PkoKs8KL8j4ddypPIQU2eud69RAgMBAAGjgeMwgeAw
DAYDVR0TAQH/BAIwADAzBgNVHR8ELDAqMCigJqAkhiJodHRwOi8vY3JsLnZlcmlz
aWduLmNvbS90c3MtY2EuY3JsMBYGA1UdJQEB/wQMMAoGCCsGAQUFBwMIMDQGCCsG
AQUFBwEBBCgwJjAkBggrBgEFBQcwAYYYaHR0cDovL29jc3AudmVyaXNpZ24uY29t
MA4GA1UdDwEB/wQEAwIHgDAeBgNVHREEFzAVpBMwETEPMA0GA1UEAxMGVFNBMS0z
MB0GA1UdDgQWBBS0t/GJSSZg52Xqc67c0zjNv1eSbzANBgkqhkiG9w0BAQUFAAOC
AQEAHpiqJ7d4tQi1yXJtt9/ADpimNcSIydL2bfFLGvvV+S2ZAJ7R55uL4T+9OYAM
Zs0HvFyYVKaUuhDRTour9W9lzGcJooB8UugOA9ZresYFGOzIrEJ8ByynPQhm3ADt
/ZQdc/JymJOxEdaP747qrPSWUQzQjd8xUk9er32nSnXmTs4rnykr589dnwN+bid7
I61iKWavkugszr2cf9zNFzxDwgk/dUXHnuTXYH+XxuSqx2n1/M10rCywSMFQTnBW
HrU1046+se2svf4M7IV91buFZkQZXZ+T64K6Y57TfGH/yBvZI1h/MKNmoTkmXpLD
PMs3Mvr1o43c1bCj6SU2VdeB+g==
-----END CERTIFICATE-----

Certificate:
    Data:
        Version: 3 (0x2)
        Serial Number:
            47:bf:19:95:df:8d:52:46:43:f7:db:6d:48:0d:31:a4
    Signature Algorithm: sha1WithRSAEncryption
        Issuer: C=ZA, ST=Western Cape, L=Durbanville, O=Thawte, OU=Thawte Certification, CN=Thawte Timestamping CA
        Validity
            Not Before: Dec  4 00:00:00 2003 GMT
            Not After : Dec  3 23:59:59 2013 GMT
        Subject: C=US, O=VeriSign, Inc., CN=VeriSign Time Stamping Services CA
        Subject Public Key Info:
            Public Key Algorithm: rsaEncryption
                Public-Key: (2048 bit)
                Modulus:
                    00:a9:ca:b2:a4:cc:cd:20:af:0a:7d:89:ac:87:75:
                    f0:b4:4e:f1:df:c1:0f:bf:67:61:bd:a3:64:1c:da:
                    bb:f9:ca:33:ab:84:30:89:58:7e:8c:db:6b:dd:36:
                    9e:0f:bf:d1:ec:78:f2:77:a6:7e:6f:3c:bf:93:af:
                    0d:ba:68:f4:6c:94:ca:bd:52:2d:ab:48:3d:f5:b6:
                    d5:5d:5f:1b:02:9f:fa:2f:6b:1e:a4:f7:a3:9a:a6:
                    1a:c8:02:e1:7f:4c:52:e3:0e:60:ec:40:1c:7e:b9:
                    0d:de:3f:c7:b4:df:87:bd:5f:7a:6a:31:2e:03:99:
                    81:13:a8:47:20:ce:31:73:0d:57:2d:cd:78:34:33:
                    95:12:99:12:b9:de:68:2f:aa:e6:e3:c2:8a:8c:2a:
                    c3:8b:21:87:66:bd:83:58:57:6f:75:bf:3c:aa:26:
                    87:5d:ca:10:15:3c:9f:84:ea:54:c1:0a:6e:c4:fe:
                    c5:4a:dd:b9:07:11:97:22:7c:db:3e:27:d1:1e:78:
                    ec:9f:31:c9:f1:e6:22:19:db:c4:b3:47:43:9a:1a:
                    5f:a0:1e:90:e4:5e:f5:ee:7c:f1:7d:ab:62:01:8f:
                    f5:4d:0b:de:d0:22:56:a8:95:cd:ae:88:76:ae:ee:
                    ba:0d:f3:e4:4d:d9:a0:fb:68:a0:ae:14:3b:b3:87:
                    c1:bb
                Exponent: 65537 (0x10001)
        X509v3 extensions:
            Authority Information Access: 
                OCSP - URI:http://ocsp.verisign.com

            X509v3 Basic Constraints: critical
                CA:TRUE, pathlen:0
            X509v3 CRL Distribution Points: 

                Full Name:
                  URI:http://crl.verisign.com/ThawteTimestampingCA.crl

            X509v3 Extended Key Usage: 
                Time Stamping
            X509v3 Key Usage: critical
                Certificate Sign, CRL Sign
            X509v3 Subject Alternative Name: 
                DirName:/CN=TSA2048-1-53
    Signature Algorithm: sha1WithRSAEncryption
         4a:6b:f9:ea:58:c2:44:1c:31:89:79:99:2b:96:bf:82:ac:01:
         d6:1c:4c:cd:b0:8a:58:6e:df:08:29:a3:5e:c8:ca:93:13:e7:
         04:52:0d:ef:47:27:2f:00:38:b0:e4:c9:93:4e:9a:d4:22:62:
         15:f7:3f:37:21:4f:70:31:80:f1:8b:38:87:b3:e8:e8:97:00:
         fe:cf:55:96:4e:24:d2:a9:27:4e:7a:ae:b7:61:41:f3:2a:ce:
         e7:c9:d9:5e:dd:bb:2b:85:3e:b5:9d:b5:d9:e1:57:ff:be:b4:
         c5:7e:f5:cf:0c:9e:f0:97:fe:2b:d3:3b:52:1b:1b:38:27:f7:
         3f:4a
-----BEGIN CERTIFICATE-----
MIIDxDCCAy2gAwIBAgIQR78Zld+NUkZD99ttSA0xpDANBgkqhkiG9w0BAQUFADCB
izELMAkGA1UEBhMCWkExFTATBgNVBAgTDFdlc3Rlcm4gQ2FwZTEUMBIGA1UEBxML
RHVyYmFudmlsbGUxDzANBgNVBAoTBlRoYXd0ZTEdMBsGA1UECxMUVGhhd3RlIENl
cnRpZmljYXRpb24xHzAdBgNVBAMTFlRoYXd0ZSBUaW1lc3RhbXBpbmcgQ0EwHhcN
MDMxMjA0MDAwMDAwWhcNMTMxMjAzMjM1OTU5WjBTMQswCQYDVQQGEwJVUzEXMBUG
A1UEChMOVmVyaVNpZ24sIEluYy4xKzApBgNVBAMTIlZlcmlTaWduIFRpbWUgU3Rh
bXBpbmcgU2VydmljZXMgQ0EwggEiMA0GCSqGSIb3DQEBAQUAA4IBDwAwggEKAoIB
AQCpyrKkzM0grwp9iayHdfC0TvHfwQ+/Z2G9o2Qc2rv5yjOrhDCJWH6M22vdNp4P
v9HsePJ3pn5vPL+Trw26aPRslMq9Ui2rSD31ttVdXxsCn/ovax6k96OaphrIAuF/
TFLjDmDsQBx+uQ3eP8e034e9X3pqMS4DmYETqEcgzjFzDVctzXg0M5USmRK53mgv
qubjwoqMKsOLIYdmvYNYV291vzyqJoddyhAVPJ+E6lTBCm7E/sVK3bkHEZcifNs+
J9EeeOyfMcnx5iIZ28SzR0OaGl+gHpDkXvXufPF9q2IBj/VNC97QIlaolc2uiHau
7roN8+RN2aD7aKCuFDuzh8G7AgMBAAGjgdswgdgwNAYIKwYBBQUHAQEEKDAmMCQG
CCsGAQUFBzABhhhodHRwOi8vb2NzcC52ZXJpc2lnbi5jb20wEgYDVR0TAQH/BAgw
BgEB/wIBADBBBgNVHR8EOjA4MDagNKAyhjBodHRwOi8vY3JsLnZlcmlzaWduLmNv
bS9UaGF3dGVUaW1lc3RhbXBpbmdDQS5jcmwwEwYDVR0lBAwwCgYIKwYBBQUHAwgw
DgYDVR0PAQH/BAQDAgEGMCQGA1UdEQQdMBukGTAXMRUwEwYDVQQDEwxUU0EyMDQ4
LTEtNTMwDQYJKoZIhvcNAQEFBQADgYEASmv56ljCRBwxiXmZK5a/gqwB1hxMzbCK
WG7fCCmjXsjKkxPnBFIN70cnLwA4sOTJk06a1CJiFfc/NyFPcDGA8Ys4h7Po6JcA
/s9Vlk4k0qknTnqut2FB8yrO58nZXt27K4U+tZ212eFX/760xX71zwye8Jf+K9M7
UhsbOCf3P0o=
-----END CERTIFICATE-----

Certificate:
    Data:
        Version: 3 (0x2)
        Serial Number:
            4d:62:90:e5:8c:54:f0:f1:eb:17:34:1a:13:10:e6:a4
    Signature Algorithm: sha1WithRSAEncryption
        Issuer: C=US, O=VeriSign, Inc., OU=Class 3 Public Primary Certification Authority
        Validity
            Not Before: Sep 30 00:00:00 2010 GMT
            Not After : Jan  1 23:59:59 2014 GMT
        Subject: C=US, O=VeriSign, Inc., OU=VeriSign Trust Network, OU=Terms of use at https://www.verisign.com/rpa (c)10, CN=VeriSign Class 3 Code Signing 2010 CA
        Subject Public Key Info:
            Public Key Algorithm: rsaEncryption
                Public-Key: (2048 bit)
                Modulus:
                    00:f5:23:4b:5e:a5:d7:8a:bb:32:e9:d4:57:f7:ef:
                    e4:c7:26:7e:ad:19:98:fe:a8:9d:7d:94:f6:36:6b:
                    10:d7:75:81:30:7f:04:68:7f:cb:2b:75:1e:cd:1d:
                    08:8c:df:69:94:a7:37:a3:9c:7b:80:e0:99:e1:ee:
                    37:4d:5f:ce:3b:14:ee:86:d4:d0:f5:27:35:bc:25:
                    0b:38:a7:8c:63:9d:17:a3:08:a5:ab:b0:fb:cd:6a:
                    62:82:4c:d5:21:da:1b:d9:f1:e3:84:3b:8a:2a:4f:
                    85:5b:90:01:4f:c9:a7:76:10:7f:27:03:7c:be:ae:
                    7e:7d:c1:dd:f9:05:bc:1b:48:9c:69:e7:c0:a4:3c:
                    3c:41:00:3e:df:96:e5:c5:e4:94:71:d6:55:01:c7:
                    00:26:4a:40:3c:b5:a1:26:a9:0c:a7:6d:80:8e:90:
                    25:7b:cf:bf:3f:1c:eb:2f:96:fa:e5:87:77:c6:b5:
                    56:b2:7a:3b:54:30:53:1b:df:62:34:ff:1e:d1:f4:
                    5a:93:28:85:e5:4c:17:4e:7e:5b:fd:a4:93:99:7f:
                    df:cd:ef:a4:75:ef:ef:15:f6:47:e7:f8:19:72:d8:
                    2e:34:1a:a6:b4:a7:4c:7e:bd:bb:4f:0c:3d:57:f1:
                    30:d6:a6:36:8e:d6:80:76:d7:19:2e:a5:cd:7e:34:
                    2d:89
                Exponent: 65537 (0x10001)
        X509v3 extensions:
            X509v3 Basic Constraints: critical
                CA:TRUE, pathlen:0
            X509v3 Certificate Policies: 
                Policy: 2.16.840.1.113733.1.7.23.3
                  CPS: https://www.verisign.com/cps
                  User Notice:
                    Explicit Text: https://www.verisign.com/rpa

            X509v3 Key Usage: critical
                Certificate Sign, CRL Sign
            1.3.6.1.5.5.7.1.12: 
                0_.].[0Y0W0U..image/gif0!0.0...+..............k...j.H.,{..0%.#http://logo.verisign.com/vslogo.gif
            X509v3 Extended Key Usage: 
                TLS Web Client Authentication, Code Signing
            X509v3 Subject Alternative Name: 
                DirName:/CN=VeriSignMPKI-2-8
            X509v3 Subject Key Identifier: 
                CF:99:A9:EA:7B:26:F4:4B:C9:8E:8F:D7:F0:05:26:EF:E3:D2:A7:9D
            X509v3 CRL Distribution Points: 

                Full Name:
                  URI:http://crl.verisign.com/pca3.crl

    Signature Algorithm: sha1WithRSAEncryption
         ae:dd:21:1d:5f:8f:80:7a:d2:52:09:ea:db:6e:d2:5d:8b:e8:
         c2:1b:69:04:be:51:a5:01:0e:59:fa:37:d1:74:a3:ee:dc:ed:
         89:74:2b:62:d5:a6:bf:4f:ad:36:17:54:f0:13:e0:a3:45:d2:
         4c:26:cb:e2:6d:a2:1f:d0:1e:7a:07:0f:b6:b3:7b:6f:50:68:
         a2:e9:31:b3:b7:99:7d:80:70:a0:a7:de:0b:1e:a4:ff:f3:4d:
         81:1b:dd:20:c9:1c:c4:af:cf:f1:8f:fa:d9:da:95:f0:ec:dc:
         5c:bf:e8:8c:5a:3e:7a:b0:a3:eb:59:43:74:11:e0:9b:1a:6a:
         f3:6f
-----BEGIN CERTIFICATE-----
MIIEwzCCBCygAwIBAgIQTWKQ5YxU8PHrFzQaExDmpDANBgkqhkiG9w0BAQUFADBf
MQswCQYDVQQGEwJVUzEXMBUGA1UEChMOVmVyaVNpZ24sIEluYy4xNzA1BgNVBAsT
LkNsYXNzIDMgUHVibGljIFByaW1hcnkgQ2VydGlmaWNhdGlvbiBBdXRob3JpdHkw
HhcNMTAwOTMwMDAwMDAwWhcNMTQwMTAxMjM1OTU5WjCBtDELMAkGA1UEBhMCVVMx
FzAVBgNVBAoTDlZlcmlTaWduLCBJbmMuMR8wHQYDVQQLExZWZXJpU2lnbiBUcnVz
dCBOZXR3b3JrMTswOQYDVQQLEzJUZXJtcyBvZiB1c2UgYXQgaHR0cHM6Ly93d3cu
dmVyaXNpZ24uY29tL3JwYSAoYykxMDEuMCwGA1UEAxMlVmVyaVNpZ24gQ2xhc3Mg
MyBDb2RlIFNpZ25pbmcgMjAxMCBDQTCCASIwDQYJKoZIhvcNAQEBBQADggEPADCC
AQoCggEBAPUjS16l14q7MunUV/fv5Mcmfq0ZmP6onX2U9jZrENd1gTB/BGh/yyt1
Hs0dCIzfaZSnN6Oce4DgmeHuN01fzjsU7obU0PUnNbwlCzinjGOdF6MIpauw+81q
YoJM1SHaG9nx44Q7iipPhVuQAU/Jp3YQfycDfL6ufn3B3fkFvBtInGnnwKQ8PEEA
Pt+W5cXklHHWVQHHACZKQDy1oSapDKdtgI6QJXvPvz8c6y+W+uWHd8a1VrJ6O1Qw
UxvfYjT/HtH0WpMoheVMF05+W/2kk5l/383vpHXv7xX2R+f4GXLYLjQaprSnTH69
u08MPVfxMNamNo7WgHbXGS6lzX40LYkCAwEAAaOCAaQwggGgMBIGA1UdEwEB/wQI
MAYBAf8CAQAwcAYDVR0gBGkwZzBlBgtghkgBhvhFAQcXAzBWMCgGCCsGAQUFBwIB
FhxodHRwczovL3d3dy52ZXJpc2lnbi5jb20vY3BzMCoGCCsGAQUFBwICMB4aHGh0
dHBzOi8vd3d3LnZlcmlzaWduLmNvbS9ycGEwDgYDVR0PAQH/BAQDAgEGMG0GCCsG
AQUFBwEMBGEwX6FdoFswWTBXMFUWCWltYWdlL2dpZjAhMB8wBwYFKw4DAhoEFI/l
0xqGrI2Oa8PPgGrUSBgsexkuMCUWI2h0dHA6Ly9sb2dvLnZlcmlzaWduLmNvbS92
c2xvZ28uZ2lmMB0GA1UdJQQWMBQGCCsGAQUFBwMCBggrBgEFBQcDAzAoBgNVHREE
ITAfpB0wGzEZMBcGA1UEAxMQVmVyaVNpZ25NUEtJLTItODAdBgNVHQ4EFgQUz5mp
6nsm9EvJjo/X8AUm7+PSp50wMQYDVR0fBCowKDAmoCSgIoYgaHR0cDovL2NybC52
ZXJpc2lnbi5jb20vcGNhMy5jcmwwDQYJKoZIhvcNAQEFBQADgYEArt0hHV+PgHrS
Ugnq227SXYvowhtpBL5RpQEOWfo30XSj7tztiXQrYtWmv0+tNhdU8BPgo0XSTCbL
4m2iH9AeegcPtrN7b1Booukxs7eZfYBwoKfeCx6k//NNgRvdIMkcxK/P8Y/62dqV
8OzcXL/ojFo+erCj61lDdBHgmxpq828=
-----END CERTIFICATE-----

Certificate:
    Data:
        Version: 3 (0x2)
        Serial Number:
            61:0c:12:06:00:00:00:00:00:1b
    Signature Algorithm: sha1WithRSAEncryption
        Issuer: C=US, ST=Washington, L=Redmond, O=Microsoft Corporation, CN=Microsoft Code Verification Root
        Validity
            Not Before: May 23 17:01:29 2006 GMT
            Not After : May 23 17:11:29 2016 GMT
        Subject: C=US, O=VeriSign, Inc., OU=Class 3 Public Primary Certification Authority
        Subject Public Key Info:
            Public Key Algorithm: rsaEncryption
                Public-Key: (1024 bit)
                Modulus:
                    00:c9:5c:59:9e:f2:1b:8a:01:14:b4:10:df:04:40:
                    db:e3:57:af:6a:45:40:8f:84:0c:0b:d1:33:d9:d9:
                    11:cf:ee:02:58:1f:25:f7:2a:a8:44:05:aa:ec:03:
                    1f:78:7f:9e:93:b9:9a:00:aa:23:7d:d6:ac:85:a2:
                    63:45:c7:72:27:cc:f4:4c:c6:75:71:d2:39:ef:4f:
                    42:f0:75:df:0a:90:c6:8e:20:6f:98:0f:f8:ac:23:
                    5f:70:29:36:a4:c9:86:e7:b1:9a:20:cb:53:a5:85:
                    e7:3d:be:7d:9a:fe:24:45:33:dc:76:15:ed:0f:a2:
                    71:64:4c:65:2e:81:68:45:a7
                Exponent: 65537 (0x10001)
        X509v3 extensions:
            X509v3 Certificate Policies: 
                Policy: X509v3 Any Policy

            1.3.6.1.4.1.311.21.7: 
                0'..+.....7......N...................n...
            X509v3 Key Usage: 
                Digital Signature, Certificate Sign, CRL Sign
            X509v3 Basic Constraints: critical
                CA:TRUE
            X509v3 Subject Key Identifier: 
                E2:7F:7B:D8:77:D5:DF:9E:0A:3F:9E:B4:CB:0E:2E:A9:EF:DB:69:77
            1.3.6.1.4.1.311.20.2: 
                ...C.r.o.s.s.C.A
            X509v3 Authority Key Identifier: 
                keyid:62:FB:0A:21:5B:7F:43:6E:11:DA:09:54:50:6B:F5:D2:96:71:F1:9E

            X509v3 CRL Distribution Points: 

                Full Name:
                  URI:http://crl.microsoft.com/pki/crl/products/MicrosoftCodeVerifRoot.crl

    Signature Algorithm: sha1WithRSAEncryption
         01:e4:46:b3:3b:45:7f:75:13:87:7e:5f:43:de:46:8e:cb:8a:
         bd:b6:47:41:bc:cc:cc:74:91:d8:ce:39:51:95:a4:a6:b5:47:
         c0:ef:d2:da:7b:8f:57:11:f4:32:8c:7c:cd:3f:ee:42:da:04:
         21:4a:f7:c8:43:88:4a:6f:5c:ca:14:fc:4b:d1:9f:4c:bd:d4:
         55:6e:cc:02:be:0d:a6:88:8f:86:09:ba:a4:25:bd:e8:b0:f0:
         fa:8b:71:4e:67:b0:cb:82:a8:d7:8e:55:f7:37:eb:f0:3e:88:
         ef:e4:e0:8a:fd:1c:6e:2e:61:41:48:75:b4:b0:2c:1d:28:d8:
         49:0f:d7:15:f0:24:73:25:3c:cc:88:0c:de:28:4c:65:54:fe:
         5e:ae:8c:ea:19:ad:2c:51:b2:9b:3a:47:f5:3c:80:35:01:17:
         e2:49:87:d6:54:4a:fb:4b:ab:07:bc:bf:7d:79:cf:bf:35:00:
         5c:bb:9e:cf:fc:82:89:1b:39:a0:51:97:b6:de:c0:b3:07:ff:
         44:96:44:c0:34:2a:19:5c:ab:ee:f0:3b:ec:29:4e:b5:13:c5:
         37:85:7e:75:d5:b4:d6:0d:06:6e:b5:d2:6c:23:71:67:ea:f1:
         71:8e:af:4e:74:aa:0c:f9:ec:bf:4c:58:fa:5e:90:9b:6d:39:
         cb:86:88:3f:8b:1c:a8:16:32:d5:fe:6d:b9:f1:f8:b3:ea:d7:
         91:f6:36:47:78:c0:27:2a:15:c7:68:d6:f4:c5:fc:4f:4e:c8:
         67:3f:10:2d:40:9f:f1:1e:c9:61:48:e7:a7:03:fc:31:73:0c:
         f0:46:88:fe:56:da:49:29:95:ef:09:da:a3:e5:be:ef:60:ec:
         d9:54:a0:59:9c:28:bd:54:ef:66:15:7f:87:4c:84:db:a6:0e:
         95:67:2e:51:7b:34:39:b6:41:c2:8c:84:68:26:dc:24:02:09:
         e7:81:8e:0a:97:2d:ef:ee:a7:b9:98:a6:0f:81:8d:c7:10:b5:
         e1:ed:98:2f:48:6f:53:85:49:64:78:9b:ec:5d:ac:97:0b:55:
         26:c3:ef:ba:8d:c8:d1:a5:2f:5a:7f:93:6b:61:1a:33:9b:18:
         b8:a2:62:10:de:24:ea:76:e1:2f:43:eb:ec:dd:7c:12:34:24:
         89:da:28:55:ae:e5:75:4e:31:2b:67:63:b6:a8:d7:ab:73:0a:
         03:ce:c5:ea:59:3f:c7:eb:2a:45:ae:a8:62:5b:2f:00:99:39:
         ab:b4:5f:73:c3:08:ec:80:11:8f:47:0e:8f:2a:13:43:e1:91:
         06:62:55:bb:ff:ba:3d:a9:a9:3d:26:0f:ae:ca:7d:62:8b:15:
         55:89:d6:94:34:4d:d6:65
-----BEGIN CERTIFICATE-----
MIIFAzCCAuugAwIBAgIKYQwSBgAAAAAAGzANBgkqhkiG9w0BAQUFADB/MQswCQYD
VQQGEwJVUzETMBEGA1UECBMKV2FzaGluZ3RvbjEQMA4GA1UEBxMHUmVkbW9uZDEe
MBwGA1UEChMVTWljcm9zb2Z0IENvcnBvcmF0aW9uMSkwJwYDVQQDEyBNaWNyb3Nv
ZnQgQ29kZSBWZXJpZmljYXRpb24gUm9vdDAeFw0wNjA1MjMxNzAxMjlaFw0xNjA1
MjMxNzExMjlaMF8xCzAJBgNVBAYTAlVTMRcwFQYDVQQKEw5WZXJpU2lnbiwgSW5j
LjE3MDUGA1UECxMuQ2xhc3MgMyBQdWJsaWMgUHJpbWFyeSBDZXJ0aWZpY2F0aW9u
IEF1dGhvcml0eTCBnzANBgkqhkiG9w0BAQEFAAOBjQAwgYkCgYEAyVxZnvIbigEU
tBDfBEDb41evakVAj4QMC9Ez2dkRz+4CWB8l9yqoRAWq7AMfeH+ek7maAKojfdas
haJjRcdyJ8z0TMZ1cdI5709C8HXfCpDGjiBvmA/4rCNfcCk2pMmG57GaIMtTpYXn
Pb59mv4kRTPcdhXtD6JxZExlLoFoRacCAwEAAaOCASMwggEfMBEGA1UdIAQKMAgw
BgYEVR0gADA2BgkrBgEEAYI3FQcEKTAnBh8rBgEEAYI3FQiN4NGJToTXnMMHhqaG
+xyP07+mFQEZAgFuAgEAMAsGA1UdDwQEAwIBhjAPBgNVHRMBAf8EBTADAQH/MB0G
A1UdDgQWBBTif3vYd9Xfngo/nrTLDi6p79tpdzAdBgkrBgEEAYI3FAIEEB4OAEMA
cgBvAHMAcwBDAEEwHwYDVR0jBBgwFoAUYvsKIVt/Q24R2glUUGv10pZx8Z4wVQYD
VR0fBE4wTDBKoEigRoZEaHR0cDovL2NybC5taWNyb3NvZnQuY29tL3BraS9jcmwv
cHJvZHVjdHMvTWljcm9zb2Z0Q29kZVZlcmlmUm9vdC5jcmwwDQYJKoZIhvcNAQEF
BQADggIBAAHkRrM7RX91E4d+X0PeRo7Lir22R0G8zMx0kdjOOVGVpKa1R8Dv0tp7
j1cR9DKMfM0/7kLaBCFK98hDiEpvXMoU/EvRn0y91FVuzAK+DaaIj4YJuqQlveiw
8PqLcU5nsMuCqNeOVfc36/A+iO/k4Ir9HG4uYUFIdbSwLB0o2EkP1xXwJHMlPMyI
DN4oTGVU/l6ujOoZrSxRsps6R/U8gDUBF+JJh9ZUSvtLqwe8v315z781AFy7ns/8
gokbOaBRl7bewLMH/0SWRMA0Khlcq+7wO+wpTrUTxTeFfnXVtNYNBm610mwjcWfq
8XGOr050qgz57L9MWPpekJttOcuGiD+LHKgWMtX+bbnx+LPq15H2Nkd4wCcqFcdo
1vTF/E9OyGc/EC1An/EeyWFI56cD/DFzDPBGiP5W2kkple8J2qPlvu9g7NlUoFmc
KL1U72YVf4dMhNumDpVnLlF7NDm2QcKMhGgm3CQCCeeBjgqXLe/up7mYpg+BjccQ
teHtmC9Ib1OFSWR4m+xdrJcLVSbD77qNyNGlL1p/k2thGjObGLiiYhDeJOp24S9D
6+zdfBI0JInaKFWu5XVOMStnY7ao16tzCgPOxepZP8frKkWuqGJbLwCZOau0X3PD
COyAEY9HDo8qE0PhkQZiVbv/uj2pqT0mD67KfWKLFVWJ1pQ0TdZl
-----END CERTIFICATE-----

Certificate:
    Data:
        Version: 3 (0x2)
        Serial Number:
            0d:8d:6a:63:39:6d:19:75:75:99:0a:76:9c:1c:c0:c5
    Signature Algorithm: sha1WithRSAEncryption
        Issuer: C=US, O=VeriSign, Inc., OU=VeriSign Trust Network, OU=Terms of use at https://www.verisign.com/rpa (c)10, CN=VeriSign Class 3 Code Signing 2010 CA
        Validity
            Not Before: Jan 24 00:00:00 2012 GMT
            Not After : Jan 25 23:59:59 2014 GMT
        Subject: C=US, ST=California, L=Newport Beach, O=PC Cleaners Inc., OU=Digital ID Class 3 - Microsoft Software Validation v2, CN=PC Cleaners Inc.
        Subject Public Key Info:
            Public Key Algorithm: rsaEncryption
                Public-Key: (2048 bit)
                Modulus:
                    00:d1:4e:9e:5a:03:f9:1d:4a:7a:b5:fb:26:c6:6a:
                    e3:2b:14:f4:13:73:eb:a7:23:20:81:71:e8:45:80:
                    34:30:9b:27:37:66:6f:da:24:25:63:f5:42:3c:e3:
                    02:27:44:7d:8f:e3:a0:4b:bf:f8:ef:11:0f:20:97:
                    5d:f7:81:d8:80:d0:30:29:63:d9:3e:f2:c9:13:5d:
                    9f:e5:88:07:1c:54:ec:44:61:83:3d:15:e1:b7:7c:
                    35:5d:4d:ad:f0:c8:b6:c9:4d:8b:4a:97:a6:15:dd:
                    66:e4:96:71:e9:86:b8:d2:59:30:b9:d8:79:e6:11:
                    aa:8e:d6:58:ec:00:80:68:f2:9a:49:30:06:39:19:
                    19:73:68:74:25:5f:18:91:21:0e:d0:e3:05:b9:f7:
                    7e:17:61:6e:e8:c4:35:25:6e:42:b1:96:6d:e6:09:
                    33:2b:38:91:a3:22:18:48:6e:0c:3f:b2:08:2f:90:
                    0d:7e:5f:0a:8d:a6:18:a8:1d:8d:ed:51:d9:08:75:
                    b7:73:96:43:27:97:e0:24:dc:de:dc:66:6e:58:99:
                    29:a0:fb:58:5a:01:f5:2f:11:33:25:ff:22:14:19:
                    c1:51:3d:c9:d5:87:d1:cc:05:43:5b:1f:61:7c:a9:
                    5b:a1:0e:26:58:20:49:35:61:c3:0a:79:ec:f5:ca:
                    bd:cb
                Exponent: 65537 (0x10001)
        X509v3 extensions:
            X509v3 Basic Constraints: 
                CA:FALSE
            X509v3 Key Usage: critical
                Digital Signature
            X509v3 CRL Distribution Points: 

                Full Name:
                  URI:http://csc3-2010-crl.verisign.com/CSC3-2010.crl

            X509v3 Certificate Policies: 
                Policy: 2.16.840.1.113733.1.7.23.3
                  CPS: https://www.verisign.com/rpa

            X509v3 Extended Key Usage: 
                Code Signing
            Authority Information Access: 
                OCSP - URI:http://ocsp.verisign.com
                CA Issuers - URI:http://csc3-2010-aia.verisign.com/CSC3-2010.cer

            X509v3 Authority Key Identifier: 
                keyid:CF:99:A9:EA:7B:26:F4:4B:C9:8E:8F:D7:F0:05:26:EF:E3:D2:A7:9D

            Netscape Cert Type: 
                Object Signing
            1.3.6.1.4.1.311.2.1.27: 
                0.......
    Signature Algorithm: sha1WithRSAEncryption
         4f:38:e6:cb:dd:5e:8c:b7:bb:3d:01:81:03:70:12:e4:34:60:
         e5:37:7f:fe:60:bd:7d:37:10:68:e3:5b:09:47:cb:17:b3:85:
         c1:f7:a8:0b:64:3a:c6:42:0e:d1:3b:51:47:cc:7c:13:5b:c8:
         7a:fb:2d:8e:77:56:bf:18:c3:b5:b0:3c:2a:4c:13:e2:a1:32:
         4f:a3:8a:ef:0d:0a:1c:c1:17:7c:15:46:61:7d:75:42:2a:16:
         b5:4b:f2:e3:eb:15:66:4c:aa:39:e3:16:8b:e7:52:f6:25:71:
         86:26:1d:95:bf:16:49:7c:9c:c6:a1:d1:95:d4:7a:16:ab:cf:
         cd:9b:ce:ce:48:82:4c:93:58:94:20:ec:73:e2:b6:f1:e3:5a:
         d9:b7:81:92:2d:6a:f9:4a:7c:63:d6:76:79:e1:9a:26:55:fa:
         3d:90:2c:bc:dc:3b:9f:8d:c3:b6:5d:9b:ca:85:eb:5d:18:92:
         98:31:ab:c2:ea:1c:70:62:1f:75:7e:53:6b:d6:8e:e4:1e:06:
         e8:55:84:b9:fb:d3:88:2e:50:ee:fe:c9:93:ad:2a:eb:01:65:
         75:e8:24:e1:10:dd:1f:c5:10:c5:c9:1c:93:e3:23:6c:e8:ed:
         97:da:fe:e2:6a:9b:b2:c0:7a:1a:96:f1:7c:13:6a:04:6f:68:
         18:ad:32:aa
-----BEGIN CERTIFICATE-----
MIIFbTCCBFWgAwIBAgIQDY1qYzltGXV1mQp2nBzAxTANBgkqhkiG9w0BAQUFADCB
tDELMAkGA1UEBhMCVVMxFzAVBgNVBAoTDlZlcmlTaWduLCBJbmMuMR8wHQYDVQQL
ExZWZXJpU2lnbiBUcnVzdCBOZXR3b3JrMTswOQYDVQQLEzJUZXJtcyBvZiB1c2Ug
YXQgaHR0cHM6Ly93d3cudmVyaXNpZ24uY29tL3JwYSAoYykxMDEuMCwGA1UEAxMl
VmVyaVNpZ24gQ2xhc3MgMyBDb2RlIFNpZ25pbmcgMjAxMCBDQTAeFw0xMjAxMjQw
MDAwMDBaFw0xNDAxMjUyMzU5NTlaMIGwMQswCQYDVQQGEwJVUzETMBEGA1UECBMK
Q2FsaWZvcm5pYTEWMBQGA1UEBxMNTmV3cG9ydCBCZWFjaDEZMBcGA1UEChQQUEMg
Q2xlYW5lcnMgSW5jLjE+MDwGA1UECxM1RGlnaXRhbCBJRCBDbGFzcyAzIC0gTWlj
cm9zb2Z0IFNvZnR3YXJlIFZhbGlkYXRpb24gdjIxGTAXBgNVBAMUEFBDIENsZWFu
ZXJzIEluYy4wggEiMA0GCSqGSIb3DQEBAQUAA4IBDwAwggEKAoIBAQDRTp5aA/kd
Snq1+ybGauMrFPQTc+unIyCBcehFgDQwmyc3Zm/aJCVj9UI84wInRH2P46BLv/jv
EQ8gl133gdiA0DApY9k+8skTXZ/liAccVOxEYYM9FeG3fDVdTa3wyLbJTYtKl6YV
3WbklnHphrjSWTC52HnmEaqO1ljsAIBo8ppJMAY5GRlzaHQlXxiRIQ7Q4wW5934X
YW7oxDUlbkKxlm3mCTMrOJGjIhhIbgw/sggvkA1+XwqNphioHY3tUdkIdbdzlkMn
l+Ak3N7cZm5YmSmg+1haAfUvETMl/yIUGcFRPcnVh9HMBUNbH2F8qVuhDiZYIEk1
YcMKeez1yr3LAgMBAAGjggF7MIIBdzAJBgNVHRMEAjAAMA4GA1UdDwEB/wQEAwIH
gDBABgNVHR8EOTA3MDWgM6Axhi9odHRwOi8vY3NjMy0yMDEwLWNybC52ZXJpc2ln
bi5jb20vQ1NDMy0yMDEwLmNybDBEBgNVHSAEPTA7MDkGC2CGSAGG+EUBBxcDMCow
KAYIKwYBBQUHAgEWHGh0dHBzOi8vd3d3LnZlcmlzaWduLmNvbS9ycGEwEwYDVR0l
BAwwCgYIKwYBBQUHAwMwcQYIKwYBBQUHAQEEZTBjMCQGCCsGAQUFBzABhhhodHRw
Oi8vb2NzcC52ZXJpc2lnbi5jb20wOwYIKwYBBQUHMAKGL2h0dHA6Ly9jc2MzLTIw
MTAtYWlhLnZlcmlzaWduLmNvbS9DU0MzLTIwMTAuY2VyMB8GA1UdIwQYMBaAFM+Z
qep7JvRLyY6P1/AFJu/j0qedMBEGCWCGSAGG+EIBAQQEAwIEEDAWBgorBgEEAYI3
AgEbBAgwBgEBAAEB/zANBgkqhkiG9w0BAQUFAAOCAQEATzjmy91ejLe7PQGBA3AS
5DRg5Td//mC9fTcQaONbCUfLF7OFwfeoC2Q6xkIO0TtRR8x8E1vIevstjndWvxjD
tbA8KkwT4qEyT6OK7w0KHMEXfBVGYX11QioWtUvy4+sVZkyqOeMWi+dS9iVxhiYd
lb8WSXycxqHRldR6FqvPzZvOzkiCTJNYlCDsc+K28eNa2beBki1q+Up8Y9Z2eeGa
JlX6PZAsvNw7n43Dtl2byoXrXRiSmDGrwuoccGIfdX5Ta9aO5B4G6FWEufvTiC5Q
7v7Jk60q6wFldegk4RDdH8UQxckck+MjbOjtl9r+4mqbssB6GpbxfBNqBG9oGK0y
qg==
-----END CERTIFICATE-----

