Certificate:
    Data:
        Version: 3 (0x2)
        Serial Number:
            7e:93:eb:fb:7c:c6:4e:59:ea:4b:9a:77:d4:06:fc:3b
    Signature Algorithm: sha1WithRSAEncryption
        Issuer: C=ZA, ST=Western Cape, L=Durbanville, O=Thawte, OU=Thawte Certification, CN=Thawte Timestamping CA
        Validity
            Not Before: Dec 21 00:00:00 2012 GMT
            Not After : Dec 30 23:59:59 2020 GMT
        Subject: C=US, O=Symantec Corporation, CN=Symantec Time Stamping Services CA - G2
        Subject Public Key Info:
            Public Key Algorithm: rsaEncryption
                Public-Key: (2048 bit)
                Modulus:
                    00:b1:ac:b3:49:54:4b:97:1c:12:0a:d8:25:79:91:
                    22:57:2a:6f:dc:b8:26:c4:43:73:6b:c2:bf:2e:50:
                    5a:fb:14:c2:76:8e:43:01:25:43:b4:a1:e2:45:f4:
                    e8:b7:7b:c3:74:cc:22:d7:b4:94:00:02:f7:4d:ed:
                    bf:b4:b7:44:24:6b:cd:5f:45:3b:d1:44:ce:43:12:
                    73:17:82:8b:69:b4:2b:cb:99:1e:ac:72:1b:26:4d:
                    71:1f:b1:31:dd:fb:51:61:02:53:a6:aa:f5:49:2c:
                    05:78:45:a5:2f:89:ce:e7:99:e7:fe:8c:e2:57:3f:
                    3d:c6:92:dc:4a:f8:7b:33:e4:79:0a:fb:f0:75:88:
                    41:9c:ff:c5:03:51:99:aa:d7:6c:9f:93:69:87:65:
                    29:83:85:c2:60:14:c4:c8:c9:3b:14:da:c0:81:f0:
                    1f:0d:74:de:92:22:ab:ca:f7:fb:74:7c:27:e6:f7:
                    4a:1b:7f:a7:c3:9e:2d:ae:8a:ea:a6:e6:aa:27:16:
                    7d:61:f7:98:71:11:bc:e2:50:a1:4b:e5:5d:fa:e5:
                    0e:a7:2c:9f:aa:65:20:d3:d8:96:e8:c8:7c:a5:4e:
                    48:44:ff:19:e2:44:07:92:0b:d7:68:84:80:5d:6a:
                    78:64:45:cd:60:46:7e:54:c1:13:7c:c5:79:f1:c9:
                    c1:71
                Exponent: 65537 (0x10001)
        X509v3 extensions:
            X509v3 Subject Key Identifier: 
                5F:9A:F5:6E:5C:CC:CC:74:9A:D4:DD:7D:EF:3F:DB:EC:4C:80:2E:DD
            Authority Information Access: 
                OCSP - URI:http://ocsp.thawte.com

            X509v3 Basic Constraints: critical
                CA:TRUE, pathlen:0
            X509v3 CRL Distribution Points: 

                Full Name:
                  URI:http://crl.thawte.com/ThawteTimestampingCA.crl

            X509v3 Extended Key Usage: 
                Time Stamping
            X509v3 Key Usage: critical
                Certificate Sign, CRL Sign
            X509v3 Subject Alternative Name: 
                DirName:/CN=TimeStamp-2048-1
    Signature Algorithm: sha1WithRSAEncryption
         03:09:9b:8f:79:ef:7f:59:30:aa:ef:68:b5:fa:e3:09:1d:bb:
         4f:82:06:5d:37:5f:a6:52:9f:16:8d:ea:1c:92:09:44:6e:f5:
         6d:eb:58:7c:30:e8:f9:69:8d:23:73:0b:12:6f:47:a9:ae:39:
         11:f8:2a:b1:9b:b0:1a:c3:8e:eb:59:96:00:ad:ce:0c:4d:b2:
         d0:31:a6:08:5c:2a:7a:fc:e2:7a:1d:57:4c:a8:65:18:e9:79:
         40:62:25:96:6e:c7:c7:37:6a:83:21:08:8e:41:ea:dd:d9:57:
         3f:1d:77:49:87:2a:16:06:5e:a6:38:6a:22:12:a3:51:19:83:
         7e:b6
-----BEGIN CERTIFICATE-----
MIID7jCCA1egAwIBAgIQfpPr+3zGTlnqS5p31Ab8OzANBgkqhkiG9w0BAQUFADCB
izELMAkGA1UEBhMCWkExFTATBgNVBAgTDFdlc3Rlcm4gQ2FwZTEUMBIGA1UEBxML
RHVyYmFudmlsbGUxDzANBgNVBAoTBlRoYXd0ZTEdMBsGA1UECxMUVGhhd3RlIENl
cnRpZmljYXRpb24xHzAdBgNVBAMTFlRoYXd0ZSBUaW1lc3RhbXBpbmcgQ0EwHhcN
MTIxMjIxMDAwMDAwWhcNMjAxMjMwMjM1OTU5WjBeMQswCQYDVQQGEwJVUzEdMBsG
A1UEChMUU3ltYW50ZWMgQ29ycG9yYXRpb24xMDAuBgNVBAMTJ1N5bWFudGVjIFRp
bWUgU3RhbXBpbmcgU2VydmljZXMgQ0EgLSBHMjCCASIwDQYJKoZIhvcNAQEBBQAD
ggEPADCCAQoCggEBALGss0lUS5ccEgrYJXmRIlcqb9y4JsRDc2vCvy5QWvsUwnaO
QwElQ7Sh4kX06Ld7w3TMIte0lAAC903tv7S3RCRrzV9FO9FEzkMScxeCi2m0K8uZ
HqxyGyZNcR+xMd37UWECU6aq9UksBXhFpS+JzueZ5/6M4lc/PcaS3Er4ezPkeQr7
8HWIQZz/xQNRmarXbJ+TaYdlKYOFwmAUxMjJOxTawIHwHw103pIiq8r3+3R8J+b3
Sht/p8OeLa6K6qbmqicWfWH3mHERvOJQoUvlXfrlDqcsn6plINPYlujIfKVOSET/
GeJEB5IL12iEgF1qeGRFzWBGflTBE3zFefHJwXECAwEAAaOB+jCB9zAdBgNVHQ4E
FgQUX5r1blzMzHSa1N197z/b7EyALt0wMgYIKwYBBQUHAQEEJjAkMCIGCCsGAQUF
BzABhhZodHRwOi8vb2NzcC50aGF3dGUuY29tMBIGA1UdEwEB/wQIMAYBAf8CAQAw
PwYDVR0fBDgwNjA0oDKgMIYuaHR0cDovL2NybC50aGF3dGUuY29tL1RoYXd0ZVRp
bWVzdGFtcGluZ0NBLmNybDATBgNVHSUEDDAKBggrBgEFBQcDCDAOBgNVHQ8BAf8E
BAMCAQYwKAYDVR0RBCEwH6QdMBsxGTAXBgNVBAMTEFRpbWVTdGFtcC0yMDQ4LTEw
DQYJKoZIhvcNAQEFBQADgYEAAwmbj3nvf1kwqu9otfrjCR27T4IGXTdfplKfFo3q
HJIJRG71betYfDDo+WmNI3MLEm9Hqa45EfgqsZuwGsOO61mWAK3ODE2y0DGmCFwq
evzieh1XTKhlGOl5QGIllm7HxzdqgyEIjkHq3dlXPx13SYcqFgZepjhqIhKjURmD
frY=
-----END CERTIFICATE-----

Certificate:
    Data:
        Version: 3 (0x2)
        Serial Number:
            1b:09:3b:78:60:96:da:37:bb:a4:51:94:46:c8:96:78
    Signature Algorithm: sha1WithRSAEncryption
        Issuer: C=US, O=VeriSign, Inc., OU=Class 3 Public Primary Certification Authority
        Validity
            Not Before: Nov  8 00:00:00 2006 GMT
            Not After : Nov  7 23:59:59 2021 GMT
        Subject: C=US, O=VeriSign, Inc., OU=VeriSign Trust Network, OU=(c) 2006 VeriSign, Inc. - For authorized use only, CN=VeriSign Class 3 Public Primary Certification Authority - G5
        Subject Public Key Info:
            Public Key Algorithm: rsaEncryption
                Public-Key: (2048 bit)
                Modulus:
                    00:af:24:08:08:29:7a:35:9e:60:0c:aa:e7:4b:3b:
                    4e:dc:7c:bc:3c:45:1c:bb:2b:e0:fe:29:02:f9:57:
                    08:a3:64:85:15:27:f5:f1:ad:c8:31:89:5d:22:e8:
                    2a:aa:a6:42:b3:8f:f8:b9:55:b7:b1:b7:4b:b3:fe:
                    8f:7e:07:57:ec:ef:43:db:66:62:15:61:cf:60:0d:
                    a4:d8:de:f8:e0:c3:62:08:3d:54:13:eb:49:ca:59:
                    54:85:26:e5:2b:8f:1b:9f:eb:f5:a1:91:c2:33:49:
                    d8:43:63:6a:52:4b:d2:8f:e8:70:51:4d:d1:89:69:
                    7b:c7:70:f6:b3:dc:12:74:db:7b:5d:4b:56:d3:96:
                    bf:15:77:a1:b0:f4:a2:25:f2:af:1c:92:67:18:e5:
                    f4:06:04:ef:90:b9:e4:00:e4:dd:3a:b5:19:ff:02:
                    ba:f4:3c:ee:e0:8b:eb:37:8b:ec:f4:d7:ac:f2:f6:
                    f0:3d:af:dd:75:91:33:19:1d:1c:40:cb:74:24:19:
                    21:93:d9:14:fe:ac:2a:52:c7:8f:d5:04:49:e4:8d:
                    63:47:88:3c:69:83:cb:fe:47:bd:2b:7e:4f:c5:95:
                    ae:0e:9d:d4:d1:43:c0:67:73:e3:14:08:7e:e5:3f:
                    9f:73:b8:33:0a:cf:5d:3f:34:87:96:8a:ee:53:e8:
                    25:15
                Exponent: 65537 (0x10001)
        X509v3 extensions:
            X509v3 Basic Constraints: critical
                CA:TRUE
            X509v3 CRL Distribution Points: 

                Full Name:
                  URI:http://crl.verisign.com/pca3.crl

            X509v3 Key Usage: critical
                Certificate Sign, CRL Sign
            X509v3 Certificate Policies: 
                Policy: X509v3 Any Policy
                  CPS: https://www.verisign.com/cps

            X509v3 Subject Key Identifier: 
                7F:D3:65:A7:C2:DD:EC:BB:F0:30:09:F3:43:39:FA:02:AF:33:31:33
            1.3.6.1.5.5.7.1.12: 
                0_.].[0Y0W0U..image/gif0!0.0...+..............k...j.H.,{..0%.#http://logo.verisign.com/vslogo.gif
            Authority Information Access: 
                OCSP - URI:http://ocsp.verisign.com

    Signature Algorithm: sha1WithRSAEncryption
         a3:cd:7d:1e:f7:c7:75:8d:48:e7:56:34:4c:00:90:75:a9:51:
         a5:56:c1:6d:bc:fe:f5:53:22:e9:98:a2:ac:9a:7e:70:1e:b3:
         8e:3b:45:e3:86:95:31:da:6d:4c:fb:34:50:80:96:cd:24:f2:
         40:df:04:3f:e2:65:ce:34:22:61:15:ea:66:70:64:d2:f1:6e:
         f3:ca:18:59:6a:41:46:7e:82:de:19:b0:70:31:56:69:0d:0c:
         e6:1d:9d:71:58:dc:cc:de:62:f5:e1:7a:10:02:d8:7a:dc:3b:
         fa:57:bd:c9:e9:8f:46:21:39:9f:51:65:4c:8e:3a:be:28:41:
         70:1d
-----BEGIN CERTIFICATE-----
MIIEkDCCA/mgAwIBAgIQGwk7eGCW2je7pFGURsiWeDANBgkqhkiG9w0BAQUFADBf
MQswCQYDVQQGEwJVUzEXMBUGA1UEChMOVmVyaVNpZ24sIEluYy4xNzA1BgNVBAsT
LkNsYXNzIDMgUHVibGljIFByaW1hcnkgQ2VydGlmaWNhdGlvbiBBdXRob3JpdHkw
HhcNMDYxMTA4MDAwMDAwWhcNMjExMTA3MjM1OTU5WjCByjELMAkGA1UEBhMCVVMx
FzAVBgNVBAoTDlZlcmlTaWduLCBJbmMuMR8wHQYDVQQLExZWZXJpU2lnbiBUcnVz
dCBOZXR3b3JrMTowOAYDVQQLEzEoYykgMjAwNiBWZXJpU2lnbiwgSW5jLiAtIEZv
ciBhdXRob3JpemVkIHVzZSBvbmx5MUUwQwYDVQQDEzxWZXJpU2lnbiBDbGFzcyAz
IFB1YmxpYyBQcmltYXJ5IENlcnRpZmljYXRpb24gQXV0aG9yaXR5IC0gRzUwggEi
MA0GCSqGSIb3DQEBAQUAA4IBDwAwggEKAoIBAQCvJAgIKXo1nmAMqudLO07cfLw8
RRy7K+D+KQL5VwijZIUVJ/XxrcgxiV0i6CqqpkKzj/i5Vbext0uz/o9+B1fs70Pb
ZmIVYc9gDaTY3vjgw2IIPVQT60nKWVSFJuUrjxuf6/WhkcIzSdhDY2pSS9KP6HBR
TdGJaXvHcPaz3BJ023tdS1bTlr8Vd6Gw9KIl8q8ckmcY5fQGBO+QueQA5N06tRn/
Arr0PO7gi+s3i+z016zy9vA9r911kTMZHRxAy3QkGSGT2RT+rCpSx4/VBEnkjWNH
iDxpg8v+R70rfk/Fla4OndTRQ8Bnc+MUCH7lP59zuDMKz10/NIeWiu5T6CUVAgMB
AAGjggFbMIIBVzAPBgNVHRMBAf8EBTADAQH/MDEGA1UdHwQqMCgwJqAkoCKGIGh0
dHA6Ly9jcmwudmVyaXNpZ24uY29tL3BjYTMuY3JsMA4GA1UdDwEB/wQEAwIBBjA9
BgNVHSAENjA0MDIGBFUdIAAwKjAoBggrBgEFBQcCARYcaHR0cHM6Ly93d3cudmVy
aXNpZ24uY29tL2NwczAdBgNVHQ4EFgQUf9Nlp8Ld7LvwMAnzQzn6Aq8zMTMwbQYI
KwYBBQUHAQwEYTBfoV2gWzBZMFcwVRYJaW1hZ2UvZ2lmMCEwHzAHBgUrDgMCGgQU
j+XTGoasjY5rw8+AatRIGCx7GS4wJRYjaHR0cDovL2xvZ28udmVyaXNpZ24uY29t
L3ZzbG9nby5naWYwNAYIKwYBBQUHAQEEKDAmMCQGCCsGAQUFBzABhhhodHRwOi8v
b2NzcC52ZXJpc2lnbi5jb20wDQYJKoZIhvcNAQEFBQADgYEAo819HvfHdY1I51Y0
TACQdalRpVbBbbz+9VMi6ZiirJp+cB6zjjtF44aVMdptTPs0UICWzSTyQN8EP+Jl
zjQiYRXqZnBk0vFu88oYWWpBRn6C3hmwcDFWaQ0M5h2dcVjczN5i9eF6EALYetw7
+le9yemPRiE5n1FlTI46vihBcB0=
-----END CERTIFICATE-----

Certificate:
    Data:
        Version: 3 (0x2)
        Serial Number:
            0e:cf:f4:38:c8:fe:bf:35:6e:04:d8:6a:98:1b:1a:50
    Signature Algorithm: sha1WithRSAEncryption
        Issuer: C=US, O=Symantec Corporation, CN=Symantec Time Stamping Services CA - G2
        Validity
            Not Before: Oct 18 00:00:00 2012 GMT
            Not After : Dec 29 23:59:59 2020 GMT
        Subject: C=US, O=Symantec Corporation, CN=Symantec Time Stamping Services Signer - G4
        Subject Public Key Info:
            Public Key Algorithm: rsaEncryption
                Public-Key: (2048 bit)
                Modulus:
                    00:a2:63:0b:39:44:b8:bb:23:a7:44:49:bb:0e:ff:
                    a1:f0:61:0a:53:93:b0:98:db:ad:2c:0f:4a:c5:6e:
                    ff:86:3c:53:55:0f:15:ce:04:3f:2b:fd:a9:96:96:
                    d9:be:61:79:0b:5b:c9:4c:86:76:e5:e0:43:4b:22:
                    95:ee:c2:2b:43:c1:9f:d8:68:b4:8e:40:4f:ee:85:
                    38:b9:11:c5:23:f2:64:58:f0:15:32:6f:4e:57:a1:
                    ae:88:a4:02:d7:2a:1e:cd:4b:e1:dd:63:d5:17:89:
                    32:5b:b0:5e:99:5a:a8:9d:28:50:0e:17:ee:96:db:
                    61:3b:45:51:1d:cf:12:56:0b:92:47:fc:ab:ae:f6:
                    66:3d:47:ac:70:72:e7:92:e7:5f:cd:10:b9:c4:83:
                    64:94:19:bd:25:80:e1:e8:d2:22:a5:d0:ba:02:7a:
                    a1:77:93:5b:65:c3:ee:17:74:bc:41:86:2a:dc:08:
                    4c:8c:92:8c:91:2d:9e:77:44:1f:68:d6:a8:74:77:
                    db:0e:5b:32:8b:56:8b:33:bd:d9:63:c8:49:9d:3a:
                    c5:c5:ea:33:0b:d2:f1:a3:1b:f4:8b:be:d9:b3:57:
                    8b:3b:de:04:a7:7a:22:b2:24:ae:2e:c7:70:c5:be:
                    4e:83:26:08:fb:0b:bd:a9:4f:99:08:e1:10:28:72:
                    aa:cd
                Exponent: 65537 (0x10001)
        X509v3 extensions:
            X509v3 Basic Constraints: critical
                CA:FALSE
            X509v3 Extended Key Usage: critical
                Time Stamping
            X509v3 Key Usage: critical
                Digital Signature
            Authority Information Access: 
                OCSP - URI:http://ts-ocsp.ws.symantec.com
                CA Issuers - URI:http://ts-aia.ws.symantec.com/tss-ca-g2.cer

            X509v3 CRL Distribution Points: 

                Full Name:
                  URI:http://ts-crl.ws.symantec.com/tss-ca-g2.crl

            X509v3 Subject Alternative Name: 
                DirName:/CN=TimeStamp-2048-2
            X509v3 Subject Key Identifier: 
                46:C6:69:A3:0E:4A:14:1E:D5:4C:DA:52:63:17:3F:5E:36:BC:0D:E6
            X509v3 Authority Key Identifier: 
                keyid:5F:9A:F5:6E:5C:CC:CC:74:9A:D4:DD:7D:EF:3F:DB:EC:4C:80:2E:DD

    Signature Algorithm: sha1WithRSAEncryption
         78:3b:b4:91:2a:00:4c:f0:8f:62:30:37:78:a3:84:27:07:6f:
         18:b2:de:25:dc:a0:d4:94:03:aa:86:4e:25:9f:9a:40:03:1c:
         dd:ce:e3:79:cb:21:68:06:da:b6:32:b4:6d:bf:f4:2c:26:63:
         33:e4:49:64:6d:0d:e6:c3:67:0e:f7:05:a4:35:6c:7c:89:16:
         c6:e9:b2:df:b2:e9:dd:20:c6:71:0f:cd:95:74:dc:b6:5c:de:
         bd:37:1f:43:78:e6:78:b5:cd:28:04:20:a3:aa:f1:4b:c4:88:
         29:91:0e:80:d1:11:fc:dd:5c:76:6e:4f:5e:0e:45:46:41:6e:
         0d:b0:ea:38:9a:b1:3a:da:09:71:10:fc:1c:79:b4:80:7b:ac:
         69:f4:fd:9c:b6:0c:16:2b:f1:7f:5b:09:3d:9b:5b:e2:16:ca:
         13:81:6d:00:2e:38:0d:a8:29:8f:2c:e1:b2:f4:5a:a9:01:af:
         15:9c:2c:2f:49:1b:db:22:bb:c3:fe:78:94:51:c3:86:b1:82:
         88:5d:f0:3d:b4:51:a1:79:33:2b:2e:7b:b9:dc:20:09:13:71:
         eb:6a:19:5b:cf:e8:a5:30:57:2c:89:49:3f:b9:cf:7f:c9:bf:
         3e:22:68:63:53:9a:bd:69:74:ac:c5:1d:3c:7f:92:e0:c3:bc:
         1c:d8:04:75
-----BEGIN CERTIFICATE-----
MIIEozCCA4ugAwIBAgIQDs/0OMj+vzVuBNhqmBsaUDANBgkqhkiG9w0BAQUFADBe
MQswCQYDVQQGEwJVUzEdMBsGA1UEChMUU3ltYW50ZWMgQ29ycG9yYXRpb24xMDAu
BgNVBAMTJ1N5bWFudGVjIFRpbWUgU3RhbXBpbmcgU2VydmljZXMgQ0EgLSBHMjAe
Fw0xMjEwMTgwMDAwMDBaFw0yMDEyMjkyMzU5NTlaMGIxCzAJBgNVBAYTAlVTMR0w
GwYDVQQKExRTeW1hbnRlYyBDb3Jwb3JhdGlvbjE0MDIGA1UEAxMrU3ltYW50ZWMg
VGltZSBTdGFtcGluZyBTZXJ2aWNlcyBTaWduZXIgLSBHNDCCASIwDQYJKoZIhvcN
AQEBBQADggEPADCCAQoCggEBAKJjCzlEuLsjp0RJuw7/ofBhClOTsJjbrSwPSsVu
/4Y8U1UPFc4EPyv9qZaW2b5heQtbyUyGduXgQ0sile7CK0PBn9hotI5AT+6FOLkR
xSPyZFjwFTJvTlehroikAtcqHs1L4d1j1ReJMluwXplaqJ0oUA4X7pbbYTtFUR3P
ElYLkkf8q672Zj1HrHBy55LnX80QucSDZJQZvSWA4ejSIqXQugJ6oXeTW2XD7hd0
vEGGKtwITIySjJEtnndEH2jWqHR32w5bMotWizO92WPISZ06xcXqMwvS8aMb9Iu+
2bNXizveBKd6IrIkri7HcMW+ToMmCPsLvalPmQjhEChyqs0CAwEAAaOCAVcwggFT
MAwGA1UdEwEB/wQCMAAwFgYDVR0lAQH/BAwwCgYIKwYBBQUHAwgwDgYDVR0PAQH/
BAQDAgeAMHMGCCsGAQUFBwEBBGcwZTAqBggrBgEFBQcwAYYeaHR0cDovL3RzLW9j
c3Aud3Muc3ltYW50ZWMuY29tMDcGCCsGAQUFBzAChitodHRwOi8vdHMtYWlhLndz
LnN5bWFudGVjLmNvbS90c3MtY2EtZzIuY2VyMDwGA1UdHwQ1MDMwMaAvoC2GK2h0
dHA6Ly90cy1jcmwud3Muc3ltYW50ZWMuY29tL3Rzcy1jYS1nMi5jcmwwKAYDVR0R
BCEwH6QdMBsxGTAXBgNVBAMTEFRpbWVTdGFtcC0yMDQ4LTIwHQYDVR0OBBYEFEbG
aaMOShQe1UzaUmMXP142vA3mMB8GA1UdIwQYMBaAFF+a9W5czMx0mtTdfe8/2+xM
gC7dMA0GCSqGSIb3DQEBBQUAA4IBAQB4O7SRKgBM8I9iMDd4o4QnB28Yst4l3KDU
lAOqhk4ln5pAAxzdzuN5yyFoBtq2MrRtv/QsJmMz5ElkbQ3mw2cO9wWkNWx8iRbG
6bLfsundIMZxD82VdNy2XN69Nx9DeOZ4tc0oBCCjqvFLxIgpkQ6A0RH83Vx2bk9e
DkVGQW4NsOo4mrE62glxEPwcebSAe6xp9P2ctgwWK/F/Wwk9m1viFsoTgW0ALjgN
qCmPLOGy9FqpAa8VnCwvSRvbIrvD/niUUcOGsYKIXfA9tFGheTMrLnu53CAJE3Hr
ahlbz+ilMFcsiUk/uc9/yb8+ImhjU5q9aXSsxR08f5Lgw7wc2AR1
-----END CERTIFICATE-----

Certificate:
    Data:
        Version: 3 (0x2)
        Serial Number:
            75:07:30:67:30:94:f3:8c:a9:f0:7e:06:e5:74:fb:df
    Signature Algorithm: sha1WithRSAEncryption
        Issuer: C=US, O=VeriSign, Inc., OU=VeriSign Trust Network, OU=Terms of use at https://www.verisign.com/rpa (c)10, CN=VeriSign Class 3 Code Signing 2010 CA
        Validity
            Not Before: Jul  4 00:00:00 2017 GMT
            Not After : Jun 22 23:59:59 2019 GMT
        Subject: C=CN, ST=Shanghai, L=Shanghai, O=Shanghai 2345 Mobile Technology Co., Ltd., OU=IT, CN=Shanghai 2345 Mobile Technology Co., Ltd.
        Subject Public Key Info:
            Public Key Algorithm: rsaEncryption
                Public-Key: (2048 bit)
                Modulus:
                    00:ee:b2:c9:ea:b5:ae:f5:d8:84:25:15:1b:10:2e:
                    b6:55:cd:00:1c:f0:05:fd:af:a6:5d:e8:04:84:fb:
                    6c:ab:d3:6a:b1:d4:b2:aa:e3:b4:c2:0c:5c:04:93:
                    92:12:4b:f8:b0:f2:1d:ba:5c:a0:15:94:5c:3d:3f:
                    7a:b6:e5:2d:30:d7:04:a6:77:55:53:f9:36:fa:06:
                    ba:45:fe:77:e9:fa:74:9f:58:2f:55:6e:55:b0:aa:
                    78:6e:33:be:f1:d9:e1:87:1e:a3:cf:9e:8d:07:6b:
                    89:1d:3a:85:77:3f:a9:f6:ff:b1:d8:e1:2f:bb:08:
                    ed:52:6a:9b:17:54:62:2b:69:0b:44:00:37:7a:06:
                    d3:a3:ef:17:33:67:51:7b:9f:d5:1f:3f:e9:76:7d:
                    51:09:7b:5d:ff:31:8a:81:cb:a2:40:cb:a3:4b:38:
                    d5:52:8a:8d:63:fa:40:83:83:eb:40:9b:40:68:04:
                    16:84:92:73:a8:1e:c8:83:26:a9:f2:38:9d:b4:a3:
                    79:ba:6c:c8:c8:93:0b:ad:05:cc:ed:f8:67:b7:4f:
                    3b:72:32:eb:29:27:41:10:ac:61:8f:bd:b9:c2:83:
                    25:15:19:2b:0a:db:80:58:9c:b1:b1:22:3d:04:91:
                    0d:b6:69:06:ad:a5:58:69:4c:eb:d0:5a:ef:24:21:
                    d5:95
                Exponent: 65537 (0x10001)
        X509v3 extensions:
            X509v3 Basic Constraints: 
                CA:FALSE
            X509v3 Key Usage: critical
                Digital Signature
            X509v3 CRL Distribution Points: 

                Full Name:
                  URI:http://sf.symcb.com/sf.crl

            X509v3 Certificate Policies: 
                Policy: 2.23.140.1.4.1
                  CPS: https://d.symcb.com/cps
                  User Notice:
                    Explicit Text: https://d.symcb.com/rpa

            X509v3 Extended Key Usage: 
                Code Signing
            Authority Information Access: 
                OCSP - URI:http://sf.symcd.com
                CA Issuers - URI:http://sf.symcb.com/sf.crt

            X509v3 Authority Key Identifier: 
                keyid:CF:99:A9:EA:7B:26:F4:4B:C9:8E:8F:D7:F0:05:26:EF:E3:D2:A7:9D

            X509v3 Subject Key Identifier: 
                C7:20:D8:E7:FC:95:9B:89:0B:46:14:CE:B7:9B:3B:EB:B9:AD:B0:CD
    Signature Algorithm: sha1WithRSAEncryption
         89:9f:64:ec:74:67:35:d3:f5:11:4d:21:b6:28:2f:07:b4:a3:
         ee:6d:11:ab:49:25:7f:32:ef:1d:6e:b9:ea:a3:0d:a6:66:ab:
         77:bd:6e:f9:b9:75:72:ba:60:4f:d3:68:aa:fa:0d:ec:65:93:
         96:19:24:ed:96:13:5e:be:6b:05:04:38:06:ab:f4:15:93:38:
         e2:26:80:7b:42:23:06:7c:4a:69:65:2c:ad:b6:d5:11:a1:ed:
         54:77:72:fc:c1:aa:85:47:2e:35:a7:07:99:c6:ca:9c:67:6f:
         ae:3d:6d:1f:4f:6c:d5:b5:81:cd:10:93:14:1c:42:a1:2e:7b:
         67:ab:80:e7:6a:7a:cc:cf:18:4a:4f:94:ff:d9:38:0e:fc:ce:
         80:3e:76:36:33:c7:bc:a9:e5:1a:b2:48:3f:c4:a3:2c:7f:e1:
         e0:9c:eb:dd:eb:8c:1d:88:8b:f3:27:8f:f3:a5:e0:07:1d:be:
         50:2a:da:b5:54:6b:a7:84:bf:7b:f3:18:7e:1a:82:46:e2:69:
         bf:df:23:78:4b:92:ff:24:aa:c4:2e:33:73:dd:94:0f:41:96:
         fe:8a:25:79:c8:68:b5:7e:f7:35:54:60:b0:88:8c:9f:ac:4c:
         c3:54:5a:13:0d:b4:06:20:6a:7d:be:a1:7b:2a:5a:7f:f1:63:
         b5:2b:48:4f
-----BEGIN CERTIFICATE-----
MIIFRzCCBC+gAwIBAgIQdQcwZzCU84yp8H4G5XT73zANBgkqhkiG9w0BAQUFADCB
tDELMAkGA1UEBhMCVVMxFzAVBgNVBAoTDlZlcmlTaWduLCBJbmMuMR8wHQYDVQQL
ExZWZXJpU2lnbiBUcnVzdCBOZXR3b3JrMTswOQYDVQQLEzJUZXJtcyBvZiB1c2Ug
YXQgaHR0cHM6Ly93d3cudmVyaXNpZ24uY29tL3JwYSAoYykxMDEuMCwGA1UEAxMl
VmVyaVNpZ24gQ2xhc3MgMyBDb2RlIFNpZ25pbmcgMjAxMCBDQTAeFw0xNzA3MDQw
MDAwMDBaFw0xOTA2MjIyMzU5NTlaMIGoMQswCQYDVQQGEwJDTjERMA8GA1UECAwI
U2hhbmdoYWkxETAPBgNVBAcMCFNoYW5naGFpMTIwMAYDVQQKDClTaGFuZ2hhaSAy
MzQ1IE1vYmlsZSBUZWNobm9sb2d5IENvLiwgTHRkLjELMAkGA1UECwwCSVQxMjAw
BgNVBAMMKVNoYW5naGFpIDIzNDUgTW9iaWxlIFRlY2hub2xvZ3kgQ28uLCBMdGQu
MIIBIjANBgkqhkiG9w0BAQEFAAOCAQ8AMIIBCgKCAQEA7rLJ6rWu9diEJRUbEC62
Vc0AHPAF/a+mXegEhPtsq9NqsdSyquO0wgxcBJOSEkv4sPIdulygFZRcPT96tuUt
MNcEpndVU/k2+ga6Rf536fp0n1gvVW5VsKp4bjO+8dnhhx6jz56NB2uJHTqFdz+p
9v+x2OEvuwjtUmqbF1RiK2kLRAA3egbTo+8XM2dRe5/VHz/pdn1RCXtd/zGKgcui
QMujSzjVUoqNY/pAg4PrQJtAaAQWhJJzqB7Igyap8jidtKN5umzIyJMLrQXM7fhn
t087cjLrKSdBEKxhj725woMlFRkrCtuAWJyxsSI9BJENtmkGraVYaUzr0FrvJCHV
lQIDAQABo4IBXTCCAVkwCQYDVR0TBAIwADAOBgNVHQ8BAf8EBAMCB4AwKwYDVR0f
BCQwIjAgoB6gHIYaaHR0cDovL3NmLnN5bWNiLmNvbS9zZi5jcmwwYQYDVR0gBFow
WDBWBgZngQwBBAEwTDAjBggrBgEFBQcCARYXaHR0cHM6Ly9kLnN5bWNiLmNvbS9j
cHMwJQYIKwYBBQUHAgIwGQwXaHR0cHM6Ly9kLnN5bWNiLmNvbS9ycGEwEwYDVR0l
BAwwCgYIKwYBBQUHAwMwVwYIKwYBBQUHAQEESzBJMB8GCCsGAQUFBzABhhNodHRw
Oi8vc2Yuc3ltY2QuY29tMCYGCCsGAQUFBzAChhpodHRwOi8vc2Yuc3ltY2IuY29t
L3NmLmNydDAfBgNVHSMEGDAWgBTPmanqeyb0S8mOj9fwBSbv49KnnTAdBgNVHQ4E
FgQUxyDY5/yVm4kLRhTOt5s767mtsM0wDQYJKoZIhvcNAQEFBQADggEBAImfZOx0
ZzXT9RFNIbYoLwe0o+5tEatJJX8y7x1uueqjDaZmq3e9bvm5dXK6YE/TaKr6Dexl
k5YZJO2WE16+awUEOAar9BWTOOImgHtCIwZ8SmllLK221RGh7VR3cvzBqoVHLjWn
B5nGypxnb649bR9PbNW1gc0QkxQcQqEue2ergOdqeszPGEpPlP/ZOA78zoA+djYz
x7yp5RqySD/Eoyx/4eCc693rjB2Ii/Mnj/Ol4AcdvlAq2rVUa6eEv3vzGH4agkbi
ab/fI3hLkv8kqsQuM3PdlA9Blv6KJXnIaLV+9zVUYLCIjJ+sTMNUWhMNtAYgan2+
oXsqWn/xY7UrSE8=
-----END CERTIFICATE-----

Certificate:
    Data:
        Version: 3 (0x2)
        Serial Number:
            52:00:e5:aa:25:56:fc:1a:86:ed:96:c9:d4:4b:33:c7
    Signature Algorithm: sha1WithRSAEncryption
        Issuer: C=US, O=VeriSign, Inc., OU=VeriSign Trust Network, OU=(c) 2006 VeriSign, Inc. - For authorized use only, CN=VeriSign Class 3 Public Primary Certification Authority - G5
        Validity
            Not Before: Feb  8 00:00:00 2010 GMT
            Not After : Feb  7 23:59:59 2020 GMT
        Subject: C=US, O=VeriSign, Inc., OU=VeriSign Trust Network, OU=Terms of use at https://www.verisign.com/rpa (c)10, CN=VeriSign Class 3 Code Signing 2010 CA
        Subject Public Key Info:
            Public Key Algorithm: rsaEncryption
                Public-Key: (2048 bit)
                Modulus:
                    00:f5:23:4b:5e:a5:d7:8a:bb:32:e9:d4:57:f7:ef:
                    e4:c7:26:7e:ad:19:98:fe:a8:9d:7d:94:f6:36:6b:
                    10:d7:75:81:30:7f:04:68:7f:cb:2b:75:1e:cd:1d:
                    08:8c:df:69:94:a7:37:a3:9c:7b:80:e0:99:e1:ee:
                    37:4d:5f:ce:3b:14:ee:86:d4:d0:f5:27:35:bc:25:
                    0b:38:a7:8c:63:9d:17:a3:08:a5:ab:b0:fb:cd:6a:
                    62:82:4c:d5:21:da:1b:d9:f1:e3:84:3b:8a:2a:4f:
                    85:5b:90:01:4f:c9:a7:76:10:7f:27:03:7c:be:ae:
                    7e:7d:c1:dd:f9:05:bc:1b:48:9c:69:e7:c0:a4:3c:
                    3c:41:00:3e:df:96:e5:c5:e4:94:71:d6:55:01:c7:
                    00:26:4a:40:3c:b5:a1:26:a9:0c:a7:6d:80:8e:90:
                    25:7b:cf:bf:3f:1c:eb:2f:96:fa:e5:87:77:c6:b5:
                    56:b2:7a:3b:54:30:53:1b:df:62:34:ff:1e:d1:f4:
                    5a:93:28:85:e5:4c:17:4e:7e:5b:fd:a4:93:99:7f:
                    df:cd:ef:a4:75:ef:ef:15:f6:47:e7:f8:19:72:d8:
                    2e:34:1a:a6:b4:a7:4c:7e:bd:bb:4f:0c:3d:57:f1:
                    30:d6:a6:36:8e:d6:80:76:d7:19:2e:a5:cd:7e:34:
                    2d:89
                Exponent: 65537 (0x10001)
        X509v3 extensions:
            X509v3 Basic Constraints: critical
                CA:TRUE, pathlen:0
            X509v3 Certificate Policies: 
                Policy: 2.16.840.1.113733.1.7.23.3
                  CPS: https://www.verisign.com/cps
                  User Notice:
                    Explicit Text: https://www.verisign.com/rpa

            X509v3 Key Usage: critical
                Certificate Sign, CRL Sign
            1.3.6.1.5.5.7.1.12: 
                0_.].[0Y0W0U..image/gif0!0.0...+..............k...j.H.,{..0%.#http://logo.verisign.com/vslogo.gif
            X509v3 CRL Distribution Points: 

                Full Name:
                  URI:http://crl.verisign.com/pca3-g5.crl

            Authority Information Access: 
                OCSP - URI:http://ocsp.verisign.com

            X509v3 Extended Key Usage: 
                TLS Web Client Authentication, Code Signing
            X509v3 Subject Alternative Name: 
                DirName:/CN=VeriSignMPKI-2-8
            X509v3 Subject Key Identifier: 
                CF:99:A9:EA:7B:26:F4:4B:C9:8E:8F:D7:F0:05:26:EF:E3:D2:A7:9D
            X509v3 Authority Key Identifier: 
                keyid:7F:D3:65:A7:C2:DD:EC:BB:F0:30:09:F3:43:39:FA:02:AF:33:31:33

    Signature Algorithm: sha1WithRSAEncryption
         56:22:e6:34:a4:c4:61:cb:48:b9:01:ad:56:a8:64:0f:d9:8c:
         91:c4:bb:cc:0c:e5:ad:7a:a0:22:7f:df:47:38:4a:2d:6c:d1:
         7f:71:1a:7c:ec:70:a9:b1:f0:4f:e4:0f:0c:53:fa:15:5e:fe:
         74:98:49:24:85:81:26:1c:91:14:47:b0:4c:63:8c:bb:a1:34:
         d4:c6:45:e8:0d:85:26:73:03:d0:a9:8c:64:6d:dc:71:92:e6:
         45:05:60:15:59:51:39:fc:58:14:6b:fe:d4:a4:ed:79:6b:08:
         0c:41:72:e7:37:22:06:09:be:23:e9:3f:44:9a:1e:e9:61:9d:
         cc:b1:90:5c:fc:3d:d2:8d:ac:42:3d:65:36:d4:b4:3d:40:28:
         8f:9b:10:cf:23:26:cc:4b:20:cb:90:1f:5d:8c:4c:34:ca:3c:
         d8:e5:37:d6:6f:a5:20:bd:34:eb:26:d9:ae:0d:e7:c5:9a:f7:
         a1:b4:21:91:33:6f:86:e8:58:bb:25:7c:74:0e:58:fe:75:1b:
         63:3f:ce:31:7c:9b:8f:1b:96:9e:c5:53:76:84:5b:9c:ad:91:
         fa:ac:ed:93:ba:5d:c8:21:53:c2:82:53:63:af:12:0d:50:87:
         11:1b:3d:54:52:96:8a:2c:9c:3d:92:1a:08:9a:05:2e:c7:93:
         a5:48:91:d3
-----BEGIN CERTIFICATE-----
MIIGCjCCBPKgAwIBAgIQUgDlqiVW/BqG7ZbJ1EszxzANBgkqhkiG9w0BAQUFADCB
yjELMAkGA1UEBhMCVVMxFzAVBgNVBAoTDlZlcmlTaWduLCBJbmMuMR8wHQYDVQQL
ExZWZXJpU2lnbiBUcnVzdCBOZXR3b3JrMTowOAYDVQQLEzEoYykgMjAwNiBWZXJp
U2lnbiwgSW5jLiAtIEZvciBhdXRob3JpemVkIHVzZSBvbmx5MUUwQwYDVQQDEzxW
ZXJpU2lnbiBDbGFzcyAzIFB1YmxpYyBQcmltYXJ5IENlcnRpZmljYXRpb24gQXV0
aG9yaXR5IC0gRzUwHhcNMTAwMjA4MDAwMDAwWhcNMjAwMjA3MjM1OTU5WjCBtDEL
MAkGA1UEBhMCVVMxFzAVBgNVBAoTDlZlcmlTaWduLCBJbmMuMR8wHQYDVQQLExZW
ZXJpU2lnbiBUcnVzdCBOZXR3b3JrMTswOQYDVQQLEzJUZXJtcyBvZiB1c2UgYXQg
aHR0cHM6Ly93d3cudmVyaXNpZ24uY29tL3JwYSAoYykxMDEuMCwGA1UEAxMlVmVy
aVNpZ24gQ2xhc3MgMyBDb2RlIFNpZ25pbmcgMjAxMCBDQTCCASIwDQYJKoZIhvcN
AQEBBQADggEPADCCAQoCggEBAPUjS16l14q7MunUV/fv5Mcmfq0ZmP6onX2U9jZr
ENd1gTB/BGh/yyt1Hs0dCIzfaZSnN6Oce4DgmeHuN01fzjsU7obU0PUnNbwlCzin
jGOdF6MIpauw+81qYoJM1SHaG9nx44Q7iipPhVuQAU/Jp3YQfycDfL6ufn3B3fkF
vBtInGnnwKQ8PEEAPt+W5cXklHHWVQHHACZKQDy1oSapDKdtgI6QJXvPvz8c6y+W
+uWHd8a1VrJ6O1QwUxvfYjT/HtH0WpMoheVMF05+W/2kk5l/383vpHXv7xX2R+f4
GXLYLjQaprSnTH69u08MPVfxMNamNo7WgHbXGS6lzX40LYkCAwEAAaOCAf4wggH6
MBIGA1UdEwEB/wQIMAYBAf8CAQAwcAYDVR0gBGkwZzBlBgtghkgBhvhFAQcXAzBW
MCgGCCsGAQUFBwIBFhxodHRwczovL3d3dy52ZXJpc2lnbi5jb20vY3BzMCoGCCsG
AQUFBwICMB4aHGh0dHBzOi8vd3d3LnZlcmlzaWduLmNvbS9ycGEwDgYDVR0PAQH/
BAQDAgEGMG0GCCsGAQUFBwEMBGEwX6FdoFswWTBXMFUWCWltYWdlL2dpZjAhMB8w
BwYFKw4DAhoEFI/l0xqGrI2Oa8PPgGrUSBgsexkuMCUWI2h0dHA6Ly9sb2dvLnZl
cmlzaWduLmNvbS92c2xvZ28uZ2lmMDQGA1UdHwQtMCswKaAnoCWGI2h0dHA6Ly9j
cmwudmVyaXNpZ24uY29tL3BjYTMtZzUuY3JsMDQGCCsGAQUFBwEBBCgwJjAkBggr
BgEFBQcwAYYYaHR0cDovL29jc3AudmVyaXNpZ24uY29tMB0GA1UdJQQWMBQGCCsG
AQUFBwMCBggrBgEFBQcDAzAoBgNVHREEITAfpB0wGzEZMBcGA1UEAxMQVmVyaVNp
Z25NUEtJLTItODAdBgNVHQ4EFgQUz5mp6nsm9EvJjo/X8AUm7+PSp50wHwYDVR0j
BBgwFoAUf9Nlp8Ld7LvwMAnzQzn6Aq8zMTMwDQYJKoZIhvcNAQEFBQADggEBAFYi
5jSkxGHLSLkBrVaoZA/ZjJHEu8wM5a16oCJ/30c4Si1s0X9xGnzscKmx8E/kDwxT
+hVe/nSYSSSFgSYckRRHsExjjLuhNNTGRegNhSZzA9CpjGRt3HGS5kUFYBVZUTn8
WBRr/tSk7XlrCAxBcuc3IgYJviPpP0SaHulhncyxkFz8PdKNrEI9ZTbUtD1AKI+b
EM8jJsxLIMuQH12MTDTKPNjlN9ZvpSC9NOsm2a4N58Wa96G0IZEzb4boWLslfHQO
WP51G2M/zjF8m48blp7FU3aEW5ytkfqs7ZO6XcghU8KCU2OvEg1QhxEbPVRSloos
nD2SGgiaBS7Hk6VIkdM=
-----END CERTIFICATE-----

