Certificate:
    Data:
        Version: 3 (0x2)
        Serial Number:
            04:00:00:00:00:01:25:07:1d:f9:af
    Signature Algorithm: sha256WithRSAEncryption
        Issuer: C=BE, O=GlobalSign nv-sa, OU=Root CA, CN=GlobalSign Root CA
        Validity
            Not Before: Nov 18 10:00:00 2009 GMT
            Not After : Mar 18 10:00:00 2019 GMT
        Subject: OU=GlobalSign Root CA - R3, O=GlobalSign, CN=GlobalSign
        Subject Public Key Info:
            Public Key Algorithm: rsaEncryption
                Public-Key: (2048 bit)
                Modulus:
                    00:cc:25:76:90:79:06:78:22:16:f5:c0:83:b6:84:
                    ca:28:9e:fd:05:76:11:c5:ad:88:72:fc:46:02:43:
                    c7:b2:8a:9d:04:5f:24:cb:2e:4b:e1:60:82:46:e1:
                    52:ab:0c:81:47:70:6c:dd:64:d1:eb:f5:2c:a3:0f:
                    82:3d:0c:2b:ae:97:d7:b6:14:86:10:79:bb:3b:13:
                    80:77:8c:08:e1:49:d2:6a:62:2f:1f:5e:fa:96:68:
                    df:89:27:95:38:9f:06:d7:3e:c9:cb:26:59:0d:73:
                    de:b0:c8:e9:26:0e:83:15:c6:ef:5b:8b:d2:04:60:
                    ca:49:a6:28:f6:69:3b:f6:cb:c8:28:91:e5:9d:8a:
                    61:57:37:ac:74:14:dc:74:e0:3a:ee:72:2f:2e:9c:
                    fb:d0:bb:bf:f5:3d:00:e1:06:33:e8:82:2b:ae:53:
                    a6:3a:16:73:8c:dd:41:0e:20:3a:c0:b4:a7:a1:e9:
                    b2:4f:90:2e:32:60:e9:57:cb:b9:04:92:68:68:e5:
                    38:26:60:75:b2:9f:77:ff:91:14:ef:ae:20:49:fc:
                    ad:40:15:48:d1:02:31:61:19:5e:b8:97:ef:ad:77:
                    b7:64:9a:7a:bf:5f:c1:13:ef:9b:62:fb:0d:6c:e0:
                    54:69:16:a9:03:da:6e:e9:83:93:71:76:c6:69:85:
                    82:17
                Exponent: 65537 (0x10001)
        X509v3 extensions:
            X509v3 Key Usage: critical
                Certificate Sign, CRL Sign
            X509v3 Basic Constraints: critical
                CA:TRUE
            X509v3 Subject Key Identifier: 
                8F:F0:4B:7F:A8:2E:45:24:AE:4D:50:FA:63:9A:8B:DE:E2:DD:1B:BC
            X509v3 Certificate Policies: 
                Policy: X509v3 Any Policy
                  CPS: http://www.globalsign.net/repository/

            X509v3 CRL Distribution Points: 

                Full Name:
                  URI:http://crl.globalsign.net/root.crl

            Authority Information Access: 
                OCSP - URI:http://ocsp.globalsign.com/ExtendedSSLSHA256CACross

            X509v3 Authority Key Identifier: 
                keyid:60:7B:66:1A:45:0D:97:CA:89:50:2F:7D:04:CD:34:A8:FF:FC:FD:4B

    Signature Algorithm: sha256WithRSAEncryption
         42:52:a9:7e:a2:cf:5b:3b:cb:4b:dd:ba:f8:57:59:d3:24:a4:
         77:72:ef:62:44:37:82:ed:06:ee:04:d5:16:5f:24:a3:14:dc:
         6c:54:05:6a:b0:9b:3d:da:81:39:da:ad:28:db:95:6f:81:83:
         f5:cd:62:b1:45:24:b1:dd:29:e5:08:54:95:95:8c:f0:1d:06:
         5f:1a:d6:46:3f:13:40:17:48:11:16:9b:47:4d:d1:3a:b5:0f:
         57:1c:92:30:d0:f8:b2:25:3b:0a:cd:f6:87:f9:c7:b2:57:d3:
         3f:7d:a5:8c:14:ce:9c:a8:c7:9f:46:93:da:59:fa:79:5d:65:
         20:35:44:5a:4f:c1:90:9d:c1:54:92:56:dc:34:c8:f5:c1:03:
         d0:5d:c0:59:48:9c:00:fc:95:a0:f1:d1:76:f7:16:36:c8:13:
         92:7f:2d:2b:c0:b8:80:f1:26:26:1f:41:4d:52:bf:1e:97:bb:
         01:82:08:e7:15:f6:c1:d5:34:2a:cc:f5:e4:c3:87:7a:57:81:
         e1:d6:d7:42:86:62:01:77:e2:a9:c4:7a:86:f4:04:38:7a:07:
         6a:7d:00:ec:73:f7:a8:0b:34:78:c5:9e:b3:ef:b8:38:40:0e:
         8c:33:53:c8:75:ec:5f:3e:ea:75:5e:ff:82:0e:74:15:dc:19:
         05:f3:ba:31
-----BEGIN CERTIFICATE-----
MIIEXTCCA0WgAwIBAgILBAAAAAABJQcd+a8wDQYJKoZIhvcNAQELBQAwVzELMAkG
A1UEBhMCQkUxGTAXBgNVBAoTEEdsb2JhbFNpZ24gbnYtc2ExEDAOBgNVBAsTB1Jv
b3QgQ0ExGzAZBgNVBAMTEkdsb2JhbFNpZ24gUm9vdCBDQTAeFw0wOTExMTgxMDAw
MDBaFw0xOTAzMTgxMDAwMDBaMEwxIDAeBgNVBAsTF0dsb2JhbFNpZ24gUm9vdCBD
QSAtIFIzMRMwEQYDVQQKEwpHbG9iYWxTaWduMRMwEQYDVQQDEwpHbG9iYWxTaWdu
MIIBIjANBgkqhkiG9w0BAQEFAAOCAQ8AMIIBCgKCAQEAzCV2kHkGeCIW9cCDtoTK
KJ79BXYRxa2IcvxGAkPHsoqdBF8kyy5L4WCCRuFSqwyBR3Bs3WTR6/Usow+CPQwr
rpfXthSGEHm7OxOAd4wI4UnSamIvH176lmjfiSeVOJ8G1z7JyyZZDXPesMjpJg6D
FcbvW4vSBGDKSaYo9mk79svIKJHlnYphVzesdBTcdOA67nIvLpz70Lu/9T0A4QYz
6IIrrlOmOhZzjN1BDiA6wLSnoemyT5AuMmDpV8u5BJJoaOU4JmB1sp93/5EU764g
SfytQBVI0QIxYRleuJfvrXe3ZJp6v1/BE++bYvsNbOBUaRapA9pu6YOTcXbGaYWC
FwIDAQABo4IBMzCCAS8wDgYDVR0PAQH/BAQDAgEGMA8GA1UdEwEB/wQFMAMBAf8w
HQYDVR0OBBYEFI/wS3+oLkUkrk1Q+mOai97i3Ru8MEYGA1UdIAQ/MD0wOwYEVR0g
ADAzMDEGCCsGAQUFBwIBFiVodHRwOi8vd3d3Lmdsb2JhbHNpZ24ubmV0L3JlcG9z
aXRvcnkvMDMGA1UdHwQsMCowKKAmoCSGImh0dHA6Ly9jcmwuZ2xvYmFsc2lnbi5u
ZXQvcm9vdC5jcmwwTwYIKwYBBQUHAQEEQzBBMD8GCCsGAQUFBzABhjNodHRwOi8v
b2NzcC5nbG9iYWxzaWduLmNvbS9FeHRlbmRlZFNTTFNIQTI1NkNBQ3Jvc3MwHwYD
VR0jBBgwFoAUYHtmGkUNl8qJUC99BM00qP/8/UswDQYJKoZIhvcNAQELBQADggEB
AEJSqX6iz1s7y0vduvhXWdMkpHdy72JEN4LtBu4E1RZfJKMU3GxUBWqwmz3agTna
rSjblW+Bg/XNYrFFJLHdKeUIVJWVjPAdBl8a1kY/E0AXSBEWm0dN0Tq1D1cckjDQ
+LIlOwrN9of5x7JX0z99pYwUzpyox59Gk9pZ+nldZSA1RFpPwZCdwVSSVtw0yPXB
A9BdwFlInAD8laDx0Xb3FjbIE5J/LSvAuIDxJiYfQU1Svx6XuwGCCOcV9sHVNCrM
9eTDh3pXgeHW10KGYgF34qnEeob0BDh6B2p9AOxz96gLNHjFnrPvuDhADowzU8h1
7F8+6nVe/4IOdBXcGQXzujE=
-----END CERTIFICATE-----

Certificate:
    Data:
        Version: 3 (0x2)
        Serial Number:
            04:00:00:00:00:01:31:89:c6:4d:e1
    Signature Algorithm: sha256WithRSAEncryption
        Issuer: OU=GlobalSign Root CA - R3, O=GlobalSign, CN=GlobalSign
        Validity
            Not Before: Aug  2 10:00:00 2011 GMT
            Not After : Aug  2 10:00:00 2019 GMT
        Subject: C=BE, O=GlobalSign nv-sa, CN=GlobalSign Extended Validation CodeSigning CA - SHA256 - G2
        Subject Public Key Info:
            Public Key Algorithm: rsaEncryption
                Public-Key: (2048 bit)
                Modulus:
                    00:9b:b6:1f:7f:17:55:ac:35:56:aa:a4:b3:fe:8a:
                    d0:3a:94:9e:69:ed:1c:a8:b5:ff:37:a4:59:cb:d2:
                    80:e5:ff:2e:db:19:8e:64:d0:eb:aa:15:1e:65:ad:
                    86:b9:74:ec:64:ba:9e:05:fa:df:98:7e:0b:0b:b5:
                    62:6b:f5:10:9d:b3:13:a2:fa:b8:d5:cf:e1:9e:24:
                    e7:5c:01:08:e3:b4:ac:aa:32:49:80:0a:76:7b:e5:
                    d1:1e:f8:f1:e5:57:2c:ab:18:9f:6f:37:46:dd:29:
                    4d:df:da:e1:9d:41:46:42:bc:53:e2:af:46:a8:0c:
                    6f:f0:ba:51:a1:a8:ab:fb:1d:ca:f3:40:37:66:35:
                    bd:be:a0:f8:0b:49:53:f1:47:05:46:ef:05:77:97:
                    97:f5:90:ff:af:4f:30:54:1b:49:fb:db:31:a7:08:
                    89:3a:bc:8d:ca:70:3c:e6:54:64:f7:59:b4:4b:da:
                    b4:97:8d:a8:a8:0c:ce:d6:55:7a:c4:da:d4:42:00:
                    45:3f:93:0f:64:8d:3d:f8:b9:12:77:bc:08:8a:b1:
                    aa:b6:12:01:c8:48:de:e9:e4:0a:e5:26:8b:ce:09:
                    d9:e2:df:ab:2b:1c:16:3d:de:ee:31:42:4a:e8:9d:
                    08:f4:89:53:ef:c9:72:a7:fa:a3:86:13:a9:e1:d4:
                    c6:d7
                Exponent: 65537 (0x10001)
        X509v3 extensions:
            X509v3 Key Usage: critical
                Certificate Sign, CRL Sign
            X509v3 Basic Constraints: critical
                CA:TRUE, pathlen:0
            X509v3 Subject Key Identifier: 
                0A:BC:24:2C:2C:F7:9C:E5:9F:95:7C:AD:BB:D5:F0:18:51:39:85:6E
            X509v3 Certificate Policies: 
                Policy: X509v3 Any Policy
                  CPS: https://www.globalsign.com/repository/

            X509v3 CRL Distribution Points: 

                Full Name:
                  URI:http://crl.globalsign.net/root-r3.crl

            Authority Information Access: 
                OCSP - URI:http://ocsp2.globalsign.com/rootr3

            X509v3 Extended Key Usage: 
                Code Signing
            X509v3 Authority Key Identifier: 
                keyid:8F:F0:4B:7F:A8:2E:45:24:AE:4D:50:FA:63:9A:8B:DE:E2:DD:1B:BC

    Signature Algorithm: sha256WithRSAEncryption
         aa:a1:11:97:ff:b4:23:e8:f3:03:ec:d3:8e:ef:52:a1:5c:83:
         35:63:e5:ff:f1:42:b7:83:35:c6:93:f5:50:5e:9b:89:21:e8:
         58:53:18:88:34:fb:dd:49:e1:22:ea:0f:8a:b1:22:48:29:19:
         dc:2e:f9:23:68:58:81:14:55:2d:24:b9:29:68:78:53:ac:72:
         fd:cb:f1:8a:53:a0:da:c8:10:6f:89:38:23:6e:bb:99:f1:73:
         90:db:f1:bf:80:a3:ae:8d:49:15:bc:8d:88:fd:59:1d:fe:13:
         ae:54:c3:a6:97:cd:00:6b:3d:41:48:90:15:05:e4:a4:18:03:
         d4:d7:a9:e3:a9:40:b6:6c:21:ac:d3:7e:1c:e6:5d:f4:04:b1:
         8b:da:0c:d8:aa:eb:b9:36:51:7f:17:3a:8d:37:28:c7:b7:b8:
         71:90:12:c6:6c:6c:b4:84:3b:f1:a5:47:dc:c4:a3:3b:2c:5d:
         ea:08:83:c4:e3:39:10:e4:ab:21:65:0a:42:56:d8:b2:68:f6:
         93:e5:1e:e2:83:01:ab:0b:86:b2:cf:a5:4a:37:a4:b2:dc:6c:
         d7:82:31:8d:3f:90:e6:b1:2a:05:70:89:fc:20:1d:9f:2a:f7:
         cc:dd:93:b5:57:0d:eb:40:03:02:d0:04:4f:84:ed:f0:72:80:
         07:95:12:14
-----BEGIN CERTIFICATE-----
MIIEfzCCA2egAwIBAgILBAAAAAABMYnGTeEwDQYJKoZIhvcNAQELBQAwTDEgMB4G
A1UECxMXR2xvYmFsU2lnbiBSb290IENBIC0gUjMxEzARBgNVBAoTCkdsb2JhbFNp
Z24xEzARBgNVBAMTCkdsb2JhbFNpZ24wHhcNMTEwODAyMTAwMDAwWhcNMTkwODAy
MTAwMDAwWjBuMQswCQYDVQQGEwJCRTEZMBcGA1UEChMQR2xvYmFsU2lnbiBudi1z
YTFEMEIGA1UEAxM7R2xvYmFsU2lnbiBFeHRlbmRlZCBWYWxpZGF0aW9uIENvZGVT
aWduaW5nIENBIC0gU0hBMjU2IC0gRzIwggEiMA0GCSqGSIb3DQEBAQUAA4IBDwAw
ggEKAoIBAQCbth9/F1WsNVaqpLP+itA6lJ5p7Ryotf83pFnL0oDl/y7bGY5k0Ouq
FR5lrYa5dOxkup4F+t+YfgsLtWJr9RCdsxOi+rjVz+GeJOdcAQjjtKyqMkmACnZ7
5dEe+PHlVyyrGJ9vN0bdKU3f2uGdQUZCvFPir0aoDG/wulGhqKv7HcrzQDdmNb2+
oPgLSVPxRwVG7wV3l5f1kP+vTzBUG0n72zGnCIk6vI3KcDzmVGT3WbRL2rSXjaio
DM7WVXrE2tRCAEU/kw9kjT34uRJ3vAiKsaq2EgHISN7p5ArlJovOCdni36srHBY9
3u4xQkronQj0iVPvyXKn+qOGE6nh1MbXAgMBAAGjggE+MIIBOjAOBgNVHQ8BAf8E
BAMCAQYwEgYDVR0TAQH/BAgwBgEB/wIBADAdBgNVHQ4EFgQUCrwkLCz3nOWflXyt
u9XwGFE5hW4wRwYDVR0gBEAwPjA8BgRVHSAAMDQwMgYIKwYBBQUHAgEWJmh0dHBz
Oi8vd3d3Lmdsb2JhbHNpZ24uY29tL3JlcG9zaXRvcnkvMDYGA1UdHwQvMC0wK6Ap
oCeGJWh0dHA6Ly9jcmwuZ2xvYmFsc2lnbi5uZXQvcm9vdC1yMy5jcmwwPgYIKwYB
BQUHAQEEMjAwMC4GCCsGAQUFBzABhiJodHRwOi8vb2NzcDIuZ2xvYmFsc2lnbi5j
b20vcm9vdHIzMBMGA1UdJQQMMAoGCCsGAQUFBwMDMB8GA1UdIwQYMBaAFI/wS3+o
LkUkrk1Q+mOai97i3Ru8MA0GCSqGSIb3DQEBCwUAA4IBAQCqoRGX/7Qj6PMD7NOO
71KhXIM1Y+X/8UK3gzXGk/VQXpuJIehYUxiINPvdSeEi6g+KsSJIKRncLvkjaFiB
FFUtJLkpaHhTrHL9y/GKU6DayBBviTgjbruZ8XOQ2/G/gKOujUkVvI2I/Vkd/hOu
VMOml80Aaz1BSJAVBeSkGAPU16njqUC2bCGs034c5l30BLGL2gzYquu5NlF/FzqN
NyjHt7hxkBLGbGy0hDvxpUfcxKM7LF3qCIPE4zkQ5KshZQpCVtiyaPaT5R7igwGr
C4ayz6VKN6Sy3GzXgjGNP5DmsSoFcIn8IB2fKvfM3ZO1Vw3rQAMC0ARPhO3wcoAH
lRIU
-----END CERTIFICATE-----

Certificate:
    Data:
        Version: 3 (0x2)
        Serial Number:
            11:21:23:36:7a:63:ff:d2:14:39:7d:34:19:9f:f4:d6:a7:c6
    Signature Algorithm: sha256WithRSAEncryption
        Issuer: C=BE, O=GlobalSign nv-sa, CN=GlobalSign Extended Validation CodeSigning CA - SHA256 - G2
        Validity
            Not Before: Apr 22 15:37:46 2015 GMT
            Not After : Apr 22 15:37:46 2018 GMT
        Subject: businessCategory=Private Organization/serialNumber=U74899DL2005PTC143584/jurisdictionC=IN/jurisdictionST=Delhi, C=IN, ST=Uttar Pradesh, L=Noida/street=B-57, Sector 57, O=Lepide Software Private Limited, CN=Lepide Software Private Limited
        Subject Public Key Info:
            Public Key Algorithm: rsaEncryption
                Public-Key: (2048 bit)
                Modulus:
                    00:ab:a9:8d:32:f6:2c:58:97:94:1c:5e:a8:3b:26:
                    11:ff:53:d5:b0:b8:85:df:62:46:9a:26:09:2b:da:
                    41:1a:46:ec:20:60:2b:ea:51:cb:25:61:3c:32:b2:
                    10:22:e7:50:11:77:84:8a:29:be:25:b1:47:07:d2:
                    8c:ea:21:89:c0:e3:c6:83:fb:4c:b7:b8:44:da:53:
                    52:67:ea:87:a1:ba:7f:51:0e:8f:f8:d9:35:a3:90:
                    5f:db:a8:cc:2d:8d:01:9a:c8:e0:d9:eb:d1:a6:88:
                    e2:a9:c1:fd:b7:cd:94:d3:05:d8:af:51:26:af:09:
                    5b:47:f3:fd:f9:ba:7b:33:e7:86:50:be:45:3f:12:
                    12:3b:84:b4:30:24:88:5c:85:d1:6a:e2:ed:aa:f8:
                    f1:12:4c:4f:74:85:9e:06:ff:21:4d:55:c7:a8:1b:
                    a0:fd:64:95:1c:a6:17:5e:3d:73:87:02:36:a2:e7:
                    c5:97:2f:ea:35:08:d9:95:e3:f6:dd:b0:aa:83:7f:
                    df:c8:72:5a:35:ac:c9:fa:06:59:b1:dc:9e:12:a4:
                    a2:04:99:fa:c7:d2:ab:89:09:b8:0f:5c:b1:6c:9c:
                    ff:a2:11:37:51:47:a1:30:8f:21:65:35:59:93:74:
                    31:81:66:8f:8d:d2:70:e5:7d:ac:64:a1:43:6a:1f:
                    bd:d7
                Exponent: 65537 (0x10001)
        X509v3 extensions:
            X509v3 Key Usage: critical
                Digital Signature
            X509v3 Certificate Policies: 
                Policy: 1.3.6.1.4.1.4146.1.2
                  CPS: https://www.globalsign.com/repository/

            X509v3 Basic Constraints: 
                CA:FALSE
            X509v3 Extended Key Usage: 
                Code Signing
            X509v3 CRL Distribution Points: 

                Full Name:
                  URI:http://crl.globalsign.com/gs/gsevcodesignsha2g2.crl

            Authority Information Access: 
                CA Issuers - URI:http://secure.globalsign.com/cacert/gsextendcodesignsha2g2.crt
                OCSP - URI:http://ocsp2.globalsign.com/gsevcodesignsha2g2

            X509v3 Subject Alternative Name: 
                othername:<unsupported>
            X509v3 Subject Key Identifier: 
                53:FB:81:B8:AE:4D:CE:96:D0:58:32:B8:B6:5E:6A:EC:C1:96:5A:57
            X509v3 Authority Key Identifier: 
                keyid:0A:BC:24:2C:2C:F7:9C:E5:9F:95:7C:AD:BB:D5:F0:18:51:39:85:6E

    Signature Algorithm: sha256WithRSAEncryption
         55:2d:22:fb:9e:fe:80:59:14:d8:48:bc:d8:4c:cf:39:6e:9f:
         0e:b0:9c:34:05:4b:30:df:07:5c:a7:64:66:45:19:6e:d1:e3:
         16:69:6e:13:04:6e:b9:a2:69:a1:d2:20:01:1e:24:c3:1b:b5:
         8b:01:c5:50:56:00:68:bf:e6:19:14:81:83:f7:43:9a:5e:7c:
         f7:7d:dc:70:a7:9f:ef:a6:c3:4a:ec:38:03:d3:91:d2:9b:22:
         1d:1f:f2:40:f1:23:a0:a8:f3:15:03:b9:3b:07:50:da:08:f4:
         fb:ed:a1:ca:6c:d5:c1:2b:36:94:de:ff:92:6d:78:26:8a:a8:
         f9:65:90:bc:a7:03:c3:55:6f:1c:77:a4:fb:52:4e:df:63:1e:
         07:05:6e:af:02:76:94:49:50:9b:b8:f7:d8:f9:a8:31:5d:12:
         61:29:bb:03:97:82:15:6b:1a:b4:14:d0:07:b2:ec:a1:09:b5:
         f4:6c:6c:2d:5b:c4:9e:63:b8:f8:83:91:32:45:b1:b3:b7:2a:
         b2:a2:40:01:a3:e3:7f:13:df:c0:19:bd:79:c7:06:7b:0a:4d:
         ab:6e:e6:1a:32:56:1e:26:ea:2b:dc:0b:51:65:45:72:0b:85:
         b9:63:49:1a:2f:33:f0:d5:f3:fa:8a:cc:1d:76:e0:eb:82:2f:
         f6:03:de:0a
-----BEGIN CERTIFICATE-----
MIIF6zCCBNOgAwIBAgISESEjNnpj/9IUOX00GZ/01qfGMA0GCSqGSIb3DQEBCwUA
MG4xCzAJBgNVBAYTAkJFMRkwFwYDVQQKExBHbG9iYWxTaWduIG52LXNhMUQwQgYD
VQQDEztHbG9iYWxTaWduIEV4dGVuZGVkIFZhbGlkYXRpb24gQ29kZVNpZ25pbmcg
Q0EgLSBTSEEyNTYgLSBHMjAeFw0xNTA0MjIxNTM3NDZaFw0xODA0MjIxNTM3NDZa
MIIBDzEdMBsGA1UEDwwUUHJpdmF0ZSBPcmdhbml6YXRpb24xHjAcBgNVBAUTFVU3
NDg5OURMMjAwNVBUQzE0MzU4NDETMBEGCysGAQQBgjc8AgEDEwJJTjEWMBQGCysG
AQQBgjc8AgECEwVEZWxoaTELMAkGA1UEBhMCSU4xFjAUBgNVBAgTDVV0dGFyIFBy
YWRlc2gxDjAMBgNVBAcTBU5vaWRhMRgwFgYDVQQJEw9CLTU3LCBTZWN0b3IgNTcx
KDAmBgNVBAoTH0xlcGlkZSBTb2Z0d2FyZSBQcml2YXRlIExpbWl0ZWQxKDAmBgNV
BAMTH0xlcGlkZSBTb2Z0d2FyZSBQcml2YXRlIExpbWl0ZWQwggEiMA0GCSqGSIb3
DQEBAQUAA4IBDwAwggEKAoIBAQCrqY0y9ixYl5QcXqg7JhH/U9WwuIXfYkaaJgkr
2kEaRuwgYCvqUcslYTwyshAi51ARd4SKKb4lsUcH0ozqIYnA48aD+0y3uETaU1Jn
6oehun9RDo/42TWjkF/bqMwtjQGayODZ69GmiOKpwf23zZTTBdivUSavCVtH8/35
unsz54ZQvkU/EhI7hLQwJIhchdFq4u2q+PESTE90hZ4G/yFNVceoG6D9ZJUcphde
PXOHAjai58WXL+o1CNmV4/bdsKqDf9/Iclo1rMn6Blmx3J4SpKIEmfrH0quJCbgP
XLFsnP+iETdRR6EwjyFlNVmTdDGBZo+N0nDlfaxkoUNqH73XAgMBAAGjggHeMIIB
2jAOBgNVHQ8BAf8EBAMCB4AwTAYDVR0gBEUwQzBBBgkrBgEEAaAyAQIwNDAyBggr
BgEFBQcCARYmaHR0cHM6Ly93d3cuZ2xvYmFsc2lnbi5jb20vcmVwb3NpdG9yeS8w
CQYDVR0TBAIwADATBgNVHSUEDDAKBggrBgEFBQcDAzBEBgNVHR8EPTA7MDmgN6A1
hjNodHRwOi8vY3JsLmdsb2JhbHNpZ24uY29tL2dzL2dzZXZjb2Rlc2lnbnNoYTJn
Mi5jcmwwgZgGCCsGAQUFBwEBBIGLMIGIMEoGCCsGAQUFBzAChj5odHRwOi8vc2Vj
dXJlLmdsb2JhbHNpZ24uY29tL2NhY2VydC9nc2V4dGVuZGNvZGVzaWduc2hhMmcy
LmNydDA6BggrBgEFBQcwAYYuaHR0cDovL29jc3AyLmdsb2JhbHNpZ24uY29tL2dz
ZXZjb2Rlc2lnbnNoYTJnMjA5BgNVHREEMjAwoC4GCCsGAQUFBwgDoCIwIAweSU4t
REVMSEktVTc0ODk5REwyMDA1UFRDMTQzNTg0MB0GA1UdDgQWBBRT+4G4rk3OltBY
Mri2XmrswZZaVzAfBgNVHSMEGDAWgBQKvCQsLPec5Z+VfK271fAYUTmFbjANBgkq
hkiG9w0BAQsFAAOCAQEAVS0i+57+gFkU2Ei82EzPOW6fDrCcNAVLMN8HXKdkZkUZ
btHjFmluEwRuuaJpodIgAR4kwxu1iwHFUFYAaL/mGRSBg/dDml58933ccKef76bD
Suw4A9OR0psiHR/yQPEjoKjzFQO5OwdQ2gj0++2hymzVwSs2lN7/km14Joqo+WWQ
vKcDw1VvHHek+1JO32MeBwVurwJ2lElQm7j32PmoMV0SYSm7A5eCFWsatBTQB7Ls
oQm19GxsLVvEnmO4+IORMkWxs7cqsqJAAaPjfxPfwBm9eccGewpNq27mGjJWHibq
K9wLUWVFcguFuWNJGi8z8NXz+orMHXbg64Iv9gPeCg==
-----END CERTIFICATE-----

