Certificate:
    Data:
        Version: 3 (0x2)
        Serial Number:
            04:00:00:00:00:01:25:07:1d:f9:af
    Signature Algorithm: sha256WithRSAEncryption
        Issuer: C=BE, O=GlobalSign nv-sa, OU=Root CA, CN=GlobalSign Root CA
        Validity
            Not Before: Nov 18 10:00:00 2009 GMT
            Not After : Mar 18 10:00:00 2019 GMT
        Subject: OU=GlobalSign Root CA - R3, O=GlobalSign, CN=GlobalSign
        Subject Public Key Info:
            Public Key Algorithm: rsaEncryption
                Public-Key: (2048 bit)
                Modulus:
                    00:cc:25:76:90:79:06:78:22:16:f5:c0:83:b6:84:
                    ca:28:9e:fd:05:76:11:c5:ad:88:72:fc:46:02:43:
                    c7:b2:8a:9d:04:5f:24:cb:2e:4b:e1:60:82:46:e1:
                    52:ab:0c:81:47:70:6c:dd:64:d1:eb:f5:2c:a3:0f:
                    82:3d:0c:2b:ae:97:d7:b6:14:86:10:79:bb:3b:13:
                    80:77:8c:08:e1:49:d2:6a:62:2f:1f:5e:fa:96:68:
                    df:89:27:95:38:9f:06:d7:3e:c9:cb:26:59:0d:73:
                    de:b0:c8:e9:26:0e:83:15:c6:ef:5b:8b:d2:04:60:
                    ca:49:a6:28:f6:69:3b:f6:cb:c8:28:91:e5:9d:8a:
                    61:57:37:ac:74:14:dc:74:e0:3a:ee:72:2f:2e:9c:
                    fb:d0:bb:bf:f5:3d:00:e1:06:33:e8:82:2b:ae:53:
                    a6:3a:16:73:8c:dd:41:0e:20:3a:c0:b4:a7:a1:e9:
                    b2:4f:90:2e:32:60:e9:57:cb:b9:04:92:68:68:e5:
                    38:26:60:75:b2:9f:77:ff:91:14:ef:ae:20:49:fc:
                    ad:40:15:48:d1:02:31:61:19:5e:b8:97:ef:ad:77:
                    b7:64:9a:7a:bf:5f:c1:13:ef:9b:62:fb:0d:6c:e0:
                    54:69:16:a9:03:da:6e:e9:83:93:71:76:c6:69:85:
                    82:17
                Exponent: 65537 (0x10001)
        X509v3 extensions:
            X509v3 Key Usage: critical
                Certificate Sign, CRL Sign
            X509v3 Basic Constraints: critical
                CA:TRUE
            X509v3 Subject Key Identifier: 
                8F:F0:4B:7F:A8:2E:45:24:AE:4D:50:FA:63:9A:8B:DE:E2:DD:1B:BC
            X509v3 Certificate Policies: 
                Policy: X509v3 Any Policy
                  CPS: http://www.globalsign.net/repository/

            X509v3 CRL Distribution Points: 

                Full Name:
                  URI:http://crl.globalsign.net/root.crl

            Authority Information Access: 
                OCSP - URI:http://ocsp.globalsign.com/ExtendedSSLSHA256CACross

            X509v3 Authority Key Identifier: 
                keyid:60:7B:66:1A:45:0D:97:CA:89:50:2F:7D:04:CD:34:A8:FF:FC:FD:4B

    Signature Algorithm: sha256WithRSAEncryption
         42:52:a9:7e:a2:cf:5b:3b:cb:4b:dd:ba:f8:57:59:d3:24:a4:
         77:72:ef:62:44:37:82:ed:06:ee:04:d5:16:5f:24:a3:14:dc:
         6c:54:05:6a:b0:9b:3d:da:81:39:da:ad:28:db:95:6f:81:83:
         f5:cd:62:b1:45:24:b1:dd:29:e5:08:54:95:95:8c:f0:1d:06:
         5f:1a:d6:46:3f:13:40:17:48:11:16:9b:47:4d:d1:3a:b5:0f:
         57:1c:92:30:d0:f8:b2:25:3b:0a:cd:f6:87:f9:c7:b2:57:d3:
         3f:7d:a5:8c:14:ce:9c:a8:c7:9f:46:93:da:59:fa:79:5d:65:
         20:35:44:5a:4f:c1:90:9d:c1:54:92:56:dc:34:c8:f5:c1:03:
         d0:5d:c0:59:48:9c:00:fc:95:a0:f1:d1:76:f7:16:36:c8:13:
         92:7f:2d:2b:c0:b8:80:f1:26:26:1f:41:4d:52:bf:1e:97:bb:
         01:82:08:e7:15:f6:c1:d5:34:2a:cc:f5:e4:c3:87:7a:57:81:
         e1:d6:d7:42:86:62:01:77:e2:a9:c4:7a:86:f4:04:38:7a:07:
         6a:7d:00:ec:73:f7:a8:0b:34:78:c5:9e:b3:ef:b8:38:40:0e:
         8c:33:53:c8:75:ec:5f:3e:ea:75:5e:ff:82:0e:74:15:dc:19:
         05:f3:ba:31
-----BEGIN CERTIFICATE-----
MIIEXTCCA0WgAwIBAgILBAAAAAABJQcd+a8wDQYJKoZIhvcNAQELBQAwVzELMAkG
A1UEBhMCQkUxGTAXBgNVBAoTEEdsb2JhbFNpZ24gbnYtc2ExEDAOBgNVBAsTB1Jv
b3QgQ0ExGzAZBgNVBAMTEkdsb2JhbFNpZ24gUm9vdCBDQTAeFw0wOTExMTgxMDAw
MDBaFw0xOTAzMTgxMDAwMDBaMEwxIDAeBgNVBAsTF0dsb2JhbFNpZ24gUm9vdCBD
QSAtIFIzMRMwEQYDVQQKEwpHbG9iYWxTaWduMRMwEQYDVQQDEwpHbG9iYWxTaWdu
MIIBIjANBgkqhkiG9w0BAQEFAAOCAQ8AMIIBCgKCAQEAzCV2kHkGeCIW9cCDtoTK
KJ79BXYRxa2IcvxGAkPHsoqdBF8kyy5L4WCCRuFSqwyBR3Bs3WTR6/Usow+CPQwr
rpfXthSGEHm7OxOAd4wI4UnSamIvH176lmjfiSeVOJ8G1z7JyyZZDXPesMjpJg6D
FcbvW4vSBGDKSaYo9mk79svIKJHlnYphVzesdBTcdOA67nIvLpz70Lu/9T0A4QYz
6IIrrlOmOhZzjN1BDiA6wLSnoemyT5AuMmDpV8u5BJJoaOU4JmB1sp93/5EU764g
SfytQBVI0QIxYRleuJfvrXe3ZJp6v1/BE++bYvsNbOBUaRapA9pu6YOTcXbGaYWC
FwIDAQABo4IBMzCCAS8wDgYDVR0PAQH/BAQDAgEGMA8GA1UdEwEB/wQFMAMBAf8w
HQYDVR0OBBYEFI/wS3+oLkUkrk1Q+mOai97i3Ru8MEYGA1UdIAQ/MD0wOwYEVR0g
ADAzMDEGCCsGAQUFBwIBFiVodHRwOi8vd3d3Lmdsb2JhbHNpZ24ubmV0L3JlcG9z
aXRvcnkvMDMGA1UdHwQsMCowKKAmoCSGImh0dHA6Ly9jcmwuZ2xvYmFsc2lnbi5u
ZXQvcm9vdC5jcmwwTwYIKwYBBQUHAQEEQzBBMD8GCCsGAQUFBzABhjNodHRwOi8v
b2NzcC5nbG9iYWxzaWduLmNvbS9FeHRlbmRlZFNTTFNIQTI1NkNBQ3Jvc3MwHwYD
VR0jBBgwFoAUYHtmGkUNl8qJUC99BM00qP/8/UswDQYJKoZIhvcNAQELBQADggEB
AEJSqX6iz1s7y0vduvhXWdMkpHdy72JEN4LtBu4E1RZfJKMU3GxUBWqwmz3agTna
rSjblW+Bg/XNYrFFJLHdKeUIVJWVjPAdBl8a1kY/E0AXSBEWm0dN0Tq1D1cckjDQ
+LIlOwrN9of5x7JX0z99pYwUzpyox59Gk9pZ+nldZSA1RFpPwZCdwVSSVtw0yPXB
A9BdwFlInAD8laDx0Xb3FjbIE5J/LSvAuIDxJiYfQU1Svx6XuwGCCOcV9sHVNCrM
9eTDh3pXgeHW10KGYgF34qnEeob0BDh6B2p9AOxz96gLNHjFnrPvuDhADowzU8h1
7F8+6nVe/4IOdBXcGQXzujE=
-----END CERTIFICATE-----

Certificate:
    Data:
        Version: 3 (0x2)
        Serial Number:
            04:00:00:00:00:01:31:89:c6:4d:e1
    Signature Algorithm: sha256WithRSAEncryption
        Issuer: OU=GlobalSign Root CA - R3, O=GlobalSign, CN=GlobalSign
        Validity
            Not Before: Aug  2 10:00:00 2011 GMT
            Not After : Aug  2 10:00:00 2019 GMT
        Subject: C=BE, O=GlobalSign nv-sa, CN=GlobalSign Extended Validation CodeSigning CA - SHA256 - G2
        Subject Public Key Info:
            Public Key Algorithm: rsaEncryption
                Public-Key: (2048 bit)
                Modulus:
                    00:9b:b6:1f:7f:17:55:ac:35:56:aa:a4:b3:fe:8a:
                    d0:3a:94:9e:69:ed:1c:a8:b5:ff:37:a4:59:cb:d2:
                    80:e5:ff:2e:db:19:8e:64:d0:eb:aa:15:1e:65:ad:
                    86:b9:74:ec:64:ba:9e:05:fa:df:98:7e:0b:0b:b5:
                    62:6b:f5:10:9d:b3:13:a2:fa:b8:d5:cf:e1:9e:24:
                    e7:5c:01:08:e3:b4:ac:aa:32:49:80:0a:76:7b:e5:
                    d1:1e:f8:f1:e5:57:2c:ab:18:9f:6f:37:46:dd:29:
                    4d:df:da:e1:9d:41:46:42:bc:53:e2:af:46:a8:0c:
                    6f:f0:ba:51:a1:a8:ab:fb:1d:ca:f3:40:37:66:35:
                    bd:be:a0:f8:0b:49:53:f1:47:05:46:ef:05:77:97:
                    97:f5:90:ff:af:4f:30:54:1b:49:fb:db:31:a7:08:
                    89:3a:bc:8d:ca:70:3c:e6:54:64:f7:59:b4:4b:da:
                    b4:97:8d:a8:a8:0c:ce:d6:55:7a:c4:da:d4:42:00:
                    45:3f:93:0f:64:8d:3d:f8:b9:12:77:bc:08:8a:b1:
                    aa:b6:12:01:c8:48:de:e9:e4:0a:e5:26:8b:ce:09:
                    d9:e2:df:ab:2b:1c:16:3d:de:ee:31:42:4a:e8:9d:
                    08:f4:89:53:ef:c9:72:a7:fa:a3:86:13:a9:e1:d4:
                    c6:d7
                Exponent: 65537 (0x10001)
        X509v3 extensions:
            X509v3 Key Usage: critical
                Certificate Sign, CRL Sign
            X509v3 Basic Constraints: critical
                CA:TRUE, pathlen:0
            X509v3 Subject Key Identifier: 
                0A:BC:24:2C:2C:F7:9C:E5:9F:95:7C:AD:BB:D5:F0:18:51:39:85:6E
            X509v3 Certificate Policies: 
                Policy: X509v3 Any Policy
                  CPS: https://www.globalsign.com/repository/

            X509v3 CRL Distribution Points: 

                Full Name:
                  URI:http://crl.globalsign.net/root-r3.crl

            Authority Information Access: 
                OCSP - URI:http://ocsp2.globalsign.com/rootr3

            X509v3 Extended Key Usage: 
                Code Signing
            X509v3 Authority Key Identifier: 
                keyid:8F:F0:4B:7F:A8:2E:45:24:AE:4D:50:FA:63:9A:8B:DE:E2:DD:1B:BC

    Signature Algorithm: sha256WithRSAEncryption
         aa:a1:11:97:ff:b4:23:e8:f3:03:ec:d3:8e:ef:52:a1:5c:83:
         35:63:e5:ff:f1:42:b7:83:35:c6:93:f5:50:5e:9b:89:21:e8:
         58:53:18:88:34:fb:dd:49:e1:22:ea:0f:8a:b1:22:48:29:19:
         dc:2e:f9:23:68:58:81:14:55:2d:24:b9:29:68:78:53:ac:72:
         fd:cb:f1:8a:53:a0:da:c8:10:6f:89:38:23:6e:bb:99:f1:73:
         90:db:f1:bf:80:a3:ae:8d:49:15:bc:8d:88:fd:59:1d:fe:13:
         ae:54:c3:a6:97:cd:00:6b:3d:41:48:90:15:05:e4:a4:18:03:
         d4:d7:a9:e3:a9:40:b6:6c:21:ac:d3:7e:1c:e6:5d:f4:04:b1:
         8b:da:0c:d8:aa:eb:b9:36:51:7f:17:3a:8d:37:28:c7:b7:b8:
         71:90:12:c6:6c:6c:b4:84:3b:f1:a5:47:dc:c4:a3:3b:2c:5d:
         ea:08:83:c4:e3:39:10:e4:ab:21:65:0a:42:56:d8:b2:68:f6:
         93:e5:1e:e2:83:01:ab:0b:86:b2:cf:a5:4a:37:a4:b2:dc:6c:
         d7:82:31:8d:3f:90:e6:b1:2a:05:70:89:fc:20:1d:9f:2a:f7:
         cc:dd:93:b5:57:0d:eb:40:03:02:d0:04:4f:84:ed:f0:72:80:
         07:95:12:14
-----BEGIN CERTIFICATE-----
MIIEfzCCA2egAwIBAgILBAAAAAABMYnGTeEwDQYJKoZIhvcNAQELBQAwTDEgMB4G
A1UECxMXR2xvYmFsU2lnbiBSb290IENBIC0gUjMxEzARBgNVBAoTCkdsb2JhbFNp
Z24xEzARBgNVBAMTCkdsb2JhbFNpZ24wHhcNMTEwODAyMTAwMDAwWhcNMTkwODAy
MTAwMDAwWjBuMQswCQYDVQQGEwJCRTEZMBcGA1UEChMQR2xvYmFsU2lnbiBudi1z
YTFEMEIGA1UEAxM7R2xvYmFsU2lnbiBFeHRlbmRlZCBWYWxpZGF0aW9uIENvZGVT
aWduaW5nIENBIC0gU0hBMjU2IC0gRzIwggEiMA0GCSqGSIb3DQEBAQUAA4IBDwAw
ggEKAoIBAQCbth9/F1WsNVaqpLP+itA6lJ5p7Ryotf83pFnL0oDl/y7bGY5k0Ouq
FR5lrYa5dOxkup4F+t+YfgsLtWJr9RCdsxOi+rjVz+GeJOdcAQjjtKyqMkmACnZ7
5dEe+PHlVyyrGJ9vN0bdKU3f2uGdQUZCvFPir0aoDG/wulGhqKv7HcrzQDdmNb2+
oPgLSVPxRwVG7wV3l5f1kP+vTzBUG0n72zGnCIk6vI3KcDzmVGT3WbRL2rSXjaio
DM7WVXrE2tRCAEU/kw9kjT34uRJ3vAiKsaq2EgHISN7p5ArlJovOCdni36srHBY9
3u4xQkronQj0iVPvyXKn+qOGE6nh1MbXAgMBAAGjggE+MIIBOjAOBgNVHQ8BAf8E
BAMCAQYwEgYDVR0TAQH/BAgwBgEB/wIBADAdBgNVHQ4EFgQUCrwkLCz3nOWflXyt
u9XwGFE5hW4wRwYDVR0gBEAwPjA8BgRVHSAAMDQwMgYIKwYBBQUHAgEWJmh0dHBz
Oi8vd3d3Lmdsb2JhbHNpZ24uY29tL3JlcG9zaXRvcnkvMDYGA1UdHwQvMC0wK6Ap
oCeGJWh0dHA6Ly9jcmwuZ2xvYmFsc2lnbi5uZXQvcm9vdC1yMy5jcmwwPgYIKwYB
BQUHAQEEMjAwMC4GCCsGAQUFBzABhiJodHRwOi8vb2NzcDIuZ2xvYmFsc2lnbi5j
b20vcm9vdHIzMBMGA1UdJQQMMAoGCCsGAQUFBwMDMB8GA1UdIwQYMBaAFI/wS3+o
LkUkrk1Q+mOai97i3Ru8MA0GCSqGSIb3DQEBCwUAA4IBAQCqoRGX/7Qj6PMD7NOO
71KhXIM1Y+X/8UK3gzXGk/VQXpuJIehYUxiINPvdSeEi6g+KsSJIKRncLvkjaFiB
FFUtJLkpaHhTrHL9y/GKU6DayBBviTgjbruZ8XOQ2/G/gKOujUkVvI2I/Vkd/hOu
VMOml80Aaz1BSJAVBeSkGAPU16njqUC2bCGs034c5l30BLGL2gzYquu5NlF/FzqN
NyjHt7hxkBLGbGy0hDvxpUfcxKM7LF3qCIPE4zkQ5KshZQpCVtiyaPaT5R7igwGr
C4ayz6VKN6Sy3GzXgjGNP5DmsSoFcIn8IB2fKvfM3ZO1Vw3rQAMC0ARPhO3wcoAH
lRIU
-----END CERTIFICATE-----

Certificate:
    Data:
        Version: 3 (0x2)
        Serial Number:
            11:21:b5:d4:d5:79:fe:52:c4:75:c0:1e:3d:a6:26:48:7f:05
    Signature Algorithm: sha256WithRSAEncryption
        Issuer: C=BE, O=GlobalSign nv-sa, CN=GlobalSign Extended Validation CodeSigning CA - SHA256 - G2
        Validity
            Not Before: Sep 22 15:11:47 2015 GMT
            Not After : Sep 22 15:11:47 2018 GMT
        Subject: businessCategory=Private Organization/serialNumber=001030216/jurisdictionC=US/jurisdictionST=Massachusetts, C=US, ST=MA, L=North Andover/street=120 Water St, O=eSupport.com, Inc., CN=eSupport.com, Inc.
        Subject Public Key Info:
            Public Key Algorithm: rsaEncryption
                Public-Key: (2048 bit)
                Modulus:
                    00:d3:fe:cf:82:f4:68:22:c3:88:86:9a:fb:8b:4d:
                    fb:58:ee:c2:48:8f:b2:bd:97:4b:86:25:94:91:f6:
                    ec:f8:4e:9a:c2:62:4b:4f:2b:67:3d:af:dc:61:d1:
                    41:64:63:fa:eb:18:3c:38:9a:26:d0:ce:10:6f:84:
                    3c:b1:42:7a:51:82:6b:cb:f6:51:ce:c8:2b:d3:5d:
                    43:d5:98:79:61:41:3b:c6:70:52:7a:39:0c:2f:7a:
                    6b:d3:32:7f:6b:a9:cd:ec:33:f5:26:c4:9c:c1:3c:
                    34:06:75:62:6d:84:cc:88:e6:06:f2:e4:1a:97:b5:
                    05:01:dd:1c:87:93:c6:6c:63:70:dc:f4:93:12:bf:
                    23:06:9f:9f:a4:8f:f5:6c:f4:92:5e:27:a9:34:d3:
                    23:12:5b:18:2b:4a:06:66:2f:7f:7b:18:64:fd:20:
                    22:24:c6:50:39:43:53:f5:fd:ad:9c:a2:6a:71:48:
                    aa:a4:e4:d3:a8:e3:2f:3a:86:fc:a4:c0:d7:4b:45:
                    ca:aa:41:d5:14:03:35:9a:29:67:5e:59:06:ad:8c:
                    58:78:c4:40:80:54:75:b0:37:5e:2f:34:e9:69:95:
                    48:30:4d:ad:4e:80:12:ca:bb:c8:aa:41:db:22:06:
                    0b:be:03:02:af:c1:29:0b:ab:b5:16:94:c1:57:93:
                    af:49
                Exponent: 65537 (0x10001)
        X509v3 extensions:
            X509v3 Key Usage: critical
                Digital Signature
            X509v3 Certificate Policies: 
                Policy: 1.3.6.1.4.1.4146.1.2
                  CPS: https://www.globalsign.com/repository/

            X509v3 Basic Constraints: 
                CA:FALSE
            X509v3 Extended Key Usage: 
                Code Signing
            X509v3 CRL Distribution Points: 

                Full Name:
                  URI:http://crl.globalsign.com/gs/gsevcodesignsha2g2.crl

            Authority Information Access: 
                CA Issuers - URI:http://secure.globalsign.com/cacert/gsextendcodesignsha2g2.crt
                OCSP - URI:http://ocsp2.globalsign.com/gsevcodesignsha2g2

            X509v3 Subject Alternative Name: 
                othername:<unsupported>
            X509v3 Subject Key Identifier: 
                90:07:5E:4A:FB:99:67:16:5F:47:A5:60:9F:13:9C:B5:61:99:C5:B6
            X509v3 Authority Key Identifier: 
                keyid:0A:BC:24:2C:2C:F7:9C:E5:9F:95:7C:AD:BB:D5:F0:18:51:39:85:6E

    Signature Algorithm: sha256WithRSAEncryption
         09:18:e9:fd:c6:e2:2f:2f:34:7e:f8:60:15:7c:ca:be:11:af:
         3d:66:6c:18:62:85:f5:8c:a1:fd:f5:25:9e:37:85:83:4b:a1:
         38:cc:84:b2:f8:39:76:2b:56:22:05:3a:b7:e7:56:10:01:1b:
         a2:16:2b:5c:f2:2d:08:3b:01:ce:c6:f7:f6:fb:90:0b:b3:82:
         20:68:e3:03:26:0f:6e:82:ac:80:03:b6:4a:bc:31:73:b3:c0:
         1c:3d:a9:14:0a:19:aa:69:13:fb:ed:c0:bb:9c:7a:62:d5:bb:
         3b:71:12:6d:fa:8c:3f:aa:cf:0f:08:fd:f4:65:04:cf:14:cd:
         77:11:f4:ab:ec:b3:f3:b5:fc:2b:d8:f0:5a:df:fc:cf:77:73:
         19:d7:02:d2:07:2a:5b:cc:49:b8:b7:8c:88:8b:c9:9e:24:2d:
         82:2a:ce:e3:54:d9:96:cf:39:9c:82:87:01:f9:f5:91:28:16:
         c3:da:6c:fb:8f:3a:68:37:42:89:73:fe:0d:51:8e:64:5b:25:
         03:7b:68:61:c4:36:99:4d:a8:54:3d:28:67:72:c2:d9:3e:bc:
         f3:e1:77:3d:c8:b4:70:43:ed:27:8c:3d:c0:99:c7:70:f7:44:
         90:e0:ce:16:ab:d3:cb:f4:aa:f3:48:b7:0e:27:01:f7:59:b9:
         cf:61:a9:17
-----BEGIN CERTIFICATE-----
MIIFwjCCBKqgAwIBAgISESG11NV5/lLEdcAePaYmSH8FMA0GCSqGSIb3DQEBCwUA
MG4xCzAJBgNVBAYTAkJFMRkwFwYDVQQKExBHbG9iYWxTaWduIG52LXNhMUQwQgYD
VQQDEztHbG9iYWxTaWduIEV4dGVuZGVkIFZhbGlkYXRpb24gQ29kZVNpZ25pbmcg
Q0EgLSBTSEEyNTYgLSBHMjAeFw0xNTA5MjIxNTExNDdaFw0xODA5MjIxNTExNDda
MIHrMR0wGwYDVQQPDBRQcml2YXRlIE9yZ2FuaXphdGlvbjESMBAGA1UEBRMJMDAx
MDMwMjE2MRMwEQYLKwYBBAGCNzwCAQMTAlVTMR4wHAYLKwYBBAGCNzwCAQITDU1h
c3NhY2h1c2V0dHMxCzAJBgNVBAYTAlVTMQswCQYDVQQIEwJNQTEWMBQGA1UEBxMN
Tm9ydGggQW5kb3ZlcjEVMBMGA1UECRMMMTIwIFdhdGVyIFN0MRswGQYDVQQKExJl
U3VwcG9ydC5jb20sIEluYy4xGzAZBgNVBAMTEmVTdXBwb3J0LmNvbSwgSW5jLjCC
ASIwDQYJKoZIhvcNAQEBBQADggEPADCCAQoCggEBANP+z4L0aCLDiIaa+4tN+1ju
wkiPsr2XS4YllJH27PhOmsJiS08rZz2v3GHRQWRj+usYPDiaJtDOEG+EPLFCelGC
a8v2Uc7IK9NdQ9WYeWFBO8ZwUno5DC96a9Myf2upzewz9SbEnME8NAZ1Ym2EzIjm
BvLkGpe1BQHdHIeTxmxjcNz0kxK/Iwafn6SP9Wz0kl4nqTTTIxJbGCtKBmYvf3sY
ZP0gIiTGUDlDU/X9rZyianFIqqTk06jjLzqG/KTA10tFyqpB1RQDNZopZ15ZBq2M
WHjEQIBUdbA3Xi806WmVSDBNrU6AEsq7yKpB2yIGC74DAq/BKQurtRaUwVeTr0kC
AwEAAaOCAdowggHWMA4GA1UdDwEB/wQEAwIHgDBMBgNVHSAERTBDMEEGCSsGAQQB
oDIBAjA0MDIGCCsGAQUFBwIBFiZodHRwczovL3d3dy5nbG9iYWxzaWduLmNvbS9y
ZXBvc2l0b3J5LzAJBgNVHRMEAjAAMBMGA1UdJQQMMAoGCCsGAQUFBwMDMEQGA1Ud
HwQ9MDswOaA3oDWGM2h0dHA6Ly9jcmwuZ2xvYmFsc2lnbi5jb20vZ3MvZ3NldmNv
ZGVzaWduc2hhMmcyLmNybDCBmAYIKwYBBQUHAQEEgYswgYgwSgYIKwYBBQUHMAKG
Pmh0dHA6Ly9zZWN1cmUuZ2xvYmFsc2lnbi5jb20vY2FjZXJ0L2dzZXh0ZW5kY29k
ZXNpZ25zaGEyZzIuY3J0MDoGCCsGAQUFBzABhi5odHRwOi8vb2NzcDIuZ2xvYmFs
c2lnbi5jb20vZ3NldmNvZGVzaWduc2hhMmcyMDUGA1UdEQQuMCygKgYIKwYBBQUH
CAOgHjAcDBpVUy1NQVNTQUNIVVNFVFRTLTAwMTAzMDIxNjAdBgNVHQ4EFgQUkAde
SvuZZxZfR6VgnxOctWGZxbYwHwYDVR0jBBgwFoAUCrwkLCz3nOWflXytu9XwGFE5
hW4wDQYJKoZIhvcNAQELBQADggEBAAkY6f3G4i8vNH74YBV8yr4Rrz1mbBhihfWM
of31JZ43hYNLoTjMhLL4OXYrViIFOrfnVhABG6IWK1zyLQg7Ac7G9/b7kAuzgiBo
4wMmD26CrIADtkq8MXOzwBw9qRQKGappE/vtwLucemLVuztxEm36jD+qzw8I/fRl
BM8UzXcR9Kvss/O1/CvY8Frf/M93cxnXAtIHKlvMSbi3jIiLyZ4kLYIqzuNU2ZbP
OZyChwH59ZEoFsPabPuPOmg3Qolz/g1RjmRbJQN7aGHENplNqFQ9KGdywtk+vPPh
dz3ItHBD7SeMPcCZx3D3RJDgzhar08v0qvNItw4nAfdZuc9hqRc=
-----END CERTIFICATE-----

