Certificate:
    Data:
        Version: 3 (0x2)
        Serial Number:
            5c:ca:a8:23:69:a2:6a:ee:30:d0:17:61:6b:1c:eb:69
    Signature Algorithm: sha1WithRSAEncryption
        Issuer: C=US, O=VeriSign, Inc., OU=VeriSign Trust Network, OU=Terms of use at https://www.verisign.com/rpa (c)10, CN=VeriSign Class 3 Code Signing 2010 CA
        Validity
            Not Before: Feb 23 00:00:00 2017 GMT
            Not After : Feb 23 23:59:59 2018 GMT
        Subject: C=CN, ST=Xizang, L=Lasa, O=Wondershare Technology Co.,Ltd, OU=Information Security, CN=Wondershare Technology Co.,Ltd
        Subject Public Key Info:
            Public Key Algorithm: rsaEncryption
                Public-Key: (2048 bit)
                Modulus:
                    00:d0:4d:5e:93:c5:2a:52:5e:f9:d5:35:a1:3d:ee:
                    b7:f2:db:8b:0f:98:61:21:5d:bf:28:bc:41:6c:69:
                    47:5b:38:b8:02:48:85:99:9b:7c:d6:fe:34:21:9e:
                    e7:9f:df:bb:9e:c3:5c:e8:2b:27:17:20:c1:7f:09:
                    ea:ba:51:7e:b0:b0:74:4f:5e:6a:ca:6e:27:25:f7:
                    f7:52:e5:97:57:7e:23:f5:b7:bb:6c:66:14:1c:1b:
                    e7:32:f5:3e:16:1c:67:98:63:87:2b:5a:2b:fe:0a:
                    42:40:28:ff:ed:07:4d:51:8d:a6:97:cf:ec:cf:ad:
                    c0:72:7d:dc:6f:ac:f2:6e:21:ae:42:07:21:ff:93:
                    6f:81:d3:96:d4:b6:8d:4c:ef:a1:a2:16:62:32:e1:
                    53:f6:40:1b:4c:c2:87:81:5c:6e:5d:3c:ca:7c:29:
                    1e:c1:16:70:cc:0e:5d:66:67:c9:b7:7a:56:be:af:
                    13:62:00:af:49:8d:07:2e:b2:d4:12:fa:e3:95:dd:
                    10:63:75:7d:12:41:a5:90:10:92:65:ea:92:f7:3a:
                    6d:61:42:79:be:37:3d:f7:4c:1a:c7:30:f8:27:ea:
                    63:70:7e:9d:c4:c9:c6:0b:01:92:ff:4a:dd:de:62:
                    7a:e6:69:ff:1e:77:74:6a:ce:1f:45:fa:55:e1:11:
                    51:ad
                Exponent: 3 (0x3)
        X509v3 extensions:
            X509v3 Basic Constraints: 
                CA:FALSE
            X509v3 Key Usage: critical
                Digital Signature
            X509v3 CRL Distribution Points: 

                Full Name:
                  URI:http://sf.symcb.com/sf.crl

            X509v3 Certificate Policies: 
                Policy: 2.23.140.1.4.1
                  CPS: https://d.symcb.com/cps
                  User Notice:
                    Explicit Text: https://d.symcb.com/rpa

            X509v3 Extended Key Usage: 
                Code Signing
            Authority Information Access: 
                OCSP - URI:http://sf.symcd.com
                CA Issuers - URI:http://sf.symcb.com/sf.crt

            X509v3 Authority Key Identifier: 
                keyid:CF:99:A9:EA:7B:26:F4:4B:C9:8E:8F:D7:F0:05:26:EF:E3:D2:A7:9D

            X509v3 Subject Key Identifier: 
                E7:EF:F0:04:26:42:7C:E6:11:4F:B0:67:E0:25:DB:13:13:6B:6D:0E
    Signature Algorithm: sha1WithRSAEncryption
         7e:6d:22:33:d7:d0:5a:8e:12:15:b5:9a:a0:60:be:da:a8:d5:
         7b:e3:52:fa:01:39:26:b7:3a:b9:02:8f:63:d4:52:b9:8f:8e:
         af:0b:3b:d7:e2:f0:16:43:69:9c:8f:06:f1:3f:2b:09:79:ac:
         76:21:6f:9a:89:71:3a:3f:c1:08:cd:a2:96:41:ea:9d:fd:a4:
         92:a6:53:cf:a5:64:07:e4:34:e3:32:92:4f:3e:0c:2f:27:68:
         25:3c:bf:69:71:69:71:f0:8b:93:67:27:74:2c:68:f2:31:68:
         91:96:23:45:97:a7:8b:40:57:58:06:d8:53:8b:dd:91:67:4c:
         fb:0c:68:b2:a7:91:e0:c5:aa:b7:0d:d6:02:7b:5c:e1:9b:42:
         bc:4f:48:99:31:a7:f8:31:52:e5:34:a0:c5:6c:5f:38:cf:2f:
         82:89:2f:af:81:29:6e:48:c3:90:70:7a:64:69:04:10:a5:d7:
         4d:a4:7e:53:a7:b3:c4:d8:7a:19:df:22:9e:f5:6a:04:ec:b6:
         8a:ca:89:d2:cf:31:e5:6d:6e:d1:c7:74:b1:b3:59:35:b2:26:
         5e:f9:3f:11:0c:ad:e0:94:f0:a7:52:b7:c8:f0:47:f3:a8:55:
         f1:fe:83:fd:c0:a2:72:98:60:3f:47:9b:4a:28:13:d4:c0:d9:
         63:93:b6:ed
-----BEGIN CERTIFICATE-----
MIIFOzCCBCOgAwIBAgIQXMqoI2miau4w0BdhaxzraTANBgkqhkiG9w0BAQUFADCB
tDELMAkGA1UEBhMCVVMxFzAVBgNVBAoTDlZlcmlTaWduLCBJbmMuMR8wHQYDVQQL
ExZWZXJpU2lnbiBUcnVzdCBOZXR3b3JrMTswOQYDVQQLEzJUZXJtcyBvZiB1c2Ug
YXQgaHR0cHM6Ly93d3cudmVyaXNpZ24uY29tL3JwYSAoYykxMDEuMCwGA1UEAxMl
VmVyaVNpZ24gQ2xhc3MgMyBDb2RlIFNpZ25pbmcgMjAxMCBDQTAeFw0xNzAyMjMw
MDAwMDBaFw0xODAyMjMyMzU5NTlaMIGeMQswCQYDVQQGEwJDTjEPMA0GA1UECAwG
WGl6YW5nMQ0wCwYDVQQHDARMYXNhMScwJQYDVQQKDB5Xb25kZXJzaGFyZSBUZWNo
bm9sb2d5IENvLixMdGQxHTAbBgNVBAsMFEluZm9ybWF0aW9uIFNlY3VyaXR5MScw
JQYDVQQDDB5Xb25kZXJzaGFyZSBUZWNobm9sb2d5IENvLixMdGQwggEgMA0GCSqG
SIb3DQEBAQUAA4IBDQAwggEIAoIBAQDQTV6TxSpSXvnVNaE97rfy24sPmGEhXb8o
vEFsaUdbOLgCSIWZm3zW/jQhnuef37uew1zoKycXIMF/Ceq6UX6wsHRPXmrKbicl
9/dS5ZdXfiP1t7tsZhQcG+cy9T4WHGeYY4crWiv+CkJAKP/tB01RjaaXz+zPrcBy
fdxvrPJuIa5CByH/k2+B05bUto1M76GiFmIy4VP2QBtMwoeBXG5dPMp8KR7BFnDM
Dl1mZ8m3ela+rxNiAK9JjQcustQS+uOV3RBjdX0SQaWQEJJl6pL3Om1hQnm+Nz33
TBrHMPgn6mNwfp3EycYLAZL/St3eYnrmaf8ed3Rqzh9F+lXhEVGtAgEDo4IBXTCC
AVkwCQYDVR0TBAIwADAOBgNVHQ8BAf8EBAMCB4AwKwYDVR0fBCQwIjAgoB6gHIYa
aHR0cDovL3NmLnN5bWNiLmNvbS9zZi5jcmwwYQYDVR0gBFowWDBWBgZngQwBBAEw
TDAjBggrBgEFBQcCARYXaHR0cHM6Ly9kLnN5bWNiLmNvbS9jcHMwJQYIKwYBBQUH
AgIwGQwXaHR0cHM6Ly9kLnN5bWNiLmNvbS9ycGEwEwYDVR0lBAwwCgYIKwYBBQUH
AwMwVwYIKwYBBQUHAQEESzBJMB8GCCsGAQUFBzABhhNodHRwOi8vc2Yuc3ltY2Qu
Y29tMCYGCCsGAQUFBzAChhpodHRwOi8vc2Yuc3ltY2IuY29tL3NmLmNydDAfBgNV
HSMEGDAWgBTPmanqeyb0S8mOj9fwBSbv49KnnTAdBgNVHQ4EFgQU5+/wBCZCfOYR
T7Bn4CXbExNrbQ4wDQYJKoZIhvcNAQEFBQADggEBAH5tIjPX0FqOEhW1mqBgvtqo
1XvjUvoBOSa3OrkCj2PUUrmPjq8LO9fi8BZDaZyPBvE/Kwl5rHYhb5qJcTo/wQjN
opZB6p39pJKmU8+lZAfkNOMykk8+DC8naCU8v2lxaXHwi5NnJ3QsaPIxaJGWI0WX
p4tAV1gG2FOL3ZFnTPsMaLKnkeDFqrcN1gJ7XOGbQrxPSJkxp/gxUuU0oMVsXzjP
L4KJL6+BKW5Iw5BwemRpBBCl102kflOns8TYehnfIp71agTstorKidLPMeVtbtHH
dLGzWTWyJl75PxEMreCU8KdSt8jwR/OoVfH+g/3AonKYYD9Hm0ooE9TA2WOTtu0=
-----END CERTIFICATE-----

Certificate:
    Data:
        Version: 3 (0x2)
        Serial Number:
            52:00:e5:aa:25:56:fc:1a:86:ed:96:c9:d4:4b:33:c7
    Signature Algorithm: sha1WithRSAEncryption
        Issuer: C=US, O=VeriSign, Inc., OU=VeriSign Trust Network, OU=(c) 2006 VeriSign, Inc. - For authorized use only, CN=VeriSign Class 3 Public Primary Certification Authority - G5
        Validity
            Not Before: Feb  8 00:00:00 2010 GMT
            Not After : Feb  7 23:59:59 2020 GMT
        Subject: C=US, O=VeriSign, Inc., OU=VeriSign Trust Network, OU=Terms of use at https://www.verisign.com/rpa (c)10, CN=VeriSign Class 3 Code Signing 2010 CA
        Subject Public Key Info:
            Public Key Algorithm: rsaEncryption
                Public-Key: (2048 bit)
                Modulus:
                    00:f5:23:4b:5e:a5:d7:8a:bb:32:e9:d4:57:f7:ef:
                    e4:c7:26:7e:ad:19:98:fe:a8:9d:7d:94:f6:36:6b:
                    10:d7:75:81:30:7f:04:68:7f:cb:2b:75:1e:cd:1d:
                    08:8c:df:69:94:a7:37:a3:9c:7b:80:e0:99:e1:ee:
                    37:4d:5f:ce:3b:14:ee:86:d4:d0:f5:27:35:bc:25:
                    0b:38:a7:8c:63:9d:17:a3:08:a5:ab:b0:fb:cd:6a:
                    62:82:4c:d5:21:da:1b:d9:f1:e3:84:3b:8a:2a:4f:
                    85:5b:90:01:4f:c9:a7:76:10:7f:27:03:7c:be:ae:
                    7e:7d:c1:dd:f9:05:bc:1b:48:9c:69:e7:c0:a4:3c:
                    3c:41:00:3e:df:96:e5:c5:e4:94:71:d6:55:01:c7:
                    00:26:4a:40:3c:b5:a1:26:a9:0c:a7:6d:80:8e:90:
                    25:7b:cf:bf:3f:1c:eb:2f:96:fa:e5:87:77:c6:b5:
                    56:b2:7a:3b:54:30:53:1b:df:62:34:ff:1e:d1:f4:
                    5a:93:28:85:e5:4c:17:4e:7e:5b:fd:a4:93:99:7f:
                    df:cd:ef:a4:75:ef:ef:15:f6:47:e7:f8:19:72:d8:
                    2e:34:1a:a6:b4:a7:4c:7e:bd:bb:4f:0c:3d:57:f1:
                    30:d6:a6:36:8e:d6:80:76:d7:19:2e:a5:cd:7e:34:
                    2d:89
                Exponent: 65537 (0x10001)
        X509v3 extensions:
            X509v3 Basic Constraints: critical
                CA:TRUE, pathlen:0
            X509v3 Certificate Policies: 
                Policy: 2.16.840.1.113733.1.7.23.3
                  CPS: https://www.verisign.com/cps
                  User Notice:
                    Explicit Text: https://www.verisign.com/rpa

            X509v3 Key Usage: critical
                Certificate Sign, CRL Sign
            1.3.6.1.5.5.7.1.12: 
                0_.].[0Y0W0U..image/gif0!0.0...+..............k...j.H.,{..0%.#http://logo.verisign.com/vslogo.gif
            X509v3 CRL Distribution Points: 

                Full Name:
                  URI:http://crl.verisign.com/pca3-g5.crl

            Authority Information Access: 
                OCSP - URI:http://ocsp.verisign.com

            X509v3 Extended Key Usage: 
                TLS Web Client Authentication, Code Signing
            X509v3 Subject Alternative Name: 
                DirName:/CN=VeriSignMPKI-2-8
            X509v3 Subject Key Identifier: 
                CF:99:A9:EA:7B:26:F4:4B:C9:8E:8F:D7:F0:05:26:EF:E3:D2:A7:9D
            X509v3 Authority Key Identifier: 
                keyid:7F:D3:65:A7:C2:DD:EC:BB:F0:30:09:F3:43:39:FA:02:AF:33:31:33

    Signature Algorithm: sha1WithRSAEncryption
         56:22:e6:34:a4:c4:61:cb:48:b9:01:ad:56:a8:64:0f:d9:8c:
         91:c4:bb:cc:0c:e5:ad:7a:a0:22:7f:df:47:38:4a:2d:6c:d1:
         7f:71:1a:7c:ec:70:a9:b1:f0:4f:e4:0f:0c:53:fa:15:5e:fe:
         74:98:49:24:85:81:26:1c:91:14:47:b0:4c:63:8c:bb:a1:34:
         d4:c6:45:e8:0d:85:26:73:03:d0:a9:8c:64:6d:dc:71:92:e6:
         45:05:60:15:59:51:39:fc:58:14:6b:fe:d4:a4:ed:79:6b:08:
         0c:41:72:e7:37:22:06:09:be:23:e9:3f:44:9a:1e:e9:61:9d:
         cc:b1:90:5c:fc:3d:d2:8d:ac:42:3d:65:36:d4:b4:3d:40:28:
         8f:9b:10:cf:23:26:cc:4b:20:cb:90:1f:5d:8c:4c:34:ca:3c:
         d8:e5:37:d6:6f:a5:20:bd:34:eb:26:d9:ae:0d:e7:c5:9a:f7:
         a1:b4:21:91:33:6f:86:e8:58:bb:25:7c:74:0e:58:fe:75:1b:
         63:3f:ce:31:7c:9b:8f:1b:96:9e:c5:53:76:84:5b:9c:ad:91:
         fa:ac:ed:93:ba:5d:c8:21:53:c2:82:53:63:af:12:0d:50:87:
         11:1b:3d:54:52:96:8a:2c:9c:3d:92:1a:08:9a:05:2e:c7:93:
         a5:48:91:d3
-----BEGIN CERTIFICATE-----
MIIGCjCCBPKgAwIBAgIQUgDlqiVW/BqG7ZbJ1EszxzANBgkqhkiG9w0BAQUFADCB
yjELMAkGA1UEBhMCVVMxFzAVBgNVBAoTDlZlcmlTaWduLCBJbmMuMR8wHQYDVQQL
ExZWZXJpU2lnbiBUcnVzdCBOZXR3b3JrMTowOAYDVQQLEzEoYykgMjAwNiBWZXJp
U2lnbiwgSW5jLiAtIEZvciBhdXRob3JpemVkIHVzZSBvbmx5MUUwQwYDVQQDEzxW
ZXJpU2lnbiBDbGFzcyAzIFB1YmxpYyBQcmltYXJ5IENlcnRpZmljYXRpb24gQXV0
aG9yaXR5IC0gRzUwHhcNMTAwMjA4MDAwMDAwWhcNMjAwMjA3MjM1OTU5WjCBtDEL
MAkGA1UEBhMCVVMxFzAVBgNVBAoTDlZlcmlTaWduLCBJbmMuMR8wHQYDVQQLExZW
ZXJpU2lnbiBUcnVzdCBOZXR3b3JrMTswOQYDVQQLEzJUZXJtcyBvZiB1c2UgYXQg
aHR0cHM6Ly93d3cudmVyaXNpZ24uY29tL3JwYSAoYykxMDEuMCwGA1UEAxMlVmVy
aVNpZ24gQ2xhc3MgMyBDb2RlIFNpZ25pbmcgMjAxMCBDQTCCASIwDQYJKoZIhvcN
AQEBBQADggEPADCCAQoCggEBAPUjS16l14q7MunUV/fv5Mcmfq0ZmP6onX2U9jZr
ENd1gTB/BGh/yyt1Hs0dCIzfaZSnN6Oce4DgmeHuN01fzjsU7obU0PUnNbwlCzin
jGOdF6MIpauw+81qYoJM1SHaG9nx44Q7iipPhVuQAU/Jp3YQfycDfL6ufn3B3fkF
vBtInGnnwKQ8PEEAPt+W5cXklHHWVQHHACZKQDy1oSapDKdtgI6QJXvPvz8c6y+W
+uWHd8a1VrJ6O1QwUxvfYjT/HtH0WpMoheVMF05+W/2kk5l/383vpHXv7xX2R+f4
GXLYLjQaprSnTH69u08MPVfxMNamNo7WgHbXGS6lzX40LYkCAwEAAaOCAf4wggH6
MBIGA1UdEwEB/wQIMAYBAf8CAQAwcAYDVR0gBGkwZzBlBgtghkgBhvhFAQcXAzBW
MCgGCCsGAQUFBwIBFhxodHRwczovL3d3dy52ZXJpc2lnbi5jb20vY3BzMCoGCCsG
AQUFBwICMB4aHGh0dHBzOi8vd3d3LnZlcmlzaWduLmNvbS9ycGEwDgYDVR0PAQH/
BAQDAgEGMG0GCCsGAQUFBwEMBGEwX6FdoFswWTBXMFUWCWltYWdlL2dpZjAhMB8w
BwYFKw4DAhoEFI/l0xqGrI2Oa8PPgGrUSBgsexkuMCUWI2h0dHA6Ly9sb2dvLnZl
cmlzaWduLmNvbS92c2xvZ28uZ2lmMDQGA1UdHwQtMCswKaAnoCWGI2h0dHA6Ly9j
cmwudmVyaXNpZ24uY29tL3BjYTMtZzUuY3JsMDQGCCsGAQUFBwEBBCgwJjAkBggr
BgEFBQcwAYYYaHR0cDovL29jc3AudmVyaXNpZ24uY29tMB0GA1UdJQQWMBQGCCsG
AQUFBwMCBggrBgEFBQcDAzAoBgNVHREEITAfpB0wGzEZMBcGA1UEAxMQVmVyaVNp
Z25NUEtJLTItODAdBgNVHQ4EFgQUz5mp6nsm9EvJjo/X8AUm7+PSp50wHwYDVR0j
BBgwFoAUf9Nlp8Ld7LvwMAnzQzn6Aq8zMTMwDQYJKoZIhvcNAQEFBQADggEBAFYi
5jSkxGHLSLkBrVaoZA/ZjJHEu8wM5a16oCJ/30c4Si1s0X9xGnzscKmx8E/kDwxT
+hVe/nSYSSSFgSYckRRHsExjjLuhNNTGRegNhSZzA9CpjGRt3HGS5kUFYBVZUTn8
WBRr/tSk7XlrCAxBcuc3IgYJviPpP0SaHulhncyxkFz8PdKNrEI9ZTbUtD1AKI+b
EM8jJsxLIMuQH12MTDTKPNjlN9ZvpSC9NOsm2a4N58Wa96G0IZEzb4boWLslfHQO
WP51G2M/zjF8m48blp7FU3aEW5ytkfqs7ZO6XcghU8KCU2OvEg1QhxEbPVRSloos
nD2SGgiaBS7Hk6VIkdM=
-----END CERTIFICATE-----

