Certificate:
    Data:
        Version: 3 (0x2)
        Serial Number:
            7e:93:eb:fb:7c:c6:4e:59:ea:4b:9a:77:d4:06:fc:3b
    Signature Algorithm: sha1WithRSAEncryption
        Issuer: C=ZA, ST=Western Cape, L=Durbanville, O=Thawte, OU=Thawte Certification, CN=Thawte Timestamping CA
        Validity
            Not Before: Dec 21 00:00:00 2012 GMT
            Not After : Dec 30 23:59:59 2020 GMT
        Subject: C=US, O=Symantec Corporation, CN=Symantec Time Stamping Services CA - G2
        Subject Public Key Info:
            Public Key Algorithm: rsaEncryption
                Public-Key: (2048 bit)
                Modulus:
                    00:b1:ac:b3:49:54:4b:97:1c:12:0a:d8:25:79:91:
                    22:57:2a:6f:dc:b8:26:c4:43:73:6b:c2:bf:2e:50:
                    5a:fb:14:c2:76:8e:43:01:25:43:b4:a1:e2:45:f4:
                    e8:b7:7b:c3:74:cc:22:d7:b4:94:00:02:f7:4d:ed:
                    bf:b4:b7:44:24:6b:cd:5f:45:3b:d1:44:ce:43:12:
                    73:17:82:8b:69:b4:2b:cb:99:1e:ac:72:1b:26:4d:
                    71:1f:b1:31:dd:fb:51:61:02:53:a6:aa:f5:49:2c:
                    05:78:45:a5:2f:89:ce:e7:99:e7:fe:8c:e2:57:3f:
                    3d:c6:92:dc:4a:f8:7b:33:e4:79:0a:fb:f0:75:88:
                    41:9c:ff:c5:03:51:99:aa:d7:6c:9f:93:69:87:65:
                    29:83:85:c2:60:14:c4:c8:c9:3b:14:da:c0:81:f0:
                    1f:0d:74:de:92:22:ab:ca:f7:fb:74:7c:27:e6:f7:
                    4a:1b:7f:a7:c3:9e:2d:ae:8a:ea:a6:e6:aa:27:16:
                    7d:61:f7:98:71:11:bc:e2:50:a1:4b:e5:5d:fa:e5:
                    0e:a7:2c:9f:aa:65:20:d3:d8:96:e8:c8:7c:a5:4e:
                    48:44:ff:19:e2:44:07:92:0b:d7:68:84:80:5d:6a:
                    78:64:45:cd:60:46:7e:54:c1:13:7c:c5:79:f1:c9:
                    c1:71
                Exponent: 65537 (0x10001)
        X509v3 extensions:
            X509v3 Subject Key Identifier: 
                5F:9A:F5:6E:5C:CC:CC:74:9A:D4:DD:7D:EF:3F:DB:EC:4C:80:2E:DD
            Authority Information Access: 
                OCSP - URI:http://ocsp.thawte.com

            X509v3 Basic Constraints: critical
                CA:TRUE, pathlen:0
            X509v3 CRL Distribution Points: 

                Full Name:
                  URI:http://crl.thawte.com/ThawteTimestampingCA.crl

            X509v3 Extended Key Usage: 
                Time Stamping
            X509v3 Key Usage: critical
                Certificate Sign, CRL Sign
            X509v3 Subject Alternative Name: 
                DirName:/CN=TimeStamp-2048-1
    Signature Algorithm: sha1WithRSAEncryption
         03:09:9b:8f:79:ef:7f:59:30:aa:ef:68:b5:fa:e3:09:1d:bb:
         4f:82:06:5d:37:5f:a6:52:9f:16:8d:ea:1c:92:09:44:6e:f5:
         6d:eb:58:7c:30:e8:f9:69:8d:23:73:0b:12:6f:47:a9:ae:39:
         11:f8:2a:b1:9b:b0:1a:c3:8e:eb:59:96:00:ad:ce:0c:4d:b2:
         d0:31:a6:08:5c:2a:7a:fc:e2:7a:1d:57:4c:a8:65:18:e9:79:
         40:62:25:96:6e:c7:c7:37:6a:83:21:08:8e:41:ea:dd:d9:57:
         3f:1d:77:49:87:2a:16:06:5e:a6:38:6a:22:12:a3:51:19:83:
         7e:b6
-----BEGIN CERTIFICATE-----
MIID7jCCA1egAwIBAgIQfpPr+3zGTlnqS5p31Ab8OzANBgkqhkiG9w0BAQUFADCB
izELMAkGA1UEBhMCWkExFTATBgNVBAgTDFdlc3Rlcm4gQ2FwZTEUMBIGA1UEBxML
RHVyYmFudmlsbGUxDzANBgNVBAoTBlRoYXd0ZTEdMBsGA1UECxMUVGhhd3RlIENl
cnRpZmljYXRpb24xHzAdBgNVBAMTFlRoYXd0ZSBUaW1lc3RhbXBpbmcgQ0EwHhcN
MTIxMjIxMDAwMDAwWhcNMjAxMjMwMjM1OTU5WjBeMQswCQYDVQQGEwJVUzEdMBsG
A1UEChMUU3ltYW50ZWMgQ29ycG9yYXRpb24xMDAuBgNVBAMTJ1N5bWFudGVjIFRp
bWUgU3RhbXBpbmcgU2VydmljZXMgQ0EgLSBHMjCCASIwDQYJKoZIhvcNAQEBBQAD
ggEPADCCAQoCggEBALGss0lUS5ccEgrYJXmRIlcqb9y4JsRDc2vCvy5QWvsUwnaO
QwElQ7Sh4kX06Ld7w3TMIte0lAAC903tv7S3RCRrzV9FO9FEzkMScxeCi2m0K8uZ
HqxyGyZNcR+xMd37UWECU6aq9UksBXhFpS+JzueZ5/6M4lc/PcaS3Er4ezPkeQr7
8HWIQZz/xQNRmarXbJ+TaYdlKYOFwmAUxMjJOxTawIHwHw103pIiq8r3+3R8J+b3
Sht/p8OeLa6K6qbmqicWfWH3mHERvOJQoUvlXfrlDqcsn6plINPYlujIfKVOSET/
GeJEB5IL12iEgF1qeGRFzWBGflTBE3zFefHJwXECAwEAAaOB+jCB9zAdBgNVHQ4E
FgQUX5r1blzMzHSa1N197z/b7EyALt0wMgYIKwYBBQUHAQEEJjAkMCIGCCsGAQUF
BzABhhZodHRwOi8vb2NzcC50aGF3dGUuY29tMBIGA1UdEwEB/wQIMAYBAf8CAQAw
PwYDVR0fBDgwNjA0oDKgMIYuaHR0cDovL2NybC50aGF3dGUuY29tL1RoYXd0ZVRp
bWVzdGFtcGluZ0NBLmNybDATBgNVHSUEDDAKBggrBgEFBQcDCDAOBgNVHQ8BAf8E
BAMCAQYwKAYDVR0RBCEwH6QdMBsxGTAXBgNVBAMTEFRpbWVTdGFtcC0yMDQ4LTEw
DQYJKoZIhvcNAQEFBQADgYEAAwmbj3nvf1kwqu9otfrjCR27T4IGXTdfplKfFo3q
HJIJRG71betYfDDo+WmNI3MLEm9Hqa45EfgqsZuwGsOO61mWAK3ODE2y0DGmCFwq
evzieh1XTKhlGOl5QGIllm7HxzdqgyEIjkHq3dlXPx13SYcqFgZepjhqIhKjURmD
frY=
-----END CERTIFICATE-----

Certificate:
    Data:
        Version: 3 (0x2)
        Serial Number:
            0e:cf:f4:38:c8:fe:bf:35:6e:04:d8:6a:98:1b:1a:50
    Signature Algorithm: sha1WithRSAEncryption
        Issuer: C=US, O=Symantec Corporation, CN=Symantec Time Stamping Services CA - G2
        Validity
            Not Before: Oct 18 00:00:00 2012 GMT
            Not After : Dec 29 23:59:59 2020 GMT
        Subject: C=US, O=Symantec Corporation, CN=Symantec Time Stamping Services Signer - G4
        Subject Public Key Info:
            Public Key Algorithm: rsaEncryption
                Public-Key: (2048 bit)
                Modulus:
                    00:a2:63:0b:39:44:b8:bb:23:a7:44:49:bb:0e:ff:
                    a1:f0:61:0a:53:93:b0:98:db:ad:2c:0f:4a:c5:6e:
                    ff:86:3c:53:55:0f:15:ce:04:3f:2b:fd:a9:96:96:
                    d9:be:61:79:0b:5b:c9:4c:86:76:e5:e0:43:4b:22:
                    95:ee:c2:2b:43:c1:9f:d8:68:b4:8e:40:4f:ee:85:
                    38:b9:11:c5:23:f2:64:58:f0:15:32:6f:4e:57:a1:
                    ae:88:a4:02:d7:2a:1e:cd:4b:e1:dd:63:d5:17:89:
                    32:5b:b0:5e:99:5a:a8:9d:28:50:0e:17:ee:96:db:
                    61:3b:45:51:1d:cf:12:56:0b:92:47:fc:ab:ae:f6:
                    66:3d:47:ac:70:72:e7:92:e7:5f:cd:10:b9:c4:83:
                    64:94:19:bd:25:80:e1:e8:d2:22:a5:d0:ba:02:7a:
                    a1:77:93:5b:65:c3:ee:17:74:bc:41:86:2a:dc:08:
                    4c:8c:92:8c:91:2d:9e:77:44:1f:68:d6:a8:74:77:
                    db:0e:5b:32:8b:56:8b:33:bd:d9:63:c8:49:9d:3a:
                    c5:c5:ea:33:0b:d2:f1:a3:1b:f4:8b:be:d9:b3:57:
                    8b:3b:de:04:a7:7a:22:b2:24:ae:2e:c7:70:c5:be:
                    4e:83:26:08:fb:0b:bd:a9:4f:99:08:e1:10:28:72:
                    aa:cd
                Exponent: 65537 (0x10001)
        X509v3 extensions:
            X509v3 Basic Constraints: critical
                CA:FALSE
            X509v3 Extended Key Usage: critical
                Time Stamping
            X509v3 Key Usage: critical
                Digital Signature
            Authority Information Access: 
                OCSP - URI:http://ts-ocsp.ws.symantec.com
                CA Issuers - URI:http://ts-aia.ws.symantec.com/tss-ca-g2.cer

            X509v3 CRL Distribution Points: 

                Full Name:
                  URI:http://ts-crl.ws.symantec.com/tss-ca-g2.crl

            X509v3 Subject Alternative Name: 
                DirName:/CN=TimeStamp-2048-2
            X509v3 Subject Key Identifier: 
                46:C6:69:A3:0E:4A:14:1E:D5:4C:DA:52:63:17:3F:5E:36:BC:0D:E6
            X509v3 Authority Key Identifier: 
                keyid:5F:9A:F5:6E:5C:CC:CC:74:9A:D4:DD:7D:EF:3F:DB:EC:4C:80:2E:DD

    Signature Algorithm: sha1WithRSAEncryption
         78:3b:b4:91:2a:00:4c:f0:8f:62:30:37:78:a3:84:27:07:6f:
         18:b2:de:25:dc:a0:d4:94:03:aa:86:4e:25:9f:9a:40:03:1c:
         dd:ce:e3:79:cb:21:68:06:da:b6:32:b4:6d:bf:f4:2c:26:63:
         33:e4:49:64:6d:0d:e6:c3:67:0e:f7:05:a4:35:6c:7c:89:16:
         c6:e9:b2:df:b2:e9:dd:20:c6:71:0f:cd:95:74:dc:b6:5c:de:
         bd:37:1f:43:78:e6:78:b5:cd:28:04:20:a3:aa:f1:4b:c4:88:
         29:91:0e:80:d1:11:fc:dd:5c:76:6e:4f:5e:0e:45:46:41:6e:
         0d:b0:ea:38:9a:b1:3a:da:09:71:10:fc:1c:79:b4:80:7b:ac:
         69:f4:fd:9c:b6:0c:16:2b:f1:7f:5b:09:3d:9b:5b:e2:16:ca:
         13:81:6d:00:2e:38:0d:a8:29:8f:2c:e1:b2:f4:5a:a9:01:af:
         15:9c:2c:2f:49:1b:db:22:bb:c3:fe:78:94:51:c3:86:b1:82:
         88:5d:f0:3d:b4:51:a1:79:33:2b:2e:7b:b9:dc:20:09:13:71:
         eb:6a:19:5b:cf:e8:a5:30:57:2c:89:49:3f:b9:cf:7f:c9:bf:
         3e:22:68:63:53:9a:bd:69:74:ac:c5:1d:3c:7f:92:e0:c3:bc:
         1c:d8:04:75
-----BEGIN CERTIFICATE-----
MIIEozCCA4ugAwIBAgIQDs/0OMj+vzVuBNhqmBsaUDANBgkqhkiG9w0BAQUFADBe
MQswCQYDVQQGEwJVUzEdMBsGA1UEChMUU3ltYW50ZWMgQ29ycG9yYXRpb24xMDAu
BgNVBAMTJ1N5bWFudGVjIFRpbWUgU3RhbXBpbmcgU2VydmljZXMgQ0EgLSBHMjAe
Fw0xMjEwMTgwMDAwMDBaFw0yMDEyMjkyMzU5NTlaMGIxCzAJBgNVBAYTAlVTMR0w
GwYDVQQKExRTeW1hbnRlYyBDb3Jwb3JhdGlvbjE0MDIGA1UEAxMrU3ltYW50ZWMg
VGltZSBTdGFtcGluZyBTZXJ2aWNlcyBTaWduZXIgLSBHNDCCASIwDQYJKoZIhvcN
AQEBBQADggEPADCCAQoCggEBAKJjCzlEuLsjp0RJuw7/ofBhClOTsJjbrSwPSsVu
/4Y8U1UPFc4EPyv9qZaW2b5heQtbyUyGduXgQ0sile7CK0PBn9hotI5AT+6FOLkR
xSPyZFjwFTJvTlehroikAtcqHs1L4d1j1ReJMluwXplaqJ0oUA4X7pbbYTtFUR3P
ElYLkkf8q672Zj1HrHBy55LnX80QucSDZJQZvSWA4ejSIqXQugJ6oXeTW2XD7hd0
vEGGKtwITIySjJEtnndEH2jWqHR32w5bMotWizO92WPISZ06xcXqMwvS8aMb9Iu+
2bNXizveBKd6IrIkri7HcMW+ToMmCPsLvalPmQjhEChyqs0CAwEAAaOCAVcwggFT
MAwGA1UdEwEB/wQCMAAwFgYDVR0lAQH/BAwwCgYIKwYBBQUHAwgwDgYDVR0PAQH/
BAQDAgeAMHMGCCsGAQUFBwEBBGcwZTAqBggrBgEFBQcwAYYeaHR0cDovL3RzLW9j
c3Aud3Muc3ltYW50ZWMuY29tMDcGCCsGAQUFBzAChitodHRwOi8vdHMtYWlhLndz
LnN5bWFudGVjLmNvbS90c3MtY2EtZzIuY2VyMDwGA1UdHwQ1MDMwMaAvoC2GK2h0
dHA6Ly90cy1jcmwud3Muc3ltYW50ZWMuY29tL3Rzcy1jYS1nMi5jcmwwKAYDVR0R
BCEwH6QdMBsxGTAXBgNVBAMTEFRpbWVTdGFtcC0yMDQ4LTIwHQYDVR0OBBYEFEbG
aaMOShQe1UzaUmMXP142vA3mMB8GA1UdIwQYMBaAFF+a9W5czMx0mtTdfe8/2+xM
gC7dMA0GCSqGSIb3DQEBBQUAA4IBAQB4O7SRKgBM8I9iMDd4o4QnB28Yst4l3KDU
lAOqhk4ln5pAAxzdzuN5yyFoBtq2MrRtv/QsJmMz5ElkbQ3mw2cO9wWkNWx8iRbG
6bLfsundIMZxD82VdNy2XN69Nx9DeOZ4tc0oBCCjqvFLxIgpkQ6A0RH83Vx2bk9e
DkVGQW4NsOo4mrE62glxEPwcebSAe6xp9P2ctgwWK/F/Wwk9m1viFsoTgW0ALjgN
qCmPLOGy9FqpAa8VnCwvSRvbIrvD/niUUcOGsYKIXfA9tFGheTMrLnu53CAJE3Hr
ahlbz+ilMFcsiUk/uc9/yb8+ImhjU5q9aXSsxR08f5Lgw7wc2AR1
-----END CERTIFICATE-----

Certificate:
    Data:
        Version: 3 (0x2)
        Serial Number:
            10:70:9d:4f:f5:54:08:d7:30:60:01:d8:ea:91:75:bb
    Signature Algorithm: sha1WithRSAEncryption
        Issuer: C=US, ST=UT, L=Salt Lake City, O=The USERTRUST Network, OU=http://www.usertrust.com, CN=UTN-USERFirst-Object
        Validity
            Not Before: Aug 24 00:00:00 2011 GMT
            Not After : May 30 10:48:38 2020 GMT
        Subject: C=GB, ST=Greater Manchester, L=Salford, O=COMODO CA Limited, CN=COMODO Code Signing CA 2
        Subject Public Key Info:
            Public Key Algorithm: rsaEncryption
                Public-Key: (2048 bit)
                Modulus:
                    00:cb:f8:e7:a7:e8:f1:97:28:40:68:80:37:d2:c8:
                    3f:8e:92:8a:92:37:87:47:80:ea:4c:99:cf:6e:f9:
                    15:47:bd:ee:75:f4:44:ac:d0:c3:d4:4d:f7:19:c0:
                    d3:3c:4d:c1:47:b9:59:65:16:93:8c:d9:0a:84:9b:
                    9f:e8:f6:6a:63:58:fe:5f:dc:d1:7f:4b:51:9f:00:
                    1c:00:87:54:20:07:57:a0:82:c9:2f:98:af:33:8a:
                    bb:7b:80:22:25:6a:6c:af:c2:2c:6c:79:13:bd:a3:
                    2a:48:d6:b5:8e:61:55:e9:6b:e8:3d:80:bf:14:03:
                    85:18:8e:7e:4c:e9:c2:19:88:73:92:72:cd:fa:ff:
                    50:4d:cb:2c:a6:7b:1a:73:b1:00:90:2c:d9:32:e2:
                    fb:fd:ac:95:42:36:ec:34:c5:13:53:68:b2:c1:9f:
                    40:9f:da:7b:c8:9d:62:6c:93:a2:42:d7:79:9f:97:
                    4f:31:5b:50:21:a1:ab:af:d9:1c:b2:ce:75:be:5b:
                    2c:56:00:24:8d:11:c1:75:1f:f0:fe:d2:95:fe:f0:
                    e1:31:23:18:67:c0:5b:13:fd:5a:98:94:94:ff:ff:
                    59:02:1f:00:ac:e6:f1:f2:fa:3a:73:b3:1d:42:fc:
                    54:75:cf:51:31:2f:e3:db:81:d9:77:23:2a:4f:59:
                    ce:23
                Exponent: 65537 (0x10001)
        X509v3 extensions:
            X509v3 Authority Key Identifier: 
                keyid:DA:ED:64:74:14:9C:14:3C:AB:DD:99:A9:BD:5B:28:4D:8B:3C:C9:D8

            X509v3 Subject Key Identifier: 
                1E:C5:B1:2C:7D:87:DA:02:68:7C:25:BC:0C:07:84:3F:B6:CF:DE:F1
            X509v3 Key Usage: critical
                Certificate Sign, CRL Sign
            X509v3 Basic Constraints: critical
                CA:TRUE, pathlen:0
            X509v3 Extended Key Usage: 
                Code Signing
            X509v3 Certificate Policies: 
                Policy: X509v3 Any Policy

            X509v3 CRL Distribution Points: 

                Full Name:
                  URI:http://crl.usertrust.com/UTN-USERFirst-Object.crl

            Authority Information Access: 
                CA Issuers - URI:http://crt.usertrust.com/UTNAddTrustObject_CA.crt
                OCSP - URI:http://ocsp.usertrust.com

    Signature Algorithm: sha1WithRSAEncryption
         95:89:77:93:68:01:5e:7c:d9:2d:37:07:90:5d:5a:42:5e:0c:
         64:b4:36:b5:0f:f6:ab:d5:39:27:de:22:46:a4:49:1c:66:4b:
         46:19:59:2e:79:49:03:f6:9c:92:df:6d:50:35:5c:0c:91:2e:
         60:03:59:d0:f1:64:f7:69:09:f6:7e:fe:eb:34:b3:6d:b1:bf:
         66:9c:a3:ba:31:78:b9:87:35:61:3d:92:31:1b:ef:f4:e8:9e:
         d6:ac:45:fa:0c:36:3c:80:67:bb:bd:ef:2e:c2:90:e1:3d:71:
         2f:3b:c1:b0:58:7e:45:c3:52:71:03:07:f6:f3:39:4d:8b:36:
         21:1b:01:df:d9:da:5e:2b:eb:0e:97:80:1e:44:1c:50:88:f5:
         c6:12:33:4a:a8:4d:a5:8d:2f:94:0c:7b:c6:bf:9a:2c:c3:32:
         cd:bd:8c:27:26:f0:e1:30:03:50:06:82:bc:f4:3b:b3:83:75:
         06:c6:ef:ba:ee:d3:80:f8:52:c6:ac:cb:79:f2:38:9e:7b:b0:
         92:58:42:91:05:c8:96:21:ad:b9:4b:16:81:14:69:f1:37:b0:
         fe:34:f7:dc:b0:df:97:f5:43:10:9b:76:8f:b4:65:f5:e8:9f:
         13:b7:1e:ac:6f:c4:69:8a:5f:ba:3c:61:7e:5e:49:86:23:13:
         2e:af:15:48
-----BEGIN CERTIFICATE-----
MIIE5zCCA8+gAwIBAgIQEHCdT/VUCNcwYAHY6pF1uzANBgkqhkiG9w0BAQUFADCB
lTELMAkGA1UEBhMCVVMxCzAJBgNVBAgTAlVUMRcwFQYDVQQHEw5TYWx0IExha2Ug
Q2l0eTEeMBwGA1UEChMVVGhlIFVTRVJUUlVTVCBOZXR3b3JrMSEwHwYDVQQLExho
dHRwOi8vd3d3LnVzZXJ0cnVzdC5jb20xHTAbBgNVBAMTFFVUTi1VU0VSRmlyc3Qt
T2JqZWN0MB4XDTExMDgyNDAwMDAwMFoXDTIwMDUzMDEwNDgzOFowezELMAkGA1UE
BhMCR0IxGzAZBgNVBAgTEkdyZWF0ZXIgTWFuY2hlc3RlcjEQMA4GA1UEBxMHU2Fs
Zm9yZDEaMBgGA1UEChMRQ09NT0RPIENBIExpbWl0ZWQxITAfBgNVBAMTGENPTU9E
TyBDb2RlIFNpZ25pbmcgQ0EgMjCCASIwDQYJKoZIhvcNAQEBBQADggEPADCCAQoC
ggEBAMv456fo8ZcoQGiAN9LIP46SipI3h0eA6kyZz275FUe97nX0RKzQw9RN9xnA
0zxNwUe5WWUWk4zZCoSbn+j2amNY/l/c0X9LUZ8AHACHVCAHV6CCyS+YrzOKu3uA
IiVqbK/CLGx5E72jKkjWtY5hVelr6D2AvxQDhRiOfkzpwhmIc5Jyzfr/UE3LLKZ7
GnOxAJAs2TLi+/2slUI27DTFE1NossGfQJ/ae8idYmyTokLXeZ+XTzFbUCGhq6/Z
HLLOdb5bLFYAJI0RwXUf8P7Slf7w4TEjGGfAWxP9WpiUlP//WQIfAKzm8fL6OnOz
HUL8VHXPUTEv49uB2XcjKk9ZziMCAwEAAaOCAUowggFGMB8GA1UdIwQYMBaAFNrt
ZHQUnBQ8q92Zqb1bKE2LPMnYMB0GA1UdDgQWBBQexbEsfYfaAmh8JbwMB4Q/ts/e
8TAOBgNVHQ8BAf8EBAMCAQYwEgYDVR0TAQH/BAgwBgEB/wIBADATBgNVHSUEDDAK
BggrBgEFBQcDAzARBgNVHSAECjAIMAYGBFUdIAAwQgYDVR0fBDswOTA3oDWgM4Yx
aHR0cDovL2NybC51c2VydHJ1c3QuY29tL1VUTi1VU0VSRmlyc3QtT2JqZWN0LmNy
bDB0BggrBgEFBQcBAQRoMGYwPQYIKwYBBQUHMAKGMWh0dHA6Ly9jcnQudXNlcnRy
dXN0LmNvbS9VVE5BZGRUcnVzdE9iamVjdF9DQS5jcnQwJQYIKwYBBQUHMAGGGWh0
dHA6Ly9vY3NwLnVzZXJ0cnVzdC5jb20wDQYJKoZIhvcNAQEFBQADggEBAJWJd5No
AV582S03B5BdWkJeDGS0NrUP9qvVOSfeIkakSRxmS0YZWS55SQP2nJLfbVA1XAyR
LmADWdDxZPdpCfZ+/us0s22xv2aco7oxeLmHNWE9kjEb7/TontasRfoMNjyAZ7u9
7y7CkOE9cS87wbBYfkXDUnEDB/bzOU2LNiEbAd/Z2l4r6w6XgB5EHFCI9cYSM0qo
TaWNL5QMe8a/mizDMs29jCcm8OEwA1AGgrz0O7ODdQbG77ru04D4Usasy3nyOJ57
sJJYQpEFyJYhrblLFoEUafE3sP4099yw35f1QxCbdo+0ZfXonxO3HqxvxGmKX7o8
YX5eSYYjEy6vFUg=
-----END CERTIFICATE-----

Certificate:
    Data:
        Version: 3 (0x2)
        Serial Number:
            31:8a:d3:de:59:c5:1f:92:67:cf:60:af:0b:64:52:35
    Signature Algorithm: sha1WithRSAEncryption
        Issuer: C=GB, ST=Greater Manchester, L=Salford, O=COMODO CA Limited, CN=COMODO Code Signing CA 2
        Validity
            Not Before: Mar 25 00:00:00 2014 GMT
            Not After : Mar 25 23:59:59 2019 GMT
        Subject: C=RU/postalCode=347900, ST=RD, L=Taganrog/street=P.Tolyatti 22/3 ap.43, O=ADVSoft (Ch. P. D. Alferev), CN=ADVSoft (Ch. P. D. Alferev)
        Subject Public Key Info:
            Public Key Algorithm: rsaEncryption
                Public-Key: (2048 bit)
                Modulus:
                    00:d6:27:cd:8c:62:22:98:6e:e9:2a:1b:29:67:8d:
                    d1:c0:a5:90:ff:13:3b:91:47:43:34:7d:ec:fa:fe:
                    b7:d7:ad:cd:4b:db:25:27:98:e6:6a:1b:06:eb:e7:
                    08:9c:a9:dc:3f:d5:38:7f:b8:93:96:8a:f3:0e:aa:
                    09:ea:60:c7:9f:89:d1:13:56:db:00:87:f7:18:5b:
                    df:32:b2:75:70:7d:25:e9:cb:b6:41:c3:67:30:00:
                    a6:01:e0:d6:d6:02:71:42:4c:45:2b:e3:76:4b:bf:
                    14:cc:86:f1:37:29:3a:da:75:33:28:0c:00:4f:c0:
                    69:26:63:3a:f2:7f:d0:c6:f4:6c:4b:85:de:16:43:
                    d9:6e:99:84:1c:d5:95:5f:af:02:c7:3a:5d:de:e5:
                    9d:90:b9:a9:61:fe:97:60:0b:de:77:37:ce:5d:34:
                    8a:1a:0a:56:2e:46:8d:ce:04:49:f0:17:7b:8d:8f:
                    67:66:00:82:47:4e:e8:2d:46:9a:3b:0e:ed:90:2b:
                    1f:fe:37:4d:ae:77:d2:69:c6:42:e7:01:80:55:66:
                    f1:a2:2f:00:4f:86:e9:6a:60:d1:12:3e:ac:20:78:
                    0a:50:1b:39:5d:b5:e8:03:95:e2:6e:d0:c8:86:f9:
                    17:73:19:68:8f:b0:a6:13:d4:f1:22:2c:2b:df:bc:
                    a0:29
                Exponent: 65537 (0x10001)
        X509v3 extensions:
            X509v3 Authority Key Identifier: 
                keyid:1E:C5:B1:2C:7D:87:DA:02:68:7C:25:BC:0C:07:84:3F:B6:CF:DE:F1

            X509v3 Subject Key Identifier: 
                09:3C:F4:A7:B0:CA:6C:A3:B7:06:23:D0:7F:3D:07:11:7E:01:BF:6D
            X509v3 Key Usage: critical
                Digital Signature
            X509v3 Basic Constraints: critical
                CA:FALSE
            X509v3 Extended Key Usage: 
                Code Signing
            Netscape Cert Type: 
                Object Signing
            X509v3 Certificate Policies: 
                Policy: 1.3.6.1.4.1.6449.1.2.1.3.2
                  CPS: https://secure.comodo.net/CPS

            X509v3 CRL Distribution Points: 

                Full Name:
                  URI:http://crl.comodoca.com/COMODOCodeSigningCA2.crl

            Authority Information Access: 
                CA Issuers - URI:http://crt.comodoca.com/COMODOCodeSigningCA2.crt
                OCSP - URI:http://ocsp.comodoca.com

            X509v3 Subject Alternative Name: 
                email:info@advsoft.info
    Signature Algorithm: sha1WithRSAEncryption
         27:c2:79:e8:20:79:ea:8c:e2:e9:44:f9:52:8f:30:d5:95:96:
         64:3f:fc:23:6c:71:18:f0:4e:38:e4:af:bc:16:4c:b4:0f:83:
         81:2f:73:b6:7a:45:d6:36:e8:d1:fd:f5:cb:07:f5:30:2d:4f:
         a6:f5:0e:4b:85:2d:fb:11:5a:32:2b:4e:5f:2c:00:f2:b7:44:
         87:25:a4:eb:bc:4b:6c:a5:69:af:fd:f9:ae:46:93:15:b8:00:
         3b:42:38:e6:57:67:24:93:5e:a8:da:a5:c9:0b:0c:13:8d:e0:
         29:36:fe:57:a1:46:29:0d:70:0c:95:4f:11:84:9f:a3:02:c3:
         89:05:50:95:f3:35:f6:11:0d:d2:26:e9:a8:a0:8b:e2:06:fd:
         ee:ee:6b:8e:08:65:56:65:a8:de:41:e8:69:37:c1:50:b0:56:
         ad:24:bb:4a:0a:cb:0f:59:fd:1c:aa:ea:fa:d0:54:7c:c9:ad:
         ac:f9:b0:66:88:7b:1c:1d:db:2d:ec:99:6a:52:b1:fd:01:47:
         b8:3c:73:5e:2a:8d:ba:26:e7:f7:eb:2f:e6:0a:53:4b:63:7c:
         47:17:8f:cd:ad:4c:8e:8c:ed:7e:9b:61:83:c6:69:23:3b:4d:
         ae:96:46:c8:a7:72:01:bd:df:22:66:84:af:f3:83:79:db:2f:
         f0:3a:62:26
-----BEGIN CERTIFICATE-----
MIIFWTCCBEGgAwIBAgIQMYrT3lnFH5Jnz2CvC2RSNTANBgkqhkiG9w0BAQUFADB7
MQswCQYDVQQGEwJHQjEbMBkGA1UECBMSR3JlYXRlciBNYW5jaGVzdGVyMRAwDgYD
VQQHEwdTYWxmb3JkMRowGAYDVQQKExFDT01PRE8gQ0EgTGltaXRlZDEhMB8GA1UE
AxMYQ09NT0RPIENvZGUgU2lnbmluZyBDQSAyMB4XDTE0MDMyNTAwMDAwMFoXDTE5
MDMyNTIzNTk1OVowgaoxCzAJBgNVBAYTAlJVMQ8wDQYDVQQRDAYzNDc5MDAxCzAJ
BgNVBAgMAlJEMREwDwYDVQQHDAhUYWdhbnJvZzEeMBwGA1UECQwVUC5Ub2x5YXR0
aSAyMi8zIGFwLjQzMSQwIgYDVQQKDBtBRFZTb2Z0IChDaC4gUC4gRC4gQWxmZXJl
dikxJDAiBgNVBAMMG0FEVlNvZnQgKENoLiBQLiBELiBBbGZlcmV2KTCCASIwDQYJ
KoZIhvcNAQEBBQADggEPADCCAQoCggEBANYnzYxiIphu6SobKWeN0cClkP8TO5FH
QzR97Pr+t9etzUvbJSeY5mobBuvnCJyp3D/VOH+4k5aK8w6qCepgx5+J0RNW2wCH
9xhb3zKydXB9JenLtkHDZzAApgHg1tYCcUJMRSvjdku/FMyG8TcpOtp1MygMAE/A
aSZjOvJ/0Mb0bEuF3hZD2W6ZhBzVlV+vAsc6Xd7lnZC5qWH+l2AL3nc3zl00ihoK
Vi5Gjc4ESfAXe42PZ2YAgkdO6C1GmjsO7ZArH/43Ta530mnGQucBgFVm8aIvAE+G
6Wpg0RI+rCB4ClAbOV216AOV4m7QyIb5F3MZaI+wphPU8SIsK9+8oCkCAwEAAaOC
AacwggGjMB8GA1UdIwQYMBaAFB7FsSx9h9oCaHwlvAwHhD+2z97xMB0GA1UdDgQW
BBQJPPSnsMpso7cGI9B/PQcRfgG/bTAOBgNVHQ8BAf8EBAMCB4AwDAYDVR0TAQH/
BAIwADATBgNVHSUEDDAKBggrBgEFBQcDAzARBglghkgBhvhCAQEEBAMCBBAwRgYD
VR0gBD8wPTA7BgwrBgEEAbIxAQIBAwIwKzApBggrBgEFBQcCARYdaHR0cHM6Ly9z
ZWN1cmUuY29tb2RvLm5ldC9DUFMwQQYDVR0fBDowODA2oDSgMoYwaHR0cDovL2Ny
bC5jb21vZG9jYS5jb20vQ09NT0RPQ29kZVNpZ25pbmdDQTIuY3JsMHIGCCsGAQUF
BwEBBGYwZDA8BggrBgEFBQcwAoYwaHR0cDovL2NydC5jb21vZG9jYS5jb20vQ09N
T0RPQ29kZVNpZ25pbmdDQTIuY3J0MCQGCCsGAQUFBzABhhhodHRwOi8vb2NzcC5j
b21vZG9jYS5jb20wHAYDVR0RBBUwE4ERaW5mb0BhZHZzb2Z0LmluZm8wDQYJKoZI
hvcNAQEFBQADggEBACfCeeggeeqM4ulE+VKPMNWVlmQ//CNscRjwTjjkr7wWTLQP
g4Evc7Z6RdY26NH99csH9TAtT6b1DkuFLfsRWjIrTl8sAPK3RIclpOu8S2ylaa/9
+a5GkxW4ADtCOOZXZySTXqjapckLDBON4Ck2/lehRikNcAyVTxGEn6MCw4kFUJXz
NfYRDdIm6aigi+IG/e7ua44IZVZlqN5B6Gk3wVCwVq0ku0oKyw9Z/Ryq6vrQVHzJ
raz5sGaIexwd2y3smWpSsf0BR7g8c14qjbom5/frL+YKU0tjfEcXj82tTI6M7X6b
YYPGaSM7Ta6WRsincgG93yJmhK/zg3nbL/A6YiY=
-----END CERTIFICATE-----

