Certificate:
    Data:
        Version: 3 (0x2)
        Serial Number: 120019005 (0x727583d)
    Signature Algorithm: sha1WithRSAEncryption
        Issuer: C=US, O=GTE Corporation, OU=GTE CyberTrust Solutions, Inc., CN=GTE CyberTrust Global Root
        Validity
            Not Before: Jan 13 19:20:32 2010 GMT
            Not After : Sep 30 18:19:47 2015 GMT
        Subject: C=US, O=DigiCert Inc, OU=www.digicert.com, CN=DigiCert High Assurance EV Root CA
        Subject Public Key Info:
            Public Key Algorithm: rsaEncryption
                Public-Key: (2048 bit)
                Modulus:
                    00:c6:cc:e5:73:e6:fb:d4:bb:e5:2d:2d:32:a6:df:
                    e5:81:3f:c9:cd:25:49:b6:71:2a:c3:d5:94:34:67:
                    a2:0a:1c:b0:5f:69:a6:40:b1:c4:b7:b2:8f:d0:98:
                    a4:a9:41:59:3a:d3:dc:94:d6:3c:db:74:38:a4:4a:
                    cc:4d:25:82:f7:4a:a5:53:12:38:ee:f3:49:6d:71:
                    91:7e:63:b6:ab:a6:5f:c3:a4:84:f8:4f:62:51:be:
                    f8:c5:ec:db:38:92:e3:06:e5:08:91:0c:c4:28:41:
                    55:fb:cb:5a:89:15:7e:71:e8:35:bf:4d:72:09:3d:
                    be:3a:38:50:5b:77:31:1b:8d:b3:c7:24:45:9a:a7:
                    ac:6d:00:14:5a:04:b7:ba:13:eb:51:0a:98:41:41:
                    22:4e:65:61:87:81:41:50:a6:79:5c:89:de:19:4a:
                    57:d5:2e:e6:5d:1c:53:2c:7e:98:cd:1a:06:16:a4:
                    68:73:d0:34:04:13:5c:a1:71:d3:5a:7c:55:db:5e:
                    64:e1:37:87:30:56:04:e5:11:b4:29:80:12:f1:79:
                    39:88:a2:02:11:7c:27:66:b7:88:b7:78:f2:ca:0a:
                    a8:38:ab:0a:64:c2:bf:66:5d:95:84:c1:a1:25:1e:
                    87:5d:1a:50:0b:20:12:cc:41:bb:6e:0b:51:38:b8:
                    4b:cb
                Exponent: 65537 (0x10001)
        X509v3 extensions:
            X509v3 Basic Constraints: critical
                CA:TRUE, pathlen:1
            X509v3 Certificate Policies: 
                Policy: 1.3.6.1.4.1.6334.1.0
                  CPS: http://cybertrust.omniroot.com/repository.cfm

            X509v3 Key Usage: critical
                Certificate Sign, CRL Sign
            X509v3 Authority Key Identifier: 
                DirName:/C=US/O=GTE Corporation/OU=GTE CyberTrust Solutions, Inc./CN=GTE CyberTrust Global Root
                serial:01:A5

            X509v3 CRL Distribution Points: 

                Full Name:
                  URI:http://www.public-trust.com/cgi-bin/CRL/2018/cdp.crl

            X509v3 Subject Key Identifier: 
                B1:3E:C3:69:03:F8:BF:47:01:D4:98:26:1A:08:02:EF:63:64:2B:C3
    Signature Algorithm: sha1WithRSAEncryption
         2e:76:85:d9:37:96:6d:af:89:f3:06:78:82:31:c4:46:07:1f:
         65:c9:8e:b3:c9:54:78:e6:d1:42:df:75:2e:1e:55:ea:f7:fa:
         9b:04:c0:75:7b:d1:79:3c:05:ec:79:c4:52:dd:a6:03:d7:a7:
         50:99:3f:05:59:da:c6:55:f4:86:9c:0d:67:a3:49:04:95:32:
         1d:c7:87:ec:85:af:64:6e:d5:c5:5f:09:a7:40:7d:16:ba:49:
         0d:a2:fd:f6:df:55:30:6c:d7:78:c6:b9:cf:58:29:64:16:4c:
         a3:20:81:47:b1:44:92:84:16:1b:6f:4a:bc:21:c6:0a:3d:ed:
         33:ca
-----BEGIN CERTIFICATE-----
MIIETzCCA7igAwIBAgIEBydYPTANBgkqhkiG9w0BAQUFADB1MQswCQYDVQQGEwJV
UzEYMBYGA1UEChMPR1RFIENvcnBvcmF0aW9uMScwJQYDVQQLEx5HVEUgQ3liZXJU
cnVzdCBTb2x1dGlvbnMsIEluYy4xIzAhBgNVBAMTGkdURSBDeWJlclRydXN0IEds
b2JhbCBSb290MB4XDTEwMDExMzE5MjAzMloXDTE1MDkzMDE4MTk0N1owbDELMAkG
A1UEBhMCVVMxFTATBgNVBAoTDERpZ2lDZXJ0IEluYzEZMBcGA1UECxMQd3d3LmRp
Z2ljZXJ0LmNvbTErMCkGA1UEAxMiRGlnaUNlcnQgSGlnaCBBc3N1cmFuY2UgRVYg
Um9vdCBDQTCCASIwDQYJKoZIhvcNAQEBBQADggEPADCCAQoCggEBAMbM5XPm+9S7
5S0tMqbf5YE/yc0lSbZxKsPVlDRnogocsF9ppkCxxLeyj9CYpKlBWTrT3JTWPNt0
OKRKzE0lgvdKpVMSOO7zSW1xkX5jtqumX8OkhPhPYlG++MXs2ziS4wblCJEMxChB
VfvLWokVfnHoNb9Ncgk9vjo4UFt3MRuNs8ckRZqnrG0AFFoEt7oT61EKmEFBIk5l
YYeBQVCmeVyJ3hlKV9Uu5l0cUyx+mM0aBhakaHPQNAQTXKFx01p8VdteZOE3hzBW
BOURtCmAEvF5OYiiAhF8J2a3iLd48soKqDirCmTCv2ZdlYTBoSUeh10aUAsgEsxB
u24LUTi4S8sCAwEAAaOCAW8wggFrMBIGA1UdEwEB/wQIMAYBAf8CAQEwUwYDVR0g
BEwwSjBIBgkrBgEEAbE+AQAwOzA5BggrBgEFBQcCARYtaHR0cDovL2N5YmVydHJ1
c3Qub21uaXJvb3QuY29tL3JlcG9zaXRvcnkuY2ZtMA4GA1UdDwEB/wQEAwIBBjCB
iQYDVR0jBIGBMH+heaR3MHUxCzAJBgNVBAYTAlVTMRgwFgYDVQQKEw9HVEUgQ29y
cG9yYXRpb24xJzAlBgNVBAsTHkdURSBDeWJlclRydXN0IFNvbHV0aW9ucywgSW5j
LjEjMCEGA1UEAxMaR1RFIEN5YmVyVHJ1c3QgR2xvYmFsIFJvb3SCAgGlMEUGA1Ud
HwQ+MDwwOqA4oDaGNGh0dHA6Ly93d3cucHVibGljLXRydXN0LmNvbS9jZ2ktYmlu
L0NSTC8yMDE4L2NkcC5jcmwwHQYDVR0OBBYEFLE+w2kD+L9HAdSYJhoIAu9jZCvD
MA0GCSqGSIb3DQEBBQUAA4GBAC52hdk3lm2vifMGeIIxxEYHH2XJjrPJVHjm0ULf
dS4eVer3+psEwHV70Xk8Bex5xFLdpgPXp1CZPwVZ2sZV9IacDWejSQSVMh3Hh+yF
r2Ru1cVfCadAfRa6SQ2i/fbfVTBs13jGuc9YKWQWTKMggUexRJKEFhtvSrwhxgo9
7TPK
-----END CERTIFICATE-----

Certificate:
    Data:
        Version: 3 (0x2)
        Serial Number:
            9f:ea:c8:11:b0:f1:62:47:a5:fc:20:d8:05:23:ac:e6
    Signature Algorithm: sha1WithRSAEncryption
        Issuer: C=US, ST=UT, L=Salt Lake City, O=The USERTRUST Network, OU=http://www.usertrust.com, CN=UTN-USERFirst-Object
        Validity
            Not Before: May  5 00:00:00 2015 GMT
            Not After : Dec 31 23:59:59 2015 GMT
        Subject: C=GB, ST=Greater Manchester, L=Salford, O=COMODO CA Limited, CN=COMODO Time Stamping Signer
        Subject Public Key Info:
            Public Key Algorithm: rsaEncryption
                Public-Key: (2048 bit)
                Modulus:
                    00:bc:35:a0:36:70:22:81:11:c3:b2:83:b9:d3:28:
                    c6:36:cd:25:6b:a9:7b:b2:1c:f6:9b:51:9c:ef:35:
                    f4:ed:08:8e:5e:38:08:f8:77:3c:0a:42:e0:f3:70:
                    dc:a3:d7:ca:f5:4c:0b:cf:ff:22:9c:0a:7e:68:d6:
                    09:a2:2a:84:7b:a6:9d:b4:a9:c1:33:e2:ef:1f:17:
                    48:ca:3a:cd:46:e6:c5:aa:77:bd:e3:77:9a:fa:47:
                    53:40:28:59:43:93:f1:a4:81:ea:ef:80:b5:4f:a7:
                    08:ce:ba:6e:bc:ca:76:0c:97:64:59:86:24:bb:3d:
                    82:90:a8:55:b1:92:d3:a0:a7:05:ac:9f:53:25:08:
                    10:47:99:cd:98:de:68:e5:b4:50:78:a3:af:01:cc:
                    59:43:58:e4:76:6e:7e:ac:c7:e2:9e:1f:4f:b0:47:
                    2d:c8:0c:a3:49:27:80:75:8c:bb:06:91:65:0f:90:
                    9b:f4:ba:d1:81:c8:5c:6a:ec:14:e9:25:09:bf:23:
                    16:f4:95:46:40:40:21:bb:83:96:fd:86:1f:7a:c8:
                    0d:10:8e:a2:f8:19:07:58:7f:9f:bd:37:02:60:f2:
                    a4:e9:9d:44:3f:30:05:e4:a7:70:99:51:9a:e8:17:
                    f1:55:ca:b2:61:89:65:46:a7:6a:f2:58:46:7e:aa:
                    a0:07
                Exponent: 65537 (0x10001)
        X509v3 extensions:
            X509v3 Authority Key Identifier: 
                keyid:DA:ED:64:74:14:9C:14:3C:AB:DD:99:A9:BD:5B:28:4D:8B:3C:C9:D8

            X509v3 Subject Key Identifier: 
                2E:2D:B0:0A:44:4A:D3:87:C0:02:07:CE:97:7D:50:62:20:FD:0F:83
            X509v3 Key Usage: critical
                Digital Signature, Non Repudiation
            X509v3 Basic Constraints: critical
                CA:FALSE
            X509v3 Extended Key Usage: critical
                Time Stamping
            X509v3 CRL Distribution Points: 

                Full Name:
                  URI:http://crl.usertrust.com/UTN-USERFirst-Object.crl

            Authority Information Access: 
                OCSP - URI:http://ocsp.usertrust.com

    Signature Algorithm: sha1WithRSAEncryption
         0d:bb:ad:60:11:1b:b5:f0:0d:cc:e6:48:3a:7a:3e:0e:33:dc:
         1c:b9:ea:d6:20:fe:a3:4d:d0:cc:76:4e:e8:18:d8:79:df:d3:
         4f:9a:42:64:23:8a:29:72:8a:3a:6c:66:a6:3c:3a:17:a8:70:
         45:65:c6:73:c3:d0:ce:89:54:fb:ac:69:0f:58:b0:19:cb:86:
         9f:7e:b9:7e:eb:51:92:bf:9b:dd:eb:d1:65:f0:25:7b:88:7c:
         de:bd:a5:c8:b5:14:51:bc:c0:81:30:8a:85:38:7b:e6:79:fe:
         67:55:93:87:fe:4f:e8:8d:0e:ed:f3:72:92:b5:c2:89:80:6d:
         d1:59:e3:1d:0d:ea:b1:38:ee:03:9d:00:19:a5:ab:21:9b:79:
         c3:cc:c2:3e:68:7e:bd:c9:4d:69:4d:b4:64:51:fb:b2:28:74:
         e2:53:89:ce:9d:fa:ad:e2:db:ce:ab:7b:7e:06:44:74:fd:0a:
         a3:c9:b7:a7:30:cd:49:d2:92:64:f1:22:a6:b8:28:45:74:79:
         e9:a7:ce:3b:33:f9:83:50:94:7d:68:c0:1d:49:c7:60:78:7a:
         3c:64:26:d5:be:fa:0a:6d:e4:1e:e1:09:53:8f:a9:c5:23:ac:
         c7:9d:61:42:21:f0:2c:16:71:49:3b:10:af:2c:6f:1a:e6:31:
         f1:14:fd:6c
-----BEGIN CERTIFICATE-----
MIIElDCCA3ygAwIBAgIRAJ/qyBGw8WJHpfwg2AUjrOYwDQYJKoZIhvcNAQEFBQAw
gZUxCzAJBgNVBAYTAlVTMQswCQYDVQQIEwJVVDEXMBUGA1UEBxMOU2FsdCBMYWtl
IENpdHkxHjAcBgNVBAoTFVRoZSBVU0VSVFJVU1QgTmV0d29yazEhMB8GA1UECxMY
aHR0cDovL3d3dy51c2VydHJ1c3QuY29tMR0wGwYDVQQDExRVVE4tVVNFUkZpcnN0
LU9iamVjdDAeFw0xNTA1MDUwMDAwMDBaFw0xNTEyMzEyMzU5NTlaMH4xCzAJBgNV
BAYTAkdCMRswGQYDVQQIExJHcmVhdGVyIE1hbmNoZXN0ZXIxEDAOBgNVBAcTB1Nh
bGZvcmQxGjAYBgNVBAoTEUNPTU9ETyBDQSBMaW1pdGVkMSQwIgYDVQQDExtDT01P
RE8gVGltZSBTdGFtcGluZyBTaWduZXIwggEiMA0GCSqGSIb3DQEBAQUAA4IBDwAw
ggEKAoIBAQC8NaA2cCKBEcOyg7nTKMY2zSVrqXuyHPabUZzvNfTtCI5eOAj4dzwK
QuDzcNyj18r1TAvP/yKcCn5o1gmiKoR7pp20qcEz4u8fF0jKOs1G5sWqd73jd5r6
R1NAKFlDk/GkgervgLVPpwjOum68ynYMl2RZhiS7PYKQqFWxktOgpwWsn1MlCBBH
mc2Y3mjltFB4o68BzFlDWOR2bn6sx+KeH0+wRy3IDKNJJ4B1jLsGkWUPkJv0utGB
yFxq7BTpJQm/Ixb0lUZAQCG7g5b9hh96yA0QjqL4GQdYf5+9NwJg8qTpnUQ/MAXk
p3CZUZroF/FVyrJhiWVGp2ryWEZ+qqAHAgMBAAGjgfQwgfEwHwYDVR0jBBgwFoAU
2u1kdBScFDyr3ZmpvVsoTYs8ydgwHQYDVR0OBBYEFC4tsApEStOHwAIHzpd9UGIg
/Q+DMA4GA1UdDwEB/wQEAwIGwDAMBgNVHRMBAf8EAjAAMBYGA1UdJQEB/wQMMAoG
CCsGAQUFBwMIMEIGA1UdHwQ7MDkwN6A1oDOGMWh0dHA6Ly9jcmwudXNlcnRydXN0
LmNvbS9VVE4tVVNFUkZpcnN0LU9iamVjdC5jcmwwNQYIKwYBBQUHAQEEKTAnMCUG
CCsGAQUFBzABhhlodHRwOi8vb2NzcC51c2VydHJ1c3QuY29tMA0GCSqGSIb3DQEB
BQUAA4IBAQANu61gERu18A3M5kg6ej4OM9wcuerWIP6jTdDMdk7oGNh539NPmkJk
I4opcoo6bGamPDoXqHBFZcZzw9DOiVT7rGkPWLAZy4affrl+61GSv5vd69Fl8CV7
iHzevaXItRRRvMCBMIqFOHvmef5nVZOH/k/ojQ7t83KStcKJgG3RWeMdDeqxOO4D
nQAZpashm3nDzMI+aH69yU1pTbRkUfuyKHTiU4nOnfqt4tvOq3t+BkR0/Qqjyben
MM1J0pJk8SKmuChFdHnpp847M/mDUJR9aMAdScdgeHo8ZCbVvvoKbeQe4QlTj6nF
I6zHnWFCIfAsFnFJOxCvLG8a5jHxFP1s
-----END CERTIFICATE-----

Certificate:
    Data:
        Version: 3 (0x2)
        Serial Number:
            09:16:82:54:62:be:a1:55:94:45:0e:89:7e:8d:3a:e6
    Signature Algorithm: sha1WithRSAEncryption
        Issuer: C=US, O=DigiCert Inc, OU=www.digicert.com, CN=DigiCert High Assurance Code Signing CA-1
        Validity
            Not Before: May 28 00:00:00 2015 GMT
            Not After : Dec 30 12:00:00 2015 GMT
        Subject: C=RU, ST=Moscow City, L=Moscow, O=Kaspersky Lab, CN=Kaspersky Lab
        Subject Public Key Info:
            Public Key Algorithm: rsaEncryption
                Public-Key: (2048 bit)
                Modulus:
                    00:e7:18:4c:4d:9c:0e:f3:17:47:bd:c1:db:63:1d:
                    18:21:06:f7:75:8d:2e:66:84:70:4b:c6:eb:c2:e2:
                    d7:26:99:f9:b9:4d:38:a9:2c:3f:b6:58:49:5f:57:
                    21:d1:f2:a1:15:63:87:54:1a:b3:35:1b:6c:78:ab:
                    fb:04:56:8b:7b:f7:2a:c5:83:c0:ef:e8:7a:78:a4:
                    ec:db:b9:ec:49:95:b9:23:25:1e:7a:4e:e2:97:f0:
                    57:97:0d:bd:61:53:d1:25:fe:7c:00:49:8e:11:0d:
                    c4:40:ae:b2:d6:4b:85:cb:dd:62:5b:d6:15:09:c4:
                    c7:ec:9e:7a:ad:ae:2c:3b:ff:c7:da:d8:a5:0e:52:
                    7b:a3:4e:3d:58:c6:b0:8f:00:ef:dd:f6:75:26:96:
                    91:97:27:68:0a:5f:8d:9b:c0:41:b9:37:e8:1a:ec:
                    cd:7b:da:81:58:42:8d:cf:6a:64:20:f9:e5:e2:13:
                    53:36:56:c8:6c:4a:c3:70:9b:81:78:f8:c3:40:2e:
                    99:f4:54:2f:3a:3a:31:e4:46:52:4f:b0:1c:9a:b4:
                    ab:8f:c0:43:b3:61:96:64:fc:fb:e3:5d:a5:4a:00:
                    b5:ac:f6:2f:43:d3:ec:fb:66:e6:34:1a:5a:9a:bb:
                    b2:2d:3d:ba:3a:2f:5a:4f:e5:e0:a9:0f:b9:4a:6b:
                    ed:2b
                Exponent: 65537 (0x10001)
        X509v3 extensions:
            X509v3 Authority Key Identifier: 
                keyid:97:48:03:EB:15:08:6B:B9:B2:58:23:CC:94:2E:F1:C6:65:D2:64:8E

            X509v3 Subject Key Identifier: 
                26:97:9C:2F:53:54:32:B8:90:C8:D6:FE:7F:A1:A4:67:0D:BC:7C:2D
            X509v3 Key Usage: critical
                Digital Signature
            X509v3 Extended Key Usage: 
                Code Signing
            X509v3 CRL Distribution Points: 

                Full Name:
                  URI:http://crl3.digicert.com/ha-cs-2011a.crl

                Full Name:
                  URI:http://crl4.digicert.com/ha-cs-2011a.crl

            X509v3 Certificate Policies: 
                Policy: 2.16.840.1.114412.3.1
                  CPS: https://www.digicert.com/CPS

            Authority Information Access: 
                OCSP - URI:http://ocsp.digicert.com
                CA Issuers - URI:http://cacerts.digicert.com/DigiCertHighAssuranceCodeSigningCA-1.crt

            X509v3 Basic Constraints: critical
                CA:FALSE
    Signature Algorithm: sha1WithRSAEncryption
         8b:37:d0:d2:b5:f4:a3:ac:35:0c:2b:cd:3f:8c:4d:ef:b0:17:
         1e:6b:ca:62:77:f6:c9:6d:38:4d:a0:98:b2:fc:68:3c:54:5c:
         17:ad:2e:ef:65:7f:d8:81:a7:9e:6a:e8:03:ac:de:24:c9:0a:
         91:cc:2f:47:dd:67:3c:d5:2b:99:8e:e0:96:df:22:b5:19:0c:
         25:a6:2b:a7:25:1b:fe:7c:a0:22:e0:13:e6:70:c9:7b:dd:d9:
         9c:33:6e:d1:5b:d6:b5:8e:c9:95:69:68:e8:64:74:46:95:05:
         19:b8:88:b9:a0:4a:76:39:5f:4d:3c:e0:16:3c:2a:0a:ac:49:
         e6:85:b2:5e:8e:36:40:e0:c9:e4:97:87:fb:d3:e4:a1:3b:b6:
         40:74:b9:7f:02:ef:15:70:22:5c:28:01:32:f2:61:28:0f:b9:
         42:24:49:eb:8e:08:dd:2e:8c:08:70:ca:13:68:d3:4c:f2:71:
         e5:e1:b0:da:6b:50:a0:ba:c2:02:01:e1:80:14:5a:ce:bf:53:
         f9:55:79:1e:ae:7d:fd:19:17:6e:58:ff:93:2a:ff:ef:f6:98:
         01:9c:fd:9f:c4:55:6a:7e:b5:bc:24:f9:9f:d9:bc:2c:65:d1:
         ba:11:28:d8:fe:5f:59:6c:ef:64:aa:f1:95:c3:e7:25:a8:01:
         88:1c:92:ea
-----BEGIN CERTIFICATE-----
MIIFEjCCA/qgAwIBAgIQCRaCVGK+oVWURQ6Jfo065jANBgkqhkiG9w0BAQUFADBz
MQswCQYDVQQGEwJVUzEVMBMGA1UEChMMRGlnaUNlcnQgSW5jMRkwFwYDVQQLExB3
d3cuZGlnaWNlcnQuY29tMTIwMAYDVQQDEylEaWdpQ2VydCBIaWdoIEFzc3VyYW5j
ZSBDb2RlIFNpZ25pbmcgQ0EtMTAeFw0xNTA1MjgwMDAwMDBaFw0xNTEyMzAxMjAw
MDBaMGQxCzAJBgNVBAYTAlJVMRQwEgYDVQQIEwtNb3Njb3cgQ2l0eTEPMA0GA1UE
BxMGTW9zY293MRYwFAYDVQQKEw1LYXNwZXJza3kgTGFiMRYwFAYDVQQDEw1LYXNw
ZXJza3kgTGFiMIIBIjANBgkqhkiG9w0BAQEFAAOCAQ8AMIIBCgKCAQEA5xhMTZwO
8xdHvcHbYx0YIQb3dY0uZoRwS8brwuLXJpn5uU04qSw/tlhJX1ch0fKhFWOHVBqz
NRtseKv7BFaLe/cqxYPA7+h6eKTs27nsSZW5IyUeek7il/BXlw29YVPRJf58AEmO
EQ3EQK6y1kuFy91iW9YVCcTH7J56ra4sO//H2tilDlJ7o049WMawjwDv3fZ1JpaR
lydoCl+Nm8BBuTfoGuzNe9qBWEKNz2pkIPnl4hNTNlbIbErDcJuBePjDQC6Z9FQv
Ojox5EZST7AcmrSrj8BDs2GWZPz7412lSgC1rPYvQ9Ps+2bmNBpamruyLT26Oi9a
T+XgqQ+5SmvtKwIDAQABo4IBrzCCAaswHwYDVR0jBBgwFoAUl0gD6xUIa7myWCPM
lC7xxmXSZI4wHQYDVR0OBBYEFCaXnC9TVDK4kMjW/n+hpGcNvHwtMA4GA1UdDwEB
/wQEAwIHgDATBgNVHSUEDDAKBggrBgEFBQcDAzBpBgNVHR8EYjBgMC6gLKAqhiho
dHRwOi8vY3JsMy5kaWdpY2VydC5jb20vaGEtY3MtMjAxMWEuY3JsMC6gLKAqhiho
dHRwOi8vY3JsNC5kaWdpY2VydC5jb20vaGEtY3MtMjAxMWEuY3JsMEIGA1UdIAQ7
MDkwNwYJYIZIAYb9bAMBMCowKAYIKwYBBQUHAgEWHGh0dHBzOi8vd3d3LmRpZ2lj
ZXJ0LmNvbS9DUFMwgYYGCCsGAQUFBwEBBHoweDAkBggrBgEFBQcwAYYYaHR0cDov
L29jc3AuZGlnaWNlcnQuY29tMFAGCCsGAQUFBzAChkRodHRwOi8vY2FjZXJ0cy5k
aWdpY2VydC5jb20vRGlnaUNlcnRIaWdoQXNzdXJhbmNlQ29kZVNpZ25pbmdDQS0x
LmNydDAMBgNVHRMBAf8EAjAAMA0GCSqGSIb3DQEBBQUAA4IBAQCLN9DStfSjrDUM
K80/jE3vsBcea8pid/bJbThNoJiy/Gg8VFwXrS7vZX/YgaeeaugDrN4kyQqRzC9H
3Wc81SuZjuCW3yK1GQwlpiunJRv+fKAi4BPmcMl73dmcM27RW9a1jsmVaWjoZHRG
lQUZuIi5oEp2OV9NPOAWPCoKrEnmhbJejjZA4Mnkl4f70+ShO7ZAdLl/Au8VcCJc
KAEy8mEoD7lCJEnrjgjdLowIcMoTaNNM8nHl4bDaa1CgusICAeGAFFrOv1P5VXke
rn39GRduWP+TKv/v9pgBnP2fxFVqfrW8JPmf2bwsZdG6ESjY/l9ZbO9kqvGVw+cl
qAGIHJLq
-----END CERTIFICATE-----

Certificate:
    Data:
        Version: 3 (0x2)
        Serial Number:
            02:c4:d1:e5:8a:4a:68:0c:56:8d:a3:04:7e:7e:4d:5f
    Signature Algorithm: sha1WithRSAEncryption
        Issuer: C=US, O=DigiCert Inc, OU=www.digicert.com, CN=DigiCert High Assurance EV Root CA
        Validity
            Not Before: Feb 11 12:00:00 2011 GMT
            Not After : Feb 10 12:00:00 2026 GMT
        Subject: C=US, O=DigiCert Inc, OU=www.digicert.com, CN=DigiCert High Assurance Code Signing CA-1
        Subject Public Key Info:
            Public Key Algorithm: rsaEncryption
                Public-Key: (2048 bit)
                Modulus:
                    00:c5:f9:23:e6:94:27:c4:80:14:a4:80:32:5f:40:
                    a3:8d:6f:70:c0:e5:36:71:71:3a:75:a4:aa:1a:92:
                    94:89:5e:ac:23:71:cb:4e:67:7d:41:3f:aa:e3:4b:
                    b7:7b:be:9d:c1:a8:38:8f:69:2f:3a:24:e9:77:59:
                    12:c7:66:04:43:c2:0d:26:82:89:40:19:f2:2c:ea:
                    e7:4c:e7:7c:05:1a:b8:ff:88:09:4f:26:37:ef:3a:
                    a4:fa:22:6c:88:c9:4a:1b:61:f2:ae:10:5e:6f:bc:
                    d1:79:9b:59:18:60:e5:ee:29:b5:03:2a:a4:ce:f1:
                    83:19:4f:69:05:73:28:09:fb:22:10:93:22:a0:90:
                    19:1a:4c:31:f2:d3:2b:d8:84:43:af:3c:63:ff:98:
                    db:20:d2:09:2b:54:c1:ea:fd:6a:83:e7:10:a3:12:
                    71:f5:d6:d7:e1:12:7a:d5:e0:56:5a:ce:ea:01:5b:
                    68:65:5b:c1:3f:58:52:33:a9:35:61:4e:22:cb:81:
                    ca:36:a3:12:cb:06:d6:cf:1b:4d:18:7e:b9:92:b9:
                    12:cf:40:26:d8:9a:36:85:b3:15:aa:47:93:84:6b:
                    07:bb:bc:d5:b3:de:25:00:11:89:00:68:c1:29:3c:
                    ea:3e:2d:ee:50:ab:d7:1c:30:06:78:3c:a5:10:23:
                    67:91
                Exponent: 65537 (0x10001)
        X509v3 extensions:
            X509v3 Key Usage: critical
                Digital Signature, Certificate Sign, CRL Sign
            X509v3 Extended Key Usage: 
                Code Signing
            X509v3 Certificate Policies: 
                Policy: 2.16.840.1.114412.3
                  CPS: http://www.digicert.com/ssl-cps-repository.htm
                  User Notice:
                    Explicit Text: 

            X509v3 Basic Constraints: critical
                CA:TRUE, pathlen:0
            Authority Information Access: 
                OCSP - URI:http://ocsp.digicert.com
                CA Issuers - URI:http://cacerts.digicert.com/DigiCertHighAssuranceEVRootCA.crt

            X509v3 CRL Distribution Points: 

                Full Name:
                  URI:http://crl3.digicert.com/DigiCertHighAssuranceEVRootCA.crl

                Full Name:
                  URI:http://crl4.digicert.com/DigiCertHighAssuranceEVRootCA.crl

            X509v3 Subject Key Identifier: 
                97:48:03:EB:15:08:6B:B9:B2:58:23:CC:94:2E:F1:C6:65:D2:64:8E
            X509v3 Authority Key Identifier: 
                keyid:B1:3E:C3:69:03:F8:BF:47:01:D4:98:26:1A:08:02:EF:63:64:2B:C3

    Signature Algorithm: sha1WithRSAEncryption
         49:eb:7c:60:be:ae:ef:c9:7c:b3:c5:ba:4b:64:df:16:69:e2:
         86:fa:29:d9:de:98:85:7d:40:66:26:33:2f:44:55:aa:aa:90:
         e9:35:70:0a:34:be:d3:ae:54:2e:8e:65:00:d6:7a:32:20:3e:
         6c:26:b8:98:a9:39:b1:bc:95:c7:aa:e9:f5:ee:46:66:c6:b3:
         e8:12:f8:b3:97:9d:ff:74:58:82:34:99:75:50:ac:44:8f:e8:
         92:ce:7d:8b:0f:31:96:c7:dc:d3:11:30:98:74:16:c6:e5:6b:
         45:76:a3:94:01:cd:33:00:7a:48:f6:6f:86:31:c9:56:2b:33:
         22:d5:f8:01:b6:44:ce:8c:b4:ca:88:d2:e4:16:e3:e7:f6:e2:
         3e:e1:09:c0:9d:79:43:43:7f:55:5c:05:ad:93:10:c6:2c:0d:
         6b:c0:9e:ea:78:e5:d2:77:d6:b8:da:9a:98:7f:ba:4c:92:2b:
         9d:bd:a4:88:b1:dd:af:c3:4c:d2:97:9b:03:c6:ae:5f:1b:44:
         0f:33:37:15:e3:cb:ff:2f:56:d3:16:a4:5b:55:67:9d:a2:ca:
         db:34:6c:0c:73:4a:b5:7b:a4:b6:b3:e9:35:02:78:70:ec:00:
         7a:cb:fc:4b:4f:22:36:bb:14:84:c9:8f:91:dd:0f:3c:75:8c:
         ca:0b:88:e7
-----BEGIN CERTIFICATE-----
MIIGwjCCBaqgAwIBAgIQAsTR5YpKaAxWjaMEfn5NXzANBgkqhkiG9w0BAQUFADBs
MQswCQYDVQQGEwJVUzEVMBMGA1UEChMMRGlnaUNlcnQgSW5jMRkwFwYDVQQLExB3
d3cuZGlnaWNlcnQuY29tMSswKQYDVQQDEyJEaWdpQ2VydCBIaWdoIEFzc3VyYW5j
ZSBFViBSb290IENBMB4XDTExMDIxMTEyMDAwMFoXDTI2MDIxMDEyMDAwMFowczEL
MAkGA1UEBhMCVVMxFTATBgNVBAoTDERpZ2lDZXJ0IEluYzEZMBcGA1UECxMQd3d3
LmRpZ2ljZXJ0LmNvbTEyMDAGA1UEAxMpRGlnaUNlcnQgSGlnaCBBc3N1cmFuY2Ug
Q29kZSBTaWduaW5nIENBLTEwggEiMA0GCSqGSIb3DQEBAQUAA4IBDwAwggEKAoIB
AQDF+SPmlCfEgBSkgDJfQKONb3DA5TZxcTp1pKoakpSJXqwjcctOZ31BP6rjS7d7
vp3BqDiPaS86JOl3WRLHZgRDwg0mgolAGfIs6udM53wFGrj/iAlPJjfvOqT6ImyI
yUobYfKuEF5vvNF5m1kYYOXuKbUDKqTO8YMZT2kFcygJ+yIQkyKgkBkaTDHy0yvY
hEOvPGP/mNsg0gkrVMHq/WqD5xCjEnH11tfhEnrV4FZazuoBW2hlW8E/WFIzqTVh
TiLLgco2oxLLBtbPG00YfrmSuRLPQCbYmjaFsxWqR5OEawe7vNWz3iUAEYkAaMEp
POo+Le5Qq9ccMAZ4PKUQI2eRAgMBAAGjggNXMIIDUzAOBgNVHQ8BAf8EBAMCAYYw
EwYDVR0lBAwwCgYIKwYBBQUHAwMwggHDBgNVHSAEggG6MIIBtjCCAbIGCGCGSAGG
/WwDMIIBpDA6BggrBgEFBQcCARYuaHR0cDovL3d3dy5kaWdpY2VydC5jb20vc3Ns
LWNwcy1yZXBvc2l0b3J5Lmh0bTCCAWQGCCsGAQUFBwICMIIBVh6CAVIAQQBuAHkA
IAB1AHMAZQAgAG8AZgAgAHQAaABpAHMAIABDAGUAcgB0AGkAZgBpAGMAYQB0AGUA
IABjAG8AbgBzAHQAaQB0AHUAdABlAHMAIABhAGMAYwBlAHAAdABhAG4AYwBlACAA
bwBmACAAdABoAGUAIABEAGkAZwBpAEMAZQByAHQAIABDAFAALwBDAFAAUwAgAGEA
bgBkACAAdABoAGUAIABSAGUAbAB5AGkAbgBnACAAUABhAHIAdAB5ACAAQQBnAHIA
ZQBlAG0AZQBuAHQAIAB3AGgAaQBjAGgAIABsAGkAbQBpAHQAIABsAGkAYQBiAGkA
bABpAHQAeQAgAGEAbgBkACAAYQByAGUAIABpAG4AYwBvAHIAcABvAHIAYQB0AGUA
ZAAgAGgAZQByAGUAaQBuACAAYgB5ACAAcgBlAGYAZQByAGUAbgBjAGUALjASBgNV
HRMBAf8ECDAGAQH/AgEAMH8GCCsGAQUFBwEBBHMwcTAkBggrBgEFBQcwAYYYaHR0
cDovL29jc3AuZGlnaWNlcnQuY29tMEkGCCsGAQUFBzAChj1odHRwOi8vY2FjZXJ0
cy5kaWdpY2VydC5jb20vRGlnaUNlcnRIaWdoQXNzdXJhbmNlRVZSb290Q0EuY3J0
MIGPBgNVHR8EgYcwgYQwQKA+oDyGOmh0dHA6Ly9jcmwzLmRpZ2ljZXJ0LmNvbS9E
aWdpQ2VydEhpZ2hBc3N1cmFuY2VFVlJvb3RDQS5jcmwwQKA+oDyGOmh0dHA6Ly9j
cmw0LmRpZ2ljZXJ0LmNvbS9EaWdpQ2VydEhpZ2hBc3N1cmFuY2VFVlJvb3RDQS5j
cmwwHQYDVR0OBBYEFJdIA+sVCGu5slgjzJQu8cZl0mSOMB8GA1UdIwQYMBaAFLE+
w2kD+L9HAdSYJhoIAu9jZCvDMA0GCSqGSIb3DQEBBQUAA4IBAQBJ63xgvq7vyXyz
xbpLZN8WaeKG+inZ3piFfUBmJjMvRFWqqpDpNXAKNL7TrlQujmUA1noyID5sJriY
qTmxvJXHqun17kZmxrPoEvizl53/dFiCNJl1UKxEj+iSzn2LDzGWx9zTETCYdBbG
5WtFdqOUAc0zAHpI9m+GMclWKzMi1fgBtkTOjLTKiNLkFuPn9uI+4QnAnXlDQ39V
XAWtkxDGLA1rwJ7qeOXSd9a42pqYf7pMkiudvaSIsd2vw0zSl5sDxq5fG0QPMzcV
48v/L1bTFqRbVWedosrbNGwMc0q1e6S2s+k1Anhw7AB6y/xLTyI2uxSEyY+R3Q88
dYzKC4jn
-----END CERTIFICATE-----

