Certificate:
    Data:
        Version: 3 (0x2)
        Serial Number:
            04:00:00:00:00:01:2f:4e:e1:52:d7
    Signature Algorithm: sha1WithRSAEncryption
        Issuer: C=BE, O=GlobalSign nv-sa, OU=Root CA, CN=GlobalSign Root CA
        Validity
            Not Before: Apr 13 10:00:00 2011 GMT
            Not After : Jan 28 12:00:00 2028 GMT
        Subject: C=BE, O=GlobalSign nv-sa, CN=GlobalSign Timestamping CA - G2
        Subject Public Key Info:
            Public Key Algorithm: rsaEncryption
                Public-Key: (2048 bit)
                Modulus:
                    00:94:ef:65:f8:b5:57:9f:a0:53:0d:34:06:eb:09:
                    1f:b7:47:18:6a:cb:f0:5b:e4:ff:27:a5:34:d1:f7:
                    89:1a:bf:9e:b1:cd:12:41:6e:66:d4:81:a0:85:8b:
                    64:5a:46:2f:99:a0:8d:77:b1:e2:bc:5c:dd:22:d7:
                    6a:67:d0:bb:e8:ca:74:de:8b:4f:0d:b0:52:e5:90:
                    5b:eb:47:0e:f1:e7:9f:9c:0b:90:65:3e:17:96:30:
                    45:72:6d:39:a1:17:36:ca:b9:a0:8c:1b:4f:08:19:
                    f6:81:31:ad:61:16:a4:62:e6:b4:40:9e:c3:fc:fb:
                    95:f6:fb:b5:2e:95:81:98:e0:ef:c5:eb:d8:02:59:
                    78:77:f7:aa:e3:52:6b:50:91:29:c5:fc:f7:cd:93:
                    65:d2:60:61:22:f2:06:fb:32:dd:16:51:fa:0e:fd:
                    8a:30:f0:17:09:a7:bb:f3:04:ae:ab:90:e7:6c:df:
                    7a:a9:f4:ef:c4:62:27:5f:6f:99:6d:38:74:aa:11:
                    8b:da:df:c7:14:4c:e9:85:b2:ec:c2:7d:4a:26:8f:
                    e7:56:ba:a6:e0:cf:92:53:80:74:f4:03:ec:68:b2:
                    60:bc:84:20:00:83:1b:a1:ee:b4:74:05:c1:29:8e:
                    62:d0:47:b1:fa:f0:53:cc:18:f9:2e:3b:f9:70:7e:
                    b4:25
                Exponent: 65537 (0x10001)
        X509v3 extensions:
            X509v3 Key Usage: critical
                Certificate Sign, CRL Sign
            X509v3 Basic Constraints: critical
                CA:TRUE, pathlen:0
            X509v3 Subject Key Identifier: 
                46:D8:3E:FF:DC:E3:BE:FF:83:E6:F4:85:9B:B0:DD:6A:D6:14:A9:C1
            X509v3 Certificate Policies: 
                Policy: X509v3 Any Policy
                  CPS: https://www.globalsign.com/repository/

            X509v3 CRL Distribution Points: 

                Full Name:
                  URI:http://crl.globalsign.net/root.crl

            X509v3 Authority Key Identifier: 
                keyid:60:7B:66:1A:45:0D:97:CA:89:50:2F:7D:04:CD:34:A8:FF:FC:FD:4B

    Signature Algorithm: sha1WithRSAEncryption
         4e:5e:56:90:1e:46:b4:d9:49:31:f3:bb:17:39:28:1b:c2:16:
         dd:fd:41:dc:09:05:04:9b:6f:b2:a2:9a:d6:99:2e:40:99:00:
         55:b5:ea:3f:a5:20:76:d3:86:34:d4:17:cc:55:3a:c7:82:ee:
         ef:a8:ba:bc:d8:06:9f:15:50:df:cd:16:7b:52:3a:02:d7:19:
         1a:fd:af:f0:78:5c:e0:4b:c5:18:df:3a:24:1e:da:ac:b8:a9:
         58:04:02:07:30:db:b0:12:5e:fe:31:be:f0:04:48:f4:f0:70:
         f8:3a:5e:56:83:cf:3d:fb:0d:bc:f4:c5:ed:97:9d:b9:d4:db:
         a5:27:84:e3:38:9b:8b:a7:35:86:44:20:a4:3b:6d:a4:6a:0b:
         a1:83:fd:28:eb:da:ef:28:f6:cc:88:5d:fb:0a:3b:00:ab:e0:
         21:eb:e2:2f:35:6c:0f:8e:34:45:97:eb:a2:f7:99:33:35:7e:
         cb:9a:8a:bb:45:4d:e7:3f:9f:c2:d9:8a:fa:65:b2:6e:c7:7e:
         65:ff:e8:92:e1:2c:31:a2:f7:b0:27:36:48:8f:26:6f:3b:ee:
         4d:76:1f:79:c3:e5:7f:96:35:bc:2d:0e:cc:01:b0:8e:7f:ff:
         51:80:80:a7:92:d4:b3:44:46:64:8c:87:4f:16:63:07:31:4b:
         63:b0:df:f3
-----BEGIN CERTIFICATE-----
MIIEFDCCAvygAwIBAgILBAAAAAABL07hUtcwDQYJKoZIhvcNAQEFBQAwVzELMAkG
A1UEBhMCQkUxGTAXBgNVBAoTEEdsb2JhbFNpZ24gbnYtc2ExEDAOBgNVBAsTB1Jv
b3QgQ0ExGzAZBgNVBAMTEkdsb2JhbFNpZ24gUm9vdCBDQTAeFw0xMTA0MTMxMDAw
MDBaFw0yODAxMjgxMjAwMDBaMFIxCzAJBgNVBAYTAkJFMRkwFwYDVQQKExBHbG9i
YWxTaWduIG52LXNhMSgwJgYDVQQDEx9HbG9iYWxTaWduIFRpbWVzdGFtcGluZyBD
QSAtIEcyMIIBIjANBgkqhkiG9w0BAQEFAAOCAQ8AMIIBCgKCAQEAlO9l+LVXn6BT
DTQG6wkft0cYasvwW+T/J6U00feJGr+esc0SQW5m1IGghYtkWkYvmaCNd7HivFzd
ItdqZ9C76Mp03otPDbBS5ZBb60cO8eefnAuQZT4XljBFcm05oRc2yrmgjBtPCBn2
gTGtYRakYua0QJ7D/PuV9vu1LpWBmODvxevYAll4d/eq41JrUJEpxfz3zZNl0mBh
IvIG+zLdFlH6Dv2KMPAXCae78wSuq5DnbN96qfTvxGInX2+ZbTh0qhGL2t/HFEzp
hbLswn1KJo/nVrqm4M+SU4B09APsaLJgvIQgAIMboe60dAXBKY5i0Eex+vBTzBj5
Ljv5cH60JQIDAQABo4HlMIHiMA4GA1UdDwEB/wQEAwIBBjASBgNVHRMBAf8ECDAG
AQH/AgEAMB0GA1UdDgQWBBRG2D7/3OO+/4Pm9IWbsN1q1hSpwTBHBgNVHSAEQDA+
MDwGBFUdIAAwNDAyBggrBgEFBQcCARYmaHR0cHM6Ly93d3cuZ2xvYmFsc2lnbi5j
b20vcmVwb3NpdG9yeS8wMwYDVR0fBCwwKjAooCagJIYiaHR0cDovL2NybC5nbG9i
YWxzaWduLm5ldC9yb290LmNybDAfBgNVHSMEGDAWgBRge2YaRQ2XyolQL30EzTSo
//z9SzANBgkqhkiG9w0BAQUFAAOCAQEATl5WkB5GtNlJMfO7FzkoG8IW3f1B3AkF
BJtvsqKa1pkuQJkAVbXqP6UgdtOGNNQXzFU6x4Lu76i6vNgGnxVQ380We1I6AtcZ
Gv2v8Hhc4EvFGN86JB7arLipWAQCBzDbsBJe/jG+8ARI9PBw+DpeVoPPPfsNvPTF
7ZedudTbpSeE4zibi6c1hkQgpDttpGoLoYP9KOva7yj2zIhd+wo7AKvgIeviLzVs
D440RZfroveZMzV+y5qKu0VN5z+fwtmK+mWybsd+Zf/okuEsMaL3sCc2SI8mbzvu
TXYfecPlf5Y1vC0OzAGwjn//UYCAp5LUs0RGZIyHTxZjBzFLY7Df8w==
-----END CERTIFICATE-----

Certificate:
    Data:
        Version: 3 (0x2)
        Serial Number:
            04:00:00:00:00:01:25:07:1d:f9:af
    Signature Algorithm: sha256WithRSAEncryption
        Issuer: C=BE, O=GlobalSign nv-sa, OU=Root CA, CN=GlobalSign Root CA
        Validity
            Not Before: Nov 18 10:00:00 2009 GMT
            Not After : Mar 18 10:00:00 2019 GMT
        Subject: OU=GlobalSign Root CA - R3, O=GlobalSign, CN=GlobalSign
        Subject Public Key Info:
            Public Key Algorithm: rsaEncryption
                Public-Key: (2048 bit)
                Modulus:
                    00:cc:25:76:90:79:06:78:22:16:f5:c0:83:b6:84:
                    ca:28:9e:fd:05:76:11:c5:ad:88:72:fc:46:02:43:
                    c7:b2:8a:9d:04:5f:24:cb:2e:4b:e1:60:82:46:e1:
                    52:ab:0c:81:47:70:6c:dd:64:d1:eb:f5:2c:a3:0f:
                    82:3d:0c:2b:ae:97:d7:b6:14:86:10:79:bb:3b:13:
                    80:77:8c:08:e1:49:d2:6a:62:2f:1f:5e:fa:96:68:
                    df:89:27:95:38:9f:06:d7:3e:c9:cb:26:59:0d:73:
                    de:b0:c8:e9:26:0e:83:15:c6:ef:5b:8b:d2:04:60:
                    ca:49:a6:28:f6:69:3b:f6:cb:c8:28:91:e5:9d:8a:
                    61:57:37:ac:74:14:dc:74:e0:3a:ee:72:2f:2e:9c:
                    fb:d0:bb:bf:f5:3d:00:e1:06:33:e8:82:2b:ae:53:
                    a6:3a:16:73:8c:dd:41:0e:20:3a:c0:b4:a7:a1:e9:
                    b2:4f:90:2e:32:60:e9:57:cb:b9:04:92:68:68:e5:
                    38:26:60:75:b2:9f:77:ff:91:14:ef:ae:20:49:fc:
                    ad:40:15:48:d1:02:31:61:19:5e:b8:97:ef:ad:77:
                    b7:64:9a:7a:bf:5f:c1:13:ef:9b:62:fb:0d:6c:e0:
                    54:69:16:a9:03:da:6e:e9:83:93:71:76:c6:69:85:
                    82:17
                Exponent: 65537 (0x10001)
        X509v3 extensions:
            X509v3 Key Usage: critical
                Certificate Sign, CRL Sign
            X509v3 Basic Constraints: critical
                CA:TRUE
            X509v3 Subject Key Identifier: 
                8F:F0:4B:7F:A8:2E:45:24:AE:4D:50:FA:63:9A:8B:DE:E2:DD:1B:BC
            X509v3 Certificate Policies: 
                Policy: X509v3 Any Policy
                  CPS: http://www.globalsign.net/repository/

            X509v3 CRL Distribution Points: 

                Full Name:
                  URI:http://crl.globalsign.net/root.crl

            Authority Information Access: 
                OCSP - URI:http://ocsp.globalsign.com/ExtendedSSLSHA256CACross

            X509v3 Authority Key Identifier: 
                keyid:60:7B:66:1A:45:0D:97:CA:89:50:2F:7D:04:CD:34:A8:FF:FC:FD:4B

    Signature Algorithm: sha256WithRSAEncryption
         42:52:a9:7e:a2:cf:5b:3b:cb:4b:dd:ba:f8:57:59:d3:24:a4:
         77:72:ef:62:44:37:82:ed:06:ee:04:d5:16:5f:24:a3:14:dc:
         6c:54:05:6a:b0:9b:3d:da:81:39:da:ad:28:db:95:6f:81:83:
         f5:cd:62:b1:45:24:b1:dd:29:e5:08:54:95:95:8c:f0:1d:06:
         5f:1a:d6:46:3f:13:40:17:48:11:16:9b:47:4d:d1:3a:b5:0f:
         57:1c:92:30:d0:f8:b2:25:3b:0a:cd:f6:87:f9:c7:b2:57:d3:
         3f:7d:a5:8c:14:ce:9c:a8:c7:9f:46:93:da:59:fa:79:5d:65:
         20:35:44:5a:4f:c1:90:9d:c1:54:92:56:dc:34:c8:f5:c1:03:
         d0:5d:c0:59:48:9c:00:fc:95:a0:f1:d1:76:f7:16:36:c8:13:
         92:7f:2d:2b:c0:b8:80:f1:26:26:1f:41:4d:52:bf:1e:97:bb:
         01:82:08:e7:15:f6:c1:d5:34:2a:cc:f5:e4:c3:87:7a:57:81:
         e1:d6:d7:42:86:62:01:77:e2:a9:c4:7a:86:f4:04:38:7a:07:
         6a:7d:00:ec:73:f7:a8:0b:34:78:c5:9e:b3:ef:b8:38:40:0e:
         8c:33:53:c8:75:ec:5f:3e:ea:75:5e:ff:82:0e:74:15:dc:19:
         05:f3:ba:31
-----BEGIN CERTIFICATE-----
MIIEXTCCA0WgAwIBAgILBAAAAAABJQcd+a8wDQYJKoZIhvcNAQELBQAwVzELMAkG
A1UEBhMCQkUxGTAXBgNVBAoTEEdsb2JhbFNpZ24gbnYtc2ExEDAOBgNVBAsTB1Jv
b3QgQ0ExGzAZBgNVBAMTEkdsb2JhbFNpZ24gUm9vdCBDQTAeFw0wOTExMTgxMDAw
MDBaFw0xOTAzMTgxMDAwMDBaMEwxIDAeBgNVBAsTF0dsb2JhbFNpZ24gUm9vdCBD
QSAtIFIzMRMwEQYDVQQKEwpHbG9iYWxTaWduMRMwEQYDVQQDEwpHbG9iYWxTaWdu
MIIBIjANBgkqhkiG9w0BAQEFAAOCAQ8AMIIBCgKCAQEAzCV2kHkGeCIW9cCDtoTK
KJ79BXYRxa2IcvxGAkPHsoqdBF8kyy5L4WCCRuFSqwyBR3Bs3WTR6/Usow+CPQwr
rpfXthSGEHm7OxOAd4wI4UnSamIvH176lmjfiSeVOJ8G1z7JyyZZDXPesMjpJg6D
FcbvW4vSBGDKSaYo9mk79svIKJHlnYphVzesdBTcdOA67nIvLpz70Lu/9T0A4QYz
6IIrrlOmOhZzjN1BDiA6wLSnoemyT5AuMmDpV8u5BJJoaOU4JmB1sp93/5EU764g
SfytQBVI0QIxYRleuJfvrXe3ZJp6v1/BE++bYvsNbOBUaRapA9pu6YOTcXbGaYWC
FwIDAQABo4IBMzCCAS8wDgYDVR0PAQH/BAQDAgEGMA8GA1UdEwEB/wQFMAMBAf8w
HQYDVR0OBBYEFI/wS3+oLkUkrk1Q+mOai97i3Ru8MEYGA1UdIAQ/MD0wOwYEVR0g
ADAzMDEGCCsGAQUFBwIBFiVodHRwOi8vd3d3Lmdsb2JhbHNpZ24ubmV0L3JlcG9z
aXRvcnkvMDMGA1UdHwQsMCowKKAmoCSGImh0dHA6Ly9jcmwuZ2xvYmFsc2lnbi5u
ZXQvcm9vdC5jcmwwTwYIKwYBBQUHAQEEQzBBMD8GCCsGAQUFBzABhjNodHRwOi8v
b2NzcC5nbG9iYWxzaWduLmNvbS9FeHRlbmRlZFNTTFNIQTI1NkNBQ3Jvc3MwHwYD
VR0jBBgwFoAUYHtmGkUNl8qJUC99BM00qP/8/UswDQYJKoZIhvcNAQELBQADggEB
AEJSqX6iz1s7y0vduvhXWdMkpHdy72JEN4LtBu4E1RZfJKMU3GxUBWqwmz3agTna
rSjblW+Bg/XNYrFFJLHdKeUIVJWVjPAdBl8a1kY/E0AXSBEWm0dN0Tq1D1cckjDQ
+LIlOwrN9of5x7JX0z99pYwUzpyox59Gk9pZ+nldZSA1RFpPwZCdwVSSVtw0yPXB
A9BdwFlInAD8laDx0Xb3FjbIE5J/LSvAuIDxJiYfQU1Svx6XuwGCCOcV9sHVNCrM
9eTDh3pXgeHW10KGYgF34qnEeob0BDh6B2p9AOxz96gLNHjFnrPvuDhADowzU8h1
7F8+6nVe/4IOdBXcGQXzujE=
-----END CERTIFICATE-----

Certificate:
    Data:
        Version: 3 (0x2)
        Serial Number:
            11:21:d6:99:a7:64:97:3e:f1:f8:42:7e:e9:19:cc:53:41:14
    Signature Algorithm: sha1WithRSAEncryption
        Issuer: C=BE, O=GlobalSign nv-sa, CN=GlobalSign Timestamping CA - G2
        Validity
            Not Before: May 24 00:00:00 2016 GMT
            Not After : Jun 24 00:00:00 2027 GMT
        Subject: C=SG, O=GMO GlobalSign Pte Ltd, CN=GlobalSign TSA for MS Authenticode - G2
        Subject Public Key Info:
            Public Key Algorithm: rsaEncryption
                Public-Key: (2048 bit)
                Modulus:
                    00:b0:17:ae:a2:d3:b6:04:30:56:1e:58:0f:b1:ed:
                    55:a4:d6:54:cb:d8:f6:73:3a:ec:5d:5e:ab:25:fd:
                    36:a5:fa:84:c3:61:40:c5:46:b5:59:52:3b:42:a2:
                    2e:5f:13:62:10:a9:5b:e6:73:d6:92:25:b1:7d:23:
                    e3:06:b3:87:3a:0e:43:f0:d7:00:89:53:a2:11:31:
                    52:28:6e:5d:40:72:3c:f2:09:77:a7:49:92:97:d4:
                    6c:90:a0:76:a7:fd:b8:dc:b3:9d:f2:07:60:2c:4f:
                    58:98:00:6b:d3:15:54:e0:fa:dd:ff:80:2c:5f:18:
                    a6:98:ff:d4:ab:ec:a1:45:59:b2:2e:6f:62:5d:e0:
                    d9:19:ac:8b:57:9c:a8:26:2b:d9:17:a5:10:d2:47:
                    08:1a:70:2c:33:8b:7f:68:80:2a:b5:a1:5d:6b:dd:
                    8d:02:02:29:03:aa:7c:37:bb:bb:29:4e:3d:53:93:
                    b3:a6:fa:8f:d2:58:93:15:4c:b9:2d:ab:80:a3:a3:
                    25:fb:af:f7:08:64:b0:7a:44:0f:5c:10:d7:5f:61:
                    37:aa:4e:6b:d3:d2:53:25:9d:82:73:fa:2c:f9:72:
                    b0:a9:19:39:2a:50:fa:a9:d0:3c:3a:ca:e8:5b:ef:
                    f5:5f:51:f4:f9:0a:d9:97:35:de:6a:85:e6:23:04:
                    42:af
                Exponent: 65537 (0x10001)
        X509v3 extensions:
            X509v3 Key Usage: critical
                Digital Signature
            X509v3 Certificate Policies: 
                Policy: 1.3.6.1.4.1.4146.1.30
                  CPS: https://www.globalsign.com/repository/

            X509v3 Basic Constraints: 
                CA:FALSE
            X509v3 Extended Key Usage: critical
                Time Stamping
            X509v3 CRL Distribution Points: 

                Full Name:
                  URI:http://crl.globalsign.com/gs/gstimestampingg2.crl

            Authority Information Access: 
                CA Issuers - URI:http://secure.globalsign.com/cacert/gstimestampingg2.crt

            X509v3 Subject Key Identifier: 
                D4:A2:84:4A:38:5A:18:7F:BA:4F:30:50:BD:9D:D5:7A:87:D6:09:F7
            X509v3 Authority Key Identifier: 
                keyid:46:D8:3E:FF:DC:E3:BE:FF:83:E6:F4:85:9B:B0:DD:6A:D6:14:A9:C1

    Signature Algorithm: sha1WithRSAEncryption
         8f:a9:1a:91:6d:04:a6:37:20:0e:83:96:de:23:d3:6b:6e:1f:
         6e:dd:64:3d:68:21:22:b5:f8:47:36:69:8e:e1:a5:45:c7:24:
         a2:22:b7:29:09:cc:54:5a:ae:c6:bc:cd:63:8e:b3:3d:50:48:
         e5:b4:cc:ae:cd:92:8d:9e:28:8b:13:4a:11:aa:bd:a3:ef:d3:
         b2:36:fc:b4:a1:72:bf:6d:97:63:79:8c:44:bc:70:2f:7e:f3:
         bc:dd:82:53:ab:1a:f6:eb:fa:1c:97:bc:b6:37:9c:a4:1c:30:
         bc:ab:bc:2d:47:36:df:92:20:03:e8:71:c6:58:f6:75:05:9a:
         34:f0:0b:59:5a:82:44:34:aa:80:e4:2f:84:f6:47:5d:96:c9:
         b6:ca:ca:9d:b7:a6:ba:e4:50:d3:d4:37:b8:ba:20:0e:d0:d3:
         92:2a:5b:c4:59:bb:a1:6d:db:3c:ce:44:9d:c1:38:2a:ad:e3:
         8d:bd:cd:09:77:1a:10:be:67:0a:02:36:64:88:b9:b3:1b:26:
         ee:e7:9e:60:c4:46:a8:bc:61:33:6c:cf:4e:b9:9c:b9:6a:f0:
         9f:37:fe:b5:3d:4f:9a:d3:4d:ff:de:20:8e:4e:97:a6:fd:9f:
         09:bc:4d:ca:18:76:c9:b0:4d:85:50:f2:80:d2:1d:06:f5:58:
         04:07:b1:18
-----BEGIN CERTIFICATE-----
MIIEnzCCA4egAwIBAgISESHWmadklz7x+EJ+6RnMU0EUMA0GCSqGSIb3DQEBBQUA
MFIxCzAJBgNVBAYTAkJFMRkwFwYDVQQKExBHbG9iYWxTaWduIG52LXNhMSgwJgYD
VQQDEx9HbG9iYWxTaWduIFRpbWVzdGFtcGluZyBDQSAtIEcyMB4XDTE2MDUyNDAw
MDAwMFoXDTI3MDYyNDAwMDAwMFowYDELMAkGA1UEBhMCU0cxHzAdBgNVBAoTFkdN
TyBHbG9iYWxTaWduIFB0ZSBMdGQxMDAuBgNVBAMTJ0dsb2JhbFNpZ24gVFNBIGZv
ciBNUyBBdXRoZW50aWNvZGUgLSBHMjCCASIwDQYJKoZIhvcNAQEBBQADggEPADCC
AQoCggEBALAXrqLTtgQwVh5YD7HtVaTWVMvY9nM67F1eqyX9NqX6hMNhQMVGtVlS
O0KiLl8TYhCpW+Zz1pIlsX0j4wazhzoOQ/DXAIlTohExUihuXUByPPIJd6dJkpfU
bJCgdqf9uNyznfIHYCxPWJgAa9MVVOD63f+ALF8Yppj/1KvsoUVZsi5vYl3g2Rms
i1ecqCYr2RelENJHCBpwLDOLf2iAKrWhXWvdjQICKQOqfDe7uylOPVOTs6b6j9JY
kxVMuS2rgKOjJfuv9whksHpED1wQ119hN6pOa9PSUyWdgnP6LPlysKkZOSpQ+qnQ
PDrK6Fvv9V9R9PkK2Zc13mqF5iMEQq8CAwEAAaOCAV8wggFbMA4GA1UdDwEB/wQE
AwIHgDBMBgNVHSAERTBDMEEGCSsGAQQBoDIBHjA0MDIGCCsGAQUFBwIBFiZodHRw
czovL3d3dy5nbG9iYWxzaWduLmNvbS9yZXBvc2l0b3J5LzAJBgNVHRMEAjAAMBYG
A1UdJQEB/wQMMAoGCCsGAQUFBwMIMEIGA1UdHwQ7MDkwN6A1oDOGMWh0dHA6Ly9j
cmwuZ2xvYmFsc2lnbi5jb20vZ3MvZ3N0aW1lc3RhbXBpbmdnMi5jcmwwVAYIKwYB
BQUHAQEESDBGMEQGCCsGAQUFBzAChjhodHRwOi8vc2VjdXJlLmdsb2JhbHNpZ24u
Y29tL2NhY2VydC9nc3RpbWVzdGFtcGluZ2cyLmNydDAdBgNVHQ4EFgQU1KKESjha
GH+6TzBQvZ3VeofWCfcwHwYDVR0jBBgwFoAURtg+/9zjvv+D5vSFm7DdatYUqcEw
DQYJKoZIhvcNAQEFBQADggEBAI+pGpFtBKY3IA6Dlt4j02tuH27dZD1oISK1+Ec2
aY7hpUXHJKIitykJzFRarsa8zWOOsz1QSOW0zK7Nko2eKIsTShGqvaPv07I2/LSh
cr9tl2N5jES8cC9+87zdglOrGvbr+hyXvLY3nKQcMLyrvC1HNt+SIAPoccZY9nUF
mjTwC1lagkQ0qoDkL4T2R12WybbKyp23prrkUNPUN7i6IA7Q05IqW8RZu6Ft2zzO
RJ3BOCqt4429zQl3GhC+ZwoCNmSIubMbJu7nnmDERqi8YTNsz065nLlq8J83/rU9
T5rTTf/eII5Ol6b9nwm8TcoYdsmwTYVQ8oDSHQb1WAQHsRg=
-----END CERTIFICATE-----

Certificate:
    Data:
        Version: 3 (0x2)
        Serial Number:
            48:1b:6a:07:a9:42:4c:1e:aa:fe:f3:cd:f1:0f
    Signature Algorithm: sha256WithRSAEncryption
        Issuer: OU=GlobalSign Root CA - R3, O=GlobalSign, CN=GlobalSign
        Validity
            Not Before: Jun 15 00:00:00 2016 GMT
            Not After : Jun 15 00:00:00 2024 GMT
        Subject: C=BE, O=GlobalSign nv-sa, CN=GlobalSign Extended Validation CodeSigning CA - SHA256 - G3
        Subject Public Key Info:
            Public Key Algorithm: rsaEncryption
                Public-Key: (2048 bit)
                Modulus:
                    00:d9:b7:ba:25:ad:94:f3:5b:be:41:06:1c:53:ca:
                    0c:10:8c:51:41:59:33:79:64:f4:57:9d:e4:d5:25:
                    c4:ec:50:84:58:98:72:79:40:e2:2f:78:d4:92:ea:
                    26:0e:9e:ae:95:7c:fb:c4:fd:71:44:dd:8c:5f:b7:
                    23:8b:5e:bb:f4:fc:4b:cb:23:3d:c3:76:03:f5:d1:
                    8c:45:bc:71:75:1d:8b:d2:89:89:be:e3:51:3d:c6:
                    c8:8a:b2:31:35:07:6e:b9:f5:ba:6a:0d:f4:10:9f:
                    ae:d5:62:49:28:7b:ec:57:ba:ab:32:7c:b1:7d:d2:
                    a2:56:06:36:ee:b0:ef:d0:6a:ae:ea:ab:1f:d6:0d:
                    9f:7c:96:fb:ad:70:99:2d:5d:95:f0:80:d0:79:46:
                    ec:55:3a:cc:d3:38:fb:04:07:a8:07:75:82:82:e0:
                    d0:7e:77:b8:8f:eb:d2:28:fc:ae:6d:14:68:41:7f:
                    76:43:d7:48:ba:60:44:e1:b7:72:e8:d0:f0:20:03:
                    7b:da:da:b4:06:75:c7:b2:03:de:f8:94:c6:68:8f:
                    5e:7b:9e:9b:9d:36:e0:ce:d2:6b:c6:c6:6b:e9:14:
                    22:b5:71:7e:b6:8f:5a:1f:db:e7:6e:f4:42:10:90:
                    68:e6:2b:45:10:4f:73:ba:2c:d7:c5:31:6a:72:dd:
                    63:73
                Exponent: 65537 (0x10001)
        X509v3 extensions:
            X509v3 Key Usage: critical
                Certificate Sign, CRL Sign
            X509v3 Extended Key Usage: 
                Code Signing, OCSP Signing
            X509v3 Basic Constraints: critical
                CA:TRUE, pathlen:0
            X509v3 Subject Key Identifier: 
                DC:2C:58:2C:2A:6F:35:2D:9F:79:95:A8:48:5D:C4:6D:3E:53:BF:B9
            X509v3 Authority Key Identifier: 
                keyid:8F:F0:4B:7F:A8:2E:45:24:AE:4D:50:FA:63:9A:8B:DE:E2:DD:1B:BC

            Authority Information Access: 
                OCSP - URI:http://ocsp2.globalsign.com/rootr3

            X509v3 CRL Distribution Points: 

                Full Name:
                  URI:http://crl.globalsign.com/root-r3.crl

            X509v3 Certificate Policies: 
                Policy: 1.3.6.1.4.1.4146.1.2
                Policy: 2.23.140.1.3
                Policy: 1.3.6.1.4.1.4146.1.95
                  CPS: https://www.globalsign.com/repository/

    Signature Algorithm: sha256WithRSAEncryption
         76:09:c4:cc:2f:d9:ef:1e:4b:a9:f8:57:f3:40:39:21:ca:4c:
         3c:1d:9e:29:2b:20:d4:2b:44:d2:88:ce:1a:0d:05:cf:83:81:
         bb:eb:69:bc:31:8d:2a:c4:c7:44:cc:60:60:94:1c:cf:a1:e1:
         02:24:0e:ad:5b:be:2c:c2:27:1e:67:b7:e8:28:1f:32:51:e3:
         39:f3:98:df:b8:9f:2e:8b:2a:b4:7b:0a:03:bc:bd:36:04:8f:
         c9:d0:9c:4f:a3:02:27:99:b0:f0:45:e9:34:df:e4:3a:a3:b7:
         06:37:d8:6f:2a:79:90:d4:d4:4e:58:71:ec:53:a9:61:98:f7:
         39:69:e0:12:9c:57:58:72:86:27:29:a5:1d:e5:32:f3:2b:99:
         97:5a:bf:2b:b0:3c:b4:06:ea:0e:64:ec:b7:cd:65:80:24:17:
         c2:d9:37:f5:b1:26:10:35:47:7b:9a:02:ba:54:a2:45:93:ff:
         79:bf:1a:8c:c5:9f:b5:9f:df:78:e7:6b:50:f1:47:94:69:4b:
         24:b8:da:05:e8:0c:9d:4f:06:ec:4a:31:20:7e:4f:5d:86:84:
         2f:35:a3:cd:9c:c1:84:57:1f:1f:ad:c0:e2:a4:b1:ef:29:6b:
         21:97:a6:d4:fe:ed:03:37:b0:fc:f5:8d:2a:bc:dc:84:83:e3:
         de:c3:e7:5f
-----BEGIN CERTIFICATE-----
MIIEpzCCA4+gAwIBAgIOSBtqB6lCTB6q/vPN8Q8wDQYJKoZIhvcNAQELBQAwTDEg
MB4GA1UECxMXR2xvYmFsU2lnbiBSb290IENBIC0gUjMxEzARBgNVBAoTCkdsb2Jh
bFNpZ24xEzARBgNVBAMTCkdsb2JhbFNpZ24wHhcNMTYwNjE1MDAwMDAwWhcNMjQw
NjE1MDAwMDAwWjBuMQswCQYDVQQGEwJCRTEZMBcGA1UEChMQR2xvYmFsU2lnbiBu
di1zYTFEMEIGA1UEAxM7R2xvYmFsU2lnbiBFeHRlbmRlZCBWYWxpZGF0aW9uIENv
ZGVTaWduaW5nIENBIC0gU0hBMjU2IC0gRzMwggEiMA0GCSqGSIb3DQEBAQUAA4IB
DwAwggEKAoIBAQDZt7olrZTzW75BBhxTygwQjFFBWTN5ZPRXneTVJcTsUIRYmHJ5
QOIveNSS6iYOnq6VfPvE/XFE3YxftyOLXrv0/EvLIz3DdgP10YxFvHF1HYvSiYm+
41E9xsiKsjE1B2659bpqDfQQn67VYkkoe+xXuqsyfLF90qJWBjbusO/Qaq7qqx/W
DZ98lvutcJktXZXwgNB5RuxVOszTOPsEB6gHdYKC4NB+d7iP69Io/K5tFGhBf3ZD
10i6YETht3Lo0PAgA3va2rQGdceyA974lMZoj157npudNuDO0mvGxmvpFCK1cX62
j1of2+du9EIQkGjmK0UQT3O6LNfFMWpy3WNzAgMBAAGjggFjMIIBXzAOBgNVHQ8B
Af8EBAMCAQYwHQYDVR0lBBYwFAYIKwYBBQUHAwMGCCsGAQUFBwMJMBIGA1UdEwEB
/wQIMAYBAf8CAQAwHQYDVR0OBBYEFNwsWCwqbzUtn3mVqEhdxG0+U7+5MB8GA1Ud
IwQYMBaAFI/wS3+oLkUkrk1Q+mOai97i3Ru8MD4GCCsGAQUFBwEBBDIwMDAuBggr
BgEFBQcwAYYiaHR0cDovL29jc3AyLmdsb2JhbHNpZ24uY29tL3Jvb3RyMzA2BgNV
HR8ELzAtMCugKaAnhiVodHRwOi8vY3JsLmdsb2JhbHNpZ24uY29tL3Jvb3QtcjMu
Y3JsMGIGA1UdIARbMFkwCwYJKwYBBAGgMgECMAcGBWeBDAEDMEEGCSsGAQQBoDIB
XzA0MDIGCCsGAQUFBwIBFiZodHRwczovL3d3dy5nbG9iYWxzaWduLmNvbS9yZXBv
c2l0b3J5LzANBgkqhkiG9w0BAQsFAAOCAQEAdgnEzC/Z7x5LqfhX80A5IcpMPB2e
KSsg1CtE0ojOGg0Fz4OBu+tpvDGNKsTHRMxgYJQcz6HhAiQOrVu+LMInHme36Cgf
MlHjOfOY37ifLosqtHsKA7y9NgSPydCcT6MCJ5mw8EXpNN/kOqO3BjfYbyp5kNTU
Tlhx7FOpYZj3OWngEpxXWHKGJymlHeUy8yuZl1q/K7A8tAbqDmTst81lgCQXwtk3
9bEmEDVHe5oCulSiRZP/eb8ajMWftZ/feOdrUPFHlGlLJLjaBegMnU8G7EoxIH5P
XYaELzWjzZzBhFcfH63A4qSx7ylrIZem1P7tAzew/PWNKrzchIPj3sPnXw==
-----END CERTIFICATE-----

Certificate:
    Data:
        Version: 3 (0x2)
        Serial Number:
            4c:4f:2e:e6:57:47:d1:05:8e:20:72:b9
    Signature Algorithm: sha256WithRSAEncryption
        Issuer: C=BE, O=GlobalSign nv-sa, CN=GlobalSign Extended Validation CodeSigning CA - SHA256 - G3
        Validity
            Not Before: Aug 23 14:45:01 2016 GMT
            Not After : Aug 24 14:45:01 2019 GMT
        Subject: businessCategory=Private Organization/serialNumber=14033747/jurisdictionC=EE, C=EE, ST=Harju maakond, L=Tallinn/street=Pae tn 21, O=ScandinavianByte OU, CN=ScandinavianByte OU
        Subject Public Key Info:
            Public Key Algorithm: rsaEncryption
                Public-Key: (2048 bit)
                Modulus:
                    00:be:a3:6d:38:37:a8:e4:88:6b:7a:73:e6:5d:6f:
                    49:a7:a8:28:6d:9a:00:69:d0:33:3a:0c:f1:40:b3:
                    c6:40:27:ed:87:bc:79:92:24:07:2b:6b:e1:81:8e:
                    5c:41:ae:12:5b:bc:48:99:62:18:16:d2:4f:12:44:
                    7c:62:2c:d3:ec:6e:cf:60:7c:ca:d0:98:95:3f:0d:
                    c8:9a:36:29:5b:e2:d9:31:32:e7:dc:5f:f9:d9:5b:
                    0d:b2:7d:41:57:e4:81:8c:ff:5c:64:8c:3b:f4:a1:
                    35:03:5a:f6:84:5d:6a:2d:39:13:94:e4:96:0d:60:
                    c0:86:41:b9:d2:72:40:f1:9d:66:ab:30:79:f5:4c:
                    7d:e9:6c:1a:36:fa:55:1f:11:c0:a5:46:e8:4d:2d:
                    24:5c:da:5b:3d:3d:b7:cb:75:e2:78:cd:3a:42:43:
                    98:b4:ce:cf:46:c2:05:8f:bb:6b:6e:c0:be:e8:56:
                    b0:6c:dc:c0:d2:2f:46:e3:cd:3d:40:c9:0b:d2:e2:
                    52:0e:37:54:7a:b1:12:f6:bd:66:8c:55:ec:6a:28:
                    b5:28:ba:0b:44:23:06:d8:bb:61:cb:98:f2:7d:b3:
                    db:1c:ce:ec:2e:e1:88:cc:6d:91:a7:b8:c0:a2:05:
                    54:e9:99:12:ef:08:a4:3b:94:8f:d9:1f:cf:8d:f0:
                    ef:13
                Exponent: 65537 (0x10001)
        X509v3 extensions:
            X509v3 Key Usage: critical
                Digital Signature
            Authority Information Access: 
                CA Issuers - URI:http://secure.globalsign.com/cacert/gsextendcodesignsha2g3ocsp.crt
                OCSP - URI:http://ocsp2.globalsign.com/gsextendcodesignsha2g3

            X509v3 Certificate Policies: 
                Policy: 1.3.6.1.4.1.4146.1.2
                  CPS: https://www.globalsign.com/repository/
                Policy: 2.23.140.1.3

            X509v3 Basic Constraints: 
                CA:FALSE
            X509v3 CRL Distribution Points: 

                Full Name:
                  URI:http://crl.globalsign.com/gsextendcodesignsha2g3.crl

            X509v3 Subject Alternative Name: 
                othername:<unsupported>
            X509v3 Extended Key Usage: 
                Code Signing
            X509v3 Subject Key Identifier: 
                3B:EF:8C:19:C6:65:50:60:B3:5B:03:13:79:76:41:0F:05:0E:F7:34
            X509v3 Authority Key Identifier: 
                keyid:DC:2C:58:2C:2A:6F:35:2D:9F:79:95:A8:48:5D:C4:6D:3E:53:BF:B9

    Signature Algorithm: sha256WithRSAEncryption
         85:04:dc:db:fa:05:cd:16:3c:9a:64:74:3e:f0:93:11:97:01:
         ce:53:e7:74:3f:a7:e6:a3:21:ad:7f:52:53:25:41:21:47:06:
         fc:6c:a8:5b:42:89:00:78:99:64:43:a8:51:af:8e:22:e6:12:
         1c:8e:e8:10:29:da:df:22:f3:6b:bd:55:54:c6:0f:79:27:6b:
         df:d9:ec:60:1e:d2:1b:47:f6:db:06:7f:c0:89:ef:60:d3:b6:
         59:5f:aa:00:92:2c:3b:dc:b8:e3:70:41:25:3d:74:f9:7d:57:
         c8:79:1f:4a:e6:1d:fd:5f:0f:f0:9e:5d:c4:fa:06:d5:b8:f4:
         d0:5d:14:b0:c9:08:74:ca:0c:1f:c5:cc:92:ce:44:59:f6:aa:
         39:db:6d:ad:a8:43:1d:f0:f3:37:f1:b2:0d:61:df:8c:f4:8e:
         83:01:b9:c0:4b:6a:68:d3:aa:fb:12:c7:55:d3:61:14:d2:0d:
         78:c2:dd:5d:42:b7:00:11:b8:eb:22:3c:b6:c6:a9:bf:db:5e:
         cd:d4:66:6c:77:42:2e:3b:c0:8d:8a:2d:55:29:74:6c:e7:1a:
         84:d1:d4:0f:f4:30:4e:2d:9f:00:e7:30:49:9c:8f:73:2d:c5:
         68:dc:d1:4e:01:a6:8d:39:2d:28:c6:d9:f5:af:14:bd:aa:7e:
         09:d7:72:d3
-----BEGIN CERTIFICATE-----
MIIFojCCBIqgAwIBAgIMTE8u5ldH0QWOIHK5MA0GCSqGSIb3DQEBCwUAMG4xCzAJ
BgNVBAYTAkJFMRkwFwYDVQQKExBHbG9iYWxTaWduIG52LXNhMUQwQgYDVQQDEztH
bG9iYWxTaWduIEV4dGVuZGVkIFZhbGlkYXRpb24gQ29kZVNpZ25pbmcgQ0EgLSBT
SEEyNTYgLSBHMzAeFw0xNjA4MjMxNDQ1MDFaFw0xOTA4MjQxNDQ1MDFaMIHOMR0w
GwYDVQQPDBRQcml2YXRlIE9yZ2FuaXphdGlvbjERMA8GA1UEBRMIMTQwMzM3NDcx
EzARBgsrBgEEAYI3PAIBAxMCRUUxCzAJBgNVBAYTAkVFMRYwFAYDVQQIEw1IYXJq
dSBtYWFrb25kMRAwDgYDVQQHEwdUYWxsaW5uMRIwEAYDVQQJEwlQYWUgdG4gMjEx
HDAaBgNVBAoTE1NjYW5kaW5hdmlhbkJ5dGUgT1UxHDAaBgNVBAMTE1NjYW5kaW5h
dmlhbkJ5dGUgT1UwggEiMA0GCSqGSIb3DQEBAQUAA4IBDwAwggEKAoIBAQC+o204
N6jkiGt6c+Zdb0mnqChtmgBp0DM6DPFAs8ZAJ+2HvHmSJAcra+GBjlxBrhJbvEiZ
YhgW0k8SRHxiLNPsbs9gfMrQmJU/DciaNilb4tkxMufcX/nZWw2yfUFX5IGM/1xk
jDv0oTUDWvaEXWotOROU5JYNYMCGQbnSckDxnWarMHn1TH3pbBo2+lUfEcClRuhN
LSRc2ls9PbfLdeJ4zTpCQ5i0zs9GwgWPu2tuwL7oVrBs3MDSL0bjzT1AyQvS4lIO
N1R6sRL2vWaMVexqKLUougtEIwbYu2HLmPJ9s9sczuwu4YjMbZGnuMCiBVTpmRLv
CKQ7lI/ZH8+N8O8TAgMBAAGjggHdMIIB2TAOBgNVHQ8BAf8EBAMCB4AwgaAGCCsG
AQUFBwEBBIGTMIGQME4GCCsGAQUFBzAChkJodHRwOi8vc2VjdXJlLmdsb2JhbHNp
Z24uY29tL2NhY2VydC9nc2V4dGVuZGNvZGVzaWduc2hhMmczb2NzcC5jcnQwPgYI
KwYBBQUHMAGGMmh0dHA6Ly9vY3NwMi5nbG9iYWxzaWduLmNvbS9nc2V4dGVuZGNv
ZGVzaWduc2hhMmczMFUGA1UdIAROMEwwQQYJKwYBBAGgMgECMDQwMgYIKwYBBQUH
AgEWJmh0dHBzOi8vd3d3Lmdsb2JhbHNpZ24uY29tL3JlcG9zaXRvcnkvMAcGBWeB
DAEDMAkGA1UdEwQCMAAwRQYDVR0fBD4wPDA6oDigNoY0aHR0cDovL2NybC5nbG9i
YWxzaWduLmNvbS9nc2V4dGVuZGNvZGVzaWduc2hhMmczLmNybDAmBgNVHREEHzAd
oBsGCCsGAQUFBwgDoA8wDQwLRUUtMTQwMzM3NDcwEwYDVR0lBAwwCgYIKwYBBQUH
AwMwHQYDVR0OBBYEFDvvjBnGZVBgs1sDE3l2QQ8FDvc0MB8GA1UdIwQYMBaAFNws
WCwqbzUtn3mVqEhdxG0+U7+5MA0GCSqGSIb3DQEBCwUAA4IBAQCFBNzb+gXNFjya
ZHQ+8JMRlwHOU+d0P6fmoyGtf1JTJUEhRwb8bKhbQokAeJlkQ6hRr44i5hIcjugQ
KdrfIvNrvVVUxg95J2vf2exgHtIbR/bbBn/Aie9g07ZZX6oAkiw73LjjcEElPXT5
fVfIeR9K5h39Xw/wnl3E+gbVuPTQXRSwyQh0ygwfxcySzkRZ9qo5222tqEMd8PM3
8bINYd+M9I6DAbnAS2po06r7EsdV02EU0g14wt1dQrcAEbjrIjy2xqm/217N1GZs
d0IuO8CNii1VKXRs5xqE0dQP9DBOLZ8A5zBJnI9zLcVo3NFOAaaNOS0oxtn1rxS9
qn4J13LT
-----END CERTIFICATE-----

