Certificate:
    Data:
        Version: 3 (0x2)
        Serial Number:
            18:da:d1:9e:26:7d:e8:bb:4a:21:58:cd:cc:6b:3b:4a
    Signature Algorithm: sha1WithRSAEncryption
        Issuer: C=US, O=VeriSign, Inc., OU=VeriSign Trust Network, OU=(c) 2006 VeriSign, Inc. - For authorized use only, CN=VeriSign Class 3 Public Primary Certification Authority - G5
        Validity
            Not Before: Nov  8 00:00:00 2006 GMT
            Not After : Jul 16 23:59:59 2036 GMT
        Subject: C=US, O=VeriSign, Inc., OU=VeriSign Trust Network, OU=(c) 2006 VeriSign, Inc. - For authorized use only, CN=VeriSign Class 3 Public Primary Certification Authority - G5
        Subject Public Key Info:
            Public Key Algorithm: rsaEncryption
                Public-Key: (2048 bit)
                Modulus:
                    00:af:24:08:08:29:7a:35:9e:60:0c:aa:e7:4b:3b:
                    4e:dc:7c:bc:3c:45:1c:bb:2b:e0:fe:29:02:f9:57:
                    08:a3:64:85:15:27:f5:f1:ad:c8:31:89:5d:22:e8:
                    2a:aa:a6:42:b3:8f:f8:b9:55:b7:b1:b7:4b:b3:fe:
                    8f:7e:07:57:ec:ef:43:db:66:62:15:61:cf:60:0d:
                    a4:d8:de:f8:e0:c3:62:08:3d:54:13:eb:49:ca:59:
                    54:85:26:e5:2b:8f:1b:9f:eb:f5:a1:91:c2:33:49:
                    d8:43:63:6a:52:4b:d2:8f:e8:70:51:4d:d1:89:69:
                    7b:c7:70:f6:b3:dc:12:74:db:7b:5d:4b:56:d3:96:
                    bf:15:77:a1:b0:f4:a2:25:f2:af:1c:92:67:18:e5:
                    f4:06:04:ef:90:b9:e4:00:e4:dd:3a:b5:19:ff:02:
                    ba:f4:3c:ee:e0:8b:eb:37:8b:ec:f4:d7:ac:f2:f6:
                    f0:3d:af:dd:75:91:33:19:1d:1c:40:cb:74:24:19:
                    21:93:d9:14:fe:ac:2a:52:c7:8f:d5:04:49:e4:8d:
                    63:47:88:3c:69:83:cb:fe:47:bd:2b:7e:4f:c5:95:
                    ae:0e:9d:d4:d1:43:c0:67:73:e3:14:08:7e:e5:3f:
                    9f:73:b8:33:0a:cf:5d:3f:34:87:96:8a:ee:53:e8:
                    25:15
                Exponent: 65537 (0x10001)
        X509v3 extensions:
            X509v3 Basic Constraints: critical
                CA:TRUE
            X509v3 Key Usage: critical
                Certificate Sign, CRL Sign
            1.3.6.1.5.5.7.1.12: 
                0_.].[0Y0W0U..image/gif0!0.0...+..............k...j.H.,{..0%.#http://logo.verisign.com/vslogo.gif
            X509v3 Subject Key Identifier: 
                7F:D3:65:A7:C2:DD:EC:BB:F0:30:09:F3:43:39:FA:02:AF:33:31:33
    Signature Algorithm: sha1WithRSAEncryption
         93:24:4a:30:5f:62:cf:d8:1a:98:2f:3d:ea:dc:99:2d:bd:77:
         f6:a5:79:22:38:ec:c4:a7:a0:78:12:ad:62:0e:45:70:64:c5:
         e7:97:66:2d:98:09:7e:5f:af:d6:cc:28:65:f2:01:aa:08:1a:
         47:de:f9:f9:7c:92:5a:08:69:20:0d:d9:3e:6d:6e:3c:0d:6e:
         d8:e6:06:91:40:18:b9:f8:c1:ed:df:db:41:aa:e0:96:20:c9:
         cd:64:15:38:81:c9:94:ee:a2:84:29:0b:13:6f:8e:db:0c:dd:
         25:02:db:a4:8b:19:44:d2:41:7a:05:69:4a:58:4f:60:ca:7e:
         82:6a:0b:02:aa:25:17:39:b5:db:7f:e7:84:65:2a:95:8a:bd:
         86:de:5e:81:16:83:2d:10:cc:de:fd:a8:82:2a:6d:28:1f:0d:
         0b:c4:e5:e7:1a:26:19:e1:f4:11:6f:10:b5:95:fc:e7:42:05:
         32:db:ce:9d:51:5e:28:b6:9e:85:d3:5b:ef:a5:7d:45:40:72:
         8e:b7:0e:6b:0e:06:fb:33:35:48:71:b8:9d:27:8b:c4:65:5f:
         0d:86:76:9c:44:7a:f6:95:5c:f6:5d:32:08:33:a4:54:b6:18:
         3f:68:5c:f2:42:4a:85:38:54:83:5f:d1:e8:2c:f2:ac:11:d6:
         a8:ed:63:6a
-----BEGIN CERTIFICATE-----
MIIE0zCCA7ugAwIBAgIQGNrRniZ96LtKIVjNzGs7SjANBgkqhkiG9w0BAQUFADCB
yjELMAkGA1UEBhMCVVMxFzAVBgNVBAoTDlZlcmlTaWduLCBJbmMuMR8wHQYDVQQL
ExZWZXJpU2lnbiBUcnVzdCBOZXR3b3JrMTowOAYDVQQLEzEoYykgMjAwNiBWZXJp
U2lnbiwgSW5jLiAtIEZvciBhdXRob3JpemVkIHVzZSBvbmx5MUUwQwYDVQQDEzxW
ZXJpU2lnbiBDbGFzcyAzIFB1YmxpYyBQcmltYXJ5IENlcnRpZmljYXRpb24gQXV0
aG9yaXR5IC0gRzUwHhcNMDYxMTA4MDAwMDAwWhcNMzYwNzE2MjM1OTU5WjCByjEL
MAkGA1UEBhMCVVMxFzAVBgNVBAoTDlZlcmlTaWduLCBJbmMuMR8wHQYDVQQLExZW
ZXJpU2lnbiBUcnVzdCBOZXR3b3JrMTowOAYDVQQLEzEoYykgMjAwNiBWZXJpU2ln
biwgSW5jLiAtIEZvciBhdXRob3JpemVkIHVzZSBvbmx5MUUwQwYDVQQDEzxWZXJp
U2lnbiBDbGFzcyAzIFB1YmxpYyBQcmltYXJ5IENlcnRpZmljYXRpb24gQXV0aG9y
aXR5IC0gRzUwggEiMA0GCSqGSIb3DQEBAQUAA4IBDwAwggEKAoIBAQCvJAgIKXo1
nmAMqudLO07cfLw8RRy7K+D+KQL5VwijZIUVJ/XxrcgxiV0i6CqqpkKzj/i5Vbex
t0uz/o9+B1fs70PbZmIVYc9gDaTY3vjgw2IIPVQT60nKWVSFJuUrjxuf6/WhkcIz
SdhDY2pSS9KP6HBRTdGJaXvHcPaz3BJ023tdS1bTlr8Vd6Gw9KIl8q8ckmcY5fQG
BO+QueQA5N06tRn/Arr0PO7gi+s3i+z016zy9vA9r911kTMZHRxAy3QkGSGT2RT+
rCpSx4/VBEnkjWNHiDxpg8v+R70rfk/Fla4OndTRQ8Bnc+MUCH7lP59zuDMKz10/
NIeWiu5T6CUVAgMBAAGjgbIwga8wDwYDVR0TAQH/BAUwAwEB/zAOBgNVHQ8BAf8E
BAMCAQYwbQYIKwYBBQUHAQwEYTBfoV2gWzBZMFcwVRYJaW1hZ2UvZ2lmMCEwHzAH
BgUrDgMCGgQUj+XTGoasjY5rw8+AatRIGCx7GS4wJRYjaHR0cDovL2xvZ28udmVy
aXNpZ24uY29tL3ZzbG9nby5naWYwHQYDVR0OBBYEFH/TZafC3ey78DAJ80M5+gKv
MzEzMA0GCSqGSIb3DQEBBQUAA4IBAQCTJEowX2LP2BqYLz3q3JktvXf2pXkiOOzE
p6B4Eq1iDkVwZMXnl2YtmAl+X6/WzChl8gGqCBpH3vn5fJJaCGkgDdk+bW48DW7Y
5gaRQBi5+MHt39tBquCWIMnNZBU4gcmU7qKEKQsTb47bDN0lAtukixlE0kF6BWlK
WE9gyn6CagsCqiUXObXbf+eEZSqVir2G3l6BFoMtEMze/aiCKm0oHw0LxOXnGiYZ
4fQRbxC1lfznQgUy286dUV4otp6F01vvpX1FQHKOtw5rDgb7MzVIcbidJ4vEZV8N
hnacRHr2lVz2XTIIM6RUthg/aFzyQkqFOFSDX9HoLPKsEdao7WNq
-----END CERTIFICATE-----

Certificate:
    Data:
        Version: 3 (0x2)
        Serial Number: 1276613439 (0x4c17933f)
    Signature Algorithm: sha1WithRSAEncryption
        Issuer: C=US, O=Entrust, Inc., OU=www.entrust.net/rpa is incorporated by reference, OU=(c) 2009 Entrust, Inc., CN=Entrust Code Signing Certification Authority - L1D
        Validity
            Not Before: Dec  9 19:04:37 2014 GMT
            Not After : Dec 10 06:53:31 2017 GMT
        Subject: C=CA, ST=Ontario, L=Ottawa, O=Entrust, Inc., CN=Entrust Time Stamping Authority
        Subject Public Key Info:
            Public Key Algorithm: rsaEncryption
                Public-Key: (2048 bit)
                Modulus:
                    00:8d:1b:e2:8d:f4:4e:d5:d0:78:be:40:0f:36:07:
                    3c:30:37:12:cd:3a:f1:36:ff:42:19:76:02:37:6d:
                    5b:94:a8:01:43:04:ba:de:c0:54:1f:c6:e4:c3:98:
                    10:b3:5d:bb:64:70:e3:71:ba:65:f3:a6:35:23:3d:
                    3f:2a:74:2a:ac:cd:04:8b:dc:ea:52:d9:10:ab:27:
                    97:b5:e6:2d:4b:4c:9a:dd:32:5d:ec:e6:d0:9d:c5:
                    30:61:ff:9a:d5:75:39:cf:bb:c7:5c:f1:88:bf:53:
                    6c:f7:35:7e:8c:7f:56:b6:ab:e7:c8:1d:08:c5:4e:
                    2d:3d:cd:ba:2a:9b:6f:85:1b:62:7b:fa:ee:04:eb:
                    83:53:b7:4e:5f:81:d0:0a:5f:96:d3:bc:58:37:8e:
                    75:8f:30:d4:be:d4:21:11:ae:ab:19:9e:1d:72:2c:
                    db:1f:1c:aa:7e:54:3d:a4:d9:e6:c0:e2:04:0c:19:
                    a1:6e:83:8a:af:cc:6d:7c:d0:c9:2d:d9:be:49:d0:
                    2f:7a:5e:0c:12:d4:64:1e:99:b2:34:a4:6b:26:62:
                    69:25:bf:ee:71:0f:b2:74:e0:7c:27:71:d2:73:14:
                    71:a6:51:75:c7:bd:6c:65:ec:bb:f9:1d:79:7c:ae:
                    d7:89:d2:5f:b0:a1:eb:51:20:e5:dd:0c:70:02:39:
                    a3:69
                Exponent: 65537 (0x10001)
        X509v3 extensions:
            X509v3 Key Usage: critical
                Digital Signature
            X509v3 Extended Key Usage: critical
                Time Stamping
            X509v3 CRL Distribution Points: 

                Full Name:
                  URI:http://crl.entrust.net/level1d.crl

            Authority Information Access: 
                OCSP - URI:http://ocsp.entrust.net

            X509v3 Certificate Policies: 
                Policy: 2.16.840.1.114028.10.1.7
                  CPS: http://www.entrust.net/rpa

            X509v3 Authority Key Identifier: 
                keyid:A7:B1:AA:C4:B6:06:ED:DD:CA:9F:88:94:96:82:D5:E7:43:41:D1:25

            X509v3 Subject Key Identifier: 
                A7:1F:AD:F3:8C:91:0C:62:92:63:FE:19:02:ED:78:5A:52:D7:D8:D9
            X509v3 Basic Constraints: 
                CA:FALSE
    Signature Algorithm: sha1WithRSAEncryption
         c9:c9:71:e8:a3:6d:f5:c5:54:2a:59:8e:88:f9:2d:07:f5:29:
         e8:45:39:97:ec:d1:23:2e:33:46:0b:8c:3f:33:4e:5d:31:38:
         e8:76:ef:15:13:f6:d5:be:ae:36:ad:c0:83:6d:9d:df:c8:d0:
         cb:40:b1:87:6f:7e:50:0f:73:13:d2:30:cd:8e:5e:e4:43:00:
         57:ef:03:ff:4e:e3:11:82:f5:95:46:fb:c4:15:58:c9:91:48:
         25:44:a9:3c:bb:0e:7e:53:8b:b9:2b:f7:4f:b8:5a:a3:c3:f4:
         00:f9:aa:99:67:80:4f:21:b1:91:3d:ec:01:4d:f9:be:fc:3a:
         e9:b8:50:d1:4a:3d:a2:e1:6f:16:50:11:74:58:af:56:31:67:
         b5:c5:5d:2a:6d:39:eb:9b:5d:49:c0:89:05:9d:4c:14:18:17:
         0c:16:fc:1a:b6:1b:dc:17:6e:5c:00:fd:d8:b7:fb:7b:18:71:
         8a:f7:a1:2d:a4:62:d4:c1:81:da:eb:a2:7a:f0:ed:39:bd:2d:
         8c:3c:53:f1:21:51:e5:28:5a:0f:93:68:66:13:a7:20:bc:37:
         dd:e2:11:f2:3b:bb:33:78:7c:cf:d9:f5:94:97:88:a7:b8:ff:
         e0:72:64:e5:2a:8a:0e:86:82:38:7f:cf:de:00:e4:a6:4b:ca:
         28:64:49:ae
-----BEGIN CERTIFICATE-----
MIIE1TCCA72gAwIBAgIETBeTPzANBgkqhkiG9w0BAQUFADCBvjELMAkGA1UEBhMC
VVMxFjAUBgNVBAoTDUVudHJ1c3QsIEluYy4xOTA3BgNVBAsTMHd3dy5lbnRydXN0
Lm5ldC9ycGEgaXMgaW5jb3Jwb3JhdGVkIGJ5IHJlZmVyZW5jZTEfMB0GA1UECxMW
KGMpIDIwMDkgRW50cnVzdCwgSW5jLjE7MDkGA1UEAxMyRW50cnVzdCBDb2RlIFNp
Z25pbmcgQ2VydGlmaWNhdGlvbiBBdXRob3JpdHkgLSBMMUQwHhcNMTQxMjA5MTkw
NDM3WhcNMTcxMjEwMDY1MzMxWjByMQswCQYDVQQGEwJDQTEQMA4GA1UECBMHT250
YXJpbzEPMA0GA1UEBxMGT3R0YXdhMRYwFAYDVQQKEw1FbnRydXN0LCBJbmMuMSgw
JgYDVQQDEx9FbnRydXN0IFRpbWUgU3RhbXBpbmcgQXV0aG9yaXR5MIIBIjANBgkq
hkiG9w0BAQEFAAOCAQ8AMIIBCgKCAQEAjRvijfRO1dB4vkAPNgc8MDcSzTrxNv9C
GXYCN21blKgBQwS63sBUH8bkw5gQs127ZHDjcbpl86Y1Iz0/KnQqrM0Ei9zqUtkQ
qyeXteYtS0ya3TJd7ObQncUwYf+a1XU5z7vHXPGIv1Ns9zV+jH9WtqvnyB0IxU4t
Pc26KptvhRtie/ruBOuDU7dOX4HQCl+W07xYN451jzDUvtQhEa6rGZ4dcizbHxyq
flQ9pNnmwOIEDBmhboOKr8xtfNDJLdm+SdAvel4MEtRkHpmyNKRrJmJpJb/ucQ+y
dOB8J3HScxRxplF1x71sZey7+R15fK7XidJfsKHrUSDl3QxwAjmjaQIDAQABo4IB
JDCCASAwDgYDVR0PAQH/BAQDAgeAMBYGA1UdJQEB/wQMMAoGCCsGAQUFBwMIMDMG
A1UdHwQsMCowKKAmoCSGImh0dHA6Ly9jcmwuZW50cnVzdC5uZXQvbGV2ZWwxZC5j
cmwwMwYIKwYBBQUHAQEEJzAlMCMGCCsGAQUFBzABhhdodHRwOi8vb2NzcC5lbnRy
dXN0Lm5ldDBBBgNVHSAEOjA4MDYGCmCGSAGG+mwKAQcwKDAmBggrBgEFBQcCARYa
aHR0cDovL3d3dy5lbnRydXN0Lm5ldC9ycGEwHwYDVR0jBBgwFoAUp7GqxLYG7d3K
n4iUloLV50NB0SUwHQYDVR0OBBYEFKcfrfOMkQxikmP+GQLteFpS19jZMAkGA1Ud
EwQCMAAwDQYJKoZIhvcNAQEFBQADggEBAMnJceijbfXFVCpZjoj5LQf1KehFOZfs
0SMuM0YLjD8zTl0xOOh27xUT9tW+rjatwINtnd/I0MtAsYdvflAPcxPSMM2OXuRD
AFfvA/9O4xGC9ZVG+8QVWMmRSCVEqTy7Dn5Ti7kr90+4WqPD9AD5qplngE8hsZE9
7AFN+b78Oum4UNFKPaLhbxZQEXRYr1YxZ7XFXSptOeubXUnAiQWdTBQYFwwW/Bq2
G9wXblwA/di3+3sYcYr3oS2kYtTBgdrronrw7Tm9LYw8U/EhUeUoWg+TaGYTpyC8
N93iEfI7uzN4fM/Z9ZSXiKe4/+ByZOUqig6Ggjh/z94A5KZLyihkSa4=
-----END CERTIFICATE-----

Certificate:
    Data:
        Version: 3 (0x2)
        Serial Number:
            10:ae:49:00:3c:9c:73:d4:55:b5:28:2e:eb:49:79:c9
    Signature Algorithm: sha256WithRSAEncryption
        Issuer: C=US, O=Symantec Corporation, OU=Symantec Trust Network, CN=Symantec Class 3 SHA256 Code Signing CA
        Validity
            Not Before: Jan 19 00:00:00 2016 GMT
            Not After : Jan 18 23:59:59 2018 GMT
        Subject: C=AU, ST=New South Wales, L=Sydney, O=Auslogics Labs Pty Ltd, CN=Auslogics Labs Pty Ltd
        Subject Public Key Info:
            Public Key Algorithm: rsaEncryption
                Public-Key: (2048 bit)
                Modulus:
                    00:e8:9a:f6:ab:6a:da:55:51:82:c1:c6:11:17:f6:
                    1f:8a:fe:f3:46:38:e0:68:62:bc:40:68:49:59:c3:
                    20:38:2c:42:34:67:2d:20:83:f0:b6:fc:5e:7e:d2:
                    3b:9a:91:cf:9d:4c:25:07:e0:5f:ce:a8:cf:79:9d:
                    ee:03:47:35:8b:e3:1a:ae:ae:ed:1d:e5:f7:8d:f2:
                    13:ca:71:5d:4b:8b:81:5a:38:9b:ec:2e:18:72:29:
                    28:2c:c9:61:e0:1d:a4:b5:14:ec:5f:63:23:3e:74:
                    ac:0c:56:bc:d0:38:5d:3d:46:81:c9:52:44:a1:0d:
                    52:bc:df:2d:6d:dc:9a:78:17:57:ac:20:9a:2c:16:
                    c6:ef:f6:13:cd:2e:b5:66:87:99:b2:ac:f8:79:db:
                    dd:0b:88:20:5d:41:ad:eb:cf:15:cc:2d:79:62:1f:
                    5f:3a:58:c1:a8:de:ea:5d:d8:7e:69:89:88:03:d1:
                    a8:85:40:fa:4a:5c:ac:64:4d:f5:b1:8e:54:b2:3f:
                    40:79:3d:0a:ca:dd:7b:ad:20:66:16:a7:b5:fd:ae:
                    89:de:6d:58:e8:98:f9:09:f0:4b:f6:8a:41:7e:6b:
                    bd:b8:0d:6b:cc:f8:30:78:81:8d:f1:3e:f3:42:0e:
                    8f:43:1a:3e:96:08:4f:11:60:db:4a:1e:33:96:e8:
                    4c:59
                Exponent: 65537 (0x10001)
        X509v3 extensions:
            X509v3 Basic Constraints: 
                CA:FALSE
            X509v3 Key Usage: critical
                Digital Signature
            X509v3 CRL Distribution Points: 

                Full Name:
                  URI:http://sv.symcb.com/sv.crl

            X509v3 Certificate Policies: 
                Policy: 2.16.840.1.113733.1.7.23.3
                  CPS: https://d.symcb.com/cps
                  User Notice:
                    Explicit Text: https://d.symcb.com/rpa

            X509v3 Extended Key Usage: 
                Code Signing
            Authority Information Access: 
                OCSP - URI:http://sv.symcd.com
                CA Issuers - URI:http://sv.symcb.com/sv.crt

            X509v3 Authority Key Identifier: 
                keyid:96:3B:53:F0:79:33:97:AF:7D:83:EF:2E:2B:CC:CA:B7:86:1E:72:66

            X509v3 Subject Key Identifier: 
                02:C9:61:21:00:F2:43:93:63:62:11:0E:0E:25:8D:C9:EF:E0:0B:F7
    Signature Algorithm: sha256WithRSAEncryption
         43:4d:b5:31:d4:ef:06:14:fb:13:b0:c9:95:4a:ac:78:a2:09:
         dd:d0:e2:71:85:ff:9b:02:0b:a2:4b:08:26:61:60:0f:f6:8c:
         3f:86:73:36:a2:b3:29:df:e2:10:6e:41:58:f7:87:f7:eb:ee:
         43:4c:9c:d4:d7:56:6d:05:e3:13:d1:8c:90:fd:e0:64:6a:7b:
         a9:85:0f:4c:73:73:53:c9:b9:23:29:27:e2:c6:5c:09:a0:07:
         12:d7:dd:44:4d:71:57:45:b0:9d:a5:7b:e3:92:ed:fb:e1:b4:
         78:9c:77:1f:71:73:4f:9a:2c:c4:b0:78:67:cc:e7:7e:61:86:
         1d:9d:d9:59:b4:64:ed:93:c7:e2:f4:62:75:d2:32:c3:b0:76:
         9a:aa:17:f8:2a:77:7c:0d:c2:37:63:18:53:5f:1a:96:ea:99:
         7f:67:ff:fb:5b:1c:0f:96:ba:f1:3d:8c:3a:4a:69:4f:4a:82:
         88:55:86:3a:31:de:4f:b4:d2:cf:8a:ac:07:39:e3:2e:7c:e2:
         17:8b:de:55:10:aa:7a:55:20:27:b4:10:a5:b4:8f:c8:85:49:
         ca:1f:94:8d:e3:ed:25:78:0a:b5:4f:97:2c:3a:ad:ce:a4:0b:
         d2:e9:1f:23:f7:d2:1e:19:df:68:8d:6e:3f:dd:bc:cf:5b:4d:
         6f:55:9c:e2
-----BEGIN CERTIFICATE-----
MIIE5zCCA8+gAwIBAgIQEK5JADycc9RVtSgu60l5yTANBgkqhkiG9w0BAQsFADB/
MQswCQYDVQQGEwJVUzEdMBsGA1UEChMUU3ltYW50ZWMgQ29ycG9yYXRpb24xHzAd
BgNVBAsTFlN5bWFudGVjIFRydXN0IE5ldHdvcmsxMDAuBgNVBAMTJ1N5bWFudGVj
IENsYXNzIDMgU0hBMjU2IENvZGUgU2lnbmluZyBDQTAeFw0xNjAxMTkwMDAwMDBa
Fw0xODAxMTgyMzU5NTlaMHoxCzAJBgNVBAYTAkFVMRgwFgYDVQQIEw9OZXcgU291
dGggV2FsZXMxDzANBgNVBAcTBlN5ZG5leTEfMB0GA1UEChQWQXVzbG9naWNzIExh
YnMgUHR5IEx0ZDEfMB0GA1UEAxQWQXVzbG9naWNzIExhYnMgUHR5IEx0ZDCCASIw
DQYJKoZIhvcNAQEBBQADggEPADCCAQoCggEBAOia9qtq2lVRgsHGERf2H4r+80Y4
4GhivEBoSVnDIDgsQjRnLSCD8Lb8Xn7SO5qRz51MJQfgX86oz3md7gNHNYvjGq6u
7R3l943yE8pxXUuLgVo4m+wuGHIpKCzJYeAdpLUU7F9jIz50rAxWvNA4XT1GgclS
RKENUrzfLW3cmngXV6wgmiwWxu/2E80utWaHmbKs+Hnb3QuIIF1BrevPFcwteWIf
XzpYwaje6l3YfmmJiAPRqIVA+kpcrGRN9bGOVLI/QHk9Csrde60gZhantf2uid5t
WOiY+QnwS/aKQX5rvbgNa8z4MHiBjfE+80IOj0MaPpYITxFg20oeM5boTFkCAwEA
AaOCAWIwggFeMAkGA1UdEwQCMAAwDgYDVR0PAQH/BAQDAgeAMCsGA1UdHwQkMCIw
IKAeoByGGmh0dHA6Ly9zdi5zeW1jYi5jb20vc3YuY3JsMGYGA1UdIARfMF0wWwYL
YIZIAYb4RQEHFwMwTDAjBggrBgEFBQcCARYXaHR0cHM6Ly9kLnN5bWNiLmNvbS9j
cHMwJQYIKwYBBQUHAgIwGQwXaHR0cHM6Ly9kLnN5bWNiLmNvbS9ycGEwEwYDVR0l
BAwwCgYIKwYBBQUHAwMwVwYIKwYBBQUHAQEESzBJMB8GCCsGAQUFBzABhhNodHRw
Oi8vc3Yuc3ltY2QuY29tMCYGCCsGAQUFBzAChhpodHRwOi8vc3Yuc3ltY2IuY29t
L3N2LmNydDAfBgNVHSMEGDAWgBSWO1PweTOXr32D7y4rzMq3hh5yZjAdBgNVHQ4E
FgQUAslhIQDyQ5NjYhEODiWNye/gC/cwDQYJKoZIhvcNAQELBQADggEBAENNtTHU
7wYU+xOwyZVKrHiiCd3Q4nGF/5sCC6JLCCZhYA/2jD+Gczaisynf4hBuQVj3h/fr
7kNMnNTXVm0F4xPRjJD94GRqe6mFD0xzc1PJuSMpJ+LGXAmgBxLX3URNcVdFsJ2l
e+OS7fvhtHicdx9xc0+aLMSweGfM535hhh2d2Vm0ZO2Tx+L0YnXSMsOwdpqqF/gq
d3wNwjdjGFNfGpbqmX9n//tbHA+WuvE9jDpKaU9KgohVhjox3k+00s+KrAc54y58
4heL3lUQqnpVICe0EKW0j8iFScoflI3j7SV4CrVPlyw6rc6kC9LpHyP30h4Z32iN
bj/dvM9bTW9VnOI=
-----END CERTIFICATE-----

Certificate:
    Data:
        Version: 3 (0x2)
        Serial Number: 946070242 (0x3863e2e2)
    Signature Algorithm: sha1WithRSAEncryption
        Issuer: O=Entrust.net, OU=www.entrust.net/CPS_2048 incorp. by ref. (limits liab.), OU=(c) 1999 Entrust.net Limited, CN=Entrust.net Certification Authority (2048)
        Validity
            Not Before: Sep 10 21:59:57 2009 GMT
            Not After : Sep 10 22:29:57 2019 GMT
        Subject: C=US, O=Entrust, Inc., OU=www.entrust.net/rpa is incorporated by reference, OU=(c) 2009 Entrust, Inc., CN=Entrust Code Signing Certification Authority - L1D
        Subject Public Key Info:
            Public Key Algorithm: rsaEncryption
                Public-Key: (2048 bit)
                Modulus:
                    00:e5:0c:cd:bb:27:c1:16:e0:0f:e3:2f:a5:24:ee:
                    1b:71:d2:5a:c1:61:54:e5:25:94:55:04:78:24:45:
                    40:81:37:84:c9:d4:a6:b7:0d:4c:12:fb:77:4e:68:
                    8f:04:f5:db:b3:7c:1c:ab:ac:14:cf:f6:ac:4c:a6:
                    72:7a:2a:6c:ff:fa:90:b5:0d:ee:2c:9a:2d:86:2c:
                    50:02:1b:e4:42:64:33:c6:e7:59:90:ad:00:a3:f0:
                    49:65:a2:c3:5a:73:96:75:b5:ec:f9:2d:e6:97:3a:
                    bc:13:39:82:71:36:0b:4e:10:0a:0b:fb:34:ab:3f:
                    3c:73:cd:6f:4c:a4:93:31:53:be:61:94:77:6e:a5:
                    f1:72:77:1e:65:4d:d1:d6:52:4c:dd:93:6d:96:58:
                    c6:c7:5b:f3:e8:f8:5a:bf:68:d1:28:ef:61:72:d9:
                    1e:6a:01:ab:bc:9d:83:4c:d3:b0:3b:06:ba:b7:ec:
                    95:86:04:51:8b:78:c1:91:c2:aa:6e:3d:be:fa:ec:
                    66:7d:3c:3c:1b:99:e6:2a:bd:40:29:27:19:f7:7d:
                    67:4d:1f:f1:d3:a3:93:c8:1d:c9:fc:ec:ca:1f:f7:
                    5c:70:d8:f1:5c:06:d4:63:ac:f0:b3:33:0c:7f:83:
                    e4:91:86:a5:9f:14:1a:08:79:e5:76:02:8e:09:79:
                    ae:39
                Exponent: 65537 (0x10001)
        X509v3 extensions:
            X509v3 Key Usage: critical
                Certificate Sign, CRL Sign
            X509v3 Basic Constraints: critical
                CA:TRUE
            Authority Information Access: 
                OCSP - URI:http://ocsp.entrust.net

            X509v3 CRL Distribution Points: 

                Full Name:
                  URI:http://crl.entrust.net/2048ca.crl

            X509v3 Certificate Policies: 
                Policy: X509v3 Any Policy
                  CPS: http://www.entrust.net/rpa

            X509v3 Subject Key Identifier: 
                A7:B1:AA:C4:B6:06:ED:DD:CA:9F:88:94:96:82:D5:E7:43:41:D1:25
            X509v3 Authority Key Identifier: 
                keyid:55:E4:81:D1:11:80:BE:D8:89:B9:08:A3:31:F9:A1:24:09:16:B9:70

    Signature Algorithm: sha1WithRSAEncryption
         50:29:87:0f:13:8c:b1:c5:82:f2:ea:16:ca:51:a0:c5:8b:c1:
         cb:88:2d:11:0f:e2:10:18:3a:ea:61:c3:20:0f:fe:ee:b8:39:
         43:c8:ec:fd:ea:c1:6d:c9:03:ff:e8:2c:2c:90:a1:a6:ce:66:
         db:60:a5:21:64:8c:cd:fc:b1:5a:69:db:36:7d:1c:da:f1:2e:
         93:c1:2a:e7:ad:38:e8:f2:02:fe:ba:67:4a:15:8b:0d:ff:65:
         a3:a9:f8:a6:e9:05:ab:be:d7:73:ca:bd:c7:a2:b0:8a:50:e0:
         30:c3:99:70:57:1d:7c:04:50:19:e5:c3:a9:b5:4d:59:65:09:
         1b:98:02:9b:81:e3:96:7c:63:5b:3f:d3:f2:6b:21:86:d6:1d:
         66:a2:07:f7:13:a8:09:97:7e:bd:ff:68:68:b1:85:02:2f:90:
         95:80:b8:7b:78:26:66:cf:f7:88:0b:65:ae:14:9a:07:84:ae:
         77:30:17:eb:95:25:d3:48:d8:d8:47:c9:36:41:bd:18:51:8b:
         4e:bc:79:82:9f:80:b0:79:0e:e0:a5:a8:f7:4a:dc:43:56:6c:
         c4:c9:e4:25:52:e6:ba:9b:41:b4:90:bc:8b:ee:b4:48:0c:0d:
         48:af:79:f4:88:d0:96:c6:d5:01:e8:ad:ad:03:e7:02:3a:98:
         63:33:b9:dd
-----BEGIN CERTIFICATE-----
MIIE/zCCA+egAwIBAgIEOGPi4jANBgkqhkiG9w0BAQUFADCBtDEUMBIGA1UEChML
RW50cnVzdC5uZXQxQDA+BgNVBAsUN3d3dy5lbnRydXN0Lm5ldC9DUFNfMjA0OCBp
bmNvcnAuIGJ5IHJlZi4gKGxpbWl0cyBsaWFiLikxJTAjBgNVBAsTHChjKSAxOTk5
IEVudHJ1c3QubmV0IExpbWl0ZWQxMzAxBgNVBAMTKkVudHJ1c3QubmV0IENlcnRp
ZmljYXRpb24gQXV0aG9yaXR5ICgyMDQ4KTAeFw0wOTA5MTAyMTU5NTdaFw0xOTA5
MTAyMjI5NTdaMIG+MQswCQYDVQQGEwJVUzEWMBQGA1UEChMNRW50cnVzdCwgSW5j
LjE5MDcGA1UECxMwd3d3LmVudHJ1c3QubmV0L3JwYSBpcyBpbmNvcnBvcmF0ZWQg
YnkgcmVmZXJlbmNlMR8wHQYDVQQLExYoYykgMjAwOSBFbnRydXN0LCBJbmMuMTsw
OQYDVQQDEzJFbnRydXN0IENvZGUgU2lnbmluZyBDZXJ0aWZpY2F0aW9uIEF1dGhv
cml0eSAtIEwxRDCCASIwDQYJKoZIhvcNAQEBBQADggEPADCCAQoCggEBAOUMzbsn
wRbgD+MvpSTuG3HSWsFhVOUllFUEeCRFQIE3hMnUprcNTBL7d05ojwT127N8HKus
FM/2rEymcnoqbP/6kLUN7iyaLYYsUAIb5EJkM8bnWZCtAKPwSWWiw1pzlnW17Pkt
5pc6vBM5gnE2C04QCgv7NKs/PHPNb0ykkzFTvmGUd26l8XJ3HmVN0dZSTN2TbZZY
xsdb8+j4Wr9o0SjvYXLZHmoBq7ydg0zTsDsGurfslYYEUYt4wZHCqm49vvrsZn08
PBuZ5iq9QCknGfd9Z00f8dOjk8gdyfzsyh/3XHDY8VwG1GOs8LMzDH+D5JGGpZ8U
Ggh55XYCjgl5rjkCAwEAAaOCAQswggEHMA4GA1UdDwEB/wQEAwIBBjAPBgNVHRMB
Af8EBTADAQH/MDMGCCsGAQUFBwEBBCcwJTAjBggrBgEFBQcwAYYXaHR0cDovL29j
c3AuZW50cnVzdC5uZXQwMgYDVR0fBCswKTAnoCWgI4YhaHR0cDovL2NybC5lbnRy
dXN0Lm5ldC8yMDQ4Y2EuY3JsMDsGA1UdIAQ0MDIwMAYEVR0gADAoMCYGCCsGAQUF
BwIBFhpodHRwOi8vd3d3LmVudHJ1c3QubmV0L3JwYTAdBgNVHQ4EFgQUp7GqxLYG
7d3Kn4iUloLV50NB0SUwHwYDVR0jBBgwFoAUVeSB0RGAvtiJuQijMfmhJAkWuXAw
DQYJKoZIhvcNAQEFBQADggEBAFAphw8TjLHFgvLqFspRoMWLwcuILREP4hAYOuph
wyAP/u64OUPI7P3qwW3JA//oLCyQoabOZttgpSFkjM38sVpp2zZ9HNrxLpPBKuet
OOjyAv66Z0oViw3/ZaOp+KbpBau+13PKvceisIpQ4DDDmXBXHXwEUBnlw6m1TVll
CRuYApuB45Z8Y1s/0/JrIYbWHWaiB/cTqAmXfr3/aGixhQIvkJWAuHt4JmbP94gL
Za4UmgeErncwF+uVJdNI2NhHyTZBvRhRi068eYKfgLB5DuClqPdK3ENWbMTJ5CVS
5rqbQbSQvIvutEgMDUivefSI0JbG1QHora0D5wI6mGMzud0=
-----END CERTIFICATE-----

Certificate:
    Data:
        Version: 3 (0x2)
        Serial Number:
            3d:78:d7:f9:76:49:60:b2:61:7d:f4:f0:1e:ca:86:2a
    Signature Algorithm: sha256WithRSAEncryption
        Issuer: C=US, O=VeriSign, Inc., OU=VeriSign Trust Network, OU=(c) 2006 VeriSign, Inc. - For authorized use only, CN=VeriSign Class 3 Public Primary Certification Authority - G5
        Validity
            Not Before: Dec 10 00:00:00 2013 GMT
            Not After : Dec  9 23:59:59 2023 GMT
        Subject: C=US, O=Symantec Corporation, OU=Symantec Trust Network, CN=Symantec Class 3 SHA256 Code Signing CA
        Subject Public Key Info:
            Public Key Algorithm: rsaEncryption
                Public-Key: (2048 bit)
                Modulus:
                    00:97:83:1e:00:16:af:2c:b1:d2:08:c4:d7:68:93:
                    51:60:1e:71:f6:e2:47:b4:db:58:4d:23:62:6a:b4:
                    bf:5a:1b:51:f7:a3:0d:18:77:68:bb:d8:36:ab:2f:
                    21:50:da:9e:f3:e7:5f:27:4e:0b:c2:97:c8:09:70:
                    93:a9:da:5c:0d:4e:a4:0d:91:a0:b4:ec:14:ce:91:
                    72:54:2e:ce:a3:db:44:e9:52:1b:3f:41:3c:ca:4a:
                    e4:aa:c0:e8:39:ab:53:cc:21:d0:cc:cf:7f:9b:e6:
                    c2:cc:58:6a:82:15:ee:3d:36:cf:1c:c5:97:07:24:
                    8e:f1:7b:be:31:2d:3d:6e:dc:b5:99:42:9f:4b:61:
                    95:5f:1c:70:ee:17:7d:db:8b:e5:61:89:78:c7:68:
                    1b:af:11:78:1a:98:ae:c4:55:47:53:d9:b3:32:d6:
                    a1:0e:46:40:c5:97:92:8a:d1:53:a7:99:5b:85:35:
                    57:d3:ea:93:62:61:20:0a:c7:30:77:24:11:4d:62:
                    83:b6:ba:7b:68:82:31:ee:65:ca:df:f9:d5:8d:b2:
                    35:dc:8c:2b:6f:6a:72:5c:60:84:9c:f2:0c:94:5e:
                    c0:56:52:00:48:cc:d3:f8:a5:7d:de:2f:d7:13:e4:
                    38:a8:84:d5:46:b8:13:86:c2:1b:9d:ea:5a:38:dd:
                    9b:db
                Exponent: 65537 (0x10001)
        X509v3 extensions:
            Authority Information Access: 
                OCSP - URI:http://s2.symcb.com

            X509v3 Basic Constraints: critical
                CA:TRUE, pathlen:0
            X509v3 Certificate Policies: 
                Policy: 2.16.840.1.113733.1.7.23.3
                  CPS: http://www.symauth.com/cps
                  User Notice:
                    Explicit Text: http://www.symauth.com/rpa

            X509v3 CRL Distribution Points: 

                Full Name:
                  URI:http://s1.symcb.com/pca3-g5.crl

            X509v3 Extended Key Usage: 
                TLS Web Client Authentication, Code Signing
            X509v3 Key Usage: critical
                Certificate Sign, CRL Sign
            X509v3 Subject Alternative Name: 
                DirName:/CN=SymantecPKI-1-567
            X509v3 Subject Key Identifier: 
                96:3B:53:F0:79:33:97:AF:7D:83:EF:2E:2B:CC:CA:B7:86:1E:72:66
            X509v3 Authority Key Identifier: 
                keyid:7F:D3:65:A7:C2:DD:EC:BB:F0:30:09:F3:43:39:FA:02:AF:33:31:33

    Signature Algorithm: sha256WithRSAEncryption
         13:85:1a:1e:69:a9:37:f7:a0:bd:a4:af:7e:1d:61:53:fe:9d:
         8c:5e:0c:a6:75:1e:78:17:23:dd:fd:ec:1a:03:55:39:fb:71:
         95:c7:65:5a:a7:8e:30:d2:44:5a:61:db:70:6f:da:21:05:c2:
         2e:73:ba:49:f1:d1:93:fe:5d:c9:cd:5e:03:e0:89:9e:3f:74:
         1e:d7:f7:38:8b:a9:d6:cf:bb:35:2f:33:58:a8:92:56:d1:c8:
         4d:3b:82:e6:79:84:16:fc:28:b0:b1:47:f3:1d:a2:3e:ee:87:
         d9:a6:7f:a4:56:a5:3f:ad:84:2e:29:de:7c:bc:a8:aa:a3:3d:
         04:01:ea:ba:93:a2:0e:50:22:29:17:4c:87:e4:3a:11:5f:d6:
         a4:25:89:9b:05:6b:2f:b4:c9:01:4c:27:7b:0b:ac:19:05:22:
         a0:60:15:3f:da:c9:fb:4d:4c:8f:fb:72:67:77:fd:27:94:c7:
         ba:35:0e:88:49:fe:8d:fd:28:af:4a:12:bd:0d:b3:97:05:de:
         44:0c:15:fa:36:2b:03:dc:c1:50:01:f1:a1:11:5d:14:e5:e2:
         bd:27:4b:54:be:2b:84:5e:0f:a6:c3:74:05:0a:ef:97:c3:89:
         22:b1:1f:77:f3:bd:cd:43:d4:f1:4c:a9:3f:b5:8b:84:af:64:
         f2:d0:14:21
-----BEGIN CERTIFICATE-----
MIIFWTCCBEGgAwIBAgIQPXjX+XZJYLJhffTwHsqGKjANBgkqhkiG9w0BAQsFADCB
yjELMAkGA1UEBhMCVVMxFzAVBgNVBAoTDlZlcmlTaWduLCBJbmMuMR8wHQYDVQQL
ExZWZXJpU2lnbiBUcnVzdCBOZXR3b3JrMTowOAYDVQQLEzEoYykgMjAwNiBWZXJp
U2lnbiwgSW5jLiAtIEZvciBhdXRob3JpemVkIHVzZSBvbmx5MUUwQwYDVQQDEzxW
ZXJpU2lnbiBDbGFzcyAzIFB1YmxpYyBQcmltYXJ5IENlcnRpZmljYXRpb24gQXV0
aG9yaXR5IC0gRzUwHhcNMTMxMjEwMDAwMDAwWhcNMjMxMjA5MjM1OTU5WjB/MQsw
CQYDVQQGEwJVUzEdMBsGA1UEChMUU3ltYW50ZWMgQ29ycG9yYXRpb24xHzAdBgNV
BAsTFlN5bWFudGVjIFRydXN0IE5ldHdvcmsxMDAuBgNVBAMTJ1N5bWFudGVjIENs
YXNzIDMgU0hBMjU2IENvZGUgU2lnbmluZyBDQTCCASIwDQYJKoZIhvcNAQEBBQAD
ggEPADCCAQoCggEBAJeDHgAWryyx0gjE12iTUWAecfbiR7TbWE0jYmq0v1obUfej
DRh3aLvYNqsvIVDanvPnXydOC8KXyAlwk6naXA1OpA2RoLTsFM6RclQuzqPbROlS
Gz9BPMpK5KrA6DmrU8wh0MzPf5vmwsxYaoIV7j02zxzFlwckjvF7vjEtPW7ctZlC
n0thlV8ccO4XfduL5WGJeMdoG68ReBqYrsRVR1PZszLWoQ5GQMWXkorRU6eZW4U1
V9Pqk2JhIArHMHckEU1ig7a6e2iCMe5lyt/51Y2yNdyMK29qclxghJzyDJRewFZS
AEjM0/ilfd4v1xPkOKiE1Ua4E4bCG53qWjjdm9sCAwEAAaOCAYMwggF/MC8GCCsG
AQUFBwEBBCMwITAfBggrBgEFBQcwAYYTaHR0cDovL3MyLnN5bWNiLmNvbTASBgNV
HRMBAf8ECDAGAQH/AgEAMGwGA1UdIARlMGMwYQYLYIZIAYb4RQEHFwMwUjAmBggr
BgEFBQcCARYaaHR0cDovL3d3dy5zeW1hdXRoLmNvbS9jcHMwKAYIKwYBBQUHAgIw
HBoaaHR0cDovL3d3dy5zeW1hdXRoLmNvbS9ycGEwMAYDVR0fBCkwJzAloCOgIYYf
aHR0cDovL3MxLnN5bWNiLmNvbS9wY2EzLWc1LmNybDAdBgNVHSUEFjAUBggrBgEF
BQcDAgYIKwYBBQUHAwMwDgYDVR0PAQH/BAQDAgEGMCkGA1UdEQQiMCCkHjAcMRow
GAYDVQQDExFTeW1hbnRlY1BLSS0xLTU2NzAdBgNVHQ4EFgQUljtT8Hkzl699g+8u
K8zKt4YecmYwHwYDVR0jBBgwFoAUf9Nlp8Ld7LvwMAnzQzn6Aq8zMTMwDQYJKoZI
hvcNAQELBQADggEBABOFGh5pqTf3oL2kr34dYVP+nYxeDKZ1HngXI9397BoDVTn7
cZXHZVqnjjDSRFph23Bv2iEFwi5zuknx0ZP+XcnNXgPgiZ4/dB7X9ziLqdbPuzUv
M1ioklbRyE07guZ5hBb8KLCxR/Mdoj7uh9mmf6RWpT+thC4p3ny8qKqjPQQB6rqT
og5QIikXTIfkOhFf1qQliZsFay+0yQFMJ3sLrBkFIqBgFT/ayftNTI/7cmd3/SeU
x7o1DohJ/o39KK9KEr0Ns5cF3kQMFfo2KwPcwVAB8aERXRTl4r0nS1S+K4ReD6bD
dAUK75fDiSKxH3fzvc1D1PFMqT+1i4SvZPLQFCE=
-----END CERTIFICATE-----

