Certificate:
    Data:
        Version: 3 (0x2)
        Serial Number:
            6b:02:99:cf:20:24:2e:b4:12:83:aa:d7:a1:18:4b:3e
    Signature Algorithm: sha1WithRSAEncryption
        Issuer: C=US, ST=UT, L=Salt Lake City, O=The USERTRUST Network, OU=http://www.usertrust.com, CN=UTN-USERFirst-Object
        Validity
            Not Before: Oct  5 00:00:00 2010 GMT
            Not After : Oct  4 23:59:59 2012 GMT
        Subject: C=US/postalCode=33761, ST=FL, L=Clearwater/street=Suite 310/street=29750 US 19 Hwy N, O=LC Technology International, Inc, CN=LC Technology International, Inc
        Subject Public Key Info:
            Public Key Algorithm: rsaEncryption
                Public-Key: (2048 bit)
                Modulus:
                    00:db:da:c3:09:85:49:b5:98:c3:d3:3d:06:96:12:
                    49:3d:da:3f:16:84:b6:da:62:e1:67:e1:27:61:7d:
                    f5:d7:89:7a:48:bb:eb:fb:07:51:83:4c:92:5d:f3:
                    84:57:75:41:0c:c8:c1:16:9a:67:02:a6:4f:34:e7:
                    bb:eb:ab:0c:91:77:2f:80:c7:96:0c:52:9b:ba:30:
                    39:e9:06:2f:7b:d7:ca:d3:2b:fc:78:1c:72:11:da:
                    16:4b:14:41:03:ca:dc:09:38:f4:4d:a2:30:9b:0c:
                    10:db:dc:8e:19:27:78:82:e1:b8:e2:d3:51:b8:c6:
                    0d:1e:01:4c:55:92:eb:cd:52:d7:c3:9a:1b:b4:d2:
                    d2:4b:7e:be:dd:41:36:76:6f:b2:04:ad:07:87:4d:
                    46:a0:41:c9:b8:18:72:75:6b:87:bb:28:a0:a7:e9:
                    38:95:d9:45:92:cb:18:43:69:bb:99:10:bc:55:59:
                    a3:e2:a5:ff:22:bb:59:3e:e7:bb:30:fd:cd:50:57:
                    8d:23:e7:42:c1:e9:c2:09:85:08:cf:31:12:f2:2a:
                    30:c9:b0:6e:08:6b:b2:b8:c3:b9:2b:7b:61:5b:a9:
                    ed:0f:c4:27:70:a4:1c:1f:08:3c:b1:d4:55:46:1e:
                    9a:58:61:51:13:57:eb:79:c3:c2:5d:ec:83:02:88:
                    10:67
                Exponent: 65537 (0x10001)
        X509v3 extensions:
            X509v3 Authority Key Identifier: 
                keyid:DA:ED:64:74:14:9C:14:3C:AB:DD:99:A9:BD:5B:28:4D:8B:3C:C9:D8

            X509v3 Subject Key Identifier: 
                A6:A2:BC:AC:EF:9F:52:57:0F:89:B3:3C:47:2F:55:74:3D:8B:BE:F1
            X509v3 Key Usage: critical
                Digital Signature
            X509v3 Basic Constraints: critical
                CA:FALSE
            X509v3 Extended Key Usage: 
                Code Signing
            Netscape Cert Type: 
                Object Signing
            X509v3 Certificate Policies: 
                Policy: 1.3.6.1.4.1.6449.1.2.1.3.2
                  CPS: https://secure.comodo.net/CPS

            X509v3 CRL Distribution Points: 

                Full Name:
                  URI:http://crl.usertrust.com/UTN-USERFirst-Object.crl

            Authority Information Access: 
                OCSP - URI:http://ocsp.comodoca.com

            X509v3 Subject Alternative Name: 
                email:info@lc-tech.com
    Signature Algorithm: sha1WithRSAEncryption
         12:29:1a:ea:1f:de:89:f7:2f:7c:20:35:13:ef:04:7f:a6:10:
         99:07:40:56:59:2a:b1:37:2f:d9:01:89:69:0c:fc:59:2a:64:
         7f:84:20:07:54:48:0b:6c:ea:3f:aa:b6:30:f5:0e:77:49:9a:
         da:8e:e6:b6:5d:ee:96:03:28:7e:03:2a:68:a5:e3:c7:ae:e1:
         8c:e2:32:a9:c3:4c:91:5a:04:cd:9f:df:eb:08:b4:f9:8c:b3:
         59:e1:eb:1a:a6:5b:fe:1a:ac:6e:67:9d:a0:2c:63:70:62:a9:
         71:34:5a:6e:60:f6:e9:63:0a:72:48:07:cd:f7:01:9e:ca:59:
         29:d9:1a:de:0f:dc:5d:9a:4d:ed:d4:70:a6:9d:33:3d:74:64:
         06:5f:7e:a0:fc:89:0c:23:7e:5e:18:a9:c1:e5:66:e0:6c:5c:
         67:27:43:68:de:c1:71:dd:43:bb:16:f0:23:56:32:23:ba:65:
         c1:5b:81:d1:b9:ab:97:c9:72:91:e3:60:bb:4a:0c:da:27:67:
         2b:f1:ec:59:b5:da:22:d0:06:2f:c5:f9:d6:4e:12:9f:36:c5:
         17:d0:34:3d:e3:0c:59:85:ea:23:38:d9:17:99:8a:43:7f:20:
         5c:b8:b2:62:bd:4b:24:7f:96:56:55:90:27:66:75:bc:dc:04:
         5b:4e:5f:96
-----BEGIN CERTIFICATE-----
MIIFUTCCBDmgAwIBAgIQawKZzyAkLrQSg6rXoRhLPjANBgkqhkiG9w0BAQUFADCB
lTELMAkGA1UEBhMCVVMxCzAJBgNVBAgTAlVUMRcwFQYDVQQHEw5TYWx0IExha2Ug
Q2l0eTEeMBwGA1UEChMVVGhlIFVTRVJUUlVTVCBOZXR3b3JrMSEwHwYDVQQLExho
dHRwOi8vd3d3LnVzZXJ0cnVzdC5jb20xHTAbBgNVBAMTFFVUTi1VU0VSRmlyc3Qt
T2JqZWN0MB4XDTEwMTAwNTAwMDAwMFoXDTEyMTAwNDIzNTk1OVowgcUxCzAJBgNV
BAYTAlVTMQ4wDAYDVQQRDAUzMzc2MTELMAkGA1UECAwCRkwxEzARBgNVBAcMCkNs
ZWFyd2F0ZXIxEjAQBgNVBAkMCVN1aXRlIDMxMDEaMBgGA1UECQwRMjk3NTAgVVMg
MTkgSHd5IE4xKTAnBgNVBAoMIExDIFRlY2hub2xvZ3kgSW50ZXJuYXRpb25hbCwg
SW5jMSkwJwYDVQQDDCBMQyBUZWNobm9sb2d5IEludGVybmF0aW9uYWwsIEluYzCC
ASIwDQYJKoZIhvcNAQEBBQADggEPADCCAQoCggEBANvawwmFSbWYw9M9BpYSST3a
PxaEttpi4WfhJ2F99deJeki76/sHUYNMkl3zhFd1QQzIwRaaZwKmTzTnu+urDJF3
L4DHlgxSm7owOekGL3vXytMr/HgcchHaFksUQQPK3Ak49E2iMJsMENvcjhkneILh
uOLTUbjGDR4BTFWS681S18OaG7TS0kt+vt1BNnZvsgStB4dNRqBBybgYcnVrh7so
oKfpOJXZRZLLGENpu5kQvFVZo+Kl/yK7WT7nuzD9zVBXjSPnQsHpwgmFCM8xEvIq
MMmwbghrsrjDuSt7YVup7Q/EJ3CkHB8IPLHUVUYemlhhURNX63nDwl3sgwKIEGcC
AwEAAaOCAWkwggFlMB8GA1UdIwQYMBaAFNrtZHQUnBQ8q92Zqb1bKE2LPMnYMB0G
A1UdDgQWBBSmorys759SVw+JszxHL1V0PYu+8TAOBgNVHQ8BAf8EBAMCB4AwDAYD
VR0TAQH/BAIwADATBgNVHSUEDDAKBggrBgEFBQcDAzARBglghkgBhvhCAQEEBAMC
BBAwRgYDVR0gBD8wPTA7BgwrBgEEAbIxAQIBAwIwKzApBggrBgEFBQcCARYdaHR0
cHM6Ly9zZWN1cmUuY29tb2RvLm5ldC9DUFMwQgYDVR0fBDswOTA3oDWgM4YxaHR0
cDovL2NybC51c2VydHJ1c3QuY29tL1VUTi1VU0VSRmlyc3QtT2JqZWN0LmNybDA0
BggrBgEFBQcBAQQoMCYwJAYIKwYBBQUHMAGGGGh0dHA6Ly9vY3NwLmNvbW9kb2Nh
LmNvbTAbBgNVHREEFDASgRBpbmZvQGxjLXRlY2guY29tMA0GCSqGSIb3DQEBBQUA
A4IBAQASKRrqH96J9y98IDUT7wR/phCZB0BWWSqxNy/ZAYlpDPxZKmR/hCAHVEgL
bOo/qrYw9Q53SZrajua2Xe6WAyh+AypopePHruGM4jKpw0yRWgTNn9/rCLT5jLNZ
4esaplv+GqxuZ52gLGNwYqlxNFpuYPbpYwpySAfN9wGeylkp2RreD9xdmk3t1HCm
nTM9dGQGX36g/IkMI35eGKnB5WbgbFxnJ0No3sFx3UO7FvAjVjIjumXBW4HRuauX
yXKR42C7SgzaJ2cr8exZtdoi0AYvxfnWThKfNsUX0DQ94wxZheojONkXmYpDfyBc
uLJivUskf5ZWVZAnZnW83ARbTl+W
-----END CERTIFICATE-----

