Certificate:
    Data:
        Version: 3 (0x2)
        Serial Number: 1 (0x1)
    Signature Algorithm: sha1WithRSAEncryption
        Issuer: CN=Ninite Payload
        Validity
            Not Before: Jul 17 17:44:45 2014 GMT
            Not After : Jul 18 17:44:45 2014 GMT
        Subject: CN=Ninite Payload
        Subject Public Key Info:
            Public Key Algorithm: rsaEncryption
                Public-Key: (384 bit)
                Modulus:
                    00:92:82:c7:ca:17:d0:58:d3:ba:d5:0e:12:52:55:
                    07:c4:b9:79:bc:b9:e8:94:bd:07:fa:cf:74:1f:19:
                    66:58:7a:d8:ef:04:c1:f9:2e:82:52:d7:67:98:d7:
                    9b:01:aa:b9
                Exponent: 65537 (0x10001)
        X509v3 extensions:
            Netscape Comment: 
                >>key_begin|97d320a649844408b144e9fd2dfe4d197a220e65|key_end<<XXXXXXXXXXXXXXXXXXXXXXXXXXXXXXXXXXXXXXXXXXXXXXXXXXXXXXXXXXXXXXXXXXXXXXXXXXXXXXXXXXXXXXXXXXXXXXXXXXXXXXXXXXXXXXXXXXXXXXXXXXXXXXXXXXXXXXXXXXXXXXXXXXXXXXXXXXXXXXXXXXXXXXXXXXXXXXXXXXXXXXXXXXXXXXXXXX
    Signature Algorithm: sha1WithRSAEncryption
         35:f4:06:86:7e:8c:07:26:14:e1:4c:ad:00:a7:5d:a4:a3:6b:
         12:8b:8f:f3:e0:78:af:3a:7f:e9:35:3d:df:cf:59:2d:8d:18:
         a2:1d:cb:99:a6:8b:18:a7:ef:53:68:5d
-----BEGIN CERTIFICATE-----
MIICIDCCAdqgAwIBAgIBATANBgkqhkiG9w0BAQUFADAZMRcwFQYDVQQDEw5OaW5p
dGUgUGF5bG9hZDAeFw0xNDA3MTcxNzQ0NDVaFw0xNDA3MTgxNzQ0NDVaMBkxFzAV
BgNVBAMTDk5pbml0ZSBQYXlsb2FkMEwwDQYJKoZIhvcNAQEBBQADOwAwOAIxAJKC
x8oX0FjTutUOElJVB8S5eby56JS9B/rPdB8ZZlh62O8EwfkuglLXZ5jXmwGquQID
AQABo4IBGzCCARcwggETBglghkgBhvhCAQ0EggEEFoIBAD4+a2V5X2JlZ2lufDk3
ZDMyMGE2NDk4NDQ0MDhiMTQ0ZTlmZDJkZmU0ZDE5N2EyMjBlNjV8a2V5X2VuZDw8
WFhYWFhYWFhYWFhYWFhYWFhYWFhYWFhYWFhYWFhYWFhYWFhYWFhYWFhYWFhYWFhY
WFhYWFhYWFhYWFhYWFhYWFhYWFhYWFhYWFhYWFhYWFhYWFhYWFhYWFhYWFhYWFhY
WFhYWFhYWFhYWFhYWFhYWFhYWFhYWFhYWFhYWFhYWFhYWFhYWFhYWFhYWFhYWFhY
WFhYWFhYWFhYWFhYWFhYWFhYWFhYWFhYWFhYWFhYWFhYWFhYWFhYWFhYWFhYWFhY
WFgwDQYJKoZIhvcNAQEFBQADMQA19AaGfowHJhThTK0Ap12ko2sSi4/z4HivOn/p
NT3fz1ktjRiiHcuZposYp+9TaF0=
-----END CERTIFICATE-----

Certificate:
    Data:
        Version: 3 (0x2)
        Serial Number:
            7e:93:eb:fb:7c:c6:4e:59:ea:4b:9a:77:d4:06:fc:3b
    Signature Algorithm: sha1WithRSAEncryption
        Issuer: C=ZA, ST=Western Cape, L=Durbanville, O=Thawte, OU=Thawte Certification, CN=Thawte Timestamping CA
        Validity
            Not Before: Dec 21 00:00:00 2012 GMT
            Not After : Dec 30 23:59:59 2020 GMT
        Subject: C=US, O=Symantec Corporation, CN=Symantec Time Stamping Services CA - G2
        Subject Public Key Info:
            Public Key Algorithm: rsaEncryption
                Public-Key: (2048 bit)
                Modulus:
                    00:b1:ac:b3:49:54:4b:97:1c:12:0a:d8:25:79:91:
                    22:57:2a:6f:dc:b8:26:c4:43:73:6b:c2:bf:2e:50:
                    5a:fb:14:c2:76:8e:43:01:25:43:b4:a1:e2:45:f4:
                    e8:b7:7b:c3:74:cc:22:d7:b4:94:00:02:f7:4d:ed:
                    bf:b4:b7:44:24:6b:cd:5f:45:3b:d1:44:ce:43:12:
                    73:17:82:8b:69:b4:2b:cb:99:1e:ac:72:1b:26:4d:
                    71:1f:b1:31:dd:fb:51:61:02:53:a6:aa:f5:49:2c:
                    05:78:45:a5:2f:89:ce:e7:99:e7:fe:8c:e2:57:3f:
                    3d:c6:92:dc:4a:f8:7b:33:e4:79:0a:fb:f0:75:88:
                    41:9c:ff:c5:03:51:99:aa:d7:6c:9f:93:69:87:65:
                    29:83:85:c2:60:14:c4:c8:c9:3b:14:da:c0:81:f0:
                    1f:0d:74:de:92:22:ab:ca:f7:fb:74:7c:27:e6:f7:
                    4a:1b:7f:a7:c3:9e:2d:ae:8a:ea:a6:e6:aa:27:16:
                    7d:61:f7:98:71:11:bc:e2:50:a1:4b:e5:5d:fa:e5:
                    0e:a7:2c:9f:aa:65:20:d3:d8:96:e8:c8:7c:a5:4e:
                    48:44:ff:19:e2:44:07:92:0b:d7:68:84:80:5d:6a:
                    78:64:45:cd:60:46:7e:54:c1:13:7c:c5:79:f1:c9:
                    c1:71
                Exponent: 65537 (0x10001)
        X509v3 extensions:
            X509v3 Subject Key Identifier: 
                5F:9A:F5:6E:5C:CC:CC:74:9A:D4:DD:7D:EF:3F:DB:EC:4C:80:2E:DD
            Authority Information Access: 
                OCSP - URI:http://ocsp.thawte.com

            X509v3 Basic Constraints: critical
                CA:TRUE, pathlen:0
            X509v3 CRL Distribution Points: 

                Full Name:
                  URI:http://crl.thawte.com/ThawteTimestampingCA.crl

            X509v3 Extended Key Usage: 
                Time Stamping
            X509v3 Key Usage: critical
                Certificate Sign, CRL Sign
            X509v3 Subject Alternative Name: 
                DirName:/CN=TimeStamp-2048-1
    Signature Algorithm: sha1WithRSAEncryption
         03:09:9b:8f:79:ef:7f:59:30:aa:ef:68:b5:fa:e3:09:1d:bb:
         4f:82:06:5d:37:5f:a6:52:9f:16:8d:ea:1c:92:09:44:6e:f5:
         6d:eb:58:7c:30:e8:f9:69:8d:23:73:0b:12:6f:47:a9:ae:39:
         11:f8:2a:b1:9b:b0:1a:c3:8e:eb:59:96:00:ad:ce:0c:4d:b2:
         d0:31:a6:08:5c:2a:7a:fc:e2:7a:1d:57:4c:a8:65:18:e9:79:
         40:62:25:96:6e:c7:c7:37:6a:83:21:08:8e:41:ea:dd:d9:57:
         3f:1d:77:49:87:2a:16:06:5e:a6:38:6a:22:12:a3:51:19:83:
         7e:b6
-----BEGIN CERTIFICATE-----
MIID7jCCA1egAwIBAgIQfpPr+3zGTlnqS5p31Ab8OzANBgkqhkiG9w0BAQUFADCB
izELMAkGA1UEBhMCWkExFTATBgNVBAgTDFdlc3Rlcm4gQ2FwZTEUMBIGA1UEBxML
RHVyYmFudmlsbGUxDzANBgNVBAoTBlRoYXd0ZTEdMBsGA1UECxMUVGhhd3RlIENl
cnRpZmljYXRpb24xHzAdBgNVBAMTFlRoYXd0ZSBUaW1lc3RhbXBpbmcgQ0EwHhcN
MTIxMjIxMDAwMDAwWhcNMjAxMjMwMjM1OTU5WjBeMQswCQYDVQQGEwJVUzEdMBsG
A1UEChMUU3ltYW50ZWMgQ29ycG9yYXRpb24xMDAuBgNVBAMTJ1N5bWFudGVjIFRp
bWUgU3RhbXBpbmcgU2VydmljZXMgQ0EgLSBHMjCCASIwDQYJKoZIhvcNAQEBBQAD
ggEPADCCAQoCggEBALGss0lUS5ccEgrYJXmRIlcqb9y4JsRDc2vCvy5QWvsUwnaO
QwElQ7Sh4kX06Ld7w3TMIte0lAAC903tv7S3RCRrzV9FO9FEzkMScxeCi2m0K8uZ
HqxyGyZNcR+xMd37UWECU6aq9UksBXhFpS+JzueZ5/6M4lc/PcaS3Er4ezPkeQr7
8HWIQZz/xQNRmarXbJ+TaYdlKYOFwmAUxMjJOxTawIHwHw103pIiq8r3+3R8J+b3
Sht/p8OeLa6K6qbmqicWfWH3mHERvOJQoUvlXfrlDqcsn6plINPYlujIfKVOSET/
GeJEB5IL12iEgF1qeGRFzWBGflTBE3zFefHJwXECAwEAAaOB+jCB9zAdBgNVHQ4E
FgQUX5r1blzMzHSa1N197z/b7EyALt0wMgYIKwYBBQUHAQEEJjAkMCIGCCsGAQUF
BzABhhZodHRwOi8vb2NzcC50aGF3dGUuY29tMBIGA1UdEwEB/wQIMAYBAf8CAQAw
PwYDVR0fBDgwNjA0oDKgMIYuaHR0cDovL2NybC50aGF3dGUuY29tL1RoYXd0ZVRp
bWVzdGFtcGluZ0NBLmNybDATBgNVHSUEDDAKBggrBgEFBQcDCDAOBgNVHQ8BAf8E
BAMCAQYwKAYDVR0RBCEwH6QdMBsxGTAXBgNVBAMTEFRpbWVTdGFtcC0yMDQ4LTEw
DQYJKoZIhvcNAQEFBQADgYEAAwmbj3nvf1kwqu9otfrjCR27T4IGXTdfplKfFo3q
HJIJRG71betYfDDo+WmNI3MLEm9Hqa45EfgqsZuwGsOO61mWAK3ODE2y0DGmCFwq
evzieh1XTKhlGOl5QGIllm7HxzdqgyEIjkHq3dlXPx13SYcqFgZepjhqIhKjURmD
frY=
-----END CERTIFICATE-----

Certificate:
    Data:
        Version: 3 (0x2)
        Serial Number:
            04:00:00:00:00:01:2f:4e:e1:35:5c
    Signature Algorithm: sha1WithRSAEncryption
        Issuer: C=BE, O=GlobalSign nv-sa, OU=Root CA, CN=GlobalSign Root CA
        Validity
            Not Before: Apr 13 10:00:00 2011 GMT
            Not After : Apr 13 10:00:00 2019 GMT
        Subject: C=BE, O=GlobalSign nv-sa, CN=GlobalSign CodeSigning CA - G2
        Subject Public Key Info:
            Public Key Algorithm: rsaEncryption
                Public-Key: (2048 bit)
                Modulus:
                    00:b2:4f:14:e7:10:be:d7:26:72:ab:36:97:ef:53:
                    bf:42:84:5e:58:d1:8a:28:fc:43:46:6f:7e:28:44:
                    50:0b:75:5d:00:d7:3c:0a:44:9e:20:6a:a4:f7:45:
                    4a:37:60:a3:6e:3f:12:fa:6d:fa:b6:46:c3:6a:a3:
                    b8:0c:27:28:02:57:28:d1:50:f7:61:39:55:b8:c3:
                    e1:25:86:52:3c:bf:05:1d:d7:b3:9a:f8:9a:24:31:
                    49:d5:a2:a9:e2:d3:91:ab:3e:3c:73:ef:f6:29:f1:
                    c8:35:d0:30:7b:7f:4e:92:a5:06:8f:87:e2:ce:f5:
                    c1:63:66:ac:18:69:2a:c1:5e:bb:5a:e8:6e:95:ff:
                    3b:80:62:9d:99:c7:c7:2f:66:d5:fd:62:1a:82:55:
                    5a:c6:fa:40:77:8e:c9:30:3c:1b:f0:f2:35:b8:6c:
                    59:9c:fd:e9:d6:ca:b4:40:1e:f7:04:ca:d1:67:a9:
                    74:e3:a5:08:54:d9:83:35:3b:8e:8c:23:0c:75:b6:
                    de:86:4a:9e:1a:3e:0a:50:49:38:9c:d2:a8:90:bf:
                    98:fa:c8:8c:2b:27:11:7e:2a:fb:ce:de:a9:ae:38:
                    93:22:fa:a6:ec:fb:5c:61:76:c3:44:d6:cc:0c:7e:
                    2f:6d:06:80:a2:74:40:bb:b7:1f:f4:3b:d7:73:54:
                    1f:f3
                Exponent: 65537 (0x10001)
        X509v3 extensions:
            X509v3 Key Usage: critical
                Certificate Sign, CRL Sign
            X509v3 Basic Constraints: critical
                CA:TRUE, pathlen:0
            X509v3 Subject Key Identifier: 
                08:6E:D8:B6:9C:8A:BF:ED:3E:D7:C3:74:5D:CC:80:1F:A8:2F:50:7A
            X509v3 Certificate Policies: 
                Policy: X509v3 Any Policy
                  CPS: https://www.globalsign.com/repository/

            X509v3 CRL Distribution Points: 

                Full Name:
                  URI:http://crl.globalsign.net/root.crl

            X509v3 Extended Key Usage: 
                Code Signing
            X509v3 Authority Key Identifier: 
                keyid:60:7B:66:1A:45:0D:97:CA:89:50:2F:7D:04:CD:34:A8:FF:FC:FD:4B

    Signature Algorithm: sha1WithRSAEncryption
         22:5c:c5:dd:3d:f4:0b:70:d8:e3:f5:e7:c5:8e:09:01:bb:b1:
         96:36:5c:5a:07:ad:c7:a8:44:49:51:25:7a:ae:0d:a4:19:3b:
         92:9c:cf:b9:42:26:bb:3b:6c:97:e7:c7:ce:11:6d:68:91:da:
         8d:6d:f1:53:4d:54:38:8c:61:f3:c8:82:76:69:be:81:32:0b:
         31:c3:6c:c9:9e:20:0a:58:2f:f0:48:fe:7e:48:07:aa:d7:43:
         58:94:73:54:04:31:a9:78:0d:3b:8c:b0:70:c1:3d:7e:d7:bd:
         2f:2a:c3:e2:f5:8f:0c:90:dc:6b:a5:c8:be:68:5e:5d:6d:f8:
         78:d2:be:49:95:1e:15:78:08:91:fb:34:c8:be:84:ad:bc:e0:
         c6:dd:18:db:f3:ca:f0:7b:c2:14:3c:18:b8:03:ba:95:3e:21:
         1e:3f:60:69:7a:7f:6a:03:9e:8d:4a:f9:f0:28:2c:30:84:5e:
         ec:26:72:42:b1:6d:cb:64:c3:12:8c:d6:84:4b:67:41:7c:b1:
         03:17:78:09:e3:ad:a8:b6:96:2d:a4:7e:80:03:4f:88:f7:c1:
         6b:5a:46:15:cd:2c:19:8b:d8:70:9c:e5:2d:49:88:60:72:a8:
         a4:19:52:70:43:5e:da:d6:46:03:b0:68:0e:24:ef:4a:f6:0b:
         25:24:ef:24
-----BEGIN CERTIFICATE-----
MIIEKDCCAxCgAwIBAgILBAAAAAABL07hNVwwDQYJKoZIhvcNAQEFBQAwVzELMAkG
A1UEBhMCQkUxGTAXBgNVBAoTEEdsb2JhbFNpZ24gbnYtc2ExEDAOBgNVBAsTB1Jv
b3QgQ0ExGzAZBgNVBAMTEkdsb2JhbFNpZ24gUm9vdCBDQTAeFw0xMTA0MTMxMDAw
MDBaFw0xOTA0MTMxMDAwMDBaMFExCzAJBgNVBAYTAkJFMRkwFwYDVQQKExBHbG9i
YWxTaWduIG52LXNhMScwJQYDVQQDEx5HbG9iYWxTaWduIENvZGVTaWduaW5nIENB
IC0gRzIwggEiMA0GCSqGSIb3DQEBAQUAA4IBDwAwggEKAoIBAQCyTxTnEL7XJnKr
NpfvU79ChF5Y0Yoo/ENGb34oRFALdV0A1zwKRJ4gaqT3RUo3YKNuPxL6bfq2RsNq
o7gMJygCVyjRUPdhOVW4w+ElhlI8vwUd17Oa+JokMUnVoqni05GrPjxz7/Yp8cg1
0DB7f06SpQaPh+LO9cFjZqwYaSrBXrta6G6V/zuAYp2Zx8cvZtX9YhqCVVrG+kB3
jskwPBvw8jW4bFmc/enWyrRAHvcEytFnqXTjpQhU2YM1O46MIwx1tt6GSp4aPgpQ
STic0qiQv5j6yIwrJxF+KvvO3qmuOJMi+qbs+1xhdsNE1swMfi9tBoCidEC7tx/0
O9dzVB/zAgMBAAGjgfowgfcwDgYDVR0PAQH/BAQDAgEGMBIGA1UdEwEB/wQIMAYB
Af8CAQAwHQYDVR0OBBYEFAhu2Lacir/tPtfDdF3MgB+oL1B6MEcGA1UdIARAMD4w
PAYEVR0gADA0MDIGCCsGAQUFBwIBFiZodHRwczovL3d3dy5nbG9iYWxzaWduLmNv
bS9yZXBvc2l0b3J5LzAzBgNVHR8ELDAqMCigJqAkhiJodHRwOi8vY3JsLmdsb2Jh
bHNpZ24ubmV0L3Jvb3QuY3JsMBMGA1UdJQQMMAoGCCsGAQUFBwMDMB8GA1UdIwQY
MBaAFGB7ZhpFDZfKiVAvfQTNNKj//P1LMA0GCSqGSIb3DQEBBQUAA4IBAQAiXMXd
PfQLcNjj9efFjgkBu7GWNlxaB63HqERJUSV6rg2kGTuSnM+5Qia7O2yX58fOEW1o
kdqNbfFTTVQ4jGHzyIJ2ab6BMgsxw2zJniAKWC/wSP5+SAeq10NYlHNUBDGpeA07
jLBwwT1+170vKsPi9Y8MkNxrpci+aF5dbfh40r5JlR4VeAiR+zTIvoStvODG3Rjb
88rwe8IUPBi4A7qVPiEeP2Bpen9qA56NSvnwKCwwhF7sJnJCsW3LZMMSjNaES2dB
fLEDF3gJ462otpYtpH6AA0+I98FrWkYVzSwZi9hwnOUtSYhgcqikGVJwQ17a1kYD
sGgOJO9K9gslJO8k
-----END CERTIFICATE-----

Certificate:
    Data:
        Version: 3 (0x2)
        Serial Number:
            0e:cf:f4:38:c8:fe:bf:35:6e:04:d8:6a:98:1b:1a:50
    Signature Algorithm: sha1WithRSAEncryption
        Issuer: C=US, O=Symantec Corporation, CN=Symantec Time Stamping Services CA - G2
        Validity
            Not Before: Oct 18 00:00:00 2012 GMT
            Not After : Dec 29 23:59:59 2020 GMT
        Subject: C=US, O=Symantec Corporation, CN=Symantec Time Stamping Services Signer - G4
        Subject Public Key Info:
            Public Key Algorithm: rsaEncryption
                Public-Key: (2048 bit)
                Modulus:
                    00:a2:63:0b:39:44:b8:bb:23:a7:44:49:bb:0e:ff:
                    a1:f0:61:0a:53:93:b0:98:db:ad:2c:0f:4a:c5:6e:
                    ff:86:3c:53:55:0f:15:ce:04:3f:2b:fd:a9:96:96:
                    d9:be:61:79:0b:5b:c9:4c:86:76:e5:e0:43:4b:22:
                    95:ee:c2:2b:43:c1:9f:d8:68:b4:8e:40:4f:ee:85:
                    38:b9:11:c5:23:f2:64:58:f0:15:32:6f:4e:57:a1:
                    ae:88:a4:02:d7:2a:1e:cd:4b:e1:dd:63:d5:17:89:
                    32:5b:b0:5e:99:5a:a8:9d:28:50:0e:17:ee:96:db:
                    61:3b:45:51:1d:cf:12:56:0b:92:47:fc:ab:ae:f6:
                    66:3d:47:ac:70:72:e7:92:e7:5f:cd:10:b9:c4:83:
                    64:94:19:bd:25:80:e1:e8:d2:22:a5:d0:ba:02:7a:
                    a1:77:93:5b:65:c3:ee:17:74:bc:41:86:2a:dc:08:
                    4c:8c:92:8c:91:2d:9e:77:44:1f:68:d6:a8:74:77:
                    db:0e:5b:32:8b:56:8b:33:bd:d9:63:c8:49:9d:3a:
                    c5:c5:ea:33:0b:d2:f1:a3:1b:f4:8b:be:d9:b3:57:
                    8b:3b:de:04:a7:7a:22:b2:24:ae:2e:c7:70:c5:be:
                    4e:83:26:08:fb:0b:bd:a9:4f:99:08:e1:10:28:72:
                    aa:cd
                Exponent: 65537 (0x10001)
        X509v3 extensions:
            X509v3 Basic Constraints: critical
                CA:FALSE
            X509v3 Extended Key Usage: critical
                Time Stamping
            X509v3 Key Usage: critical
                Digital Signature
            Authority Information Access: 
                OCSP - URI:http://ts-ocsp.ws.symantec.com
                CA Issuers - URI:http://ts-aia.ws.symantec.com/tss-ca-g2.cer

            X509v3 CRL Distribution Points: 

                Full Name:
                  URI:http://ts-crl.ws.symantec.com/tss-ca-g2.crl

            X509v3 Subject Alternative Name: 
                DirName:/CN=TimeStamp-2048-2
            X509v3 Subject Key Identifier: 
                46:C6:69:A3:0E:4A:14:1E:D5:4C:DA:52:63:17:3F:5E:36:BC:0D:E6
            X509v3 Authority Key Identifier: 
                keyid:5F:9A:F5:6E:5C:CC:CC:74:9A:D4:DD:7D:EF:3F:DB:EC:4C:80:2E:DD

    Signature Algorithm: sha1WithRSAEncryption
         78:3b:b4:91:2a:00:4c:f0:8f:62:30:37:78:a3:84:27:07:6f:
         18:b2:de:25:dc:a0:d4:94:03:aa:86:4e:25:9f:9a:40:03:1c:
         dd:ce:e3:79:cb:21:68:06:da:b6:32:b4:6d:bf:f4:2c:26:63:
         33:e4:49:64:6d:0d:e6:c3:67:0e:f7:05:a4:35:6c:7c:89:16:
         c6:e9:b2:df:b2:e9:dd:20:c6:71:0f:cd:95:74:dc:b6:5c:de:
         bd:37:1f:43:78:e6:78:b5:cd:28:04:20:a3:aa:f1:4b:c4:88:
         29:91:0e:80:d1:11:fc:dd:5c:76:6e:4f:5e:0e:45:46:41:6e:
         0d:b0:ea:38:9a:b1:3a:da:09:71:10:fc:1c:79:b4:80:7b:ac:
         69:f4:fd:9c:b6:0c:16:2b:f1:7f:5b:09:3d:9b:5b:e2:16:ca:
         13:81:6d:00:2e:38:0d:a8:29:8f:2c:e1:b2:f4:5a:a9:01:af:
         15:9c:2c:2f:49:1b:db:22:bb:c3:fe:78:94:51:c3:86:b1:82:
         88:5d:f0:3d:b4:51:a1:79:33:2b:2e:7b:b9:dc:20:09:13:71:
         eb:6a:19:5b:cf:e8:a5:30:57:2c:89:49:3f:b9:cf:7f:c9:bf:
         3e:22:68:63:53:9a:bd:69:74:ac:c5:1d:3c:7f:92:e0:c3:bc:
         1c:d8:04:75
-----BEGIN CERTIFICATE-----
MIIEozCCA4ugAwIBAgIQDs/0OMj+vzVuBNhqmBsaUDANBgkqhkiG9w0BAQUFADBe
MQswCQYDVQQGEwJVUzEdMBsGA1UEChMUU3ltYW50ZWMgQ29ycG9yYXRpb24xMDAu
BgNVBAMTJ1N5bWFudGVjIFRpbWUgU3RhbXBpbmcgU2VydmljZXMgQ0EgLSBHMjAe
Fw0xMjEwMTgwMDAwMDBaFw0yMDEyMjkyMzU5NTlaMGIxCzAJBgNVBAYTAlVTMR0w
GwYDVQQKExRTeW1hbnRlYyBDb3Jwb3JhdGlvbjE0MDIGA1UEAxMrU3ltYW50ZWMg
VGltZSBTdGFtcGluZyBTZXJ2aWNlcyBTaWduZXIgLSBHNDCCASIwDQYJKoZIhvcN
AQEBBQADggEPADCCAQoCggEBAKJjCzlEuLsjp0RJuw7/ofBhClOTsJjbrSwPSsVu
/4Y8U1UPFc4EPyv9qZaW2b5heQtbyUyGduXgQ0sile7CK0PBn9hotI5AT+6FOLkR
xSPyZFjwFTJvTlehroikAtcqHs1L4d1j1ReJMluwXplaqJ0oUA4X7pbbYTtFUR3P
ElYLkkf8q672Zj1HrHBy55LnX80QucSDZJQZvSWA4ejSIqXQugJ6oXeTW2XD7hd0
vEGGKtwITIySjJEtnndEH2jWqHR32w5bMotWizO92WPISZ06xcXqMwvS8aMb9Iu+
2bNXizveBKd6IrIkri7HcMW+ToMmCPsLvalPmQjhEChyqs0CAwEAAaOCAVcwggFT
MAwGA1UdEwEB/wQCMAAwFgYDVR0lAQH/BAwwCgYIKwYBBQUHAwgwDgYDVR0PAQH/
BAQDAgeAMHMGCCsGAQUFBwEBBGcwZTAqBggrBgEFBQcwAYYeaHR0cDovL3RzLW9j
c3Aud3Muc3ltYW50ZWMuY29tMDcGCCsGAQUFBzAChitodHRwOi8vdHMtYWlhLndz
LnN5bWFudGVjLmNvbS90c3MtY2EtZzIuY2VyMDwGA1UdHwQ1MDMwMaAvoC2GK2h0
dHA6Ly90cy1jcmwud3Muc3ltYW50ZWMuY29tL3Rzcy1jYS1nMi5jcmwwKAYDVR0R
BCEwH6QdMBsxGTAXBgNVBAMTEFRpbWVTdGFtcC0yMDQ4LTIwHQYDVR0OBBYEFEbG
aaMOShQe1UzaUmMXP142vA3mMB8GA1UdIwQYMBaAFF+a9W5czMx0mtTdfe8/2+xM
gC7dMA0GCSqGSIb3DQEBBQUAA4IBAQB4O7SRKgBM8I9iMDd4o4QnB28Yst4l3KDU
lAOqhk4ln5pAAxzdzuN5yyFoBtq2MrRtv/QsJmMz5ElkbQ3mw2cO9wWkNWx8iRbG
6bLfsundIMZxD82VdNy2XN69Nx9DeOZ4tc0oBCCjqvFLxIgpkQ6A0RH83Vx2bk9e
DkVGQW4NsOo4mrE62glxEPwcebSAe6xp9P2ctgwWK/F/Wwk9m1viFsoTgW0ALjgN
qCmPLOGy9FqpAa8VnCwvSRvbIrvD/niUUcOGsYKIXfA9tFGheTMrLnu53CAJE3Hr
ahlbz+ilMFcsiUk/uc9/yb8+ImhjU5q9aXSsxR08f5Lgw7wc2AR1
-----END CERTIFICATE-----

Certificate:
    Data:
        Version: 3 (0x2)
        Serial Number:
            11:21:f1:13:a3:1c:c6:e8:13:b7:96:ad:b6:f4:4c:6f:b7:f8
    Signature Algorithm: sha1WithRSAEncryption
        Issuer: C=BE, O=GlobalSign nv-sa, CN=GlobalSign CodeSigning CA - G2
        Validity
            Not Before: Sep  6 15:10:05 2013 GMT
            Not After : Oct 30 20:25:45 2016 GMT
        Subject: C=US, O=Secure By Design Inc., CN=Secure By Design Inc./emailAddress=contact@ninite.com
        Subject Public Key Info:
            Public Key Algorithm: rsaEncryption
                Public-Key: (2048 bit)
                Modulus:
                    00:b8:b3:46:4c:9f:52:2c:d3:3e:7a:9a:f6:f4:03:
                    2d:fb:a5:68:0d:bc:f5:bd:c8:a8:14:82:ba:c2:49:
                    af:3f:d0:71:57:7a:75:27:04:a3:c8:3f:52:40:1b:
                    7f:19:cf:78:5c:c0:1b:99:a8:31:f1:e5:fc:6d:44:
                    f9:0d:05:bb:c8:11:c0:cd:1f:31:62:e2:49:e1:cc:
                    fa:b8:0a:85:58:1d:9d:d8:ca:34:78:40:f2:03:55:
                    a6:27:88:f6:70:14:c9:d6:6d:ae:2b:42:bf:ad:15:
                    0e:fc:e0:d1:56:7c:b2:38:63:be:d8:3c:f3:c9:90:
                    b9:a8:87:61:af:50:2c:6a:ab:55:5a:6f:6f:3e:ff:
                    aa:8f:9a:98:15:c9:ab:b4:8b:04:30:c9:f2:c5:49:
                    3a:0d:57:a3:df:ee:6e:80:e4:d5:bb:c7:de:f5:53:
                    fa:c8:23:ac:35:08:9f:10:3f:dc:60:28:d3:7f:6c:
                    e2:af:10:fe:c5:a1:8d:ca:ec:74:12:7f:3f:22:76:
                    63:ed:92:53:f7:b6:3e:3b:4b:19:ce:55:1e:e7:f0:
                    89:37:95:cd:ed:13:74:ba:af:37:6a:31:4d:1d:ca:
                    4c:0d:4b:8a:ac:45:72:94:9f:34:9e:a5:d0:dd:7b:
                    1e:a1:71:d8:95:9e:15:e0:45:3b:d2:df:b1:a0:4b:
                    84:d3
                Exponent: 65537 (0x10001)
        X509v3 extensions:
            X509v3 Key Usage: critical
                Digital Signature
            X509v3 Certificate Policies: 
                Policy: 1.3.6.1.4.1.4146.1.50
                  CPS: https://www.globalsign.com/repository/

            X509v3 Basic Constraints: 
                CA:FALSE
            X509v3 Extended Key Usage: 
                Code Signing
            X509v3 CRL Distribution Points: 

                Full Name:
                  URI:http://crl.globalsign.com/gs/gscodesigng2.crl

            Authority Information Access: 
                CA Issuers - URI:http://secure.globalsign.com/cacert/gscodesigng2.crt
                OCSP - URI:http://ocsp2.globalsign.com/gscodesigng2

            X509v3 Subject Key Identifier: 
                1B:C9:9A:48:84:0C:36:8D:65:E7:AE:F8:94:C4:40:16:81:8A:C1:3A
            X509v3 Authority Key Identifier: 
                keyid:08:6E:D8:B6:9C:8A:BF:ED:3E:D7:C3:74:5D:CC:80:1F:A8:2F:50:7A

    Signature Algorithm: sha1WithRSAEncryption
         88:59:c7:97:2b:c0:78:84:b2:6e:7c:19:20:a6:d8:7c:35:5b:
         45:de:92:13:fb:ce:67:6a:68:37:4f:87:00:f5:37:05:44:31:
         14:50:15:55:cc:ae:af:c5:dd:c2:0c:7d:7e:39:37:36:26:d3:
         6a:70:bc:6a:b0:4a:67:94:28:94:da:3a:d0:7f:b9:bd:44:e8:
         f2:60:33:0c:da:89:77:1f:38:7a:a2:93:e0:3c:0c:c3:95:8a:
         31:aa:90:74:d3:64:0a:b9:fb:9d:e5:96:8d:c8:54:9a:85:ca:
         cc:0a:bf:58:2d:a5:a4:44:86:51:eb:dc:57:ea:29:00:ef:f4:
         a9:99:47:90:d6:7c:01:ab:b9:ba:fe:95:3b:64:f3:55:10:89:
         18:33:68:bb:6d:3d:b4:f5:b7:73:60:1b:c6:bc:55:2a:2b:79:
         9d:90:f4:e5:7e:a6:d2:5e:b6:67:9b:d9:80:bc:d3:c3:be:a4:
         ad:d6:5b:1f:1d:f4:6b:d5:20:75:60:1f:dd:92:de:98:50:dc:
         98:1f:15:1a:c7:28:b9:67:dd:d8:31:e7:ac:d5:cd:3a:89:b3:
         d4:91:e1:0c:62:e1:fc:96:82:45:14:1f:9d:e3:c1:81:a5:9b:
         82:98:a5:10:81:fb:c6:83:60:0a:8a:a2:7b:50:d8:91:1a:b6:
         3b:08:02:67
-----BEGIN CERTIFICATE-----
MIIE2jCCA8KgAwIBAgISESHxE6McxugTt5attvRMb7f4MA0GCSqGSIb3DQEBBQUA
MFExCzAJBgNVBAYTAkJFMRkwFwYDVQQKExBHbG9iYWxTaWduIG52LXNhMScwJQYD
VQQDEx5HbG9iYWxTaWduIENvZGVTaWduaW5nIENBIC0gRzIwHhcNMTMwOTA2MTUx
MDA1WhcNMTYxMDMwMjAyNTQ1WjBwMQswCQYDVQQGEwJVUzEeMBwGA1UEChMVU2Vj
dXJlIEJ5IERlc2lnbiBJbmMuMR4wHAYDVQQDExVTZWN1cmUgQnkgRGVzaWduIElu
Yy4xITAfBgkqhkiG9w0BCQEWEmNvbnRhY3RAbmluaXRlLmNvbTCCASIwDQYJKoZI
hvcNAQEBBQADggEPADCCAQoCggEBALizRkyfUizTPnqa9vQDLfulaA289b3IqBSC
usJJrz/QcVd6dScEo8g/UkAbfxnPeFzAG5moMfHl/G1E+Q0Fu8gRwM0fMWLiSeHM
+rgKhVgdndjKNHhA8gNVpieI9nAUydZtritCv60VDvzg0VZ8sjhjvtg888mQuaiH
Ya9QLGqrVVpvbz7/qo+amBXJq7SLBDDJ8sVJOg1Xo9/uboDk1bvH3vVT+sgjrDUI
nxA/3GAo039s4q8Q/sWhjcrsdBJ/PyJ2Y+2SU/e2PjtLGc5VHufwiTeVze0TdLqv
N2oxTR3KTA1LiqxFcpSfNJ6l0N17HqFx2JWeFeBFO9LfsaBLhNMCAwEAAaOCAYsw
ggGHMA4GA1UdDwEB/wQEAwIHgDBMBgNVHSAERTBDMEEGCSsGAQQBoDIBMjA0MDIG
CCsGAQUFBwIBFiZodHRwczovL3d3dy5nbG9iYWxzaWduLmNvbS9yZXBvc2l0b3J5
LzAJBgNVHRMEAjAAMBMGA1UdJQQMMAoGCCsGAQUFBwMDMD4GA1UdHwQ3MDUwM6Ax
oC+GLWh0dHA6Ly9jcmwuZ2xvYmFsc2lnbi5jb20vZ3MvZ3Njb2Rlc2lnbmcyLmNy
bDCBhgYIKwYBBQUHAQEEejB4MEAGCCsGAQUFBzAChjRodHRwOi8vc2VjdXJlLmds
b2JhbHNpZ24uY29tL2NhY2VydC9nc2NvZGVzaWduZzIuY3J0MDQGCCsGAQUFBzAB
hihodHRwOi8vb2NzcDIuZ2xvYmFsc2lnbi5jb20vZ3Njb2Rlc2lnbmcyMB0GA1Ud
DgQWBBQbyZpIhAw2jWXnrviUxEAWgYrBOjAfBgNVHSMEGDAWgBQIbti2nIq/7T7X
w3RdzIAfqC9QejANBgkqhkiG9w0BAQUFAAOCAQEAiFnHlyvAeISybnwZIKbYfDVb
Rd6SE/vOZ2poN0+HAPU3BUQxFFAVVcyur8Xdwgx9fjk3NibTanC8arBKZ5QolNo6
0H+5vUTo8mAzDNqJdx84eqKT4DwMw5WKMaqQdNNkCrn7neWWjchUmoXKzAq/WC2l
pESGUevcV+opAO/0qZlHkNZ8Aau5uv6VO2TzVRCJGDNou209tPW3c2AbxrxVKit5
nZD05X6m0l62Z5vZgLzTw76krdZbHx30a9UgdWAf3ZLemFDcmB8VGscouWfd2DHn
rNXNOomz1JHhDGLh/JaCRRQfnePBgaWbgpilEIH7xoNgCoqie1DYkRq2OwgCZw==
-----END CERTIFICATE-----

Certificate:
    Data:
        Version: 3 (0x2)
        Serial Number:
            61:0b:7f:6b:00:00:00:00:00:19
    Signature Algorithm: sha1WithRSAEncryption
        Issuer: C=US, ST=Washington, L=Redmond, O=Microsoft Corporation, CN=Microsoft Code Verification Root
        Validity
            Not Before: May 23 17:00:51 2006 GMT
            Not After : May 23 17:10:51 2016 GMT
        Subject: C=BE, O=GlobalSign nv-sa, OU=Root CA, CN=GlobalSign Root CA
        Subject Public Key Info:
            Public Key Algorithm: rsaEncryption
                Public-Key: (2048 bit)
                Modulus:
                    00:da:0e:e6:99:8d:ce:a3:e3:4f:8a:7e:fb:f1:8b:
                    83:25:6b:ea:48:1f:f1:2a:b0:b9:95:11:04:bd:f0:
                    63:d1:e2:67:66:cf:1c:dd:cf:1b:48:2b:ee:8d:89:
                    8e:9a:af:29:80:65:ab:e9:c7:2d:12:cb:ab:1c:4c:
                    70:07:a1:3d:0a:30:cd:15:8d:4f:f8:dd:d4:8c:50:
                    15:1c:ef:50:ee:c4:2e:f7:fc:e9:52:f2:91:7d:e0:
                    6d:d5:35:30:8e:5e:43:73:f2:41:e9:d5:6a:e3:b2:
                    89:3a:56:39:38:6f:06:3c:88:69:5b:2a:4d:c5:a7:
                    54:b8:6c:89:cc:9b:f9:3c:ca:e5:fd:89:f5:12:3c:
                    92:78:96:d6:dc:74:6e:93:44:61:d1:8d:c7:46:b2:
                    75:0e:86:e8:19:8a:d5:6d:6c:d5:78:16:95:a2:e9:
                    c8:0a:38:eb:f2:24:13:4f:73:54:93:13:85:3a:1b:
                    bc:1e:34:b5:8b:05:8c:b9:77:8b:b1:db:1f:20:91:
                    ab:09:53:6e:90:ce:7b:37:74:b9:70:47:91:22:51:
                    63:16:79:ae:b1:ae:41:26:08:c8:19:2b:d1:46:aa:
                    48:d6:64:2a:d7:83:34:ff:2c:2a:c1:6c:19:43:4a:
                    07:85:e7:d3:7c:f6:21:68:ef:ea:f2:52:9f:7f:93:
                    90:cf
                Exponent: 65537 (0x10001)
        X509v3 extensions:
            X509v3 Certificate Policies: 
                Policy: X509v3 Any Policy

            1.3.6.1.4.1.311.21.7: 
                0'..+.....7......N...................n...
            X509v3 Key Usage: 
                Digital Signature, Certificate Sign, CRL Sign
            X509v3 Basic Constraints: critical
                CA:TRUE
            X509v3 Subject Key Identifier: 
                60:7B:66:1A:45:0D:97:CA:89:50:2F:7D:04:CD:34:A8:FF:FC:FD:4B
            1.3.6.1.4.1.311.20.2: 
                ...C.r.o.s.s.C.A
            X509v3 Authority Key Identifier: 
                keyid:62:FB:0A:21:5B:7F:43:6E:11:DA:09:54:50:6B:F5:D2:96:71:F1:9E

            X509v3 CRL Distribution Points: 

                Full Name:
                  URI:http://crl.microsoft.com/pki/crl/products/MicrosoftCodeVerifRoot.crl

    Signature Algorithm: sha1WithRSAEncryption
         13:c5:6c:5e:07:7f:3c:57:ff:9b:31:5f:3f:bd:95:54:25:c6:
         79:f9:2c:31:03:4d:64:69:4b:56:d9:5b:97:6f:7c:f3:f0:d0:
         24:65:75:38:63:98:13:70:16:13:f7:a7:01:f1:c6:23:e0:85:
         86:6c:0b:f0:80:94:5a:75:e8:7c:e4:1e:92:b4:73:bf:c1:b3:
         a7:b0:0b:d3:18:84:cb:cc:09:a3:5c:9c:4f:3e:b0:3a:9c:2d:
         1b:c4:04:ef:97:37:96:6f:e5:ec:ba:ac:6a:b3:d4:e2:3c:df:
         8b:25:e7:ac:bc:62:45:31:dd:a4:0a:72:e4:1b:f8:78:43:01:
         cc:ba:39:14:de:5d:90:ae:d8:5a:cf:5e:ca:46:81:51:33:d5:
         a6:0e:58:67:d3:d8:66:58:88:16:9b:ee:b1:1a:ca:ad:91:13:
         84:21:da:9a:6e:20:ef:da:00:74:28:ba:c9:5f:f3:4d:5d:c3:
         da:25:69:25:54:ea:44:bc:c3:9b:29:33:1c:d6:3c:96:1f:87:
         81:c5:53:d7:2a:27:33:d4:2e:19:7c:08:58:6d:db:4e:19:99:
         a9:ea:5f:f3:9a:9d:8c:51:3a:5a:5c:bd:2f:a9:08:35:9b:54:
         a7:db:35:1a:52:16:33:34:3a:a3:80:04:6a:fd:b4:83:8c:ad:
         90:cf:0c:3a:65:96:ec:33:4e:18:26:b8:49:bb:eb:81:92:ff:
         13:4d:32:4b:23:c7:33:e7:b6:71:6b:15:f6:9c:80:e6:bc:b7:
         6c:be:41:d5:03:3a:71:33:15:00:50:74:3b:0e:5d:f9:96:aa:
         ed:90:3e:ab:13:4c:80:99:26:bc:38:a5:eb:02:36:89:1d:b6:
         20:be:83:ab:10:f8:19:9e:d7:63:79:d4:ae:b1:2f:61:36:f9:
         4a:4b:a8:33:c7:0e:72:41:f9:f1:b1:90:7e:ae:46:ef:de:39:
         7b:75:a0:41:14:59:04:1d:42:bc:47:88:b8:13:0e:05:fa:1d:
         f0:80:8d:ff:70:c6:77:d8:4b:dc:46:0e:23:1a:72:d5:bf:de:
         fe:aa:ae:69:58:3c:fc:5c:46:e4:d5:81:9a:8b:6e:65:59:77:
         1a:32:a5:90:a6:b6:64:93:64:fd:07:53:c9:a0:de:28:ad:2a:
         6c:c6:38:d1:81:ce:98:f5:40:19:e9:2c:17:43:a4:26:5f:d3:
         44:30:53:e4:1d:02:ba:a4:0a:2f:16:dd:7a:60:27:52:42:bb:
         ad:98:37:28:97:e4:b8:d2:79:11:e3:10:8c:48:d5:30:5d:0a:
         0c:52:de:f5:88:ea:8d:1a:2d:67:c9:f4:80:14:84:b7:85:0c:
         d1:66:28:a5:c6:6f:24:61
-----BEGIN CERTIFICATE-----
MIIFfzCCA2egAwIBAgIKYQt/awAAAAAAGTANBgkqhkiG9w0BAQUFADB/MQswCQYD
VQQGEwJVUzETMBEGA1UECBMKV2FzaGluZ3RvbjEQMA4GA1UEBxMHUmVkbW9uZDEe
MBwGA1UEChMVTWljcm9zb2Z0IENvcnBvcmF0aW9uMSkwJwYDVQQDEyBNaWNyb3Nv
ZnQgQ29kZSBWZXJpZmljYXRpb24gUm9vdDAeFw0wNjA1MjMxNzAwNTFaFw0xNjA1
MjMxNzEwNTFaMFcxCzAJBgNVBAYTAkJFMRkwFwYDVQQKExBHbG9iYWxTaWduIG52
LXNhMRAwDgYDVQQLEwdSb290IENBMRswGQYDVQQDExJHbG9iYWxTaWduIFJvb3Qg
Q0EwggEiMA0GCSqGSIb3DQEBAQUAA4IBDwAwggEKAoIBAQDaDuaZjc6j40+Kfvvx
i4Mla+pIH/EqsLmVEQS98GPR4mdmzxzdzxtIK+6NiY6arymAZavpxy0Sy6scTHAH
oT0KMM0VjU/43dSMUBUc71DuxC73/OlS8pF94G3VNTCOXkNz8kHp1Wrjsok6Vjk4
bwY8iGlbKk3Fp1S4bInMm/k8yuX9ifUSPJJ4ltbcdG6TRGHRjcdGsnUOhugZitVt
bNV4FpWi6cgKOOvyJBNPc1STE4U6G7weNLWLBYy5d4ux2x8gkasJU26Qzns3dLlw
R5EiUWMWea6xrkEmCMgZK9FGqkjWZCrXgzT/LCrBbBlDSgeF59N89iFo7+ryUp9/
k5DPAgMBAAGjggEjMIIBHzARBgNVHSAECjAIMAYGBFUdIAAwNgYJKwYBBAGCNxUH
BCkwJwYfKwYBBAGCNxUIjeDRiU6E15zDB4amhvscj9O/phUBGQIBbgIBADALBgNV
HQ8EBAMCAYYwDwYDVR0TAQH/BAUwAwEB/zAdBgNVHQ4EFgQUYHtmGkUNl8qJUC99
BM00qP/8/UswHQYJKwYBBAGCNxQCBBAeDgBDAHIAbwBzAHMAQwBBMB8GA1UdIwQY
MBaAFGL7CiFbf0NuEdoJVFBr9dKWcfGeMFUGA1UdHwROMEwwSqBIoEaGRGh0dHA6
Ly9jcmwubWljcm9zb2Z0LmNvbS9wa2kvY3JsL3Byb2R1Y3RzL01pY3Jvc29mdENv
ZGVWZXJpZlJvb3QuY3JsMA0GCSqGSIb3DQEBBQUAA4ICAQATxWxeB388V/+bMV8/
vZVUJcZ5+SwxA01kaUtW2VuXb3zz8NAkZXU4Y5gTcBYT96cB8cYj4IWGbAvwgJRa
deh85B6StHO/wbOnsAvTGITLzAmjXJxPPrA6nC0bxATvlzeWb+Xsuqxqs9TiPN+L
JeesvGJFMd2kCnLkG/h4QwHMujkU3l2Qrthaz17KRoFRM9WmDlhn09hmWIgWm+6x
GsqtkROEIdqabiDv2gB0KLrJX/NNXcPaJWklVOpEvMObKTMc1jyWH4eBxVPXKicz
1C4ZfAhYbdtOGZmp6l/zmp2MUTpaXL0vqQg1m1Sn2zUaUhYzNDqjgARq/bSDjK2Q
zww6ZZbsM04YJrhJu+uBkv8TTTJLI8cz57ZxaxX2nIDmvLdsvkHVAzpxMxUAUHQ7
Dl35lqrtkD6rE0yAmSa8OKXrAjaJHbYgvoOrEPgZntdjedSusS9hNvlKS6gzxw5y
QfnxsZB+rkbv3jl7daBBFFkEHUK8R4i4Ew4F+h3wgI3/cMZ32EvcRg4jGnLVv97+
qq5pWDz8XEbk1YGai25lWXcaMqWQprZkk2T9B1PJoN4orSpsxjjRgc6Y9UAZ6SwX
Q6QmX9NEMFPkHQK6pAovFt16YCdSQrutmDcol+S40nkR4xCMSNUwXQoMUt71iOqN
Gi1nyfSAFIS3hQzRZiilxm8kYQ==
-----END CERTIFICATE-----

