Certificate:
    Data:
        Version: 3 (0x2)
        Serial Number:
            1d:83:64:82:f6:3d:47:27:b7:75:ba:8c:73:80:ff:0a
    Signature Algorithm: sha1WithRSAEncryption
        Issuer: C=PL, O=Unizeto Technologies S.A., OU=Certum Certification Authority, CN=Certum Code Signing CA
        Validity
            Not Before: Sep 22 10:28:20 2014 GMT
            Not After : Sep 22 10:28:20 2015 GMT
        Subject: C=UA, O=Artur Flomenko, CN=Artur Flomenko/emailAddress=arturflomenko@gmail.com
        Subject Public Key Info:
            Public Key Algorithm: rsaEncryption
                Public-Key: (2048 bit)
                Modulus:
                    00:f0:6a:2a:45:d0:d5:81:53:bb:ca:56:18:12:c9:
                    d7:5f:a4:64:f1:99:a1:86:a0:4a:9d:3d:34:85:ed:
                    ec:27:61:90:50:be:14:19:3e:57:d6:2a:a8:2f:08:
                    c6:03:f0:bb:87:01:2f:43:61:7d:0b:23:ea:ee:86:
                    ca:2b:89:ff:02:a5:67:5d:99:6f:71:9b:99:3f:94:
                    bc:f8:86:f1:fd:e3:99:ef:d8:d0:ff:bf:50:66:3b:
                    74:15:c2:cd:09:99:f9:5e:8c:8b:2e:b6:0d:fb:e8:
                    67:c3:8f:93:a4:36:65:c0:55:c6:64:19:e6:82:62:
                    fd:6d:55:a7:8e:a0:92:23:a5:f5:93:d9:4b:42:4f:
                    a4:aa:19:46:7e:0e:e7:48:90:f2:c2:3d:fc:df:aa:
                    7b:a9:65:31:87:52:f1:d5:c0:35:0d:2c:ef:28:a9:
                    83:5c:5a:f3:39:e0:dd:64:46:bb:ec:ec:02:82:82:
                    8e:e2:8d:42:85:44:dc:c5:70:6e:d5:88:b3:f3:05:
                    a0:cd:5d:0b:b5:0e:b8:87:c0:2a:9e:bc:14:39:90:
                    f8:e0:15:29:bf:85:d7:fa:3a:5f:62:95:66:50:0a:
                    71:0b:15:5e:62:38:ff:ed:07:ce:64:ff:b3:bd:b4:
                    41:ae:04:d1:43:13:6b:0a:96:bf:57:0d:57:83:f2:
                    a6:67
                Exponent: 65537 (0x10001)
        X509v3 extensions:
            X509v3 Basic Constraints: critical
                CA:FALSE
            X509v3 CRL Distribution Points: 

                Full Name:
                  URI:http://crl.certum.pl/csca.crl

            Authority Information Access: 
                OCSP - URI:http://csca.ocsp.certum.pl
                CA Issuers - URI:http://repository.certum.pl/csca.cer

            X509v3 Authority Key Identifier: 
                keyid:78:2F:90:F1:4A:5C:CC:34:51:1D:80:23:F2:12:1B:7D:1A:23:C1:8F

            X509v3 Subject Key Identifier: 
                91:38:3E:8E:90:59:2D:6F:44:E6:C9:83:AE:C2:CA:1D:E5:41:14:90
            X509v3 Issuer Alternative Name: 
                email:csca@certum.pl
            X509v3 Key Usage: critical
                Digital Signature, Key Encipherment
            X509v3 Certificate Policies: 
                Policy: 1.2.616.1.113527.2.5.1.4
                  CPS: https://www.certum.pl/CPS
                  User Notice:
                    Organization: Unizeto Technologies S.A.
                    Number: 1
                    Explicit Text: Usage of this certificate is strictly subjected to the CERTUM Certification Practice Statement (CPS) incorporated by reference herein and in the repository at https://www.certum.pl/repository.

            X509v3 Extended Key Usage: 
                Code Signing
            Netscape Cert Type: 
                Object Signing
    Signature Algorithm: sha1WithRSAEncryption
         cc:23:ba:b4:e4:09:00:38:60:94:c8:21:59:d7:90:ca:90:02:
         37:81:35:c2:97:2b:c4:e3:6b:ea:64:02:4d:71:fa:e8:03:53:
         1a:0e:b0:0a:55:4f:13:87:c0:34:5f:ca:4d:3c:ca:35:56:a6:
         20:df:e2:32:86:ee:96:46:ed:89:71:5e:61:c9:74:0e:a6:b1:
         67:b8:4a:3a:32:32:8f:32:ef:90:e4:b0:39:30:7d:88:5e:66:
         68:51:f1:95:15:da:7b:fb:8a:11:4a:53:9f:8d:88:c6:02:eb:
         c2:2a:29:c8:4f:e0:ca:ae:c6:d4:07:2f:a7:1c:38:49:4e:b5:
         8d:dd:cc:93:a6:bd:f9:76:5f:cc:15:03:7f:f5:f8:6d:22:a9:
         3e:2a:96:df:9f:e9:dd:7c:a1:58:e4:dd:e7:3e:df:48:7e:9f:
         42:d1:13:e0:fb:96:a6:2f:b9:2a:79:b1:f9:7e:1e:0b:b1:65:
         2b:a6:f0:9e:94:7a:bc:7f:68:32:08:81:49:34:81:c5:af:e2:
         01:7b:79:2e:11:94:c1:09:ea:bc:41:7d:55:ef:04:88:4a:7d:
         c1:4b:d8:9d:5b:89:21:0f:81:bc:04:37:68:28:80:b5:c4:95:
         a2:9a:97:e7:4c:47:ce:74:91:0c:dc:f5:10:36:4d:59:05:c2:
         b6:27:e9:e7
-----BEGIN CERTIFICATE-----
MIIF7zCCBNegAwIBAgIQHYNkgvY9Rye3dbqMc4D/CjANBgkqhkiG9w0BAQUFADB7
MQswCQYDVQQGEwJQTDEiMCAGA1UEChMZVW5pemV0byBUZWNobm9sb2dpZXMgUy5B
LjEnMCUGA1UECxMeQ2VydHVtIENlcnRpZmljYXRpb24gQXV0aG9yaXR5MR8wHQYD
VQQDExZDZXJ0dW0gQ29kZSBTaWduaW5nIENBMB4XDTE0MDkyMjEwMjgyMFoXDTE1
MDkyMjEwMjgyMFowZzELMAkGA1UEBhMCVUExFzAVBgNVBAoMDkFydHVyIEZsb21l
bmtvMRcwFQYDVQQDDA5BcnR1ciBGbG9tZW5rbzEmMCQGCSqGSIb3DQEJARYXYXJ0
dXJmbG9tZW5rb0BnbWFpbC5jb20wggEiMA0GCSqGSIb3DQEBAQUAA4IBDwAwggEK
AoIBAQDwaipF0NWBU7vKVhgSyddfpGTxmaGGoEqdPTSF7ewnYZBQvhQZPlfWKqgv
CMYD8LuHAS9DYX0LI+ruhsorif8CpWddmW9xm5k/lLz4hvH945nv2ND/v1BmO3QV
ws0JmflejIsutg376GfDj5OkNmXAVcZkGeaCYv1tVaeOoJIjpfWT2UtCT6SqGUZ+
DudIkPLCPfzfqnupZTGHUvHVwDUNLO8oqYNcWvM54N1kRrvs7AKCgo7ijUKFRNzF
cG7ViLPzBaDNXQu1DriHwCqevBQ5kPjgFSm/hdf6Ol9ilWZQCnELFV5iOP/tB85k
/7O9tEGuBNFDE2sKlr9XDVeD8qZnAgMBAAGjggKBMIICfTAMBgNVHRMBAf8EAjAA
MC4GA1UdHwQnMCUwI6AhoB+GHWh0dHA6Ly9jcmwuY2VydHVtLnBsL2NzY2EuY3Js
MGgGCCsGAQUFBwEBBFwwWjAmBggrBgEFBQcwAYYaaHR0cDovL2NzY2Eub2NzcC5j
ZXJ0dW0ucGwwMAYIKwYBBQUHMAKGJGh0dHA6Ly9yZXBvc2l0b3J5LmNlcnR1bS5w
bC9jc2NhLmNlcjAfBgNVHSMEGDAWgBR4L5DxSlzMNFEdgCPyEht9GiPBjzAdBgNV
HQ4EFgQUkTg+jpBZLW9E5smDrsLKHeVBFJAwGQYDVR0SBBIwEIEOY3NjYUBjZXJ0
dW0ucGwwDgYDVR0PAQH/BAQDAgWgMIIBPgYDVR0gBIIBNTCCATEwggEtBgsqhGgB
hvZ3AgUBBDCCARwwJQYIKwYBBQUHAgEWGWh0dHBzOi8vd3d3LmNlcnR1bS5wbC9D
UFMwgfIGCCsGAQUFBwICMIHlMCAWGVVuaXpldG8gVGVjaG5vbG9naWVzIFMuQS4w
AwIBARqBwFVzYWdlIG9mIHRoaXMgY2VydGlmaWNhdGUgaXMgc3RyaWN0bHkgc3Vi
amVjdGVkIHRvIHRoZSBDRVJUVU0gQ2VydGlmaWNhdGlvbiBQcmFjdGljZSBTdGF0
ZW1lbnQgKENQUykgaW5jb3Jwb3JhdGVkIGJ5IHJlZmVyZW5jZSBoZXJlaW4gYW5k
IGluIHRoZSByZXBvc2l0b3J5IGF0IGh0dHBzOi8vd3d3LmNlcnR1bS5wbC9yZXBv
c2l0b3J5LjATBgNVHSUEDDAKBggrBgEFBQcDAzARBglghkgBhvhCAQEEBAMCBBAw
DQYJKoZIhvcNAQEFBQADggEBAMwjurTkCQA4YJTIIVnXkMqQAjeBNcKXK8Tja+pk
Ak1x+ugDUxoOsApVTxOHwDRfyk08yjVWpiDf4jKG7pZG7YlxXmHJdA6msWe4Sjoy
Mo8y75DksDkwfYheZmhR8ZUV2nv7ihFKU5+NiMYC68IqKchP4MquxtQHL6ccOElO
tY3dzJOmvfl2X8wVA3/1+G0iqT4qlt+f6d18oVjk3ec+30h+n0LRE+D7lqYvuSp5
sfl+HguxZSum8J6Uerx/aDIIgUk0gcWv4gF7eS4RlMEJ6rxBfVXvBIhKfcFL2J1b
iSEPgbwEN2gogLXElaKal+dMR850kQzc9RA2TVkFwrYn6ec=
-----END CERTIFICATE-----

Certificate:
    Data:
        Version: 3 (0x2)
        Serial Number: 279744 (0x444c0)
    Signature Algorithm: sha1WithRSAEncryption
        Issuer: C=PL, O=Unizeto Technologies S.A., OU=Certum Certification Authority, CN=Certum Trusted Network CA
        Validity
            Not Before: Oct 22 12:07:37 2008 GMT
            Not After : Dec 31 12:07:37 2029 GMT
        Subject: C=PL, O=Unizeto Technologies S.A., OU=Certum Certification Authority, CN=Certum Trusted Network CA
        Subject Public Key Info:
            Public Key Algorithm: rsaEncryption
                Public-Key: (2048 bit)
                Modulus:
                    00:e3:fb:7d:a3:72:ba:c2:f0:c9:14:87:f5:6b:01:
                    4e:e1:6e:40:07:ba:6d:27:5d:7f:f7:5b:2d:b3:5a:
                    c7:51:5f:ab:a4:32:a6:61:87:b6:6e:0f:86:d2:30:
                    02:97:f8:d7:69:57:a1:18:39:5d:6a:64:79:c6:01:
                    59:ac:3c:31:4a:38:7c:d2:04:d2:4b:28:e8:20:5f:
                    3b:07:a2:cc:4d:73:db:f3:ae:4f:c7:56:d5:5a:a7:
                    96:89:fa:f3:ab:68:d4:23:86:59:27:cf:09:27:bc:
                    ac:6e:72:83:1c:30:72:df:e0:a2:e9:d2:e1:74:75:
                    19:bd:2a:9e:7b:15:54:04:1b:d7:43:39:ad:55:28:
                    c5:e2:1a:bb:f4:c0:e4:ae:38:49:33:cc:76:85:9f:
                    39:45:d2:a4:9e:f2:12:8c:51:f8:7c:e4:2d:7f:f5:
                    ac:5f:eb:16:9f:b1:2d:d1:ba:cc:91:42:77:4c:25:
                    c9:90:38:6f:db:f0:cc:fb:8e:1e:97:59:3e:d5:60:
                    4e:e6:05:28:ed:49:79:13:4b:ba:48:db:2f:f9:72:
                    d3:39:ca:fe:1f:d8:34:72:f5:b4:40:cf:31:01:c3:
                    ec:de:11:2d:17:5d:1f:b8:50:d1:5e:19:a7:69:de:
                    07:33:28:ca:50:95:f9:a7:54:cb:54:86:50:45:a9:
                    f9:49
                Exponent: 65537 (0x10001)
        X509v3 extensions:
            X509v3 Basic Constraints: critical
                CA:TRUE
            X509v3 Subject Key Identifier: 
                08:76:CD:CB:07:FF:24:F6:C5:CD:ED:BB:90:BC:E2:84:37:46:75:F7
            X509v3 Key Usage: critical
                Certificate Sign, CRL Sign
    Signature Algorithm: sha1WithRSAEncryption
         a6:a8:ad:22:ce:01:3d:a6:a3:ff:62:d0:48:9d:8b:5e:72:b0:
         78:44:e3:dc:1c:af:09:fd:23:48:fa:bd:2a:c4:b9:55:04:b5:
         10:a3:8d:27:de:0b:82:63:d0:ee:de:0c:37:79:41:5b:22:b2:
         b0:9a:41:5c:a6:70:e0:d4:d0:77:cb:23:d3:00:e0:6c:56:2f:
         e1:69:0d:0d:d9:aa:bf:21:81:50:d9:06:a5:a8:ff:95:37:d0:
         aa:fe:e2:b3:f5:99:2d:45:84:8a:e5:42:09:d7:74:02:2f:f7:
         89:d8:99:e9:bc:27:d4:47:8d:ba:0d:46:1c:77:cf:14:a4:1c:
         b9:a4:31:c4:9c:28:74:03:34:ff:33:19:26:a5:e9:0d:74:b7:
         3e:97:c6:76:e8:27:96:a3:66:dd:e1:ae:f2:41:5b:ca:98:56:
         83:73:70:e4:86:1a:d2:31:41:ba:2f:be:2d:13:5a:76:6f:4e:
         e8:4e:81:0e:3f:5b:03:22:a0:12:be:66:58:11:4a:cb:03:c4:
         b4:2a:2a:2d:96:17:e0:39:54:bc:48:d3:76:27:9d:9a:2d:06:
         a6:c9:ec:39:d2:ab:db:9f:9a:0b:27:02:35:29:b1:40:95:e7:
         f9:e8:9c:55:88:19:46:d6:b7:34:f5:7e:ce:39:9a:d9:38:f1:
         51:f7:4f:2c
-----BEGIN CERTIFICATE-----
MIIDuzCCAqOgAwIBAgIDBETAMA0GCSqGSIb3DQEBBQUAMH4xCzAJBgNVBAYTAlBM
MSIwIAYDVQQKExlVbml6ZXRvIFRlY2hub2xvZ2llcyBTLkEuMScwJQYDVQQLEx5D
ZXJ0dW0gQ2VydGlmaWNhdGlvbiBBdXRob3JpdHkxIjAgBgNVBAMTGUNlcnR1bSBU
cnVzdGVkIE5ldHdvcmsgQ0EwHhcNMDgxMDIyMTIwNzM3WhcNMjkxMjMxMTIwNzM3
WjB+MQswCQYDVQQGEwJQTDEiMCAGA1UEChMZVW5pemV0byBUZWNobm9sb2dpZXMg
Uy5BLjEnMCUGA1UECxMeQ2VydHVtIENlcnRpZmljYXRpb24gQXV0aG9yaXR5MSIw
IAYDVQQDExlDZXJ0dW0gVHJ1c3RlZCBOZXR3b3JrIENBMIIBIjANBgkqhkiG9w0B
AQEFAAOCAQ8AMIIBCgKCAQEA4/t9o3K6wvDJFIf1awFO4W5AB7ptJ11/91sts1rH
UV+rpDKmYYe2bg+G0jACl/jXaVehGDldamR5xgFZrDwxSjh80gTSSyjoIF87B6LM
TXPb865Px1bVWqeWifrzq2jUI4ZZJ88JJ7ysbnKDHDBy3+Ci6dLhdHUZvSqeexVU
BBvXQzmtVSjF4hq79MDkrjhJM8x2hZ85RdKknvISjFH4fOQtf/WsX+sWn7Et0brM
kUJ3TCXJkDhv2/DM+44el1k+1WBO5gUo7Ul5E0u6SNsv+XLTOcr+H9g0cvW0QM8x
AcPs3hEtF10fuFDRXhmnad4HMyjKUJX5p1TLVIZQRan5SQIDAQABo0IwQDAPBgNV
HRMBAf8EBTADAQH/MB0GA1UdDgQWBBQIds3LB/8k9sXN7buQvOKEN0Z19zAOBgNV
HQ8BAf8EBAMCAQYwDQYJKoZIhvcNAQEFBQADggEBAKaorSLOAT2mo/9i0Eidi15y
sHhE49wcrwn9I0j6vSrEuVUEtRCjjSfeC4Jj0O7eDDd5QVsisrCaQVymcODU0HfL
I9MA4GxWL+FpDQ3Zqr8hgVDZBqWo/5U30Kr+4rP1mS1FhIrlQgnXdAIv94nYmem8
J9RHjboNRhx3zxSkHLmkMcScKHQDNP8zGSal6Q10tz6XxnboJ5ajZt3hrvJBW8qY
VoNzcOSGGtIxQbovvi0TWnZvTuhOgQ4/WwMioBK+ZlgRSssDxLQqKi2WF+A5VLxI
03YnnZotBqbJ7DnSq9ufmgsnAjUpsUCV5/nonFWIGUbWtzT1fs45mtk48VH3Tyw=
-----END CERTIFICATE-----

Certificate:
    Data:
        Version: 3 (0x2)
        Serial Number:
            fa:33:b7:9d:d4:96:cf:d1:0c:84:65:39:a4:9d:63:b5
    Signature Algorithm: sha1WithRSAEncryption
        Issuer: C=PL, O=Unizeto Technologies S.A., OU=Certum Certification Authority, CN=Certum Trusted Network CA
        Validity
            Not Before: Sep 20 11:04:33 2011 GMT
            Not After : Sep 20 23:59:59 2026 GMT
        Subject: C=PL, O=Unizeto Technologies S.A., OU=Certum Certification Authority, CN=Certum Code Signing CA
        Subject Public Key Info:
            Public Key Algorithm: rsaEncryption
                Public-Key: (2048 bit)
                Modulus:
                    00:d0:61:87:9d:26:d8:25:ee:c6:8c:a1:34:96:20:
                    ae:88:2c:31:c6:47:e1:3c:bf:44:33:d1:21:1f:91:
                    2a:f4:7f:0a:ee:90:33:91:9a:da:fd:65:66:55:f4:
                    94:6c:03:b9:ca:62:d7:ec:85:0a:b1:03:fc:2a:2b:
                    43:f4:3f:bd:b4:26:c9:2c:57:d7:6c:8a:de:4a:11:
                    d7:ab:6f:05:90:2c:ae:8c:ad:27:96:0d:33:fa:2f:
                    33:39:d1:b3:29:72:4d:7e:01:95:9b:3d:18:80:e7:
                    4b:f6:09:b0:cb:c4:64:1d:d8:72:10:dc:a6:a8:a1:
                    ca:80:3d:7e:8b:ce:da:0c:a7:6d:ab:97:d0:4a:7b:
                    37:35:55:41:ba:1f:20:74:4d:15:d2:f2:e7:cc:26:
                    2b:5d:bc:ae:35:c0:51:eb:de:c2:26:af:37:13:3f:
                    51:7b:f3:56:6d:c7:6a:be:13:9f:97:e4:10:8d:69:
                    6a:50:c8:60:f8:8a:d6:66:ed:ed:cd:5c:19:8d:b4:
                    97:66:26:cc:77:5f:2a:99:d3:89:d0:6e:58:9f:7e:
                    10:bc:68:0f:be:98:c3:2c:3a:2e:1e:59:2f:52:59:
                    da:ae:ff:65:65:61:ea:c4:56:a5:63:78:33:ea:15:
                    56:f2:04:56:17:b1:ef:fc:77:df:0d:1a:2f:ed:8c:
                    c7:b7
                Exponent: 65537 (0x10001)
        X509v3 extensions:
            X509v3 Basic Constraints: critical
                CA:TRUE
            X509v3 Subject Key Identifier: 
                78:2F:90:F1:4A:5C:CC:34:51:1D:80:23:F2:12:1B:7D:1A:23:C1:8F
            X509v3 Authority Key Identifier: 
                keyid:08:76:CD:CB:07:FF:24:F6:C5:CD:ED:BB:90:BC:E2:84:37:46:75:F7

            X509v3 Key Usage: critical
                Certificate Sign, CRL Sign
            X509v3 Extended Key Usage: 
                Code Signing
            X509v3 CRL Distribution Points: 

                Full Name:
                  URI:http://crl.certum.pl/ctnca.crl

            Authority Information Access: 
                OCSP - URI:http://subca.ocsp-certum.com
                CA Issuers - URI:http://repository.certum.pl/ctnca.cer

            X509v3 Certificate Policies: 
                Policy: X509v3 Any Policy
                  CPS: https://www.certum.pl/CPS

    Signature Algorithm: sha1WithRSAEncryption
         a2:41:0d:f0:69:0b:dc:39:66:5b:54:c4:2f:64:a7:8e:f4:42:
         f0:fd:42:c3:f4:89:02:65:de:4c:c6:6b:eb:35:fd:71:31:61:
         fa:7c:c0:c6:b8:41:91:5c:50:07:f0:40:84:72:69:3c:da:3f:
         1e:0e:54:a4:74:42:8c:fb:bc:16:95:57:df:53:c6:1d:02:47:
         17:d5:51:37:0f:dd:b8:13:4c:52:24:30:4c:4d:7a:07:12:e4:
         78:e3:8d:f8:a0:e3:15:4d:66:3f:b5:77:88:a4:f3:95:47:99:
         c2:1b:29:78:7a:96:ff:d4:72:f3:4f:19:c9:4f:b8:e7:ff:90:
         65:92:47:d7:a3:bf:fb:b5:25:37:d8:92:67:3d:3f:c3:83:fc:
         b9:7e:e2:21:a2:bf:44:9d:78:c6:b3:45:b4:0b:75:96:4a:06:
         e1:e8:61:fc:d3:af:74:f5:95:93:4d:bc:ff:f6:f6:3e:54:25:
         b3:34:12:e4:ca:7e:bd:b1:a8:10:07:a2:ca:c3:bf:4e:bb:61:
         b7:e6:39:86:ea:32:98:8e:ef:e7:a0:43:e2:2f:db:19:f1:2d:
         ea:f8:94:5d:02:00:44:8a:fb:03:3a:0b:7d:f3:b2:85:00:11:
         01:b6:d5:84:ff:29:7d:1a:5f:ef:4c:5f:79:03:e7:43:91:d2:
         03:94:f3:c3
-----BEGIN CERTIFICATE-----
MIIE3jCCA8agAwIBAgIRAPozt53Uls/RDIRlOaSdY7UwDQYJKoZIhvcNAQEFBQAw
fjELMAkGA1UEBhMCUEwxIjAgBgNVBAoTGVVuaXpldG8gVGVjaG5vbG9naWVzIFMu
QS4xJzAlBgNVBAsTHkNlcnR1bSBDZXJ0aWZpY2F0aW9uIEF1dGhvcml0eTEiMCAG
A1UEAxMZQ2VydHVtIFRydXN0ZWQgTmV0d29yayBDQTAiGA8yMDExMDkyMDExMDQz
M1oYDzIwMjYwOTIwMjM1OTU5WjB7MQswCQYDVQQGEwJQTDEiMCAGA1UEChMZVW5p
emV0byBUZWNobm9sb2dpZXMgUy5BLjEnMCUGA1UECxMeQ2VydHVtIENlcnRpZmlj
YXRpb24gQXV0aG9yaXR5MR8wHQYDVQQDExZDZXJ0dW0gQ29kZSBTaWduaW5nIENB
MIIBIjANBgkqhkiG9w0BAQEFAAOCAQ8AMIIBCgKCAQEA0GGHnSbYJe7GjKE0liCu
iCwxxkfhPL9EM9EhH5Eq9H8K7pAzkZra/WVmVfSUbAO5ymLX7IUKsQP8KitD9D+9
tCbJLFfXbIreShHXq28FkCyujK0nlg0z+i8zOdGzKXJNfgGVmz0YgOdL9gmwy8Rk
HdhyENymqKHKgD1+i87aDKdtq5fQSns3NVVBuh8gdE0V0vLnzCYrXbyuNcBR697C
Jq83Ez9Re/NWbcdqvhOfl+QQjWlqUMhg+IrWZu3tzVwZjbSXZibMd18qmdOJ0G5Y
n34QvGgPvpjDLDouHlkvUlnarv9lZWHqxFalY3gz6hVW8gRWF7Hv/HffDRov7YzH
twIDAQABo4IBVDCCAVAwDwYDVR0TAQH/BAUwAwEB/zAdBgNVHQ4EFgQUeC+Q8Upc
zDRRHYAj8hIbfRojwY8wHwYDVR0jBBgwFoAUCHbNywf/JPbFze27kLzihDdGdfcw
DgYDVR0PAQH/BAQDAgEGMBMGA1UdJQQMMAoGCCsGAQUFBwMDMC8GA1UdHwQoMCYw
JKAioCCGHmh0dHA6Ly9jcmwuY2VydHVtLnBsL2N0bmNhLmNybDBrBggrBgEFBQcB
AQRfMF0wKAYIKwYBBQUHMAGGHGh0dHA6Ly9zdWJjYS5vY3NwLWNlcnR1bS5jb20w
MQYIKwYBBQUHMAKGJWh0dHA6Ly9yZXBvc2l0b3J5LmNlcnR1bS5wbC9jdG5jYS5j
ZXIwOgYDVR0gBDMwMTAvBgRVHSAAMCcwJQYIKwYBBQUHAgEWGWh0dHBzOi8vd3d3
LmNlcnR1bS5wbC9DUFMwDQYJKoZIhvcNAQEFBQADggEBAKJBDfBpC9w5ZltUxC9k
p470QvD9QsP0iQJl3kzGa+s1/XExYfp8wMa4QZFcUAfwQIRyaTzaPx4OVKR0Qoz7
vBaVV99Txh0CRxfVUTcP3bgTTFIkMExNegcS5Hjjjfig4xVNZj+1d4ik85VHmcIb
KXh6lv/UcvNPGclPuOf/kGWSR9ejv/u1JTfYkmc9P8OD/Ll+4iGiv0SdeMazRbQL
dZZKBuHoYfzTr3T1lZNNvP/29j5UJbM0EuTKfr2xqBAHosrDv067YbfmOYbqMpiO
7+egQ+Iv2xnxLer4lF0CAESK+wM6C33zsoUAEQG21YT/KX0aX+9MX3kD50OR0gOU
88M=
-----END CERTIFICATE-----

