Certificate:
    Data:
        Version: 3 (0x2)
        Serial Number:
            18:25:ed:64:22:d1:89:49:23:17:aa:d8:7b:53:82:c5
    Signature Algorithm: sha256WithRSAEncryption
        Issuer: C=US, O=Symantec Corporation, OU=Symantec Trust Network, CN=Symantec Class 3 SHA256 Code Signing CA
        Validity
            Not Before: Dec 23 00:00:00 2014 GMT
            Not After : Dec 22 23:59:59 2017 GMT
        Subject: C=GB, ST=London, L=London, O=Digital Wave Ltd, CN=Digital Wave Ltd
        Subject Public Key Info:
            Public Key Algorithm: rsaEncryption
                Public-Key: (2048 bit)
                Modulus:
                    00:ba:18:0d:83:0b:37:d7:42:11:c1:5d:c0:05:6b:
                    49:77:3c:06:66:d4:08:ec:29:69:57:53:5a:3b:74:
                    46:69:65:31:58:ce:04:84:8b:8f:ec:37:de:08:6f:
                    1e:c1:74:e9:3b:c8:fd:a1:65:19:16:20:36:75:ed:
                    5b:18:c8:ca:52:b7:39:28:83:43:67:4b:08:ff:11:
                    b3:61:7c:a7:ec:06:66:9a:6a:13:01:14:0c:3f:42:
                    ca:79:67:09:ca:7b:e4:33:94:f8:85:8c:23:1f:eb:
                    a0:3a:9c:99:39:1c:75:e4:81:f0:66:07:e5:34:fe:
                    e2:2f:93:fd:b4:37:bc:8a:28:9d:de:f6:d1:91:19:
                    94:fd:de:aa:14:89:c1:d4:0f:e5:80:1a:97:fe:2d:
                    37:dd:f8:32:cf:4b:99:1b:c9:c5:a2:6a:8f:ea:af:
                    bf:e8:e2:bb:58:31:f4:e8:f4:ad:89:8b:65:53:d4:
                    ae:5e:08:b0:e7:41:f1:5a:37:a8:02:f7:b8:6f:f3:
                    b3:0b:17:03:e2:9b:47:cf:34:f7:a5:40:ce:f3:3b:
                    66:bd:24:ca:25:69:1c:dc:0c:a4:35:92:93:2c:ec:
                    59:61:67:e0:7c:75:e8:8b:1e:92:df:77:81:21:da:
                    bc:53:23:d6:91:ec:f1:fd:4d:38:0c:af:49:d5:d3:
                    ad:a1
                Exponent: 65537 (0x10001)
        X509v3 extensions:
            X509v3 Basic Constraints: 
                CA:FALSE
            X509v3 Key Usage: critical
                Digital Signature
            X509v3 CRL Distribution Points: 

                Full Name:
                  URI:http://sv.symcb.com/sv.crl

            X509v3 Certificate Policies: 
                Policy: 2.16.840.1.113733.1.7.23.3
                  CPS: https://d.symcb.com/cps
                  User Notice:
                    Explicit Text: https://d.symcb.com/rpa

            X509v3 Extended Key Usage: 
                Code Signing
            Authority Information Access: 
                OCSP - URI:http://sv.symcd.com
                CA Issuers - URI:http://sv.symcb.com/sv.crt

            X509v3 Authority Key Identifier: 
                keyid:96:3B:53:F0:79:33:97:AF:7D:83:EF:2E:2B:CC:CA:B7:86:1E:72:66

            X509v3 Subject Key Identifier: 
                CE:02:56:8E:4E:F2:60:DE:DD:91:FC:1B:99:23:50:97:3F:F1:34:28
            Netscape Cert Type: 
                Object Signing
            1.3.6.1.4.1.311.2.1.27: 
                0.......
    Signature Algorithm: sha256WithRSAEncryption
         45:d7:82:c0:31:17:98:0f:a5:51:eb:24:b0:a0:ba:e5:bd:bc:
         c6:c0:7a:7f:f7:0c:d2:b5:a1:1d:59:bc:d3:8e:80:c6:16:f4:
         9b:b3:18:47:96:e8:26:4a:e0:65:82:5e:74:f3:4d:bb:b6:7c:
         1c:64:bc:0d:9a:a1:8b:27:59:e0:6c:7a:5b:d8:2c:a4:f0:c9:
         05:f8:3c:c8:8c:6a:86:8e:d1:c7:fd:1b:77:d4:17:81:57:e0:
         4a:91:8e:5f:86:33:7b:1b:f4:ac:3f:85:63:b8:ab:c1:32:b5:
         07:06:0e:48:c4:c0:b8:64:4e:96:33:f4:0d:16:f0:8e:85:36:
         33:23:1d:f5:aa:8f:9d:f5:96:4d:02:18:e9:e9:74:c0:9f:ab:
         66:e1:46:94:de:df:0d:3b:3a:d6:17:12:e0:9a:0d:d3:7d:9c:
         15:37:9a:8b:bc:52:9d:cf:60:91:a1:e3:ba:f4:ab:74:90:ba:
         17:ff:b3:57:72:9c:c1:b2:4a:3e:e8:73:a6:0a:72:f4:a4:c1:
         05:16:07:a2:4b:8f:bc:5f:bc:04:d1:f8:7e:a6:41:e4:23:f4:
         8c:c2:0e:49:ab:5a:1c:41:02:89:cb:bb:ed:ee:c1:f0:5c:17:
         78:90:86:cf:c8:8a:79:31:c4:70:a2:bd:0b:bd:11:3e:67:e0:
         28:7c:ec:4d
-----BEGIN CERTIFICATE-----
MIIE/TCCA+WgAwIBAgIQGCXtZCLRiUkjF6rYe1OCxTANBgkqhkiG9w0BAQsFADB/
MQswCQYDVQQGEwJVUzEdMBsGA1UEChMUU3ltYW50ZWMgQ29ycG9yYXRpb24xHzAd
BgNVBAsTFlN5bWFudGVjIFRydXN0IE5ldHdvcmsxMDAuBgNVBAMTJ1N5bWFudGVj
IENsYXNzIDMgU0hBMjU2IENvZGUgU2lnbmluZyBDQTAeFw0xNDEyMjMwMDAwMDBa
Fw0xNzEyMjIyMzU5NTlaMGUxCzAJBgNVBAYTAkdCMQ8wDQYDVQQIEwZMb25kb24x
DzANBgNVBAcTBkxvbmRvbjEZMBcGA1UEChQQRGlnaXRhbCBXYXZlIEx0ZDEZMBcG
A1UEAxQQRGlnaXRhbCBXYXZlIEx0ZDCCASIwDQYJKoZIhvcNAQEBBQADggEPADCC
AQoCggEBALoYDYMLN9dCEcFdwAVrSXc8BmbUCOwpaVdTWjt0RmllMVjOBISLj+w3
3ghvHsF06TvI/aFlGRYgNnXtWxjIylK3OSiDQ2dLCP8Rs2F8p+wGZppqEwEUDD9C
ynlnCcp75DOU+IWMIx/roDqcmTkcdeSB8GYH5TT+4i+T/bQ3vIoond720ZEZlP3e
qhSJwdQP5YAal/4tN934Ms9LmRvJxaJqj+qvv+jiu1gx9Oj0rYmLZVPUrl4IsOdB
8Vo3qAL3uG/zswsXA+KbR88096VAzvM7Zr0kyiVpHNwMpDWSkyzsWWFn4Hx16Ise
kt93gSHavFMj1pHs8f1NOAyvSdXTraECAwEAAaOCAY0wggGJMAkGA1UdEwQCMAAw
DgYDVR0PAQH/BAQDAgeAMCsGA1UdHwQkMCIwIKAeoByGGmh0dHA6Ly9zdi5zeW1j
Yi5jb20vc3YuY3JsMGYGA1UdIARfMF0wWwYLYIZIAYb4RQEHFwMwTDAjBggrBgEF
BQcCARYXaHR0cHM6Ly9kLnN5bWNiLmNvbS9jcHMwJQYIKwYBBQUHAgIwGQwXaHR0
cHM6Ly9kLnN5bWNiLmNvbS9ycGEwEwYDVR0lBAwwCgYIKwYBBQUHAwMwVwYIKwYB
BQUHAQEESzBJMB8GCCsGAQUFBzABhhNodHRwOi8vc3Yuc3ltY2QuY29tMCYGCCsG
AQUFBzAChhpodHRwOi8vc3Yuc3ltY2IuY29tL3N2LmNydDAfBgNVHSMEGDAWgBSW
O1PweTOXr32D7y4rzMq3hh5yZjAdBgNVHQ4EFgQUzgJWjk7yYN7dkfwbmSNQlz/x
NCgwEQYJYIZIAYb4QgEBBAQDAgQQMBYGCisGAQQBgjcCARsECDAGAQEAAQH/MA0G
CSqGSIb3DQEBCwUAA4IBAQBF14LAMReYD6VR6ySwoLrlvbzGwHp/9wzStaEdWbzT
joDGFvSbsxhHlugmSuBlgl508027tnwcZLwNmqGLJ1ngbHpb2Cyk8MkF+DzIjGqG
jtHH/Rt31BeBV+BKkY5fhjN7G/SsP4VjuKvBMrUHBg5IxMC4ZE6WM/QNFvCOhTYz
Ix31qo+d9ZZNAhjp6XTAn6tm4UaU3t8NOzrWFxLgmg3TfZwVN5qLvFKdz2CRoeO6
9Kt0kLoX/7NXcpzBsko+6HOmCnL0pMEFFgeiS4+8X7wE0fh+pkHkI/SMwg5Jq1oc
QQKJy7vt7sHwXBd4kIbPyIp5McRwor0LvRE+Z+AofOxN
-----END CERTIFICATE-----

Certificate:
    Data:
        Version: 3 (0x2)
        Serial Number:
            3d:78:d7:f9:76:49:60:b2:61:7d:f4:f0:1e:ca:86:2a
    Signature Algorithm: sha256WithRSAEncryption
        Issuer: C=US, O=VeriSign, Inc., OU=VeriSign Trust Network, OU=(c) 2006 VeriSign, Inc. - For authorized use only, CN=VeriSign Class 3 Public Primary Certification Authority - G5
        Validity
            Not Before: Dec 10 00:00:00 2013 GMT
            Not After : Dec  9 23:59:59 2023 GMT
        Subject: C=US, O=Symantec Corporation, OU=Symantec Trust Network, CN=Symantec Class 3 SHA256 Code Signing CA
        Subject Public Key Info:
            Public Key Algorithm: rsaEncryption
                Public-Key: (2048 bit)
                Modulus:
                    00:97:83:1e:00:16:af:2c:b1:d2:08:c4:d7:68:93:
                    51:60:1e:71:f6:e2:47:b4:db:58:4d:23:62:6a:b4:
                    bf:5a:1b:51:f7:a3:0d:18:77:68:bb:d8:36:ab:2f:
                    21:50:da:9e:f3:e7:5f:27:4e:0b:c2:97:c8:09:70:
                    93:a9:da:5c:0d:4e:a4:0d:91:a0:b4:ec:14:ce:91:
                    72:54:2e:ce:a3:db:44:e9:52:1b:3f:41:3c:ca:4a:
                    e4:aa:c0:e8:39:ab:53:cc:21:d0:cc:cf:7f:9b:e6:
                    c2:cc:58:6a:82:15:ee:3d:36:cf:1c:c5:97:07:24:
                    8e:f1:7b:be:31:2d:3d:6e:dc:b5:99:42:9f:4b:61:
                    95:5f:1c:70:ee:17:7d:db:8b:e5:61:89:78:c7:68:
                    1b:af:11:78:1a:98:ae:c4:55:47:53:d9:b3:32:d6:
                    a1:0e:46:40:c5:97:92:8a:d1:53:a7:99:5b:85:35:
                    57:d3:ea:93:62:61:20:0a:c7:30:77:24:11:4d:62:
                    83:b6:ba:7b:68:82:31:ee:65:ca:df:f9:d5:8d:b2:
                    35:dc:8c:2b:6f:6a:72:5c:60:84:9c:f2:0c:94:5e:
                    c0:56:52:00:48:cc:d3:f8:a5:7d:de:2f:d7:13:e4:
                    38:a8:84:d5:46:b8:13:86:c2:1b:9d:ea:5a:38:dd:
                    9b:db
                Exponent: 65537 (0x10001)
        X509v3 extensions:
            Authority Information Access: 
                OCSP - URI:http://s2.symcb.com

            X509v3 Basic Constraints: critical
                CA:TRUE, pathlen:0
            X509v3 Certificate Policies: 
                Policy: 2.16.840.1.113733.1.7.23.3
                  CPS: http://www.symauth.com/cps
                  User Notice:
                    Explicit Text: http://www.symauth.com/rpa

            X509v3 CRL Distribution Points: 

                Full Name:
                  URI:http://s1.symcb.com/pca3-g5.crl

            X509v3 Extended Key Usage: 
                TLS Web Client Authentication, Code Signing
            X509v3 Key Usage: critical
                Certificate Sign, CRL Sign
            X509v3 Subject Alternative Name: 
                DirName:/CN=SymantecPKI-1-567
            X509v3 Subject Key Identifier: 
                96:3B:53:F0:79:33:97:AF:7D:83:EF:2E:2B:CC:CA:B7:86:1E:72:66
            X509v3 Authority Key Identifier: 
                keyid:7F:D3:65:A7:C2:DD:EC:BB:F0:30:09:F3:43:39:FA:02:AF:33:31:33

    Signature Algorithm: sha256WithRSAEncryption
         13:85:1a:1e:69:a9:37:f7:a0:bd:a4:af:7e:1d:61:53:fe:9d:
         8c:5e:0c:a6:75:1e:78:17:23:dd:fd:ec:1a:03:55:39:fb:71:
         95:c7:65:5a:a7:8e:30:d2:44:5a:61:db:70:6f:da:21:05:c2:
         2e:73:ba:49:f1:d1:93:fe:5d:c9:cd:5e:03:e0:89:9e:3f:74:
         1e:d7:f7:38:8b:a9:d6:cf:bb:35:2f:33:58:a8:92:56:d1:c8:
         4d:3b:82:e6:79:84:16:fc:28:b0:b1:47:f3:1d:a2:3e:ee:87:
         d9:a6:7f:a4:56:a5:3f:ad:84:2e:29:de:7c:bc:a8:aa:a3:3d:
         04:01:ea:ba:93:a2:0e:50:22:29:17:4c:87:e4:3a:11:5f:d6:
         a4:25:89:9b:05:6b:2f:b4:c9:01:4c:27:7b:0b:ac:19:05:22:
         a0:60:15:3f:da:c9:fb:4d:4c:8f:fb:72:67:77:fd:27:94:c7:
         ba:35:0e:88:49:fe:8d:fd:28:af:4a:12:bd:0d:b3:97:05:de:
         44:0c:15:fa:36:2b:03:dc:c1:50:01:f1:a1:11:5d:14:e5:e2:
         bd:27:4b:54:be:2b:84:5e:0f:a6:c3:74:05:0a:ef:97:c3:89:
         22:b1:1f:77:f3:bd:cd:43:d4:f1:4c:a9:3f:b5:8b:84:af:64:
         f2:d0:14:21
-----BEGIN CERTIFICATE-----
MIIFWTCCBEGgAwIBAgIQPXjX+XZJYLJhffTwHsqGKjANBgkqhkiG9w0BAQsFADCB
yjELMAkGA1UEBhMCVVMxFzAVBgNVBAoTDlZlcmlTaWduLCBJbmMuMR8wHQYDVQQL
ExZWZXJpU2lnbiBUcnVzdCBOZXR3b3JrMTowOAYDVQQLEzEoYykgMjAwNiBWZXJp
U2lnbiwgSW5jLiAtIEZvciBhdXRob3JpemVkIHVzZSBvbmx5MUUwQwYDVQQDEzxW
ZXJpU2lnbiBDbGFzcyAzIFB1YmxpYyBQcmltYXJ5IENlcnRpZmljYXRpb24gQXV0
aG9yaXR5IC0gRzUwHhcNMTMxMjEwMDAwMDAwWhcNMjMxMjA5MjM1OTU5WjB/MQsw
CQYDVQQGEwJVUzEdMBsGA1UEChMUU3ltYW50ZWMgQ29ycG9yYXRpb24xHzAdBgNV
BAsTFlN5bWFudGVjIFRydXN0IE5ldHdvcmsxMDAuBgNVBAMTJ1N5bWFudGVjIENs
YXNzIDMgU0hBMjU2IENvZGUgU2lnbmluZyBDQTCCASIwDQYJKoZIhvcNAQEBBQAD
ggEPADCCAQoCggEBAJeDHgAWryyx0gjE12iTUWAecfbiR7TbWE0jYmq0v1obUfej
DRh3aLvYNqsvIVDanvPnXydOC8KXyAlwk6naXA1OpA2RoLTsFM6RclQuzqPbROlS
Gz9BPMpK5KrA6DmrU8wh0MzPf5vmwsxYaoIV7j02zxzFlwckjvF7vjEtPW7ctZlC
n0thlV8ccO4XfduL5WGJeMdoG68ReBqYrsRVR1PZszLWoQ5GQMWXkorRU6eZW4U1
V9Pqk2JhIArHMHckEU1ig7a6e2iCMe5lyt/51Y2yNdyMK29qclxghJzyDJRewFZS
AEjM0/ilfd4v1xPkOKiE1Ua4E4bCG53qWjjdm9sCAwEAAaOCAYMwggF/MC8GCCsG
AQUFBwEBBCMwITAfBggrBgEFBQcwAYYTaHR0cDovL3MyLnN5bWNiLmNvbTASBgNV
HRMBAf8ECDAGAQH/AgEAMGwGA1UdIARlMGMwYQYLYIZIAYb4RQEHFwMwUjAmBggr
BgEFBQcCARYaaHR0cDovL3d3dy5zeW1hdXRoLmNvbS9jcHMwKAYIKwYBBQUHAgIw
HBoaaHR0cDovL3d3dy5zeW1hdXRoLmNvbS9ycGEwMAYDVR0fBCkwJzAloCOgIYYf
aHR0cDovL3MxLnN5bWNiLmNvbS9wY2EzLWc1LmNybDAdBgNVHSUEFjAUBggrBgEF
BQcDAgYIKwYBBQUHAwMwDgYDVR0PAQH/BAQDAgEGMCkGA1UdEQQiMCCkHjAcMRow
GAYDVQQDExFTeW1hbnRlY1BLSS0xLTU2NzAdBgNVHQ4EFgQUljtT8Hkzl699g+8u
K8zKt4YecmYwHwYDVR0jBBgwFoAUf9Nlp8Ld7LvwMAnzQzn6Aq8zMTMwDQYJKoZI
hvcNAQELBQADggEBABOFGh5pqTf3oL2kr34dYVP+nYxeDKZ1HngXI9397BoDVTn7
cZXHZVqnjjDSRFph23Bv2iEFwi5zuknx0ZP+XcnNXgPgiZ4/dB7X9ziLqdbPuzUv
M1ioklbRyE07guZ5hBb8KLCxR/Mdoj7uh9mmf6RWpT+thC4p3ny8qKqjPQQB6rqT
og5QIikXTIfkOhFf1qQliZsFay+0yQFMJ3sLrBkFIqBgFT/ayftNTI/7cmd3/SeU
x7o1DohJ/o39KK9KEr0Ns5cF3kQMFfo2KwPcwVAB8aERXRTl4r0nS1S+K4ReD6bD
dAUK75fDiSKxH3fzvc1D1PFMqT+1i4SvZPLQFCE=
-----END CERTIFICATE-----

