Certificate:
    Data:
        Version: 3 (0x2)
        Serial Number:
            09:cd:ca:af:c4:04:2a:ea:49:fa:33:8b:60:f6:dc:4a
    Signature Algorithm: sha1WithRSAEncryption
        Issuer: C=US, O=VeriSign, Inc., OU=VeriSign Trust Network, OU=Terms of use at https://www.verisign.com/rpa (c)10, CN=VeriSign Class 3 Code Signing 2010 CA
        Validity
            Not Before: Jul 18 00:00:00 2012 GMT
            Not After : Jul 18 23:59:59 2015 GMT
        Subject: C=CN, ST=GuangDong, L=GuangZhou, O=GuangZhou AiPai Network Technology Co.,Ltd., OU=Digital ID Class 3 - Microsoft Software Validation v2, CN=GuangZhou AiPai Network Technology Co.,Ltd.
        Subject Public Key Info:
            Public Key Algorithm: rsaEncryption
                Public-Key: (2048 bit)
                Modulus:
                    00:b6:27:3d:26:08:d1:2e:26:61:1c:c3:3e:9c:0c:
                    78:d7:b5:60:08:da:8e:a6:c7:d7:b4:46:7d:8d:3c:
                    ff:bf:2a:19:62:9c:35:55:e5:36:bd:fb:a0:81:03:
                    a1:32:60:b5:9b:43:70:27:ec:ba:2c:45:03:a7:12:
                    38:d8:95:2c:80:9a:42:3a:32:0e:ab:48:8b:d8:cd:
                    c9:8a:48:44:13:3a:05:dd:8b:25:a3:63:70:84:4c:
                    9f:f8:04:bc:ed:78:7b:f8:dc:b4:db:66:8b:6b:b7:
                    73:56:d9:59:36:39:79:24:fc:cb:4d:fa:a3:3b:9d:
                    57:6b:a3:c1:8c:4b:25:35:7b:54:5d:6a:cc:9d:e6:
                    82:40:a2:0e:69:86:ef:e2:ab:6d:21:44:bf:06:b0:
                    0f:65:23:95:ec:69:f3:c0:39:c9:67:ef:68:45:4c:
                    a9:9d:2b:6f:48:45:09:9d:5d:17:07:14:ff:f3:29:
                    81:21:9d:60:65:1c:3b:c8:9b:01:25:84:c5:a1:23:
                    0b:63:32:52:92:a3:36:f4:10:e1:5a:a7:40:7e:c4:
                    4f:00:3f:a6:41:d5:8e:29:96:0f:63:d2:96:b8:2b:
                    ce:d9:7c:db:ef:9a:54:bf:f8:19:73:ab:bf:37:0d:
                    c5:8a:f5:7c:2d:23:d3:4a:3a:ff:82:87:4b:cf:d7:
                    8f:3b
                Exponent: 65537 (0x10001)
        X509v3 extensions:
            X509v3 Basic Constraints: 
                CA:FALSE
            X509v3 Key Usage: critical
                Digital Signature
            X509v3 CRL Distribution Points: 

                Full Name:
                  URI:http://csc3-2010-crl.verisign.com/CSC3-2010.crl

            X509v3 Certificate Policies: 
                Policy: 2.16.840.1.113733.1.7.23.3
                  CPS: https://www.verisign.com/rpa

            X509v3 Extended Key Usage: 
                Code Signing
            Authority Information Access: 
                OCSP - URI:http://ocsp.verisign.com
                CA Issuers - URI:http://csc3-2010-aia.verisign.com/CSC3-2010.cer

            X509v3 Authority Key Identifier: 
                keyid:CF:99:A9:EA:7B:26:F4:4B:C9:8E:8F:D7:F0:05:26:EF:E3:D2:A7:9D

            Netscape Cert Type: 
                Object Signing
            1.3.6.1.4.1.311.2.1.27: 
                0.......
    Signature Algorithm: sha1WithRSAEncryption
         18:90:b2:de:91:b1:19:b3:f9:24:84:a0:a8:dc:53:95:28:c7:
         08:bf:02:e8:f3:5c:a7:24:89:1a:39:0a:b3:37:d2:0d:d9:c6:
         bf:2f:39:f7:43:3c:8b:6f:eb:f1:9d:98:ab:48:af:cf:c0:d6:
         a2:9e:b2:5f:b3:ec:53:0f:0c:de:5c:43:e5:f4:27:33:4f:32:
         2e:a2:19:bf:ed:b6:4b:03:2c:d7:8d:b7:74:84:6d:e2:d4:3f:
         50:b3:ba:de:f2:00:12:1f:bc:39:ab:6f:7f:c0:c2:13:c8:35:
         d5:05:c7:ca:bb:3a:b3:63:d6:7c:47:01:83:11:7c:bf:f4:37:
         08:89:9a:a3:83:d2:30:4f:b2:e1:76:05:d5:7a:c0:67:15:24:
         78:31:df:3a:af:a8:da:19:a2:e4:98:3c:b8:7a:ab:f9:9e:d7:
         95:ef:b7:b6:17:b8:5b:9e:61:3b:6e:b8:ec:b6:d2:42:db:2a:
         4b:c8:70:02:92:ab:9e:a1:33:ff:ed:01:04:0b:8f:ee:4f:51:
         f3:fe:41:d5:f9:5c:a7:26:cd:b9:da:ce:7b:61:8e:ae:23:d2:
         eb:6f:38:54:59:e8:f4:31:cc:ef:cd:44:54:73:d4:86:8f:0a:
         d1:14:ae:fa:9b:30:88:9f:7d:a0:dd:99:ef:38:52:8d:06:38:
         7d:44:97:62
-----BEGIN CERTIFICATE-----
MIIFnjCCBIagAwIBAgIQCc3Kr8QEKupJ+jOLYPbcSjANBgkqhkiG9w0BAQUFADCB
tDELMAkGA1UEBhMCVVMxFzAVBgNVBAoTDlZlcmlTaWduLCBJbmMuMR8wHQYDVQQL
ExZWZXJpU2lnbiBUcnVzdCBOZXR3b3JrMTswOQYDVQQLEzJUZXJtcyBvZiB1c2Ug
YXQgaHR0cHM6Ly93d3cudmVyaXNpZ24uY29tL3JwYSAoYykxMDEuMCwGA1UEAxMl
VmVyaVNpZ24gQ2xhc3MgMyBDb2RlIFNpZ25pbmcgMjAxMCBDQTAeFw0xMjA3MTgw
MDAwMDBaFw0xNTA3MTgyMzU5NTlaMIHhMQswCQYDVQQGEwJDTjESMBAGA1UECBMJ
R3VhbmdEb25nMRIwEAYDVQQHEwlHdWFuZ1pob3UxNDAyBgNVBAoUK0d1YW5nWmhv
dSBBaVBhaSBOZXR3b3JrIFRlY2hub2xvZ3kgQ28uLEx0ZC4xPjA8BgNVBAsTNURp
Z2l0YWwgSUQgQ2xhc3MgMyAtIE1pY3Jvc29mdCBTb2Z0d2FyZSBWYWxpZGF0aW9u
IHYyMTQwMgYDVQQDFCtHdWFuZ1pob3UgQWlQYWkgTmV0d29yayBUZWNobm9sb2d5
IENvLixMdGQuMIIBIjANBgkqhkiG9w0BAQEFAAOCAQ8AMIIBCgKCAQEAtic9JgjR
LiZhHMM+nAx417VgCNqOpsfXtEZ9jTz/vyoZYpw1VeU2vfuggQOhMmC1m0NwJ+y6
LEUDpxI42JUsgJpCOjIOq0iL2M3JikhEEzoF3Yslo2NwhEyf+AS87Xh7+Ny022aL
a7dzVtlZNjl5JPzLTfqjO51Xa6PBjEslNXtUXWrMneaCQKIOaYbv4qttIUS/BrAP
ZSOV7GnzwDnJZ+9oRUypnStvSEUJnV0XBxT/8ymBIZ1gZRw7yJsBJYTFoSMLYzJS
kqM29BDhWqdAfsRPAD+mQdWOKZYPY9KWuCvO2Xzb75pUv/gZc6u/Nw3FivV8LSPT
Sjr/godLz9ePOwIDAQABo4IBezCCAXcwCQYDVR0TBAIwADAOBgNVHQ8BAf8EBAMC
B4AwQAYDVR0fBDkwNzA1oDOgMYYvaHR0cDovL2NzYzMtMjAxMC1jcmwudmVyaXNp
Z24uY29tL0NTQzMtMjAxMC5jcmwwRAYDVR0gBD0wOzA5BgtghkgBhvhFAQcXAzAq
MCgGCCsGAQUFBwIBFhxodHRwczovL3d3dy52ZXJpc2lnbi5jb20vcnBhMBMGA1Ud
JQQMMAoGCCsGAQUFBwMDMHEGCCsGAQUFBwEBBGUwYzAkBggrBgEFBQcwAYYYaHR0
cDovL29jc3AudmVyaXNpZ24uY29tMDsGCCsGAQUFBzAChi9odHRwOi8vY3NjMy0y
MDEwLWFpYS52ZXJpc2lnbi5jb20vQ1NDMy0yMDEwLmNlcjAfBgNVHSMEGDAWgBTP
manqeyb0S8mOj9fwBSbv49KnnTARBglghkgBhvhCAQEEBAMCBBAwFgYKKwYBBAGC
NwIBGwQIMAYBAQABAf8wDQYJKoZIhvcNAQEFBQADggEBABiQst6RsRmz+SSEoKjc
U5Uoxwi/AujzXKckiRo5CrM30g3Zxr8vOfdDPItv6/GdmKtIr8/A1qKesl+z7FMP
DN5cQ+X0JzNPMi6iGb/ttksDLNeNt3SEbeLUP1Czut7yABIfvDmrb3/AwhPINdUF
x8q7OrNj1nxHAYMRfL/0NwiJmqOD0jBPsuF2BdV6wGcVJHgx3zqvqNoZouSYPLh6
q/me15Xvt7YXuFueYTtuuOy20kLbKkvIcAKSq56hM//tAQQLj+5PUfP+QdX5XKcm
zbnaznthjq4j0utvOFRZ6PQxzO/NRFRz1IaPCtEUrvqbMIiffaDdme84Uo0GOH1E
l2I=
-----END CERTIFICATE-----

Certificate:
    Data:
        Version: 3 (0x2)
        Serial Number:
            52:00:e5:aa:25:56:fc:1a:86:ed:96:c9:d4:4b:33:c7
    Signature Algorithm: sha1WithRSAEncryption
        Issuer: C=US, O=VeriSign, Inc., OU=VeriSign Trust Network, OU=(c) 2006 VeriSign, Inc. - For authorized use only, CN=VeriSign Class 3 Public Primary Certification Authority - G5
        Validity
            Not Before: Feb  8 00:00:00 2010 GMT
            Not After : Feb  7 23:59:59 2020 GMT
        Subject: C=US, O=VeriSign, Inc., OU=VeriSign Trust Network, OU=Terms of use at https://www.verisign.com/rpa (c)10, CN=VeriSign Class 3 Code Signing 2010 CA
        Subject Public Key Info:
            Public Key Algorithm: rsaEncryption
                Public-Key: (2048 bit)
                Modulus:
                    00:f5:23:4b:5e:a5:d7:8a:bb:32:e9:d4:57:f7:ef:
                    e4:c7:26:7e:ad:19:98:fe:a8:9d:7d:94:f6:36:6b:
                    10:d7:75:81:30:7f:04:68:7f:cb:2b:75:1e:cd:1d:
                    08:8c:df:69:94:a7:37:a3:9c:7b:80:e0:99:e1:ee:
                    37:4d:5f:ce:3b:14:ee:86:d4:d0:f5:27:35:bc:25:
                    0b:38:a7:8c:63:9d:17:a3:08:a5:ab:b0:fb:cd:6a:
                    62:82:4c:d5:21:da:1b:d9:f1:e3:84:3b:8a:2a:4f:
                    85:5b:90:01:4f:c9:a7:76:10:7f:27:03:7c:be:ae:
                    7e:7d:c1:dd:f9:05:bc:1b:48:9c:69:e7:c0:a4:3c:
                    3c:41:00:3e:df:96:e5:c5:e4:94:71:d6:55:01:c7:
                    00:26:4a:40:3c:b5:a1:26:a9:0c:a7:6d:80:8e:90:
                    25:7b:cf:bf:3f:1c:eb:2f:96:fa:e5:87:77:c6:b5:
                    56:b2:7a:3b:54:30:53:1b:df:62:34:ff:1e:d1:f4:
                    5a:93:28:85:e5:4c:17:4e:7e:5b:fd:a4:93:99:7f:
                    df:cd:ef:a4:75:ef:ef:15:f6:47:e7:f8:19:72:d8:
                    2e:34:1a:a6:b4:a7:4c:7e:bd:bb:4f:0c:3d:57:f1:
                    30:d6:a6:36:8e:d6:80:76:d7:19:2e:a5:cd:7e:34:
                    2d:89
                Exponent: 65537 (0x10001)
        X509v3 extensions:
            X509v3 Basic Constraints: critical
                CA:TRUE, pathlen:0
            X509v3 Certificate Policies: 
                Policy: 2.16.840.1.113733.1.7.23.3
                  CPS: https://www.verisign.com/cps
                  User Notice:
                    Explicit Text: https://www.verisign.com/rpa

            X509v3 Key Usage: critical
                Certificate Sign, CRL Sign
            1.3.6.1.5.5.7.1.12: 
                0_.].[0Y0W0U..image/gif0!0.0...+..............k...j.H.,{..0%.#http://logo.verisign.com/vslogo.gif
            X509v3 CRL Distribution Points: 

                Full Name:
                  URI:http://crl.verisign.com/pca3-g5.crl

            Authority Information Access: 
                OCSP - URI:http://ocsp.verisign.com

            X509v3 Extended Key Usage: 
                TLS Web Client Authentication, Code Signing
            X509v3 Subject Alternative Name: 
                DirName:/CN=VeriSignMPKI-2-8
            X509v3 Subject Key Identifier: 
                CF:99:A9:EA:7B:26:F4:4B:C9:8E:8F:D7:F0:05:26:EF:E3:D2:A7:9D
            X509v3 Authority Key Identifier: 
                keyid:7F:D3:65:A7:C2:DD:EC:BB:F0:30:09:F3:43:39:FA:02:AF:33:31:33

    Signature Algorithm: sha1WithRSAEncryption
         56:22:e6:34:a4:c4:61:cb:48:b9:01:ad:56:a8:64:0f:d9:8c:
         91:c4:bb:cc:0c:e5:ad:7a:a0:22:7f:df:47:38:4a:2d:6c:d1:
         7f:71:1a:7c:ec:70:a9:b1:f0:4f:e4:0f:0c:53:fa:15:5e:fe:
         74:98:49:24:85:81:26:1c:91:14:47:b0:4c:63:8c:bb:a1:34:
         d4:c6:45:e8:0d:85:26:73:03:d0:a9:8c:64:6d:dc:71:92:e6:
         45:05:60:15:59:51:39:fc:58:14:6b:fe:d4:a4:ed:79:6b:08:
         0c:41:72:e7:37:22:06:09:be:23:e9:3f:44:9a:1e:e9:61:9d:
         cc:b1:90:5c:fc:3d:d2:8d:ac:42:3d:65:36:d4:b4:3d:40:28:
         8f:9b:10:cf:23:26:cc:4b:20:cb:90:1f:5d:8c:4c:34:ca:3c:
         d8:e5:37:d6:6f:a5:20:bd:34:eb:26:d9:ae:0d:e7:c5:9a:f7:
         a1:b4:21:91:33:6f:86:e8:58:bb:25:7c:74:0e:58:fe:75:1b:
         63:3f:ce:31:7c:9b:8f:1b:96:9e:c5:53:76:84:5b:9c:ad:91:
         fa:ac:ed:93:ba:5d:c8:21:53:c2:82:53:63:af:12:0d:50:87:
         11:1b:3d:54:52:96:8a:2c:9c:3d:92:1a:08:9a:05:2e:c7:93:
         a5:48:91:d3
-----BEGIN CERTIFICATE-----
MIIGCjCCBPKgAwIBAgIQUgDlqiVW/BqG7ZbJ1EszxzANBgkqhkiG9w0BAQUFADCB
yjELMAkGA1UEBhMCVVMxFzAVBgNVBAoTDlZlcmlTaWduLCBJbmMuMR8wHQYDVQQL
ExZWZXJpU2lnbiBUcnVzdCBOZXR3b3JrMTowOAYDVQQLEzEoYykgMjAwNiBWZXJp
U2lnbiwgSW5jLiAtIEZvciBhdXRob3JpemVkIHVzZSBvbmx5MUUwQwYDVQQDEzxW
ZXJpU2lnbiBDbGFzcyAzIFB1YmxpYyBQcmltYXJ5IENlcnRpZmljYXRpb24gQXV0
aG9yaXR5IC0gRzUwHhcNMTAwMjA4MDAwMDAwWhcNMjAwMjA3MjM1OTU5WjCBtDEL
MAkGA1UEBhMCVVMxFzAVBgNVBAoTDlZlcmlTaWduLCBJbmMuMR8wHQYDVQQLExZW
ZXJpU2lnbiBUcnVzdCBOZXR3b3JrMTswOQYDVQQLEzJUZXJtcyBvZiB1c2UgYXQg
aHR0cHM6Ly93d3cudmVyaXNpZ24uY29tL3JwYSAoYykxMDEuMCwGA1UEAxMlVmVy
aVNpZ24gQ2xhc3MgMyBDb2RlIFNpZ25pbmcgMjAxMCBDQTCCASIwDQYJKoZIhvcN
AQEBBQADggEPADCCAQoCggEBAPUjS16l14q7MunUV/fv5Mcmfq0ZmP6onX2U9jZr
ENd1gTB/BGh/yyt1Hs0dCIzfaZSnN6Oce4DgmeHuN01fzjsU7obU0PUnNbwlCzin
jGOdF6MIpauw+81qYoJM1SHaG9nx44Q7iipPhVuQAU/Jp3YQfycDfL6ufn3B3fkF
vBtInGnnwKQ8PEEAPt+W5cXklHHWVQHHACZKQDy1oSapDKdtgI6QJXvPvz8c6y+W
+uWHd8a1VrJ6O1QwUxvfYjT/HtH0WpMoheVMF05+W/2kk5l/383vpHXv7xX2R+f4
GXLYLjQaprSnTH69u08MPVfxMNamNo7WgHbXGS6lzX40LYkCAwEAAaOCAf4wggH6
MBIGA1UdEwEB/wQIMAYBAf8CAQAwcAYDVR0gBGkwZzBlBgtghkgBhvhFAQcXAzBW
MCgGCCsGAQUFBwIBFhxodHRwczovL3d3dy52ZXJpc2lnbi5jb20vY3BzMCoGCCsG
AQUFBwICMB4aHGh0dHBzOi8vd3d3LnZlcmlzaWduLmNvbS9ycGEwDgYDVR0PAQH/
BAQDAgEGMG0GCCsGAQUFBwEMBGEwX6FdoFswWTBXMFUWCWltYWdlL2dpZjAhMB8w
BwYFKw4DAhoEFI/l0xqGrI2Oa8PPgGrUSBgsexkuMCUWI2h0dHA6Ly9sb2dvLnZl
cmlzaWduLmNvbS92c2xvZ28uZ2lmMDQGA1UdHwQtMCswKaAnoCWGI2h0dHA6Ly9j
cmwudmVyaXNpZ24uY29tL3BjYTMtZzUuY3JsMDQGCCsGAQUFBwEBBCgwJjAkBggr
BgEFBQcwAYYYaHR0cDovL29jc3AudmVyaXNpZ24uY29tMB0GA1UdJQQWMBQGCCsG
AQUFBwMCBggrBgEFBQcDAzAoBgNVHREEITAfpB0wGzEZMBcGA1UEAxMQVmVyaVNp
Z25NUEtJLTItODAdBgNVHQ4EFgQUz5mp6nsm9EvJjo/X8AUm7+PSp50wHwYDVR0j
BBgwFoAUf9Nlp8Ld7LvwMAnzQzn6Aq8zMTMwDQYJKoZIhvcNAQEFBQADggEBAFYi
5jSkxGHLSLkBrVaoZA/ZjJHEu8wM5a16oCJ/30c4Si1s0X9xGnzscKmx8E/kDwxT
+hVe/nSYSSSFgSYckRRHsExjjLuhNNTGRegNhSZzA9CpjGRt3HGS5kUFYBVZUTn8
WBRr/tSk7XlrCAxBcuc3IgYJviPpP0SaHulhncyxkFz8PdKNrEI9ZTbUtD1AKI+b
EM8jJsxLIMuQH12MTDTKPNjlN9ZvpSC9NOsm2a4N58Wa96G0IZEzb4boWLslfHQO
WP51G2M/zjF8m48blp7FU3aEW5ytkfqs7ZO6XcghU8KCU2OvEg1QhxEbPVRSloos
nD2SGgiaBS7Hk6VIkdM=
-----END CERTIFICATE-----

