Certificate:
    Data:
        Version: 3 (0x2)
        Serial Number:
            06:64:01:46:e9:80:e0:0e:60:a1:4d:8f:44:4a:59:58
    Signature Algorithm: sha1WithRSAEncryption
        Issuer: C=US, O=DigiCert Inc, OU=www.digicert.com, CN=DigiCert Assured ID CA-1
        Validity
            Not Before: May 20 00:00:00 2014 GMT
            Not After : Jun  3 00:00:00 2015 GMT
        Subject: C=US, O=DigiCert, CN=DigiCert Timestamp Responder
        Subject Public Key Info:
            Public Key Algorithm: rsaEncryption
                Public-Key: (2048 bit)
                Modulus:
                    00:a9:89:18:f6:3c:f4:71:38:7f:ec:46:b6:2d:f8:
                    c9:03:25:25:09:3d:36:dc:1a:4d:8c:d8:0b:3f:9e:
                    07:26:5c:15:90:e4:6f:1a:9a:2b:1b:11:9e:83:76:
                    d3:54:07:2b:e4:83:42:a6:3b:6d:ec:f3:f3:9d:6c:
                    8f:56:9a:81:a9:d9:c0:af:11:38:a2:9a:80:e2:90:
                    14:fc:11:97:42:a6:50:9d:2e:a9:b3:e0:48:57:2f:
                    04:49:1a:f5:d7:5d:23:9b:a0:77:10:ec:73:c5:6f:
                    1a:ed:cd:d6:13:14:5b:55:d0:f0:41:30:46:48:c0:
                    2e:7a:02:aa:e0:0e:8e:11:fd:e3:24:ca:30:3b:f9:
                    98:a7:bb:e0:27:a9:69:13:c8:da:ce:7e:35:fc:e1:
                    45:f7:7c:f2:64:14:48:41:98:03:1f:ce:88:ca:68:
                    1e:10:8f:f1:94:a1:d8:6c:2b:f0:bd:6b:91:85:95:
                    d9:3b:85:4c:96:90:2f:f1:2d:e7:58:03:23:80:d4:
                    cc:d1:e8:5a:a6:52:1a:11:ae:63:47:5a:aa:b3:3f:
                    22:60:51:f6:fe:d2:b9:8d:04:2d:3f:b5:ab:35:75:
                    ea:64:d3:4c:fa:d0:40:75:92:04:26:a5:c2:2f:2c:
                    e1:db:eb:c1:6b:ef:98:f4:d0:24:35:8f:1e:c0:14:
                    16:41
                Exponent: 65537 (0x10001)
        X509v3 extensions:
            X509v3 Key Usage: critical
                Digital Signature
            X509v3 Basic Constraints: critical
                CA:FALSE
            X509v3 Extended Key Usage: critical
                Time Stamping
            X509v3 Certificate Policies: 
                Policy: 2.16.840.1.114412.7.1
                  CPS: https://www.digicert.com/CPS
                  User Notice:
                    Explicit Text: 
                Policy: 2.16.840.1.114412.3.21

            X509v3 Authority Key Identifier: 
                keyid:15:00:12:2B:13:98:B2:99:07:ED:1E:DF:A2:BE:57:0D:2B:67:02:CD

            X509v3 Subject Key Identifier: 
                34:FC:0F:46:7E:AB:B7:D9:6B:5D:F8:53:72:45:E6:04:91:D3:C2:FB
            X509v3 CRL Distribution Points: 

                Full Name:
                  URI:http://crl3.digicert.com/DigiCertAssuredIDCA-1.crl

                Full Name:
                  URI:http://crl4.digicert.com/DigiCertAssuredIDCA-1.crl

            Authority Information Access: 
                OCSP - URI:http://ocsp.digicert.com
                CA Issuers - URI:http://cacerts.digicert.com/DigiCertAssuredIDCA-1.crt

    Signature Algorithm: sha1WithRSAEncryption
         10:40:90:b3:71:9f:f0:1e:3b:02:dc:3f:bc:4c:15:e7:0e:39:
         12:c0:86:40:16:1a:a0:65:c8:93:5b:c3:07:b0:a4:88:44:0f:
         90:94:47:5e:35:c3:05:b2:fe:d8:9d:1e:d4:f4:b7:7e:c6:07:
         21:5e:66:0f:e5:35:b2:a4:1f:04:2a:42:30:e6:27:4f:27:62:
         34:c0:66:94:c2:02:2f:47:79:26:4a:9d:4a:5c:04:b5:04:48:
         f3:2b:79:49:1a:47:14:bc:16:e5:c7:b8:67:50:20:bd:ac:c4:
         b4:fd:ab:21:80:2c:60:a6:1b:ab:7c:ef:07:3c:40:ee:69:18:
         4d:d6:27:e2:34:59:e1:29:42:23:b3:3d:43:9d:6e:1e:97:c4:
         dd:82:f8:f2:a1:14:f8:8d:fc:66:7d:64:ec:40:37:01:04:de:
         4c:55:4e:3f:d3:22:f8:46:cf:2e:58:c0:cb:b0:a5:be:e0:e5:
         1b:8b:48:5c:b2:11:91:02:cc:b9:5c:ec:fd:1e:75:25:fe:7e:
         25:16:ba:2c:12:84:1f:db:f1:0e:f9:04:53:b2:f8:4d:9c:06:
         46:33:71:75:86:86:e3:54:0f:d7:eb:b3:d5:58:af:2b:5a:87:
         c4:a0:30:0d:33:c6:a6:f1:30:be:d5:fb:7f:35:be:c6:e2:8f:
         d9:19:ef:94
-----BEGIN CERTIFICATE-----
MIIGajCCBVKgAwIBAgIQBmQBRumA4A5goU2PREpZWDANBgkqhkiG9w0BAQUFADBi
MQswCQYDVQQGEwJVUzEVMBMGA1UEChMMRGlnaUNlcnQgSW5jMRkwFwYDVQQLExB3
d3cuZGlnaWNlcnQuY29tMSEwHwYDVQQDExhEaWdpQ2VydCBBc3N1cmVkIElEIENB
LTEwHhcNMTQwNTIwMDAwMDAwWhcNMTUwNjAzMDAwMDAwWjBHMQswCQYDVQQGEwJV
UzERMA8GA1UEChMIRGlnaUNlcnQxJTAjBgNVBAMTHERpZ2lDZXJ0IFRpbWVzdGFt
cCBSZXNwb25kZXIwggEiMA0GCSqGSIb3DQEBAQUAA4IBDwAwggEKAoIBAQCpiRj2
PPRxOH/sRrYt+MkDJSUJPTbcGk2M2As/ngcmXBWQ5G8amisbEZ6DdtNUByvkg0Km
O23s8/OdbI9WmoGp2cCvETiimoDikBT8EZdCplCdLqmz4EhXLwRJGvXXXSOboHcQ
7HPFbxrtzdYTFFtV0PBBMEZIwC56AqrgDo4R/eMkyjA7+Zinu+AnqWkTyNrOfjX8
4UX3fPJkFEhBmAMfzojKaB4Qj/GUodhsK/C9a5GFldk7hUyWkC/xLedYAyOA1MzR
6FqmUhoRrmNHWqqzPyJgUfb+0rmNBC0/tas1depk00z60EB1kgQmpcIvLOHb68Fr
75j00CQ1jx7AFBZBAgMBAAGjggM1MIIDMTAOBgNVHQ8BAf8EBAMCB4AwDAYDVR0T
AQH/BAIwADAWBgNVHSUBAf8EDDAKBggrBgEFBQcDCDCCAb8GA1UdIASCAbYwggGy
MIIBoQYJYIZIAYb9bAcBMIIBkjAoBggrBgEFBQcCARYcaHR0cHM6Ly93d3cuZGln
aWNlcnQuY29tL0NQUzCCAWQGCCsGAQUFBwICMIIBVh6CAVIAQQBuAHkAIAB1AHMA
ZQAgAG8AZgAgAHQAaABpAHMAIABDAGUAcgB0AGkAZgBpAGMAYQB0AGUAIABjAG8A
bgBzAHQAaQB0AHUAdABlAHMAIABhAGMAYwBlAHAAdABhAG4AYwBlACAAbwBmACAA
dABoAGUAIABEAGkAZwBpAEMAZQByAHQAIABDAFAALwBDAFAAUwAgAGEAbgBkACAA
dABoAGUAIABSAGUAbAB5AGkAbgBnACAAUABhAHIAdAB5ACAAQQBnAHIAZQBlAG0A
ZQBuAHQAIAB3AGgAaQBjAGgAIABsAGkAbQBpAHQAIABsAGkAYQBiAGkAbABpAHQA
eQAgAGEAbgBkACAAYQByAGUAIABpAG4AYwBvAHIAcABvAHIAYQB0AGUAZAAgAGgA
ZQByAGUAaQBuACAAYgB5ACAAcgBlAGYAZQByAGUAbgBjAGUALjALBglghkgBhv1s
AxUwHwYDVR0jBBgwFoAUFQASKxOYspkH7R7for5XDStnAs0wHQYDVR0OBBYEFDT8
D0Z+q7fZa134U3JF5gSR08L7MH0GA1UdHwR2MHQwOKA2oDSGMmh0dHA6Ly9jcmwz
LmRpZ2ljZXJ0LmNvbS9EaWdpQ2VydEFzc3VyZWRJRENBLTEuY3JsMDigNqA0hjJo
dHRwOi8vY3JsNC5kaWdpY2VydC5jb20vRGlnaUNlcnRBc3N1cmVkSURDQS0xLmNy
bDB3BggrBgEFBQcBAQRrMGkwJAYIKwYBBQUHMAGGGGh0dHA6Ly9vY3NwLmRpZ2lj
ZXJ0LmNvbTBBBggrBgEFBQcwAoY1aHR0cDovL2NhY2VydHMuZGlnaWNlcnQuY29t
L0RpZ2lDZXJ0QXNzdXJlZElEQ0EtMS5jcnQwDQYJKoZIhvcNAQEFBQADggEBABBA
kLNxn/AeOwLcP7xMFecOORLAhkAWGqBlyJNbwwewpIhED5CUR141wwWy/tidHtT0
t37GByFeZg/lNbKkHwQqQjDmJ08nYjTAZpTCAi9HeSZKnUpcBLUESPMreUkaRxS8
FuXHuGdQIL2sxLT9qyGALGCmG6t87wc8QO5pGE3WJ+I0WeEpQiOzPUOdbh6XxN2C
+PKhFPiN/GZ9ZOxANwEE3kxVTj/TIvhGzy5YwMuwpb7g5RuLSFyyEZECzLlc7P0e
dSX+fiUWuiwShB/b8Q75BFOy+E2cBkYzcXWGhuNUD9frs9VYrytah8SgMA0zxqbx
ML7V+381vsbij9kZ75Q=
-----END CERTIFICATE-----

Certificate:
    Data:
        Version: 3 (0x2)
        Serial Number:
            0d:d0:e3:37:4a:c9:5b:db:fa:6b:43:4b:2a:48:ec:06
    Signature Algorithm: sha1WithRSAEncryption
        Issuer: C=US, O=DigiCert Inc, OU=www.digicert.com, CN=DigiCert High Assurance EV Root CA
        Validity
            Not Before: Apr 18 12:00:00 2012 GMT
            Not After : Apr 18 12:00:00 2027 GMT
        Subject: C=US, O=DigiCert Inc, OU=www.digicert.com, CN=DigiCert EV Code Signing CA
        Subject Public Key Info:
            Public Key Algorithm: rsaEncryption
                Public-Key: (2048 bit)
                Modulus:
                    00:b9:06:74:1c:5d:b4:20:aa:a9:21:a8:2a:42:46:
                    ab:25:20:17:25:cb:22:8f:90:a2:a0:31:6b:83:05:
                    75:af:b2:0e:7c:12:49:7b:6a:86:64:84:0f:83:dc:
                    64:b9:b1:6e:16:05:3e:1c:95:b9:e7:e7:88:6d:b8:
                    62:81:90:79:d4:dd:f5:e2:96:f9:c3:b5:88:23:57:
                    4a:1a:cf:71:29:e9:08:00:8f:b5:98:e3:a7:32:fd:
                    ac:2e:b8:f4:93:53:f4:0a:39:43:91:af:d5:6b:e8:
                    d4:9f:46:bd:8e:3d:ab:e2:f9:2b:d4:ea:00:40:66:
                    24:b7:e8:7f:b4:44:75:8d:78:9a:ae:31:c1:37:cf:
                    4e:1f:5b:f8:45:4a:d7:3f:c2:c9:92:06:64:be:de:
                    06:8a:af:d0:e8:8a:b1:f0:2c:88:00:6f:0b:dc:85:
                    a7:4c:cb:06:bf:d6:2e:2a:32:6e:29:71:af:8e:22:
                    f3:0f:d0:d8:98:48:2d:a8:08:cb:b6:8b:23:c2:63:
                    e0:b6:73:eb:6f:7d:26:4f:8b:f7:34:3d:37:86:0c:
                    b7:78:27:f4:c2:86:db:43:6b:5a:f8:3d:3d:f4:e8:
                    b0:62:56:c6:e7:ed:78:a1:fb:fd:7a:72:4f:32:65:
                    c4:7c:c3:c4:77:a0:04:32:32:ed:8f:3f:af:86:dd:
                    7e:d1
                Exponent: 65537 (0x10001)
        X509v3 extensions:
            X509v3 Basic Constraints: critical
                CA:TRUE, pathlen:0
            X509v3 Key Usage: critical
                Digital Signature, Certificate Sign, CRL Sign
            X509v3 Extended Key Usage: 
                Code Signing
            Authority Information Access: 
                OCSP - URI:http://ocsp.digicert.com
                CA Issuers - URI:http://cacerts.digicert.com/DigiCertHighAssuranceEVRootCA.crt

            X509v3 CRL Distribution Points: 

                Full Name:
                  URI:http://crl3.digicert.com/DigiCertHighAssuranceEVRootCA.crl

                Full Name:
                  URI:http://crl4.digicert.com/DigiCertHighAssuranceEVRootCA.crl

            X509v3 Certificate Policies: 
                Policy: 2.16.840.1.114412.3.2
                  CPS: http://www.digicert.com/ssl-cps-repository.htm
                  User Notice:
                    Explicit Text: 

            X509v3 Subject Key Identifier: 
                AD:69:06:70:FC:80:1B:16:B3:A9:18:94:6B:94:02:86:5E:F7:27:8C
            X509v3 Authority Key Identifier: 
                keyid:B1:3E:C3:69:03:F8:BF:47:01:D4:98:26:1A:08:02:EF:63:64:2B:C3

    Signature Algorithm: sha1WithRSAEncryption
         9e:5b:96:3a:2e:12:88:ac:ab:01:6d:a4:9f:75:e4:01:87:a3:
         a5:32:d7:bc:ba:a9:7e:a3:d6:14:17:f7:c2:13:6b:7c:73:8f:
         2b:6a:e5:0f:26:59:68:b0:8e:25:9b:6c:ef:fa:6c:93:92:08:
         c1:4d:cf:45:9e:9c:46:d6:1e:74:a1:9b:14:a3:fa:01:2f:4a:
         b1:01:e1:72:40:48:11:13:68:b9:36:9d:91:4b:d7:c2:39:12:
         10:c1:c4:dc:bb:62:14:14:2a:61:5d:4f:38:7c:66:1f:c6:1b:
         ff:ad:be:4f:7f:94:5b:73:43:00:0f:4d:73:b7:51:cf:0e:f6:
         77:c0:5b:cd:34:8c:d9:63:13:aa:0e:61:11:d6:f2:8e:27:fc:
         b4:7b:b8:b9:11:20:91:86:78:ea:0e:d4:28:ff:2a:d5:24:38:
         e8:37:b2:ec:96:bb:9f:bc:4a:16:50:e1:5e:bf:51:7d:23:a0:
         32:c7:c1:94:9e:7a:c9:c0:26:a2:cc:25:87:a0:12:7e:74:9f:
         2d:8d:b1:c8:e7:84:be:b9:d1:e9:de:bb:6a:4e:88:73:71:e1:
         22:38:cb:24:87:e9:73:7e:51:b2:ff:98:eb:4e:7e:2f:e0:ca:
         0e:fa:b3:5e:d1:ba:05:42:a8:48:9f:83:f6:3f:c4:ca:a8:df:
         68:a0:50:61
-----BEGIN CERTIFICATE-----
MIIGtTCCBZ2gAwIBAgIQDdDjN0rJW9v6a0NLKkjsBjANBgkqhkiG9w0BAQUFADBs
MQswCQYDVQQGEwJVUzEVMBMGA1UEChMMRGlnaUNlcnQgSW5jMRkwFwYDVQQLExB3
d3cuZGlnaWNlcnQuY29tMSswKQYDVQQDEyJEaWdpQ2VydCBIaWdoIEFzc3VyYW5j
ZSBFViBSb290IENBMB4XDTEyMDQxODEyMDAwMFoXDTI3MDQxODEyMDAwMFowZTEL
MAkGA1UEBhMCVVMxFTATBgNVBAoTDERpZ2lDZXJ0IEluYzEZMBcGA1UECxMQd3d3
LmRpZ2ljZXJ0LmNvbTEkMCIGA1UEAxMbRGlnaUNlcnQgRVYgQ29kZSBTaWduaW5n
IENBMIIBIjANBgkqhkiG9w0BAQEFAAOCAQ8AMIIBCgKCAQEAuQZ0HF20IKqpIagq
QkarJSAXJcsij5CioDFrgwV1r7IOfBJJe2qGZIQPg9xkubFuFgU+HJW55+eIbbhi
gZB51N314pb5w7WII1dKGs9xKekIAI+1mOOnMv2sLrj0k1P0CjlDka/Va+jUn0a9
jj2r4vkr1OoAQGYkt+h/tER1jXiarjHBN89OH1v4RUrXP8LJkgZkvt4Giq/Q6Iqx
8CyIAG8L3IWnTMsGv9YuKjJuKXGvjiLzD9DYmEgtqAjLtosjwmPgtnPrb30mT4v3
ND03hgy3eCf0wobbQ2ta+D099OiwYlbG5+14ofv9enJPMmXEfMPEd6AEMjLtjz+v
ht1+0QIDAQABo4IDWDCCA1QwEgYDVR0TAQH/BAgwBgEB/wIBADAOBgNVHQ8BAf8E
BAMCAYYwEwYDVR0lBAwwCgYIKwYBBQUHAwMwfwYIKwYBBQUHAQEEczBxMCQGCCsG
AQUFBzABhhhodHRwOi8vb2NzcC5kaWdpY2VydC5jb20wSQYIKwYBBQUHMAKGPWh0
dHA6Ly9jYWNlcnRzLmRpZ2ljZXJ0LmNvbS9EaWdpQ2VydEhpZ2hBc3N1cmFuY2VF
VlJvb3RDQS5jcnQwgY8GA1UdHwSBhzCBhDBAoD6gPIY6aHR0cDovL2NybDMuZGln
aWNlcnQuY29tL0RpZ2lDZXJ0SGlnaEFzc3VyYW5jZUVWUm9vdENBLmNybDBAoD6g
PIY6aHR0cDovL2NybDQuZGlnaWNlcnQuY29tL0RpZ2lDZXJ0SGlnaEFzc3VyYW5j
ZUVWUm9vdENBLmNybDCCAcQGA1UdIASCAbswggG3MIIBswYJYIZIAYb9bAMCMIIB
pDA6BggrBgEFBQcCARYuaHR0cDovL3d3dy5kaWdpY2VydC5jb20vc3NsLWNwcy1y
ZXBvc2l0b3J5Lmh0bTCCAWQGCCsGAQUFBwICMIIBVh6CAVIAQQBuAHkAIAB1AHMA
ZQAgAG8AZgAgAHQAaABpAHMAIABDAGUAcgB0AGkAZgBpAGMAYQB0AGUAIABjAG8A
bgBzAHQAaQB0AHUAdABlAHMAIABhAGMAYwBlAHAAdABhAG4AYwBlACAAbwBmACAA
dABoAGUAIABEAGkAZwBpAEMAZQByAHQAIABDAFAALwBDAFAAUwAgAGEAbgBkACAA
dABoAGUAIABSAGUAbAB5AGkAbgBnACAAUABhAHIAdAB5ACAAQQBnAHIAZQBlAG0A
ZQBuAHQAIAB3AGgAaQBjAGgAIABsAGkAbQBpAHQAIABsAGkAYQBiAGkAbABpAHQA
eQAgAGEAbgBkACAAYQByAGUAIABpAG4AYwBvAHIAcABvAHIAYQB0AGUAZAAgAGgA
ZQByAGUAaQBuACAAYgB5ACAAcgBlAGYAZQByAGUAbgBjAGUALjAdBgNVHQ4EFgQU
rWkGcPyAGxazqRiUa5QChl73J4wwHwYDVR0jBBgwFoAUsT7DaQP4v0cB1JgmGggC
72NkK8MwDQYJKoZIhvcNAQEFBQADggEBAJ5bljouEoisqwFtpJ915AGHo6Uy17y6
qX6j1hQX98ITa3xzjytq5Q8mWWiwjiWbbO/6bJOSCMFNz0WenEbWHnShmxSj+gEv
SrEB4XJASBETaLk2nZFL18I5EhDBxNy7YhQUKmFdTzh8Zh/GG/+tvk9/lFtzQwAP
TXO3Uc8O9nfAW800jNljE6oOYRHW8o4n/LR7uLkRIJGGeOoO1Cj/KtUkOOg3suyW
u5+8ShZQ4V6/UX0joDLHwZSeesnAJqLMJYegEn50ny2NscjnhL650eneu2pOiHNx
4SI4yySH6XN+UbL/mOtOfi/gyg76s17RugVCqEifg/Y/xMqo32igUGE=
-----END CERTIFICATE-----

Certificate:
    Data:
        Version: 3 (0x2)
        Serial Number:
            06:fd:f9:03:96:03:ad:ea:00:0a:eb:3f:27:bb:ba:1b
    Signature Algorithm: sha1WithRSAEncryption
        Issuer: C=US, O=DigiCert Inc, OU=www.digicert.com, CN=DigiCert Assured ID Root CA
        Validity
            Not Before: Nov 10 00:00:00 2006 GMT
            Not After : Nov 10 00:00:00 2021 GMT
        Subject: C=US, O=DigiCert Inc, OU=www.digicert.com, CN=DigiCert Assured ID CA-1
        Subject Public Key Info:
            Public Key Algorithm: rsaEncryption
                Public-Key: (2048 bit)
                Modulus:
                    00:e8:82:2d:99:f9:ca:c2:42:95:a5:80:73:40:70:
                    d2:9e:56:54:5c:a9:c4:d2:41:06:8f:c9:33:fc:4d:
                    45:91:5c:81:9f:ed:2c:9c:f8:16:59:df:9e:b5:24:
                    15:c2:98:b9:b4:77:49:dc:89:c4:0a:da:af:cb:5e:
                    6b:ed:ad:b0:71:31:eb:cf:3a:40:0c:46:4d:93:ec:
                    8b:7a:36:08:03:ab:0c:34:fe:18:49:82:fe:c7:c7:
                    31:48:80:7c:1e:a2:0f:92:0e:50:c9:c6:87:eb:36:
                    3f:d8:30:c3:ff:a6:f7:fb:a2:cd:6f:73:23:fe:ac:
                    56:05:90:f0:32:21:16:89:c6:70:88:f9:05:97:7d:
                    a3:c7:43:dd:02:e8:3b:3d:ed:b1:41:a3:ed:3f:be:
                    db:95:48:c4:ee:1e:b3:f2:bc:0c:2b:99:d0:c6:5d:
                    12:42:81:e1:83:6e:82:73:3f:26:4b:14:90:ae:59:
                    66:0a:c4:8d:be:d2:ce:06:ae:ad:84:6f:48:84:9b:
                    4f:40:b9:f1:4c:f2:af:98:fb:f6:ce:40:5d:5c:f6:
                    a8:f1:2f:af:ec:89:22:f2:6b:18:65:b1:c1:73:ad:
                    d7:f1:d8:cf:1e:0a:74:5c:42:b8:68:7e:b7:d5:77:
                    0a:27:56:7c:0f:62:a4:3f:32:14:60:95:fd:07:04:
                    a2:09
                Exponent: 65537 (0x10001)
        X509v3 extensions:
            X509v3 Key Usage: critical
                Digital Signature, Certificate Sign, CRL Sign
            X509v3 Extended Key Usage: 
                TLS Web Server Authentication, TLS Web Client Authentication, Code Signing, E-mail Protection, Time Stamping
            X509v3 Certificate Policies: 
                Policy: 2.16.840.1.114412.0.1.4
                  CPS: http://www.digicert.com/ssl-cps-repository.htm
                  User Notice:
                    Explicit Text: 
                Policy: 2.16.840.1.114412.3.21

            X509v3 Basic Constraints: critical
                CA:TRUE, pathlen:0
            Authority Information Access: 
                OCSP - URI:http://ocsp.digicert.com
                CA Issuers - URI:http://cacerts.digicert.com/DigiCertAssuredIDRootCA.crt

            X509v3 CRL Distribution Points: 

                Full Name:
                  URI:http://crl3.digicert.com/DigiCertAssuredIDRootCA.crl

                Full Name:
                  URI:http://crl4.digicert.com/DigiCertAssuredIDRootCA.crl

            X509v3 Subject Key Identifier: 
                15:00:12:2B:13:98:B2:99:07:ED:1E:DF:A2:BE:57:0D:2B:67:02:CD
            X509v3 Authority Key Identifier: 
                keyid:45:EB:A2:AF:F4:92:CB:82:31:2D:51:8B:A7:A7:21:9D:F3:6D:C8:0F

    Signature Algorithm: sha1WithRSAEncryption
         46:50:3e:c9:b7:28:24:a7:38:1d:b6:5b:29:af:52:cf:52:e9:
         31:47:ab:56:5c:7b:d5:0d:0b:41:b3:ef:ec:75:1f:74:38:f2:
         b2:5c:61:a2:9c:95:c3:50:e4:82:b9:23:d1:ba:3a:86:72:ad:
         38:78:ac:75:5d:17:17:34:72:47:85:94:56:d1:eb:bb:36:84:
         77:cc:24:a5:f3:04:19:55:a9:e7:e3:e7:ab:62:cd:fb:8b:2d:
         90:c2:c0:d2:b5:94:bd:5e:4f:b1:05:d2:0e:3d:1a:a9:14:5b:
         a6:86:31:62:a8:a8:33:e4:9b:39:a7:c4:f5:ce:1d:78:76:94:
         25:73:e4:2a:ab:cf:9c:76:4b:ed:5f:c2:4b:16:e4:4b:70:4c:
         00:89:1e:fc:c5:79:bc:4c:12:57:fe:5f:e1:1e:bc:02:5d:a8:
         fe:fb:07:38:4f:0d:c6:5d:91:b9:0f:67:45:cd:d6:83:ed:e7:
         92:0d:8d:b1:69:8c:4f:fb:59:e0:23:0f:d2:aa:ae:00:7c:ee:
         9c:42:0e:cf:91:d7:27:b7:16:ee:0f:c3:bd:7c:0a:a0:ee:2c:
         08:55:85:22:b8:eb:18:1a:4d:fc:2a:21:ad:49:31:83:47:95:
         77:71:dc:b1:1b:4b:4b:1c:10:9c:77:14:c1:9d:4f:2f:5a:95:
         08:29:10:26
-----BEGIN CERTIFICATE-----
MIIGzTCCBbWgAwIBAgIQBv35A5YDreoACus/J7u6GzANBgkqhkiG9w0BAQUFADBl
MQswCQYDVQQGEwJVUzEVMBMGA1UEChMMRGlnaUNlcnQgSW5jMRkwFwYDVQQLExB3
d3cuZGlnaWNlcnQuY29tMSQwIgYDVQQDExtEaWdpQ2VydCBBc3N1cmVkIElEIFJv
b3QgQ0EwHhcNMDYxMTEwMDAwMDAwWhcNMjExMTEwMDAwMDAwWjBiMQswCQYDVQQG
EwJVUzEVMBMGA1UEChMMRGlnaUNlcnQgSW5jMRkwFwYDVQQLExB3d3cuZGlnaWNl
cnQuY29tMSEwHwYDVQQDExhEaWdpQ2VydCBBc3N1cmVkIElEIENBLTEwggEiMA0G
CSqGSIb3DQEBAQUAA4IBDwAwggEKAoIBAQDogi2Z+crCQpWlgHNAcNKeVlRcqcTS
QQaPyTP8TUWRXIGf7Syc+BZZ3561JBXCmLm0d0ncicQK2q/LXmvtrbBxMevPOkAM
Rk2T7It6NggDqww0/hhJgv7HxzFIgHweog+SDlDJxofrNj/YMMP/pvf7os1vcyP+
rFYFkPAyIRaJxnCI+QWXfaPHQ90C6Ds97bFBo+0/vtuVSMTuHrPyvAwrmdDGXRJC
geGDboJzPyZLFJCuWWYKxI2+0s4Grq2Eb0iEm09AufFM8q+Y+/bOQF1c9qjxL6/s
iSLyaxhlscFzrdfx2M8eCnRcQrhofrfVdwonVnwPYqQ/MhRglf0HBKIJAgMBAAGj
ggN6MIIDdjAOBgNVHQ8BAf8EBAMCAYYwOwYDVR0lBDQwMgYIKwYBBQUHAwEGCCsG
AQUFBwMCBggrBgEFBQcDAwYIKwYBBQUHAwQGCCsGAQUFBwMIMIIB0gYDVR0gBIIB
yTCCAcUwggG0BgpghkgBhv1sAAEEMIIBpDA6BggrBgEFBQcCARYuaHR0cDovL3d3
dy5kaWdpY2VydC5jb20vc3NsLWNwcy1yZXBvc2l0b3J5Lmh0bTCCAWQGCCsGAQUF
BwICMIIBVh6CAVIAQQBuAHkAIAB1AHMAZQAgAG8AZgAgAHQAaABpAHMAIABDAGUA
cgB0AGkAZgBpAGMAYQB0AGUAIABjAG8AbgBzAHQAaQB0AHUAdABlAHMAIABhAGMA
YwBlAHAAdABhAG4AYwBlACAAbwBmACAAdABoAGUAIABEAGkAZwBpAEMAZQByAHQA
IABDAFAALwBDAFAAUwAgAGEAbgBkACAAdABoAGUAIABSAGUAbAB5AGkAbgBnACAA
UABhAHIAdAB5ACAAQQBnAHIAZQBlAG0AZQBuAHQAIAB3AGgAaQBjAGgAIABsAGkA
bQBpAHQAIABsAGkAYQBiAGkAbABpAHQAeQAgAGEAbgBkACAAYQByAGUAIABpAG4A
YwBvAHIAcABvAHIAYQB0AGUAZAAgAGgAZQByAGUAaQBuACAAYgB5ACAAcgBlAGYA
ZQByAGUAbgBjAGUALjALBglghkgBhv1sAxUwEgYDVR0TAQH/BAgwBgEB/wIBADB5
BggrBgEFBQcBAQRtMGswJAYIKwYBBQUHMAGGGGh0dHA6Ly9vY3NwLmRpZ2ljZXJ0
LmNvbTBDBggrBgEFBQcwAoY3aHR0cDovL2NhY2VydHMuZGlnaWNlcnQuY29tL0Rp
Z2lDZXJ0QXNzdXJlZElEUm9vdENBLmNydDCBgQYDVR0fBHoweDA6oDigNoY0aHR0
cDovL2NybDMuZGlnaWNlcnQuY29tL0RpZ2lDZXJ0QXNzdXJlZElEUm9vdENBLmNy
bDA6oDigNoY0aHR0cDovL2NybDQuZGlnaWNlcnQuY29tL0RpZ2lDZXJ0QXNzdXJl
ZElEUm9vdENBLmNybDAdBgNVHQ4EFgQUFQASKxOYspkH7R7for5XDStnAs0wHwYD
VR0jBBgwFoAUReuir/SSy4IxLVGLp6chnfNtyA8wDQYJKoZIhvcNAQEFBQADggEB
AEZQPsm3KCSnOB22WymvUs9S6TFHq1Zce9UNC0Gz7+x1H3Q48rJcYaKclcNQ5IK5
I9G6OoZyrTh4rHVdFxc0ckeFlFbR67s2hHfMJKXzBBlVqefj56tizfuLLZDCwNK1
lL1eT7EF0g49GqkUW6aGMWKoqDPkmzmnxPXOHXh2lCVz5Cqrz5x2S+1fwksW5Etw
TACJHvzFebxMElf+X+EevAJdqP77BzhPDcZdkbkPZ0XN1oPt55INjbFpjE/7WeAj
D9KqrgB87pxCDs+R1ye3Fu4Pw718CqDuLAhVhSK46xgaTfwqIa1JMYNHlXdx3LEb
S0scEJx3FMGdTy9alQgpECY=
-----END CERTIFICATE-----

Certificate:
    Data:
        Version: 3 (0x2)
        Serial Number:
            03:59:ce:68:87:32:57:78:87:a5:dc:9e:0d:f2:1e:19
    Signature Algorithm: sha256WithRSAEncryption
        Issuer: C=US, O=DigiCert Inc, OU=www.digicert.com, CN=DigiCert EV Code Signing CA
        Validity
            Not Before: Dec 20 00:00:00 2012 GMT
            Not After : Jan  6 12:00:00 2016 GMT
        Subject: businessCategory=Private Organization/jurisdictionC=BR/serialNumber=26.189.670/0001-91, C=BR, ST=Minas Gerais, L=Juiz de Fora, O=Centralx.com Ltda. - EPP, CN=Centralx.com Ltda. - EPP
        Subject Public Key Info:
            Public Key Algorithm: rsaEncryption
                Public-Key: (2048 bit)
                Modulus:
                    00:c9:c0:74:73:ec:a6:1c:16:1c:57:ec:51:04:fb:
                    07:3d:d1:6b:cf:cc:6b:19:09:e8:68:34:11:5c:f6:
                    b5:1e:86:77:72:c7:72:61:af:e2:32:42:64:fb:7a:
                    5c:4b:61:ee:da:b7:cc:40:32:29:11:8c:cf:3b:59:
                    e6:69:3b:9d:b7:0f:21:9e:6b:38:a4:71:0d:2f:52:
                    b5:d0:2e:e1:a2:39:5a:23:fd:5d:13:6d:e2:46:95:
                    a5:a9:b9:80:32:bd:c6:4d:1f:8c:e0:1d:4b:32:07:
                    68:81:fc:d0:0c:01:ca:eb:77:80:21:d2:1e:f2:69:
                    35:95:06:b8:94:15:69:03:39:fa:7b:9c:96:a9:06:
                    04:b7:43:9b:ab:e9:b9:e8:76:91:39:57:e7:95:47:
                    e3:fc:50:28:bf:0e:25:c6:63:89:a7:60:6a:d2:af:
                    80:53:56:5f:f4:a1:8a:c6:22:69:65:82:ca:03:9b:
                    cc:62:3f:68:f3:85:b1:07:79:86:57:e2:2a:e5:42:
                    6d:b4:cc:bc:f7:d3:aa:5c:d5:36:dd:92:5a:8d:6f:
                    52:27:3d:a4:7c:81:35:b3:73:c7:b9:c5:a4:ca:08:
                    05:92:8f:e2:21:f7:dc:5e:a5:7b:19:19:05:be:6e:
                    1c:0e:00:78:74:e8:40:88:a7:7d:c5:05:67:3f:bc:
                    e7:25
                Exponent: 65537 (0x10001)
        X509v3 extensions:
            X509v3 Authority Key Identifier: 
                keyid:AD:69:06:70:FC:80:1B:16:B3:A9:18:94:6B:94:02:86:5E:F7:27:8C

            X509v3 Subject Key Identifier: 
                F7:C3:DD:7C:12:72:75:40:34:6C:01:A7:7A:91:F5:AE:50:3E:19:F3
            X509v3 Key Usage: critical
                Digital Signature
            X509v3 Extended Key Usage: 
                Code Signing
            X509v3 CRL Distribution Points: 

                Full Name:
                  URI:http://crl3.digicert.com/EVCodeSigning-g1.crl

                Full Name:
                  URI:http://crl4.digicert.com/EVCodeSigning-g1.crl

            X509v3 Certificate Policies: 
                Policy: 2.16.840.1.114412.3.2
                  CPS: http://www.digicert.com/ssl-cps-repository.htm
                  User Notice:
                    Explicit Text: 

            Authority Information Access: 
                OCSP - URI:http://ocsp.digicert.com
                CA Issuers - URI:http://cacerts.digicert.com/DigiCertEVCodeSigningCA.crt

            X509v3 Basic Constraints: critical
                CA:FALSE
    Signature Algorithm: sha256WithRSAEncryption
         9c:8d:1b:94:27:ce:17:bb:4a:1b:83:da:9f:b4:6e:95:e2:7d:
         99:a1:ec:f7:47:2a:e2:0d:df:e7:29:3e:1a:6a:4f:30:fe:bc:
         0e:27:d9:2e:67:c1:ea:28:bd:88:2c:1f:34:c9:8c:11:9d:49:
         4f:7c:1a:20:d8:5e:4c:81:64:8e:ed:ac:94:c3:43:72:f2:8f:
         ad:0e:e2:c4:22:2b:2d:d6:e5:5e:bd:2a:dd:a3:7a:35:75:5b:
         b6:34:3a:b7:e5:0b:fe:60:f3:0b:68:48:e7:aa:0c:1b:96:77:
         b7:f3:6b:7a:6a:35:56:97:2a:5e:8b:37:ce:41:2a:90:1f:0d:
         92:fa:ec:cd:cc:98:cf:0e:c6:27:e2:a7:aa:48:cf:c1:41:90:
         e6:5c:f8:02:4c:20:6a:50:06:a1:f4:26:ae:d6:73:00:7d:16:
         da:bb:86:50:f9:ec:29:e6:10:ae:96:f6:dc:5e:38:01:0e:83:
         78:8e:6f:84:46:a4:e1:62:a5:ff:89:cc:b1:8f:a5:3c:b4:44:
         0b:c8:95:0a:57:25:6a:8a:b5:cb:1a:1d:79:df:93:fd:64:ee:
         f1:27:0c:07:07:1a:44:77:92:8b:ff:cb:ea:69:5e:33:50:9e:
         a1:fb:3b:45:bf:92:31:5f:67:6e:12:78:5b:d5:26:79:c6:74:
         f9:2d:a8:06
-----BEGIN CERTIFICATE-----
MIIG8zCCBdugAwIBAgIQA1nOaIcyV3iHpdyeDfIeGTANBgkqhkiG9w0BAQsFADBl
MQswCQYDVQQGEwJVUzEVMBMGA1UEChMMRGlnaUNlcnQgSW5jMRkwFwYDVQQLExB3
d3cuZGlnaWNlcnQuY29tMSQwIgYDVQQDExtEaWdpQ2VydCBFViBDb2RlIFNpZ25p
bmcgQ0EwHhcNMTIxMjIwMDAwMDAwWhcNMTYwMTA2MTIwMDAwWjCB0jEdMBsGA1UE
DwwUUHJpdmF0ZSBPcmdhbml6YXRpb24xEzARBgsrBgEEAYI3PAIBAxMCQlIxGzAZ
BgNVBAUTEjI2LjE4OS42NzAvMDAwMS05MTELMAkGA1UEBhMCQlIxFTATBgNVBAgT
DE1pbmFzIEdlcmFpczEVMBMGA1UEBxMMSnVpeiBkZSBGb3JhMSEwHwYDVQQKExhD
ZW50cmFseC5jb20gTHRkYS4gLSBFUFAxITAfBgNVBAMTGENlbnRyYWx4LmNvbSBM
dGRhLiAtIEVQUDCCASIwDQYJKoZIhvcNAQEBBQADggEPADCCAQoCggEBAMnAdHPs
phwWHFfsUQT7Bz3Ra8/MaxkJ6Gg0EVz2tR6Gd3LHcmGv4jJCZPt6XEth7tq3zEAy
KRGMzztZ5mk7nbcPIZ5rOKRxDS9StdAu4aI5WiP9XRNt4kaVpam5gDK9xk0fjOAd
SzIHaIH80AwByut3gCHSHvJpNZUGuJQVaQM5+nuclqkGBLdDm6vpueh2kTlX55VH
4/xQKL8OJcZjiadgatKvgFNWX/ShisYiaWWCygObzGI/aPOFsQd5hlfiKuVCbbTM
vPfTqlzVNt2SWo1vUic9pHyBNbNzx7nFpMoIBZKP4iH33F6lexkZBb5uHA4AeHTo
QIinfcUFZz+85yUCAwEAAaOCAy8wggMrMB8GA1UdIwQYMBaAFK1pBnD8gBsWs6kY
lGuUAoZe9yeMMB0GA1UdDgQWBBT3w918EnJ1QDRsAad6kfWuUD4Z8zAOBgNVHQ8B
Af8EBAMCB4AwEwYDVR0lBAwwCgYIKwYBBQUHAwMwcwYDVR0fBGwwajAzoDGgL4Yt
aHR0cDovL2NybDMuZGlnaWNlcnQuY29tL0VWQ29kZVNpZ25pbmctZzEuY3JsMDOg
MaAvhi1odHRwOi8vY3JsNC5kaWdpY2VydC5jb20vRVZDb2RlU2lnbmluZy1nMS5j
cmwwggHEBgNVHSAEggG7MIIBtzCCAbMGCWCGSAGG/WwDAjCCAaQwOgYIKwYBBQUH
AgEWLmh0dHA6Ly93d3cuZGlnaWNlcnQuY29tL3NzbC1jcHMtcmVwb3NpdG9yeS5o
dG0wggFkBggrBgEFBQcCAjCCAVYeggFSAEEAbgB5ACAAdQBzAGUAIABvAGYAIAB0
AGgAaQBzACAAQwBlAHIAdABpAGYAaQBjAGEAdABlACAAYwBvAG4AcwB0AGkAdAB1
AHQAZQBzACAAYQBjAGMAZQBwAHQAYQBuAGMAZQAgAG8AZgAgAHQAaABlACAARABp
AGcAaQBDAGUAcgB0ACAAQwBQAC8AQwBQAFMAIABhAG4AZAAgAHQAaABlACAAUgBl
AGwAeQBpAG4AZwAgAFAAYQByAHQAeQAgAEEAZwByAGUAZQBtAGUAbgB0ACAAdwBo
AGkAYwBoACAAbABpAG0AaQB0ACAAbABpAGEAYgBpAGwAaQB0AHkAIABhAG4AZAAg
AGEAcgBlACAAaQBuAGMAbwByAHAAbwByAGEAdABlAGQAIABoAGUAcgBlAGkAbgAg
AGIAeQAgAHIAZQBmAGUAcgBlAG4AYwBlAC4weQYIKwYBBQUHAQEEbTBrMCQGCCsG
AQUFBzABhhhodHRwOi8vb2NzcC5kaWdpY2VydC5jb20wQwYIKwYBBQUHMAKGN2h0
dHA6Ly9jYWNlcnRzLmRpZ2ljZXJ0LmNvbS9EaWdpQ2VydEVWQ29kZVNpZ25pbmdD
QS5jcnQwDAYDVR0TAQH/BAIwADANBgkqhkiG9w0BAQsFAAOCAQEAnI0blCfOF7tK
G4Pan7RuleJ9maHs90cq4g3f5yk+GmpPMP68DifZLmfB6ii9iCwfNMmMEZ1JT3wa
INheTIFkju2slMNDcvKPrQ7ixCIrLdblXr0q3aN6NXVbtjQ6t+UL/mDzC2hI56oM
G5Z3t/Nremo1VpcqXos3zkEqkB8NkvrszcyYzw7GJ+KnqkjPwUGQ5lz4AkwgalAG
ofQmrtZzAH0W2ruGUPnsKeYQrpb23F44AQ6DeI5vhEak4WKl/4nMsY+lPLREC8iV
Clclaoq1yxoded+T/WTu8ScMBwcaRHeSi//L6mleM1Ceofs7Rb+SMV9nbhJ4W9Um
ecZ0+S2oBg==
-----END CERTIFICATE-----

