Certificate:
    Data:
        Version: 3 (0x2)
        Serial Number:
            10:9f:1d:aa:af:b8:33:15:a6:b6:4a:6e:ed:82:d8:16
    Signature Algorithm: sha1WithRSAEncryption
        Issuer: C=US, O=VeriSign, Inc., OU=VeriSign Trust Network, OU=Terms of use at https://www.verisign.com/rpa (c)09, CN=VeriSign Class 3 Code Signing 2009-2 CA
        Validity
            Not Before: Nov  4 00:00:00 2009 GMT
            Not After : Nov  3 23:59:59 2012 GMT
        Subject: C=BZ, ST=Belize, L=Belize City, O=DT Soft Ltd, OU=Digital ID Class 3 - Microsoft Software Validation v2, CN=DT Soft Ltd
        Subject Public Key Info:
            Public Key Algorithm: rsaEncryption
                Public-Key: (1024 bit)
                Modulus:
                    00:98:d4:3c:8b:db:f9:ab:f7:b0:62:8e:0f:5c:14:
                    6e:0a:20:d1:17:7f:55:06:43:08:23:87:48:8e:e4:
                    6b:02:70:ec:f7:bd:62:c4:c5:f1:4d:3f:a8:56:8f:
                    9c:ce:ea:46:9b:f3:25:ce:a2:06:5e:76:36:92:98:
                    c7:81:94:b8:25:24:61:c5:e5:9e:24:a0:24:94:78:
                    58:00:9a:fd:81:15:64:36:6e:75:6a:85:08:9e:52:
                    c1:16:b1:91:82:9a:e9:3a:ec:47:47:d9:9f:23:01:
                    a3:de:fc:43:26:6b:46:6f:4f:19:29:36:58:59:4b:
                    d9:a9:8b:e9:2d:24:5b:2f:2f
                Exponent: 65537 (0x10001)
        X509v3 extensions:
            X509v3 Basic Constraints: 
                CA:FALSE
            X509v3 Key Usage: critical
                Digital Signature
            X509v3 CRL Distribution Points: 

                Full Name:
                  URI:http://csc3-2009-2-crl.verisign.com/CSC3-2009-2.crl

            X509v3 Certificate Policies: 
                Policy: 2.16.840.1.113733.1.7.23.3
                  CPS: https://www.verisign.com/rpa

            X509v3 Extended Key Usage: 
                Code Signing
            Authority Information Access: 
                OCSP - URI:http://ocsp.verisign.com
                CA Issuers - URI:http://csc3-2009-2-aia.verisign.com/CSC3-2009-2.cer

            X509v3 Authority Key Identifier: 
                keyid:97:D0:6B:A8:26:70:C8:A1:3F:94:1F:08:2D:C4:35:9B:A4:A1:1E:F2

            Netscape Cert Type: 
                Object Signing
            1.3.6.1.4.1.311.2.1.27: 
                0.......
    Signature Algorithm: sha1WithRSAEncryption
         6b:0b:1c:28:13:ca:e3:a0:09:b5:78:10:c2:da:15:3d:b4:34:
         2d:a6:32:71:7a:03:74:ba:e9:a4:89:f8:78:77:da:ef:4a:72:
         a9:60:ba:fd:1a:41:e2:a0:8c:6b:17:bd:39:de:a8:6d:5c:52:
         dd:b4:ca:a0:0a:57:df:07:f3:76:61:03:de:0d:8f:f3:c8:39:
         6d:86:c9:f8:ba:b4:c9:0f:13:a1:32:12:ce:d2:33:39:69:7f:
         48:b6:75:41:17:3a:f9:b1:7d:83:c5:17:89:82:d5:56:f4:c5:
         6b:bc:b1:a7:64:b2:cf:70:66:7b:95:aa:f4:4c:4a:12:e7:4d:
         3b:a4:bb:93:fb:9f:a4:14:af:56:38:e8:9c:ce:e9:a4:0c:47:
         85:7c:61:ff:8c:57:55:1b:e1:95:9e:60:c1:0d:e4:77:ad:52:
         45:7c:ba:23:db:97:53:bf:5f:b5:e2:c3:1f:13:61:9a:ac:a7:
         20:a2:c2:87:db:e0:d9:1c:29:f5:d8:86:2e:20:34:76:d1:26:
         a4:92:2f:fd:c5:fd:b6:3e:ff:ea:61:15:82:48:5a:f7:f2:82:
         09:c4:bb:13:3e:d0:ca:06:31:6d:ea:5f:b4:00:58:f9:4b:52:
         24:5d:ea:f8:dd:51:73:cc:18:95:58:70:f6:38:8c:73:ec:81:
         35:69:9d:89
-----BEGIN CERTIFICATE-----
MIIE4zCCA8ugAwIBAgIQEJ8dqq+4MxWmtkpu7YLYFjANBgkqhkiG9w0BAQUFADCB
tjELMAkGA1UEBhMCVVMxFzAVBgNVBAoTDlZlcmlTaWduLCBJbmMuMR8wHQYDVQQL
ExZWZXJpU2lnbiBUcnVzdCBOZXR3b3JrMTswOQYDVQQLEzJUZXJtcyBvZiB1c2Ug
YXQgaHR0cHM6Ly93d3cudmVyaXNpZ24uY29tL3JwYSAoYykwOTEwMC4GA1UEAxMn
VmVyaVNpZ24gQ2xhc3MgMyBDb2RlIFNpZ25pbmcgMjAwOS0yIENBMB4XDTA5MTEw
NDAwMDAwMFoXDTEyMTEwMzIzNTk1OVowgaAxCzAJBgNVBAYTAkJaMQ8wDQYDVQQI
EwZCZWxpemUxFDASBgNVBAcTC0JlbGl6ZSBDaXR5MRQwEgYDVQQKFAtEVCBTb2Z0
IEx0ZDE+MDwGA1UECxM1RGlnaXRhbCBJRCBDbGFzcyAzIC0gTWljcm9zb2Z0IFNv
ZnR3YXJlIFZhbGlkYXRpb24gdjIxFDASBgNVBAMUC0RUIFNvZnQgTHRkMIGfMA0G
CSqGSIb3DQEBAQUAA4GNADCBiQKBgQCY1DyL2/mr97Bijg9cFG4KINEXf1UGQwgj
h0iO5GsCcOz3vWLExfFNP6hWj5zO6kab8yXOogZedjaSmMeBlLglJGHF5Z4koCSU
eFgAmv2BFWQ2bnVqhQieUsEWsZGCmuk67EdH2Z8jAaPe/EMma0ZvTxkpNlhZS9mp
i+ktJFsvLwIDAQABo4IBgzCCAX8wCQYDVR0TBAIwADAOBgNVHQ8BAf8EBAMCB4Aw
RAYDVR0fBD0wOzA5oDegNYYzaHR0cDovL2NzYzMtMjAwOS0yLWNybC52ZXJpc2ln
bi5jb20vQ1NDMy0yMDA5LTIuY3JsMEQGA1UdIAQ9MDswOQYLYIZIAYb4RQEHFwMw
KjAoBggrBgEFBQcCARYcaHR0cHM6Ly93d3cudmVyaXNpZ24uY29tL3JwYTATBgNV
HSUEDDAKBggrBgEFBQcDAzB1BggrBgEFBQcBAQRpMGcwJAYIKwYBBQUHMAGGGGh0
dHA6Ly9vY3NwLnZlcmlzaWduLmNvbTA/BggrBgEFBQcwAoYzaHR0cDovL2NzYzMt
MjAwOS0yLWFpYS52ZXJpc2lnbi5jb20vQ1NDMy0yMDA5LTIuY2VyMB8GA1UdIwQY
MBaAFJfQa6gmcMihP5QfCC3ENZukoR7yMBEGCWCGSAGG+EIBAQQEAwIEEDAWBgor
BgEEAYI3AgEbBAgwBgEBAAEB/zANBgkqhkiG9w0BAQUFAAOCAQEAawscKBPK46AJ
tXgQwtoVPbQ0LaYycXoDdLrppIn4eHfa70pyqWC6/RpB4qCMaxe9Od6obVxS3bTK
oApX3wfzdmED3g2P88g5bYbJ+Lq0yQ8ToTISztIzOWl/SLZ1QRc6+bF9g8UXiYLV
VvTFa7yxp2Syz3Bme5Wq9ExKEudNO6S7k/ufpBSvVjjonM7ppAxHhXxh/4xXVRvh
lZ5gwQ3kd61SRXy6I9uXU79fteLDHxNhmqynIKLCh9vg2Rwp9diGLiA0dtEmpJIv
/cX9tj7/6mEVgkha9/KCCcS7Ez7QygYxbepftABY+UtSJF3q+N1Rc8wYlVhw9jiM
c+yBNWmdiQ==
-----END CERTIFICATE-----

Certificate:
    Data:
        Version: 3 (0x2)
        Serial Number:
            65:52:26:e1:b2:2e:18:e1:59:0f:29:85:ac:22:e7:5c
    Signature Algorithm: sha1WithRSAEncryption
        Issuer: C=US, O=VeriSign, Inc., OU=Class 3 Public Primary Certification Authority
        Validity
            Not Before: May 21 00:00:00 2009 GMT
            Not After : May 20 23:59:59 2019 GMT
        Subject: C=US, O=VeriSign, Inc., OU=VeriSign Trust Network, OU=Terms of use at https://www.verisign.com/rpa (c)09, CN=VeriSign Class 3 Code Signing 2009-2 CA
        Subject Public Key Info:
            Public Key Algorithm: rsaEncryption
                Public-Key: (2048 bit)
                Modulus:
                    00:be:67:1d:b4:60:aa:10:49:6f:56:17:7c:66:c9:
                    5e:86:0d:d5:f1:ac:a7:71:83:8e:8b:89:f8:88:04:
                    89:15:06:ba:2d:84:21:95:e4:d1:9c:50:4c:fb:d2:
                    22:bd:da:f2:b2:35:3b:1e:8f:c3:09:fb:fc:13:2e:
                    5a:bf:89:7c:3d:3b:25:1e:f6:f3:58:7b:9c:f4:01:
                    b5:c6:0a:b8:80:ce:be:27:74:61:67:27:4d:6a:e5:
                    ec:81:61:58:79:a3:e0:17:10:12:15:27:b0:e1:4d:
                    34:7f:2b:47:20:44:b9:de:66:24:66:8a:cd:4f:ba:
                    1f:c5:38:c8:54:90:e1:72:f6:19:66:75:6a:b9:49:
                    68:cf:38:79:0d:aa:30:a8:db:2c:60:48:9e:d7:aa:
                    14:01:a9:83:d7:38:91:30:39:13:96:03:3a:7c:40:
                    54:b6:ad:e0:2f:1b:83:dc:a8:11:52:3e:02:b3:d7:
                    2b:fd:21:b6:a7:5c:a3:0f:0b:a9:a6:10:50:0e:34:
                    2e:4d:a7:ce:c9:5e:25:d4:8c:bc:f3:6e:7c:29:bc:
                    01:5d:fc:31:87:5a:d5:8c:85:67:58:88:19:a0:bf:
                    35:f0:ea:2b:a3:21:e7:90:f6:83:e5:a8:ed:60:78:
                    5e:7b:60:83:fd:57:0b:5d:41:0d:63:54:60:d6:43:
                    21:ef
                Exponent: 65537 (0x10001)
        X509v3 extensions:
            X509v3 Basic Constraints: critical
                CA:TRUE, pathlen:0
            X509v3 Certificate Policies: 
                Policy: 2.16.840.1.113733.1.7.23.3
                  CPS: https://www.verisign.com/cps
                  User Notice:
                    Explicit Text: https://www.verisign.com/rpa

            X509v3 Key Usage: critical
                Certificate Sign, CRL Sign
            1.3.6.1.5.5.7.1.12: 
                0_.].[0Y0W0U..image/gif0!0.0...+..............k...j.H.,{..0%.#http://logo.verisign.com/vslogo.gif
            X509v3 Extended Key Usage: 
                TLS Web Client Authentication, Code Signing
            Authority Information Access: 
                OCSP - URI:http://ocsp.verisign.com

            X509v3 CRL Distribution Points: 

                Full Name:
                  URI:http://crl.verisign.com/pca3.crl

            X509v3 Subject Alternative Name: 
                DirName:/CN=Class3CA2048-1-55
            X509v3 Subject Key Identifier: 
                97:D0:6B:A8:26:70:C8:A1:3F:94:1F:08:2D:C4:35:9B:A4:A1:1E:F2
    Signature Algorithm: sha1WithRSAEncryption
         8b:03:c0:dd:94:d8:41:a2:61:69:b0:15:a8:78:c7:30:c6:90:
         3c:7e:42:f7:24:b6:e4:83:73:17:04:7f:04:10:9c:a1:e2:fa:
         81:2f:eb:c0:ca:44:e7:72:e0:50:b6:55:10:20:83:6e:96:92:
         e4:9a:51:6a:b4:37:31:dc:a5:2d:eb:8c:00:c7:1d:4f:e7:4d:
         32:ba:85:f8:4e:be:fa:67:55:65:f0:6a:be:7a:ca:64:38:1a:
         10:10:78:45:76:31:f3:86:7a:03:0f:60:c2:b3:5d:9d:f6:8b:
         66:76:82:1b:59:e1:83:e5:bd:49:a5:38:56:e5:de:41:77:0e:
         58:0f
-----BEGIN CERTIFICATE-----
MIIE/DCCBGWgAwIBAgIQZVIm4bIuGOFZDymFrCLnXDANBgkqhkiG9w0BAQUFADBf
MQswCQYDVQQGEwJVUzEXMBUGA1UEChMOVmVyaVNpZ24sIEluYy4xNzA1BgNVBAsT
LkNsYXNzIDMgUHVibGljIFByaW1hcnkgQ2VydGlmaWNhdGlvbiBBdXRob3JpdHkw
HhcNMDkwNTIxMDAwMDAwWhcNMTkwNTIwMjM1OTU5WjCBtjELMAkGA1UEBhMCVVMx
FzAVBgNVBAoTDlZlcmlTaWduLCBJbmMuMR8wHQYDVQQLExZWZXJpU2lnbiBUcnVz
dCBOZXR3b3JrMTswOQYDVQQLEzJUZXJtcyBvZiB1c2UgYXQgaHR0cHM6Ly93d3cu
dmVyaXNpZ24uY29tL3JwYSAoYykwOTEwMC4GA1UEAxMnVmVyaVNpZ24gQ2xhc3Mg
MyBDb2RlIFNpZ25pbmcgMjAwOS0yIENBMIIBIjANBgkqhkiG9w0BAQEFAAOCAQ8A
MIIBCgKCAQEAvmcdtGCqEElvVhd8Zslehg3V8ayncYOOi4n4iASJFQa6LYQhleTR
nFBM+9IivdrysjU7Ho/DCfv8Ey5av4l8PTslHvbzWHuc9AG1xgq4gM6+J3RhZydN
auXsgWFYeaPgFxASFSew4U00fytHIES53mYkZorNT7ofxTjIVJDhcvYZZnVquUlo
zzh5DaowqNssYEie16oUAamD1ziRMDkTlgM6fEBUtq3gLxuD3KgRUj4Cs9cr/SG2
p1yjDwupphBQDjQuTafOyV4l1Iy88258KbwBXfwxh1rVjIVnWIgZoL818OoroyHn
kPaD5ajtYHhee2CD/VcLXUENY1Rg1kMh7wIDAQABo4IB2zCCAdcwEgYDVR0TAQH/
BAgwBgEB/wIBADBwBgNVHSAEaTBnMGUGC2CGSAGG+EUBBxcDMFYwKAYIKwYBBQUH
AgEWHGh0dHBzOi8vd3d3LnZlcmlzaWduLmNvbS9jcHMwKgYIKwYBBQUHAgIwHhoc
aHR0cHM6Ly93d3cudmVyaXNpZ24uY29tL3JwYTAOBgNVHQ8BAf8EBAMCAQYwbQYI
KwYBBQUHAQwEYTBfoV2gWzBZMFcwVRYJaW1hZ2UvZ2lmMCEwHzAHBgUrDgMCGgQU
j+XTGoasjY5rw8+AatRIGCx7GS4wJRYjaHR0cDovL2xvZ28udmVyaXNpZ24uY29t
L3ZzbG9nby5naWYwHQYDVR0lBBYwFAYIKwYBBQUHAwIGCCsGAQUFBwMDMDQGCCsG
AQUFBwEBBCgwJjAkBggrBgEFBQcwAYYYaHR0cDovL29jc3AudmVyaXNpZ24uY29t
MDEGA1UdHwQqMCgwJqAkoCKGIGh0dHA6Ly9jcmwudmVyaXNpZ24uY29tL3BjYTMu
Y3JsMCkGA1UdEQQiMCCkHjAcMRowGAYDVQQDExFDbGFzczNDQTIwNDgtMS01NTAd
BgNVHQ4EFgQUl9BrqCZwyKE/lB8ILcQ1m6ShHvIwDQYJKoZIhvcNAQEFBQADgYEA
iwPA3ZTYQaJhabAVqHjHMMaQPH5C9yS25INzFwR/BBCcoeL6gS/rwMpE53LgULZV
ECCDbpaS5JpRarQ3MdylLeuMAMcdT+dNMrqF+E6++mdVZfBqvnrKZDgaEBB4RXYx
84Z6Aw9gwrNdnfaLZnaCG1nhg+W9SaU4VuXeQXcOWA8=
-----END CERTIFICATE-----

Certificate:
    Data:
        Version: 3 (0x2)
        Serial Number:
            38:25:d7:fa:f8:61:af:9e:f4:90:e7:26:b5:d6:5a:d5
    Signature Algorithm: sha1WithRSAEncryption
        Issuer: C=US, O=VeriSign, Inc., CN=VeriSign Time Stamping Services CA
        Validity
            Not Before: Jun 15 00:00:00 2007 GMT
            Not After : Jun 14 23:59:59 2012 GMT
        Subject: C=US, O=VeriSign, Inc., CN=VeriSign Time Stamping Services Signer - G2
        Subject Public Key Info:
            Public Key Algorithm: rsaEncryption
                Public-Key: (1024 bit)
                Modulus:
                    00:c4:b5:f2:52:15:bc:88:86:60:29:16:4a:5b:2f:
                    4b:91:6b:87:91:f3:35:54:58:35:ea:d1:36:5e:62:
                    4d:52:51:34:71:c2:7b:66:1d:89:c8:dd:2a:c4:6a:
                    0a:f6:37:d9:98:74:91:f6:92:ae:b0:b5:76:96:f1:
                    a9:4a:63:45:47:2e:6b:0b:92:4e:4b:2b:8c:ee:58:
                    4a:8b:d4:07:e4:1a:2c:f8:82:aa:58:d9:cd:42:f3:
                    2d:c0:75:de:8d:ab:c7:8e:1d:9a:6c:4c:08:95:1e:
                    de:db:ef:67:e1:72:c2:49:c2:9e:60:3c:e1:e2:be:
                    16:a3:63:78:69:14:7b:ad:2d
                Exponent: 65537 (0x10001)
        X509v3 extensions:
            Authority Information Access: 
                OCSP - URI:http://ocsp.verisign.com

            X509v3 Basic Constraints: critical
                CA:FALSE
            X509v3 CRL Distribution Points: 

                Full Name:
                  URI:http://crl.verisign.com/tss-ca.crl

            X509v3 Extended Key Usage: critical
                Time Stamping
            X509v3 Key Usage: critical
                Digital Signature, Non Repudiation
            X509v3 Subject Alternative Name: 
                DirName:/CN=TSA1-2
    Signature Algorithm: sha1WithRSAEncryption
         50:c5:4b:c8:24:80:df:e4:0d:24:c2:de:1a:b1:a1:02:a1:a6:
         82:2d:0c:83:15:81:37:0a:82:0e:2c:b0:5a:17:61:b5:d8:05:
         fe:88:db:f1:91:91:b3:56:1a:40:a6:eb:92:be:38:39:b0:75:
         36:74:3a:98:4f:e4:37:ba:99:89:ca:95:42:1d:b0:b9:c7:a0:
         8d:57:e0:fa:d5:64:04:42:35:4e:01:d1:33:a2:17:c8:4d:aa:
         27:c7:f2:e1:86:4c:02:38:4d:83:78:c6:fc:53:e0:eb:e0:06:
         87:dd:a4:96:9e:5e:0c:98:e2:a5:be:bf:82:85:c3:60:e1:df:
         ad:28:d8:c7:a5:4b:64:da:c7:1b:5b:bd:ac:39:08:d5:38:22:
         a1:33:8b:2f:8a:9a:eb:bc:07:21:3f:44:41:09:07:b5:65:1c:
         24:bc:48:d3:44:80:eb:a1:cf:c9:02:b4:14:cf:54:c7:16:a3:
         80:5c:f9:79:3e:5d:72:7d:88:17:9e:2c:43:a2:ca:53:ce:7d:
         3d:f6:2a:3a:b8:4f:94:00:a5:6d:0a:83:5d:f9:5e:53:f4:18:
         b3:57:0f:70:c3:fb:f5:ad:95:a0:0e:17:de:c4:16:80:60:c9:
         0f:2b:6e:86:04:f1:eb:f4:78:27:d1:05:c5:ee:34:5b:5e:b9:
         49:32:f2:33
-----BEGIN CERTIFICATE-----
MIIDejCCAmKgAwIBAgIQOCXX+vhhr570kOcmtdZa1TANBgkqhkiG9w0BAQUFADBT
MQswCQYDVQQGEwJVUzEXMBUGA1UEChMOVmVyaVNpZ24sIEluYy4xKzApBgNVBAMT
IlZlcmlTaWduIFRpbWUgU3RhbXBpbmcgU2VydmljZXMgQ0EwHhcNMDcwNjE1MDAw
MDAwWhcNMTIwNjE0MjM1OTU5WjBcMQswCQYDVQQGEwJVUzEXMBUGA1UEChMOVmVy
aVNpZ24sIEluYy4xNDAyBgNVBAMTK1ZlcmlTaWduIFRpbWUgU3RhbXBpbmcgU2Vy
dmljZXMgU2lnbmVyIC0gRzIwgZ8wDQYJKoZIhvcNAQEBBQADgY0AMIGJAoGBAMS1
8lIVvIiGYCkWSlsvS5Frh5HzNVRYNerRNl5iTVJRNHHCe2YdicjdKsRqCvY32Zh0
kfaSrrC1dpbxqUpjRUcuawuSTksrjO5YSovUB+QaLPiCqljZzULzLcB13o2rx44d
mmxMCJUe3tvvZ+FywknCnmA84eK+FqNjeGkUe60tAgMBAAGjgcQwgcEwNAYIKwYB
BQUHAQEEKDAmMCQGCCsGAQUFBzABhhhodHRwOi8vb2NzcC52ZXJpc2lnbi5jb20w
DAYDVR0TAQH/BAIwADAzBgNVHR8ELDAqMCigJqAkhiJodHRwOi8vY3JsLnZlcmlz
aWduLmNvbS90c3MtY2EuY3JsMBYGA1UdJQEB/wQMMAoGCCsGAQUFBwMIMA4GA1Ud
DwEB/wQEAwIGwDAeBgNVHREEFzAVpBMwETEPMA0GA1UEAxMGVFNBMS0yMA0GCSqG
SIb3DQEBBQUAA4IBAQBQxUvIJIDf5A0kwt4asaECoaaCLQyDFYE3CoIOLLBaF2G1
2AX+iNvxkZGzVhpApuuSvjg5sHU2dDqYT+Q3upmJypVCHbC5x6CNV+D61WQEQjVO
AdEzohfITaonx/LhhkwCOE2DeMb8U+Dr4AaH3aSWnl4MmOKlvr+ChcNg4d+tKNjH
pUtk2scbW72sOQjVOCKhM4sviprrvAchP0RBCQe1ZRwkvEjTRIDroc/JArQUz1TH
FqOAXPl5Pl1yfYgXnixDospTzn099io6uE+UAKVtCoNd+V5T9BizVw9ww/v1rZWg
DhfexBaAYMkPK26GBPHr9Hgn0QXF7jRbXrlJMvIz
-----END CERTIFICATE-----

Certificate:
    Data:
        Version: 3 (0x2)
        Serial Number:
            47:bf:19:95:df:8d:52:46:43:f7:db:6d:48:0d:31:a4
    Signature Algorithm: sha1WithRSAEncryption
        Issuer: C=ZA, ST=Western Cape, L=Durbanville, O=Thawte, OU=Thawte Certification, CN=Thawte Timestamping CA
        Validity
            Not Before: Dec  4 00:00:00 2003 GMT
            Not After : Dec  3 23:59:59 2013 GMT
        Subject: C=US, O=VeriSign, Inc., CN=VeriSign Time Stamping Services CA
        Subject Public Key Info:
            Public Key Algorithm: rsaEncryption
                Public-Key: (2048 bit)
                Modulus:
                    00:a9:ca:b2:a4:cc:cd:20:af:0a:7d:89:ac:87:75:
                    f0:b4:4e:f1:df:c1:0f:bf:67:61:bd:a3:64:1c:da:
                    bb:f9:ca:33:ab:84:30:89:58:7e:8c:db:6b:dd:36:
                    9e:0f:bf:d1:ec:78:f2:77:a6:7e:6f:3c:bf:93:af:
                    0d:ba:68:f4:6c:94:ca:bd:52:2d:ab:48:3d:f5:b6:
                    d5:5d:5f:1b:02:9f:fa:2f:6b:1e:a4:f7:a3:9a:a6:
                    1a:c8:02:e1:7f:4c:52:e3:0e:60:ec:40:1c:7e:b9:
                    0d:de:3f:c7:b4:df:87:bd:5f:7a:6a:31:2e:03:99:
                    81:13:a8:47:20:ce:31:73:0d:57:2d:cd:78:34:33:
                    95:12:99:12:b9:de:68:2f:aa:e6:e3:c2:8a:8c:2a:
                    c3:8b:21:87:66:bd:83:58:57:6f:75:bf:3c:aa:26:
                    87:5d:ca:10:15:3c:9f:84:ea:54:c1:0a:6e:c4:fe:
                    c5:4a:dd:b9:07:11:97:22:7c:db:3e:27:d1:1e:78:
                    ec:9f:31:c9:f1:e6:22:19:db:c4:b3:47:43:9a:1a:
                    5f:a0:1e:90:e4:5e:f5:ee:7c:f1:7d:ab:62:01:8f:
                    f5:4d:0b:de:d0:22:56:a8:95:cd:ae:88:76:ae:ee:
                    ba:0d:f3:e4:4d:d9:a0:fb:68:a0:ae:14:3b:b3:87:
                    c1:bb
                Exponent: 65537 (0x10001)
        X509v3 extensions:
            Authority Information Access: 
                OCSP - URI:http://ocsp.verisign.com

            X509v3 Basic Constraints: critical
                CA:TRUE, pathlen:0
            X509v3 CRL Distribution Points: 

                Full Name:
                  URI:http://crl.verisign.com/ThawteTimestampingCA.crl

            X509v3 Extended Key Usage: 
                Time Stamping
            X509v3 Key Usage: critical
                Certificate Sign, CRL Sign
            X509v3 Subject Alternative Name: 
                DirName:/CN=TSA2048-1-53
    Signature Algorithm: sha1WithRSAEncryption
         4a:6b:f9:ea:58:c2:44:1c:31:89:79:99:2b:96:bf:82:ac:01:
         d6:1c:4c:cd:b0:8a:58:6e:df:08:29:a3:5e:c8:ca:93:13:e7:
         04:52:0d:ef:47:27:2f:00:38:b0:e4:c9:93:4e:9a:d4:22:62:
         15:f7:3f:37:21:4f:70:31:80:f1:8b:38:87:b3:e8:e8:97:00:
         fe:cf:55:96:4e:24:d2:a9:27:4e:7a:ae:b7:61:41:f3:2a:ce:
         e7:c9:d9:5e:dd:bb:2b:85:3e:b5:9d:b5:d9:e1:57:ff:be:b4:
         c5:7e:f5:cf:0c:9e:f0:97:fe:2b:d3:3b:52:1b:1b:38:27:f7:
         3f:4a
-----BEGIN CERTIFICATE-----
MIIDxDCCAy2gAwIBAgIQR78Zld+NUkZD99ttSA0xpDANBgkqhkiG9w0BAQUFADCB
izELMAkGA1UEBhMCWkExFTATBgNVBAgTDFdlc3Rlcm4gQ2FwZTEUMBIGA1UEBxML
RHVyYmFudmlsbGUxDzANBgNVBAoTBlRoYXd0ZTEdMBsGA1UECxMUVGhhd3RlIENl
cnRpZmljYXRpb24xHzAdBgNVBAMTFlRoYXd0ZSBUaW1lc3RhbXBpbmcgQ0EwHhcN
MDMxMjA0MDAwMDAwWhcNMTMxMjAzMjM1OTU5WjBTMQswCQYDVQQGEwJVUzEXMBUG
A1UEChMOVmVyaVNpZ24sIEluYy4xKzApBgNVBAMTIlZlcmlTaWduIFRpbWUgU3Rh
bXBpbmcgU2VydmljZXMgQ0EwggEiMA0GCSqGSIb3DQEBAQUAA4IBDwAwggEKAoIB
AQCpyrKkzM0grwp9iayHdfC0TvHfwQ+/Z2G9o2Qc2rv5yjOrhDCJWH6M22vdNp4P
v9HsePJ3pn5vPL+Trw26aPRslMq9Ui2rSD31ttVdXxsCn/ovax6k96OaphrIAuF/
TFLjDmDsQBx+uQ3eP8e034e9X3pqMS4DmYETqEcgzjFzDVctzXg0M5USmRK53mgv
qubjwoqMKsOLIYdmvYNYV291vzyqJoddyhAVPJ+E6lTBCm7E/sVK3bkHEZcifNs+
J9EeeOyfMcnx5iIZ28SzR0OaGl+gHpDkXvXufPF9q2IBj/VNC97QIlaolc2uiHau
7roN8+RN2aD7aKCuFDuzh8G7AgMBAAGjgdswgdgwNAYIKwYBBQUHAQEEKDAmMCQG
CCsGAQUFBzABhhhodHRwOi8vb2NzcC52ZXJpc2lnbi5jb20wEgYDVR0TAQH/BAgw
BgEB/wIBADBBBgNVHR8EOjA4MDagNKAyhjBodHRwOi8vY3JsLnZlcmlzaWduLmNv
bS9UaGF3dGVUaW1lc3RhbXBpbmdDQS5jcmwwEwYDVR0lBAwwCgYIKwYBBQUHAwgw
DgYDVR0PAQH/BAQDAgEGMCQGA1UdEQQdMBukGTAXMRUwEwYDVQQDEwxUU0EyMDQ4
LTEtNTMwDQYJKoZIhvcNAQEFBQADgYEASmv56ljCRBwxiXmZK5a/gqwB1hxMzbCK
WG7fCCmjXsjKkxPnBFIN70cnLwA4sOTJk06a1CJiFfc/NyFPcDGA8Ys4h7Po6JcA
/s9Vlk4k0qknTnqut2FB8yrO58nZXt27K4U+tZ212eFX/760xX71zwye8Jf+K9M7
UhsbOCf3P0o=
-----END CERTIFICATE-----

