Certificate:
    Data:
        Version: 3 (0x2)
        Serial Number:
            9f:ea:c8:11:b0:f1:62:47:a5:fc:20:d8:05:23:ac:e6
    Signature Algorithm: sha1WithRSAEncryption
        Issuer: C=US, ST=UT, L=Salt Lake City, O=The USERTRUST Network, OU=http://www.usertrust.com, CN=UTN-USERFirst-Object
        Validity
            Not Before: May  5 00:00:00 2015 GMT
            Not After : Dec 31 23:59:59 2015 GMT
        Subject: C=GB, ST=Greater Manchester, L=Salford, O=COMODO CA Limited, CN=COMODO Time Stamping Signer
        Subject Public Key Info:
            Public Key Algorithm: rsaEncryption
                Public-Key: (2048 bit)
                Modulus:
                    00:bc:35:a0:36:70:22:81:11:c3:b2:83:b9:d3:28:
                    c6:36:cd:25:6b:a9:7b:b2:1c:f6:9b:51:9c:ef:35:
                    f4:ed:08:8e:5e:38:08:f8:77:3c:0a:42:e0:f3:70:
                    dc:a3:d7:ca:f5:4c:0b:cf:ff:22:9c:0a:7e:68:d6:
                    09:a2:2a:84:7b:a6:9d:b4:a9:c1:33:e2:ef:1f:17:
                    48:ca:3a:cd:46:e6:c5:aa:77:bd:e3:77:9a:fa:47:
                    53:40:28:59:43:93:f1:a4:81:ea:ef:80:b5:4f:a7:
                    08:ce:ba:6e:bc:ca:76:0c:97:64:59:86:24:bb:3d:
                    82:90:a8:55:b1:92:d3:a0:a7:05:ac:9f:53:25:08:
                    10:47:99:cd:98:de:68:e5:b4:50:78:a3:af:01:cc:
                    59:43:58:e4:76:6e:7e:ac:c7:e2:9e:1f:4f:b0:47:
                    2d:c8:0c:a3:49:27:80:75:8c:bb:06:91:65:0f:90:
                    9b:f4:ba:d1:81:c8:5c:6a:ec:14:e9:25:09:bf:23:
                    16:f4:95:46:40:40:21:bb:83:96:fd:86:1f:7a:c8:
                    0d:10:8e:a2:f8:19:07:58:7f:9f:bd:37:02:60:f2:
                    a4:e9:9d:44:3f:30:05:e4:a7:70:99:51:9a:e8:17:
                    f1:55:ca:b2:61:89:65:46:a7:6a:f2:58:46:7e:aa:
                    a0:07
                Exponent: 65537 (0x10001)
        X509v3 extensions:
            X509v3 Authority Key Identifier: 
                keyid:DA:ED:64:74:14:9C:14:3C:AB:DD:99:A9:BD:5B:28:4D:8B:3C:C9:D8

            X509v3 Subject Key Identifier: 
                2E:2D:B0:0A:44:4A:D3:87:C0:02:07:CE:97:7D:50:62:20:FD:0F:83
            X509v3 Key Usage: critical
                Digital Signature, Non Repudiation
            X509v3 Basic Constraints: critical
                CA:FALSE
            X509v3 Extended Key Usage: critical
                Time Stamping
            X509v3 CRL Distribution Points: 

                Full Name:
                  URI:http://crl.usertrust.com/UTN-USERFirst-Object.crl

            Authority Information Access: 
                OCSP - URI:http://ocsp.usertrust.com

    Signature Algorithm: sha1WithRSAEncryption
         0d:bb:ad:60:11:1b:b5:f0:0d:cc:e6:48:3a:7a:3e:0e:33:dc:
         1c:b9:ea:d6:20:fe:a3:4d:d0:cc:76:4e:e8:18:d8:79:df:d3:
         4f:9a:42:64:23:8a:29:72:8a:3a:6c:66:a6:3c:3a:17:a8:70:
         45:65:c6:73:c3:d0:ce:89:54:fb:ac:69:0f:58:b0:19:cb:86:
         9f:7e:b9:7e:eb:51:92:bf:9b:dd:eb:d1:65:f0:25:7b:88:7c:
         de:bd:a5:c8:b5:14:51:bc:c0:81:30:8a:85:38:7b:e6:79:fe:
         67:55:93:87:fe:4f:e8:8d:0e:ed:f3:72:92:b5:c2:89:80:6d:
         d1:59:e3:1d:0d:ea:b1:38:ee:03:9d:00:19:a5:ab:21:9b:79:
         c3:cc:c2:3e:68:7e:bd:c9:4d:69:4d:b4:64:51:fb:b2:28:74:
         e2:53:89:ce:9d:fa:ad:e2:db:ce:ab:7b:7e:06:44:74:fd:0a:
         a3:c9:b7:a7:30:cd:49:d2:92:64:f1:22:a6:b8:28:45:74:79:
         e9:a7:ce:3b:33:f9:83:50:94:7d:68:c0:1d:49:c7:60:78:7a:
         3c:64:26:d5:be:fa:0a:6d:e4:1e:e1:09:53:8f:a9:c5:23:ac:
         c7:9d:61:42:21:f0:2c:16:71:49:3b:10:af:2c:6f:1a:e6:31:
         f1:14:fd:6c
-----BEGIN CERTIFICATE-----
MIIElDCCA3ygAwIBAgIRAJ/qyBGw8WJHpfwg2AUjrOYwDQYJKoZIhvcNAQEFBQAw
gZUxCzAJBgNVBAYTAlVTMQswCQYDVQQIEwJVVDEXMBUGA1UEBxMOU2FsdCBMYWtl
IENpdHkxHjAcBgNVBAoTFVRoZSBVU0VSVFJVU1QgTmV0d29yazEhMB8GA1UECxMY
aHR0cDovL3d3dy51c2VydHJ1c3QuY29tMR0wGwYDVQQDExRVVE4tVVNFUkZpcnN0
LU9iamVjdDAeFw0xNTA1MDUwMDAwMDBaFw0xNTEyMzEyMzU5NTlaMH4xCzAJBgNV
BAYTAkdCMRswGQYDVQQIExJHcmVhdGVyIE1hbmNoZXN0ZXIxEDAOBgNVBAcTB1Nh
bGZvcmQxGjAYBgNVBAoTEUNPTU9ETyBDQSBMaW1pdGVkMSQwIgYDVQQDExtDT01P
RE8gVGltZSBTdGFtcGluZyBTaWduZXIwggEiMA0GCSqGSIb3DQEBAQUAA4IBDwAw
ggEKAoIBAQC8NaA2cCKBEcOyg7nTKMY2zSVrqXuyHPabUZzvNfTtCI5eOAj4dzwK
QuDzcNyj18r1TAvP/yKcCn5o1gmiKoR7pp20qcEz4u8fF0jKOs1G5sWqd73jd5r6
R1NAKFlDk/GkgervgLVPpwjOum68ynYMl2RZhiS7PYKQqFWxktOgpwWsn1MlCBBH
mc2Y3mjltFB4o68BzFlDWOR2bn6sx+KeH0+wRy3IDKNJJ4B1jLsGkWUPkJv0utGB
yFxq7BTpJQm/Ixb0lUZAQCG7g5b9hh96yA0QjqL4GQdYf5+9NwJg8qTpnUQ/MAXk
p3CZUZroF/FVyrJhiWVGp2ryWEZ+qqAHAgMBAAGjgfQwgfEwHwYDVR0jBBgwFoAU
2u1kdBScFDyr3ZmpvVsoTYs8ydgwHQYDVR0OBBYEFC4tsApEStOHwAIHzpd9UGIg
/Q+DMA4GA1UdDwEB/wQEAwIGwDAMBgNVHRMBAf8EAjAAMBYGA1UdJQEB/wQMMAoG
CCsGAQUFBwMIMEIGA1UdHwQ7MDkwN6A1oDOGMWh0dHA6Ly9jcmwudXNlcnRydXN0
LmNvbS9VVE4tVVNFUkZpcnN0LU9iamVjdC5jcmwwNQYIKwYBBQUHAQEEKTAnMCUG
CCsGAQUFBzABhhlodHRwOi8vb2NzcC51c2VydHJ1c3QuY29tMA0GCSqGSIb3DQEB
BQUAA4IBAQANu61gERu18A3M5kg6ej4OM9wcuerWIP6jTdDMdk7oGNh539NPmkJk
I4opcoo6bGamPDoXqHBFZcZzw9DOiVT7rGkPWLAZy4affrl+61GSv5vd69Fl8CV7
iHzevaXItRRRvMCBMIqFOHvmef5nVZOH/k/ojQ7t83KStcKJgG3RWeMdDeqxOO4D
nQAZpashm3nDzMI+aH69yU1pTbRkUfuyKHTiU4nOnfqt4tvOq3t+BkR0/Qqjyben
MM1J0pJk8SKmuChFdHnpp847M/mDUJR9aMAdScdgeHo8ZCbVvvoKbeQe4QlTj6nF
I6zHnWFCIfAsFnFJOxCvLG8a5jHxFP1s
-----END CERTIFICATE-----

Certificate:
    Data:
        Version: 3 (0x2)
        Serial Number: 8900640068991607154 (0x7b856cfc31da6172)
    Signature Algorithm: sha256WithRSAEncryption
        Issuer: C=TR, L=Ankara, O=E-Tu\xC4\x9Fra EBG Bili\xC5\x9Fim Teknolojileri ve Hizmetleri A.\xC5\x9E., OU=E-Tu\xC4\x9Fra Sertifikasyon Merkezi, CN=E-Tugra Organization Validated CA
        Validity
            Not Before: Dec  4 13:00:52 2014 GMT
            Not After : Dec  4 12:52:00 2015 GMT
        Subject: C=TR, L=\xC4\xB0stanbul, O=TEKNO B\xC4\xB0LG\xC4\xB0SAYAR YAZILIM H\xC4\xB0ZMETLER\xC4\xB0 L\xC4\xB0M\xC4\xB0TED \xC5\x9E\xC4\xB0RKET\xC4\xB0, CN=TEKNO B\xC4\xB0LG\xC4\xB0SAYAR YAZILIM H\xC4\xB0ZMETLER\xC4\xB0 L\xC4\xB0M\xC4\xB0TED \xC5\x9E\xC4\xB0RKET\xC4\xB0
        Subject Public Key Info:
            Public Key Algorithm: rsaEncryption
                Public-Key: (2048 bit)
                Modulus:
                    00:af:94:c7:b4:74:73:54:bc:30:e1:dc:46:6d:fb:
                    5b:ca:ca:58:7e:72:95:3c:a1:64:ca:3d:34:f3:19:
                    06:70:9b:49:07:c6:4e:84:49:74:69:ec:1b:76:dc:
                    70:a3:52:13:cd:65:53:6e:c7:78:e1:33:07:87:e4:
                    c8:2e:0a:32:d8:76:40:55:62:cf:a3:67:72:24:98:
                    fd:d4:a8:2a:3a:1d:83:61:24:3c:5e:4f:2a:58:01:
                    af:c6:e9:69:2a:71:79:fe:22:b6:e7:d9:27:d4:db:
                    fb:26:49:8a:d5:35:19:77:b1:eb:21:00:76:fa:8d:
                    b9:4c:af:dc:25:7a:d1:80:12:32:5c:8f:97:fb:f7:
                    e0:c9:c0:e4:51:c8:e9:c1:7c:b6:66:8a:95:59:3e:
                    13:16:b8:57:f7:f0:a0:4d:25:15:63:c0:94:c3:96:
                    39:d8:4d:1f:bb:59:e5:04:c6:3b:a7:20:96:98:1d:
                    49:47:5d:76:97:60:d2:c1:38:87:23:4d:95:97:b6:
                    2e:ef:a2:a2:f6:a2:57:30:be:0c:51:33:1a:0a:92:
                    23:77:c3:98:80:d5:3a:2a:9f:a7:ff:ad:0d:d3:1c:
                    1f:d4:85:65:55:e4:e3:3a:1e:d1:42:2f:28:51:42:
                    05:56:37:5d:83:54:2b:d1:36:8e:9c:e6:38:4c:87:
                    f9:51
                Exponent: 65537 (0x10001)
        X509v3 extensions:
            Authority Information Access: 
                CA Issuers - URI:http://www.e-tugra.com/crt/etugra_sslov_v2.crt
                OCSP - URI:http://ocsp.e-tugra.com/status/ocsp

            X509v3 Subject Key Identifier: 
                A3:35:88:EB:35:5D:F3:78:51:E5:2F:F5:EB:BF:24:76:33:4C:3D:20
            X509v3 Basic Constraints: 
                CA:FALSE
            X509v3 Authority Key Identifier: 
                keyid:B5:F7:D3:F8:27:29:59:8F:90:8B:6E:A3:7E:B3:DD:DA:CA:74:85:A9

            X509v3 Certificate Policies: 
                Policy: 2.16.792.3.0.4.1.1.3
                  CPS: http://www.e-tugra.com/cps

            X509v3 CRL Distribution Points: 

                Full Name:
                  URI:http://crl.e-tugra.com/etugra_sslov.crl

                Full Name:
                  URI:http://crl1.e-tugra.com/etugra_sslov.crl

            X509v3 Key Usage: critical
                Digital Signature
            X509v3 Extended Key Usage: 
                Code Signing
    Signature Algorithm: sha256WithRSAEncryption
         35:f7:ad:bf:69:87:5b:ee:9b:d2:cc:e1:ba:f6:3e:f2:36:12:
         8e:93:69:59:a4:07:7a:e5:92:b9:d3:ac:63:69:b2:5b:2f:e7:
         96:f3:f3:80:fc:a2:11:d9:bf:62:03:4d:80:d3:a0:a0:21:61:
         53:8b:6c:e3:63:7c:0d:21:a3:1b:57:16:38:97:46:ac:b1:4d:
         a1:4e:62:ad:52:a0:72:9d:53:7b:61:b5:d2:5c:48:02:d8:1c:
         55:28:20:05:17:16:ce:00:cb:02:93:01:92:31:2f:ff:bd:66:
         83:60:eb:85:8e:45:60:5b:74:56:a4:81:50:75:07:5f:7f:a5:
         f3:37:4a:da:02:21:74:62:19:46:1f:82:3a:41:17:ba:3c:d5:
         d5:26:94:c0:93:b5:63:9a:05:87:f8:a0:0a:ed:fe:e0:ca:ca:
         74:96:a9:32:a0:73:ed:91:23:2f:b4:8e:b9:9d:33:68:7d:f4:
         b4:19:da:95:de:6c:25:8d:c1:73:e6:19:17:15:ed:6c:83:38:
         21:45:b2:44:24:0e:e4:b5:3e:93:07:78:a0:52:15:36:89:66:
         8d:ec:64:d2:ff:aa:17:9a:d2:ca:81:dc:a8:1d:59:16:bf:f9:
         85:47:4a:a4:81:41:cb:c4:38:a9:ec:66:bc:91:71:96:64:1f:
         4c:95:31:a3
-----BEGIN CERTIFICATE-----
MIIFhzCCBG+gAwIBAgIIe4Vs/DHaYXIwDQYJKoZIhvcNAQELBQAwgbUxCzAJBgNV
BAYTAlRSMQ8wDQYDVQQHDAZBbmthcmExQDA+BgNVBAoMN0UtVHXEn3JhIEVCRyBC
aWxpxZ9pbSBUZWtub2xvamlsZXJpIHZlIEhpem1ldGxlcmkgQS7Fni4xJzAlBgNV
BAsMHkUtVHXEn3JhIFNlcnRpZmlrYXN5b24gTWVya2V6aTEqMCgGA1UEAwwhRS1U
dWdyYSBPcmdhbml6YXRpb24gVmFsaWRhdGVkIENBMB4XDTE0MTIwNDEzMDA1MloX
DTE1MTIwNDEyNTIwMFowga8xCzAJBgNVBAYTAlRSMRIwEAYDVQQHDAnEsHN0YW5i
dWwxRTBDBgNVBAoMPFRFS05PIELEsExHxLBTQVlBUiBZQVpJTElNIEjEsFpNRVRM
RVLEsCBMxLBNxLBURUQgxZ7EsFJLRVTEsDFFMEMGA1UEAww8VEVLTk8gQsSwTEfE
sFNBWUFSIFlBWklMSU0gSMSwWk1FVExFUsSwIEzEsE3EsFRFRCDFnsSwUktFVMSw
MIIBIjANBgkqhkiG9w0BAQEFAAOCAQ8AMIIBCgKCAQEAr5THtHRzVLww4dxGbftb
yspYfnKVPKFkyj008xkGcJtJB8ZOhEl0aewbdtxwo1ITzWVTbsd44TMHh+TILgoy
2HZAVWLPo2dyJJj91KgqOh2DYSQ8Xk8qWAGvxulpKnF5/iK259kn1Nv7JkmK1TUZ
d7HrIQB2+o25TK/cJXrRgBIyXI+X+/fgycDkUcjpwXy2ZoqVWT4TFrhX9/CgTSUV
Y8CUw5Y52E0fu1nlBMY7pyCWmB1JR112l2DSwTiHI02Vl7Yu76Ki9qJXML4MUTMa
CpIjd8OYgNU6Kp+n/60N0xwf1IVlVeTjOh7RQi8oUUIFVjddg1Qr0TaOnOY4TIf5
UQIDAQABo4IBnTCCAZkwewYIKwYBBQUHAQEEbzBtMDoGCCsGAQUFBzAChi5odHRw
Oi8vd3d3LmUtdHVncmEuY29tL2NydC9ldHVncmFfc3Nsb3ZfdjIuY3J0MC8GCCsG
AQUFBzABhiNodHRwOi8vb2NzcC5lLXR1Z3JhLmNvbS9zdGF0dXMvb2NzcDAdBgNV
HQ4EFgQUozWI6zVd83hR5S/1678kdjNMPSAwCQYDVR0TBAIwADAfBgNVHSMEGDAW
gBS199P4JylZj5CLbqN+s93aynSFqTBABgNVHSAEOTA3MDUGCWCGGAMABAEBAzAo
MCYGCCsGAQUFBwIBFhpodHRwOi8vd3d3LmUtdHVncmEuY29tL2NwczBoBgNVHR8E
YTBfMC2gK6AphidodHRwOi8vY3JsLmUtdHVncmEuY29tL2V0dWdyYV9zc2xvdi5j
cmwwLqAsoCqGKGh0dHA6Ly9jcmwxLmUtdHVncmEuY29tL2V0dWdyYV9zc2xvdi5j
cmwwDgYDVR0PAQH/BAQDAgeAMBMGA1UdJQQMMAoGCCsGAQUFBwMDMA0GCSqGSIb3
DQEBCwUAA4IBAQA1962/aYdb7pvSzOG69j7yNhKOk2lZpAd65ZK506xjabJbL+eW
8/OA/KIR2b9iA02A06CgIWFTi2zjY3wNIaMbVxY4l0assU2hTmKtUqBynVN7YbXS
XEgC2BxVKCAFFxbOAMsCkwGSMS//vWaDYOuFjkVgW3RWpIFQdQdff6XzN0raAiF0
YhlGH4I6QRe6PNXVJpTAk7VjmgWH+KAK7f7gysp0lqkyoHPtkSMvtI65nTNoffS0
GdqV3mwljcFz5hkXFe1sgzghRbJEJA7ktT6TB3igUhU2iWaN7GTS/6oXmtLKgdyo
HVkWv/mFR0qkgUHLxDip7Ga8kXGWZB9MlTGj
-----END CERTIFICATE-----

Certificate:
    Data:
        Version: 3 (0x2)
        Serial Number: 6977977018061191920 (0x60d6c12084607af0)
    Signature Algorithm: sha256WithRSAEncryption
        Issuer: C=TR, L=Ankara, O=E-Tu\xC4\x9Fra EBG Bili\xC5\x9Fim Teknolojileri ve Hizmetleri A.\xC5\x9E., OU=E-Tugra Sertifikasyon Merkezi, CN=E-Tugra Certification Authority
        Validity
            Not Before: Mar  5 12:42:31 2013 GMT
            Not After : Mar  3 12:09:48 2023 GMT
        Subject: C=TR, L=Ankara, O=E-Tu\xC4\x9Fra EBG Bili\xC5\x9Fim Teknolojileri ve Hizmetleri A.\xC5\x9E., OU=E-Tu\xC4\x9Fra Sertifikasyon Merkezi, CN=E-Tugra Organization Validated CA
        Subject Public Key Info:
            Public Key Algorithm: rsaEncryption
                Public-Key: (2048 bit)
                Modulus:
                    00:ca:69:ea:41:72:8f:84:23:74:69:72:ee:c8:69:
                    ad:33:5c:18:79:b2:c6:5e:b1:63:7f:08:c9:c5:53:
                    5e:17:81:c0:0f:37:0c:09:c7:0c:1a:af:90:40:60:
                    f2:70:00:38:1d:e5:e0:10:fb:c4:96:ac:42:4d:3c:
                    8b:28:82:fd:d8:34:5c:6f:3f:06:78:39:94:91:a7:
                    59:f4:5d:17:76:ce:4d:3b:02:eb:fc:87:96:58:b2:
                    de:5d:86:18:05:14:36:05:4c:46:87:d7:6c:57:27:
                    e1:97:45:73:96:e3:1a:c7:25:83:46:f8:9a:d4:cf:
                    60:d5:4b:30:a0:9c:3f:9b:6f:57:41:57:c8:51:f9:
                    6a:e2:79:8e:76:70:c3:98:cb:3c:5c:32:32:66:6b:
                    4e:f8:d7:91:f7:22:45:9a:1e:48:5c:14:dd:2b:13:
                    cd:eb:07:77:f7:e7:4e:71:05:3f:8d:b9:30:55:a6:
                    2a:b4:e6:74:94:09:79:25:b1:fd:03:ed:af:73:67:
                    c9:e7:57:c5:ef:d6:5e:3c:e3:14:6d:87:67:a5:78:
                    9b:0c:0a:ac:5f:0b:de:c6:6e:67:a5:82:74:42:52:
                    6f:0e:7e:46:be:68:66:04:6d:ac:cd:5c:0c:74:4a:
                    81:95:e9:ff:7b:21:d1:03:d7:5b:bc:9d:23:69:29:
                    dc:05
                Exponent: 65537 (0x10001)
        X509v3 extensions:
            Authority Information Access: 
                CA Issuers - URI:http://www.e-tugra.com/crt/etugra_root.crt
                OCSP - URI:http://ocsp.e-tugra.com/status/ocsp

            X509v3 Subject Key Identifier: 
                B5:F7:D3:F8:27:29:59:8F:90:8B:6E:A3:7E:B3:DD:DA:CA:74:85:A9
            X509v3 Basic Constraints: critical
                CA:TRUE, pathlen:1
            X509v3 Authority Key Identifier: 
                keyid:2E:E3:DB:B2:49:D0:9C:54:79:5C:FA:27:2A:FE:CC:4E:D2:E8:4E:54

            X509v3 Certificate Policies: 
                Policy: 2.16.792.3.0.4.1.1.3
                  CPS: http://www.e-tugra.com/cps

            X509v3 CRL Distribution Points: 

                Full Name:
                  URI:http://crl.e-tugra.com/etugra_root.crl

                Full Name:
                  URI:http://crl1.e-tugra.com/etugra_root.crl

            X509v3 Key Usage: critical
                Certificate Sign, CRL Sign
    Signature Algorithm: sha256WithRSAEncryption
         38:2a:87:a3:e8:71:37:7f:4c:d9:ee:09:8e:ed:73:e3:e0:98:
         c9:0d:c3:32:6f:30:bc:a9:d3:85:28:58:bc:71:b2:73:8b:22:
         6d:fa:67:c8:8c:de:28:40:2d:fc:44:c8:a6:aa:fc:d2:7e:20:
         86:57:36:34:50:18:b8:e3:8e:12:e0:bc:83:8e:8a:38:a4:9c:
         8c:b0:cd:67:b5:48:d3:53:c9:8c:aa:1e:b3:48:09:54:fa:d6:
         b1:8c:1b:fd:23:c4:9d:c9:d1:db:a8:44:85:18:2e:c7:6b:d4:
         e6:8d:20:10:f7:3c:22:01:bb:d6:67:d4:7c:03:ab:51:c1:de:
         f0:17:15:96:06:1b:6e:86:17:e9:f4:80:fb:db:c4:3d:51:a4:
         71:7b:57:d9:fa:ae:87:2a:89:cf:67:e8:5c:2f:b0:8f:3d:87:
         95:09:24:1e:56:d4:28:1c:b6:15:2e:ed:56:3a:45:d4:24:a7:
         f2:07:86:b8:00:4b:c2:75:a4:d8:6b:38:de:d9:5c:7c:97:0c:
         95:92:33:a3:32:73:a3:33:b3:b3:82:18:54:08:ef:22:1f:4e:
         00:7c:67:76:57:33:53:d2:82:86:54:d6:aa:c7:bf:cd:98:13:
         d4:cd:62:e4:8b:28:b8:9f:7d:17:2b:6d:29:47:ab:84:d0:45:
         fc:a1:49:02:ee:cc:f0:a5:6f:a5:db:bf:d3:87:b9:05:04:97:
         3b:05:dd:2d:1d:06:6b:9b:44:20:a7:f2:80:c4:39:16:13:0e:
         57:b2:9e:a4:92:13:d9:f1:e6:a5:55:18:14:33:1d:04:a9:73:
         23:d8:37:e9:96:57:ad:3d:33:88:55:e7:38:b6:05:32:61:d2:
         9a:2b:e5:cf:44:9d:ba:6e:6f:f6:14:99:4e:f6:c1:78:19:e0:
         14:c2:8c:ee:da:41:b0:5d:ba:3d:9c:e8:61:72:92:9e:4e:a2:
         e7:c6:67:d6:e3:ec:6b:fe:3c:28:03:bc:8b:3f:6e:75:eb:c9:
         e9:7f:51:64:20:e8:b1:a3:c5:8d:a7:53:a8:07:a1:86:7c:fe:
         b6:f4:fb:b1:b0:45:3d:3c:b1:94:34:e6:53:de:da:18:36:51:
         dd:84:a9:c6:c8:11:04:84:69:ce:28:ea:fb:a1:32:b7:95:1c:
         07:7f:35:fb:eb:68:b5:1b:74:b9:1d:8f:9a:2c:92:b3:7b:e5:
         1b:ac:af:ff:9f:ff:dc:5f:00:7e:1b:e7:48:79:de:e0:e8:70:
         c1:bf:5e:96:d3:fe:52:29:1b:08:17:fd:c7:c0:f0:cb:32:70:
         09:06:c7:f1:a2:70:10:0d:53:58:d4:3e:1d:9b:cc:af:ff:89:
         83:63:62:55:20:01:f2:3e
-----BEGIN CERTIFICATE-----
MIIGeDCCBGCgAwIBAgIIYNbBIIRgevAwDQYJKoZIhvcNAQELBQAwgbIxCzAJBgNV
BAYTAlRSMQ8wDQYDVQQHDAZBbmthcmExQDA+BgNVBAoMN0UtVHXEn3JhIEVCRyBC
aWxpxZ9pbSBUZWtub2xvamlsZXJpIHZlIEhpem1ldGxlcmkgQS7Fni4xJjAkBgNV
BAsMHUUtVHVncmEgU2VydGlmaWthc3lvbiBNZXJrZXppMSgwJgYDVQQDDB9FLVR1
Z3JhIENlcnRpZmljYXRpb24gQXV0aG9yaXR5MB4XDTEzMDMwNTEyNDIzMVoXDTIz
MDMwMzEyMDk0OFowgbUxCzAJBgNVBAYTAlRSMQ8wDQYDVQQHDAZBbmthcmExQDA+
BgNVBAoMN0UtVHXEn3JhIEVCRyBCaWxpxZ9pbSBUZWtub2xvamlsZXJpIHZlIEhp
em1ldGxlcmkgQS7Fni4xJzAlBgNVBAsMHkUtVHXEn3JhIFNlcnRpZmlrYXN5b24g
TWVya2V6aTEqMCgGA1UEAwwhRS1UdWdyYSBPcmdhbml6YXRpb24gVmFsaWRhdGVk
IENBMIIBIjANBgkqhkiG9w0BAQEFAAOCAQ8AMIIBCgKCAQEAymnqQXKPhCN0aXLu
yGmtM1wYebLGXrFjfwjJxVNeF4HADzcMCccMGq+QQGDycAA4HeXgEPvElqxCTTyL
KIL92DRcbz8GeDmUkadZ9F0Xds5NOwLr/IeWWLLeXYYYBRQ2BUxGh9dsVyfhl0Vz
luMaxyWDRvia1M9g1UswoJw/m29XQVfIUflq4nmOdnDDmMs8XDIyZmtO+NeR9yJF
mh5IXBTdKxPN6wd39+dOcQU/jbkwVaYqtOZ0lAl5JbH9A+2vc2fJ51fF79ZePOMU
bYdnpXibDAqsXwvexm5npYJ0QlJvDn5GvmhmBG2szVwMdEqBlen/eyHRA9dbvJ0j
aSncBQIDAQABo4IBizCCAYcwdwYIKwYBBQUHAQEEazBpMDYGCCsGAQUFBzAChipo
dHRwOi8vd3d3LmUtdHVncmEuY29tL2NydC9ldHVncmFfcm9vdC5jcnQwLwYIKwYB
BQUHMAGGI2h0dHA6Ly9vY3NwLmUtdHVncmEuY29tL3N0YXR1cy9vY3NwMB0GA1Ud
DgQWBBS199P4JylZj5CLbqN+s93aynSFqTASBgNVHRMBAf8ECDAGAQH/AgEBMB8G
A1UdIwQYMBaAFC7j27JJ0JxUeVz6Jyr+zE7S6E5UMEAGA1UdIAQ5MDcwNQYJYIYY
AwAEAQEDMCgwJgYIKwYBBQUHAgEWGmh0dHA6Ly93d3cuZS10dWdyYS5jb20vY3Bz
MGYGA1UdHwRfMF0wLKAqoCiGJmh0dHA6Ly9jcmwuZS10dWdyYS5jb20vZXR1Z3Jh
X3Jvb3QuY3JsMC2gK6AphidodHRwOi8vY3JsMS5lLXR1Z3JhLmNvbS9ldHVncmFf
cm9vdC5jcmwwDgYDVR0PAQH/BAQDAgEGMA0GCSqGSIb3DQEBCwUAA4ICAQA4Koej
6HE3f0zZ7gmO7XPj4JjJDcMybzC8qdOFKFi8cbJziyJt+mfIjN4oQC38RMimqvzS
fiCGVzY0UBi4444S4LyDjoo4pJyMsM1ntUjTU8mMqh6zSAlU+taxjBv9I8SdydHb
qESFGC7Ha9TmjSAQ9zwiAbvWZ9R8A6tRwd7wFxWWBhtuhhfp9ID728Q9UaRxe1fZ
+q6HKonPZ+hcL7CPPYeVCSQeVtQoHLYVLu1WOkXUJKfyB4a4AEvCdaTYazje2Vx8
lwyVkjOjMnOjM7OzghhUCO8iH04AfGd2VzNT0oKGVNaqx7/NmBPUzWLkiyi4n30X
K20pR6uE0EX8oUkC7szwpW+l27/Th7kFBJc7Bd0tHQZrm0Qgp/KAxDkWEw5Xsp6k
khPZ8ealVRgUMx0EqXMj2DfplletPTOIVec4tgUyYdKaK+XPRJ26bm/2FJlO9sF4
GeAUwozu2kGwXbo9nOhhcpKeTqLnxmfW4+xr/jwoA7yLP25168npf1FkIOixo8WN
p1OoB6GGfP629PuxsEU9PLGUNOZT3toYNlHdhKnGyBEEhGnOKOr7oTK3lRwHfzX7
62i1G3S5HY+aLJKze+UbrK//n//cXwB+G+dIed7g6HDBv16W0/5SKRsIF/3HwPDL
MnAJBsfxonAQDVNY1D4dm8yv/4mDY2JVIAHyPg==
-----END CERTIFICATE-----

