Certificate:
    Data:
        Version: 3 (0x2)
        Serial Number:
            7e:93:eb:fb:7c:c6:4e:59:ea:4b:9a:77:d4:06:fc:3b
    Signature Algorithm: sha1WithRSAEncryption
        Issuer: C=ZA, ST=Western Cape, L=Durbanville, O=Thawte, OU=Thawte Certification, CN=Thawte Timestamping CA
        Validity
            Not Before: Dec 21 00:00:00 2012 GMT
            Not After : Dec 30 23:59:59 2020 GMT
        Subject: C=US, O=Symantec Corporation, CN=Symantec Time Stamping Services CA - G2
        Subject Public Key Info:
            Public Key Algorithm: rsaEncryption
                Public-Key: (2048 bit)
                Modulus:
                    00:b1:ac:b3:49:54:4b:97:1c:12:0a:d8:25:79:91:
                    22:57:2a:6f:dc:b8:26:c4:43:73:6b:c2:bf:2e:50:
                    5a:fb:14:c2:76:8e:43:01:25:43:b4:a1:e2:45:f4:
                    e8:b7:7b:c3:74:cc:22:d7:b4:94:00:02:f7:4d:ed:
                    bf:b4:b7:44:24:6b:cd:5f:45:3b:d1:44:ce:43:12:
                    73:17:82:8b:69:b4:2b:cb:99:1e:ac:72:1b:26:4d:
                    71:1f:b1:31:dd:fb:51:61:02:53:a6:aa:f5:49:2c:
                    05:78:45:a5:2f:89:ce:e7:99:e7:fe:8c:e2:57:3f:
                    3d:c6:92:dc:4a:f8:7b:33:e4:79:0a:fb:f0:75:88:
                    41:9c:ff:c5:03:51:99:aa:d7:6c:9f:93:69:87:65:
                    29:83:85:c2:60:14:c4:c8:c9:3b:14:da:c0:81:f0:
                    1f:0d:74:de:92:22:ab:ca:f7:fb:74:7c:27:e6:f7:
                    4a:1b:7f:a7:c3:9e:2d:ae:8a:ea:a6:e6:aa:27:16:
                    7d:61:f7:98:71:11:bc:e2:50:a1:4b:e5:5d:fa:e5:
                    0e:a7:2c:9f:aa:65:20:d3:d8:96:e8:c8:7c:a5:4e:
                    48:44:ff:19:e2:44:07:92:0b:d7:68:84:80:5d:6a:
                    78:64:45:cd:60:46:7e:54:c1:13:7c:c5:79:f1:c9:
                    c1:71
                Exponent: 65537 (0x10001)
        X509v3 extensions:
            X509v3 Subject Key Identifier: 
                5F:9A:F5:6E:5C:CC:CC:74:9A:D4:DD:7D:EF:3F:DB:EC:4C:80:2E:DD
            Authority Information Access: 
                OCSP - URI:http://ocsp.thawte.com

            X509v3 Basic Constraints: critical
                CA:TRUE, pathlen:0
            X509v3 CRL Distribution Points: 

                Full Name:
                  URI:http://crl.thawte.com/ThawteTimestampingCA.crl

            X509v3 Extended Key Usage: 
                Time Stamping
            X509v3 Key Usage: critical
                Certificate Sign, CRL Sign
            X509v3 Subject Alternative Name: 
                DirName:/CN=TimeStamp-2048-1
    Signature Algorithm: sha1WithRSAEncryption
         03:09:9b:8f:79:ef:7f:59:30:aa:ef:68:b5:fa:e3:09:1d:bb:
         4f:82:06:5d:37:5f:a6:52:9f:16:8d:ea:1c:92:09:44:6e:f5:
         6d:eb:58:7c:30:e8:f9:69:8d:23:73:0b:12:6f:47:a9:ae:39:
         11:f8:2a:b1:9b:b0:1a:c3:8e:eb:59:96:00:ad:ce:0c:4d:b2:
         d0:31:a6:08:5c:2a:7a:fc:e2:7a:1d:57:4c:a8:65:18:e9:79:
         40:62:25:96:6e:c7:c7:37:6a:83:21:08:8e:41:ea:dd:d9:57:
         3f:1d:77:49:87:2a:16:06:5e:a6:38:6a:22:12:a3:51:19:83:
         7e:b6
-----BEGIN CERTIFICATE-----
MIID7jCCA1egAwIBAgIQfpPr+3zGTlnqS5p31Ab8OzANBgkqhkiG9w0BAQUFADCB
izELMAkGA1UEBhMCWkExFTATBgNVBAgTDFdlc3Rlcm4gQ2FwZTEUMBIGA1UEBxML
RHVyYmFudmlsbGUxDzANBgNVBAoTBlRoYXd0ZTEdMBsGA1UECxMUVGhhd3RlIENl
cnRpZmljYXRpb24xHzAdBgNVBAMTFlRoYXd0ZSBUaW1lc3RhbXBpbmcgQ0EwHhcN
MTIxMjIxMDAwMDAwWhcNMjAxMjMwMjM1OTU5WjBeMQswCQYDVQQGEwJVUzEdMBsG
A1UEChMUU3ltYW50ZWMgQ29ycG9yYXRpb24xMDAuBgNVBAMTJ1N5bWFudGVjIFRp
bWUgU3RhbXBpbmcgU2VydmljZXMgQ0EgLSBHMjCCASIwDQYJKoZIhvcNAQEBBQAD
ggEPADCCAQoCggEBALGss0lUS5ccEgrYJXmRIlcqb9y4JsRDc2vCvy5QWvsUwnaO
QwElQ7Sh4kX06Ld7w3TMIte0lAAC903tv7S3RCRrzV9FO9FEzkMScxeCi2m0K8uZ
HqxyGyZNcR+xMd37UWECU6aq9UksBXhFpS+JzueZ5/6M4lc/PcaS3Er4ezPkeQr7
8HWIQZz/xQNRmarXbJ+TaYdlKYOFwmAUxMjJOxTawIHwHw103pIiq8r3+3R8J+b3
Sht/p8OeLa6K6qbmqicWfWH3mHERvOJQoUvlXfrlDqcsn6plINPYlujIfKVOSET/
GeJEB5IL12iEgF1qeGRFzWBGflTBE3zFefHJwXECAwEAAaOB+jCB9zAdBgNVHQ4E
FgQUX5r1blzMzHSa1N197z/b7EyALt0wMgYIKwYBBQUHAQEEJjAkMCIGCCsGAQUF
BzABhhZodHRwOi8vb2NzcC50aGF3dGUuY29tMBIGA1UdEwEB/wQIMAYBAf8CAQAw
PwYDVR0fBDgwNjA0oDKgMIYuaHR0cDovL2NybC50aGF3dGUuY29tL1RoYXd0ZVRp
bWVzdGFtcGluZ0NBLmNybDATBgNVHSUEDDAKBggrBgEFBQcDCDAOBgNVHQ8BAf8E
BAMCAQYwKAYDVR0RBCEwH6QdMBsxGTAXBgNVBAMTEFRpbWVTdGFtcC0yMDQ4LTEw
DQYJKoZIhvcNAQEFBQADgYEAAwmbj3nvf1kwqu9otfrjCR27T4IGXTdfplKfFo3q
HJIJRG71betYfDDo+WmNI3MLEm9Hqa45EfgqsZuwGsOO61mWAK3ODE2y0DGmCFwq
evzieh1XTKhlGOl5QGIllm7HxzdqgyEIjkHq3dlXPx13SYcqFgZepjhqIhKjURmD
frY=
-----END CERTIFICATE-----

Certificate:
    Data:
        Version: 3 (0x2)
        Serial Number:
            0e:cf:f4:38:c8:fe:bf:35:6e:04:d8:6a:98:1b:1a:50
    Signature Algorithm: sha1WithRSAEncryption
        Issuer: C=US, O=Symantec Corporation, CN=Symantec Time Stamping Services CA - G2
        Validity
            Not Before: Oct 18 00:00:00 2012 GMT
            Not After : Dec 29 23:59:59 2020 GMT
        Subject: C=US, O=Symantec Corporation, CN=Symantec Time Stamping Services Signer - G4
        Subject Public Key Info:
            Public Key Algorithm: rsaEncryption
                Public-Key: (2048 bit)
                Modulus:
                    00:a2:63:0b:39:44:b8:bb:23:a7:44:49:bb:0e:ff:
                    a1:f0:61:0a:53:93:b0:98:db:ad:2c:0f:4a:c5:6e:
                    ff:86:3c:53:55:0f:15:ce:04:3f:2b:fd:a9:96:96:
                    d9:be:61:79:0b:5b:c9:4c:86:76:e5:e0:43:4b:22:
                    95:ee:c2:2b:43:c1:9f:d8:68:b4:8e:40:4f:ee:85:
                    38:b9:11:c5:23:f2:64:58:f0:15:32:6f:4e:57:a1:
                    ae:88:a4:02:d7:2a:1e:cd:4b:e1:dd:63:d5:17:89:
                    32:5b:b0:5e:99:5a:a8:9d:28:50:0e:17:ee:96:db:
                    61:3b:45:51:1d:cf:12:56:0b:92:47:fc:ab:ae:f6:
                    66:3d:47:ac:70:72:e7:92:e7:5f:cd:10:b9:c4:83:
                    64:94:19:bd:25:80:e1:e8:d2:22:a5:d0:ba:02:7a:
                    a1:77:93:5b:65:c3:ee:17:74:bc:41:86:2a:dc:08:
                    4c:8c:92:8c:91:2d:9e:77:44:1f:68:d6:a8:74:77:
                    db:0e:5b:32:8b:56:8b:33:bd:d9:63:c8:49:9d:3a:
                    c5:c5:ea:33:0b:d2:f1:a3:1b:f4:8b:be:d9:b3:57:
                    8b:3b:de:04:a7:7a:22:b2:24:ae:2e:c7:70:c5:be:
                    4e:83:26:08:fb:0b:bd:a9:4f:99:08:e1:10:28:72:
                    aa:cd
                Exponent: 65537 (0x10001)
        X509v3 extensions:
            X509v3 Basic Constraints: critical
                CA:FALSE
            X509v3 Extended Key Usage: critical
                Time Stamping
            X509v3 Key Usage: critical
                Digital Signature
            Authority Information Access: 
                OCSP - URI:http://ts-ocsp.ws.symantec.com
                CA Issuers - URI:http://ts-aia.ws.symantec.com/tss-ca-g2.cer

            X509v3 CRL Distribution Points: 

                Full Name:
                  URI:http://ts-crl.ws.symantec.com/tss-ca-g2.crl

            X509v3 Subject Alternative Name: 
                DirName:/CN=TimeStamp-2048-2
            X509v3 Subject Key Identifier: 
                46:C6:69:A3:0E:4A:14:1E:D5:4C:DA:52:63:17:3F:5E:36:BC:0D:E6
            X509v3 Authority Key Identifier: 
                keyid:5F:9A:F5:6E:5C:CC:CC:74:9A:D4:DD:7D:EF:3F:DB:EC:4C:80:2E:DD

    Signature Algorithm: sha1WithRSAEncryption
         78:3b:b4:91:2a:00:4c:f0:8f:62:30:37:78:a3:84:27:07:6f:
         18:b2:de:25:dc:a0:d4:94:03:aa:86:4e:25:9f:9a:40:03:1c:
         dd:ce:e3:79:cb:21:68:06:da:b6:32:b4:6d:bf:f4:2c:26:63:
         33:e4:49:64:6d:0d:e6:c3:67:0e:f7:05:a4:35:6c:7c:89:16:
         c6:e9:b2:df:b2:e9:dd:20:c6:71:0f:cd:95:74:dc:b6:5c:de:
         bd:37:1f:43:78:e6:78:b5:cd:28:04:20:a3:aa:f1:4b:c4:88:
         29:91:0e:80:d1:11:fc:dd:5c:76:6e:4f:5e:0e:45:46:41:6e:
         0d:b0:ea:38:9a:b1:3a:da:09:71:10:fc:1c:79:b4:80:7b:ac:
         69:f4:fd:9c:b6:0c:16:2b:f1:7f:5b:09:3d:9b:5b:e2:16:ca:
         13:81:6d:00:2e:38:0d:a8:29:8f:2c:e1:b2:f4:5a:a9:01:af:
         15:9c:2c:2f:49:1b:db:22:bb:c3:fe:78:94:51:c3:86:b1:82:
         88:5d:f0:3d:b4:51:a1:79:33:2b:2e:7b:b9:dc:20:09:13:71:
         eb:6a:19:5b:cf:e8:a5:30:57:2c:89:49:3f:b9:cf:7f:c9:bf:
         3e:22:68:63:53:9a:bd:69:74:ac:c5:1d:3c:7f:92:e0:c3:bc:
         1c:d8:04:75
-----BEGIN CERTIFICATE-----
MIIEozCCA4ugAwIBAgIQDs/0OMj+vzVuBNhqmBsaUDANBgkqhkiG9w0BAQUFADBe
MQswCQYDVQQGEwJVUzEdMBsGA1UEChMUU3ltYW50ZWMgQ29ycG9yYXRpb24xMDAu
BgNVBAMTJ1N5bWFudGVjIFRpbWUgU3RhbXBpbmcgU2VydmljZXMgQ0EgLSBHMjAe
Fw0xMjEwMTgwMDAwMDBaFw0yMDEyMjkyMzU5NTlaMGIxCzAJBgNVBAYTAlVTMR0w
GwYDVQQKExRTeW1hbnRlYyBDb3Jwb3JhdGlvbjE0MDIGA1UEAxMrU3ltYW50ZWMg
VGltZSBTdGFtcGluZyBTZXJ2aWNlcyBTaWduZXIgLSBHNDCCASIwDQYJKoZIhvcN
AQEBBQADggEPADCCAQoCggEBAKJjCzlEuLsjp0RJuw7/ofBhClOTsJjbrSwPSsVu
/4Y8U1UPFc4EPyv9qZaW2b5heQtbyUyGduXgQ0sile7CK0PBn9hotI5AT+6FOLkR
xSPyZFjwFTJvTlehroikAtcqHs1L4d1j1ReJMluwXplaqJ0oUA4X7pbbYTtFUR3P
ElYLkkf8q672Zj1HrHBy55LnX80QucSDZJQZvSWA4ejSIqXQugJ6oXeTW2XD7hd0
vEGGKtwITIySjJEtnndEH2jWqHR32w5bMotWizO92WPISZ06xcXqMwvS8aMb9Iu+
2bNXizveBKd6IrIkri7HcMW+ToMmCPsLvalPmQjhEChyqs0CAwEAAaOCAVcwggFT
MAwGA1UdEwEB/wQCMAAwFgYDVR0lAQH/BAwwCgYIKwYBBQUHAwgwDgYDVR0PAQH/
BAQDAgeAMHMGCCsGAQUFBwEBBGcwZTAqBggrBgEFBQcwAYYeaHR0cDovL3RzLW9j
c3Aud3Muc3ltYW50ZWMuY29tMDcGCCsGAQUFBzAChitodHRwOi8vdHMtYWlhLndz
LnN5bWFudGVjLmNvbS90c3MtY2EtZzIuY2VyMDwGA1UdHwQ1MDMwMaAvoC2GK2h0
dHA6Ly90cy1jcmwud3Muc3ltYW50ZWMuY29tL3Rzcy1jYS1nMi5jcmwwKAYDVR0R
BCEwH6QdMBsxGTAXBgNVBAMTEFRpbWVTdGFtcC0yMDQ4LTIwHQYDVR0OBBYEFEbG
aaMOShQe1UzaUmMXP142vA3mMB8GA1UdIwQYMBaAFF+a9W5czMx0mtTdfe8/2+xM
gC7dMA0GCSqGSIb3DQEBBQUAA4IBAQB4O7SRKgBM8I9iMDd4o4QnB28Yst4l3KDU
lAOqhk4ln5pAAxzdzuN5yyFoBtq2MrRtv/QsJmMz5ElkbQ3mw2cO9wWkNWx8iRbG
6bLfsundIMZxD82VdNy2XN69Nx9DeOZ4tc0oBCCjqvFLxIgpkQ6A0RH83Vx2bk9e
DkVGQW4NsOo4mrE62glxEPwcebSAe6xp9P2ctgwWK/F/Wwk9m1viFsoTgW0ALjgN
qCmPLOGy9FqpAa8VnCwvSRvbIrvD/niUUcOGsYKIXfA9tFGheTMrLnu53CAJE3Hr
ahlbz+ilMFcsiUk/uc9/yb8+ImhjU5q9aXSsxR08f5Lgw7wc2AR1
-----END CERTIFICATE-----

Certificate:
    Data:
        Version: 3 (0x2)
        Serial Number:
            21:d9:59:8e:f3:6e:07:f0:66:24:6d:a0:ef:e6:64:95
    Signature Algorithm: sha256WithRSAEncryption
        Issuer: C=CN, O=WoSign CA Limited, CN=WoSign Class 3 Code Signing CA G2
        Validity
            Not Before: Dec  8 08:32:09 2015 GMT
            Not After : Dec  8 08:32:09 2016 GMT
        Subject: C=CN, ST=Henan, L=Zhengzhou, O=Zhengzhou Mingzhu Culture Communication Co.,Ltd., CN=Zhengzhou Mingzhu Culture Communication Co.,Ltd.
        Subject Public Key Info:
            Public Key Algorithm: rsaEncryption
                Public-Key: (2048 bit)
                Modulus:
                    00:b3:63:5c:3f:fe:a8:64:07:a6:e1:b6:cb:3c:15:
                    85:10:1d:ad:27:69:c7:dc:aa:68:1e:b5:f0:98:10:
                    29:c1:7c:3c:fd:c3:26:3e:16:fa:4b:27:b6:55:2d:
                    f3:fb:99:3a:8d:de:5d:ec:f7:f6:73:05:57:3a:79:
                    dc:7d:c6:2b:4a:37:7b:03:3e:38:d8:18:66:95:c1:
                    66:d1:d5:dd:62:b8:6e:9c:d3:6a:c1:9b:2c:6b:a3:
                    57:57:ef:8d:e0:cb:39:c4:6a:7c:ad:5c:f2:35:5b:
                    cb:2d:3c:67:26:65:32:cc:d8:97:e6:16:f0:f6:84:
                    ae:19:96:92:dd:8f:b2:bd:71:4c:ba:a3:44:05:19:
                    5f:73:32:28:89:29:2c:b8:d2:b7:43:a4:2b:e3:98:
                    a0:21:50:ce:82:49:1f:16:f9:d6:b4:0a:8e:6a:8c:
                    dd:ac:87:5f:95:f6:6c:3e:82:cd:f0:7b:20:d8:e8:
                    43:d0:ed:cd:cc:a1:cb:af:75:9d:d3:9a:66:a1:8a:
                    94:f3:05:ae:ff:b8:cb:42:04:80:26:c5:fb:ce:f2:
                    51:08:d1:a2:c4:b8:a0:bd:41:80:54:10:bc:23:1c:
                    63:a2:cd:31:54:98:28:77:5e:ee:ca:22:29:91:d8:
                    c3:d5:6f:7a:22:90:30:6f:a1:58:d6:9d:9d:ab:b6:
                    5c:13
                Exponent: 65537 (0x10001)
        X509v3 extensions:
            X509v3 Key Usage: critical
                Digital Signature
            X509v3 Extended Key Usage: 
                Code Signing
            X509v3 Basic Constraints: 
                CA:FALSE
            X509v3 Subject Key Identifier: 
                F6:64:8D:92:1F:99:00:5C:B5:0B:D5:7C:BA:97:7F:E7:62:E0:94:61
            X509v3 Authority Key Identifier: 
                keyid:AE:94:18:AE:18:3B:ED:FC:76:EE:3A:95:55:73:F8:F4:B8:84:2E:01

            Authority Information Access: 
                OCSP - URI:http://ocsp1.wosign.com/ca6/code3
                CA Issuers - URI:http://aia1.wosign.com/ca6.code3.cer

            X509v3 CRL Distribution Points: 

                Full Name:
                  URI:http://crls1.wosign.com/ca6-code3.crl

            X509v3 Certificate Policies: 
                Policy: 2.23.140.1.4.1
                Policy: 1.3.6.1.4.1.36305.6.3.3.1
                  CPS: http://www.wosign.com/policy/

    Signature Algorithm: sha256WithRSAEncryption
         1e:08:54:5c:df:1d:24:75:10:e6:9a:19:ce:77:e8:cb:1d:23:
         2c:d9:c5:d1:a5:d1:ca:75:af:75:67:f3:a5:67:4c:14:49:ee:
         c7:97:a0:5a:16:3a:0f:0a:a0:8b:80:ea:84:5b:6b:2c:07:37:
         63:b7:7d:0c:6a:2f:89:52:ea:3d:5b:fe:fe:af:b5:fe:74:b1:
         63:cf:b6:96:37:dc:c1:45:cd:99:d5:97:1d:47:15:63:c3:30:
         80:51:28:3a:4c:9a:d3:33:05:cc:d9:29:32:9a:70:f8:68:a3:
         9f:b0:11:b0:a0:1f:21:3f:24:0d:45:cb:25:8b:82:97:0e:5d:
         ca:6b:c9:9f:5a:7b:27:49:02:e2:d0:bf:4d:d7:32:9d:91:5a:
         ac:22:ab:e0:32:8c:9a:17:b1:27:1a:67:67:8e:00:e0:9b:73:
         b2:b0:28:f4:4a:16:9b:07:80:20:f6:d1:0b:56:c5:de:3a:c6:
         4f:a1:a5:24:71:d8:29:91:6a:8f:d5:93:41:8e:8a:f7:d4:36:
         16:8b:82:72:34:f5:60:5e:bc:54:5f:a3:e9:75:6b:c7:1f:60:
         3b:26:9a:75:3f:00:e7:cb:d9:dd:b2:e1:5e:65:8e:a2:a2:2b:
         ed:7b:58:fe:a1:5f:3b:2f:30:2b:c8:ec:43:63:c1:7e:46:e6:
         2e:31:29:8f
-----BEGIN CERTIFICATE-----
MIIE+DCCA+CgAwIBAgIQIdlZjvNuB/BmJG2g7+ZklTANBgkqhkiG9w0BAQsFADBV
MQswCQYDVQQGEwJDTjEaMBgGA1UEChMRV29TaWduIENBIExpbWl0ZWQxKjAoBgNV
BAMTIVdvU2lnbiBDbGFzcyAzIENvZGUgU2lnbmluZyBDQSBHMjAeFw0xNTEyMDgw
ODMyMDlaFw0xNjEyMDgwODMyMDlaMIGnMQswCQYDVQQGEwJDTjEOMAwGA1UECAwF
SGVuYW4xEjAQBgNVBAcMCVpoZW5nemhvdTE5MDcGA1UECgwwWmhlbmd6aG91IE1p
bmd6aHUgQ3VsdHVyZSBDb21tdW5pY2F0aW9uIENvLixMdGQuMTkwNwYDVQQDDDBa
aGVuZ3pob3UgTWluZ3podSBDdWx0dXJlIENvbW11bmljYXRpb24gQ28uLEx0ZC4w
ggEiMA0GCSqGSIb3DQEBAQUAA4IBDwAwggEKAoIBAQCzY1w//qhkB6bhtss8FYUQ
Ha0nacfcqmgetfCYECnBfDz9wyY+FvpLJ7ZVLfP7mTqN3l3s9/ZzBVc6edx9xitK
N3sDPjjYGGaVwWbR1d1iuG6c02rBmyxro1dX743gyznEanytXPI1W8stPGcmZTLM
2JfmFvD2hK4ZlpLdj7K9cUy6o0QFGV9zMiiJKSy40rdDpCvjmKAhUM6CSR8W+da0
Co5qjN2sh1+V9mw+gs3weyDY6EPQ7c3MocuvdZ3TmmahipTzBa7/uMtCBIAmxfvO
8lEI0aLEuKC9QYBUELwjHGOizTFUmCh3Xu7KIimR2MPVb3oikDBvoVjWnZ2rtlwT
AgMBAAGjggFvMIIBazAOBgNVHQ8BAf8EBAMCB4AwEwYDVR0lBAwwCgYIKwYBBQUH
AwMwCQYDVR0TBAIwADAdBgNVHQ4EFgQU9mSNkh+ZAFy1C9V8upd/52LglGEwHwYD
VR0jBBgwFoAUrpQYrhg77fx27jqVVXP49LiELgEwbwYIKwYBBQUHAQEEYzBhMC0G
CCsGAQUFBzABhiFodHRwOi8vb2NzcDEud29zaWduLmNvbS9jYTYvY29kZTMwMAYI
KwYBBQUHMAKGJGh0dHA6Ly9haWExLndvc2lnbi5jb20vY2E2LmNvZGUzLmNlcjA2
BgNVHR8ELzAtMCugKaAnhiVodHRwOi8vY3JsczEud29zaWduLmNvbS9jYTYtY29k
ZTMuY3JsMFAGA1UdIARJMEcwCAYGZ4EMAQQBMDsGDCsGAQQBgptRBgMDATArMCkG
CCsGAQUFBwIBFh1odHRwOi8vd3d3Lndvc2lnbi5jb20vcG9saWN5LzANBgkqhkiG
9w0BAQsFAAOCAQEAHghUXN8dJHUQ5poZznfoyx0jLNnF0aXRynWvdWfzpWdMFEnu
x5egWhY6Dwqgi4DqhFtrLAc3Y7d9DGoviVLqPVv+/q+1/nSxY8+2ljfcwUXNmdWX
HUcVY8MwgFEoOkya0zMFzNkpMppw+Gijn7ARsKAfIT8kDUXLJYuClw5dymvJn1p7
J0kC4tC/TdcynZFarCKr4DKMmhexJxpnZ44A4JtzsrAo9EoWmweAIPbRC1bF3jrG
T6GlJHHYKZFqj9WTQY6K99Q2FouCcjT1YF68VF+j6XVrxx9gOyaadT8A58vZ3bLh
XmWOoqIr7XtY/qFfOy8wK8jsQ2PBfkbmLjEpjw==
-----END CERTIFICATE-----

Certificate:
    Data:
        Version: 3 (0x2)
        Serial Number:
            37:a6:0e:92:5f:23:f8:0c:fd:cd:97:65:92:98:c3:54
    Signature Algorithm: sha256WithRSAEncryption
        Issuer: C=CN, O=WoSign CA Limited, CN=Certification Authority of WoSign
        Validity
            Not Before: Nov  8 00:58:58 2014 GMT
            Not After : Nov  8 00:58:58 2029 GMT
        Subject: C=CN, O=WoSign CA Limited, CN=WoSign Class 3 Code Signing CA G2
        Subject Public Key Info:
            Public Key Algorithm: rsaEncryption
                Public-Key: (2048 bit)
                Modulus:
                    00:9d:33:e2:aa:da:28:f0:f0:31:9b:ba:34:c7:52:
                    d5:a2:99:74:30:d5:54:2d:76:0d:eb:42:e1:78:df:
                    3f:9c:4f:f4:c6:f9:9d:bb:a4:a4:bf:2c:b7:66:09:
                    f4:8c:0d:31:32:53:ae:ae:fd:a7:30:b0:26:3b:bb:
                    03:dd:a1:d3:fd:fa:54:19:ce:26:2d:d4:ce:41:d8:
                    b8:50:4b:1b:5a:44:c3:3e:c9:47:5e:a0:0e:eb:1e:
                    48:f7:ca:c5:01:2f:8f:a3:2b:ca:71:fa:e4:4c:7f:
                    ed:ff:4d:31:09:1b:74:42:97:98:6b:e9:7f:3d:ef:
                    3b:03:51:99:e7:bb:6c:15:71:3c:57:b7:19:3b:54:
                    bb:02:f9:03:f1:a1:b8:17:25:88:34:88:87:45:69:
                    58:4a:b2:62:a9:5c:37:7f:1d:3c:99:54:8c:08:f9:
                    19:04:da:85:25:b9:be:ca:61:f6:00:57:40:d6:3a:
                    f4:ec:69:b2:e3:66:05:b9:3c:f4:33:05:3f:3e:d3:
                    46:44:ef:e8:e3:6f:d9:35:3c:f1:d2:8c:7b:ed:90:
                    1c:e3:d2:31:e4:85:7f:af:6e:ee:9a:40:60:a3:47:
                    68:62:6f:aa:f8:ad:9e:a4:ee:f5:b7:32:de:b6:5d:
                    79:54:18:a4:58:18:0b:02:1f:36:a1:1c:90:d7:01:
                    20:8d
                Exponent: 65537 (0x10001)
        X509v3 extensions:
            X509v3 Key Usage: critical
                Certificate Sign, CRL Sign
            X509v3 Extended Key Usage: 
                Code Signing, Microsoft Commercial Code Signing
            X509v3 Basic Constraints: critical
                CA:TRUE, pathlen:0
            X509v3 CRL Distribution Points: 

                Full Name:
                  URI:http://crls1.wosign.com/ca1.crl

            Authority Information Access: 
                OCSP - URI:http://ocsp1.wosign.com/ca1
                CA Issuers - URI:http://aia1.wosign.com/ca1g2-code3.cer

            X509v3 Subject Key Identifier: 
                AE:94:18:AE:18:3B:ED:FC:76:EE:3A:95:55:73:F8:F4:B8:84:2E:01
            X509v3 Authority Key Identifier: 
                keyid:E1:66:CF:0E:D1:F1:B3:4B:B7:06:20:14:FE:87:12:D5:F6:FE:FB:3E

            X509v3 Certificate Policies: 
                Policy: 1.3.6.1.4.1.36305.6.3.3.1
                  CPS: http://www.wosign.com/policy/

    Signature Algorithm: sha256WithRSAEncryption
         1c:89:89:7f:e3:4a:fa:b3:73:d9:0a:97:ea:21:22:91:46:5f:
         9f:6f:eb:14:c4:84:04:ae:6c:e6:53:31:54:dc:c2:27:b3:25:
         1c:52:b9:f4:8a:bc:a8:1f:1e:5c:a2:9e:68:20:f2:81:72:f1:
         28:5b:8d:0d:ab:00:69:ed:cb:66:91:24:8c:da:33:c4:ee:99:
         10:14:26:71:1d:64:57:92:09:5b:44:69:df:c9:b8:a8:72:70:
         d4:75:de:02:e8:5b:a5:63:5a:17:dd:23:9d:66:6b:27:bd:18:
         d6:13:9e:cb:ad:c7:7f:01:22:81:a8:e3:92:aa:c0:b4:d5:fc:
         e6:6a:20:3f:cb:f4:ea:8e:04:aa:ba:81:d2:28:9b:de:1f:b4:
         27:3b:fa:c6:67:a4:f7:93:a0:19:a4:e3:24:b8:43:9b:eb:62:
         4b:e9:bb:8f:8a:a0:3e:7f:1b:9c:81:34:e2:5e:4a:a7:df:d6:
         28:cb:e7:99:06:35:91:34:c0:07:7d:b8:fb:ec:eb:d0:65:01:
         f5:a0:a6:f3:e4:32:41:bf:b8:1b:36:c7:16:8b:a9:80:f1:4e:
         0f:a8:3d:95:5b:69:58:96:a0:f7:90:ff:3a:42:bc:48:de:a5:
         0f:60:c2:3f:c7:bf:3e:8d:23:7e:64:68:07:22:0e:ad:8a:55:
         b2:92:c4:e8:09:0a:b3:71:80:67:09:c7:8d:b2:c5:fa:a5:ce:
         5b:61:cc:be:47:3d:55:4f:f0:89:1a:6b:e3:4d:1e:e7:dd:d3:
         04:d7:38:d0:37:dc:3a:96:f6:4c:71:f3:a6:41:12:28:24:2b:
         3f:fe:aa:11:1e:36:1e:d8:ed:54:32:e3:ab:79:43:41:e3:70:
         05:12:98:73:33:a6:b7:40:72:4f:78:19:94:f3:7d:29:a3:0a:
         c3:aa:71:67:a1:63:05:d4:e6:97:c2:56:d2:b6:e4:82:41:b0:
         26:f6:f3:e7:38:49:93:61:1b:92:0e:61:70:72:99:96:75:5d:
         b7:0b:cc:ab:28:ec:bc:17:76:14:0b:dc:f9:f3:d3:4f:39:e7:
         bb:57:dd:0f:36:44:bb:30:eb:c9:b4:3e:5a:72:f3:d2:45:46:
         89:76:c9:ce:a8:aa:16:c0:90:0f:19:09:c0:86:44:93:2c:56:
         63:fc:3f:64:7b:7c:b3:0b:11:8b:7a:9a:61:2c:81:fd:b5:2a:
         21:4e:f6:a7:e2:3f:3f:cb:72:f6:57:d9:83:9b:09:bf:78:85:
         91:16:d6:35:de:95:37:bf:b0:87:e3:7f:96:ba:d6:c6:92:3d:
         05:ed:b1:66:aa:0c:72:fd:d0:f1:d1:7a:22:a0:64:38:3c:27:
         40:c4:8b:88:81:7b:db:75
-----BEGIN CERTIFICATE-----
MIIFpjCCA46gAwIBAgIQN6YOkl8j+Az9zZdlkpjDVDANBgkqhkiG9w0BAQsFADBV
MQswCQYDVQQGEwJDTjEaMBgGA1UEChMRV29TaWduIENBIExpbWl0ZWQxKjAoBgNV
BAMTIUNlcnRpZmljYXRpb24gQXV0aG9yaXR5IG9mIFdvU2lnbjAeFw0xNDExMDgw
MDU4NThaFw0yOTExMDgwMDU4NThaMFUxCzAJBgNVBAYTAkNOMRowGAYDVQQKExFX
b1NpZ24gQ0EgTGltaXRlZDEqMCgGA1UEAxMhV29TaWduIENsYXNzIDMgQ29kZSBT
aWduaW5nIENBIEcyMIIBIjANBgkqhkiG9w0BAQEFAAOCAQ8AMIIBCgKCAQEAnTPi
qtoo8PAxm7o0x1LVopl0MNVULXYN60LheN8/nE/0xvmdu6Skvyy3Zgn0jA0xMlOu
rv2nMLAmO7sD3aHT/fpUGc4mLdTOQdi4UEsbWkTDPslHXqAO6x5I98rFAS+PoyvK
cfrkTH/t/00xCRt0QpeYa+l/Pe87A1GZ57tsFXE8V7cZO1S7AvkD8aG4FyWINIiH
RWlYSrJiqVw3fx08mVSMCPkZBNqFJbm+ymH2AFdA1jr07Gmy42YFuTz0MwU/PtNG
RO/o42/ZNTzx0ox77ZAc49Ix5IV/r27umkBgo0doYm+q+K2epO71tzLetl15VBik
WBgLAh82oRyQ1wEgjQIDAQABo4IBcDCCAWwwDgYDVR0PAQH/BAQDAgEGMB8GA1Ud
JQQYMBYGCCsGAQUFBwMDBgorBgEEAYI3AgEWMBIGA1UdEwEB/wQIMAYBAf8CAQAw
MAYDVR0fBCkwJzAloCOgIYYfaHR0cDovL2NybHMxLndvc2lnbi5jb20vY2ExLmNy
bDBrBggrBgEFBQcBAQRfMF0wJwYIKwYBBQUHMAGGG2h0dHA6Ly9vY3NwMS53b3Np
Z24uY29tL2NhMTAyBggrBgEFBQcwAoYmaHR0cDovL2FpYTEud29zaWduLmNvbS9j
YTFnMi1jb2RlMy5jZXIwHQYDVR0OBBYEFK6UGK4YO+38du46lVVz+PS4hC4BMB8G
A1UdIwQYMBaAFOFmzw7R8bNLtwYgFP6HEtX2/vs+MEYGA1UdIAQ/MD0wOwYMKwYB
BAGCm1EGAwMBMCswKQYIKwYBBQUHAgEWHWh0dHA6Ly93d3cud29zaWduLmNvbS9w
b2xpY3kvMA0GCSqGSIb3DQEBCwUAA4ICAQAciYl/40r6s3PZCpfqISKRRl+fb+sU
xIQErmzmUzFU3MInsyUcUrn0iryoHx5cop5oIPKBcvEoW40NqwBp7ctmkSSM2jPE
7pkQFCZxHWRXkglbRGnfybiocnDUdd4C6FulY1oX3SOdZmsnvRjWE57Lrcd/ASKB
qOOSqsC01fzmaiA/y/TqjgSquoHSKJveH7QnO/rGZ6T3k6AZpOMkuEOb62JL6buP
iqA+fxucgTTiXkqn39Yoy+eZBjWRNMAHfbj77OvQZQH1oKbz5DJBv7gbNscWi6mA
8U4PqD2VW2lYlqD3kP86QrxI3qUPYMI/x78+jSN+ZGgHIg6tilWyksToCQqzcYBn
CceNssX6pc5bYcy+Rz1VT/CJGmvjTR7n3dME1zjQN9w6lvZMcfOmQRIoJCs//qoR
HjYe2O1UMuOreUNB43AFEphzM6a3QHJPeBmU830powrDqnFnoWMF1OaXwlbStuSC
QbAm9vPnOEmTYRuSDmFwcpmWdV23C8yrKOy8F3YUC9z589NPOee7V90PNkS7MOvJ
tD5acvPSRUaJdsnOqKoWwJAPGQnAhkSTLFZj/D9ke3yzCxGLepphLIH9tSohTvan
4j8/y3L2V9mDmwm/eIWRFtY13pU3v7CH43+WutbGkj0F7bFmqgxy/dDx0XoioGQ4
PCdAxIuIgXvbdQ==
-----END CERTIFICATE-----

Certificate:
    Data:
        Version: 3 (0x2)
        Serial Number: 7250751724796726 (0x19c28530e93b36)
    Signature Algorithm: sha256WithRSAEncryption
        Issuer: C=IL, O=StartCom Ltd., OU=Secure Digital Certificate Signing, CN=StartCom Certification Authority
        Validity
            Not Before: Sep 17 22:46:36 2006 GMT
            Not After : Dec 31 23:59:59 2019 GMT
        Subject: C=CN, O=WoSign CA Limited, CN=Certification Authority of WoSign
        Subject Public Key Info:
            Public Key Algorithm: rsaEncryption
                Public-Key: (4096 bit)
                Modulus:
                    00:bd:ca:8d:ac:b8:91:15:56:97:7b:6b:5c:7a:c2:
                    de:6b:d9:a1:b0:c3:10:23:fa:a7:a1:b2:cc:31:fa:
                    3e:d9:a6:29:6f:16:3d:e0:6b:f8:b8:40:5f:db:39:
                    a8:00:7a:8b:a0:4d:54:7d:c2:22:78:fc:8e:09:b8:
                    a8:85:d7:cc:95:97:4b:74:d8:9e:7e:f0:00:e4:0e:
                    89:ae:49:28:44:1a:10:99:32:0f:25:88:53:a4:0d:
                    b3:0f:12:08:16:0b:03:71:27:1c:7f:e1:db:d2:fd:
                    67:68:c4:05:5d:0a:0e:5d:70:d7:d8:97:a0:bc:53:
                    41:9a:91:8d:f4:9e:36:66:7a:7e:56:c1:90:5f:e6:
                    b1:68:20:36:a4:8c:24:2c:2c:47:0b:59:76:66:30:
                    b5:be:de:ed:8f:f8:9d:d3:bb:01:30:e6:f2:f3:0e:
                    e0:2c:92:80:f3:85:f9:28:8a:b4:54:2e:9a:ed:f7:
                    76:fc:15:68:16:eb:4a:6c:eb:2e:12:8f:d4:cf:fe:
                    0c:c7:5c:1d:0b:7e:05:32:be:5e:b0:09:2a:42:d5:
                    c9:4e:90:b3:59:0d:bb:7a:7e:cd:d5:08:5a:b4:7f:
                    d8:1c:69:11:f9:27:0f:7b:06:af:54:83:18:7b:e1:
                    dd:54:7a:51:68:6e:77:fc:c6:bf:52:4a:66:46:a1:
                    b2:67:1a:bb:a3:4f:77:a0:be:5d:ff:fc:56:0b:43:
                    72:77:90:ca:9e:f9:f2:39:f5:0d:a9:f4:ea:d7:e7:
                    b3:10:2f:30:42:37:21:cc:30:70:c9:86:98:0f:cc:
                    58:4d:83:bb:7d:e5:1a:a5:37:8d:b6:ac:32:97:00:
                    3a:63:71:24:1e:9e:37:c4:ff:74:d4:37:c0:e2:fe:
                    88:46:60:11:dd:08:3f:50:36:ab:b8:7a:a4:95:62:
                    6a:6e:b0:ca:6a:21:5a:69:f3:f3:fb:1d:70:39:95:
                    f3:a7:6e:a6:81:89:a1:88:c5:3b:71:ca:a3:52:ee:
                    83:bb:fd:a0:77:f4:e4:6f:e7:42:db:6d:4a:99:8a:
                    34:48:bc:17:dc:e4:80:08:22:b6:f2:31:c0:3f:04:
                    3e:eb:9f:20:79:d6:b8:06:64:64:02:31:d7:a9:cd:
                    52:fb:84:45:69:09:00:2a:dc:55:8b:c4:06:46:4b:
                    c0:4a:1d:09:5b:39:28:fd:a9:ab:ce:00:f9:2e:48:
                    4b:26:e6:30:4c:a5:58:ca:b4:44:82:4f:e7:91:1e:
                    33:c3:b0:93:ff:11:fc:81:d2:ca:1f:71:29:dd:76:
                    4f:92:25:af:1d:81:b7:0f:2f:8c:c3:06:cc:2f:27:
                    a3:4a:e4:0e:99:ba:7c:1e:45:1f:7f:aa:19:45:96:
                    fd:fc:3d
                Exponent: 65537 (0x10001)
        X509v3 extensions:
            X509v3 Basic Constraints: critical
                CA:TRUE, pathlen:2
            X509v3 Key Usage: critical
                Certificate Sign, CRL Sign
            X509v3 Subject Key Identifier: 
                E1:66:CF:0E:D1:F1:B3:4B:B7:06:20:14:FE:87:12:D5:F6:FE:FB:3E
            X509v3 Authority Key Identifier: 
                keyid:4E:0B:EF:1A:A4:40:5B:A5:17:69:87:30:CA:34:68:43:D0:41:AE:F2

            Authority Information Access: 
                OCSP - URI:http://ocsp.startssl.com/ca
                CA Issuers - URI:http://aia.startssl.com/certs/ca.crt

            X509v3 CRL Distribution Points: 

                Full Name:
                  URI:http://crl.startssl.com/sfsca.crl

    Signature Algorithm: sha256WithRSAEncryption
         b6:6d:f8:70:fb:e2:0d:4c:98:b3:07:49:15:f5:04:c4:6c:ca:
         ca:f5:68:a0:08:fe:12:6d:9c:04:06:c9:ad:9a:91:52:3e:78:
         c4:5c:ee:9f:54:1d:ee:e3:f1:5e:30:c9:49:e1:39:e0:a6:9d:
         36:6c:57:fa:e6:34:4f:55:e8:87:a8:2c:dd:05:f1:58:12:91:
         e8:ca:ce:28:78:8f:df:07:85:01:a5:dc:45:96:05:d4:80:b2:
         2b:05:9a:cb:9a:a5:8b:e0:3a:67:e6:73:47:be:4a:fd:27:b1:
         88:ef:e6:ca:cf:8d:0e:26:9f:fa:5f:57:78:ad:6d:fe:ae:9b:
         35:08:b1:c3:ba:c1:00:4a:4b:7d:14:bd:f7:f1:d3:55:18:ac:
         d0:33:70:88:6d:c4:09:71:14:a6:2b:4f:88:81:e7:0b:00:37:
         a9:15:7d:7e:d7:01:96:3f:2f:af:7b:62:ae:0a:4a:bf:4b:39:
         2e:35:10:8b:fe:04:39:e4:3c:3a:0c:09:56:40:3a:b5:f4:c2:
         68:0c:b5:f9:52:cd:ee:9d:f8:98:fc:78:e7:58:47:8f:1c:73:
         58:69:33:ab:ff:dd:df:8e:24:01:77:98:19:3a:b0:66:79:bc:
         e1:08:a3:0e:4f:c1:04:b3:f3:01:c8:eb:d3:59:1c:35:d2:93:
         1e:70:65:82:7f:db:cf:fb:c8:99:12:60:c3:44:6f:3a:80:4b:
         d7:be:21:aa:14:7a:64:cb:dd:37:43:45:5b:32:2e:45:f0:d9:
         59:1f:6b:18:f0:7c:e9:55:36:19:61:5f:b5:7d:f1:8d:bd:88:
         e4:75:4b:98:dd:27:b0:e4:84:44:2a:61:84:57:05:82:11:1f:
         aa:35:58:f3:20:0e:af:59:ef:fa:55:72:72:0d:26:d0:9b:53:
         49:ac:ce:37:2e:65:61:ff:f6:ec:1b:ea:f6:f1:a6:d3:d1:b5:
         7b:be:35:f4:22:c1:bc:8d:01:bd:68:5e:83:0d:2f:ec:d6:da:
         63:0c:27:d1:54:3e:e4:a8:d3:ce:4b:32:b8:91:94:ff:fb:5b:
         49:2d:75:18:a8:ba:71:9a:3b:ae:d9:c0:a9:4f:87:91:ed:8b:
         7b:6b:20:98:89:39:83:4f:80:c4:69:cc:17:c9:c8:4e:be:e4:
         a9:a5:81:76:70:06:04:32:cd:83:65:f4:bc:7d:3e:13:bc:d2:
         e8:6f:63:aa:b5:3b:da:8d:86:32:82:78:9d:d9:cc:ff:bf:57:
         64:74:ed:28:3d:44:62:15:61:4b:f7:94:b0:0d:2a:67:1c:f0:
         cb:9b:a5:92:bf:f8:41:5a:c1:3d:60:ed:9f:bb:b8:6d:9b:ce:
         a9:6a:16:3f:7e:ea:06:f1
-----BEGIN CERTIFICATE-----
MIIGXDCCBESgAwIBAgIHGcKFMOk7NjANBgkqhkiG9w0BAQsFADB9MQswCQYDVQQG
EwJJTDEWMBQGA1UEChMNU3RhcnRDb20gTHRkLjErMCkGA1UECxMiU2VjdXJlIERp
Z2l0YWwgQ2VydGlmaWNhdGUgU2lnbmluZzEpMCcGA1UEAxMgU3RhcnRDb20gQ2Vy
dGlmaWNhdGlvbiBBdXRob3JpdHkwHhcNMDYwOTE3MjI0NjM2WhcNMTkxMjMxMjM1
OTU5WjBVMQswCQYDVQQGEwJDTjEaMBgGA1UEChMRV29TaWduIENBIExpbWl0ZWQx
KjAoBgNVBAMTIUNlcnRpZmljYXRpb24gQXV0aG9yaXR5IG9mIFdvU2lnbjCCAiIw
DQYJKoZIhvcNAQEBBQADggIPADCCAgoCggIBAL3Kjay4kRVWl3trXHrC3mvZobDD
ECP6p6GyzDH6PtmmKW8WPeBr+LhAX9s5qAB6i6BNVH3CInj8jgm4qIXXzJWXS3TY
nn7wAOQOia5JKEQaEJkyDyWIU6QNsw8SCBYLA3EnHH/h29L9Z2jEBV0KDl1w19iX
oLxTQZqRjfSeNmZ6flbBkF/msWggNqSMJCwsRwtZdmYwtb7e7Y/4ndO7ATDm8vMO
4CySgPOF+SiKtFQumu33dvwVaBbrSmzrLhKP1M/+DMdcHQt+BTK+XrAJKkLVyU6Q
s1kNu3p+zdUIWrR/2BxpEfknD3sGr1SDGHvh3VR6UWhud/zGv1JKZkahsmcau6NP
d6C+Xf/8VgtDcneQyp758jn1Dan06tfnsxAvMEI3IcwwcMmGmA/MWE2Du33lGqU3
jbasMpcAOmNxJB6eN8T/dNQ3wOL+iEZgEd0IP1A2q7h6pJViam6wymohWmnz8/sd
cDmV86dupoGJoYjFO3HKo1Lug7v9oHf05G/nQtttSpmKNEi8F9zkgAgitvIxwD8E
PuufIHnWuAZkZAIx16nNUvuERWkJACrcVYvEBkZLwEodCVs5KP2pq84A+S5ISybm
MEylWMq0RIJP55EeM8Owk/8R/IHSyh9xKd12T5Ilrx2Btw8vjMMGzC8no0rkDpm6
fB5FH3+qGUWW/fw9AgMBAAGjggEHMIIBAzASBgNVHRMBAf8ECDAGAQH/AgECMA4G
A1UdDwEB/wQEAwIBBjAdBgNVHQ4EFgQU4WbPDtHxs0u3BiAU/ocS1fb++z4wHwYD
VR0jBBgwFoAUTgvvGqRAW6UXaYcwyjRoQ9BBrvIwaQYIKwYBBQUHAQEEXTBbMCcG
CCsGAQUFBzABhhtodHRwOi8vb2NzcC5zdGFydHNzbC5jb20vY2EwMAYIKwYBBQUH
MAKGJGh0dHA6Ly9haWEuc3RhcnRzc2wuY29tL2NlcnRzL2NhLmNydDAyBgNVHR8E
KzApMCegJaAjhiFodHRwOi8vY3JsLnN0YXJ0c3NsLmNvbS9zZnNjYS5jcmwwDQYJ
KoZIhvcNAQELBQADggIBALZt+HD74g1MmLMHSRX1BMRsysr1aKAI/hJtnAQGya2a
kVI+eMRc7p9UHe7j8V4wyUnhOeCmnTZsV/rmNE9V6IeoLN0F8VgSkejKzih4j98H
hQGl3EWWBdSAsisFmsuapYvgOmfmc0e+Sv0nsYjv5srPjQ4mn/pfV3itbf6umzUI
scO6wQBKS30Uvffx01UYrNAzcIhtxAlxFKYrT4iB5wsAN6kVfX7XAZY/L697Yq4K
Sr9LOS41EIv+BDnkPDoMCVZAOrX0wmgMtflSze6d+Jj8eOdYR48cc1hpM6v/3d+O
JAF3mBk6sGZ5vOEIow5PwQSz8wHI69NZHDXSkx5wZYJ/28/7yJkSYMNEbzqAS9e+
IaoUemTL3TdDRVsyLkXw2VkfaxjwfOlVNhlhX7V98Y29iOR1S5jdJ7DkhEQqYYRX
BYIRH6o1WPMgDq9Z7/pVcnINJtCbU0mszjcuZWH/9uwb6vbxptPRtXu+NfQiwbyN
Ab1oXoMNL+zW2mMMJ9FUPuSo085LMriRlP/7W0ktdRiounGaO67ZwKlPh5Hti3tr
IJiJOYNPgMRpzBfJyE6+5KmlgXZwBgQyzYNl9Lx9PhO80uhvY6q1O9qNhjKCeJ3Z
zP+/V2R07Sg9RGIVYUv3lLANKmcc8MubpZK/+EFawT1g7Z+7uG2bzqlqFj9+6gbx
-----END CERTIFICATE-----

