Certificate:
    Data:
        Version: 3 (0x2)
        Serial Number:
            47:c3:0f:fe:fc:22:bb:28:0f:96:fe:a7:52:51
    Signature Algorithm: sha1WithRSAEncryption
        Issuer: C=BE, O=GlobalSign nv-sa, OU=Root CA, CN=GlobalSign Root CA
        Validity
            Not Before: Mar 16 00:00:00 2016 GMT
            Not After : Mar 16 00:00:00 2024 GMT
        Subject: C=BE, O=GlobalSign nv-sa, CN=GlobalSign CodeSigning CA - G3
        Subject Public Key Info:
            Public Key Algorithm: rsaEncryption
                Public-Key: (2048 bit)
                Modulus:
                    00:c6:a0:35:88:53:57:8b:f0:ec:ac:86:40:64:9b:
                    7e:4e:a7:4d:2a:4b:cf:30:4e:53:0b:80:87:f3:fc:
                    0d:1d:cd:5e:e2:aa:11:b8:cb:cc:19:8e:99:e2:13:
                    4b:be:76:5d:9f:91:47:57:5c:4d:aa:07:2d:45:55:
                    ee:a6:37:f4:b0:50:aa:36:36:25:3a:29:60:77:3e:
                    b1:71:f3:a4:44:e8:31:4a:a0:71:76:11:26:10:c5:
                    ab:87:ec:b0:59:09:8d:bc:32:ff:47:b3:77:02:52:
                    31:fe:bc:f8:67:5b:f1:7e:28:bc:82:c7:e9:fa:94:
                    de:68:ab:45:1c:a2:8b:b5:01:c6:ed:cb:85:d5:35:
                    b5:b7:18:13:ae:47:5f:6e:52:02:47:72:4a:6a:e7:
                    36:cf:5a:e2:44:ed:f1:d0:b6:08:3b:f7:49:ec:ff:
                    b7:39:3d:b9:92:ec:71:8f:39:c7:ed:88:53:48:85:
                    58:4b:3e:12:b9:00:48:41:56:bc:a3:52:3a:64:2c:
                    ae:3a:0c:29:a4:30:f7:c6:64:50:bd:fc:57:d0:1d:
                    05:0c:7b:cc:bc:43:6e:65:24:50:72:3f:b5:f3:e7:
                    e6:55:e1:49:78:b7:43:43:4a:a7:d8:1c:8e:c0:d2:
                    9b:dd:d3:d7:cc:b4:51:86:5f:31:c9:2c:34:66:38:
                    72:5b
                Exponent: 65537 (0x10001)
        X509v3 extensions:
            X509v3 Key Usage: critical
                Certificate Sign, CRL Sign
            X509v3 Extended Key Usage: 
                Code Signing, OCSP Signing
            X509v3 Basic Constraints: critical
                CA:TRUE, pathlen:0
            X509v3 Subject Key Identifier: 
                B3:D3:E6:D5:71:56:7D:39:58:B3:78:D2:2B:B8:F7:A1:1F:FD:4B:9B
            X509v3 Authority Key Identifier: 
                keyid:60:7B:66:1A:45:0D:97:CA:89:50:2F:7D:04:CD:34:A8:FF:FC:FD:4B

            Authority Information Access: 
                OCSP - URI:http://ocsp.globalsign.com/rootr1

            X509v3 CRL Distribution Points: 

                Full Name:
                  URI:http://crl.globalsign.com/root.crl

            X509v3 Certificate Policies: 
                Policy: 1.3.6.1.4.1.4146.1.50
                Policy: 1.3.6.1.4.1.4146.1.95
                  CPS: https://www.globalsign.com/repository/

    Signature Algorithm: sha1WithRSAEncryption
         3b:41:bb:c8:4f:56:11:82:b7:19:e3:d9:6d:c1:85:ae:9e:69:
         0e:c8:43:26:23:4b:8d:44:c8:e8:7d:5f:07:0e:53:41:d5:63:
         44:4a:89:0b:b8:74:ac:7d:b5:78:79:2f:84:26:e2:d7:f7:ba:
         d1:ae:2d:fd:69:cf:fa:7c:64:dc:24:16:2a:4a:da:c0:97:a9:
         bb:d5:dd:88:e7:a1:92:9a:0a:a5:f6:f7:ba:ce:85:d6:e4:e3:
         d4:55:de:ed:dc:3e:21:1f:1b:c8:77:88:cf:fc:65:fb:05:b4:
         8f:12:a6:30:d3:0d:66:98:2f:6c:2e:6f:85:18:7c:8f:f5:f6:
         fb:b1:ab:10:e1:83:27:08:85:b0:73:21:ba:5d:2c:ba:83:30:
         b7:39:84:dd:5d:b6:7f:d2:8b:b4:55:53:4c:42:a2:bc:4a:6c:
         78:39:5b:63:1c:a3:78:27:bf:be:34:83:6b:6d:7b:1e:60:fb:
         c2:9b:0d:88:ac:8c:72:54:6b:dc:3b:88:ba:81:52:5e:68:97:
         83:b8:ce:7f:a3:cd:f9:ea:2f:26:76:fa:cd:0b:06:ac:43:44:
         49:7b:f6:4c:94:42:b2:ab:cf:d5:42:d5:19:42:69:6e:61:86:
         64:c7:b3:7d:07:8b:db:e5:76:7b:6e:5f:65:a9:16:90:a2:ce:
         e4:ae:64:92
-----BEGIN CERTIFICATE-----
MIIEiDCCA3CgAwIBAgIOR8MP/vwiuygPlv6nUlEwDQYJKoZIhvcNAQEFBQAwVzEL
MAkGA1UEBhMCQkUxGTAXBgNVBAoTEEdsb2JhbFNpZ24gbnYtc2ExEDAOBgNVBAsT
B1Jvb3QgQ0ExGzAZBgNVBAMTEkdsb2JhbFNpZ24gUm9vdCBDQTAeFw0xNjAzMTYw
MDAwMDBaFw0yNDAzMTYwMDAwMDBaMFExCzAJBgNVBAYTAkJFMRkwFwYDVQQKExBH
bG9iYWxTaWduIG52LXNhMScwJQYDVQQDEx5HbG9iYWxTaWduIENvZGVTaWduaW5n
IENBIC0gRzMwggEiMA0GCSqGSIb3DQEBAQUAA4IBDwAwggEKAoIBAQDGoDWIU1eL
8OyshkBkm35Op00qS88wTlMLgIfz/A0dzV7iqhG4y8wZjpniE0u+dl2fkUdXXE2q
By1FVe6mN/SwUKo2NiU6KWB3PrFx86RE6DFKoHF2ESYQxauH7LBZCY28Mv9Hs3cC
UjH+vPhnW/F+KLyCx+n6lN5oq0Ucoou1Acbty4XVNbW3GBOuR19uUgJHckpq5zbP
WuJE7fHQtgg790ns/7c5PbmS7HGPOcftiFNIhVhLPhK5AEhBVryjUjpkLK46DCmk
MPfGZFC9/FfQHQUMe8y8Q25lJFByP7Xz5+ZV4Ul4t0NDSqfYHI7A0pvd09fMtFGG
XzHJLDRmOHJbAgMBAAGjggFWMIIBUjAOBgNVHQ8BAf8EBAMCAQYwHQYDVR0lBBYw
FAYIKwYBBQUHAwMGCCsGAQUFBwMJMBIGA1UdEwEB/wQIMAYBAf8CAQAwHQYDVR0O
BBYEFLPT5tVxVn05WLN40iu496Ef/UubMB8GA1UdIwQYMBaAFGB7ZhpFDZfKiVAv
fQTNNKj//P1LMD0GCCsGAQUFBwEBBDEwLzAtBggrBgEFBQcwAYYhaHR0cDovL29j
c3AuZ2xvYmFsc2lnbi5jb20vcm9vdHIxMDMGA1UdHwQsMCowKKAmoCSGImh0dHA6
Ly9jcmwuZ2xvYmFsc2lnbi5jb20vcm9vdC5jcmwwWQYDVR0gBFIwUDALBgkrBgEE
AaAyATIwQQYJKwYBBAGgMgFfMDQwMgYIKwYBBQUHAgEWJmh0dHBzOi8vd3d3Lmds
b2JhbHNpZ24uY29tL3JlcG9zaXRvcnkvMA0GCSqGSIb3DQEBBQUAA4IBAQA7QbvI
T1YRgrcZ49ltwYWunmkOyEMmI0uNRMjofV8HDlNB1WNESokLuHSsfbV4eS+EJuLX
97rRri39ac/6fGTcJBYqStrAl6m71d2I56GSmgql9ve6zoXW5OPUVd7t3D4hHxvI
d4jP/GX7BbSPEqYw0w1mmC9sLm+FGHyP9fb7sasQ4YMnCIWwcyG6XSy6gzC3OYTd
XbZ/0ou0VVNMQqK8Smx4OVtjHKN4J7++NINrbXseYPvCmw2IrIxyVGvcO4i6gVJe
aJeDuM5/o8356i8mdvrNCwasQ0RJe/ZMlEKyq8/VQtUZQmluYYZkx7N9B4vb5XZ7
bl9lqRaQos7krmSS
-----END CERTIFICATE-----

Certificate:
    Data:
        Version: 3 (0x2)
        Serial Number:
            65:31:38:92:3b:9b:e6:29:49:65:7f:5d
    Signature Algorithm: sha1WithRSAEncryption
        Issuer: C=BE, O=GlobalSign nv-sa, CN=GlobalSign CodeSigning CA - G3
        Validity
            Not Before: Aug 21 09:50:47 2017 GMT
            Not After : Aug 17 10:01:01 2020 GMT
        Subject: C=RU, ST=Moscow, L=Moscow, O=YANDEX LLC, CN=YANDEX LLC/emailAddress=pki@yandex-team.ru
        Subject Public Key Info:
            Public Key Algorithm: rsaEncryption
                Public-Key: (2048 bit)
                Modulus:
                    00:d2:e3:14:72:a6:73:ab:38:f8:ef:05:f7:14:35:
                    8a:00:56:d6:5a:a5:ef:56:68:c2:39:72:7a:cf:44:
                    72:8a:b4:b4:30:7c:0f:f1:20:95:c3:4e:57:99:d6:
                    a5:c4:78:a3:a1:0d:ac:13:b1:5c:75:b3:d4:e0:36:
                    58:05:9d:84:d9:1a:70:c0:51:65:6e:d9:e8:b7:37:
                    3f:d4:ef:e8:c0:48:69:88:7e:91:bf:c1:b0:1c:45:
                    d7:09:6f:df:ba:dd:5f:97:6c:5d:b1:17:bb:ee:20:
                    11:67:69:14:fc:f7:f8:41:a2:92:25:91:55:1a:02:
                    c0:a7:a4:f4:6b:f0:45:87:c5:a7:cc:61:ce:31:e8:
                    8d:e9:47:3a:cf:e1:01:a0:09:54:22:1f:36:a0:af:
                    34:43:58:75:2c:d4:39:55:dd:7b:e7:6c:7f:4f:1e:
                    f8:3d:d0:47:20:07:e7:af:48:8c:d3:4f:d7:a5:31:
                    5f:bd:35:8f:5e:cf:8b:d7:ac:44:07:a8:d7:79:05:
                    3c:f6:b9:73:b2:b5:42:cd:aa:f1:bb:c5:16:6d:bd:
                    d6:9d:df:32:44:ed:41:b3:7b:db:ab:4d:87:20:56:
                    99:29:d4:96:85:ae:02:5f:d3:3b:b3:2e:3f:10:b7:
                    e9:70:37:a9:42:d4:f3:75:4a:42:ef:90:18:8a:c8:
                    7b:b5
                Exponent: 65537 (0x10001)
        X509v3 extensions:
            X509v3 Key Usage: critical
                Digital Signature
            Authority Information Access: 
                CA Issuers - URI:http://secure.globalsign.com/cacert/gscodesigng3ocsp.crt
                OCSP - URI:http://ocsp2.globalsign.com/gscodesigng3

            X509v3 Certificate Policies: 
                Policy: 1.3.6.1.4.1.4146.1.50
                  CPS: https://www.globalsign.com/repository/
                Policy: 2.23.140.1.4.1

            X509v3 Basic Constraints: 
                CA:FALSE
            X509v3 CRL Distribution Points: 

                Full Name:
                  URI:http://crl.globalsign.com/gs/gscodesigng3.crl

            X509v3 Extended Key Usage: 
                Code Signing
            X509v3 Subject Key Identifier: 
                8E:64:9C:FC:29:B7:9D:EE:B3:8F:46:DD:4C:F4:B2:19:07:43:47:47
            X509v3 Authority Key Identifier: 
                keyid:B3:D3:E6:D5:71:56:7D:39:58:B3:78:D2:2B:B8:F7:A1:1F:FD:4B:9B

    Signature Algorithm: sha1WithRSAEncryption
         77:24:ac:d0:96:35:d9:61:d9:f6:5b:3e:25:68:58:63:1b:c3:
         6c:a3:e0:67:3e:88:b0:3c:a1:00:84:cd:aa:90:4d:fb:5d:ae:
         02:43:c0:05:35:72:b5:d0:fa:b5:c0:50:31:e2:6e:86:1f:83:
         34:97:9d:1e:b2:91:26:2a:bc:dc:d1:55:dd:04:12:d1:a0:0e:
         08:8b:92:14:3c:60:d5:38:4e:1b:2b:f9:34:c0:58:63:69:b3:
         0a:8a:97:7d:57:ae:e1:7b:87:d5:82:2a:e6:d6:80:c0:eb:70:
         c3:33:7b:f1:4e:fa:73:5b:04:80:3f:e6:e8:0e:f9:6a:59:ea:
         04:d2:ba:44:d6:ca:92:29:50:e1:ce:40:fa:1b:ee:fa:a2:af:
         85:56:73:1f:ec:e0:78:c0:42:00:26:d6:36:d3:42:a1:ba:79:
         3b:e3:ee:04:79:c0:48:93:a6:b0:28:c4:91:81:2c:0a:de:59:
         e2:88:7b:a8:cf:c3:6f:f1:4c:8a:3f:77:79:88:7b:63:da:6c:
         01:78:bd:7c:b3:ea:3b:e5:24:7b:82:b8:0e:e4:b6:6e:c1:39:
         25:49:37:88:4f:ed:ec:10:c8:62:82:6e:e6:1d:bd:c9:55:95:
         9e:2b:0a:10:c3:10:fd:4b:de:b1:4b:8d:b3:e6:70:7b:20:83:
         47:8b:f2:9c
-----BEGIN CERTIFICATE-----
MIIE7jCCA9agAwIBAgIMZTE4kjub5ilJZX9dMA0GCSqGSIb3DQEBBQUAMFExCzAJ
BgNVBAYTAkJFMRkwFwYDVQQKExBHbG9iYWxTaWduIG52LXNhMScwJQYDVQQDEx5H
bG9iYWxTaWduIENvZGVTaWduaW5nIENBIC0gRzMwHhcNMTcwODIxMDk1MDQ3WhcN
MjAwODE3MTAwMTAxWjB8MQswCQYDVQQGEwJSVTEPMA0GA1UECBMGTW9zY293MQ8w
DQYDVQQHEwZNb3Njb3cxEzARBgNVBAoTCllBTkRFWCBMTEMxEzARBgNVBAMTCllB
TkRFWCBMTEMxITAfBgkqhkiG9w0BCQEWEnBraUB5YW5kZXgtdGVhbS5ydTCCASIw
DQYJKoZIhvcNAQEBBQADggEPADCCAQoCggEBANLjFHKmc6s4+O8F9xQ1igBW1lql
71Zowjlyes9Ecoq0tDB8D/EglcNOV5nWpcR4o6ENrBOxXHWz1OA2WAWdhNkacMBR
ZW7Z6Lc3P9Tv6MBIaYh+kb/BsBxF1wlv37rdX5dsXbEXu+4gEWdpFPz3+EGikiWR
VRoCwKek9GvwRYfFp8xhzjHojelHOs/hAaAJVCIfNqCvNENYdSzUOVXde+dsf08e
+D3QRyAH569IjNNP16UxX701j17Pi9esRAeo13kFPPa5c7K1Qs2q8bvFFm291p3f
MkTtQbN726tNhyBWmSnUloWuAl/TO7MuPxC36XA3qULU83VKQu+QGIrIe7UCAwEA
AaOCAZkwggGVMA4GA1UdDwEB/wQEAwIHgDCBigYIKwYBBQUHAQEEfjB8MEQGCCsG
AQUFBzAChjhodHRwOi8vc2VjdXJlLmdsb2JhbHNpZ24uY29tL2NhY2VydC9nc2Nv
ZGVzaWduZzNvY3NwLmNydDA0BggrBgEFBQcwAYYoaHR0cDovL29jc3AyLmdsb2Jh
bHNpZ24uY29tL2dzY29kZXNpZ25nMzBWBgNVHSAETzBNMEEGCSsGAQQBoDIBMjA0
MDIGCCsGAQUFBwIBFiZodHRwczovL3d3dy5nbG9iYWxzaWduLmNvbS9yZXBvc2l0
b3J5LzAIBgZngQwBBAEwCQYDVR0TBAIwADA+BgNVHR8ENzA1MDOgMaAvhi1odHRw
Oi8vY3JsLmdsb2JhbHNpZ24uY29tL2dzL2dzY29kZXNpZ25nMy5jcmwwEwYDVR0l
BAwwCgYIKwYBBQUHAwMwHQYDVR0OBBYEFI5knPwpt53us49G3Uz0shkHQ0dHMB8G
A1UdIwQYMBaAFLPT5tVxVn05WLN40iu496Ef/UubMA0GCSqGSIb3DQEBBQUAA4IB
AQB3JKzQljXZYdn2Wz4laFhjG8Nso+BnPoiwPKEAhM2qkE37Xa4CQ8AFNXK10Pq1
wFAx4m6GH4M0l50espEmKrzc0VXdBBLRoA4Ii5IUPGDVOE4bK/k0wFhjabMKipd9
V67he4fVgirm1oDA63DDM3vxTvpzWwSAP+boDvlqWeoE0rpE1sqSKVDhzkD6G+76
oq+FVnMf7OB4wEIAJtY200Khunk74+4EecBIk6awKMSRgSwK3lniiHuoz8Nv8UyK
P3d5iHtj2mwBeL18s+o75SR7grgO5LZuwTklSTeIT+3sEMhigm7mHb3JVZWeKwoQ
wxD9S96xS42z5nB7IINHi/Kc
-----END CERTIFICATE-----

Certificate:
    Data:
        Version: 3 (0x2)
        Serial Number:
            04:00:00:00:00:01:2f:4e:e1:52:d7
    Signature Algorithm: sha1WithRSAEncryption
        Issuer: C=BE, O=GlobalSign nv-sa, OU=Root CA, CN=GlobalSign Root CA
        Validity
            Not Before: Apr 13 10:00:00 2011 GMT
            Not After : Jan 28 12:00:00 2028 GMT
        Subject: C=BE, O=GlobalSign nv-sa, CN=GlobalSign Timestamping CA - G2
        Subject Public Key Info:
            Public Key Algorithm: rsaEncryption
                Public-Key: (2048 bit)
                Modulus:
                    00:94:ef:65:f8:b5:57:9f:a0:53:0d:34:06:eb:09:
                    1f:b7:47:18:6a:cb:f0:5b:e4:ff:27:a5:34:d1:f7:
                    89:1a:bf:9e:b1:cd:12:41:6e:66:d4:81:a0:85:8b:
                    64:5a:46:2f:99:a0:8d:77:b1:e2:bc:5c:dd:22:d7:
                    6a:67:d0:bb:e8:ca:74:de:8b:4f:0d:b0:52:e5:90:
                    5b:eb:47:0e:f1:e7:9f:9c:0b:90:65:3e:17:96:30:
                    45:72:6d:39:a1:17:36:ca:b9:a0:8c:1b:4f:08:19:
                    f6:81:31:ad:61:16:a4:62:e6:b4:40:9e:c3:fc:fb:
                    95:f6:fb:b5:2e:95:81:98:e0:ef:c5:eb:d8:02:59:
                    78:77:f7:aa:e3:52:6b:50:91:29:c5:fc:f7:cd:93:
                    65:d2:60:61:22:f2:06:fb:32:dd:16:51:fa:0e:fd:
                    8a:30:f0:17:09:a7:bb:f3:04:ae:ab:90:e7:6c:df:
                    7a:a9:f4:ef:c4:62:27:5f:6f:99:6d:38:74:aa:11:
                    8b:da:df:c7:14:4c:e9:85:b2:ec:c2:7d:4a:26:8f:
                    e7:56:ba:a6:e0:cf:92:53:80:74:f4:03:ec:68:b2:
                    60:bc:84:20:00:83:1b:a1:ee:b4:74:05:c1:29:8e:
                    62:d0:47:b1:fa:f0:53:cc:18:f9:2e:3b:f9:70:7e:
                    b4:25
                Exponent: 65537 (0x10001)
        X509v3 extensions:
            X509v3 Key Usage: critical
                Certificate Sign, CRL Sign
            X509v3 Basic Constraints: critical
                CA:TRUE, pathlen:0
            X509v3 Subject Key Identifier: 
                46:D8:3E:FF:DC:E3:BE:FF:83:E6:F4:85:9B:B0:DD:6A:D6:14:A9:C1
            X509v3 Certificate Policies: 
                Policy: X509v3 Any Policy
                  CPS: https://www.globalsign.com/repository/

            X509v3 CRL Distribution Points: 

                Full Name:
                  URI:http://crl.globalsign.net/root.crl

            X509v3 Authority Key Identifier: 
                keyid:60:7B:66:1A:45:0D:97:CA:89:50:2F:7D:04:CD:34:A8:FF:FC:FD:4B

    Signature Algorithm: sha1WithRSAEncryption
         4e:5e:56:90:1e:46:b4:d9:49:31:f3:bb:17:39:28:1b:c2:16:
         dd:fd:41:dc:09:05:04:9b:6f:b2:a2:9a:d6:99:2e:40:99:00:
         55:b5:ea:3f:a5:20:76:d3:86:34:d4:17:cc:55:3a:c7:82:ee:
         ef:a8:ba:bc:d8:06:9f:15:50:df:cd:16:7b:52:3a:02:d7:19:
         1a:fd:af:f0:78:5c:e0:4b:c5:18:df:3a:24:1e:da:ac:b8:a9:
         58:04:02:07:30:db:b0:12:5e:fe:31:be:f0:04:48:f4:f0:70:
         f8:3a:5e:56:83:cf:3d:fb:0d:bc:f4:c5:ed:97:9d:b9:d4:db:
         a5:27:84:e3:38:9b:8b:a7:35:86:44:20:a4:3b:6d:a4:6a:0b:
         a1:83:fd:28:eb:da:ef:28:f6:cc:88:5d:fb:0a:3b:00:ab:e0:
         21:eb:e2:2f:35:6c:0f:8e:34:45:97:eb:a2:f7:99:33:35:7e:
         cb:9a:8a:bb:45:4d:e7:3f:9f:c2:d9:8a:fa:65:b2:6e:c7:7e:
         65:ff:e8:92:e1:2c:31:a2:f7:b0:27:36:48:8f:26:6f:3b:ee:
         4d:76:1f:79:c3:e5:7f:96:35:bc:2d:0e:cc:01:b0:8e:7f:ff:
         51:80:80:a7:92:d4:b3:44:46:64:8c:87:4f:16:63:07:31:4b:
         63:b0:df:f3
-----BEGIN CERTIFICATE-----
MIIEFDCCAvygAwIBAgILBAAAAAABL07hUtcwDQYJKoZIhvcNAQEFBQAwVzELMAkG
A1UEBhMCQkUxGTAXBgNVBAoTEEdsb2JhbFNpZ24gbnYtc2ExEDAOBgNVBAsTB1Jv
b3QgQ0ExGzAZBgNVBAMTEkdsb2JhbFNpZ24gUm9vdCBDQTAeFw0xMTA0MTMxMDAw
MDBaFw0yODAxMjgxMjAwMDBaMFIxCzAJBgNVBAYTAkJFMRkwFwYDVQQKExBHbG9i
YWxTaWduIG52LXNhMSgwJgYDVQQDEx9HbG9iYWxTaWduIFRpbWVzdGFtcGluZyBD
QSAtIEcyMIIBIjANBgkqhkiG9w0BAQEFAAOCAQ8AMIIBCgKCAQEAlO9l+LVXn6BT
DTQG6wkft0cYasvwW+T/J6U00feJGr+esc0SQW5m1IGghYtkWkYvmaCNd7HivFzd
ItdqZ9C76Mp03otPDbBS5ZBb60cO8eefnAuQZT4XljBFcm05oRc2yrmgjBtPCBn2
gTGtYRakYua0QJ7D/PuV9vu1LpWBmODvxevYAll4d/eq41JrUJEpxfz3zZNl0mBh
IvIG+zLdFlH6Dv2KMPAXCae78wSuq5DnbN96qfTvxGInX2+ZbTh0qhGL2t/HFEzp
hbLswn1KJo/nVrqm4M+SU4B09APsaLJgvIQgAIMboe60dAXBKY5i0Eex+vBTzBj5
Ljv5cH60JQIDAQABo4HlMIHiMA4GA1UdDwEB/wQEAwIBBjASBgNVHRMBAf8ECDAG
AQH/AgEAMB0GA1UdDgQWBBRG2D7/3OO+/4Pm9IWbsN1q1hSpwTBHBgNVHSAEQDA+
MDwGBFUdIAAwNDAyBggrBgEFBQcCARYmaHR0cHM6Ly93d3cuZ2xvYmFsc2lnbi5j
b20vcmVwb3NpdG9yeS8wMwYDVR0fBCwwKjAooCagJIYiaHR0cDovL2NybC5nbG9i
YWxzaWduLm5ldC9yb290LmNybDAfBgNVHSMEGDAWgBRge2YaRQ2XyolQL30EzTSo
//z9SzANBgkqhkiG9w0BAQUFAAOCAQEATl5WkB5GtNlJMfO7FzkoG8IW3f1B3AkF
BJtvsqKa1pkuQJkAVbXqP6UgdtOGNNQXzFU6x4Lu76i6vNgGnxVQ380We1I6AtcZ
Gv2v8Hhc4EvFGN86JB7arLipWAQCBzDbsBJe/jG+8ARI9PBw+DpeVoPPPfsNvPTF
7ZedudTbpSeE4zibi6c1hkQgpDttpGoLoYP9KOva7yj2zIhd+wo7AKvgIeviLzVs
D440RZfroveZMzV+y5qKu0VN5z+fwtmK+mWybsd+Zf/okuEsMaL3sCc2SI8mbzvu
TXYfecPlf5Y1vC0OzAGwjn//UYCAp5LUs0RGZIyHTxZjBzFLY7Df8w==
-----END CERTIFICATE-----

Certificate:
    Data:
        Version: 3 (0x2)
        Serial Number:
            11:21:d6:99:a7:64:97:3e:f1:f8:42:7e:e9:19:cc:53:41:14
    Signature Algorithm: sha1WithRSAEncryption
        Issuer: C=BE, O=GlobalSign nv-sa, CN=GlobalSign Timestamping CA - G2
        Validity
            Not Before: May 24 00:00:00 2016 GMT
            Not After : Jun 24 00:00:00 2027 GMT
        Subject: C=SG, O=GMO GlobalSign Pte Ltd, CN=GlobalSign TSA for MS Authenticode - G2
        Subject Public Key Info:
            Public Key Algorithm: rsaEncryption
                Public-Key: (2048 bit)
                Modulus:
                    00:b0:17:ae:a2:d3:b6:04:30:56:1e:58:0f:b1:ed:
                    55:a4:d6:54:cb:d8:f6:73:3a:ec:5d:5e:ab:25:fd:
                    36:a5:fa:84:c3:61:40:c5:46:b5:59:52:3b:42:a2:
                    2e:5f:13:62:10:a9:5b:e6:73:d6:92:25:b1:7d:23:
                    e3:06:b3:87:3a:0e:43:f0:d7:00:89:53:a2:11:31:
                    52:28:6e:5d:40:72:3c:f2:09:77:a7:49:92:97:d4:
                    6c:90:a0:76:a7:fd:b8:dc:b3:9d:f2:07:60:2c:4f:
                    58:98:00:6b:d3:15:54:e0:fa:dd:ff:80:2c:5f:18:
                    a6:98:ff:d4:ab:ec:a1:45:59:b2:2e:6f:62:5d:e0:
                    d9:19:ac:8b:57:9c:a8:26:2b:d9:17:a5:10:d2:47:
                    08:1a:70:2c:33:8b:7f:68:80:2a:b5:a1:5d:6b:dd:
                    8d:02:02:29:03:aa:7c:37:bb:bb:29:4e:3d:53:93:
                    b3:a6:fa:8f:d2:58:93:15:4c:b9:2d:ab:80:a3:a3:
                    25:fb:af:f7:08:64:b0:7a:44:0f:5c:10:d7:5f:61:
                    37:aa:4e:6b:d3:d2:53:25:9d:82:73:fa:2c:f9:72:
                    b0:a9:19:39:2a:50:fa:a9:d0:3c:3a:ca:e8:5b:ef:
                    f5:5f:51:f4:f9:0a:d9:97:35:de:6a:85:e6:23:04:
                    42:af
                Exponent: 65537 (0x10001)
        X509v3 extensions:
            X509v3 Key Usage: critical
                Digital Signature
            X509v3 Certificate Policies: 
                Policy: 1.3.6.1.4.1.4146.1.30
                  CPS: https://www.globalsign.com/repository/

            X509v3 Basic Constraints: 
                CA:FALSE
            X509v3 Extended Key Usage: critical
                Time Stamping
            X509v3 CRL Distribution Points: 

                Full Name:
                  URI:http://crl.globalsign.com/gs/gstimestampingg2.crl

            Authority Information Access: 
                CA Issuers - URI:http://secure.globalsign.com/cacert/gstimestampingg2.crt

            X509v3 Subject Key Identifier: 
                D4:A2:84:4A:38:5A:18:7F:BA:4F:30:50:BD:9D:D5:7A:87:D6:09:F7
            X509v3 Authority Key Identifier: 
                keyid:46:D8:3E:FF:DC:E3:BE:FF:83:E6:F4:85:9B:B0:DD:6A:D6:14:A9:C1

    Signature Algorithm: sha1WithRSAEncryption
         8f:a9:1a:91:6d:04:a6:37:20:0e:83:96:de:23:d3:6b:6e:1f:
         6e:dd:64:3d:68:21:22:b5:f8:47:36:69:8e:e1:a5:45:c7:24:
         a2:22:b7:29:09:cc:54:5a:ae:c6:bc:cd:63:8e:b3:3d:50:48:
         e5:b4:cc:ae:cd:92:8d:9e:28:8b:13:4a:11:aa:bd:a3:ef:d3:
         b2:36:fc:b4:a1:72:bf:6d:97:63:79:8c:44:bc:70:2f:7e:f3:
         bc:dd:82:53:ab:1a:f6:eb:fa:1c:97:bc:b6:37:9c:a4:1c:30:
         bc:ab:bc:2d:47:36:df:92:20:03:e8:71:c6:58:f6:75:05:9a:
         34:f0:0b:59:5a:82:44:34:aa:80:e4:2f:84:f6:47:5d:96:c9:
         b6:ca:ca:9d:b7:a6:ba:e4:50:d3:d4:37:b8:ba:20:0e:d0:d3:
         92:2a:5b:c4:59:bb:a1:6d:db:3c:ce:44:9d:c1:38:2a:ad:e3:
         8d:bd:cd:09:77:1a:10:be:67:0a:02:36:64:88:b9:b3:1b:26:
         ee:e7:9e:60:c4:46:a8:bc:61:33:6c:cf:4e:b9:9c:b9:6a:f0:
         9f:37:fe:b5:3d:4f:9a:d3:4d:ff:de:20:8e:4e:97:a6:fd:9f:
         09:bc:4d:ca:18:76:c9:b0:4d:85:50:f2:80:d2:1d:06:f5:58:
         04:07:b1:18
-----BEGIN CERTIFICATE-----
MIIEnzCCA4egAwIBAgISESHWmadklz7x+EJ+6RnMU0EUMA0GCSqGSIb3DQEBBQUA
MFIxCzAJBgNVBAYTAkJFMRkwFwYDVQQKExBHbG9iYWxTaWduIG52LXNhMSgwJgYD
VQQDEx9HbG9iYWxTaWduIFRpbWVzdGFtcGluZyBDQSAtIEcyMB4XDTE2MDUyNDAw
MDAwMFoXDTI3MDYyNDAwMDAwMFowYDELMAkGA1UEBhMCU0cxHzAdBgNVBAoTFkdN
TyBHbG9iYWxTaWduIFB0ZSBMdGQxMDAuBgNVBAMTJ0dsb2JhbFNpZ24gVFNBIGZv
ciBNUyBBdXRoZW50aWNvZGUgLSBHMjCCASIwDQYJKoZIhvcNAQEBBQADggEPADCC
AQoCggEBALAXrqLTtgQwVh5YD7HtVaTWVMvY9nM67F1eqyX9NqX6hMNhQMVGtVlS
O0KiLl8TYhCpW+Zz1pIlsX0j4wazhzoOQ/DXAIlTohExUihuXUByPPIJd6dJkpfU
bJCgdqf9uNyznfIHYCxPWJgAa9MVVOD63f+ALF8Yppj/1KvsoUVZsi5vYl3g2Rms
i1ecqCYr2RelENJHCBpwLDOLf2iAKrWhXWvdjQICKQOqfDe7uylOPVOTs6b6j9JY
kxVMuS2rgKOjJfuv9whksHpED1wQ119hN6pOa9PSUyWdgnP6LPlysKkZOSpQ+qnQ
PDrK6Fvv9V9R9PkK2Zc13mqF5iMEQq8CAwEAAaOCAV8wggFbMA4GA1UdDwEB/wQE
AwIHgDBMBgNVHSAERTBDMEEGCSsGAQQBoDIBHjA0MDIGCCsGAQUFBwIBFiZodHRw
czovL3d3dy5nbG9iYWxzaWduLmNvbS9yZXBvc2l0b3J5LzAJBgNVHRMEAjAAMBYG
A1UdJQEB/wQMMAoGCCsGAQUFBwMIMEIGA1UdHwQ7MDkwN6A1oDOGMWh0dHA6Ly9j
cmwuZ2xvYmFsc2lnbi5jb20vZ3MvZ3N0aW1lc3RhbXBpbmdnMi5jcmwwVAYIKwYB
BQUHAQEESDBGMEQGCCsGAQUFBzAChjhodHRwOi8vc2VjdXJlLmdsb2JhbHNpZ24u
Y29tL2NhY2VydC9nc3RpbWVzdGFtcGluZ2cyLmNydDAdBgNVHQ4EFgQU1KKESjha
GH+6TzBQvZ3VeofWCfcwHwYDVR0jBBgwFoAURtg+/9zjvv+D5vSFm7DdatYUqcEw
DQYJKoZIhvcNAQEFBQADggEBAI+pGpFtBKY3IA6Dlt4j02tuH27dZD1oISK1+Ec2
aY7hpUXHJKIitykJzFRarsa8zWOOsz1QSOW0zK7Nko2eKIsTShGqvaPv07I2/LSh
cr9tl2N5jES8cC9+87zdglOrGvbr+hyXvLY3nKQcMLyrvC1HNt+SIAPoccZY9nUF
mjTwC1lagkQ0qoDkL4T2R12WybbKyp23prrkUNPUN7i6IA7Q05IqW8RZu6Ft2zzO
RJ3BOCqt4429zQl3GhC+ZwoCNmSIubMbJu7nnmDERqi8YTNsz065nLlq8J83/rU9
T5rTTf/eII5Ol6b9nwm8TcoYdsmwTYVQ8oDSHQb1WAQHsRg=
-----END CERTIFICATE-----

