Certificate:
    Data:
        Version: 3 (0x2)
        Serial Number: 10 (0xa)
    Signature Algorithm: sha1WithRSAEncryption
        Issuer: C=ZA, ST=Western Cape, L=Cape Town, O=Thawte Consulting cc, OU=Certification Services Division, CN=Thawte Premium Server CA/emailAddress=premium-server@thawte.com
        Validity
            Not Before: Aug  6 00:00:00 2003 GMT
            Not After : Aug  5 23:59:59 2013 GMT
        Subject: C=ZA, O=Thawte Consulting (Pty) Ltd., CN=Thawte Code Signing CA
        Subject Public Key Info:
            Public Key Algorithm: rsaEncryption
                Public-Key: (1024 bit)
                Modulus:
                    00:c6:b8:b9:27:60:af:0b:e3:91:69:65:db:7e:8d:
                    ed:91:e6:aa:f1:be:d5:ed:fe:6d:d4:2c:7f:d1:70:
                    77:fb:26:99:57:b4:dd:3f:30:b8:dc:21:ea:68:8d:
                    81:92:fc:2e:4b:91:35:84:20:f2:da:4a:ba:b4:fc:
                    e6:da:88:f2:20:c5:21:92:09:47:95:a0:09:1c:a6:
                    79:be:b1:4c:1d:fc:f1:8a:6e:54:d2:69:a1:f1:4c:
                    93:3a:41:fe:7d:d4:64:7b:63:45:f7:60:60:1d:31:
                    1d:a4:e9:d3:0f:8b:fb:6e:26:24:b3:a8:ff:e5:e5:
                    90:d4:b4:c2:dc:50:60:ae:59
                Exponent: 65537 (0x10001)
        X509v3 extensions:
            X509v3 Basic Constraints: critical
                CA:TRUE, pathlen:0
            X509v3 CRL Distribution Points: 

                Full Name:
                  URI:http://crl.thawte.com/ThawtePremiumServerCA.crl

            X509v3 Extended Key Usage: 
                TLS Web Client Authentication, Code Signing
            X509v3 Key Usage: critical
                Certificate Sign, CRL Sign
            X509v3 Subject Alternative Name: 
                DirName:/CN=PrivateLabel2-144
    Signature Algorithm: sha1WithRSAEncryption
         76:b2:9c:ee:13:9f:1b:f6:2d:34:92:94:45:73:34:dc:8e:6b:
         2e:5c:fc:4c:7d:89:eb:c3:68:f1:d7:99:0f:2e:1d:17:c8:b5:
         16:8b:be:cd:8a:05:06:f2:19:49:3a:03:5b:05:c9:20:8e:6d:
         52:e1:76:81:a0:c3:65:8a:22:67:e4:1c:53:53:37:46:bf:bc:
         d7:2f:eb:7b:9e:d0:14:45:6c:40:21:08:e2:5d:75:76:66:30:
         1e:f4:df:82:8a:2f:bd:f3:a2:0c:bf:1d:db:9f:14:a2:9a:72:
         37:4d:b0:77:48:e8:4a:3f:09:ce:55:19:2c:ef:e6:07:24:e1:
         af:ec
-----BEGIN CERTIFICATE-----
MIIDTjCCAregAwIBAgIBCjANBgkqhkiG9w0BAQUFADCBzjELMAkGA1UEBhMCWkEx
FTATBgNVBAgTDFdlc3Rlcm4gQ2FwZTESMBAGA1UEBxMJQ2FwZSBUb3duMR0wGwYD
VQQKExRUaGF3dGUgQ29uc3VsdGluZyBjYzEoMCYGA1UECxMfQ2VydGlmaWNhdGlv
biBTZXJ2aWNlcyBEaXZpc2lvbjEhMB8GA1UEAxMYVGhhd3RlIFByZW1pdW0gU2Vy
dmVyIENBMSgwJgYJKoZIhvcNAQkBFhlwcmVtaXVtLXNlcnZlckB0aGF3dGUuY29t
MB4XDTAzMDgwNjAwMDAwMFoXDTEzMDgwNTIzNTk1OVowVTELMAkGA1UEBhMCWkEx
JTAjBgNVBAoTHFRoYXd0ZSBDb25zdWx0aW5nIChQdHkpIEx0ZC4xHzAdBgNVBAMT
FlRoYXd0ZSBDb2RlIFNpZ25pbmcgQ0EwgZ8wDQYJKoZIhvcNAQEBBQADgY0AMIGJ
AoGBAMa4uSdgrwvjkWll236N7ZHmqvG+1e3+bdQsf9Fwd/smmVe03T8wuNwh6miN
gZL8LkuRNYQg8tpKurT85tqI8iDFIZIJR5WgCRymeb6xTB388YpuVNJpofFMkzpB
/n3UZHtjRfdgYB0xHaTp0w+L+24mJLOo/+XlkNS0wtxQYK5ZAgMBAAGjgbMwgbAw
EgYDVR0TAQH/BAgwBgEB/wIBADBABgNVHR8EOTA3MDWgM6Axhi9odHRwOi8vY3Js
LnRoYXd0ZS5jb20vVGhhd3RlUHJlbWl1bVNlcnZlckNBLmNybDAdBgNVHSUEFjAU
BggrBgEFBQcDAgYIKwYBBQUHAwMwDgYDVR0PAQH/BAQDAgEGMCkGA1UdEQQiMCCk
HjAcMRowGAYDVQQDExFQcml2YXRlTGFiZWwyLTE0NDANBgkqhkiG9w0BAQUFAAOB
gQB2spzuE58b9i00kpRFczTcjmsuXPxMfYnrw2jx15kPLh0XyLUWi77NigUG8hlJ
OgNbBckgjm1S4XaBoMNliiJn5BxTUzdGv7zXL+t7ntAURWxAIQjiXXV2ZjAe9N+C
ii+986IMvx3bnxSimnI3TbB3SOhKPwnOVRks7+YHJOGv7A==
-----END CERTIFICATE-----

Certificate:
    Data:
        Version: 3 (0x2)
        Serial Number:
            38:25:d7:fa:f8:61:af:9e:f4:90:e7:26:b5:d6:5a:d5
    Signature Algorithm: sha1WithRSAEncryption
        Issuer: C=US, O=VeriSign, Inc., CN=VeriSign Time Stamping Services CA
        Validity
            Not Before: Jun 15 00:00:00 2007 GMT
            Not After : Jun 14 23:59:59 2012 GMT
        Subject: C=US, O=VeriSign, Inc., CN=VeriSign Time Stamping Services Signer - G2
        Subject Public Key Info:
            Public Key Algorithm: rsaEncryption
                Public-Key: (1024 bit)
                Modulus:
                    00:c4:b5:f2:52:15:bc:88:86:60:29:16:4a:5b:2f:
                    4b:91:6b:87:91:f3:35:54:58:35:ea:d1:36:5e:62:
                    4d:52:51:34:71:c2:7b:66:1d:89:c8:dd:2a:c4:6a:
                    0a:f6:37:d9:98:74:91:f6:92:ae:b0:b5:76:96:f1:
                    a9:4a:63:45:47:2e:6b:0b:92:4e:4b:2b:8c:ee:58:
                    4a:8b:d4:07:e4:1a:2c:f8:82:aa:58:d9:cd:42:f3:
                    2d:c0:75:de:8d:ab:c7:8e:1d:9a:6c:4c:08:95:1e:
                    de:db:ef:67:e1:72:c2:49:c2:9e:60:3c:e1:e2:be:
                    16:a3:63:78:69:14:7b:ad:2d
                Exponent: 65537 (0x10001)
        X509v3 extensions:
            Authority Information Access: 
                OCSP - URI:http://ocsp.verisign.com

            X509v3 Basic Constraints: critical
                CA:FALSE
            X509v3 CRL Distribution Points: 

                Full Name:
                  URI:http://crl.verisign.com/tss-ca.crl

            X509v3 Extended Key Usage: critical
                Time Stamping
            X509v3 Key Usage: critical
                Digital Signature, Non Repudiation
            X509v3 Subject Alternative Name: 
                DirName:/CN=TSA1-2
    Signature Algorithm: sha1WithRSAEncryption
         50:c5:4b:c8:24:80:df:e4:0d:24:c2:de:1a:b1:a1:02:a1:a6:
         82:2d:0c:83:15:81:37:0a:82:0e:2c:b0:5a:17:61:b5:d8:05:
         fe:88:db:f1:91:91:b3:56:1a:40:a6:eb:92:be:38:39:b0:75:
         36:74:3a:98:4f:e4:37:ba:99:89:ca:95:42:1d:b0:b9:c7:a0:
         8d:57:e0:fa:d5:64:04:42:35:4e:01:d1:33:a2:17:c8:4d:aa:
         27:c7:f2:e1:86:4c:02:38:4d:83:78:c6:fc:53:e0:eb:e0:06:
         87:dd:a4:96:9e:5e:0c:98:e2:a5:be:bf:82:85:c3:60:e1:df:
         ad:28:d8:c7:a5:4b:64:da:c7:1b:5b:bd:ac:39:08:d5:38:22:
         a1:33:8b:2f:8a:9a:eb:bc:07:21:3f:44:41:09:07:b5:65:1c:
         24:bc:48:d3:44:80:eb:a1:cf:c9:02:b4:14:cf:54:c7:16:a3:
         80:5c:f9:79:3e:5d:72:7d:88:17:9e:2c:43:a2:ca:53:ce:7d:
         3d:f6:2a:3a:b8:4f:94:00:a5:6d:0a:83:5d:f9:5e:53:f4:18:
         b3:57:0f:70:c3:fb:f5:ad:95:a0:0e:17:de:c4:16:80:60:c9:
         0f:2b:6e:86:04:f1:eb:f4:78:27:d1:05:c5:ee:34:5b:5e:b9:
         49:32:f2:33
-----BEGIN CERTIFICATE-----
MIIDejCCAmKgAwIBAgIQOCXX+vhhr570kOcmtdZa1TANBgkqhkiG9w0BAQUFADBT
MQswCQYDVQQGEwJVUzEXMBUGA1UEChMOVmVyaVNpZ24sIEluYy4xKzApBgNVBAMT
IlZlcmlTaWduIFRpbWUgU3RhbXBpbmcgU2VydmljZXMgQ0EwHhcNMDcwNjE1MDAw
MDAwWhcNMTIwNjE0MjM1OTU5WjBcMQswCQYDVQQGEwJVUzEXMBUGA1UEChMOVmVy
aVNpZ24sIEluYy4xNDAyBgNVBAMTK1ZlcmlTaWduIFRpbWUgU3RhbXBpbmcgU2Vy
dmljZXMgU2lnbmVyIC0gRzIwgZ8wDQYJKoZIhvcNAQEBBQADgY0AMIGJAoGBAMS1
8lIVvIiGYCkWSlsvS5Frh5HzNVRYNerRNl5iTVJRNHHCe2YdicjdKsRqCvY32Zh0
kfaSrrC1dpbxqUpjRUcuawuSTksrjO5YSovUB+QaLPiCqljZzULzLcB13o2rx44d
mmxMCJUe3tvvZ+FywknCnmA84eK+FqNjeGkUe60tAgMBAAGjgcQwgcEwNAYIKwYB
BQUHAQEEKDAmMCQGCCsGAQUFBzABhhhodHRwOi8vb2NzcC52ZXJpc2lnbi5jb20w
DAYDVR0TAQH/BAIwADAzBgNVHR8ELDAqMCigJqAkhiJodHRwOi8vY3JsLnZlcmlz
aWduLmNvbS90c3MtY2EuY3JsMBYGA1UdJQEB/wQMMAoGCCsGAQUFBwMIMA4GA1Ud
DwEB/wQEAwIGwDAeBgNVHREEFzAVpBMwETEPMA0GA1UEAxMGVFNBMS0yMA0GCSqG
SIb3DQEBBQUAA4IBAQBQxUvIJIDf5A0kwt4asaECoaaCLQyDFYE3CoIOLLBaF2G1
2AX+iNvxkZGzVhpApuuSvjg5sHU2dDqYT+Q3upmJypVCHbC5x6CNV+D61WQEQjVO
AdEzohfITaonx/LhhkwCOE2DeMb8U+Dr4AaH3aSWnl4MmOKlvr+ChcNg4d+tKNjH
pUtk2scbW72sOQjVOCKhM4sviprrvAchP0RBCQe1ZRwkvEjTRIDroc/JArQUz1TH
FqOAXPl5Pl1yfYgXnixDospTzn099io6uE+UAKVtCoNd+V5T9BizVw9ww/v1rZWg
DhfexBaAYMkPK26GBPHr9Hgn0QXF7jRbXrlJMvIz
-----END CERTIFICATE-----

Certificate:
    Data:
        Version: 3 (0x2)
        Serial Number:
            47:bf:19:95:df:8d:52:46:43:f7:db:6d:48:0d:31:a4
    Signature Algorithm: sha1WithRSAEncryption
        Issuer: C=ZA, ST=Western Cape, L=Durbanville, O=Thawte, OU=Thawte Certification, CN=Thawte Timestamping CA
        Validity
            Not Before: Dec  4 00:00:00 2003 GMT
            Not After : Dec  3 23:59:59 2013 GMT
        Subject: C=US, O=VeriSign, Inc., CN=VeriSign Time Stamping Services CA
        Subject Public Key Info:
            Public Key Algorithm: rsaEncryption
                Public-Key: (2048 bit)
                Modulus:
                    00:a9:ca:b2:a4:cc:cd:20:af:0a:7d:89:ac:87:75:
                    f0:b4:4e:f1:df:c1:0f:bf:67:61:bd:a3:64:1c:da:
                    bb:f9:ca:33:ab:84:30:89:58:7e:8c:db:6b:dd:36:
                    9e:0f:bf:d1:ec:78:f2:77:a6:7e:6f:3c:bf:93:af:
                    0d:ba:68:f4:6c:94:ca:bd:52:2d:ab:48:3d:f5:b6:
                    d5:5d:5f:1b:02:9f:fa:2f:6b:1e:a4:f7:a3:9a:a6:
                    1a:c8:02:e1:7f:4c:52:e3:0e:60:ec:40:1c:7e:b9:
                    0d:de:3f:c7:b4:df:87:bd:5f:7a:6a:31:2e:03:99:
                    81:13:a8:47:20:ce:31:73:0d:57:2d:cd:78:34:33:
                    95:12:99:12:b9:de:68:2f:aa:e6:e3:c2:8a:8c:2a:
                    c3:8b:21:87:66:bd:83:58:57:6f:75:bf:3c:aa:26:
                    87:5d:ca:10:15:3c:9f:84:ea:54:c1:0a:6e:c4:fe:
                    c5:4a:dd:b9:07:11:97:22:7c:db:3e:27:d1:1e:78:
                    ec:9f:31:c9:f1:e6:22:19:db:c4:b3:47:43:9a:1a:
                    5f:a0:1e:90:e4:5e:f5:ee:7c:f1:7d:ab:62:01:8f:
                    f5:4d:0b:de:d0:22:56:a8:95:cd:ae:88:76:ae:ee:
                    ba:0d:f3:e4:4d:d9:a0:fb:68:a0:ae:14:3b:b3:87:
                    c1:bb
                Exponent: 65537 (0x10001)
        X509v3 extensions:
            Authority Information Access: 
                OCSP - URI:http://ocsp.verisign.com

            X509v3 Basic Constraints: critical
                CA:TRUE, pathlen:0
            X509v3 CRL Distribution Points: 

                Full Name:
                  URI:http://crl.verisign.com/ThawteTimestampingCA.crl

            X509v3 Extended Key Usage: 
                Time Stamping
            X509v3 Key Usage: critical
                Certificate Sign, CRL Sign
            X509v3 Subject Alternative Name: 
                DirName:/CN=TSA2048-1-53
    Signature Algorithm: sha1WithRSAEncryption
         4a:6b:f9:ea:58:c2:44:1c:31:89:79:99:2b:96:bf:82:ac:01:
         d6:1c:4c:cd:b0:8a:58:6e:df:08:29:a3:5e:c8:ca:93:13:e7:
         04:52:0d:ef:47:27:2f:00:38:b0:e4:c9:93:4e:9a:d4:22:62:
         15:f7:3f:37:21:4f:70:31:80:f1:8b:38:87:b3:e8:e8:97:00:
         fe:cf:55:96:4e:24:d2:a9:27:4e:7a:ae:b7:61:41:f3:2a:ce:
         e7:c9:d9:5e:dd:bb:2b:85:3e:b5:9d:b5:d9:e1:57:ff:be:b4:
         c5:7e:f5:cf:0c:9e:f0:97:fe:2b:d3:3b:52:1b:1b:38:27:f7:
         3f:4a
-----BEGIN CERTIFICATE-----
MIIDxDCCAy2gAwIBAgIQR78Zld+NUkZD99ttSA0xpDANBgkqhkiG9w0BAQUFADCB
izELMAkGA1UEBhMCWkExFTATBgNVBAgTDFdlc3Rlcm4gQ2FwZTEUMBIGA1UEBxML
RHVyYmFudmlsbGUxDzANBgNVBAoTBlRoYXd0ZTEdMBsGA1UECxMUVGhhd3RlIENl
cnRpZmljYXRpb24xHzAdBgNVBAMTFlRoYXd0ZSBUaW1lc3RhbXBpbmcgQ0EwHhcN
MDMxMjA0MDAwMDAwWhcNMTMxMjAzMjM1OTU5WjBTMQswCQYDVQQGEwJVUzEXMBUG
A1UEChMOVmVyaVNpZ24sIEluYy4xKzApBgNVBAMTIlZlcmlTaWduIFRpbWUgU3Rh
bXBpbmcgU2VydmljZXMgQ0EwggEiMA0GCSqGSIb3DQEBAQUAA4IBDwAwggEKAoIB
AQCpyrKkzM0grwp9iayHdfC0TvHfwQ+/Z2G9o2Qc2rv5yjOrhDCJWH6M22vdNp4P
v9HsePJ3pn5vPL+Trw26aPRslMq9Ui2rSD31ttVdXxsCn/ovax6k96OaphrIAuF/
TFLjDmDsQBx+uQ3eP8e034e9X3pqMS4DmYETqEcgzjFzDVctzXg0M5USmRK53mgv
qubjwoqMKsOLIYdmvYNYV291vzyqJoddyhAVPJ+E6lTBCm7E/sVK3bkHEZcifNs+
J9EeeOyfMcnx5iIZ28SzR0OaGl+gHpDkXvXufPF9q2IBj/VNC97QIlaolc2uiHau
7roN8+RN2aD7aKCuFDuzh8G7AgMBAAGjgdswgdgwNAYIKwYBBQUHAQEEKDAmMCQG
CCsGAQUFBzABhhhodHRwOi8vb2NzcC52ZXJpc2lnbi5jb20wEgYDVR0TAQH/BAgw
BgEB/wIBADBBBgNVHR8EOjA4MDagNKAyhjBodHRwOi8vY3JsLnZlcmlzaWduLmNv
bS9UaGF3dGVUaW1lc3RhbXBpbmdDQS5jcmwwEwYDVR0lBAwwCgYIKwYBBQUHAwgw
DgYDVR0PAQH/BAQDAgEGMCQGA1UdEQQdMBukGTAXMRUwEwYDVQQDEwxUU0EyMDQ4
LTEtNTMwDQYJKoZIhvcNAQEFBQADgYEASmv56ljCRBwxiXmZK5a/gqwB1hxMzbCK
WG7fCCmjXsjKkxPnBFIN70cnLwA4sOTJk06a1CJiFfc/NyFPcDGA8Ys4h7Po6JcA
/s9Vlk4k0qknTnqut2FB8yrO58nZXt27K4U+tZ212eFX/760xX71zwye8Jf+K9M7
UhsbOCf3P0o=
-----END CERTIFICATE-----

Certificate:
    Data:
        Version: 3 (0x2)
        Serial Number:
            5c:d1:6d:5c:35:5c:ee:c9:23:c6:d1:04:fe:9a:dd:77
    Signature Algorithm: sha1WithRSAEncryption
        Issuer: C=ZA, O=Thawte Consulting (Pty) Ltd., CN=Thawte Code Signing CA
        Validity
            Not Before: Mar 11 16:36:30 2009 GMT
            Not After : Mar 13 00:21:50 2011 GMT
        Subject: C=US, ST=Washington, L=Redmond, O=WildTangent Inc, OU=Product Development, CN=WildTangent Inc
        Subject Public Key Info:
            Public Key Algorithm: rsaEncryption
                Public-Key: (2048 bit)
                Modulus:
                    00:e9:74:ed:df:05:07:f9:ae:1b:ca:fa:43:de:93:
                    c4:f5:ec:37:27:1d:8d:55:fb:da:1a:1e:c7:80:05:
                    ea:d6:df:ec:64:40:8d:16:36:55:f2:ff:37:c5:a5:
                    ad:72:99:b8:d2:07:70:b0:fa:04:03:8d:e9:69:13:
                    ba:10:ed:fa:25:fe:3b:8f:19:7c:aa:bc:40:6d:60:
                    eb:83:86:45:29:ef:4c:1b:ec:d9:2d:c9:aa:4f:7e:
                    70:75:32:3f:52:cb:1e:97:41:67:9a:a0:d0:66:e2:
                    cc:6b:88:d8:ab:bf:ca:6b:c4:c0:f5:00:1f:1f:0e:
                    a9:15:48:fa:11:36:05:5d:1c:05:f9:53:66:33:83:
                    64:0f:37:2e:ea:90:16:74:c1:ff:80:fe:5f:9a:ad:
                    90:6f:2d:52:c4:26:22:89:b6:8c:9c:f9:f7:c3:65:
                    76:e5:92:79:8c:d9:b0:02:0a:52:5f:bf:c1:f3:a3:
                    2c:55:e9:03:ff:6e:5c:cc:ee:c0:99:7a:4a:eb:d2:
                    61:40:5b:7a:4c:8a:45:76:b2:5d:24:8b:85:1b:98:
                    05:36:41:0c:95:4e:83:8a:6a:b7:bc:4f:76:1b:dd:
                    8b:3e:e7:1c:31:7c:57:a3:2b:af:8d:d2:30:e3:4e:
                    05:58:11:93:00:1f:62:56:fe:59:70:cb:fa:ff:23:
                    b4:93
                Exponent: 65537 (0x10001)
        X509v3 extensions:
            X509v3 Extended Key Usage: 
                Code Signing, Microsoft Commercial Code Signing
            Netscape Cert Type: 
                Object Signing
            2.5.29.4: 
                0.0.0..
+.....7.......
            X509v3 Subject Alternative Name: 
                DNS:www.wildtangent.com
            X509v3 CRL Distribution Points: 

                Full Name:
                  URI:http://crl.thawte.com/ThawteCodeSigningCA.crl

            Authority Information Access: 
                OCSP - URI:http://ocsp.thawte.com

            X509v3 Basic Constraints: critical
                CA:FALSE
    Signature Algorithm: sha1WithRSAEncryption
         50:09:ff:bc:d3:9a:29:d8:7a:a9:2f:22:7b:e6:42:dc:e2:20:
         05:a6:f8:2b:c2:b8:5a:ee:8b:85:ba:6e:df:16:24:ca:b6:5a:
         f4:c6:21:a1:1b:b9:4e:12:88:e6:ee:8d:a3:72:94:a8:73:89:
         33:66:63:61:20:06:c2:18:86:0b:d1:d2:4c:8d:0b:fc:a9:f1:
         4c:b3:2d:7d:0b:ee:6e:47:5f:4a:34:68:24:17:55:96:7d:f0:
         36:38:72:ae:8c:39:35:9e:eb:65:32:9a:11:5d:12:33:26:7d:
         d6:ce:b6:d4:a7:6f:a6:b3:88:7c:f6:7f:d4:76:9a:74:59:8b:
         30:ef
-----BEGIN CERTIFICATE-----
MIID3jCCA0egAwIBAgIQXNFtXDVc7skjxtEE/prddzANBgkqhkiG9w0BAQUFADBV
MQswCQYDVQQGEwJaQTElMCMGA1UEChMcVGhhd3RlIENvbnN1bHRpbmcgKFB0eSkg
THRkLjEfMB0GA1UEAxMWVGhhd3RlIENvZGUgU2lnbmluZyBDQTAeFw0wOTAzMTEx
NjM2MzBaFw0xMTAzMTMwMDIxNTBaMIGGMQswCQYDVQQGEwJVUzETMBEGA1UECBMK
V2FzaGluZ3RvbjEQMA4GA1UEBxMHUmVkbW9uZDEYMBYGA1UEChMPV2lsZFRhbmdl
bnQgSW5jMRwwGgYDVQQLExNQcm9kdWN0IERldmVsb3BtZW50MRgwFgYDVQQDEw9X
aWxkVGFuZ2VudCBJbmMwggEiMA0GCSqGSIb3DQEBAQUAA4IBDwAwggEKAoIBAQDp
dO3fBQf5rhvK+kPek8T17DcnHY1V+9oaHseABerW3+xkQI0WNlXy/zfFpa1ymbjS
B3Cw+gQDjelpE7oQ7fol/juPGXyqvEBtYOuDhkUp70wb7NktyapPfnB1Mj9Syx6X
QWeaoNBm4sxriNirv8prxMD1AB8fDqkVSPoRNgVdHAX5U2Yzg2QPNy7qkBZ0wf+A
/l+arZBvLVLEJiKJtoyc+ffDZXblknmM2bACClJfv8HzoyxV6QP/blzM7sCZekrr
0mFAW3pMikV2sl0ki4UbmAU2QQyVToOKare8T3Yb3Ys+5xwxfFejK6+N0jDjTgVY
EZMAH2JW/llwy/r/I7STAgMBAAGjgfgwgfUwHwYDVR0lBBgwFgYIKwYBBQUHAwMG
CisGAQQBgjcCARYwEQYJYIZIAYb4QgEBBAQDAgQQMB0GA1UdBAQWMBQwDjAMBgor
BgEEAYI3AgEWAwIHgDAeBgNVHREEFzAVghN3d3cud2lsZHRhbmdlbnQuY29tMD4G
A1UdHwQ3MDUwM6AxoC+GLWh0dHA6Ly9jcmwudGhhd3RlLmNvbS9UaGF3dGVDb2Rl
U2lnbmluZ0NBLmNybDAyBggrBgEFBQcBAQQmMCQwIgYIKwYBBQUHMAGGFmh0dHA6
Ly9vY3NwLnRoYXd0ZS5jb20wDAYDVR0TAQH/BAIwADANBgkqhkiG9w0BAQUFAAOB
gQBQCf+805op2HqpLyJ75kLc4iAFpvgrwrha7ouFum7fFiTKtlr0xiGhG7lOEojm
7o2jcpSoc4kzZmNhIAbCGIYL0dJMjQv8qfFMsy19C+5uR19KNGgkF1WWffA2OHKu
jDk1nutlMpoRXRIzJn3WzrbUp2+ms4h89n/Udpp0WYsw7w==
-----END CERTIFICATE-----

