Certificate:
    Data:
        Version: 3 (0x2)
        Serial Number:
            04:00:00:00:00:01:25:07:1d:f9:af
    Signature Algorithm: sha256WithRSAEncryption
        Issuer: C=BE, O=GlobalSign nv-sa, OU=Root CA, CN=GlobalSign Root CA
        Validity
            Not Before: Nov 18 10:00:00 2009 GMT
            Not After : Mar 18 10:00:00 2019 GMT
        Subject: OU=GlobalSign Root CA - R3, O=GlobalSign, CN=GlobalSign
        Subject Public Key Info:
            Public Key Algorithm: rsaEncryption
                Public-Key: (2048 bit)
                Modulus:
                    00:cc:25:76:90:79:06:78:22:16:f5:c0:83:b6:84:
                    ca:28:9e:fd:05:76:11:c5:ad:88:72:fc:46:02:43:
                    c7:b2:8a:9d:04:5f:24:cb:2e:4b:e1:60:82:46:e1:
                    52:ab:0c:81:47:70:6c:dd:64:d1:eb:f5:2c:a3:0f:
                    82:3d:0c:2b:ae:97:d7:b6:14:86:10:79:bb:3b:13:
                    80:77:8c:08:e1:49:d2:6a:62:2f:1f:5e:fa:96:68:
                    df:89:27:95:38:9f:06:d7:3e:c9:cb:26:59:0d:73:
                    de:b0:c8:e9:26:0e:83:15:c6:ef:5b:8b:d2:04:60:
                    ca:49:a6:28:f6:69:3b:f6:cb:c8:28:91:e5:9d:8a:
                    61:57:37:ac:74:14:dc:74:e0:3a:ee:72:2f:2e:9c:
                    fb:d0:bb:bf:f5:3d:00:e1:06:33:e8:82:2b:ae:53:
                    a6:3a:16:73:8c:dd:41:0e:20:3a:c0:b4:a7:a1:e9:
                    b2:4f:90:2e:32:60:e9:57:cb:b9:04:92:68:68:e5:
                    38:26:60:75:b2:9f:77:ff:91:14:ef:ae:20:49:fc:
                    ad:40:15:48:d1:02:31:61:19:5e:b8:97:ef:ad:77:
                    b7:64:9a:7a:bf:5f:c1:13:ef:9b:62:fb:0d:6c:e0:
                    54:69:16:a9:03:da:6e:e9:83:93:71:76:c6:69:85:
                    82:17
                Exponent: 65537 (0x10001)
        X509v3 extensions:
            X509v3 Key Usage: critical
                Certificate Sign, CRL Sign
            X509v3 Basic Constraints: critical
                CA:TRUE
            X509v3 Subject Key Identifier: 
                8F:F0:4B:7F:A8:2E:45:24:AE:4D:50:FA:63:9A:8B:DE:E2:DD:1B:BC
            X509v3 Certificate Policies: 
                Policy: X509v3 Any Policy
                  CPS: http://www.globalsign.net/repository/

            X509v3 CRL Distribution Points: 

                Full Name:
                  URI:http://crl.globalsign.net/root.crl

            Authority Information Access: 
                OCSP - URI:http://ocsp.globalsign.com/ExtendedSSLSHA256CACross

            X509v3 Authority Key Identifier: 
                keyid:60:7B:66:1A:45:0D:97:CA:89:50:2F:7D:04:CD:34:A8:FF:FC:FD:4B

    Signature Algorithm: sha256WithRSAEncryption
         42:52:a9:7e:a2:cf:5b:3b:cb:4b:dd:ba:f8:57:59:d3:24:a4:
         77:72:ef:62:44:37:82:ed:06:ee:04:d5:16:5f:24:a3:14:dc:
         6c:54:05:6a:b0:9b:3d:da:81:39:da:ad:28:db:95:6f:81:83:
         f5:cd:62:b1:45:24:b1:dd:29:e5:08:54:95:95:8c:f0:1d:06:
         5f:1a:d6:46:3f:13:40:17:48:11:16:9b:47:4d:d1:3a:b5:0f:
         57:1c:92:30:d0:f8:b2:25:3b:0a:cd:f6:87:f9:c7:b2:57:d3:
         3f:7d:a5:8c:14:ce:9c:a8:c7:9f:46:93:da:59:fa:79:5d:65:
         20:35:44:5a:4f:c1:90:9d:c1:54:92:56:dc:34:c8:f5:c1:03:
         d0:5d:c0:59:48:9c:00:fc:95:a0:f1:d1:76:f7:16:36:c8:13:
         92:7f:2d:2b:c0:b8:80:f1:26:26:1f:41:4d:52:bf:1e:97:bb:
         01:82:08:e7:15:f6:c1:d5:34:2a:cc:f5:e4:c3:87:7a:57:81:
         e1:d6:d7:42:86:62:01:77:e2:a9:c4:7a:86:f4:04:38:7a:07:
         6a:7d:00:ec:73:f7:a8:0b:34:78:c5:9e:b3:ef:b8:38:40:0e:
         8c:33:53:c8:75:ec:5f:3e:ea:75:5e:ff:82:0e:74:15:dc:19:
         05:f3:ba:31
-----BEGIN CERTIFICATE-----
MIIEXTCCA0WgAwIBAgILBAAAAAABJQcd+a8wDQYJKoZIhvcNAQELBQAwVzELMAkG
A1UEBhMCQkUxGTAXBgNVBAoTEEdsb2JhbFNpZ24gbnYtc2ExEDAOBgNVBAsTB1Jv
b3QgQ0ExGzAZBgNVBAMTEkdsb2JhbFNpZ24gUm9vdCBDQTAeFw0wOTExMTgxMDAw
MDBaFw0xOTAzMTgxMDAwMDBaMEwxIDAeBgNVBAsTF0dsb2JhbFNpZ24gUm9vdCBD
QSAtIFIzMRMwEQYDVQQKEwpHbG9iYWxTaWduMRMwEQYDVQQDEwpHbG9iYWxTaWdu
MIIBIjANBgkqhkiG9w0BAQEFAAOCAQ8AMIIBCgKCAQEAzCV2kHkGeCIW9cCDtoTK
KJ79BXYRxa2IcvxGAkPHsoqdBF8kyy5L4WCCRuFSqwyBR3Bs3WTR6/Usow+CPQwr
rpfXthSGEHm7OxOAd4wI4UnSamIvH176lmjfiSeVOJ8G1z7JyyZZDXPesMjpJg6D
FcbvW4vSBGDKSaYo9mk79svIKJHlnYphVzesdBTcdOA67nIvLpz70Lu/9T0A4QYz
6IIrrlOmOhZzjN1BDiA6wLSnoemyT5AuMmDpV8u5BJJoaOU4JmB1sp93/5EU764g
SfytQBVI0QIxYRleuJfvrXe3ZJp6v1/BE++bYvsNbOBUaRapA9pu6YOTcXbGaYWC
FwIDAQABo4IBMzCCAS8wDgYDVR0PAQH/BAQDAgEGMA8GA1UdEwEB/wQFMAMBAf8w
HQYDVR0OBBYEFI/wS3+oLkUkrk1Q+mOai97i3Ru8MEYGA1UdIAQ/MD0wOwYEVR0g
ADAzMDEGCCsGAQUFBwIBFiVodHRwOi8vd3d3Lmdsb2JhbHNpZ24ubmV0L3JlcG9z
aXRvcnkvMDMGA1UdHwQsMCowKKAmoCSGImh0dHA6Ly9jcmwuZ2xvYmFsc2lnbi5u
ZXQvcm9vdC5jcmwwTwYIKwYBBQUHAQEEQzBBMD8GCCsGAQUFBzABhjNodHRwOi8v
b2NzcC5nbG9iYWxzaWduLmNvbS9FeHRlbmRlZFNTTFNIQTI1NkNBQ3Jvc3MwHwYD
VR0jBBgwFoAUYHtmGkUNl8qJUC99BM00qP/8/UswDQYJKoZIhvcNAQELBQADggEB
AEJSqX6iz1s7y0vduvhXWdMkpHdy72JEN4LtBu4E1RZfJKMU3GxUBWqwmz3agTna
rSjblW+Bg/XNYrFFJLHdKeUIVJWVjPAdBl8a1kY/E0AXSBEWm0dN0Tq1D1cckjDQ
+LIlOwrN9of5x7JX0z99pYwUzpyox59Gk9pZ+nldZSA1RFpPwZCdwVSSVtw0yPXB
A9BdwFlInAD8laDx0Xb3FjbIE5J/LSvAuIDxJiYfQU1Svx6XuwGCCOcV9sHVNCrM
9eTDh3pXgeHW10KGYgF34qnEeob0BDh6B2p9AOxz96gLNHjFnrPvuDhADowzU8h1
7F8+6nVe/4IOdBXcGQXzujE=
-----END CERTIFICATE-----

Certificate:
    Data:
        Version: 3 (0x2)
        Serial Number:
            48:1b:6a:07:a9:42:4c:1e:aa:fe:f3:cd:f1:0f
    Signature Algorithm: sha256WithRSAEncryption
        Issuer: OU=GlobalSign Root CA - R3, O=GlobalSign, CN=GlobalSign
        Validity
            Not Before: Jun 15 00:00:00 2016 GMT
            Not After : Jun 15 00:00:00 2024 GMT
        Subject: C=BE, O=GlobalSign nv-sa, CN=GlobalSign Extended Validation CodeSigning CA - SHA256 - G3
        Subject Public Key Info:
            Public Key Algorithm: rsaEncryption
                Public-Key: (2048 bit)
                Modulus:
                    00:d9:b7:ba:25:ad:94:f3:5b:be:41:06:1c:53:ca:
                    0c:10:8c:51:41:59:33:79:64:f4:57:9d:e4:d5:25:
                    c4:ec:50:84:58:98:72:79:40:e2:2f:78:d4:92:ea:
                    26:0e:9e:ae:95:7c:fb:c4:fd:71:44:dd:8c:5f:b7:
                    23:8b:5e:bb:f4:fc:4b:cb:23:3d:c3:76:03:f5:d1:
                    8c:45:bc:71:75:1d:8b:d2:89:89:be:e3:51:3d:c6:
                    c8:8a:b2:31:35:07:6e:b9:f5:ba:6a:0d:f4:10:9f:
                    ae:d5:62:49:28:7b:ec:57:ba:ab:32:7c:b1:7d:d2:
                    a2:56:06:36:ee:b0:ef:d0:6a:ae:ea:ab:1f:d6:0d:
                    9f:7c:96:fb:ad:70:99:2d:5d:95:f0:80:d0:79:46:
                    ec:55:3a:cc:d3:38:fb:04:07:a8:07:75:82:82:e0:
                    d0:7e:77:b8:8f:eb:d2:28:fc:ae:6d:14:68:41:7f:
                    76:43:d7:48:ba:60:44:e1:b7:72:e8:d0:f0:20:03:
                    7b:da:da:b4:06:75:c7:b2:03:de:f8:94:c6:68:8f:
                    5e:7b:9e:9b:9d:36:e0:ce:d2:6b:c6:c6:6b:e9:14:
                    22:b5:71:7e:b6:8f:5a:1f:db:e7:6e:f4:42:10:90:
                    68:e6:2b:45:10:4f:73:ba:2c:d7:c5:31:6a:72:dd:
                    63:73
                Exponent: 65537 (0x10001)
        X509v3 extensions:
            X509v3 Key Usage: critical
                Certificate Sign, CRL Sign
            X509v3 Extended Key Usage: 
                Code Signing, OCSP Signing
            X509v3 Basic Constraints: critical
                CA:TRUE, pathlen:0
            X509v3 Subject Key Identifier: 
                DC:2C:58:2C:2A:6F:35:2D:9F:79:95:A8:48:5D:C4:6D:3E:53:BF:B9
            X509v3 Authority Key Identifier: 
                keyid:8F:F0:4B:7F:A8:2E:45:24:AE:4D:50:FA:63:9A:8B:DE:E2:DD:1B:BC

            Authority Information Access: 
                OCSP - URI:http://ocsp2.globalsign.com/rootr3

            X509v3 CRL Distribution Points: 

                Full Name:
                  URI:http://crl.globalsign.com/root-r3.crl

            X509v3 Certificate Policies: 
                Policy: 1.3.6.1.4.1.4146.1.2
                Policy: 2.23.140.1.3
                Policy: 1.3.6.1.4.1.4146.1.95
                  CPS: https://www.globalsign.com/repository/

    Signature Algorithm: sha256WithRSAEncryption
         76:09:c4:cc:2f:d9:ef:1e:4b:a9:f8:57:f3:40:39:21:ca:4c:
         3c:1d:9e:29:2b:20:d4:2b:44:d2:88:ce:1a:0d:05:cf:83:81:
         bb:eb:69:bc:31:8d:2a:c4:c7:44:cc:60:60:94:1c:cf:a1:e1:
         02:24:0e:ad:5b:be:2c:c2:27:1e:67:b7:e8:28:1f:32:51:e3:
         39:f3:98:df:b8:9f:2e:8b:2a:b4:7b:0a:03:bc:bd:36:04:8f:
         c9:d0:9c:4f:a3:02:27:99:b0:f0:45:e9:34:df:e4:3a:a3:b7:
         06:37:d8:6f:2a:79:90:d4:d4:4e:58:71:ec:53:a9:61:98:f7:
         39:69:e0:12:9c:57:58:72:86:27:29:a5:1d:e5:32:f3:2b:99:
         97:5a:bf:2b:b0:3c:b4:06:ea:0e:64:ec:b7:cd:65:80:24:17:
         c2:d9:37:f5:b1:26:10:35:47:7b:9a:02:ba:54:a2:45:93:ff:
         79:bf:1a:8c:c5:9f:b5:9f:df:78:e7:6b:50:f1:47:94:69:4b:
         24:b8:da:05:e8:0c:9d:4f:06:ec:4a:31:20:7e:4f:5d:86:84:
         2f:35:a3:cd:9c:c1:84:57:1f:1f:ad:c0:e2:a4:b1:ef:29:6b:
         21:97:a6:d4:fe:ed:03:37:b0:fc:f5:8d:2a:bc:dc:84:83:e3:
         de:c3:e7:5f
-----BEGIN CERTIFICATE-----
MIIEpzCCA4+gAwIBAgIOSBtqB6lCTB6q/vPN8Q8wDQYJKoZIhvcNAQELBQAwTDEg
MB4GA1UECxMXR2xvYmFsU2lnbiBSb290IENBIC0gUjMxEzARBgNVBAoTCkdsb2Jh
bFNpZ24xEzARBgNVBAMTCkdsb2JhbFNpZ24wHhcNMTYwNjE1MDAwMDAwWhcNMjQw
NjE1MDAwMDAwWjBuMQswCQYDVQQGEwJCRTEZMBcGA1UEChMQR2xvYmFsU2lnbiBu
di1zYTFEMEIGA1UEAxM7R2xvYmFsU2lnbiBFeHRlbmRlZCBWYWxpZGF0aW9uIENv
ZGVTaWduaW5nIENBIC0gU0hBMjU2IC0gRzMwggEiMA0GCSqGSIb3DQEBAQUAA4IB
DwAwggEKAoIBAQDZt7olrZTzW75BBhxTygwQjFFBWTN5ZPRXneTVJcTsUIRYmHJ5
QOIveNSS6iYOnq6VfPvE/XFE3YxftyOLXrv0/EvLIz3DdgP10YxFvHF1HYvSiYm+
41E9xsiKsjE1B2659bpqDfQQn67VYkkoe+xXuqsyfLF90qJWBjbusO/Qaq7qqx/W
DZ98lvutcJktXZXwgNB5RuxVOszTOPsEB6gHdYKC4NB+d7iP69Io/K5tFGhBf3ZD
10i6YETht3Lo0PAgA3va2rQGdceyA974lMZoj157npudNuDO0mvGxmvpFCK1cX62
j1of2+du9EIQkGjmK0UQT3O6LNfFMWpy3WNzAgMBAAGjggFjMIIBXzAOBgNVHQ8B
Af8EBAMCAQYwHQYDVR0lBBYwFAYIKwYBBQUHAwMGCCsGAQUFBwMJMBIGA1UdEwEB
/wQIMAYBAf8CAQAwHQYDVR0OBBYEFNwsWCwqbzUtn3mVqEhdxG0+U7+5MB8GA1Ud
IwQYMBaAFI/wS3+oLkUkrk1Q+mOai97i3Ru8MD4GCCsGAQUFBwEBBDIwMDAuBggr
BgEFBQcwAYYiaHR0cDovL29jc3AyLmdsb2JhbHNpZ24uY29tL3Jvb3RyMzA2BgNV
HR8ELzAtMCugKaAnhiVodHRwOi8vY3JsLmdsb2JhbHNpZ24uY29tL3Jvb3QtcjMu
Y3JsMGIGA1UdIARbMFkwCwYJKwYBBAGgMgECMAcGBWeBDAEDMEEGCSsGAQQBoDIB
XzA0MDIGCCsGAQUFBwIBFiZodHRwczovL3d3dy5nbG9iYWxzaWduLmNvbS9yZXBv
c2l0b3J5LzANBgkqhkiG9w0BAQsFAAOCAQEAdgnEzC/Z7x5LqfhX80A5IcpMPB2e
KSsg1CtE0ojOGg0Fz4OBu+tpvDGNKsTHRMxgYJQcz6HhAiQOrVu+LMInHme36Cgf
MlHjOfOY37ifLosqtHsKA7y9NgSPydCcT6MCJ5mw8EXpNN/kOqO3BjfYbyp5kNTU
Tlhx7FOpYZj3OWngEpxXWHKGJymlHeUy8yuZl1q/K7A8tAbqDmTst81lgCQXwtk3
9bEmEDVHe5oCulSiRZP/eb8ajMWftZ/feOdrUPFHlGlLJLjaBegMnU8G7EoxIH5P
XYaELzWjzZzBhFcfH63A4qSx7ylrIZem1P7tAzew/PWNKrzchIPj3sPnXw==
-----END CERTIFICATE-----

Certificate:
    Data:
        Version: 3 (0x2)
        Serial Number:
            61:29:15:27:00:00:00:00:00:2a
    Signature Algorithm: sha1WithRSAEncryption
        Issuer: C=US, ST=Washington, L=Redmond, O=Microsoft Corporation, CN=Microsoft Code Verification Root
        Validity
            Not Before: Apr 15 19:55:08 2011 GMT
            Not After : Apr 15 20:05:08 2021 GMT
        Subject: C=BE, O=GlobalSign nv-sa, OU=Root CA, CN=GlobalSign Root CA
        Subject Public Key Info:
            Public Key Algorithm: rsaEncryption
                Public-Key: (2048 bit)
                Modulus:
                    00:da:0e:e6:99:8d:ce:a3:e3:4f:8a:7e:fb:f1:8b:
                    83:25:6b:ea:48:1f:f1:2a:b0:b9:95:11:04:bd:f0:
                    63:d1:e2:67:66:cf:1c:dd:cf:1b:48:2b:ee:8d:89:
                    8e:9a:af:29:80:65:ab:e9:c7:2d:12:cb:ab:1c:4c:
                    70:07:a1:3d:0a:30:cd:15:8d:4f:f8:dd:d4:8c:50:
                    15:1c:ef:50:ee:c4:2e:f7:fc:e9:52:f2:91:7d:e0:
                    6d:d5:35:30:8e:5e:43:73:f2:41:e9:d5:6a:e3:b2:
                    89:3a:56:39:38:6f:06:3c:88:69:5b:2a:4d:c5:a7:
                    54:b8:6c:89:cc:9b:f9:3c:ca:e5:fd:89:f5:12:3c:
                    92:78:96:d6:dc:74:6e:93:44:61:d1:8d:c7:46:b2:
                    75:0e:86:e8:19:8a:d5:6d:6c:d5:78:16:95:a2:e9:
                    c8:0a:38:eb:f2:24:13:4f:73:54:93:13:85:3a:1b:
                    bc:1e:34:b5:8b:05:8c:b9:77:8b:b1:db:1f:20:91:
                    ab:09:53:6e:90:ce:7b:37:74:b9:70:47:91:22:51:
                    63:16:79:ae:b1:ae:41:26:08:c8:19:2b:d1:46:aa:
                    48:d6:64:2a:d7:83:34:ff:2c:2a:c1:6c:19:43:4a:
                    07:85:e7:d3:7c:f6:21:68:ef:ea:f2:52:9f:7f:93:
                    90:cf
                Exponent: 65537 (0x10001)
        X509v3 extensions:
            X509v3 Certificate Policies: 
                Policy: X509v3 Any Policy

            X509v3 Key Usage: 
                Digital Signature, Certificate Sign, CRL Sign
            X509v3 Basic Constraints: critical
                CA:TRUE
            X509v3 Subject Key Identifier: 
                60:7B:66:1A:45:0D:97:CA:89:50:2F:7D:04:CD:34:A8:FF:FC:FD:4B
            X509v3 Authority Key Identifier: 
                keyid:62:FB:0A:21:5B:7F:43:6E:11:DA:09:54:50:6B:F5:D2:96:71:F1:9E

            X509v3 CRL Distribution Points: 

                Full Name:
                  URI:http://crl.microsoft.com/pki/crl/products/MicrosoftCodeVerifRoot.crl

    Signature Algorithm: sha1WithRSAEncryption
         5f:f8:d0:65:74:6a:81:c6:a6:ca:5b:03:b6:91:4a:e8:4b:bd:
         ef:2b:a1:42:f0:ef:b4:a5:ad:cd:33:89:ec:0b:95:85:ac:62:
         50:11:08:aa:58:d2:5a:a0:83:10:e5:a6:33:7a:f2:5a:f2:c5:
         fe:78:7c:f0:9c:83:df:19:0a:d9:73:96:00:2d:d6:2c:cd:e9:
         14:d4:1d:9d:e8:3f:3c:1a:76:f7:90:4e:fb:01:35:0a:6c:93:
         13:a0:c3:56:eb:67:a0:e4:d1:7a:96:de:c2:67:f1:90:f8:0a:
         7b:f5:32:1b:94:ec:5f:75:1f:8d:1b:34:da:6c:58:a7:cb:2d:
         27:9e:22:26:b7:c9:aa:30:cc:07:77:b8:36:e3:82:01:b5:39:
         3c:cc:8d:d9:a7:5f:7f:23:b3:87:7f:db:57:98:91:8b:d7:ce:
         25:20:e3:9d:64:4f:dd:87:f7:2b:68:49:03:18:e0:a5:df:7c:
         5f:68:64:4d:36:83:8d:47:81:f2:e9:e0:a8:69:ab:fa:7b:16:
         3c:05:a4:49:ea:88:30:19:0a:6c:73:05:51:78:df:d4:1d:dd:
         3a:d4:7f:2d:e4:4e:54:be:83:43:1e:7a:74:33:b4:a4:eb:d7:
         70:73:bc:2a:02:98:89:66:ee:f6:bc:8f:74:93:78:e3:29:02:
         5a:5a:43:e2:58:ce:7c:cf:9a:ca:d2:36:89:3b:e2:5f:da:26:
         05:4e:c8:d4:e7:2c:91:0e:17:97:c5:be:ee:8b:13:11:23:23:
         29:4f:fa:83:d0:50:f6:ba:fa:d5:3d:b3:17:3d:f4:ff:03:4a:
         a3:25:dc:e6:75:61:d1:fa:35:08:6b:d6:27:44:d0:68:b7:8d:
         45:e0:eb:85:2c:c8:a1:5d:61:44:74:16:0e:59:58:ae:d2:b5:
         ee:a5:bc:d6:d7:07:6a:b6:29:78:fd:97:67:67:dd:8d:4f:17:
         94:4f:d2:ed:0c:af:97:24:37:c3:a2:9c:81:da:6b:e1:43:b6:
         57:7b:4c:ec:bf:79:13:19:e7:9f:e8:44:e9:47:81:b7:5e:70:
         1e:91:f8:3d:d1:7b:27:f5:0b:70:56:43:48:05:dd:a9:2f:ab:
         86:10:1d:0b:12:e3:1a:d0:4c:6e:75:de:d6:45:b3:0b:74:88:
         87:93:5c:56:4a:41:02:9a:f7:ae:b7:99:d8:b6:7f:88:fa:11:
         f2:45:7c:f4:d7:1b:91:c0:1c:f1:a0:fb:d4:08:0a:41:1a:14:
         2a:ce:f4:eb:34:48:6e:66:87:9e:d5:4b:7a:39:7f:bb:0e:3d:
         38:61:cf:73:57:06:e4:12:06:6b:d9:6b:53:08:cd:70:18:c2:
         2d:4f:97:46:91:bc:a9:f0
-----BEGIN CERTIFICATE-----
MIIFJjCCAw6gAwIBAgIKYSkVJwAAAAAAKjANBgkqhkiG9w0BAQUFADB/MQswCQYD
VQQGEwJVUzETMBEGA1UECBMKV2FzaGluZ3RvbjEQMA4GA1UEBxMHUmVkbW9uZDEe
MBwGA1UEChMVTWljcm9zb2Z0IENvcnBvcmF0aW9uMSkwJwYDVQQDEyBNaWNyb3Nv
ZnQgQ29kZSBWZXJpZmljYXRpb24gUm9vdDAeFw0xMTA0MTUxOTU1MDhaFw0yMTA0
MTUyMDA1MDhaMFcxCzAJBgNVBAYTAkJFMRkwFwYDVQQKExBHbG9iYWxTaWduIG52
LXNhMRAwDgYDVQQLEwdSb290IENBMRswGQYDVQQDExJHbG9iYWxTaWduIFJvb3Qg
Q0EwggEiMA0GCSqGSIb3DQEBAQUAA4IBDwAwggEKAoIBAQDaDuaZjc6j40+Kfvvx
i4Mla+pIH/EqsLmVEQS98GPR4mdmzxzdzxtIK+6NiY6arymAZavpxy0Sy6scTHAH
oT0KMM0VjU/43dSMUBUc71DuxC73/OlS8pF94G3VNTCOXkNz8kHp1Wrjsok6Vjk4
bwY8iGlbKk3Fp1S4bInMm/k8yuX9ifUSPJJ4ltbcdG6TRGHRjcdGsnUOhugZitVt
bNV4FpWi6cgKOOvyJBNPc1STE4U6G7weNLWLBYy5d4ux2x8gkasJU26Qzns3dLlw
R5EiUWMWea6xrkEmCMgZK9FGqkjWZCrXgzT/LCrBbBlDSgeF59N89iFo7+ryUp9/
k5DPAgMBAAGjgcswgcgwEQYDVR0gBAowCDAGBgRVHSAAMAsGA1UdDwQEAwIBhjAP
BgNVHRMBAf8EBTADAQH/MB0GA1UdDgQWBBRge2YaRQ2XyolQL30EzTSo//z9SzAf
BgNVHSMEGDAWgBRi+wohW39DbhHaCVRQa/XSlnHxnjBVBgNVHR8ETjBMMEqgSKBG
hkRodHRwOi8vY3JsLm1pY3Jvc29mdC5jb20vcGtpL2NybC9wcm9kdWN0cy9NaWNy
b3NvZnRDb2RlVmVyaWZSb290LmNybDANBgkqhkiG9w0BAQUFAAOCAgEAX/jQZXRq
gcamylsDtpFK6Eu97yuhQvDvtKWtzTOJ7AuVhaxiUBEIqljSWqCDEOWmM3ryWvLF
/nh88JyD3xkK2XOWAC3WLM3pFNQdneg/PBp295BO+wE1CmyTE6DDVutnoOTRepbe
wmfxkPgKe/UyG5TsX3UfjRs02mxYp8stJ54iJrfJqjDMB3e4NuOCAbU5PMyN2adf
fyOzh3/bV5iRi9fOJSDjnWRP3Yf3K2hJAxjgpd98X2hkTTaDjUeB8ungqGmr+nsW
PAWkSeqIMBkKbHMFUXjf1B3dOtR/LeROVL6DQx56dDO0pOvXcHO8KgKYiWbu9ryP
dJN44ykCWlpD4ljOfM+aytI2iTviX9omBU7I1OcskQ4Xl8W+7osTESMjKU/6g9BQ
9rr61T2zFz30/wNKoyXc5nVh0fo1CGvWJ0TQaLeNReDrhSzIoV1hRHQWDllYrtK1
7qW81tcHarYpeP2XZ2fdjU8XlE/S7QyvlyQ3w6Kcgdpr4UO2V3tM7L95Exnnn+hE
6UeBt15wHpH4PdF7J/ULcFZDSAXdqS+rhhAdCxLjGtBMbnXe1kWzC3SIh5NcVkpB
Apr3rreZ2LZ/iPoR8kV89NcbkcAc8aD71AgKQRoUKs706zRIbmaHntVLejl/uw49
OGHPc1cG5BIGa9lrUwjNcBjCLU+XRpG8qfA=
-----END CERTIFICATE-----

Certificate:
    Data:
        Version: 3 (0x2)
        Serial Number:
            5b:64:3e:c9:00:d9:bf:fc:83:ef:d0:01
    Signature Algorithm: sha256WithRSAEncryption
        Issuer: C=BE, O=GlobalSign nv-sa, CN=GlobalSign Extended Validation CodeSigning CA - SHA256 - G3
        Validity
            Not Before: Oct 13 15:52:35 2016 GMT
            Not After : Aug 23 16:15:25 2019 GMT
        Subject: businessCategory=Private Organization/serialNumber=HRB 9150/jurisdictionC=DE/jurisdictionST=Nordrhein-Westfalen/jurisdictionL=Bonn, C=DE, ST=Nordrhein-Westfalen, L=Bonn/street=Nordstrasse 65a, O=cFos Software GmbH, CN=cFos Software GmbH
        Subject Public Key Info:
            Public Key Algorithm: rsaEncryption
                Public-Key: (2048 bit)
                Modulus:
                    00:b8:bd:37:6a:6a:b6:ca:a6:fb:93:ba:9b:a3:e4:
                    89:97:e7:d7:1c:ef:ee:eb:64:66:32:25:37:1f:75:
                    e7:4d:3b:a7:5f:39:d5:bb:e4:04:ac:0e:0c:04:92:
                    3c:fb:1b:db:90:c7:a7:c2:0f:d6:e0:92:69:24:93:
                    34:3f:bd:13:b5:76:ff:9d:03:30:6a:71:65:f2:8f:
                    48:1d:dc:13:ba:b4:48:55:3a:c2:2e:64:d3:2b:8a:
                    f5:a3:cd:16:70:64:45:fc:f2:60:d1:53:3f:6a:e1:
                    9e:cc:60:36:59:43:15:84:28:2f:f5:bf:ad:af:76:
                    cd:c6:08:ba:0f:74:5a:a3:1b:09:a5:e5:2b:c4:38:
                    3b:4b:be:61:82:1a:96:af:85:be:9b:e1:61:29:eb:
                    10:e4:67:4a:d2:e9:b4:07:24:b6:f4:88:ea:51:23:
                    cc:db:43:f8:81:7c:f6:6e:5e:94:c7:3f:00:80:42:
                    71:54:84:37:86:c3:a1:28:37:be:3e:5f:37:18:4b:
                    b6:c3:e7:56:e0:b7:a9:9a:fe:f4:47:d9:ce:c3:49:
                    7b:14:3f:fe:32:da:9d:b1:06:29:1b:4f:2d:51:1c:
                    f1:63:a6:29:7b:20:dc:92:a6:9e:be:7e:59:1f:94:
                    bb:7e:e8:68:d0:7d:d2:e4:33:dd:88:99:12:c3:54:
                    d9:e3
                Exponent: 65537 (0x10001)
        X509v3 extensions:
            X509v3 Key Usage: critical
                Digital Signature
            Authority Information Access: 
                CA Issuers - URI:http://secure.globalsign.com/cacert/gsextendcodesignsha2g3ocsp.crt
                OCSP - URI:http://ocsp2.globalsign.com/gsextendcodesignsha2g3

            X509v3 Certificate Policies: 
                Policy: 1.3.6.1.4.1.4146.1.2
                  CPS: https://www.globalsign.com/repository/
                Policy: 2.23.140.1.3

            X509v3 Basic Constraints: 
                CA:FALSE
            X509v3 CRL Distribution Points: 

                Full Name:
                  URI:http://crl.globalsign.com/gsextendcodesignsha2g3.crl

            X509v3 Subject Alternative Name: 
                othername:<unsupported>
            X509v3 Extended Key Usage: 
                Code Signing
            X509v3 Subject Key Identifier: 
                2E:A3:AA:47:FF:A1:95:D8:62:9F:E2:BD:33:A2:5B:0E:C9:BB:B7:4F
            X509v3 Authority Key Identifier: 
                keyid:DC:2C:58:2C:2A:6F:35:2D:9F:79:95:A8:48:5D:C4:6D:3E:53:BF:B9

    Signature Algorithm: sha256WithRSAEncryption
         79:0d:34:92:24:ba:0f:ee:44:e4:88:54:e7:86:84:6b:10:31:
         42:54:33:de:76:2b:58:78:dd:35:e3:8b:4d:c8:fc:89:ff:91:
         11:22:9d:50:06:bf:c3:c0:a8:3c:cd:da:bf:ab:5a:88:e3:27:
         da:e6:2b:30:3b:e5:84:d8:5e:5e:91:3f:16:d4:fb:55:f6:b2:
         b5:df:81:c4:c9:1a:d0:a2:c9:84:33:a6:18:d3:cb:9f:f1:3c:
         b2:bb:f3:83:25:25:a5:ae:f4:b4:11:06:8c:62:82:63:7e:a1:
         e1:26:d3:db:a1:76:f8:2e:ca:5d:f9:7a:dc:c7:65:da:7e:be:
         be:38:b4:6e:e3:a3:0f:12:ce:95:7f:7e:05:ae:88:ae:e6:4d:
         f3:4b:d9:92:da:15:96:e2:a8:b0:16:cb:b7:f8:30:e0:01:9d:
         fc:97:77:23:d9:ee:41:93:eb:ad:ce:62:b2:0f:39:69:60:ff:
         d0:db:df:08:e6:45:13:0b:e1:df:67:ef:da:03:71:f8:d2:bc:
         92:b7:42:03:ca:bc:dc:83:a3:de:ea:ed:95:06:9f:17:99:1a:
         b6:6d:17:74:cd:cb:11:1f:72:18:94:dd:63:88:9d:75:0a:1d:
         2a:17:39:df:01:f2:38:97:be:4f:99:2b:c3:7b:c8:80:75:8a:
         99:a9:1d:a8
-----BEGIN CERTIFICATE-----
MIIGADCCBOigAwIBAgIMW2Q+yQDZv/yD79ABMA0GCSqGSIb3DQEBCwUAMG4xCzAJ
BgNVBAYTAkJFMRkwFwYDVQQKExBHbG9iYWxTaWduIG52LXNhMUQwQgYDVQQDEztH
bG9iYWxTaWduIEV4dGVuZGVkIFZhbGlkYXRpb24gQ29kZVNpZ25pbmcgQ0EgLSBT
SEEyNTYgLSBHMzAeFw0xNjEwMTMxNTUyMzVaFw0xOTA4MjMxNjE1MjVaMIIBEjEd
MBsGA1UEDwwUUHJpdmF0ZSBPcmdhbml6YXRpb24xETAPBgNVBAUTCEhSQiA5MTUw
MRMwEQYLKwYBBAGCNzwCAQMTAkRFMSQwIgYLKwYBBAGCNzwCAQITE05vcmRyaGVp
bi1XZXN0ZmFsZW4xFTATBgsrBgEEAYI3PAIBARMEQm9ubjELMAkGA1UEBhMCREUx
HDAaBgNVBAgTE05vcmRyaGVpbi1XZXN0ZmFsZW4xDTALBgNVBAcTBEJvbm4xGDAW
BgNVBAkTD05vcmRzdHJhc3NlIDY1YTEbMBkGA1UEChMSY0ZvcyBTb2Z0d2FyZSBH
bWJIMRswGQYDVQQDExJjRm9zIFNvZnR3YXJlIEdtYkgwggEiMA0GCSqGSIb3DQEB
AQUAA4IBDwAwggEKAoIBAQC4vTdqarbKpvuTupuj5ImX59cc7+7rZGYyJTcfdedN
O6dfOdW75ASsDgwEkjz7G9uQx6fCD9bgkmkkkzQ/vRO1dv+dAzBqcWXyj0gd3BO6
tEhVOsIuZNMrivWjzRZwZEX88mDRUz9q4Z7MYDZZQxWEKC/1v62vds3GCLoPdFqj
Gwml5SvEODtLvmGCGpavhb6b4WEp6xDkZ0rS6bQHJLb0iOpRI8zbQ/iBfPZuXpTH
PwCAQnFUhDeGw6EoN74+XzcYS7bD51bgt6ma/vRH2c7DSXsUP/4y2p2xBikbTy1R
HPFjpil7INySpp6+flkflLt+6GjQfdLkM92ImRLDVNnjAgMBAAGjggH2MIIB8jAO
BgNVHQ8BAf8EBAMCB4AwgaAGCCsGAQUFBwEBBIGTMIGQME4GCCsGAQUFBzAChkJo
dHRwOi8vc2VjdXJlLmdsb2JhbHNpZ24uY29tL2NhY2VydC9nc2V4dGVuZGNvZGVz
aWduc2hhMmczb2NzcC5jcnQwPgYIKwYBBQUHMAGGMmh0dHA6Ly9vY3NwMi5nbG9i
YWxzaWduLmNvbS9nc2V4dGVuZGNvZGVzaWduc2hhMmczMFUGA1UdIAROMEwwQQYJ
KwYBBAGgMgECMDQwMgYIKwYBBQUHAgEWJmh0dHBzOi8vd3d3Lmdsb2JhbHNpZ24u
Y29tL3JlcG9zaXRvcnkvMAcGBWeBDAEDMAkGA1UdEwQCMAAwRQYDVR0fBD4wPDA6
oDigNoY0aHR0cDovL2NybC5nbG9iYWxzaWduLmNvbS9nc2V4dGVuZGNvZGVzaWdu
c2hhMmczLmNybDA/BgNVHREEODA2oDQGCCsGAQUFBwgDoCgwJgwkREUtQk9OTiBO
T1JEUkhFSU4tV0VTVEZBTEVOLUhSQiA5MTUwMBMGA1UdJQQMMAoGCCsGAQUFBwMD
MB0GA1UdDgQWBBQuo6pH/6GV2GKf4r0zolsOybu3TzAfBgNVHSMEGDAWgBTcLFgs
Km81LZ95lahIXcRtPlO/uTANBgkqhkiG9w0BAQsFAAOCAQEAeQ00kiS6D+5E5IhU
54aEaxAxQlQz3nYrWHjdNeOLTcj8if+RESKdUAa/w8CoPM3av6taiOMn2uYrMDvl
hNheXpE/FtT7Vfaytd+BxMka0KLJhDOmGNPLn/E8srvzgyUlpa70tBEGjGKCY36h
4SbT26F2+C7KXfl63Mdl2n6+vji0buOjDxLOlX9+Ba6IruZN80vZktoVluKosBbL
t/gw4AGd/Jd3I9nuQZPrrc5isg85aWD/0NvfCOZFEwvh32fv2gNx+NK8krdCA8q8
3IOj3urtlQafF5katm0XdM3LER9yGJTdY4iddQodKhc53wHyOJe+T5krw3vIgHWK
makdqA==
-----END CERTIFICATE-----

