Certificate:
    Data:
        Version: 3 (0x2)
        Serial Number:
            62:8d:42:d9:9b:0e:99:6f:0a:dc:5a:ad:72:b2:0e:5e
    Signature Algorithm: sha1WithRSAEncryption
        Issuer: C=US, O=VeriSign, Inc., OU=VeriSign Trust Network, OU=Terms of use at https://www.verisign.com/rpa (c)10, CN=VeriSign Class 3 Code Signing 2010 CA
        Validity
            Not Before: Aug  9 00:00:00 2013 GMT
            Not After : Aug  8 23:59:59 2016 GMT
        Subject: C=KR, ST=Seoul, L=Gangnam Gu, O=JiranJikyosoft co., ltd., OU=Digital ID Class 3 - Microsoft Software Validation v2, OU=Management Dept., CN=JiranJikyosoft co., ltd.
        Subject Public Key Info:
            Public Key Algorithm: rsaEncryption
                Public-Key: (2048 bit)
                Modulus:
                    00:d7:bc:74:bb:5c:37:b1:23:20:be:87:ce:c3:fc:
                    24:84:6b:2b:80:0f:4a:b7:4f:ed:26:7e:d2:ae:8f:
                    eb:60:28:94:c2:a1:58:c1:10:a4:cb:df:d5:b3:c4:
                    bd:28:bf:1a:b5:88:e4:b4:43:01:84:13:fb:2b:ab:
                    6f:2a:10:7d:59:6a:61:bf:e7:c1:1e:4c:13:cb:59:
                    72:05:f3:d3:19:4c:6c:61:5e:b0:97:33:be:cf:7b:
                    16:e3:65:3f:c9:66:ab:fd:d6:b9:22:c2:ef:dd:71:
                    86:75:5d:36:3c:09:f9:78:a4:db:d5:cf:8b:9f:84:
                    a8:43:2c:f5:87:57:1b:d6:bf:28:ff:ee:a6:fe:ed:
                    4d:24:6d:2d:ca:58:2f:af:f8:5d:d3:8c:16:1d:81:
                    88:d8:dd:85:71:88:24:fa:45:b0:f1:6e:41:d2:b2:
                    c8:ea:05:45:65:79:61:44:b1:52:c9:6b:a0:55:47:
                    82:b7:7a:0c:9f:f8:98:51:19:cc:90:df:bb:04:7f:
                    6d:0a:4b:88:67:97:f5:12:4f:c7:5b:20:1a:31:05:
                    42:fc:83:22:73:18:26:1b:2e:01:96:4a:36:e6:2a:
                    ec:ee:cb:52:d4:b9:2f:56:4f:93:28:43:8a:44:19:
                    9c:55:b3:c6:b9:a8:1a:31:92:5a:70:57:09:c1:11:
                    93:61
                Exponent: 65537 (0x10001)
        X509v3 extensions:
            X509v3 Basic Constraints: 
                CA:FALSE
            X509v3 Key Usage: critical
                Digital Signature
            X509v3 CRL Distribution Points: 

                Full Name:
                  URI:http://csc3-2010-crl.verisign.com/CSC3-2010.crl

            X509v3 Certificate Policies: 
                Policy: 2.16.840.1.113733.1.7.23.3
                  CPS: https://www.verisign.com/rpa

            X509v3 Extended Key Usage: 
                Code Signing
            Authority Information Access: 
                OCSP - URI:http://ocsp.verisign.com
                CA Issuers - URI:http://csc3-2010-aia.verisign.com/CSC3-2010.cer

            X509v3 Authority Key Identifier: 
                keyid:CF:99:A9:EA:7B:26:F4:4B:C9:8E:8F:D7:F0:05:26:EF:E3:D2:A7:9D

            Netscape Cert Type: 
                Object Signing
            1.3.6.1.4.1.311.2.1.27: 
                0.......
    Signature Algorithm: sha1WithRSAEncryption
         14:b5:5a:59:c7:5e:36:12:9c:ec:02:7f:69:1b:32:58:87:8f:
         6b:54:f3:2d:7b:96:e5:a0:a1:89:b3:c1:ad:9b:e9:a1:4b:8a:
         30:e1:81:b3:f2:ba:7c:50:4a:bd:9a:fc:3b:3a:49:f4:64:af:
         4d:cf:9f:31:8c:53:42:15:0c:0c:40:58:1e:66:5c:f3:7a:91:
         0e:a7:d7:f4:cf:67:2f:a5:48:1b:f4:b7:4f:b1:44:34:c3:01:
         a4:52:c1:9a:ca:84:ac:65:f3:51:72:ba:59:86:aa:e7:49:ea:
         4b:a1:60:ca:d1:62:51:a1:16:a9:66:59:36:20:21:c1:08:0f:
         3b:2f:22:6c:97:2a:d8:27:03:02:cb:7b:48:aa:65:25:74:45:
         58:27:1f:47:bc:d9:c0:47:cc:e4:fa:da:99:28:8a:2a:5e:31:
         4e:28:ee:74:9d:1f:db:14:5d:62:74:51:c4:96:e5:4e:14:10:
         12:4d:3a:3f:6f:5b:ba:43:9f:a1:fb:7d:93:45:1b:ec:81:78:
         91:98:16:57:f6:dd:a3:94:11:67:29:8a:b3:13:14:25:ff:ab:
         41:79:2e:ad:d2:4c:e5:4f:93:95:cd:34:74:c6:e9:84:83:0d:
         77:61:2a:f6:d2:21:94:f0:75:b4:0e:aa:47:ce:c3:a1:6e:16:
         d6:ac:4c:e9
-----BEGIN CERTIFICATE-----
MIIFkDCCBHigAwIBAgIQYo1C2ZsOmW8K3FqtcrIOXjANBgkqhkiG9w0BAQUFADCB
tDELMAkGA1UEBhMCVVMxFzAVBgNVBAoTDlZlcmlTaWduLCBJbmMuMR8wHQYDVQQL
ExZWZXJpU2lnbiBUcnVzdCBOZXR3b3JrMTswOQYDVQQLEzJUZXJtcyBvZiB1c2Ug
YXQgaHR0cHM6Ly93d3cudmVyaXNpZ24uY29tL3JwYSAoYykxMDEuMCwGA1UEAxMl
VmVyaVNpZ24gQ2xhc3MgMyBDb2RlIFNpZ25pbmcgMjAxMCBDQTAeFw0xMzA4MDkw
MDAwMDBaFw0xNjA4MDgyMzU5NTlaMIHTMQswCQYDVQQGEwJLUjEOMAwGA1UECBMF
U2VvdWwxEzARBgNVBAcTCkdhbmduYW0gR3UxITAfBgNVBAoUGEppcmFuSmlreW9z
b2Z0IGNvLiwgbHRkLjE+MDwGA1UECxM1RGlnaXRhbCBJRCBDbGFzcyAzIC0gTWlj
cm9zb2Z0IFNvZnR3YXJlIFZhbGlkYXRpb24gdjIxGTAXBgNVBAsUEE1hbmFnZW1l
bnQgRGVwdC4xITAfBgNVBAMUGEppcmFuSmlreW9zb2Z0IGNvLiwgbHRkLjCCASIw
DQYJKoZIhvcNAQEBBQADggEPADCCAQoCggEBANe8dLtcN7EjIL6HzsP8JIRrK4AP
SrdP7SZ+0q6P62AolMKhWMEQpMvf1bPEvSi/GrWI5LRDAYQT+yurbyoQfVlqYb/n
wR5ME8tZcgXz0xlMbGFesJczvs97FuNlP8lmq/3WuSLC791xhnVdNjwJ+Xik29XP
i5+EqEMs9YdXG9a/KP/upv7tTSRtLcpYL6/4XdOMFh2BiNjdhXGIJPpFsPFuQdKy
yOoFRWV5YUSxUslroFVHgrd6DJ/4mFEZzJDfuwR/bQpLiGeX9RJPx1sgGjEFQvyD
InMYJhsuAZZKNuYq7O7LUtS5L1ZPkyhDikQZnFWzxrmoGjGSWnBXCcERk2ECAwEA
AaOCAXswggF3MAkGA1UdEwQCMAAwDgYDVR0PAQH/BAQDAgeAMEAGA1UdHwQ5MDcw
NaAzoDGGL2h0dHA6Ly9jc2MzLTIwMTAtY3JsLnZlcmlzaWduLmNvbS9DU0MzLTIw
MTAuY3JsMEQGA1UdIAQ9MDswOQYLYIZIAYb4RQEHFwMwKjAoBggrBgEFBQcCARYc
aHR0cHM6Ly93d3cudmVyaXNpZ24uY29tL3JwYTATBgNVHSUEDDAKBggrBgEFBQcD
AzBxBggrBgEFBQcBAQRlMGMwJAYIKwYBBQUHMAGGGGh0dHA6Ly9vY3NwLnZlcmlz
aWduLmNvbTA7BggrBgEFBQcwAoYvaHR0cDovL2NzYzMtMjAxMC1haWEudmVyaXNp
Z24uY29tL0NTQzMtMjAxMC5jZXIwHwYDVR0jBBgwFoAUz5mp6nsm9EvJjo/X8AUm
7+PSp50wEQYJYIZIAYb4QgEBBAQDAgQQMBYGCisGAQQBgjcCARsECDAGAQEAAQH/
MA0GCSqGSIb3DQEBBQUAA4IBAQAUtVpZx142EpzsAn9pGzJYh49rVPMte5bloKGJ
s8Gtm+mhS4ow4YGz8rp8UEq9mvw7Okn0ZK9Nz58xjFNCFQwMQFgeZlzzepEOp9f0
z2cvpUgb9LdPsUQ0wwGkUsGayoSsZfNRcrpZhqrnSepLoWDK0WJRoRapZlk2ICHB
CA87LyJslyrYJwMCy3tIqmUldEVYJx9HvNnAR8zk+tqZKIoqXjFOKO50nR/bFF1i
dFHEluVOFBASTTo/b1u6Q5+h+32TRRvsgXiRmBZX9t2jlBFnKYqzExQl/6tBeS6t
0kzlT5OVzTR0xumEgw13YSr20iGU8HW0DqpHzsOhbhbWrEzp
-----END CERTIFICATE-----

Certificate:
    Data:
        Version: 3 (0x2)
        Serial Number:
            61:19:93:e4:00:00:00:00:00:1c
    Signature Algorithm: sha1WithRSAEncryption
        Issuer: C=US, ST=Washington, L=Redmond, O=Microsoft Corporation, CN=Microsoft Code Verification Root
        Validity
            Not Before: Feb 22 19:25:17 2011 GMT
            Not After : Feb 22 19:35:17 2021 GMT
        Subject: C=US, O=VeriSign, Inc., OU=VeriSign Trust Network, OU=(c) 2006 VeriSign, Inc. - For authorized use only, CN=VeriSign Class 3 Public Primary Certification Authority - G5
        Subject Public Key Info:
            Public Key Algorithm: rsaEncryption
                Public-Key: (2048 bit)
                Modulus:
                    00:af:24:08:08:29:7a:35:9e:60:0c:aa:e7:4b:3b:
                    4e:dc:7c:bc:3c:45:1c:bb:2b:e0:fe:29:02:f9:57:
                    08:a3:64:85:15:27:f5:f1:ad:c8:31:89:5d:22:e8:
                    2a:aa:a6:42:b3:8f:f8:b9:55:b7:b1:b7:4b:b3:fe:
                    8f:7e:07:57:ec:ef:43:db:66:62:15:61:cf:60:0d:
                    a4:d8:de:f8:e0:c3:62:08:3d:54:13:eb:49:ca:59:
                    54:85:26:e5:2b:8f:1b:9f:eb:f5:a1:91:c2:33:49:
                    d8:43:63:6a:52:4b:d2:8f:e8:70:51:4d:d1:89:69:
                    7b:c7:70:f6:b3:dc:12:74:db:7b:5d:4b:56:d3:96:
                    bf:15:77:a1:b0:f4:a2:25:f2:af:1c:92:67:18:e5:
                    f4:06:04:ef:90:b9:e4:00:e4:dd:3a:b5:19:ff:02:
                    ba:f4:3c:ee:e0:8b:eb:37:8b:ec:f4:d7:ac:f2:f6:
                    f0:3d:af:dd:75:91:33:19:1d:1c:40:cb:74:24:19:
                    21:93:d9:14:fe:ac:2a:52:c7:8f:d5:04:49:e4:8d:
                    63:47:88:3c:69:83:cb:fe:47:bd:2b:7e:4f:c5:95:
                    ae:0e:9d:d4:d1:43:c0:67:73:e3:14:08:7e:e5:3f:
                    9f:73:b8:33:0a:cf:5d:3f:34:87:96:8a:ee:53:e8:
                    25:15
                Exponent: 65537 (0x10001)
        X509v3 extensions:
            X509v3 Certificate Policies: 
                Policy: X509v3 Any Policy

            X509v3 Basic Constraints: critical
                CA:TRUE
            X509v3 Key Usage: 
                Digital Signature, Certificate Sign, CRL Sign
            X509v3 Subject Key Identifier: 
                7F:D3:65:A7:C2:DD:EC:BB:F0:30:09:F3:43:39:FA:02:AF:33:31:33
            X509v3 Authority Key Identifier: 
                keyid:62:FB:0A:21:5B:7F:43:6E:11:DA:09:54:50:6B:F5:D2:96:71:F1:9E

            X509v3 CRL Distribution Points: 

                Full Name:
                  URI:http://crl.microsoft.com/pki/crl/products/MicrosoftCodeVerifRoot.crl

    Signature Algorithm: sha1WithRSAEncryption
         81:2a:82:16:8c:34:67:2b:e5:03:eb:34:7b:8c:a2:a3:50:8a:
         f4:55:86:f1:1e:8c:8e:ae:7d:ee:03:19:ce:72:95:18:48:ad:
         62:11:fd:20:fd:3f:47:06:01:5a:e2:e0:6f:8c:15:2c:4e:3c:
         6a:50:6c:0b:36:a3:cf:7a:0d:9c:42:bc:5c:f8:19:d5:60:e3:
         69:e6:e2:23:41:67:8c:68:83:76:2b:8f:93:a3:2a:b5:7f:be:
         59:fb:a9:c9:b2:26:8f:ca:a2:f3:82:1b:98:3e:91:95:27:97:
         86:61:ee:5b:5d:07:6b:cd:86:a8:e2:65:80:a8:e2:15:e2:b2:
         be:23:05:6a:ba:0c:f3:47:93:4d:ac:a4:8c:07:79:39:c0:61:
         12:3a:05:0d:89:a3:ec:9f:57:89:84:fb:ec:ca:7c:47:66:14:
         91:d8:b6:0f:19:5d:e6:b8:4a:ac:bc:47:c8:71:43:96:e6:32:
         20:a5:dc:77:86:fd:3c:e3:8b:71:db:7b:9b:03:fc:b7:1d:32:
         64:eb:16:52:a0:43:a3:fa:2e:ad:59:92:4e:7c:c7:f2:33:42:
         48:38:51:3a:7c:38:c7:1b:24:22:28:40:1e:1a:46:1f:17:db:
         18:f7:f0:27:35:6c:b8:63:d9:cd:b9:64:5d:2b:a5:5e:ef:c6:
         29:b4:f2:c7:f8:21:cc:04:ba:57:fd:01:b6:ab:c6:67:f9:e7:
         d3:99:7f:f4:f5:22:fa:72:f5:fd:ff:3a:1c:42:3a:a1:f9:80:
         18:a5:ee:8d:1c:d4:66:9e:45:01:fe:aa:ee:ff:fb:17:8f:30:
         f7:f1:cd:29:c5:9d:ec:b5:d5:49:00:3d:85:b8:cb:bb:93:3a:
         27:6a:49:c0:30:ae:66:c9:f7:23:28:32:76:f9:a4:83:56:c8:
         48:ce:5a:96:aa:a0:cc:0c:c4:7f:b4:8e:97:af:6d:e3:54:27:
         c3:9f:86:c0:d6:e4:73:08:97:05:db:d0:54:62:5e:03:48:c2:
         d5:9f:7f:a7:66:8c:d0:9d:b0:4f:d4:d3:98:5f:4b:7a:c9:7f:
         b2:29:52:d0:12:80:c7:0f:54:b6:1e:67:cd:c6:a0:6c:11:03:
         84:d3:48:75:e7:2a:fe:b0:3b:6e:0a:3a:a6:6b:76:99:05:a3:
         f1:77:68:61:33:14:47:06:fc:53:7f:52:bd:92:14:5c:4a:24:
         6a:67:8c:af:8d:90:aa:d0:f6:79:21:1b:93:26:7c:c3:ce:1e:
         bd:88:38:92:ae:45:c6:19:6a:49:50:b3:05:f8:ae:59:37:8a:
         6a:25:03:94:b1:59:81:50:e8:ba:83:80:b7:23:35:f4:76:b9:
         67:1d:59:18:ad:20:8d:94
-----BEGIN CERTIFICATE-----
MIIFmjCCA4KgAwIBAgIKYRmT5AAAAAAAHDANBgkqhkiG9w0BAQUFADB/MQswCQYD
VQQGEwJVUzETMBEGA1UECBMKV2FzaGluZ3RvbjEQMA4GA1UEBxMHUmVkbW9uZDEe
MBwGA1UEChMVTWljcm9zb2Z0IENvcnBvcmF0aW9uMSkwJwYDVQQDEyBNaWNyb3Nv
ZnQgQ29kZSBWZXJpZmljYXRpb24gUm9vdDAeFw0xMTAyMjIxOTI1MTdaFw0yMTAy
MjIxOTM1MTdaMIHKMQswCQYDVQQGEwJVUzEXMBUGA1UEChMOVmVyaVNpZ24sIElu
Yy4xHzAdBgNVBAsTFlZlcmlTaWduIFRydXN0IE5ldHdvcmsxOjA4BgNVBAsTMShj
KSAyMDA2IFZlcmlTaWduLCBJbmMuIC0gRm9yIGF1dGhvcml6ZWQgdXNlIG9ubHkx
RTBDBgNVBAMTPFZlcmlTaWduIENsYXNzIDMgUHVibGljIFByaW1hcnkgQ2VydGlm
aWNhdGlvbiBBdXRob3JpdHkgLSBHNTCCASIwDQYJKoZIhvcNAQEBBQADggEPADCC
AQoCggEBAK8kCAgpejWeYAyq50s7Ttx8vDxFHLsr4P4pAvlXCKNkhRUn9fGtyDGJ
XSLoKqqmQrOP+LlVt7G3S7P+j34HV+zvQ9tmYhVhz2ANpNje+ODDYgg9VBPrScpZ
VIUm5SuPG5/r9aGRwjNJ2ENjalJL0o/ocFFN0Ylpe8dw9rPcEnTbe11LVtOWvxV3
obD0oiXyrxySZxjl9AYE75C55ADk3Tq1Gf8CuvQ87uCL6zeL7PTXrPL28D2v3XWR
MxkdHEDLdCQZIZPZFP6sKlLHj9UESeSNY0eIPGmDy/5HvSt+T8WVrg6d1NFDwGdz
4xQIfuU/n3O4MwrPXT80h5aK7lPoJRUCAwEAAaOByzCByDARBgNVHSAECjAIMAYG
BFUdIAAwDwYDVR0TAQH/BAUwAwEB/zALBgNVHQ8EBAMCAYYwHQYDVR0OBBYEFH/T
ZafC3ey78DAJ80M5+gKvMzEzMB8GA1UdIwQYMBaAFGL7CiFbf0NuEdoJVFBr9dKW
cfGeMFUGA1UdHwROMEwwSqBIoEaGRGh0dHA6Ly9jcmwubWljcm9zb2Z0LmNvbS9w
a2kvY3JsL3Byb2R1Y3RzL01pY3Jvc29mdENvZGVWZXJpZlJvb3QuY3JsMA0GCSqG
SIb3DQEBBQUAA4ICAQCBKoIWjDRnK+UD6zR7jKKjUIr0VYbxHoyOrn3uAxnOcpUY
SK1iEf0g/T9HBgFa4uBvjBUsTjxqUGwLNqPPeg2cQrxc+BnVYONp5uIjQWeMaIN2
K4+Toyq1f75Z+6nJsiaPyqLzghuYPpGVJ5eGYe5bXQdrzYao4mWAqOIV4rK+IwVq
ugzzR5NNrKSMB3k5wGESOgUNiaPsn1eJhPvsynxHZhSR2LYPGV3muEqsvEfIcUOW
5jIgpdx3hv0844tx23ubA/y3HTJk6xZSoEOj+i6tWZJOfMfyM0JIOFE6fDjHGyQi
KEAeGkYfF9sY9/AnNWy4Y9nNuWRdK6Ve78YptPLH+CHMBLpX/QG2q8Zn+efTmX/0
9SL6cvX9/zocQjqh+YAYpe6NHNRmnkUB/qru//sXjzD38c0pxZ3stdVJAD2FuMu7
kzonaknAMK5myfcjKDJ2+aSDVshIzlqWqqDMDMR/tI6Xr23jVCfDn4bA1uRzCJcF
29BUYl4DSMLVn3+nZozQnbBP1NOYX0t6yX+yKVLQEoDHD1S2HmfNxqBsEQOE00h1
5yr+sDtuCjqma3aZBaPxd2hhMxRHBvxTf1K9khRcSiRqZ4yvjZCq0PZ5IRuTJnzD
zh69iDiSrkXGGWpJULMF+K5ZN4pqJQOUsVmBUOi6g4C3IzX0drlnHVkYrSCNlA==
-----END CERTIFICATE-----

Certificate:
    Data:
        Version: 3 (0x2)
        Serial Number:
            52:00:e5:aa:25:56:fc:1a:86:ed:96:c9:d4:4b:33:c7
    Signature Algorithm: sha1WithRSAEncryption
        Issuer: C=US, O=VeriSign, Inc., OU=VeriSign Trust Network, OU=(c) 2006 VeriSign, Inc. - For authorized use only, CN=VeriSign Class 3 Public Primary Certification Authority - G5
        Validity
            Not Before: Feb  8 00:00:00 2010 GMT
            Not After : Feb  7 23:59:59 2020 GMT
        Subject: C=US, O=VeriSign, Inc., OU=VeriSign Trust Network, OU=Terms of use at https://www.verisign.com/rpa (c)10, CN=VeriSign Class 3 Code Signing 2010 CA
        Subject Public Key Info:
            Public Key Algorithm: rsaEncryption
                Public-Key: (2048 bit)
                Modulus:
                    00:f5:23:4b:5e:a5:d7:8a:bb:32:e9:d4:57:f7:ef:
                    e4:c7:26:7e:ad:19:98:fe:a8:9d:7d:94:f6:36:6b:
                    10:d7:75:81:30:7f:04:68:7f:cb:2b:75:1e:cd:1d:
                    08:8c:df:69:94:a7:37:a3:9c:7b:80:e0:99:e1:ee:
                    37:4d:5f:ce:3b:14:ee:86:d4:d0:f5:27:35:bc:25:
                    0b:38:a7:8c:63:9d:17:a3:08:a5:ab:b0:fb:cd:6a:
                    62:82:4c:d5:21:da:1b:d9:f1:e3:84:3b:8a:2a:4f:
                    85:5b:90:01:4f:c9:a7:76:10:7f:27:03:7c:be:ae:
                    7e:7d:c1:dd:f9:05:bc:1b:48:9c:69:e7:c0:a4:3c:
                    3c:41:00:3e:df:96:e5:c5:e4:94:71:d6:55:01:c7:
                    00:26:4a:40:3c:b5:a1:26:a9:0c:a7:6d:80:8e:90:
                    25:7b:cf:bf:3f:1c:eb:2f:96:fa:e5:87:77:c6:b5:
                    56:b2:7a:3b:54:30:53:1b:df:62:34:ff:1e:d1:f4:
                    5a:93:28:85:e5:4c:17:4e:7e:5b:fd:a4:93:99:7f:
                    df:cd:ef:a4:75:ef:ef:15:f6:47:e7:f8:19:72:d8:
                    2e:34:1a:a6:b4:a7:4c:7e:bd:bb:4f:0c:3d:57:f1:
                    30:d6:a6:36:8e:d6:80:76:d7:19:2e:a5:cd:7e:34:
                    2d:89
                Exponent: 65537 (0x10001)
        X509v3 extensions:
            X509v3 Basic Constraints: critical
                CA:TRUE, pathlen:0
            X509v3 Certificate Policies: 
                Policy: 2.16.840.1.113733.1.7.23.3
                  CPS: https://www.verisign.com/cps
                  User Notice:
                    Explicit Text: https://www.verisign.com/rpa

            X509v3 Key Usage: critical
                Certificate Sign, CRL Sign
            1.3.6.1.5.5.7.1.12: 
                0_.].[0Y0W0U..image/gif0!0.0...+..............k...j.H.,{..0%.#http://logo.verisign.com/vslogo.gif
            X509v3 CRL Distribution Points: 

                Full Name:
                  URI:http://crl.verisign.com/pca3-g5.crl

            Authority Information Access: 
                OCSP - URI:http://ocsp.verisign.com

            X509v3 Extended Key Usage: 
                TLS Web Client Authentication, Code Signing
            X509v3 Subject Alternative Name: 
                DirName:/CN=VeriSignMPKI-2-8
            X509v3 Subject Key Identifier: 
                CF:99:A9:EA:7B:26:F4:4B:C9:8E:8F:D7:F0:05:26:EF:E3:D2:A7:9D
            X509v3 Authority Key Identifier: 
                keyid:7F:D3:65:A7:C2:DD:EC:BB:F0:30:09:F3:43:39:FA:02:AF:33:31:33

    Signature Algorithm: sha1WithRSAEncryption
         56:22:e6:34:a4:c4:61:cb:48:b9:01:ad:56:a8:64:0f:d9:8c:
         91:c4:bb:cc:0c:e5:ad:7a:a0:22:7f:df:47:38:4a:2d:6c:d1:
         7f:71:1a:7c:ec:70:a9:b1:f0:4f:e4:0f:0c:53:fa:15:5e:fe:
         74:98:49:24:85:81:26:1c:91:14:47:b0:4c:63:8c:bb:a1:34:
         d4:c6:45:e8:0d:85:26:73:03:d0:a9:8c:64:6d:dc:71:92:e6:
         45:05:60:15:59:51:39:fc:58:14:6b:fe:d4:a4:ed:79:6b:08:
         0c:41:72:e7:37:22:06:09:be:23:e9:3f:44:9a:1e:e9:61:9d:
         cc:b1:90:5c:fc:3d:d2:8d:ac:42:3d:65:36:d4:b4:3d:40:28:
         8f:9b:10:cf:23:26:cc:4b:20:cb:90:1f:5d:8c:4c:34:ca:3c:
         d8:e5:37:d6:6f:a5:20:bd:34:eb:26:d9:ae:0d:e7:c5:9a:f7:
         a1:b4:21:91:33:6f:86:e8:58:bb:25:7c:74:0e:58:fe:75:1b:
         63:3f:ce:31:7c:9b:8f:1b:96:9e:c5:53:76:84:5b:9c:ad:91:
         fa:ac:ed:93:ba:5d:c8:21:53:c2:82:53:63:af:12:0d:50:87:
         11:1b:3d:54:52:96:8a:2c:9c:3d:92:1a:08:9a:05:2e:c7:93:
         a5:48:91:d3
-----BEGIN CERTIFICATE-----
MIIGCjCCBPKgAwIBAgIQUgDlqiVW/BqG7ZbJ1EszxzANBgkqhkiG9w0BAQUFADCB
yjELMAkGA1UEBhMCVVMxFzAVBgNVBAoTDlZlcmlTaWduLCBJbmMuMR8wHQYDVQQL
ExZWZXJpU2lnbiBUcnVzdCBOZXR3b3JrMTowOAYDVQQLEzEoYykgMjAwNiBWZXJp
U2lnbiwgSW5jLiAtIEZvciBhdXRob3JpemVkIHVzZSBvbmx5MUUwQwYDVQQDEzxW
ZXJpU2lnbiBDbGFzcyAzIFB1YmxpYyBQcmltYXJ5IENlcnRpZmljYXRpb24gQXV0
aG9yaXR5IC0gRzUwHhcNMTAwMjA4MDAwMDAwWhcNMjAwMjA3MjM1OTU5WjCBtDEL
MAkGA1UEBhMCVVMxFzAVBgNVBAoTDlZlcmlTaWduLCBJbmMuMR8wHQYDVQQLExZW
ZXJpU2lnbiBUcnVzdCBOZXR3b3JrMTswOQYDVQQLEzJUZXJtcyBvZiB1c2UgYXQg
aHR0cHM6Ly93d3cudmVyaXNpZ24uY29tL3JwYSAoYykxMDEuMCwGA1UEAxMlVmVy
aVNpZ24gQ2xhc3MgMyBDb2RlIFNpZ25pbmcgMjAxMCBDQTCCASIwDQYJKoZIhvcN
AQEBBQADggEPADCCAQoCggEBAPUjS16l14q7MunUV/fv5Mcmfq0ZmP6onX2U9jZr
ENd1gTB/BGh/yyt1Hs0dCIzfaZSnN6Oce4DgmeHuN01fzjsU7obU0PUnNbwlCzin
jGOdF6MIpauw+81qYoJM1SHaG9nx44Q7iipPhVuQAU/Jp3YQfycDfL6ufn3B3fkF
vBtInGnnwKQ8PEEAPt+W5cXklHHWVQHHACZKQDy1oSapDKdtgI6QJXvPvz8c6y+W
+uWHd8a1VrJ6O1QwUxvfYjT/HtH0WpMoheVMF05+W/2kk5l/383vpHXv7xX2R+f4
GXLYLjQaprSnTH69u08MPVfxMNamNo7WgHbXGS6lzX40LYkCAwEAAaOCAf4wggH6
MBIGA1UdEwEB/wQIMAYBAf8CAQAwcAYDVR0gBGkwZzBlBgtghkgBhvhFAQcXAzBW
MCgGCCsGAQUFBwIBFhxodHRwczovL3d3dy52ZXJpc2lnbi5jb20vY3BzMCoGCCsG
AQUFBwICMB4aHGh0dHBzOi8vd3d3LnZlcmlzaWduLmNvbS9ycGEwDgYDVR0PAQH/
BAQDAgEGMG0GCCsGAQUFBwEMBGEwX6FdoFswWTBXMFUWCWltYWdlL2dpZjAhMB8w
BwYFKw4DAhoEFI/l0xqGrI2Oa8PPgGrUSBgsexkuMCUWI2h0dHA6Ly9sb2dvLnZl
cmlzaWduLmNvbS92c2xvZ28uZ2lmMDQGA1UdHwQtMCswKaAnoCWGI2h0dHA6Ly9j
cmwudmVyaXNpZ24uY29tL3BjYTMtZzUuY3JsMDQGCCsGAQUFBwEBBCgwJjAkBggr
BgEFBQcwAYYYaHR0cDovL29jc3AudmVyaXNpZ24uY29tMB0GA1UdJQQWMBQGCCsG
AQUFBwMCBggrBgEFBQcDAzAoBgNVHREEITAfpB0wGzEZMBcGA1UEAxMQVmVyaVNp
Z25NUEtJLTItODAdBgNVHQ4EFgQUz5mp6nsm9EvJjo/X8AUm7+PSp50wHwYDVR0j
BBgwFoAUf9Nlp8Ld7LvwMAnzQzn6Aq8zMTMwDQYJKoZIhvcNAQEFBQADggEBAFYi
5jSkxGHLSLkBrVaoZA/ZjJHEu8wM5a16oCJ/30c4Si1s0X9xGnzscKmx8E/kDwxT
+hVe/nSYSSSFgSYckRRHsExjjLuhNNTGRegNhSZzA9CpjGRt3HGS5kUFYBVZUTn8
WBRr/tSk7XlrCAxBcuc3IgYJviPpP0SaHulhncyxkFz8PdKNrEI9ZTbUtD1AKI+b
EM8jJsxLIMuQH12MTDTKPNjlN9ZvpSC9NOsm2a4N58Wa96G0IZEzb4boWLslfHQO
WP51G2M/zjF8m48blp7FU3aEW5ytkfqs7ZO6XcghU8KCU2OvEg1QhxEbPVRSloos
nD2SGgiaBS7Hk6VIkdM=
-----END CERTIFICATE-----

