Certificate:
    Data:
        Version: 3 (0x2)
        Serial Number:
            2a:95:32:18:e1:0b:4b:7b:6f:d1:4b:2a:9e:c3:0d:26
    Signature Algorithm: sha256WithRSAEncryption
        Issuer: C=US, O=VeriSign, Inc., OU=VeriSign Trust Network, OU=(c) 2008 VeriSign, Inc. - For authorized use only, CN=VeriSign Universal Root Certification Authority
        Validity
            Not Before: May 12 00:00:00 2016 GMT
            Not After : May 11 23:59:59 2026 GMT
        Subject: C=US, O=Symantec Corporation, OU=Symantec Trust Network, CN=Symantec Class 3 Extended Validation Code Signing CA - G3
        Subject Public Key Info:
            Public Key Algorithm: rsaEncryption
                Public-Key: (2048 bit)
                Modulus:
                    00:a5:90:94:b2:ce:15:bd:af:50:19:e0:c4:ce:0a:
                    68:e8:f8:68:1c:3c:e5:2b:ce:0b:4b:57:de:a1:bd:
                    1a:76:cf:c7:9f:34:b1:00:6d:78:f9:26:e5:cc:99:
                    ac:74:c6:9e:e0:6c:e1:2d:91:20:93:87:6b:6e:84:
                    6c:d5:2e:52:17:d0:8f:d9:ea:ec:fc:ec:20:f2:0d:
                    da:3f:6d:9c:25:d1:db:fb:20:ec:f0:d0:ff:4b:10:
                    b6:b9:39:11:8d:f6:0c:a2:4c:4f:b8:1d:f7:7d:d0:
                    e5:cf:f7:5c:33:80:66:a4:d6:22:6f:7b:e3:78:17:
                    06:05:f4:c6:c6:94:b7:fe:cb:56:2a:7e:0f:fa:18:
                    f3:48:03:4d:a7:6e:16:b7:15:1b:7d:dc:2f:db:43:
                    0e:29:1e:d1:78:6f:68:18:1b:b7:82:cb:7e:58:8f:
                    d8:d2:98:7f:90:4d:bb:c7:0b:3c:71:fe:cc:c4:cb:
                    f6:a3:42:10:ac:1d:ca:83:fc:91:be:2c:aa:80:af:
                    b7:99:69:46:71:d3:95:20:99:cd:51:2e:95:f8:ac:
                    12:1e:7c:e2:b4:22:69:2e:0b:c0:17:7c:a0:fd:ed:
                    5c:a6:2e:22:2b:65:ff:7d:cd:31:a4:63:ac:df:22:
                    e5:93:7c:a2:4e:82:c2:13:2c:bf:1c:8b:22:3d:ab:
                    66:ed
                Exponent: 65537 (0x10001)
        X509v3 extensions:
            Authority Information Access: 
                OCSP - URI:http://s.symcd.com

            X509v3 Basic Constraints: critical
                CA:TRUE, pathlen:0
            X509v3 Certificate Policies: 
                Policy: 2.23.140.1.3
                  CPS: https://d.symcb.com/cps
                  User Notice:
                    Explicit Text: https://d.symcb.com/rpa

            X509v3 CRL Distribution Points: 

                Full Name:
                  URI:http://s.symcb.com/universal-root.crl

            X509v3 Extended Key Usage: critical
                Code Signing
            X509v3 Key Usage: critical
                Certificate Sign, CRL Sign
            X509v3 Subject Alternative Name: 
                DirName:/CN=SymantecPKI-2-388
            X509v3 Subject Key Identifier: 
                AB:8B:11:49:0B:2A:02:62:75:4A:9B:C5:02:20:A0:84:D2:4B:F8:DE
            X509v3 Authority Key Identifier: 
                keyid:B6:77:FA:69:48:47:9F:53:12:D5:C2:EA:07:32:76:07:D1:97:07:19

    Signature Algorithm: sha256WithRSAEncryption
         30:31:a8:11:7e:19:ae:1d:34:d3:d2:d7:cc:b0:1c:ca:01:a1:
         4a:16:5f:68:c5:ca:4d:05:59:01:f4:fc:85:0a:a7:cf:1f:b0:
         1c:20:64:09:41:18:12:b4:e3:dd:32:33:72:99:13:2b:48:5d:
         49:96:11:22:e7:b9:c4:6f:05:30:4d:6c:ac:33:be:4d:4f:22:
         62:d6:f1:67:2a:16:7b:c6:8c:8e:0e:b9:96:00:9d:0e:64:01:
         92:64:ea:37:f8:04:7e:11:62:6f:8c:2c:9c:5d:0b:b8:ff:dd:
         7f:40:cc:e8:88:f2:9d:26:34:49:b4:1f:bd:f9:5b:3f:78:73:
         2e:81:fa:69:1a:f3:94:8f:95:30:7e:c2:b4:d8:95:25:d2:7a:
         fe:8a:38:e8:b0:6f:f6:6f:39:f0:ce:fa:84:56:10:7f:56:a7:
         c5:14:60:b4:4f:5a:39:81:4a:ac:e1:32:60:4b:0e:14:a0:f5:
         1e:a1:48:43:97:59:91:bd:1d:68:66:98:30:00:8b:c2:59:d4:
         7e:f6:85:1b:7a:7f:ba:db:65:68:0e:ad:6e:73:b6:54:39:f4:
         68:03:85:7c:a1:bc:53:b3:3b:a1:82:3f:78:24:35:02:a4:ae:
         85:86:c2:05:e7:80:75:5c:05:91:79:ed:aa:8d:87:69:26:8a:
         17:81:e7:c3
-----BEGIN CERTIFICATE-----
MIIFUTCCBDmgAwIBAgIQKpUyGOELS3tv0UsqnsMNJjANBgkqhkiG9w0BAQsFADCB
vTELMAkGA1UEBhMCVVMxFzAVBgNVBAoTDlZlcmlTaWduLCBJbmMuMR8wHQYDVQQL
ExZWZXJpU2lnbiBUcnVzdCBOZXR3b3JrMTowOAYDVQQLEzEoYykgMjAwOCBWZXJp
U2lnbiwgSW5jLiAtIEZvciBhdXRob3JpemVkIHVzZSBvbmx5MTgwNgYDVQQDEy9W
ZXJpU2lnbiBVbml2ZXJzYWwgUm9vdCBDZXJ0aWZpY2F0aW9uIEF1dGhvcml0eTAe
Fw0xNjA1MTIwMDAwMDBaFw0yNjA1MTEyMzU5NTlaMIGRMQswCQYDVQQGEwJVUzEd
MBsGA1UEChMUU3ltYW50ZWMgQ29ycG9yYXRpb24xHzAdBgNVBAsTFlN5bWFudGVj
IFRydXN0IE5ldHdvcmsxQjBABgNVBAMTOVN5bWFudGVjIENsYXNzIDMgRXh0ZW5k
ZWQgVmFsaWRhdGlvbiBDb2RlIFNpZ25pbmcgQ0EgLSBHMzCCASIwDQYJKoZIhvcN
AQEBBQADggEPADCCAQoCggEBAKWQlLLOFb2vUBngxM4KaOj4aBw85SvOC0tX3qG9
GnbPx580sQBtePkm5cyZrHTGnuBs4S2RIJOHa26EbNUuUhfQj9nq7PzsIPIN2j9t
nCXR2/sg7PDQ/0sQtrk5EY32DKJMT7gd933Q5c/3XDOAZqTWIm9743gXBgX0xsaU
t/7LVip+D/oY80gDTaduFrcVG33cL9tDDike0XhvaBgbt4LLfliP2NKYf5BNu8cL
PHH+zMTL9qNCEKwdyoP8kb4sqoCvt5lpRnHTlSCZzVEulfisEh584rQiaS4LwBd8
oP3tXKYuIitl/33NMaRjrN8i5ZN8ok6CwhMsvxyLIj2rZu0CAwEAAaOCAXUwggFx
MC4GCCsGAQUFBwEBBCIwIDAeBggrBgEFBQcwAYYSaHR0cDovL3Muc3ltY2QuY29t
MBIGA1UdEwEB/wQIMAYBAf8CAQAwYAYDVR0gBFkwVzBVBgVngQwBAzBMMCMGCCsG
AQUFBwIBFhdodHRwczovL2Quc3ltY2IuY29tL2NwczAlBggrBgEFBQcCAjAZGhdo
dHRwczovL2Quc3ltY2IuY29tL3JwYTA2BgNVHR8ELzAtMCugKaAnhiVodHRwOi8v
cy5zeW1jYi5jb20vdW5pdmVyc2FsLXJvb3QuY3JsMBYGA1UdJQEB/wQMMAoGCCsG
AQUFBwMDMA4GA1UdDwEB/wQEAwIBBjApBgNVHREEIjAgpB4wHDEaMBgGA1UEAxMR
U3ltYW50ZWNQS0ktMi0zODgwHQYDVR0OBBYEFKuLEUkLKgJidUqbxQIgoITSS/je
MB8GA1UdIwQYMBaAFLZ3+mlIR59TEtXC6gcydgfRlwcZMA0GCSqGSIb3DQEBCwUA
A4IBAQAwMagRfhmuHTTT0tfMsBzKAaFKFl9oxcpNBVkB9PyFCqfPH7AcIGQJQRgS
tOPdMjNymRMrSF1JlhEi57nEbwUwTWysM75NTyJi1vFnKhZ7xoyODrmWAJ0OZAGS
ZOo3+AR+EWJvjCycXQu4/91/QMzoiPKdJjRJtB+9+Vs/eHMugfppGvOUj5UwfsK0
2JUl0nr+ijjosG/2bznwzvqEVhB/VqfFFGC0T1o5gUqs4TJgSw4UoPUeoUhDl1mR
vR1oZpgwAIvCWdR+9oUben+622VoDq1uc7ZUOfRoA4V8obxTszuhgj94JDUCpK6F
hsIF54B1XAWRee2qjYdpJooXgefD
-----END CERTIFICATE-----

Certificate:
    Data:
        Version: 3 (0x2)
        Serial Number:
            63:e3:4d:3c:5e:10:d7:36:de:e1:c5:32:0c:2e:f8:f8
    Signature Algorithm: sha256WithRSAEncryption
        Issuer: C=US, O=Symantec Corporation, OU=Symantec Trust Network, CN=Symantec Class 3 Extended Validation Code Signing CA - G3
        Validity
            Not Before: Aug 29 00:00:00 2017 GMT
            Not After : Aug 28 23:59:59 2020 GMT
        Subject: jurisdictionC=CY/jurisdictionST=Limassol/jurisdictionL=Apsiou/businessCategory=Private Organization/serialNumber=HE 340361, C=CY, ST=Limassol, L=Apsiou, O=Movavi Software Limited, CN=Movavi Software Limited
        Subject Public Key Info:
            Public Key Algorithm: rsaEncryption
                Public-Key: (2048 bit)
                Modulus:
                    00:b9:bc:21:09:07:0a:20:06:59:a6:84:6a:f7:1b:
                    5c:58:5d:ce:96:59:ff:5a:54:55:f4:dd:ec:1c:50:
                    83:35:6c:08:7e:26:2b:34:28:00:26:e4:7e:81:83:
                    78:9a:9b:cf:20:ae:a6:2d:b2:78:ae:8e:42:7a:4a:
                    ff:ca:cb:81:98:00:bb:38:fb:0a:f5:c3:04:68:3b:
                    7a:cd:cf:2d:83:7d:2e:e7:de:3b:ef:a7:32:f2:d0:
                    7b:27:45:8b:40:29:ab:c8:54:09:35:ca:83:33:7e:
                    e5:79:c7:f6:19:a6:d0:4d:48:b3:9e:d5:94:49:e4:
                    b0:16:02:53:24:c3:21:46:7f:a9:57:78:37:1d:ab:
                    08:07:ef:de:94:66:e6:e1:fb:29:fe:25:a9:7d:d4:
                    f5:ee:18:34:44:95:d5:a6:a6:27:dd:c2:e7:c3:1e:
                    66:cc:e8:be:5d:9e:00:ee:4e:0f:ba:1e:45:ba:39:
                    ea:3e:13:64:46:b3:33:40:79:c4:de:7d:99:58:aa:
                    18:7e:87:a6:e7:20:44:c8:17:c3:ac:d9:79:ac:53:
                    6a:0f:fd:dc:a5:0f:b2:a8:e2:5f:92:a7:27:d5:40:
                    5f:77:ce:d5:d2:66:27:2f:58:dc:4e:fa:07:cd:5b:
                    7e:31:31:3f:c0:e9:e7:50:38:ff:e7:1b:86:6b:ba:
                    a0:59
                Exponent: 65537 (0x10001)
        X509v3 extensions:
            X509v3 Basic Constraints: 
                CA:FALSE
            X509v3 Key Usage: critical
                Digital Signature
            X509v3 CRL Distribution Points: 

                Full Name:
                  URI:http://rh.symcb.com/rh.crl

            X509v3 Certificate Policies: 
                Policy: 2.23.140.1.3
                  CPS: https://d.symcb.com/cps
                  User Notice:
                    Explicit Text: https://d.symcb.com/rpa

            X509v3 Extended Key Usage: critical
                Code Signing
            X509v3 Authority Key Identifier: 
                keyid:AB:8B:11:49:0B:2A:02:62:75:4A:9B:C5:02:20:A0:84:D2:4B:F8:DE

            X509v3 Subject Key Identifier: 
                BA:F0:60:2A:C6:BF:97:9F:A5:F2:C3:82:2D:EC:08:DF:BF:0C:23:2B
            Authority Information Access: 
                OCSP - URI:http://rh.symcd.com
                CA Issuers - URI:http://rh.symcb.com/rh.crt

    Signature Algorithm: sha256WithRSAEncryption
         18:bd:6f:3f:3d:b8:c1:89:bc:24:0c:2f:e5:d0:0b:39:d8:50:
         d3:93:aa:25:d0:7d:cb:29:c6:74:44:96:4c:b6:58:22:83:19:
         e7:2c:c8:50:09:05:a1:08:eb:ae:1b:6b:af:80:6f:6b:8d:15:
         5e:9d:73:de:44:cb:0b:a1:01:52:67:6b:1b:c0:56:87:ed:2c:
         cb:20:9d:09:9e:4a:c5:d1:50:88:a2:ca:63:d2:07:15:14:8b:
         5b:39:ee:d3:bb:89:0b:4a:58:6e:08:50:f3:b1:3f:6b:14:ca:
         fa:21:9e:92:ad:ef:b4:8e:76:23:c1:5b:d2:7a:e9:2f:56:49:
         57:72:c0:7e:14:47:01:c1:ba:45:58:25:0e:1b:f5:ad:6c:3b:
         f4:85:a3:04:57:d4:09:3a:a3:b8:7e:7f:fa:cb:5b:ad:88:72:
         ad:52:b2:1b:d3:d5:7f:12:5c:4d:ba:e9:8e:77:7a:94:b5:77:
         3a:c6:7c:99:89:2c:e1:87:eb:95:e9:09:3a:bc:c8:c8:19:08:
         6b:86:5c:d1:eb:f4:e6:b0:d5:a2:39:6c:16:7f:5a:59:c8:e3:
         c3:b2:44:41:f5:97:fb:1d:4e:6a:dd:08:34:8e:b0:b5:28:cc:
         1d:6e:41:7d:9e:4e:11:1c:03:1e:f9:cb:fa:2e:ee:3f:a7:28:
         b2:30:28:54
-----BEGIN CERTIFICATE-----
MIIFbzCCBFegAwIBAgIQY+NNPF4Q1zbe4cUyDC74+DANBgkqhkiG9w0BAQsFADCB
kTELMAkGA1UEBhMCVVMxHTAbBgNVBAoTFFN5bWFudGVjIENvcnBvcmF0aW9uMR8w
HQYDVQQLExZTeW1hbnRlYyBUcnVzdCBOZXR3b3JrMUIwQAYDVQQDEzlTeW1hbnRl
YyBDbGFzcyAzIEV4dGVuZGVkIFZhbGlkYXRpb24gQ29kZSBTaWduaW5nIENBIC0g
RzMwHhcNMTcwODI5MDAwMDAwWhcNMjAwODI4MjM1OTU5WjCB8TETMBEGCysGAQQB
gjc8AgEDEwJDWTEZMBcGCysGAQQBgjc8AgECDAhMaW1hc3NvbDEXMBUGCysGAQQB
gjc8AgEBDAZBcHNpb3UxHTAbBgNVBA8TFFByaXZhdGUgT3JnYW5pemF0aW9uMRIw
EAYDVQQFEwlIRSAzNDAzNjExCzAJBgNVBAYTAkNZMREwDwYDVQQIDAhMaW1hc3Nv
bDEPMA0GA1UEBwwGQXBzaW91MSAwHgYDVQQKDBdNb3ZhdmkgU29mdHdhcmUgTGlt
aXRlZDEgMB4GA1UEAwwXTW92YXZpIFNvZnR3YXJlIExpbWl0ZWQwggEiMA0GCSqG
SIb3DQEBAQUAA4IBDwAwggEKAoIBAQC5vCEJBwogBlmmhGr3G1xYXc6WWf9aVFX0
3ewcUIM1bAh+Jis0KAAm5H6Bg3iam88grqYtsniujkJ6Sv/Ky4GYALs4+wr1wwRo
O3rNzy2DfS7n3jvvpzLy0HsnRYtAKavIVAk1yoMzfuV5x/YZptBNSLOe1ZRJ5LAW
AlMkwyFGf6lXeDcdqwgH796UZubh+yn+Jal91PXuGDREldWmpifdwufDHmbM6L5d
ngDuTg+6HkW6Oeo+E2RGszNAecTefZlYqhh+h6bnIETIF8Os2XmsU2oP/dylD7Ko
4l+SpyfVQF93ztXSZicvWNxO+gfNW34xMT/A6edQOP/nG4ZruqBZAgMBAAGjggFf
MIIBWzAJBgNVHRMEAjAAMA4GA1UdDwEB/wQEAwIHgDArBgNVHR8EJDAiMCCgHqAc
hhpodHRwOi8vcmguc3ltY2IuY29tL3JoLmNybDBgBgNVHSAEWTBXMFUGBWeBDAED
MEwwIwYIKwYBBQUHAgEWF2h0dHBzOi8vZC5zeW1jYi5jb20vY3BzMCUGCCsGAQUF
BwICMBkMF2h0dHBzOi8vZC5zeW1jYi5jb20vcnBhMBYGA1UdJQEB/wQMMAoGCCsG
AQUFBwMDMB8GA1UdIwQYMBaAFKuLEUkLKgJidUqbxQIgoITSS/jeMB0GA1UdDgQW
BBS68GAqxr+Xn6Xyw4It7AjfvwwjKzBXBggrBgEFBQcBAQRLMEkwHwYIKwYBBQUH
MAGGE2h0dHA6Ly9yaC5zeW1jZC5jb20wJgYIKwYBBQUHMAKGGmh0dHA6Ly9yaC5z
eW1jYi5jb20vcmguY3J0MA0GCSqGSIb3DQEBCwUAA4IBAQAYvW8/PbjBibwkDC/l
0As52FDTk6ol0H3LKcZ0RJZMtlgigxnnLMhQCQWhCOuuG2uvgG9rjRVenXPeRMsL
oQFSZ2sbwFaH7SzLIJ0JnkrF0VCIospj0gcVFItbOe7Tu4kLSlhuCFDzsT9rFMr6
IZ6Sre+0jnYjwVvSeukvVklXcsB+FEcBwbpFWCUOG/WtbDv0haMEV9QJOqO4fn/6
y1utiHKtUrIb09V/ElxNuumOd3qUtXc6xnyZiSzhh+uV6Qk6vMjIGQhrhlzR6/Tm
sNWiOWwWf1pZyOPDskRB9Zf7HU5q3Qg0jrC1KMwdbkF9nk4RHAMe+cv6Lu4/pyiy
MChU
-----END CERTIFICATE-----

