Certificate:
    Data:
        Version: 3 (0x2)
        Serial Number:
            04:00:00:00:00:01:25:07:1d:f9:af
    Signature Algorithm: sha256WithRSAEncryption
        Issuer: C=BE, O=GlobalSign nv-sa, OU=Root CA, CN=GlobalSign Root CA
        Validity
            Not Before: Nov 18 10:00:00 2009 GMT
            Not After : Mar 18 10:00:00 2019 GMT
        Subject: OU=GlobalSign Root CA - R3, O=GlobalSign, CN=GlobalSign
        Subject Public Key Info:
            Public Key Algorithm: rsaEncryption
                Public-Key: (2048 bit)
                Modulus:
                    00:cc:25:76:90:79:06:78:22:16:f5:c0:83:b6:84:
                    ca:28:9e:fd:05:76:11:c5:ad:88:72:fc:46:02:43:
                    c7:b2:8a:9d:04:5f:24:cb:2e:4b:e1:60:82:46:e1:
                    52:ab:0c:81:47:70:6c:dd:64:d1:eb:f5:2c:a3:0f:
                    82:3d:0c:2b:ae:97:d7:b6:14:86:10:79:bb:3b:13:
                    80:77:8c:08:e1:49:d2:6a:62:2f:1f:5e:fa:96:68:
                    df:89:27:95:38:9f:06:d7:3e:c9:cb:26:59:0d:73:
                    de:b0:c8:e9:26:0e:83:15:c6:ef:5b:8b:d2:04:60:
                    ca:49:a6:28:f6:69:3b:f6:cb:c8:28:91:e5:9d:8a:
                    61:57:37:ac:74:14:dc:74:e0:3a:ee:72:2f:2e:9c:
                    fb:d0:bb:bf:f5:3d:00:e1:06:33:e8:82:2b:ae:53:
                    a6:3a:16:73:8c:dd:41:0e:20:3a:c0:b4:a7:a1:e9:
                    b2:4f:90:2e:32:60:e9:57:cb:b9:04:92:68:68:e5:
                    38:26:60:75:b2:9f:77:ff:91:14:ef:ae:20:49:fc:
                    ad:40:15:48:d1:02:31:61:19:5e:b8:97:ef:ad:77:
                    b7:64:9a:7a:bf:5f:c1:13:ef:9b:62:fb:0d:6c:e0:
                    54:69:16:a9:03:da:6e:e9:83:93:71:76:c6:69:85:
                    82:17
                Exponent: 65537 (0x10001)
        X509v3 extensions:
            X509v3 Key Usage: critical
                Certificate Sign, CRL Sign
            X509v3 Basic Constraints: critical
                CA:TRUE
            X509v3 Subject Key Identifier: 
                8F:F0:4B:7F:A8:2E:45:24:AE:4D:50:FA:63:9A:8B:DE:E2:DD:1B:BC
            X509v3 Certificate Policies: 
                Policy: X509v3 Any Policy
                  CPS: http://www.globalsign.net/repository/

            X509v3 CRL Distribution Points: 

                Full Name:
                  URI:http://crl.globalsign.net/root.crl

            Authority Information Access: 
                OCSP - URI:http://ocsp.globalsign.com/ExtendedSSLSHA256CACross

            X509v3 Authority Key Identifier: 
                keyid:60:7B:66:1A:45:0D:97:CA:89:50:2F:7D:04:CD:34:A8:FF:FC:FD:4B

    Signature Algorithm: sha256WithRSAEncryption
         42:52:a9:7e:a2:cf:5b:3b:cb:4b:dd:ba:f8:57:59:d3:24:a4:
         77:72:ef:62:44:37:82:ed:06:ee:04:d5:16:5f:24:a3:14:dc:
         6c:54:05:6a:b0:9b:3d:da:81:39:da:ad:28:db:95:6f:81:83:
         f5:cd:62:b1:45:24:b1:dd:29:e5:08:54:95:95:8c:f0:1d:06:
         5f:1a:d6:46:3f:13:40:17:48:11:16:9b:47:4d:d1:3a:b5:0f:
         57:1c:92:30:d0:f8:b2:25:3b:0a:cd:f6:87:f9:c7:b2:57:d3:
         3f:7d:a5:8c:14:ce:9c:a8:c7:9f:46:93:da:59:fa:79:5d:65:
         20:35:44:5a:4f:c1:90:9d:c1:54:92:56:dc:34:c8:f5:c1:03:
         d0:5d:c0:59:48:9c:00:fc:95:a0:f1:d1:76:f7:16:36:c8:13:
         92:7f:2d:2b:c0:b8:80:f1:26:26:1f:41:4d:52:bf:1e:97:bb:
         01:82:08:e7:15:f6:c1:d5:34:2a:cc:f5:e4:c3:87:7a:57:81:
         e1:d6:d7:42:86:62:01:77:e2:a9:c4:7a:86:f4:04:38:7a:07:
         6a:7d:00:ec:73:f7:a8:0b:34:78:c5:9e:b3:ef:b8:38:40:0e:
         8c:33:53:c8:75:ec:5f:3e:ea:75:5e:ff:82:0e:74:15:dc:19:
         05:f3:ba:31
-----BEGIN CERTIFICATE-----
MIIEXTCCA0WgAwIBAgILBAAAAAABJQcd+a8wDQYJKoZIhvcNAQELBQAwVzELMAkG
A1UEBhMCQkUxGTAXBgNVBAoTEEdsb2JhbFNpZ24gbnYtc2ExEDAOBgNVBAsTB1Jv
b3QgQ0ExGzAZBgNVBAMTEkdsb2JhbFNpZ24gUm9vdCBDQTAeFw0wOTExMTgxMDAw
MDBaFw0xOTAzMTgxMDAwMDBaMEwxIDAeBgNVBAsTF0dsb2JhbFNpZ24gUm9vdCBD
QSAtIFIzMRMwEQYDVQQKEwpHbG9iYWxTaWduMRMwEQYDVQQDEwpHbG9iYWxTaWdu
MIIBIjANBgkqhkiG9w0BAQEFAAOCAQ8AMIIBCgKCAQEAzCV2kHkGeCIW9cCDtoTK
KJ79BXYRxa2IcvxGAkPHsoqdBF8kyy5L4WCCRuFSqwyBR3Bs3WTR6/Usow+CPQwr
rpfXthSGEHm7OxOAd4wI4UnSamIvH176lmjfiSeVOJ8G1z7JyyZZDXPesMjpJg6D
FcbvW4vSBGDKSaYo9mk79svIKJHlnYphVzesdBTcdOA67nIvLpz70Lu/9T0A4QYz
6IIrrlOmOhZzjN1BDiA6wLSnoemyT5AuMmDpV8u5BJJoaOU4JmB1sp93/5EU764g
SfytQBVI0QIxYRleuJfvrXe3ZJp6v1/BE++bYvsNbOBUaRapA9pu6YOTcXbGaYWC
FwIDAQABo4IBMzCCAS8wDgYDVR0PAQH/BAQDAgEGMA8GA1UdEwEB/wQFMAMBAf8w
HQYDVR0OBBYEFI/wS3+oLkUkrk1Q+mOai97i3Ru8MEYGA1UdIAQ/MD0wOwYEVR0g
ADAzMDEGCCsGAQUFBwIBFiVodHRwOi8vd3d3Lmdsb2JhbHNpZ24ubmV0L3JlcG9z
aXRvcnkvMDMGA1UdHwQsMCowKKAmoCSGImh0dHA6Ly9jcmwuZ2xvYmFsc2lnbi5u
ZXQvcm9vdC5jcmwwTwYIKwYBBQUHAQEEQzBBMD8GCCsGAQUFBzABhjNodHRwOi8v
b2NzcC5nbG9iYWxzaWduLmNvbS9FeHRlbmRlZFNTTFNIQTI1NkNBQ3Jvc3MwHwYD
VR0jBBgwFoAUYHtmGkUNl8qJUC99BM00qP/8/UswDQYJKoZIhvcNAQELBQADggEB
AEJSqX6iz1s7y0vduvhXWdMkpHdy72JEN4LtBu4E1RZfJKMU3GxUBWqwmz3agTna
rSjblW+Bg/XNYrFFJLHdKeUIVJWVjPAdBl8a1kY/E0AXSBEWm0dN0Tq1D1cckjDQ
+LIlOwrN9of5x7JX0z99pYwUzpyox59Gk9pZ+nldZSA1RFpPwZCdwVSSVtw0yPXB
A9BdwFlInAD8laDx0Xb3FjbIE5J/LSvAuIDxJiYfQU1Svx6XuwGCCOcV9sHVNCrM
9eTDh3pXgeHW10KGYgF34qnEeob0BDh6B2p9AOxz96gLNHjFnrPvuDhADowzU8h1
7F8+6nVe/4IOdBXcGQXzujE=
-----END CERTIFICATE-----

Certificate:
    Data:
        Version: 3 (0x2)
        Serial Number:
            04:00:00:00:00:01:31:89:c6:4d:e1
    Signature Algorithm: sha256WithRSAEncryption
        Issuer: OU=GlobalSign Root CA - R3, O=GlobalSign, CN=GlobalSign
        Validity
            Not Before: Aug  2 10:00:00 2011 GMT
            Not After : Aug  2 10:00:00 2019 GMT
        Subject: C=BE, O=GlobalSign nv-sa, CN=GlobalSign Extended Validation CodeSigning CA - SHA256 - G2
        Subject Public Key Info:
            Public Key Algorithm: rsaEncryption
                Public-Key: (2048 bit)
                Modulus:
                    00:9b:b6:1f:7f:17:55:ac:35:56:aa:a4:b3:fe:8a:
                    d0:3a:94:9e:69:ed:1c:a8:b5:ff:37:a4:59:cb:d2:
                    80:e5:ff:2e:db:19:8e:64:d0:eb:aa:15:1e:65:ad:
                    86:b9:74:ec:64:ba:9e:05:fa:df:98:7e:0b:0b:b5:
                    62:6b:f5:10:9d:b3:13:a2:fa:b8:d5:cf:e1:9e:24:
                    e7:5c:01:08:e3:b4:ac:aa:32:49:80:0a:76:7b:e5:
                    d1:1e:f8:f1:e5:57:2c:ab:18:9f:6f:37:46:dd:29:
                    4d:df:da:e1:9d:41:46:42:bc:53:e2:af:46:a8:0c:
                    6f:f0:ba:51:a1:a8:ab:fb:1d:ca:f3:40:37:66:35:
                    bd:be:a0:f8:0b:49:53:f1:47:05:46:ef:05:77:97:
                    97:f5:90:ff:af:4f:30:54:1b:49:fb:db:31:a7:08:
                    89:3a:bc:8d:ca:70:3c:e6:54:64:f7:59:b4:4b:da:
                    b4:97:8d:a8:a8:0c:ce:d6:55:7a:c4:da:d4:42:00:
                    45:3f:93:0f:64:8d:3d:f8:b9:12:77:bc:08:8a:b1:
                    aa:b6:12:01:c8:48:de:e9:e4:0a:e5:26:8b:ce:09:
                    d9:e2:df:ab:2b:1c:16:3d:de:ee:31:42:4a:e8:9d:
                    08:f4:89:53:ef:c9:72:a7:fa:a3:86:13:a9:e1:d4:
                    c6:d7
                Exponent: 65537 (0x10001)
        X509v3 extensions:
            X509v3 Key Usage: critical
                Certificate Sign, CRL Sign
            X509v3 Basic Constraints: critical
                CA:TRUE, pathlen:0
            X509v3 Subject Key Identifier: 
                0A:BC:24:2C:2C:F7:9C:E5:9F:95:7C:AD:BB:D5:F0:18:51:39:85:6E
            X509v3 Certificate Policies: 
                Policy: X509v3 Any Policy
                  CPS: https://www.globalsign.com/repository/

            X509v3 CRL Distribution Points: 

                Full Name:
                  URI:http://crl.globalsign.net/root-r3.crl

            Authority Information Access: 
                OCSP - URI:http://ocsp2.globalsign.com/rootr3

            X509v3 Extended Key Usage: 
                Code Signing
            X509v3 Authority Key Identifier: 
                keyid:8F:F0:4B:7F:A8:2E:45:24:AE:4D:50:FA:63:9A:8B:DE:E2:DD:1B:BC

    Signature Algorithm: sha256WithRSAEncryption
         aa:a1:11:97:ff:b4:23:e8:f3:03:ec:d3:8e:ef:52:a1:5c:83:
         35:63:e5:ff:f1:42:b7:83:35:c6:93:f5:50:5e:9b:89:21:e8:
         58:53:18:88:34:fb:dd:49:e1:22:ea:0f:8a:b1:22:48:29:19:
         dc:2e:f9:23:68:58:81:14:55:2d:24:b9:29:68:78:53:ac:72:
         fd:cb:f1:8a:53:a0:da:c8:10:6f:89:38:23:6e:bb:99:f1:73:
         90:db:f1:bf:80:a3:ae:8d:49:15:bc:8d:88:fd:59:1d:fe:13:
         ae:54:c3:a6:97:cd:00:6b:3d:41:48:90:15:05:e4:a4:18:03:
         d4:d7:a9:e3:a9:40:b6:6c:21:ac:d3:7e:1c:e6:5d:f4:04:b1:
         8b:da:0c:d8:aa:eb:b9:36:51:7f:17:3a:8d:37:28:c7:b7:b8:
         71:90:12:c6:6c:6c:b4:84:3b:f1:a5:47:dc:c4:a3:3b:2c:5d:
         ea:08:83:c4:e3:39:10:e4:ab:21:65:0a:42:56:d8:b2:68:f6:
         93:e5:1e:e2:83:01:ab:0b:86:b2:cf:a5:4a:37:a4:b2:dc:6c:
         d7:82:31:8d:3f:90:e6:b1:2a:05:70:89:fc:20:1d:9f:2a:f7:
         cc:dd:93:b5:57:0d:eb:40:03:02:d0:04:4f:84:ed:f0:72:80:
         07:95:12:14
-----BEGIN CERTIFICATE-----
MIIEfzCCA2egAwIBAgILBAAAAAABMYnGTeEwDQYJKoZIhvcNAQELBQAwTDEgMB4G
A1UECxMXR2xvYmFsU2lnbiBSb290IENBIC0gUjMxEzARBgNVBAoTCkdsb2JhbFNp
Z24xEzARBgNVBAMTCkdsb2JhbFNpZ24wHhcNMTEwODAyMTAwMDAwWhcNMTkwODAy
MTAwMDAwWjBuMQswCQYDVQQGEwJCRTEZMBcGA1UEChMQR2xvYmFsU2lnbiBudi1z
YTFEMEIGA1UEAxM7R2xvYmFsU2lnbiBFeHRlbmRlZCBWYWxpZGF0aW9uIENvZGVT
aWduaW5nIENBIC0gU0hBMjU2IC0gRzIwggEiMA0GCSqGSIb3DQEBAQUAA4IBDwAw
ggEKAoIBAQCbth9/F1WsNVaqpLP+itA6lJ5p7Ryotf83pFnL0oDl/y7bGY5k0Ouq
FR5lrYa5dOxkup4F+t+YfgsLtWJr9RCdsxOi+rjVz+GeJOdcAQjjtKyqMkmACnZ7
5dEe+PHlVyyrGJ9vN0bdKU3f2uGdQUZCvFPir0aoDG/wulGhqKv7HcrzQDdmNb2+
oPgLSVPxRwVG7wV3l5f1kP+vTzBUG0n72zGnCIk6vI3KcDzmVGT3WbRL2rSXjaio
DM7WVXrE2tRCAEU/kw9kjT34uRJ3vAiKsaq2EgHISN7p5ArlJovOCdni36srHBY9
3u4xQkronQj0iVPvyXKn+qOGE6nh1MbXAgMBAAGjggE+MIIBOjAOBgNVHQ8BAf8E
BAMCAQYwEgYDVR0TAQH/BAgwBgEB/wIBADAdBgNVHQ4EFgQUCrwkLCz3nOWflXyt
u9XwGFE5hW4wRwYDVR0gBEAwPjA8BgRVHSAAMDQwMgYIKwYBBQUHAgEWJmh0dHBz
Oi8vd3d3Lmdsb2JhbHNpZ24uY29tL3JlcG9zaXRvcnkvMDYGA1UdHwQvMC0wK6Ap
oCeGJWh0dHA6Ly9jcmwuZ2xvYmFsc2lnbi5uZXQvcm9vdC1yMy5jcmwwPgYIKwYB
BQUHAQEEMjAwMC4GCCsGAQUFBzABhiJodHRwOi8vb2NzcDIuZ2xvYmFsc2lnbi5j
b20vcm9vdHIzMBMGA1UdJQQMMAoGCCsGAQUFBwMDMB8GA1UdIwQYMBaAFI/wS3+o
LkUkrk1Q+mOai97i3Ru8MA0GCSqGSIb3DQEBCwUAA4IBAQCqoRGX/7Qj6PMD7NOO
71KhXIM1Y+X/8UK3gzXGk/VQXpuJIehYUxiINPvdSeEi6g+KsSJIKRncLvkjaFiB
FFUtJLkpaHhTrHL9y/GKU6DayBBviTgjbruZ8XOQ2/G/gKOujUkVvI2I/Vkd/hOu
VMOml80Aaz1BSJAVBeSkGAPU16njqUC2bCGs034c5l30BLGL2gzYquu5NlF/FzqN
NyjHt7hxkBLGbGy0hDvxpUfcxKM7LF3qCIPE4zkQ5KshZQpCVtiyaPaT5R7igwGr
C4ayz6VKN6Sy3GzXgjGNP5DmsSoFcIn8IB2fKvfM3ZO1Vw3rQAMC0ARPhO3wcoAH
lRIU
-----END CERTIFICATE-----

Certificate:
    Data:
        Version: 3 (0x2)
        Serial Number:
            11:21:97:10:24:4a:df:27:2a:e3:c0:50:7f:da:94:6c:e2:54
    Signature Algorithm: sha256WithRSAEncryption
        Issuer: C=BE, O=GlobalSign nv-sa, CN=GlobalSign Extended Validation CodeSigning CA - SHA256 - G2
        Validity
            Not Before: Jan 28 07:31:46 2016 GMT
            Not After : Jan 28 07:31:46 2017 GMT
        Subject: businessCategory=Private Organization/serialNumber=110111-1925754/jurisdictionC=KR, C=KR, ST=Seoul, L=Seocho-gu/street=26-7, Gangnam-daero 39-gil, O=Nagosoft Inc., CN=Nagosoft Inc.
        Subject Public Key Info:
            Public Key Algorithm: rsaEncryption
                Public-Key: (2048 bit)
                Modulus:
                    00:cb:55:fd:58:95:11:3f:d0:07:7b:95:99:39:15:
                    73:72:0e:71:5b:d2:89:d7:93:70:2e:4c:24:84:e0:
                    32:6d:0c:60:1c:58:e3:1a:20:eb:62:65:93:1d:16:
                    df:8e:45:9b:5c:f3:21:08:c3:2d:84:2f:6a:9d:ea:
                    c5:c1:61:28:10:bc:26:ac:8a:45:15:6a:e4:80:b2:
                    b1:86:f0:ca:13:8d:02:5f:a2:98:c3:ba:f5:62:8c:
                    3c:50:b9:87:33:df:0f:82:2b:60:7f:b0:de:3c:f7:
                    7b:a4:0f:ec:d5:8c:9a:41:96:2f:6d:19:a1:9b:d2:
                    e7:99:bf:d2:2b:ac:ef:b5:ef:37:aa:11:72:7e:43:
                    06:b6:b8:60:e8:37:9b:13:c1:65:21:1f:e0:e3:35:
                    95:9f:b0:86:8b:6a:d6:e1:44:28:08:fc:7c:db:5e:
                    85:a6:ab:0c:11:f0:36:de:26:7c:cb:3c:37:15:af:
                    da:f5:e6:34:33:be:36:b0:6a:d0:84:04:d2:52:ff:
                    36:31:c5:f6:ea:54:0f:b1:f7:25:f2:b5:02:a5:f7:
                    7a:e9:48:66:3e:60:82:21:fd:16:ea:64:c6:75:a3:
                    45:dd:48:f5:ae:61:00:f8:ee:3f:be:11:be:c2:67:
                    23:0f:94:52:e5:ec:d5:bc:27:1b:56:ea:e3:98:f7:
                    7a:31
                Exponent: 65537 (0x10001)
        X509v3 extensions:
            X509v3 Key Usage: critical
                Digital Signature
            X509v3 Certificate Policies: 
                Policy: 1.3.6.1.4.1.4146.1.2
                  CPS: https://www.globalsign.com/repository/

            X509v3 Basic Constraints: 
                CA:FALSE
            X509v3 Extended Key Usage: 
                Code Signing
            X509v3 CRL Distribution Points: 

                Full Name:
                  URI:http://crl.globalsign.com/gs/gsevcodesignsha2g2.crl

            Authority Information Access: 
                CA Issuers - URI:http://secure.globalsign.com/cacert/gsextendcodesignsha2g2.crt
                OCSP - URI:http://ocsp2.globalsign.com/gsevcodesignsha2g2

            X509v3 Subject Alternative Name: 
                othername:<unsupported>
            X509v3 Subject Key Identifier: 
                A0:56:E5:44:BE:3D:95:C5:63:02:21:81:E6:DE:D4:5D:AE:29:5D:A2
            X509v3 Authority Key Identifier: 
                keyid:0A:BC:24:2C:2C:F7:9C:E5:9F:95:7C:AD:BB:D5:F0:18:51:39:85:6E

    Signature Algorithm: sha256WithRSAEncryption
         40:d7:dc:0c:2f:2b:75:87:e7:ba:56:9c:82:f2:17:d5:13:27:
         48:6c:03:38:6a:ab:21:c8:35:4b:b6:c3:a2:f9:f2:a6:b8:2a:
         df:fe:83:b6:45:f0:63:76:ad:4d:48:0f:95:43:69:a2:e5:f9:
         3d:b2:df:98:50:5b:91:23:ea:0a:8f:54:4b:ed:b8:da:52:b3:
         29:fb:ca:b7:a2:25:6f:a2:c7:5c:b3:03:3e:a7:2c:0d:1e:ee:
         b7:c1:7a:21:55:34:c7:88:90:28:6a:00:7b:7f:06:c7:71:f7:
         87:f9:89:0e:c0:86:ea:df:2f:88:21:c4:19:39:3b:c6:dc:24:
         86:16:99:61:2c:b1:09:8b:07:15:80:43:fa:d6:7d:37:12:61:
         76:63:a1:51:84:e8:3a:f6:ff:37:ac:38:17:be:aa:f5:32:a3:
         a9:59:56:cc:29:a7:bf:16:47:b0:81:c5:f4:8a:b0:5c:82:5b:
         5a:0c:60:16:bf:6c:dc:a0:89:87:2d:24:d0:fb:41:16:5a:86:
         d8:ba:83:2f:c2:7a:ab:b0:04:91:10:6e:02:e6:f6:01:ac:3d:
         6b:08:ce:f2:04:db:7c:8d:b3:01:80:8a:f6:e6:9c:d0:03:17:
         e5:3e:2d:99:dc:f8:57:10:05:4f:9b:11:3c:25:8a:90:d7:9e:
         ae:cf:96:8d
-----BEGIN CERTIFICATE-----
MIIFoTCCBImgAwIBAgISESGXECRK3ycq48BQf9qUbOJUMA0GCSqGSIb3DQEBCwUA
MG4xCzAJBgNVBAYTAkJFMRkwFwYDVQQKExBHbG9iYWxTaWduIG52LXNhMUQwQgYD
VQQDEztHbG9iYWxTaWduIEV4dGVuZGVkIFZhbGlkYXRpb24gQ29kZVNpZ25pbmcg
Q0EgLSBTSEEyNTYgLSBHMjAeFw0xNjAxMjgwNzMxNDZaFw0xNzAxMjgwNzMxNDZa
MIHTMR0wGwYDVQQPDBRQcml2YXRlIE9yZ2FuaXphdGlvbjEXMBUGA1UEBRMOMTEw
MTExLTE5MjU3NTQxEzARBgsrBgEEAYI3PAIBAxMCS1IxCzAJBgNVBAYTAktSMQ4w
DAYDVQQIEwVTZW91bDESMBAGA1UEBxMJU2VvY2hvLWd1MSMwIQYDVQQJExoyNi03
LCBHYW5nbmFtLWRhZXJvIDM5LWdpbDEWMBQGA1UEChMNTmFnb3NvZnQgSW5jLjEW
MBQGA1UEAxMNTmFnb3NvZnQgSW5jLjCCASIwDQYJKoZIhvcNAQEBBQADggEPADCC
AQoCggEBAMtV/ViVET/QB3uVmTkVc3IOcVvSideTcC5MJITgMm0MYBxY4xog62Jl
kx0W345Fm1zzIQjDLYQvap3qxcFhKBC8JqyKRRVq5ICysYbwyhONAl+imMO69WKM
PFC5hzPfD4IrYH+w3jz3e6QP7NWMmkGWL20ZoZvS55m/0ius77XvN6oRcn5DBra4
YOg3mxPBZSEf4OM1lZ+whotq1uFEKAj8fNtehaarDBHwNt4mfMs8NxWv2vXmNDO+
NrBq0IQE0lL/NjHF9upUD7H3JfK1AqX3eulIZj5ggiH9FupkxnWjRd1I9a5hAPju
P74RvsJnIw+UUuXs1bwnG1bq45j3ejECAwEAAaOCAdEwggHNMA4GA1UdDwEB/wQE
AwIHgDBMBgNVHSAERTBDMEEGCSsGAQQBoDIBAjA0MDIGCCsGAQUFBwIBFiZodHRw
czovL3d3dy5nbG9iYWxzaWduLmNvbS9yZXBvc2l0b3J5LzAJBgNVHRMEAjAAMBMG
A1UdJQQMMAoGCCsGAQUFBwMDMEQGA1UdHwQ9MDswOaA3oDWGM2h0dHA6Ly9jcmwu
Z2xvYmFsc2lnbi5jb20vZ3MvZ3NldmNvZGVzaWduc2hhMmcyLmNybDCBmAYIKwYB
BQUHAQEEgYswgYgwSgYIKwYBBQUHMAKGPmh0dHA6Ly9zZWN1cmUuZ2xvYmFsc2ln
bi5jb20vY2FjZXJ0L2dzZXh0ZW5kY29kZXNpZ25zaGEyZzIuY3J0MDoGCCsGAQUF
BzABhi5odHRwOi8vb2NzcDIuZ2xvYmFsc2lnbi5jb20vZ3NldmNvZGVzaWduc2hh
MmcyMCwGA1UdEQQlMCOgIQYIKwYBBQUHCAOgFTATDBFLUi0xMTAxMTEtMTkyNTc1
NDAdBgNVHQ4EFgQUoFblRL49lcVjAiGB5t7UXa4pXaIwHwYDVR0jBBgwFoAUCrwk
LCz3nOWflXytu9XwGFE5hW4wDQYJKoZIhvcNAQELBQADggEBAEDX3AwvK3WH57pW
nILyF9UTJ0hsAzhqqyHINUu2w6L58qa4Kt/+g7ZF8GN2rU1ID5VDaaLl+T2y35hQ
W5Ej6gqPVEvtuNpSsyn7yreiJW+ix1yzAz6nLA0e7rfBeiFVNMeIkChqAHt/Bsdx
94f5iQ7AhurfL4ghxBk5O8bcJIYWmWEssQmLBxWAQ/rWfTcSYXZjoVGE6Dr2/zes
OBe+qvUyo6lZVswpp78WR7CBxfSKsFyCW1oMYBa/bNygiYctJND7QRZahti6gy/C
equwBJEQbgLm9gGsPWsIzvIE23yNswGAivbmnNADF+U+LZnc+FcQBU+bETwlipDX
nq7Plo0=
-----END CERTIFICATE-----

