Certificate:
    Data:
        Version: 3 (0x2)
        Serial Number:
            41:de:65:ab:6c:e6:4f:53:df:33:bd:c3:7e:67:e2:84
    Signature Algorithm: sha1WithRSAEncryption
        Issuer: C=US, O=VeriSign, Inc., OU=VeriSign Trust Network, OU=Terms of use at https://www.verisign.com/rpa (c)10, CN=VeriSign Class 3 Code Signing 2010 CA
        Validity
            Not Before: Mar  4 00:00:00 2015 GMT
            Not After : Apr  2 23:59:59 2018 GMT
        Subject: C=IM, ST=Isle of Man, L=Douglas, O=PLAYTECH LIMITED, CN=PLAYTECH LIMITED
        Subject Public Key Info:
            Public Key Algorithm: rsaEncryption
                Public-Key: (2048 bit)
                Modulus:
                    00:c9:56:d5:cf:c8:4f:2f:fa:2e:5a:be:b6:6f:44:
                    97:2b:d8:94:f9:e7:22:9d:09:13:60:2e:66:f5:d8:
                    02:d7:d3:88:45:30:7d:86:0f:b4:80:80:04:f2:3d:
                    30:3c:5a:43:a9:bc:d5:4c:0e:20:8c:3d:e1:f8:26:
                    45:97:2a:30:7f:e7:2c:89:b7:2c:01:b3:0a:ed:58:
                    41:2a:e0:ac:cf:d0:5e:a5:f1:7a:51:48:76:ff:9f:
                    97:21:bf:9e:cc:9c:ee:d6:f4:a5:7b:61:c3:bd:6a:
                    21:0c:c5:b1:1e:a4:64:88:ba:ab:20:b9:ef:ef:7a:
                    64:93:1c:96:89:5e:b7:aa:7d:19:6b:f1:d4:c9:e6:
                    91:97:b0:43:c1:1f:0d:dc:c3:f1:ab:30:5c:af:c9:
                    ab:e3:de:f5:31:33:f3:48:83:da:53:15:14:93:1a:
                    c3:00:68:32:74:1f:f7:b5:7f:5f:6c:86:f6:c0:a1:
                    ff:84:9e:4a:cb:06:f4:f7:4a:86:82:3c:19:63:bf:
                    4a:a9:81:ae:5c:80:ea:46:8e:6f:92:dd:04:28:48:
                    7b:41:8e:07:75:39:75:43:65:9a:f6:a5:34:70:b9:
                    eb:41:1e:6f:ea:db:81:80:c5:2c:2b:f0:db:26:69:
                    20:72:b4:35:5e:00:3a:d8:e5:98:68:25:d9:07:1f:
                    9e:7d
                Exponent: 65537 (0x10001)
        X509v3 extensions:
            X509v3 Basic Constraints: 
                CA:FALSE
            X509v3 Key Usage: critical
                Digital Signature
            X509v3 CRL Distribution Points: 

                Full Name:
                  URI:http://sf.symcb.com/sf.crl

            X509v3 Certificate Policies: 
                Policy: 2.16.840.1.113733.1.7.23.3
                  CPS: https://d.symcb.com/cps
                  User Notice:
                    Explicit Text: https://d.symcb.com/rpa

            X509v3 Extended Key Usage: 
                Code Signing
            Authority Information Access: 
                OCSP - URI:http://sf.symcd.com
                CA Issuers - URI:http://sf.symcb.com/sf.crt

            X509v3 Authority Key Identifier: 
                keyid:CF:99:A9:EA:7B:26:F4:4B:C9:8E:8F:D7:F0:05:26:EF:E3:D2:A7:9D

            X509v3 Subject Key Identifier: 
                CA:7C:C2:10:1B:4F:7D:3A:B3:ED:7B:EC:A8:AC:05:07:08:82:29:EB
            Netscape Cert Type: 
                Object Signing
            1.3.6.1.4.1.311.2.1.27: 
                0.......
    Signature Algorithm: sha1WithRSAEncryption
         59:a4:39:87:28:8b:28:1a:35:15:3a:da:f6:fb:95:36:b7:9c:
         cc:6c:4d:69:af:15:6b:80:50:f0:83:19:9d:01:07:43:36:20:
         69:e8:97:c0:f2:f8:38:ca:3a:0d:3e:23:de:5a:a4:ad:cd:5f:
         88:44:a8:e6:3f:cb:c4:ae:93:44:50:16:12:12:13:96:fb:d9:
         03:2e:3d:59:1e:9e:f7:42:88:e1:69:63:aa:5f:51:bb:b2:0e:
         c7:44:e2:3f:97:a4:23:bf:e0:ee:b2:49:a5:c8:f6:2c:97:2e:
         4d:8a:b4:66:15:53:91:49:65:07:cc:90:28:b8:23:79:dc:2b:
         90:36:8a:4f:05:b8:aa:a7:32:58:54:bc:23:54:d0:cf:3c:a7:
         3b:92:63:71:91:a3:c1:7f:c1:4a:66:48:d3:1a:2f:f7:b3:44:
         52:9c:76:01:b1:bf:43:e5:b5:7c:e5:59:49:f5:d1:b9:e4:4d:
         63:cd:27:e5:04:ff:c6:e2:f1:26:3d:b0:fb:68:8c:8a:f3:3a:
         55:19:63:3a:f1:36:87:22:b8:a6:2d:b6:66:66:06:9e:e2:cf:
         4c:9d:bb:c4:1a:60:44:aa:21:e2:fa:1a:95:c0:47:85:bf:bb:
         1a:e0:e6:e5:be:7e:e2:ef:68:42:5a:5d:28:28:c0:a3:98:32:
         12:93:a6:30
-----BEGIN CERTIFICATE-----
MIIFOTCCBCGgAwIBAgIQQd5lq2zmT1PfM73DfmfihDANBgkqhkiG9w0BAQUFADCB
tDELMAkGA1UEBhMCVVMxFzAVBgNVBAoTDlZlcmlTaWduLCBJbmMuMR8wHQYDVQQL
ExZWZXJpU2lnbiBUcnVzdCBOZXR3b3JrMTswOQYDVQQLEzJUZXJtcyBvZiB1c2Ug
YXQgaHR0cHM6Ly93d3cudmVyaXNpZ24uY29tL3JwYSAoYykxMDEuMCwGA1UEAxMl
VmVyaVNpZ24gQ2xhc3MgMyBDb2RlIFNpZ25pbmcgMjAxMCBDQTAeFw0xNTAzMDQw
MDAwMDBaFw0xODA0MDIyMzU5NTlaMGsxCzAJBgNVBAYTAklNMRQwEgYDVQQIEwtJ
c2xlIG9mIE1hbjEQMA4GA1UEBxMHRG91Z2xhczEZMBcGA1UEChQQUExBWVRFQ0gg
TElNSVRFRDEZMBcGA1UEAxQQUExBWVRFQ0ggTElNSVRFRDCCASIwDQYJKoZIhvcN
AQEBBQADggEPADCCAQoCggEBAMlW1c/ITy/6Llq+tm9ElyvYlPnnIp0JE2AuZvXY
AtfTiEUwfYYPtICABPI9MDxaQ6m81UwOIIw94fgmRZcqMH/nLIm3LAGzCu1YQSrg
rM/QXqXxelFIdv+flyG/nsyc7tb0pXthw71qIQzFsR6kZIi6qyC57+96ZJMclole
t6p9GWvx1MnmkZewQ8EfDdzD8aswXK/Jq+Pe9TEz80iD2lMVFJMawwBoMnQf97V/
X2yG9sCh/4SeSssG9PdKhoI8GWO/SqmBrlyA6kaOb5LdBChIe0GOB3U5dUNlmval
NHC560Eeb+rbgYDFLCvw2yZpIHK0NV4AOtjlmGgl2Qcfnn0CAwEAAaOCAY0wggGJ
MAkGA1UdEwQCMAAwDgYDVR0PAQH/BAQDAgeAMCsGA1UdHwQkMCIwIKAeoByGGmh0
dHA6Ly9zZi5zeW1jYi5jb20vc2YuY3JsMGYGA1UdIARfMF0wWwYLYIZIAYb4RQEH
FwMwTDAjBggrBgEFBQcCARYXaHR0cHM6Ly9kLnN5bWNiLmNvbS9jcHMwJQYIKwYB
BQUHAgIwGQwXaHR0cHM6Ly9kLnN5bWNiLmNvbS9ycGEwEwYDVR0lBAwwCgYIKwYB
BQUHAwMwVwYIKwYBBQUHAQEESzBJMB8GCCsGAQUFBzABhhNodHRwOi8vc2Yuc3lt
Y2QuY29tMCYGCCsGAQUFBzAChhpodHRwOi8vc2Yuc3ltY2IuY29tL3NmLmNydDAf
BgNVHSMEGDAWgBTPmanqeyb0S8mOj9fwBSbv49KnnTAdBgNVHQ4EFgQUynzCEBtP
fTqz7XvsqKwFBwiCKeswEQYJYIZIAYb4QgEBBAQDAgQQMBYGCisGAQQBgjcCARsE
CDAGAQEAAQH/MA0GCSqGSIb3DQEBBQUAA4IBAQBZpDmHKIsoGjUVOtr2+5U2t5zM
bE1prxVrgFDwgxmdAQdDNiBp6JfA8vg4yjoNPiPeWqStzV+IRKjmP8vErpNEUBYS
EhOW+9kDLj1ZHp73QojhaWOqX1G7sg7HROI/l6Qjv+DuskmlyPYsly5NirRmFVOR
SWUHzJAouCN53CuQNopPBbiqpzJYVLwjVNDPPKc7kmNxkaPBf8FKZkjTGi/3s0RS
nHYBsb9D5bV85VlJ9dG55E1jzSflBP/G4vEmPbD7aIyK8zpVGWM68TaHIrimLbZm
Zgae4s9MnbvEGmBEqiHi+hqVwEeFv7sa4Oblvn7i72hCWl0oKMCjmDISk6Yw
-----END CERTIFICATE-----

