Certificate:
    Data:
        Version: 3 (0x2)
        Serial Number:
            7e:93:eb:fb:7c:c6:4e:59:ea:4b:9a:77:d4:06:fc:3b
    Signature Algorithm: sha1WithRSAEncryption
        Issuer: C=ZA, ST=Western Cape, L=Durbanville, O=Thawte, OU=Thawte Certification, CN=Thawte Timestamping CA
        Validity
            Not Before: Dec 21 00:00:00 2012 GMT
            Not After : Dec 30 23:59:59 2020 GMT
        Subject: C=US, O=Symantec Corporation, CN=Symantec Time Stamping Services CA - G2
        Subject Public Key Info:
            Public Key Algorithm: rsaEncryption
                Public-Key: (2048 bit)
                Modulus:
                    00:b1:ac:b3:49:54:4b:97:1c:12:0a:d8:25:79:91:
                    22:57:2a:6f:dc:b8:26:c4:43:73:6b:c2:bf:2e:50:
                    5a:fb:14:c2:76:8e:43:01:25:43:b4:a1:e2:45:f4:
                    e8:b7:7b:c3:74:cc:22:d7:b4:94:00:02:f7:4d:ed:
                    bf:b4:b7:44:24:6b:cd:5f:45:3b:d1:44:ce:43:12:
                    73:17:82:8b:69:b4:2b:cb:99:1e:ac:72:1b:26:4d:
                    71:1f:b1:31:dd:fb:51:61:02:53:a6:aa:f5:49:2c:
                    05:78:45:a5:2f:89:ce:e7:99:e7:fe:8c:e2:57:3f:
                    3d:c6:92:dc:4a:f8:7b:33:e4:79:0a:fb:f0:75:88:
                    41:9c:ff:c5:03:51:99:aa:d7:6c:9f:93:69:87:65:
                    29:83:85:c2:60:14:c4:c8:c9:3b:14:da:c0:81:f0:
                    1f:0d:74:de:92:22:ab:ca:f7:fb:74:7c:27:e6:f7:
                    4a:1b:7f:a7:c3:9e:2d:ae:8a:ea:a6:e6:aa:27:16:
                    7d:61:f7:98:71:11:bc:e2:50:a1:4b:e5:5d:fa:e5:
                    0e:a7:2c:9f:aa:65:20:d3:d8:96:e8:c8:7c:a5:4e:
                    48:44:ff:19:e2:44:07:92:0b:d7:68:84:80:5d:6a:
                    78:64:45:cd:60:46:7e:54:c1:13:7c:c5:79:f1:c9:
                    c1:71
                Exponent: 65537 (0x10001)
        X509v3 extensions:
            X509v3 Subject Key Identifier: 
                5F:9A:F5:6E:5C:CC:CC:74:9A:D4:DD:7D:EF:3F:DB:EC:4C:80:2E:DD
            Authority Information Access: 
                OCSP - URI:http://ocsp.thawte.com

            X509v3 Basic Constraints: critical
                CA:TRUE, pathlen:0
            X509v3 CRL Distribution Points: 

                Full Name:
                  URI:http://crl.thawte.com/ThawteTimestampingCA.crl

            X509v3 Extended Key Usage: 
                Time Stamping
            X509v3 Key Usage: critical
                Certificate Sign, CRL Sign
            X509v3 Subject Alternative Name: 
                DirName:/CN=TimeStamp-2048-1
    Signature Algorithm: sha1WithRSAEncryption
         03:09:9b:8f:79:ef:7f:59:30:aa:ef:68:b5:fa:e3:09:1d:bb:
         4f:82:06:5d:37:5f:a6:52:9f:16:8d:ea:1c:92:09:44:6e:f5:
         6d:eb:58:7c:30:e8:f9:69:8d:23:73:0b:12:6f:47:a9:ae:39:
         11:f8:2a:b1:9b:b0:1a:c3:8e:eb:59:96:00:ad:ce:0c:4d:b2:
         d0:31:a6:08:5c:2a:7a:fc:e2:7a:1d:57:4c:a8:65:18:e9:79:
         40:62:25:96:6e:c7:c7:37:6a:83:21:08:8e:41:ea:dd:d9:57:
         3f:1d:77:49:87:2a:16:06:5e:a6:38:6a:22:12:a3:51:19:83:
         7e:b6
-----BEGIN CERTIFICATE-----
MIID7jCCA1egAwIBAgIQfpPr+3zGTlnqS5p31Ab8OzANBgkqhkiG9w0BAQUFADCB
izELMAkGA1UEBhMCWkExFTATBgNVBAgTDFdlc3Rlcm4gQ2FwZTEUMBIGA1UEBxML
RHVyYmFudmlsbGUxDzANBgNVBAoTBlRoYXd0ZTEdMBsGA1UECxMUVGhhd3RlIENl
cnRpZmljYXRpb24xHzAdBgNVBAMTFlRoYXd0ZSBUaW1lc3RhbXBpbmcgQ0EwHhcN
MTIxMjIxMDAwMDAwWhcNMjAxMjMwMjM1OTU5WjBeMQswCQYDVQQGEwJVUzEdMBsG
A1UEChMUU3ltYW50ZWMgQ29ycG9yYXRpb24xMDAuBgNVBAMTJ1N5bWFudGVjIFRp
bWUgU3RhbXBpbmcgU2VydmljZXMgQ0EgLSBHMjCCASIwDQYJKoZIhvcNAQEBBQAD
ggEPADCCAQoCggEBALGss0lUS5ccEgrYJXmRIlcqb9y4JsRDc2vCvy5QWvsUwnaO
QwElQ7Sh4kX06Ld7w3TMIte0lAAC903tv7S3RCRrzV9FO9FEzkMScxeCi2m0K8uZ
HqxyGyZNcR+xMd37UWECU6aq9UksBXhFpS+JzueZ5/6M4lc/PcaS3Er4ezPkeQr7
8HWIQZz/xQNRmarXbJ+TaYdlKYOFwmAUxMjJOxTawIHwHw103pIiq8r3+3R8J+b3
Sht/p8OeLa6K6qbmqicWfWH3mHERvOJQoUvlXfrlDqcsn6plINPYlujIfKVOSET/
GeJEB5IL12iEgF1qeGRFzWBGflTBE3zFefHJwXECAwEAAaOB+jCB9zAdBgNVHQ4E
FgQUX5r1blzMzHSa1N197z/b7EyALt0wMgYIKwYBBQUHAQEEJjAkMCIGCCsGAQUF
BzABhhZodHRwOi8vb2NzcC50aGF3dGUuY29tMBIGA1UdEwEB/wQIMAYBAf8CAQAw
PwYDVR0fBDgwNjA0oDKgMIYuaHR0cDovL2NybC50aGF3dGUuY29tL1RoYXd0ZVRp
bWVzdGFtcGluZ0NBLmNybDATBgNVHSUEDDAKBggrBgEFBQcDCDAOBgNVHQ8BAf8E
BAMCAQYwKAYDVR0RBCEwH6QdMBsxGTAXBgNVBAMTEFRpbWVTdGFtcC0yMDQ4LTEw
DQYJKoZIhvcNAQEFBQADgYEAAwmbj3nvf1kwqu9otfrjCR27T4IGXTdfplKfFo3q
HJIJRG71betYfDDo+WmNI3MLEm9Hqa45EfgqsZuwGsOO61mWAK3ODE2y0DGmCFwq
evzieh1XTKhlGOl5QGIllm7HxzdqgyEIjkHq3dlXPx13SYcqFgZepjhqIhKjURmD
frY=
-----END CERTIFICATE-----

Certificate:
    Data:
        Version: 3 (0x2)
        Serial Number:
            0e:cf:f4:38:c8:fe:bf:35:6e:04:d8:6a:98:1b:1a:50
    Signature Algorithm: sha1WithRSAEncryption
        Issuer: C=US, O=Symantec Corporation, CN=Symantec Time Stamping Services CA - G2
        Validity
            Not Before: Oct 18 00:00:00 2012 GMT
            Not After : Dec 29 23:59:59 2020 GMT
        Subject: C=US, O=Symantec Corporation, CN=Symantec Time Stamping Services Signer - G4
        Subject Public Key Info:
            Public Key Algorithm: rsaEncryption
                Public-Key: (2048 bit)
                Modulus:
                    00:a2:63:0b:39:44:b8:bb:23:a7:44:49:bb:0e:ff:
                    a1:f0:61:0a:53:93:b0:98:db:ad:2c:0f:4a:c5:6e:
                    ff:86:3c:53:55:0f:15:ce:04:3f:2b:fd:a9:96:96:
                    d9:be:61:79:0b:5b:c9:4c:86:76:e5:e0:43:4b:22:
                    95:ee:c2:2b:43:c1:9f:d8:68:b4:8e:40:4f:ee:85:
                    38:b9:11:c5:23:f2:64:58:f0:15:32:6f:4e:57:a1:
                    ae:88:a4:02:d7:2a:1e:cd:4b:e1:dd:63:d5:17:89:
                    32:5b:b0:5e:99:5a:a8:9d:28:50:0e:17:ee:96:db:
                    61:3b:45:51:1d:cf:12:56:0b:92:47:fc:ab:ae:f6:
                    66:3d:47:ac:70:72:e7:92:e7:5f:cd:10:b9:c4:83:
                    64:94:19:bd:25:80:e1:e8:d2:22:a5:d0:ba:02:7a:
                    a1:77:93:5b:65:c3:ee:17:74:bc:41:86:2a:dc:08:
                    4c:8c:92:8c:91:2d:9e:77:44:1f:68:d6:a8:74:77:
                    db:0e:5b:32:8b:56:8b:33:bd:d9:63:c8:49:9d:3a:
                    c5:c5:ea:33:0b:d2:f1:a3:1b:f4:8b:be:d9:b3:57:
                    8b:3b:de:04:a7:7a:22:b2:24:ae:2e:c7:70:c5:be:
                    4e:83:26:08:fb:0b:bd:a9:4f:99:08:e1:10:28:72:
                    aa:cd
                Exponent: 65537 (0x10001)
        X509v3 extensions:
            X509v3 Basic Constraints: critical
                CA:FALSE
            X509v3 Extended Key Usage: critical
                Time Stamping
            X509v3 Key Usage: critical
                Digital Signature
            Authority Information Access: 
                OCSP - URI:http://ts-ocsp.ws.symantec.com
                CA Issuers - URI:http://ts-aia.ws.symantec.com/tss-ca-g2.cer

            X509v3 CRL Distribution Points: 

                Full Name:
                  URI:http://ts-crl.ws.symantec.com/tss-ca-g2.crl

            X509v3 Subject Alternative Name: 
                DirName:/CN=TimeStamp-2048-2
            X509v3 Subject Key Identifier: 
                46:C6:69:A3:0E:4A:14:1E:D5:4C:DA:52:63:17:3F:5E:36:BC:0D:E6
            X509v3 Authority Key Identifier: 
                keyid:5F:9A:F5:6E:5C:CC:CC:74:9A:D4:DD:7D:EF:3F:DB:EC:4C:80:2E:DD

    Signature Algorithm: sha1WithRSAEncryption
         78:3b:b4:91:2a:00:4c:f0:8f:62:30:37:78:a3:84:27:07:6f:
         18:b2:de:25:dc:a0:d4:94:03:aa:86:4e:25:9f:9a:40:03:1c:
         dd:ce:e3:79:cb:21:68:06:da:b6:32:b4:6d:bf:f4:2c:26:63:
         33:e4:49:64:6d:0d:e6:c3:67:0e:f7:05:a4:35:6c:7c:89:16:
         c6:e9:b2:df:b2:e9:dd:20:c6:71:0f:cd:95:74:dc:b6:5c:de:
         bd:37:1f:43:78:e6:78:b5:cd:28:04:20:a3:aa:f1:4b:c4:88:
         29:91:0e:80:d1:11:fc:dd:5c:76:6e:4f:5e:0e:45:46:41:6e:
         0d:b0:ea:38:9a:b1:3a:da:09:71:10:fc:1c:79:b4:80:7b:ac:
         69:f4:fd:9c:b6:0c:16:2b:f1:7f:5b:09:3d:9b:5b:e2:16:ca:
         13:81:6d:00:2e:38:0d:a8:29:8f:2c:e1:b2:f4:5a:a9:01:af:
         15:9c:2c:2f:49:1b:db:22:bb:c3:fe:78:94:51:c3:86:b1:82:
         88:5d:f0:3d:b4:51:a1:79:33:2b:2e:7b:b9:dc:20:09:13:71:
         eb:6a:19:5b:cf:e8:a5:30:57:2c:89:49:3f:b9:cf:7f:c9:bf:
         3e:22:68:63:53:9a:bd:69:74:ac:c5:1d:3c:7f:92:e0:c3:bc:
         1c:d8:04:75
-----BEGIN CERTIFICATE-----
MIIEozCCA4ugAwIBAgIQDs/0OMj+vzVuBNhqmBsaUDANBgkqhkiG9w0BAQUFADBe
MQswCQYDVQQGEwJVUzEdMBsGA1UEChMUU3ltYW50ZWMgQ29ycG9yYXRpb24xMDAu
BgNVBAMTJ1N5bWFudGVjIFRpbWUgU3RhbXBpbmcgU2VydmljZXMgQ0EgLSBHMjAe
Fw0xMjEwMTgwMDAwMDBaFw0yMDEyMjkyMzU5NTlaMGIxCzAJBgNVBAYTAlVTMR0w
GwYDVQQKExRTeW1hbnRlYyBDb3Jwb3JhdGlvbjE0MDIGA1UEAxMrU3ltYW50ZWMg
VGltZSBTdGFtcGluZyBTZXJ2aWNlcyBTaWduZXIgLSBHNDCCASIwDQYJKoZIhvcN
AQEBBQADggEPADCCAQoCggEBAKJjCzlEuLsjp0RJuw7/ofBhClOTsJjbrSwPSsVu
/4Y8U1UPFc4EPyv9qZaW2b5heQtbyUyGduXgQ0sile7CK0PBn9hotI5AT+6FOLkR
xSPyZFjwFTJvTlehroikAtcqHs1L4d1j1ReJMluwXplaqJ0oUA4X7pbbYTtFUR3P
ElYLkkf8q672Zj1HrHBy55LnX80QucSDZJQZvSWA4ejSIqXQugJ6oXeTW2XD7hd0
vEGGKtwITIySjJEtnndEH2jWqHR32w5bMotWizO92WPISZ06xcXqMwvS8aMb9Iu+
2bNXizveBKd6IrIkri7HcMW+ToMmCPsLvalPmQjhEChyqs0CAwEAAaOCAVcwggFT
MAwGA1UdEwEB/wQCMAAwFgYDVR0lAQH/BAwwCgYIKwYBBQUHAwgwDgYDVR0PAQH/
BAQDAgeAMHMGCCsGAQUFBwEBBGcwZTAqBggrBgEFBQcwAYYeaHR0cDovL3RzLW9j
c3Aud3Muc3ltYW50ZWMuY29tMDcGCCsGAQUFBzAChitodHRwOi8vdHMtYWlhLndz
LnN5bWFudGVjLmNvbS90c3MtY2EtZzIuY2VyMDwGA1UdHwQ1MDMwMaAvoC2GK2h0
dHA6Ly90cy1jcmwud3Muc3ltYW50ZWMuY29tL3Rzcy1jYS1nMi5jcmwwKAYDVR0R
BCEwH6QdMBsxGTAXBgNVBAMTEFRpbWVTdGFtcC0yMDQ4LTIwHQYDVR0OBBYEFEbG
aaMOShQe1UzaUmMXP142vA3mMB8GA1UdIwQYMBaAFF+a9W5czMx0mtTdfe8/2+xM
gC7dMA0GCSqGSIb3DQEBBQUAA4IBAQB4O7SRKgBM8I9iMDd4o4QnB28Yst4l3KDU
lAOqhk4ln5pAAxzdzuN5yyFoBtq2MrRtv/QsJmMz5ElkbQ3mw2cO9wWkNWx8iRbG
6bLfsundIMZxD82VdNy2XN69Nx9DeOZ4tc0oBCCjqvFLxIgpkQ6A0RH83Vx2bk9e
DkVGQW4NsOo4mrE62glxEPwcebSAe6xp9P2ctgwWK/F/Wwk9m1viFsoTgW0ALjgN
qCmPLOGy9FqpAa8VnCwvSRvbIrvD/niUUcOGsYKIXfA9tFGheTMrLnu53CAJE3Hr
ahlbz+ilMFcsiUk/uc9/yb8+ImhjU5q9aXSsxR08f5Lgw7wc2AR1
-----END CERTIFICATE-----

Certificate:
    Data:
        Version: 3 (0x2)
        Serial Number:
            6b:a7:0b:43:80:ec:a6:e1:71:fb:81:a4:95:ec:5d:ef
    Signature Algorithm: sha1WithRSAEncryption
        Issuer: C=CN, O=WoSign CA Limited, CN=WoSign Class 3 Code Signing CA
        Validity
            Not Before: Apr 21 09:14:06 2014 GMT
            Not After : Apr 23 09:14:06 2017 GMT
        Subject: C=CN, ST=Jiangsu, L=Suining, O=Suining Qixi Advertising Media Co., Ltd./emailAddress=xiguayingyin@gmail.com, CN=Suining Qixi Advertising Media Co., Ltd.
        Subject Public Key Info:
            Public Key Algorithm: rsaEncryption
                Public-Key: (2048 bit)
                Modulus:
                    00:d9:42:b3:72:05:26:ae:dc:d5:2f:0f:b6:e5:02:
                    7e:a3:c6:bd:57:b3:37:b5:d9:af:ec:b3:60:6d:5a:
                    9b:6a:94:5a:d8:8b:8d:4a:8a:20:1d:8f:7f:d7:72:
                    41:09:f3:e0:f0:72:2d:b9:27:e8:71:9e:19:b2:74:
                    fb:cc:2e:5b:e1:ff:c7:94:40:97:ea:70:66:99:cf:
                    c3:b9:29:18:29:41:65:bf:84:52:2b:74:79:87:1a:
                    b0:80:6d:ca:82:14:97:a5:5d:39:90:c9:33:1e:d7:
                    53:18:da:84:29:9d:0b:3a:03:c6:cd:22:2b:e7:23:
                    a9:8b:c5:76:71:02:6a:f7:96:a2:8b:bf:e1:9e:3a:
                    eb:e8:6f:72:ad:7a:2b:67:9b:06:66:ce:30:34:af:
                    6f:95:00:a8:8f:cb:32:5f:5f:82:ff:0a:ff:2e:38:
                    9c:f1:57:f4:60:f7:95:6a:95:e2:7a:40:20:6a:cf:
                    f3:44:cd:51:1b:40:ee:02:1c:48:50:b1:52:2a:ec:
                    d1:c1:2c:f7:f1:18:b1:c5:8d:99:98:77:b3:bf:71:
                    36:dc:e2:1a:13:c6:d7:a9:49:dd:71:77:81:8d:aa:
                    de:37:6c:0f:ee:59:fa:d6:b3:ab:36:f3:53:ac:a6:
                    8b:d4:97:c8:2e:2a:8b:75:5f:22:53:6d:86:f4:72:
                    28:07
                Exponent: 3 (0x3)
        X509v3 extensions:
            X509v3 Key Usage: critical
                Digital Signature
            X509v3 Extended Key Usage: 
                Code Signing, Microsoft Commercial Code Signing
            X509v3 Basic Constraints: critical
                CA:FALSE
            X509v3 Subject Key Identifier: 
                FE:83:59:7A:2E:CA:EB:0E:30:0D:79:52:FF:AE:84:EB:B7:D6:F9:C4
            X509v3 Authority Key Identifier: 
                keyid:F5:02:AA:4B:D3:E0:1A:8E:77:50:D6:1A:BB:EB:DF:B9:83:70:B0:4E

            Authority Information Access: 
                OCSP - URI:http://ocsp1.wosign.com/class3/code/ca1
                CA Issuers - URI:http://aia1.wosign.com/class3.code.ca1.cer

            X509v3 CRL Distribution Points: 

                Full Name:
                  URI:http://crls1.wosign.com/ca1-code-3.crl

            X509v3 Certificate Policies: 
                Policy: 2.23.140.1.2.2
                Policy: 1.3.6.1.4.1.36305.1.3.3.1.2
                  CPS: http://www.wosign.com/policy/

    Signature Algorithm: sha1WithRSAEncryption
         30:d9:c1:78:95:2f:bd:b8:d0:f2:24:67:2e:4f:23:56:e3:09:
         de:e3:33:66:a0:ba:32:f4:cc:b0:4c:15:a5:fb:d7:cb:5b:77:
         8d:4f:f2:04:ca:9f:95:59:de:aa:12:1a:5b:ff:d5:04:03:56:
         62:45:f2:92:7f:dc:74:71:15:20:c4:ce:11:8b:9c:67:67:bb:
         bd:4e:9f:7f:a4:26:76:7e:37:96:fb:7d:dd:e4:d7:57:c0:79:
         f2:2b:51:99:cf:04:fc:2a:7a:20:4a:67:4d:e0:65:6d:99:54:
         e5:cc:6c:ed:08:97:33:23:c2:26:12:3e:0c:ef:16:7e:cd:a7:
         af:ba:63:d5:6a:9e:fd:a8:80:47:34:40:4e:15:14:f0:f4:c7:
         f8:20:a8:df:2b:0d:09:af:2f:d7:22:6e:64:81:0f:8c:7a:00:
         ba:16:75:f6:78:8d:db:76:2b:9a:b8:14:65:00:8b:3d:e2:bb:
         b3:04:a2:e5:36:a7:5a:ad:23:7d:20:94:4e:6f:71:c5:1f:34:
         94:b5:7b:3a:18:ee:81:6f:ba:c5:14:aa:c7:5b:f4:2e:73:34:
         11:0f:6b:0c:0b:c5:d5:6b:ae:34:94:84:06:87:d7:3f:ff:27:
         22:1f:ad:7b:bf:60:08:b5:62:2d:0f:08:4d:1d:a6:ac:b7:d0:
         89:d8:1e:7f
-----BEGIN CERTIFICATE-----
MIIFJzCCBA+gAwIBAgIQa6cLQ4DspuFx+4Gklexd7zANBgkqhkiG9w0BAQUFADBS
MQswCQYDVQQGEwJDTjEaMBgGA1UEChMRV29TaWduIENBIExpbWl0ZWQxJzAlBgNV
BAMTHldvU2lnbiBDbGFzcyAzIENvZGUgU2lnbmluZyBDQTAeFw0xNDA0MjEwOTE0
MDZaFw0xNzA0MjMwOTE0MDZaMIG+MQswCQYDVQQGEwJDTjEQMA4GA1UECBMHSmlh
bmdzdTEQMA4GA1UEBxMHU3VpbmluZzExMC8GA1UEChMoU3VpbmluZyBRaXhpIEFk
dmVydGlzaW5nIE1lZGlhIENvLiwgTHRkLjElMCMGCSqGSIb3DQEJARMWeGlndWF5
aW5neWluQGdtYWlsLmNvbTExMC8GA1UEAxMoU3VpbmluZyBRaXhpIEFkdmVydGlz
aW5nIE1lZGlhIENvLiwgTHRkLjCCASAwDQYJKoZIhvcNAQEBBQADggENADCCAQgC
ggEBANlCs3IFJq7c1S8PtuUCfqPGvVezN7XZr+yzYG1am2qUWtiLjUqKIB2Pf9dy
QQnz4PByLbkn6HGeGbJ0+8wuW+H/x5RAl+pwZpnPw7kpGClBZb+EUit0eYcasIBt
yoIUl6VdOZDJMx7XUxjahCmdCzoDxs0iK+cjqYvFdnECaveWoou/4Z466+hvcq16
K2ebBmbOMDSvb5UAqI/LMl9fgv8K/y44nPFX9GD3lWqV4npAIGrP80TNURtA7gIc
SFCxUirs0cEs9/EYscWNmZh3s79xNtziGhPG16lJ3XF3gY2q3jdsD+5Z+tazqzbz
U6ymi9SXyC4qi3VfIlNthvRyKAcCAQOjggGMMIIBiDAOBgNVHQ8BAf8EBAMCB4Aw
HwYDVR0lBBgwFgYIKwYBBQUHAwMGCisGAQQBgjcCARYwDAYDVR0TAQH/BAIwADAd
BgNVHQ4EFgQU/oNZei7K6w4wDXlS/66E67fW+cQwHwYDVR0jBBgwFoAU9QKqS9Pg
Go53UNYau+vfuYNwsE4wewYIKwYBBQUHAQEEbzBtMDMGCCsGAQUFBzABhidodHRw
Oi8vb2NzcDEud29zaWduLmNvbS9jbGFzczMvY29kZS9jYTEwNgYIKwYBBQUHMAKG
Kmh0dHA6Ly9haWExLndvc2lnbi5jb20vY2xhc3MzLmNvZGUuY2ExLmNlcjA3BgNV
HR8EMDAuMCygKqAohiZodHRwOi8vY3JsczEud29zaWduLmNvbS9jYTEtY29kZS0z
LmNybDBRBgNVHSAESjBIMAgGBmeBDAECAjA8Bg0rBgEEAYKbUQEDAwECMCswKQYI
KwYBBQUHAgEWHWh0dHA6Ly93d3cud29zaWduLmNvbS9wb2xpY3kvMA0GCSqGSIb3
DQEBBQUAA4IBAQAw2cF4lS+9uNDyJGcuTyNW4wne4zNmoLoy9MywTBWl+9fLW3eN
T/IEyp+VWd6qEhpb/9UEA1ZiRfKSf9x0cRUgxM4Ri5xnZ7u9Tp9/pCZ2fjeW+33d
5NdXwHnyK1GZzwT8KnogSmdN4GVtmVTlzGztCJczI8ImEj4M7xZ+zaevumPVap79
qIBHNEBOFRTw9Mf4IKjfKw0Jry/XIm5kgQ+MegC6FnX2eI3bdiuauBRlAIs94ruz
BKLlNqdarSN9IJROb3HFHzSUtXs6GO6Bb7rFFKrHW/QuczQRD2sMC8XVa640lIQG
h9c//yciH617v2AItWItDwhNHaast9CJ2B5/
-----END CERTIFICATE-----

Certificate:
    Data:
        Version: 3 (0x2)
        Serial Number:
            6b:da:df:ef:f0:66:1b:d2:64:2a:f4:6e:cb:b2:79:40
    Signature Algorithm: sha1WithRSAEncryption
        Issuer: C=US, ST=UT, L=Salt Lake City, O=The USERTRUST Network, OU=http://www.usertrust.com, CN=UTN-USERFirst-Object
        Validity
            Not Before: Jul  9 18:31:20 1999 GMT
            Not After : Jul  9 18:40:36 2019 GMT
        Subject: C=CN, O=WoSign CA Limited, CN=Certification Authority of WoSign
        Subject Public Key Info:
            Public Key Algorithm: rsaEncryption
                Public-Key: (4096 bit)
                Modulus:
                    00:bd:ca:8d:ac:b8:91:15:56:97:7b:6b:5c:7a:c2:
                    de:6b:d9:a1:b0:c3:10:23:fa:a7:a1:b2:cc:31:fa:
                    3e:d9:a6:29:6f:16:3d:e0:6b:f8:b8:40:5f:db:39:
                    a8:00:7a:8b:a0:4d:54:7d:c2:22:78:fc:8e:09:b8:
                    a8:85:d7:cc:95:97:4b:74:d8:9e:7e:f0:00:e4:0e:
                    89:ae:49:28:44:1a:10:99:32:0f:25:88:53:a4:0d:
                    b3:0f:12:08:16:0b:03:71:27:1c:7f:e1:db:d2:fd:
                    67:68:c4:05:5d:0a:0e:5d:70:d7:d8:97:a0:bc:53:
                    41:9a:91:8d:f4:9e:36:66:7a:7e:56:c1:90:5f:e6:
                    b1:68:20:36:a4:8c:24:2c:2c:47:0b:59:76:66:30:
                    b5:be:de:ed:8f:f8:9d:d3:bb:01:30:e6:f2:f3:0e:
                    e0:2c:92:80:f3:85:f9:28:8a:b4:54:2e:9a:ed:f7:
                    76:fc:15:68:16:eb:4a:6c:eb:2e:12:8f:d4:cf:fe:
                    0c:c7:5c:1d:0b:7e:05:32:be:5e:b0:09:2a:42:d5:
                    c9:4e:90:b3:59:0d:bb:7a:7e:cd:d5:08:5a:b4:7f:
                    d8:1c:69:11:f9:27:0f:7b:06:af:54:83:18:7b:e1:
                    dd:54:7a:51:68:6e:77:fc:c6:bf:52:4a:66:46:a1:
                    b2:67:1a:bb:a3:4f:77:a0:be:5d:ff:fc:56:0b:43:
                    72:77:90:ca:9e:f9:f2:39:f5:0d:a9:f4:ea:d7:e7:
                    b3:10:2f:30:42:37:21:cc:30:70:c9:86:98:0f:cc:
                    58:4d:83:bb:7d:e5:1a:a5:37:8d:b6:ac:32:97:00:
                    3a:63:71:24:1e:9e:37:c4:ff:74:d4:37:c0:e2:fe:
                    88:46:60:11:dd:08:3f:50:36:ab:b8:7a:a4:95:62:
                    6a:6e:b0:ca:6a:21:5a:69:f3:f3:fb:1d:70:39:95:
                    f3:a7:6e:a6:81:89:a1:88:c5:3b:71:ca:a3:52:ee:
                    83:bb:fd:a0:77:f4:e4:6f:e7:42:db:6d:4a:99:8a:
                    34:48:bc:17:dc:e4:80:08:22:b6:f2:31:c0:3f:04:
                    3e:eb:9f:20:79:d6:b8:06:64:64:02:31:d7:a9:cd:
                    52:fb:84:45:69:09:00:2a:dc:55:8b:c4:06:46:4b:
                    c0:4a:1d:09:5b:39:28:fd:a9:ab:ce:00:f9:2e:48:
                    4b:26:e6:30:4c:a5:58:ca:b4:44:82:4f:e7:91:1e:
                    33:c3:b0:93:ff:11:fc:81:d2:ca:1f:71:29:dd:76:
                    4f:92:25:af:1d:81:b7:0f:2f:8c:c3:06:cc:2f:27:
                    a3:4a:e4:0e:99:ba:7c:1e:45:1f:7f:aa:19:45:96:
                    fd:fc:3d
                Exponent: 65537 (0x10001)
        X509v3 extensions:
            X509v3 Authority Key Identifier: 
                keyid:DA:ED:64:74:14:9C:14:3C:AB:DD:99:A9:BD:5B:28:4D:8B:3C:C9:D8

            X509v3 Subject Key Identifier: 
                E1:66:CF:0E:D1:F1:B3:4B:B7:06:20:14:FE:87:12:D5:F6:FE:FB:3E
            X509v3 Key Usage: critical
                Digital Signature, Certificate Sign, CRL Sign
            X509v3 Basic Constraints: critical
                CA:TRUE, pathlen:2
            X509v3 Extended Key Usage: 
                Code Signing, Time Stamping
            X509v3 Certificate Policies: 
                Policy: X509v3 Any Policy

            X509v3 CRL Distribution Points: 

                Full Name:
                  URI:http://crl.trust-provider.com/UTN-USERFirst-Object.crl

            Authority Information Access: 
                OCSP - URI:http://ocsp.trust-provider.com

    Signature Algorithm: sha1WithRSAEncryption
         58:6c:f1:83:4b:99:f6:73:2b:99:07:a3:d8:57:ce:d4:97:fd:
         6a:02:83:be:60:b1:17:e3:17:74:61:71:65:3c:79:29:b5:fe:
         65:18:c4:d8:1d:e2:da:df:da:0e:f9:a0:75:d7:79:7a:cb:0e:
         cd:f9:30:52:83:e3:da:2e:1e:e5:32:34:65:1b:73:dd:0d:9f:
         f9:31:58:7a:c7:6b:39:ba:61:1e:a1:46:60:91:d4:4f:bc:81:
         ce:52:dd:cb:80:44:bc:8a:18:37:0c:04:45:0e:08:f6:e7:87:
         c5:0c:fb:8b:02:93:24:22:59:5b:5b:30:fa:bd:76:be:fb:b5:
         98:89:43:fe:f1:52:d6:20:51:82:9c:d9:2a:19:3f:18:f8:89:
         5a:fb:46:71:fb:a9:bf:97:99:41:cd:36:da:27:55:02:13:ba:
         d2:53:38:d5:e5:7e:c0:c2:1b:00:aa:0c:3c:b1:a3:6c:56:ff:
         ba:62:7e:81:1e:ca:8f:88:a0:9a:5d:6f:67:ea:ce:1b:8d:1f:
         5a:5c:f9:f2:1f:ff:4a:50:04:58:6b:70:d7:dc:fa:3a:fc:a2:
         11:0f:81:76:13:8f:29:11:1b:2a:07:68:cf:50:8c:47:2d:75:
         e5:04:5c:4a:e1:00:9a:89:fd:ff:3e:ab:cc:ad:b9:56:c3:a7:
         25:5b:64:5c
-----BEGIN CERTIFICATE-----
MIIFljCCBH6gAwIBAgIQa9rf7/BmG9JkKvRuy7J5QDANBgkqhkiG9w0BAQUFADCB
lTELMAkGA1UEBhMCVVMxCzAJBgNVBAgTAlVUMRcwFQYDVQQHEw5TYWx0IExha2Ug
Q2l0eTEeMBwGA1UEChMVVGhlIFVTRVJUUlVTVCBOZXR3b3JrMSEwHwYDVQQLExho
dHRwOi8vd3d3LnVzZXJ0cnVzdC5jb20xHTAbBgNVBAMTFFVUTi1VU0VSRmlyc3Qt
T2JqZWN0MB4XDTk5MDcwOTE4MzEyMFoXDTE5MDcwOTE4NDAzNlowVTELMAkGA1UE
BhMCQ04xGjAYBgNVBAoTEVdvU2lnbiBDQSBMaW1pdGVkMSowKAYDVQQDEyFDZXJ0
aWZpY2F0aW9uIEF1dGhvcml0eSBvZiBXb1NpZ24wggIiMA0GCSqGSIb3DQEBAQUA
A4ICDwAwggIKAoICAQC9yo2suJEVVpd7a1x6wt5r2aGwwxAj+qehsswx+j7Zpilv
Fj3ga/i4QF/bOagAeougTVR9wiJ4/I4JuKiF18yVl0t02J5+8ADkDomuSShEGhCZ
Mg8liFOkDbMPEggWCwNxJxx/4dvS/WdoxAVdCg5dcNfYl6C8U0GakY30njZmen5W
wZBf5rFoIDakjCQsLEcLWXZmMLW+3u2P+J3TuwEw5vLzDuAskoDzhfkoirRULprt
93b8FWgW60ps6y4Sj9TP/gzHXB0LfgUyvl6wCSpC1clOkLNZDbt6fs3VCFq0f9gc
aRH5Jw97Bq9Ugxh74d1UelFobnf8xr9SSmZGobJnGrujT3egvl3//FYLQ3J3kMqe
+fI59Q2p9OrX57MQLzBCNyHMMHDJhpgPzFhNg7t95RqlN422rDKXADpjcSQenjfE
/3TUN8Di/ohGYBHdCD9QNqu4eqSVYmpusMpqIVpp8/P7HXA5lfOnbqaBiaGIxTtx
yqNS7oO7/aB39ORv50LbbUqZijRIvBfc5IAIIrbyMcA/BD7rnyB51rgGZGQCMdep
zVL7hEVpCQAq3FWLxAZGS8BKHQlbOSj9qavOAPkuSEsm5jBMpVjKtESCT+eRHjPD
sJP/EfyB0sofcSnddk+SJa8dgbcPL4zDBswvJ6NK5A6ZunweRR9/qhlFlv38PQID
AQABo4IBHzCCARswHwYDVR0jBBgwFoAU2u1kdBScFDyr3ZmpvVsoTYs8ydgwHQYD
VR0OBBYEFOFmzw7R8bNLtwYgFP6HEtX2/vs+MA4GA1UdDwEB/wQEAwIBhjASBgNV
HRMBAf8ECDAGAQH/AgECMB0GA1UdJQQWMBQGCCsGAQUFBwMDBggrBgEFBQcDCDAR
BgNVHSAECjAIMAYGBFUdIAAwRwYDVR0fBEAwPjA8oDqgOIY2aHR0cDovL2NybC50
cnVzdC1wcm92aWRlci5jb20vVVROLVVTRVJGaXJzdC1PYmplY3QuY3JsMDoGCCsG
AQUFBwEBBC4wLDAqBggrBgEFBQcwAYYeaHR0cDovL29jc3AudHJ1c3QtcHJvdmlk
ZXIuY29tMA0GCSqGSIb3DQEBBQUAA4IBAQBYbPGDS5n2cyuZB6PYV87Ul/1qAoO+
YLEX4xd0YXFlPHkptf5lGMTYHeLa39oO+aB113l6yw7N+TBSg+PaLh7lMjRlG3Pd
DZ/5MVh6x2s5umEeoUZgkdRPvIHOUt3LgES8ihg3DARFDgj254fFDPuLApMkIllb
WzD6vXa++7WYiUP+8VLWIFGCnNkqGT8Y+Ila+0Zx+6m/l5lBzTbaJ1UCE7rSUzjV
5X7AwhsAqgw8saNsVv+6Yn6BHsqPiKCaXW9n6s4bjR9aXPnyH/9KUARYa3DX3Po6
/KIRD4F2E48pERsqB2jPUIxHLXXlBFxK4QCaif3/PqvMrblWw6clW2Rc
-----END CERTIFICATE-----

Certificate:
    Data:
        Version: 3 (0x2)
        Serial Number:
            55:33:97:92:c7:54:53:cc:f6:5b:65:d3:f2:bb:00:79
    Signature Algorithm: sha1WithRSAEncryption
        Issuer: C=CN, O=WoSign CA Limited, CN=Certification Authority of WoSign
        Validity
            Not Before: Aug  8 01:00:05 2009 GMT
            Not After : Aug  8 01:00:05 2024 GMT
        Subject: C=CN, O=WoSign CA Limited, CN=WoSign Class 3 Code Signing CA
        Subject Public Key Info:
            Public Key Algorithm: rsaEncryption
                Public-Key: (2048 bit)
                Modulus:
                    00:d1:49:a4:48:63:b9:dd:28:60:6a:d9:17:0d:01:
                    c0:b2:58:86:4e:26:08:44:af:5f:37:84:25:44:45:
                    65:33:46:a3:8a:9f:f6:99:51:ce:d9:43:a4:7a:0e:
                    d6:f1:bf:91:24:ca:d4:24:11:01:5d:a3:3f:f3:d4:
                    9d:6f:d6:99:b1:89:ce:6a:c1:65:a1:f0:df:a3:3a:
                    93:90:80:21:2c:ba:2e:c1:67:31:1e:6b:55:38:85:
                    a8:50:47:6a:49:c4:a5:0b:0c:4b:39:35:8f:80:9d:
                    95:8c:e2:0d:63:55:6d:d6:8d:c4:3e:99:31:03:ea:
                    42:00:1c:b0:16:61:36:80:f5:df:65:3f:e2:9f:8e:
                    ec:3d:49:1b:36:e8:ea:93:d9:83:35:46:18:a5:a4:
                    16:5e:34:68:71:b7:61:5b:3a:5e:40:e2:7f:c8:e6:
                    05:85:8d:c6:db:21:ca:20:3e:2d:00:15:55:8a:7a:
                    ca:dc:90:0a:5a:92:06:90:06:d6:6c:04:2c:8c:d5:
                    9b:0e:b2:d4:a7:e3:30:bf:4e:b8:67:c1:69:c6:70:
                    34:46:6c:66:ab:f2:ff:5f:35:da:13:3f:79:19:19:
                    99:c2:3f:57:db:5a:40:fd:53:bd:08:63:d7:c9:79:
                    cf:d3:b4:a2:09:e0:3f:55:c1:2b:1b:9f:37:fb:e1:
                    b3:ad
                Exponent: 65537 (0x10001)
        X509v3 extensions:
            X509v3 Key Usage: critical
                Certificate Sign, CRL Sign
            X509v3 Extended Key Usage: 
                TLS Web Client Authentication, Code Signing, Microsoft Commercial Code Signing
            X509v3 Basic Constraints: critical
                CA:TRUE, pathlen:0
            X509v3 CRL Distribution Points: 

                Full Name:
                  URI:http://crls1.wosign.com/ca1.crl

            Authority Information Access: 
                OCSP - URI:http://ocsp1.wosign.com/ca1
                CA Issuers - URI:http://aia1.wosign.com/ca1-class3-code.cer

            X509v3 Subject Key Identifier: 
                F5:02:AA:4B:D3:E0:1A:8E:77:50:D6:1A:BB:EB:DF:B9:83:70:B0:4E
            X509v3 Authority Key Identifier: 
                keyid:E1:66:CF:0E:D1:F1:B3:4B:B7:06:20:14:FE:87:12:D5:F6:FE:FB:3E

            X509v3 Certificate Policies: 
                Policy: 1.3.6.1.4.1.36305.1.3.3
                  CPS: http://www.wosign.com/policy/

    Signature Algorithm: sha1WithRSAEncryption
         96:e3:ae:be:61:ab:1e:c9:c2:f4:08:a1:67:81:41:59:d5:5a:
         47:31:a3:d0:f0:f7:04:b3:93:3b:22:10:ad:03:f2:44:a1:01:
         69:d0:3b:0d:ef:12:90:77:a2:97:8b:49:2f:e8:d5:80:1a:2f:
         39:c2:41:58:41:be:ff:74:9e:c7:9b:f3:0d:46:8b:23:21:bd:
         27:f7:68:2f:64:79:b3:8c:0e:80:15:15:41:e5:21:27:6c:4a:
         4d:d1:63:94:10:f7:8c:cf:a6:0e:c5:a1:df:75:f9:b5:d8:5c:
         20:6a:87:2d:cf:1e:ca:f5:56:da:53:29:a5:f9:2c:05:19:b5:
         39:f1:e2:b1:b1:f9:9e:8b:46:69:7c:dd:da:25:71:f8:04:df:
         4a:57:a8:7d:96:69:6d:7a:2b:9d:73:08:b9:2b:03:d1:65:92:
         e8:db:c9:55:53:cf:c0:2e:05:67:f7:8f:35:8b:98:e2:78:6b:
         4e:ac:fc:7c:6e:27:70:7e:04:bc:85:83:ed:c6:a9:38:a2:5b:
         71:74:b8:b8:c7:0a:f3:f0:1b:0f:09:68:13:17:1e:46:8e:60:
         b7:6b:01:01:b4:a4:fc:ef:4e:65:97:9c:0e:86:a9:a7:0b:d1:
         51:b3:8c:a9:6c:c1:f6:2a:da:65:e0:dc:59:a7:de:6c:ec:55:
         6c:61:60:97:3b:b4:72:35:b9:92:07:40:bc:d0:04:a7:70:c9:
         74:ba:0f:60:fa:c1:78:45:06:ee:5d:4a:e2:ca:7e:3e:08:47:
         70:17:a4:a1:e8:6c:f2:cf:6f:78:80:f8:50:7c:3d:bb:1e:d6:
         f2:db:d3:44:b5:2d:1d:5b:e6:7a:88:e6:21:88:07:82:2c:74:
         72:8d:3f:e0:26:d5:ff:b1:c3:33:4e:6d:bb:2a:fe:4e:e5:dd:
         ea:8f:8a:17:49:8b:89:4d:54:9f:97:bb:42:15:ea:40:ad:be:
         c6:22:87:72:bc:f5:d5:2f:b9:14:48:14:bf:e2:42:5b:29:1f:
         46:34:87:51:a7:44:b3:b4:2f:c5:15:30:4c:20:d5:12:59:c9:
         6e:54:81:78:05:18:65:ac:fc:ac:9c:05:7f:b0:f3:b8:00:b0:
         e3:55:af:a2:8b:e3:99:08:65:77:09:ef:d6:6f:b2:1c:a6:64:
         96:9d:d0:1e:5c:a4:01:b8:6f:01:ea:b4:57:75:4f:9e:30:14:
         c5:4c:e2:12:c4:67:d1:64:61:72:d7:f7:f0:3f:26:b3:1f:eb:
         78:86:4b:a7:c4:fd:05:9b:4e:2e:d7:17:d0:bb:76:36:24:4f:
         14:0f:9e:12:fc:4b:c9:83:bc:1d:d8:08:47:15:c5:60:10:e3:
         cd:e3:6b:dc:0c:70:5c:4f
-----BEGIN CERTIFICATE-----
MIIFsDCCA5igAwIBAgIQVTOXksdUU8z2W2XT8rsAeTANBgkqhkiG9w0BAQUFADBV
MQswCQYDVQQGEwJDTjEaMBgGA1UEChMRV29TaWduIENBIExpbWl0ZWQxKjAoBgNV
BAMTIUNlcnRpZmljYXRpb24gQXV0aG9yaXR5IG9mIFdvU2lnbjAeFw0wOTA4MDgw
MTAwMDVaFw0yNDA4MDgwMTAwMDVaMFIxCzAJBgNVBAYTAkNOMRowGAYDVQQKExFX
b1NpZ24gQ0EgTGltaXRlZDEnMCUGA1UEAxMeV29TaWduIENsYXNzIDMgQ29kZSBT
aWduaW5nIENBMIIBIjANBgkqhkiG9w0BAQEFAAOCAQ8AMIIBCgKCAQEA0UmkSGO5
3ShgatkXDQHAsliGTiYIRK9fN4QlREVlM0ajip/2mVHO2UOkeg7W8b+RJMrUJBEB
XaM/89Sdb9aZsYnOasFlofDfozqTkIAhLLouwWcxHmtVOIWoUEdqScSlCwxLOTWP
gJ2VjOINY1Vt1o3EPpkxA+pCABywFmE2gPXfZT/in47sPUkbNujqk9mDNUYYpaQW
XjRocbdhWzpeQOJ/yOYFhY3G2yHKID4tABVVinrK3JAKWpIGkAbWbAQsjNWbDrLU
p+Mwv064Z8FpxnA0Rmxmq/L/XzXaEz95GRmZwj9X21pA/VO9CGPXyXnP07SiCeA/
VcErG583++GzrQIDAQABo4IBfTCCAXkwDgYDVR0PAQH/BAQDAgEGMCkGA1UdJQQi
MCAGCCsGAQUFBwMCBggrBgEFBQcDAwYKKwYBBAGCNwIBFjASBgNVHRMBAf8ECDAG
AQH/AgEAMDAGA1UdHwQpMCcwJaAjoCGGH2h0dHA6Ly9jcmxzMS53b3NpZ24uY29t
L2NhMS5jcmwwbwYIKwYBBQUHAQEEYzBhMCcGCCsGAQUFBzABhhtodHRwOi8vb2Nz
cDEud29zaWduLmNvbS9jYTEwNgYIKwYBBQUHMAKGKmh0dHA6Ly9haWExLndvc2ln
bi5jb20vY2ExLWNsYXNzMy1jb2RlLmNlcjAdBgNVHQ4EFgQU9QKqS9PgGo53UNYa
u+vfuYNwsE4wHwYDVR0jBBgwFoAU4WbPDtHxs0u3BiAU/ocS1fb++z4wRQYDVR0g
BD4wPDA6BgsrBgEEAYKbUQEDAzArMCkGCCsGAQUFBwIBFh1odHRwOi8vd3d3Lndv
c2lnbi5jb20vcG9saWN5LzANBgkqhkiG9w0BAQUFAAOCAgEAluOuvmGrHsnC9Aih
Z4FBWdVaRzGj0PD3BLOTOyIQrQPyRKEBadA7De8SkHeil4tJL+jVgBovOcJBWEG+
/3Sex5vzDUaLIyG9J/doL2R5s4wOgBUVQeUhJ2xKTdFjlBD3jM+mDsWh33X5tdhc
IGqHLc8eyvVW2lMppfksBRm1OfHisbH5notGaXzd2iVx+ATfSleofZZpbXornXMI
uSsD0WWS6NvJVVPPwC4FZ/ePNYuY4nhrTqz8fG4ncH4EvIWD7capOKJbcXS4uMcK
8/AbDwloExceRo5gt2sBAbSk/O9OZZecDoappwvRUbOMqWzB9iraZeDcWafebOxV
bGFglzu0cjW5kgdAvNAEp3DJdLoPYPrBeEUG7l1K4sp+PghHcBekoehs8s9veID4
UHw9ux7W8tvTRLUtHVvmeojmIYgHgix0co0/4CbV/7HDM05tuyr+TuXd6o+KF0mL
iU1Un5e7QhXqQK2+xiKHcrz11S+5FEgUv+JCWykfRjSHUadEs7QvxRUwTCDVElnJ
blSBeAUYZaz8rJwFf7DzuACw41WvoovjmQhldwnv1m+yHKZklp3QHlykAbhvAeq0
V3VPnjAUxUziEsRn0WRhctf38D8msx/reIZLp8T9BZtOLtcX0Lt2NiRPFA+eEvxL
yYO8HdgIRxXFYBDjzeNr3AxwXE8=
-----END CERTIFICATE-----

