Certificate:
    Data:
        Version: 3 (0x2)
        Serial Number:
            04:00:00:00:00:01:2f:4e:e1:52:d7
    Signature Algorithm: sha1WithRSAEncryption
        Issuer: C=BE, O=GlobalSign nv-sa, OU=Root CA, CN=GlobalSign Root CA
        Validity
            Not Before: Apr 13 10:00:00 2011 GMT
            Not After : Jan 28 12:00:00 2028 GMT
        Subject: C=BE, O=GlobalSign nv-sa, CN=GlobalSign Timestamping CA - G2
        Subject Public Key Info:
            Public Key Algorithm: rsaEncryption
                Public-Key: (2048 bit)
                Modulus:
                    00:94:ef:65:f8:b5:57:9f:a0:53:0d:34:06:eb:09:
                    1f:b7:47:18:6a:cb:f0:5b:e4:ff:27:a5:34:d1:f7:
                    89:1a:bf:9e:b1:cd:12:41:6e:66:d4:81:a0:85:8b:
                    64:5a:46:2f:99:a0:8d:77:b1:e2:bc:5c:dd:22:d7:
                    6a:67:d0:bb:e8:ca:74:de:8b:4f:0d:b0:52:e5:90:
                    5b:eb:47:0e:f1:e7:9f:9c:0b:90:65:3e:17:96:30:
                    45:72:6d:39:a1:17:36:ca:b9:a0:8c:1b:4f:08:19:
                    f6:81:31:ad:61:16:a4:62:e6:b4:40:9e:c3:fc:fb:
                    95:f6:fb:b5:2e:95:81:98:e0:ef:c5:eb:d8:02:59:
                    78:77:f7:aa:e3:52:6b:50:91:29:c5:fc:f7:cd:93:
                    65:d2:60:61:22:f2:06:fb:32:dd:16:51:fa:0e:fd:
                    8a:30:f0:17:09:a7:bb:f3:04:ae:ab:90:e7:6c:df:
                    7a:a9:f4:ef:c4:62:27:5f:6f:99:6d:38:74:aa:11:
                    8b:da:df:c7:14:4c:e9:85:b2:ec:c2:7d:4a:26:8f:
                    e7:56:ba:a6:e0:cf:92:53:80:74:f4:03:ec:68:b2:
                    60:bc:84:20:00:83:1b:a1:ee:b4:74:05:c1:29:8e:
                    62:d0:47:b1:fa:f0:53:cc:18:f9:2e:3b:f9:70:7e:
                    b4:25
                Exponent: 65537 (0x10001)
        X509v3 extensions:
            X509v3 Key Usage: critical
                Certificate Sign, CRL Sign
            X509v3 Basic Constraints: critical
                CA:TRUE, pathlen:0
            X509v3 Subject Key Identifier: 
                46:D8:3E:FF:DC:E3:BE:FF:83:E6:F4:85:9B:B0:DD:6A:D6:14:A9:C1
            X509v3 Certificate Policies: 
                Policy: X509v3 Any Policy
                  CPS: https://www.globalsign.com/repository/

            X509v3 CRL Distribution Points: 

                Full Name:
                  URI:http://crl.globalsign.net/root.crl

            X509v3 Authority Key Identifier: 
                keyid:60:7B:66:1A:45:0D:97:CA:89:50:2F:7D:04:CD:34:A8:FF:FC:FD:4B

    Signature Algorithm: sha1WithRSAEncryption
         4e:5e:56:90:1e:46:b4:d9:49:31:f3:bb:17:39:28:1b:c2:16:
         dd:fd:41:dc:09:05:04:9b:6f:b2:a2:9a:d6:99:2e:40:99:00:
         55:b5:ea:3f:a5:20:76:d3:86:34:d4:17:cc:55:3a:c7:82:ee:
         ef:a8:ba:bc:d8:06:9f:15:50:df:cd:16:7b:52:3a:02:d7:19:
         1a:fd:af:f0:78:5c:e0:4b:c5:18:df:3a:24:1e:da:ac:b8:a9:
         58:04:02:07:30:db:b0:12:5e:fe:31:be:f0:04:48:f4:f0:70:
         f8:3a:5e:56:83:cf:3d:fb:0d:bc:f4:c5:ed:97:9d:b9:d4:db:
         a5:27:84:e3:38:9b:8b:a7:35:86:44:20:a4:3b:6d:a4:6a:0b:
         a1:83:fd:28:eb:da:ef:28:f6:cc:88:5d:fb:0a:3b:00:ab:e0:
         21:eb:e2:2f:35:6c:0f:8e:34:45:97:eb:a2:f7:99:33:35:7e:
         cb:9a:8a:bb:45:4d:e7:3f:9f:c2:d9:8a:fa:65:b2:6e:c7:7e:
         65:ff:e8:92:e1:2c:31:a2:f7:b0:27:36:48:8f:26:6f:3b:ee:
         4d:76:1f:79:c3:e5:7f:96:35:bc:2d:0e:cc:01:b0:8e:7f:ff:
         51:80:80:a7:92:d4:b3:44:46:64:8c:87:4f:16:63:07:31:4b:
         63:b0:df:f3
-----BEGIN CERTIFICATE-----
MIIEFDCCAvygAwIBAgILBAAAAAABL07hUtcwDQYJKoZIhvcNAQEFBQAwVzELMAkG
A1UEBhMCQkUxGTAXBgNVBAoTEEdsb2JhbFNpZ24gbnYtc2ExEDAOBgNVBAsTB1Jv
b3QgQ0ExGzAZBgNVBAMTEkdsb2JhbFNpZ24gUm9vdCBDQTAeFw0xMTA0MTMxMDAw
MDBaFw0yODAxMjgxMjAwMDBaMFIxCzAJBgNVBAYTAkJFMRkwFwYDVQQKExBHbG9i
YWxTaWduIG52LXNhMSgwJgYDVQQDEx9HbG9iYWxTaWduIFRpbWVzdGFtcGluZyBD
QSAtIEcyMIIBIjANBgkqhkiG9w0BAQEFAAOCAQ8AMIIBCgKCAQEAlO9l+LVXn6BT
DTQG6wkft0cYasvwW+T/J6U00feJGr+esc0SQW5m1IGghYtkWkYvmaCNd7HivFzd
ItdqZ9C76Mp03otPDbBS5ZBb60cO8eefnAuQZT4XljBFcm05oRc2yrmgjBtPCBn2
gTGtYRakYua0QJ7D/PuV9vu1LpWBmODvxevYAll4d/eq41JrUJEpxfz3zZNl0mBh
IvIG+zLdFlH6Dv2KMPAXCae78wSuq5DnbN96qfTvxGInX2+ZbTh0qhGL2t/HFEzp
hbLswn1KJo/nVrqm4M+SU4B09APsaLJgvIQgAIMboe60dAXBKY5i0Eex+vBTzBj5
Ljv5cH60JQIDAQABo4HlMIHiMA4GA1UdDwEB/wQEAwIBBjASBgNVHRMBAf8ECDAG
AQH/AgEAMB0GA1UdDgQWBBRG2D7/3OO+/4Pm9IWbsN1q1hSpwTBHBgNVHSAEQDA+
MDwGBFUdIAAwNDAyBggrBgEFBQcCARYmaHR0cHM6Ly93d3cuZ2xvYmFsc2lnbi5j
b20vcmVwb3NpdG9yeS8wMwYDVR0fBCwwKjAooCagJIYiaHR0cDovL2NybC5nbG9i
YWxzaWduLm5ldC9yb290LmNybDAfBgNVHSMEGDAWgBRge2YaRQ2XyolQL30EzTSo
//z9SzANBgkqhkiG9w0BAQUFAAOCAQEATl5WkB5GtNlJMfO7FzkoG8IW3f1B3AkF
BJtvsqKa1pkuQJkAVbXqP6UgdtOGNNQXzFU6x4Lu76i6vNgGnxVQ380We1I6AtcZ
Gv2v8Hhc4EvFGN86JB7arLipWAQCBzDbsBJe/jG+8ARI9PBw+DpeVoPPPfsNvPTF
7ZedudTbpSeE4zibi6c1hkQgpDttpGoLoYP9KOva7yj2zIhd+wo7AKvgIeviLzVs
D440RZfroveZMzV+y5qKu0VN5z+fwtmK+mWybsd+Zf/okuEsMaL3sCc2SI8mbzvu
TXYfecPlf5Y1vC0OzAGwjn//UYCAp5LUs0RGZIyHTxZjBzFLY7Df8w==
-----END CERTIFICATE-----

Certificate:
    Data:
        Version: 3 (0x2)
        Serial Number:
            04:00:00:00:00:01:2f:4e:e1:35:5c
    Signature Algorithm: sha1WithRSAEncryption
        Issuer: C=BE, O=GlobalSign nv-sa, OU=Root CA, CN=GlobalSign Root CA
        Validity
            Not Before: Apr 13 10:00:00 2011 GMT
            Not After : Apr 13 10:00:00 2019 GMT
        Subject: C=BE, O=GlobalSign nv-sa, CN=GlobalSign CodeSigning CA - G2
        Subject Public Key Info:
            Public Key Algorithm: rsaEncryption
                Public-Key: (2048 bit)
                Modulus:
                    00:b2:4f:14:e7:10:be:d7:26:72:ab:36:97:ef:53:
                    bf:42:84:5e:58:d1:8a:28:fc:43:46:6f:7e:28:44:
                    50:0b:75:5d:00:d7:3c:0a:44:9e:20:6a:a4:f7:45:
                    4a:37:60:a3:6e:3f:12:fa:6d:fa:b6:46:c3:6a:a3:
                    b8:0c:27:28:02:57:28:d1:50:f7:61:39:55:b8:c3:
                    e1:25:86:52:3c:bf:05:1d:d7:b3:9a:f8:9a:24:31:
                    49:d5:a2:a9:e2:d3:91:ab:3e:3c:73:ef:f6:29:f1:
                    c8:35:d0:30:7b:7f:4e:92:a5:06:8f:87:e2:ce:f5:
                    c1:63:66:ac:18:69:2a:c1:5e:bb:5a:e8:6e:95:ff:
                    3b:80:62:9d:99:c7:c7:2f:66:d5:fd:62:1a:82:55:
                    5a:c6:fa:40:77:8e:c9:30:3c:1b:f0:f2:35:b8:6c:
                    59:9c:fd:e9:d6:ca:b4:40:1e:f7:04:ca:d1:67:a9:
                    74:e3:a5:08:54:d9:83:35:3b:8e:8c:23:0c:75:b6:
                    de:86:4a:9e:1a:3e:0a:50:49:38:9c:d2:a8:90:bf:
                    98:fa:c8:8c:2b:27:11:7e:2a:fb:ce:de:a9:ae:38:
                    93:22:fa:a6:ec:fb:5c:61:76:c3:44:d6:cc:0c:7e:
                    2f:6d:06:80:a2:74:40:bb:b7:1f:f4:3b:d7:73:54:
                    1f:f3
                Exponent: 65537 (0x10001)
        X509v3 extensions:
            X509v3 Key Usage: critical
                Certificate Sign, CRL Sign
            X509v3 Basic Constraints: critical
                CA:TRUE, pathlen:0
            X509v3 Subject Key Identifier: 
                08:6E:D8:B6:9C:8A:BF:ED:3E:D7:C3:74:5D:CC:80:1F:A8:2F:50:7A
            X509v3 Certificate Policies: 
                Policy: X509v3 Any Policy
                  CPS: https://www.globalsign.com/repository/

            X509v3 CRL Distribution Points: 

                Full Name:
                  URI:http://crl.globalsign.net/root.crl

            X509v3 Extended Key Usage: 
                Code Signing
            X509v3 Authority Key Identifier: 
                keyid:60:7B:66:1A:45:0D:97:CA:89:50:2F:7D:04:CD:34:A8:FF:FC:FD:4B

    Signature Algorithm: sha1WithRSAEncryption
         22:5c:c5:dd:3d:f4:0b:70:d8:e3:f5:e7:c5:8e:09:01:bb:b1:
         96:36:5c:5a:07:ad:c7:a8:44:49:51:25:7a:ae:0d:a4:19:3b:
         92:9c:cf:b9:42:26:bb:3b:6c:97:e7:c7:ce:11:6d:68:91:da:
         8d:6d:f1:53:4d:54:38:8c:61:f3:c8:82:76:69:be:81:32:0b:
         31:c3:6c:c9:9e:20:0a:58:2f:f0:48:fe:7e:48:07:aa:d7:43:
         58:94:73:54:04:31:a9:78:0d:3b:8c:b0:70:c1:3d:7e:d7:bd:
         2f:2a:c3:e2:f5:8f:0c:90:dc:6b:a5:c8:be:68:5e:5d:6d:f8:
         78:d2:be:49:95:1e:15:78:08:91:fb:34:c8:be:84:ad:bc:e0:
         c6:dd:18:db:f3:ca:f0:7b:c2:14:3c:18:b8:03:ba:95:3e:21:
         1e:3f:60:69:7a:7f:6a:03:9e:8d:4a:f9:f0:28:2c:30:84:5e:
         ec:26:72:42:b1:6d:cb:64:c3:12:8c:d6:84:4b:67:41:7c:b1:
         03:17:78:09:e3:ad:a8:b6:96:2d:a4:7e:80:03:4f:88:f7:c1:
         6b:5a:46:15:cd:2c:19:8b:d8:70:9c:e5:2d:49:88:60:72:a8:
         a4:19:52:70:43:5e:da:d6:46:03:b0:68:0e:24:ef:4a:f6:0b:
         25:24:ef:24
-----BEGIN CERTIFICATE-----
MIIEKDCCAxCgAwIBAgILBAAAAAABL07hNVwwDQYJKoZIhvcNAQEFBQAwVzELMAkG
A1UEBhMCQkUxGTAXBgNVBAoTEEdsb2JhbFNpZ24gbnYtc2ExEDAOBgNVBAsTB1Jv
b3QgQ0ExGzAZBgNVBAMTEkdsb2JhbFNpZ24gUm9vdCBDQTAeFw0xMTA0MTMxMDAw
MDBaFw0xOTA0MTMxMDAwMDBaMFExCzAJBgNVBAYTAkJFMRkwFwYDVQQKExBHbG9i
YWxTaWduIG52LXNhMScwJQYDVQQDEx5HbG9iYWxTaWduIENvZGVTaWduaW5nIENB
IC0gRzIwggEiMA0GCSqGSIb3DQEBAQUAA4IBDwAwggEKAoIBAQCyTxTnEL7XJnKr
NpfvU79ChF5Y0Yoo/ENGb34oRFALdV0A1zwKRJ4gaqT3RUo3YKNuPxL6bfq2RsNq
o7gMJygCVyjRUPdhOVW4w+ElhlI8vwUd17Oa+JokMUnVoqni05GrPjxz7/Yp8cg1
0DB7f06SpQaPh+LO9cFjZqwYaSrBXrta6G6V/zuAYp2Zx8cvZtX9YhqCVVrG+kB3
jskwPBvw8jW4bFmc/enWyrRAHvcEytFnqXTjpQhU2YM1O46MIwx1tt6GSp4aPgpQ
STic0qiQv5j6yIwrJxF+KvvO3qmuOJMi+qbs+1xhdsNE1swMfi9tBoCidEC7tx/0
O9dzVB/zAgMBAAGjgfowgfcwDgYDVR0PAQH/BAQDAgEGMBIGA1UdEwEB/wQIMAYB
Af8CAQAwHQYDVR0OBBYEFAhu2Lacir/tPtfDdF3MgB+oL1B6MEcGA1UdIARAMD4w
PAYEVR0gADA0MDIGCCsGAQUFBwIBFiZodHRwczovL3d3dy5nbG9iYWxzaWduLmNv
bS9yZXBvc2l0b3J5LzAzBgNVHR8ELDAqMCigJqAkhiJodHRwOi8vY3JsLmdsb2Jh
bHNpZ24ubmV0L3Jvb3QuY3JsMBMGA1UdJQQMMAoGCCsGAQUFBwMDMB8GA1UdIwQY
MBaAFGB7ZhpFDZfKiVAvfQTNNKj//P1LMA0GCSqGSIb3DQEBBQUAA4IBAQAiXMXd
PfQLcNjj9efFjgkBu7GWNlxaB63HqERJUSV6rg2kGTuSnM+5Qia7O2yX58fOEW1o
kdqNbfFTTVQ4jGHzyIJ2ab6BMgsxw2zJniAKWC/wSP5+SAeq10NYlHNUBDGpeA07
jLBwwT1+170vKsPi9Y8MkNxrpci+aF5dbfh40r5JlR4VeAiR+zTIvoStvODG3Rjb
88rwe8IUPBi4A7qVPiEeP2Bpen9qA56NSvnwKCwwhF7sJnJCsW3LZMMSjNaES2dB
fLEDF3gJ462otpYtpH6AA0+I98FrWkYVzSwZi9hwnOUtSYhgcqikGVJwQ17a1kYD
sGgOJO9K9gslJO8k
-----END CERTIFICATE-----

Certificate:
    Data:
        Version: 3 (0x2)
        Serial Number:
            11:21:06:a0:81:d3:3f:d8:7a:e5:82:4c:c1:6b:52:09:4e:03
    Signature Algorithm: sha1WithRSAEncryption
        Issuer: C=BE, O=GlobalSign nv-sa, CN=GlobalSign Timestamping CA - G2
        Validity
            Not Before: Feb  3 00:00:00 2015 GMT
            Not After : Mar  3 00:00:00 2026 GMT
        Subject: C=SG, O=GMO GlobalSign Pte Ltd, CN=GlobalSign TSA for MS Authenticode - G2
        Subject Public Key Info:
            Public Key Algorithm: rsaEncryption
                Public-Key: (2048 bit)
                Modulus:
                    00:b0:17:ae:a2:d3:b6:04:30:56:1e:58:0f:b1:ed:
                    55:a4:d6:54:cb:d8:f6:73:3a:ec:5d:5e:ab:25:fd:
                    36:a5:fa:84:c3:61:40:c5:46:b5:59:52:3b:42:a2:
                    2e:5f:13:62:10:a9:5b:e6:73:d6:92:25:b1:7d:23:
                    e3:06:b3:87:3a:0e:43:f0:d7:00:89:53:a2:11:31:
                    52:28:6e:5d:40:72:3c:f2:09:77:a7:49:92:97:d4:
                    6c:90:a0:76:a7:fd:b8:dc:b3:9d:f2:07:60:2c:4f:
                    58:98:00:6b:d3:15:54:e0:fa:dd:ff:80:2c:5f:18:
                    a6:98:ff:d4:ab:ec:a1:45:59:b2:2e:6f:62:5d:e0:
                    d9:19:ac:8b:57:9c:a8:26:2b:d9:17:a5:10:d2:47:
                    08:1a:70:2c:33:8b:7f:68:80:2a:b5:a1:5d:6b:dd:
                    8d:02:02:29:03:aa:7c:37:bb:bb:29:4e:3d:53:93:
                    b3:a6:fa:8f:d2:58:93:15:4c:b9:2d:ab:80:a3:a3:
                    25:fb:af:f7:08:64:b0:7a:44:0f:5c:10:d7:5f:61:
                    37:aa:4e:6b:d3:d2:53:25:9d:82:73:fa:2c:f9:72:
                    b0:a9:19:39:2a:50:fa:a9:d0:3c:3a:ca:e8:5b:ef:
                    f5:5f:51:f4:f9:0a:d9:97:35:de:6a:85:e6:23:04:
                    42:af
                Exponent: 65537 (0x10001)
        X509v3 extensions:
            X509v3 Key Usage: critical
                Digital Signature
            X509v3 Certificate Policies: 
                Policy: 1.3.6.1.4.1.4146.1.30
                  CPS: https://www.globalsign.com/repository/

            X509v3 Basic Constraints: 
                CA:FALSE
            X509v3 Extended Key Usage: critical
                Time Stamping
            X509v3 CRL Distribution Points: 

                Full Name:
                  URI:http://crl.globalsign.com/gs/gstimestampingg2.crl

            Authority Information Access: 
                CA Issuers - URI:http://secure.globalsign.com/cacert/gstimestampingg2.crt

            X509v3 Subject Key Identifier: 
                D4:A2:84:4A:38:5A:18:7F:BA:4F:30:50:BD:9D:D5:7A:87:D6:09:F7
            X509v3 Authority Key Identifier: 
                keyid:46:D8:3E:FF:DC:E3:BE:FF:83:E6:F4:85:9B:B0:DD:6A:D6:14:A9:C1

    Signature Algorithm: sha1WithRSAEncryption
         80:32:dc:07:8d:1c:a0:9c:9d:3c:2a:e8:3d:21:8b:59:a1:4d:
         7e:cc:44:ce:03:be:7e:aa:bc:c4:e6:7b:73:bb:4b:f1:88:da:
         90:4e:75:37:28:38:63:b9:d7:2b:0f:54:a9:56:ce:77:39:97:
         30:73:cd:9b:d9:d9:05:45:1c:8d:a4:b8:03:5d:4f:d9:1c:2e:
         98:e0:e9:88:e6:ec:d7:05:7e:56:2a:7b:f7:16:5b:a3:ad:8f:
         97:25:12:84:1b:b2:5c:63:4a:0a:d2:ef:10:54:47:82:84:35:
         69:28:9c:0c:e4:1f:14:16:24:fa:75:dc:74:72:6e:4e:ca:e3:
         6a:43:af:cf:7d:36:48:d1:bd:e9:06:91:2c:2f:a6:c8:71:fd:
         cf:bd:d8:9d:21:98:fc:af:db:de:22:8c:af:a7:f3:77:ef:9d:
         dc:a3:70:4b:44:1a:f0:78:85:1e:f2:a5:8c:39:b5:dc:88:1c:
         37:ed:ad:14:f5:07:0b:26:bd:be:6d:02:5e:b1:b8:b0:58:6c:
         85:3a:0d:f6:ff:5a:27:0c:c5:de:53:e7:54:3c:56:4c:c9:4e:
         4c:30:f6:f2:5c:fb:1a:8c:c2:82:be:ad:59:91:f6:1b:4d:55:
         7b:cf:5b:01:dc:fd:7a:d3:6f:23:5c:32:47:9b:01:f3:c1:51:
         14:46:8a:9b
-----BEGIN CERTIFICATE-----
MIIEnzCCA4egAwIBAgISESEGoIHTP9h65YJMwWtSCU4DMA0GCSqGSIb3DQEBBQUA
MFIxCzAJBgNVBAYTAkJFMRkwFwYDVQQKExBHbG9iYWxTaWduIG52LXNhMSgwJgYD
VQQDEx9HbG9iYWxTaWduIFRpbWVzdGFtcGluZyBDQSAtIEcyMB4XDTE1MDIwMzAw
MDAwMFoXDTI2MDMwMzAwMDAwMFowYDELMAkGA1UEBhMCU0cxHzAdBgNVBAoTFkdN
TyBHbG9iYWxTaWduIFB0ZSBMdGQxMDAuBgNVBAMTJ0dsb2JhbFNpZ24gVFNBIGZv
ciBNUyBBdXRoZW50aWNvZGUgLSBHMjCCASIwDQYJKoZIhvcNAQEBBQADggEPADCC
AQoCggEBALAXrqLTtgQwVh5YD7HtVaTWVMvY9nM67F1eqyX9NqX6hMNhQMVGtVlS
O0KiLl8TYhCpW+Zz1pIlsX0j4wazhzoOQ/DXAIlTohExUihuXUByPPIJd6dJkpfU
bJCgdqf9uNyznfIHYCxPWJgAa9MVVOD63f+ALF8Yppj/1KvsoUVZsi5vYl3g2Rms
i1ecqCYr2RelENJHCBpwLDOLf2iAKrWhXWvdjQICKQOqfDe7uylOPVOTs6b6j9JY
kxVMuS2rgKOjJfuv9whksHpED1wQ119hN6pOa9PSUyWdgnP6LPlysKkZOSpQ+qnQ
PDrK6Fvv9V9R9PkK2Zc13mqF5iMEQq8CAwEAAaOCAV8wggFbMA4GA1UdDwEB/wQE
AwIHgDBMBgNVHSAERTBDMEEGCSsGAQQBoDIBHjA0MDIGCCsGAQUFBwIBFiZodHRw
czovL3d3dy5nbG9iYWxzaWduLmNvbS9yZXBvc2l0b3J5LzAJBgNVHRMEAjAAMBYG
A1UdJQEB/wQMMAoGCCsGAQUFBwMIMEIGA1UdHwQ7MDkwN6A1oDOGMWh0dHA6Ly9j
cmwuZ2xvYmFsc2lnbi5jb20vZ3MvZ3N0aW1lc3RhbXBpbmdnMi5jcmwwVAYIKwYB
BQUHAQEESDBGMEQGCCsGAQUFBzAChjhodHRwOi8vc2VjdXJlLmdsb2JhbHNpZ24u
Y29tL2NhY2VydC9nc3RpbWVzdGFtcGluZ2cyLmNydDAdBgNVHQ4EFgQU1KKESjha
GH+6TzBQvZ3VeofWCfcwHwYDVR0jBBgwFoAURtg+/9zjvv+D5vSFm7DdatYUqcEw
DQYJKoZIhvcNAQEFBQADggEBAIAy3AeNHKCcnTwq6D0hi1mhTX7MRM4Dvn6qvMTm
e3O7S/GI2pBOdTcoOGO51ysPVKlWznc5lzBzzZvZ2QVFHI2kuANdT9kcLpjg6Yjm
7NcFflYqe/cWW6Otj5clEoQbslxjSgrS7xBUR4KENWkonAzkHxQWJPp13HRybk7K
42pDr899NkjRvekGkSwvpshx/c+92J0hmPyv294ijK+n83fvndyjcEtEGvB4hR7y
pYw5tdyIHDftrRT1Bwsmvb5tAl6xuLBYbIU6Dfb/WicMxd5T51Q8VkzJTkww9vJc
+xqMwoK+rVmR9htNVXvPWwHc/XrTbyNcMkebAfPBURRGips=
-----END CERTIFICATE-----

Certificate:
    Data:
        Version: 3 (0x2)
        Serial Number:
            11:21:22:ce:b8:ea:64:ee:74:89:fa:91:75:e6:8f:37:b9:ec
    Signature Algorithm: sha1WithRSAEncryption
        Issuer: C=BE, O=GlobalSign nv-sa, CN=GlobalSign CodeSigning CA - G2
        Validity
            Not Before: Apr 22 07:39:50 2015 GMT
            Not After : Jul 22 07:39:50 2016 GMT
        Subject: C=CN, ST=Beijing, L=Beijing, O=OKWare Co., Ltd, CN=OKWare Co., Ltd
        Subject Public Key Info:
            Public Key Algorithm: rsaEncryption
                Public-Key: (2048 bit)
                Modulus:
                    00:d5:0b:28:5b:84:5c:bc:ba:95:db:1f:28:6f:b3:
                    fc:c4:07:1f:b2:5c:be:46:1e:92:20:7f:bd:f2:e1:
                    e2:d1:47:cc:4c:c0:ea:62:95:60:58:22:f6:68:1d:
                    14:1a:96:a2:cd:e4:02:3e:b2:a4:b2:99:6f:94:3a:
                    94:d3:ea:6b:df:0d:ba:58:0d:d5:d2:3f:d1:a7:62:
                    31:e8:4e:ad:3d:3e:46:ef:14:b6:69:5a:6b:72:38:
                    28:73:63:e3:88:9e:b0:ba:76:2b:53:ad:a0:3b:eb:
                    e7:f1:7d:52:08:60:41:47:c7:fe:fd:0d:c3:58:a6:
                    ec:c7:24:96:4b:35:87:a4:ac:7d:d9:f6:1e:ca:f8:
                    8e:78:44:d6:86:ec:05:48:c0:03:8e:4f:c7:62:17:
                    cc:a1:30:ce:34:c8:48:a5:bb:85:b6:c2:57:0b:aa:
                    61:d5:60:3a:f2:7b:eb:c8:13:25:73:0f:c9:e9:b4:
                    9f:22:60:5b:f1:fa:16:7d:01:b6:32:25:6e:52:92:
                    c6:c7:c0:cc:2b:2d:7f:96:cf:be:1c:e7:09:f6:2c:
                    25:f9:64:ed:c0:1a:bc:67:0d:c6:d8:a4:6f:77:5c:
                    4b:cc:31:b0:82:7a:cb:b1:fc:94:7a:6f:01:08:ec:
                    8f:70:fa:1e:0a:e1:a6:ed:1b:80:79:88:86:c7:da:
                    cd:1b
                Exponent: 65537 (0x10001)
        X509v3 extensions:
            X509v3 Key Usage: critical
                Digital Signature
            X509v3 Certificate Policies: 
                Policy: 1.3.6.1.4.1.4146.1.50
                  CPS: https://www.globalsign.com/repository/

            X509v3 Basic Constraints: 
                CA:FALSE
            X509v3 Extended Key Usage: 
                Code Signing
            X509v3 CRL Distribution Points: 

                Full Name:
                  URI:http://crl.globalsign.com/gs/gscodesigng2.crl

            Authority Information Access: 
                CA Issuers - URI:http://secure.globalsign.com/cacert/gscodesigng2.crt
                OCSP - URI:http://ocsp2.globalsign.com/gscodesigng2

            X509v3 Subject Key Identifier: 
                9D:6E:E5:AC:76:64:53:B8:B3:B4:41:1D:FE:1F:65:44:F8:94:99:42
            X509v3 Authority Key Identifier: 
                keyid:08:6E:D8:B6:9C:8A:BF:ED:3E:D7:C3:74:5D:CC:80:1F:A8:2F:50:7A

    Signature Algorithm: sha1WithRSAEncryption
         07:07:bb:5c:7b:8b:5d:41:e3:1f:f8:d6:e0:43:ee:f3:26:b7:
         f8:3f:b9:1e:80:38:c9:05:e8:c1:c3:0f:bc:d5:c2:96:00:bb:
         70:60:e1:30:3f:5b:90:1f:f0:17:0a:b3:13:bf:2b:ea:c8:59:
         47:95:f9:f6:c4:3a:b6:c4:45:86:ea:26:3e:6e:0d:02:56:fd:
         3b:e2:b5:68:8e:c1:f6:5b:7e:51:ec:30:99:79:e0:76:94:b0:
         61:35:56:d7:89:f8:40:d8:e3:86:aa:33:b4:4e:f1:27:1b:4a:
         e1:cd:d0:0a:c8:a7:3c:28:20:4d:ad:31:1b:e8:e5:59:3e:c7:
         f6:65:c4:a7:c1:6f:a9:47:79:ba:db:64:09:c2:22:d2:26:32:
         b3:f0:3d:43:0e:7d:3c:2f:e9:cc:99:45:f2:f4:f3:93:2a:69:
         fe:5d:93:86:cc:75:d5:85:df:c8:59:f6:b2:5a:26:f1:83:84:
         80:fc:f0:ba:1e:c8:59:45:a1:18:16:cc:d2:45:99:0b:14:16:
         af:86:b0:e8:8d:1e:15:7e:14:d9:b7:d5:cc:6e:77:74:ca:87:
         d6:f0:39:8c:83:81:a2:f9:e2:98:73:67:e1:d5:9c:51:c4:d7:
         8c:d0:b0:78:c1:ae:84:d5:7f:e8:4b:4c:7a:1b:bf:d9:36:f2:
         9a:49:d5:62
-----BEGIN CERTIFICATE-----
MIIEzzCCA7egAwIBAgISESEizrjqZO50ifqRdeaPN7nsMA0GCSqGSIb3DQEBBQUA
MFExCzAJBgNVBAYTAkJFMRkwFwYDVQQKExBHbG9iYWxTaWduIG52LXNhMScwJQYD
VQQDEx5HbG9iYWxTaWduIENvZGVTaWduaW5nIENBIC0gRzIwHhcNMTUwNDIyMDcz
OTUwWhcNMTYwNzIyMDczOTUwWjBlMQswCQYDVQQGEwJDTjEQMA4GA1UECBMHQmVp
amluZzEQMA4GA1UEBxMHQmVpamluZzEYMBYGA1UEChMPT0tXYXJlIENvLiwgTHRk
MRgwFgYDVQQDEw9PS1dhcmUgQ28uLCBMdGQwggEiMA0GCSqGSIb3DQEBAQUAA4IB
DwAwggEKAoIBAQDVCyhbhFy8upXbHyhvs/zEBx+yXL5GHpIgf73y4eLRR8xMwOpi
lWBYIvZoHRQalqLN5AI+sqSymW+UOpTT6mvfDbpYDdXSP9GnYjHoTq09PkbvFLZp
WmtyOChzY+OInrC6ditTraA76+fxfVIIYEFHx/79DcNYpuzHJJZLNYekrH3Z9h7K
+I54RNaG7AVIwAOOT8diF8yhMM40yEilu4W2wlcLqmHVYDrye+vIEyVzD8nptJ8i
YFvx+hZ9AbYyJW5SksbHwMwrLX+Wz74c5wn2LCX5ZO3AGrxnDcbYpG93XEvMMbCC
esux/JR6bwEI7I9w+h4K4abtG4B5iIbH2s0bAgMBAAGjggGLMIIBhzAOBgNVHQ8B
Af8EBAMCB4AwTAYDVR0gBEUwQzBBBgkrBgEEAaAyATIwNDAyBggrBgEFBQcCARYm
aHR0cHM6Ly93d3cuZ2xvYmFsc2lnbi5jb20vcmVwb3NpdG9yeS8wCQYDVR0TBAIw
ADATBgNVHSUEDDAKBggrBgEFBQcDAzA+BgNVHR8ENzA1MDOgMaAvhi1odHRwOi8v
Y3JsLmdsb2JhbHNpZ24uY29tL2dzL2dzY29kZXNpZ25nMi5jcmwwgYYGCCsGAQUF
BwEBBHoweDBABggrBgEFBQcwAoY0aHR0cDovL3NlY3VyZS5nbG9iYWxzaWduLmNv
bS9jYWNlcnQvZ3Njb2Rlc2lnbmcyLmNydDA0BggrBgEFBQcwAYYoaHR0cDovL29j
c3AyLmdsb2JhbHNpZ24uY29tL2dzY29kZXNpZ25nMjAdBgNVHQ4EFgQUnW7lrHZk
U7iztEEd/h9lRPiUmUIwHwYDVR0jBBgwFoAUCG7YtpyKv+0+18N0XcyAH6gvUHow
DQYJKoZIhvcNAQEFBQADggEBAAcHu1x7i11B4x/41uBD7vMmt/g/uR6AOMkF6MHD
D7zVwpYAu3Bg4TA/W5Af8BcKsxO/K+rIWUeV+fbEOrbERYbqJj5uDQJW/TvitWiO
wfZbflHsMJl54HaUsGE1VteJ+EDY44aqM7RO8ScbSuHN0ArIpzwoIE2tMRvo5Vk+
x/ZlxKfBb6lHebrbZAnCItImMrPwPUMOfTwv6cyZRfL085Mqaf5dk4bMddWF38hZ
9rJaJvGDhID88LoeyFlFoRgWzNJFmQsUFq+GsOiNHhV+FNm31cxud3TKh9bwOYyD
gaL54phzZ+HVnFHE14zQsHjBroTVf+hLTHobv9k28ppJ1WI=
-----END CERTIFICATE-----

