Certificate:
    Data:
        Version: 3 (0x2)
        Serial Number:
            04:00:00:00:00:01:2f:4e:e1:52:d7
    Signature Algorithm: sha1WithRSAEncryption
        Issuer: C=BE, O=GlobalSign nv-sa, OU=Root CA, CN=GlobalSign Root CA
        Validity
            Not Before: Apr 13 10:00:00 2011 GMT
            Not After : Jan 28 12:00:00 2028 GMT
        Subject: C=BE, O=GlobalSign nv-sa, CN=GlobalSign Timestamping CA - G2
        Subject Public Key Info:
            Public Key Algorithm: rsaEncryption
                Public-Key: (2048 bit)
                Modulus:
                    00:94:ef:65:f8:b5:57:9f:a0:53:0d:34:06:eb:09:
                    1f:b7:47:18:6a:cb:f0:5b:e4:ff:27:a5:34:d1:f7:
                    89:1a:bf:9e:b1:cd:12:41:6e:66:d4:81:a0:85:8b:
                    64:5a:46:2f:99:a0:8d:77:b1:e2:bc:5c:dd:22:d7:
                    6a:67:d0:bb:e8:ca:74:de:8b:4f:0d:b0:52:e5:90:
                    5b:eb:47:0e:f1:e7:9f:9c:0b:90:65:3e:17:96:30:
                    45:72:6d:39:a1:17:36:ca:b9:a0:8c:1b:4f:08:19:
                    f6:81:31:ad:61:16:a4:62:e6:b4:40:9e:c3:fc:fb:
                    95:f6:fb:b5:2e:95:81:98:e0:ef:c5:eb:d8:02:59:
                    78:77:f7:aa:e3:52:6b:50:91:29:c5:fc:f7:cd:93:
                    65:d2:60:61:22:f2:06:fb:32:dd:16:51:fa:0e:fd:
                    8a:30:f0:17:09:a7:bb:f3:04:ae:ab:90:e7:6c:df:
                    7a:a9:f4:ef:c4:62:27:5f:6f:99:6d:38:74:aa:11:
                    8b:da:df:c7:14:4c:e9:85:b2:ec:c2:7d:4a:26:8f:
                    e7:56:ba:a6:e0:cf:92:53:80:74:f4:03:ec:68:b2:
                    60:bc:84:20:00:83:1b:a1:ee:b4:74:05:c1:29:8e:
                    62:d0:47:b1:fa:f0:53:cc:18:f9:2e:3b:f9:70:7e:
                    b4:25
                Exponent: 65537 (0x10001)
        X509v3 extensions:
            X509v3 Key Usage: critical
                Certificate Sign, CRL Sign
            X509v3 Basic Constraints: critical
                CA:TRUE, pathlen:0
            X509v3 Subject Key Identifier: 
                46:D8:3E:FF:DC:E3:BE:FF:83:E6:F4:85:9B:B0:DD:6A:D6:14:A9:C1
            X509v3 Certificate Policies: 
                Policy: X509v3 Any Policy
                  CPS: https://www.globalsign.com/repository/

            X509v3 CRL Distribution Points: 

                Full Name:
                  URI:http://crl.globalsign.net/root.crl

            X509v3 Authority Key Identifier: 
                keyid:60:7B:66:1A:45:0D:97:CA:89:50:2F:7D:04:CD:34:A8:FF:FC:FD:4B

    Signature Algorithm: sha1WithRSAEncryption
         4e:5e:56:90:1e:46:b4:d9:49:31:f3:bb:17:39:28:1b:c2:16:
         dd:fd:41:dc:09:05:04:9b:6f:b2:a2:9a:d6:99:2e:40:99:00:
         55:b5:ea:3f:a5:20:76:d3:86:34:d4:17:cc:55:3a:c7:82:ee:
         ef:a8:ba:bc:d8:06:9f:15:50:df:cd:16:7b:52:3a:02:d7:19:
         1a:fd:af:f0:78:5c:e0:4b:c5:18:df:3a:24:1e:da:ac:b8:a9:
         58:04:02:07:30:db:b0:12:5e:fe:31:be:f0:04:48:f4:f0:70:
         f8:3a:5e:56:83:cf:3d:fb:0d:bc:f4:c5:ed:97:9d:b9:d4:db:
         a5:27:84:e3:38:9b:8b:a7:35:86:44:20:a4:3b:6d:a4:6a:0b:
         a1:83:fd:28:eb:da:ef:28:f6:cc:88:5d:fb:0a:3b:00:ab:e0:
         21:eb:e2:2f:35:6c:0f:8e:34:45:97:eb:a2:f7:99:33:35:7e:
         cb:9a:8a:bb:45:4d:e7:3f:9f:c2:d9:8a:fa:65:b2:6e:c7:7e:
         65:ff:e8:92:e1:2c:31:a2:f7:b0:27:36:48:8f:26:6f:3b:ee:
         4d:76:1f:79:c3:e5:7f:96:35:bc:2d:0e:cc:01:b0:8e:7f:ff:
         51:80:80:a7:92:d4:b3:44:46:64:8c:87:4f:16:63:07:31:4b:
         63:b0:df:f3
-----BEGIN CERTIFICATE-----
MIIEFDCCAvygAwIBAgILBAAAAAABL07hUtcwDQYJKoZIhvcNAQEFBQAwVzELMAkG
A1UEBhMCQkUxGTAXBgNVBAoTEEdsb2JhbFNpZ24gbnYtc2ExEDAOBgNVBAsTB1Jv
b3QgQ0ExGzAZBgNVBAMTEkdsb2JhbFNpZ24gUm9vdCBDQTAeFw0xMTA0MTMxMDAw
MDBaFw0yODAxMjgxMjAwMDBaMFIxCzAJBgNVBAYTAkJFMRkwFwYDVQQKExBHbG9i
YWxTaWduIG52LXNhMSgwJgYDVQQDEx9HbG9iYWxTaWduIFRpbWVzdGFtcGluZyBD
QSAtIEcyMIIBIjANBgkqhkiG9w0BAQEFAAOCAQ8AMIIBCgKCAQEAlO9l+LVXn6BT
DTQG6wkft0cYasvwW+T/J6U00feJGr+esc0SQW5m1IGghYtkWkYvmaCNd7HivFzd
ItdqZ9C76Mp03otPDbBS5ZBb60cO8eefnAuQZT4XljBFcm05oRc2yrmgjBtPCBn2
gTGtYRakYua0QJ7D/PuV9vu1LpWBmODvxevYAll4d/eq41JrUJEpxfz3zZNl0mBh
IvIG+zLdFlH6Dv2KMPAXCae78wSuq5DnbN96qfTvxGInX2+ZbTh0qhGL2t/HFEzp
hbLswn1KJo/nVrqm4M+SU4B09APsaLJgvIQgAIMboe60dAXBKY5i0Eex+vBTzBj5
Ljv5cH60JQIDAQABo4HlMIHiMA4GA1UdDwEB/wQEAwIBBjASBgNVHRMBAf8ECDAG
AQH/AgEAMB0GA1UdDgQWBBRG2D7/3OO+/4Pm9IWbsN1q1hSpwTBHBgNVHSAEQDA+
MDwGBFUdIAAwNDAyBggrBgEFBQcCARYmaHR0cHM6Ly93d3cuZ2xvYmFsc2lnbi5j
b20vcmVwb3NpdG9yeS8wMwYDVR0fBCwwKjAooCagJIYiaHR0cDovL2NybC5nbG9i
YWxzaWduLm5ldC9yb290LmNybDAfBgNVHSMEGDAWgBRge2YaRQ2XyolQL30EzTSo
//z9SzANBgkqhkiG9w0BAQUFAAOCAQEATl5WkB5GtNlJMfO7FzkoG8IW3f1B3AkF
BJtvsqKa1pkuQJkAVbXqP6UgdtOGNNQXzFU6x4Lu76i6vNgGnxVQ380We1I6AtcZ
Gv2v8Hhc4EvFGN86JB7arLipWAQCBzDbsBJe/jG+8ARI9PBw+DpeVoPPPfsNvPTF
7ZedudTbpSeE4zibi6c1hkQgpDttpGoLoYP9KOva7yj2zIhd+wo7AKvgIeviLzVs
D440RZfroveZMzV+y5qKu0VN5z+fwtmK+mWybsd+Zf/okuEsMaL3sCc2SI8mbzvu
TXYfecPlf5Y1vC0OzAGwjn//UYCAp5LUs0RGZIyHTxZjBzFLY7Df8w==
-----END CERTIFICATE-----

Certificate:
    Data:
        Version: 3 (0x2)
        Serial Number:
            04:00:00:00:00:01:31:89:c6:37:e8
    Signature Algorithm: sha256WithRSAEncryption
        Issuer: OU=GlobalSign Root CA - R3, O=GlobalSign, CN=GlobalSign
        Validity
            Not Before: Aug  2 10:00:00 2011 GMT
            Not After : Aug  2 10:00:00 2019 GMT
        Subject: C=BE, O=GlobalSign nv-sa, CN=GlobalSign CodeSigning CA - SHA256 - G2
        Subject Public Key Info:
            Public Key Algorithm: rsaEncryption
                Public-Key: (2048 bit)
                Modulus:
                    00:a3:ef:d1:9f:29:e9:d8:d3:82:76:3c:62:a0:d2:
                    49:d6:16:1e:f1:cf:f0:d0:ba:48:43:03:2d:a7:1d:
                    f2:01:34:49:a4:10:e9:62:13:f4:13:f4:16:83:b5:
                    d5:57:42:48:86:2b:95:58:87:ea:28:04:74:cb:72:
                    11:0f:61:26:e1:fa:1c:61:15:c7:28:9b:4d:0b:82:
                    0f:26:2b:90:3a:96:ed:a4:d0:6b:29:9c:f5:61:88:
                    e6:a4:57:6f:ee:f4:70:d0:8d:17:de:e6:66:76:5f:
                    74:1e:5e:0c:53:38:5d:90:f4:df:30:2d:1b:13:d1:
                    79:98:54:1a:4b:38:04:f4:07:c4:23:03:d3:92:cb:
                    f7:80:5d:aa:9c:56:06:44:2d:41:4c:48:b4:2d:ec:
                    35:92:9a:c6:95:d7:f5:ce:90:31:e2:76:b3:61:b8:
                    f1:75:57:42:ac:3b:ce:2b:c8:90:49:e8:b7:26:cf:
                    bb:0c:89:cb:d0:c3:a3:6a:a1:c9:d5:e3:9c:53:2b:
                    57:26:fe:56:9a:76:fd:61:46:a2:60:ec:29:46:47:
                    f2:cd:e0:82:62:c6:04:5a:e7:ed:4e:40:5c:48:06:
                    7d:9d:5f:e7:74:c9:9e:84:65:0d:5b:de:dc:d3:24:
                    1c:b4:14:11:eb:ab:bf:c4:1f:a4:ba:99:d0:17:58:
                    35:cd
                Exponent: 65537 (0x10001)
        X509v3 extensions:
            X509v3 Key Usage: critical
                Certificate Sign, CRL Sign
            X509v3 Basic Constraints: critical
                CA:TRUE, pathlen:0
            X509v3 Subject Key Identifier: 
                19:4A:B8:5A:E4:4D:31:A5:14:E5:5E:EC:2F:A3:1C:FA:80:8C:32:6B
            X509v3 Certificate Policies: 
                Policy: X509v3 Any Policy
                  CPS: https://www.globalsign.com/repository/

            X509v3 CRL Distribution Points: 

                Full Name:
                  URI:http://crl.globalsign.net/root-r3.crl

            X509v3 Extended Key Usage: 
                Code Signing
            X509v3 Authority Key Identifier: 
                keyid:8F:F0:4B:7F:A8:2E:45:24:AE:4D:50:FA:63:9A:8B:DE:E2:DD:1B:BC

    Signature Algorithm: sha256WithRSAEncryption
         79:b0:69:34:e2:05:87:f6:fe:d4:60:2c:2f:86:79:34:03:e0:
         b1:07:93:0c:84:5c:f9:e4:dc:6c:cf:6e:b5:ec:0a:5c:ba:0b:
         d0:68:31:2e:3f:64:bd:0f:82:6b:66:77:81:7f:c6:29:a5:17:
         d8:f0:89:4d:83:24:11:f6:6e:fe:9d:e1:48:0a:28:a0:e2:7b:
         24:80:a4:ec:c2:9a:00:d7:b0:6d:6c:cd:88:d5:15:78:cf:13:
         f9:88:a5:73:4d:c1:36:2b:dc:cb:ce:db:7e:7c:d2:8b:ef:2f:
         bd:b3:4f:4d:3a:ad:bb:62:6e:28:93:c4:0c:cb:d9:e6:ca:e0:
         11:02:94:03:b0:bd:3f:94:28:56:90:1e:53:c2:27:d5:c9:3c:
         cd:1a:63:1e:82:59:15:b6:40:ca:a7:81:aa:c3:55:af:33:d1:
         b5:75:e8:09:ea:47:08:48:22:fb:5d:1b:f3:2c:7a:69:7e:c5:
         d7:5a:5e:56:33:3c:ad:57:e8:93:25:42:c3:d2:5e:71:3b:4a:
         1c:54:ed:a9:55:ac:28:05:c7:c4:6c:5d:dc:3c:93:f6:69:3c:
         82:51:ce:1a:15:3d:5e:01:73:ff:40:a2:ea:b4:ae:d3:8e:fa:
         ee:5d:6c:47:c7:41:f5:d4:56:57:f2:18:37:32:d6:d4:cc:4b:
         f6:71:e0:76
-----BEGIN CERTIFICATE-----
MIIEKTCCAxGgAwIBAgILBAAAAAABMYnGN+gwDQYJKoZIhvcNAQELBQAwTDEgMB4G
A1UECxMXR2xvYmFsU2lnbiBSb290IENBIC0gUjMxEzARBgNVBAoTCkdsb2JhbFNp
Z24xEzARBgNVBAMTCkdsb2JhbFNpZ24wHhcNMTEwODAyMTAwMDAwWhcNMTkwODAy
MTAwMDAwWjBaMQswCQYDVQQGEwJCRTEZMBcGA1UEChMQR2xvYmFsU2lnbiBudi1z
YTEwMC4GA1UEAxMnR2xvYmFsU2lnbiBDb2RlU2lnbmluZyBDQSAtIFNIQTI1NiAt
IEcyMIIBIjANBgkqhkiG9w0BAQEFAAOCAQ8AMIIBCgKCAQEAo+/Rnynp2NOCdjxi
oNJJ1hYe8c/w0LpIQwMtpx3yATRJpBDpYhP0E/QWg7XVV0JIhiuVWIfqKAR0y3IR
D2Em4focYRXHKJtNC4IPJiuQOpbtpNBrKZz1YYjmpFdv7vRw0I0X3uZmdl90Hl4M
UzhdkPTfMC0bE9F5mFQaSzgE9AfEIwPTksv3gF2qnFYGRC1BTEi0Lew1kprGldf1
zpAx4nazYbjxdVdCrDvOK8iQSei3Js+7DInL0MOjaqHJ1eOcUytXJv5Wmnb9YUai
YOwpRkfyzeCCYsYEWuftTkBcSAZ9nV/ndMmehGUNW97c0yQctBQR66u/xB+kupnQ
F1g1zQIDAQABo4H9MIH6MA4GA1UdDwEB/wQEAwIBBjASBgNVHRMBAf8ECDAGAQH/
AgEAMB0GA1UdDgQWBBQZSrha5E0xpRTlXuwvoxz6gIwyazBHBgNVHSAEQDA+MDwG
BFUdIAAwNDAyBggrBgEFBQcCARYmaHR0cHM6Ly93d3cuZ2xvYmFsc2lnbi5jb20v
cmVwb3NpdG9yeS8wNgYDVR0fBC8wLTAroCmgJ4YlaHR0cDovL2NybC5nbG9iYWxz
aWduLm5ldC9yb290LXIzLmNybDATBgNVHSUEDDAKBggrBgEFBQcDAzAfBgNVHSME
GDAWgBSP8Et/qC5FJK5NUPpjmove4t0bvDANBgkqhkiG9w0BAQsFAAOCAQEAebBp
NOIFh/b+1GAsL4Z5NAPgsQeTDIRc+eTcbM9utewKXLoL0GgxLj9kvQ+Ca2Z3gX/G
KaUX2PCJTYMkEfZu/p3hSAoooOJ7JICk7MKaANewbWzNiNUVeM8T+Yilc03BNivc
y87bfnzSi+8vvbNPTTqtu2JuKJPEDMvZ5srgEQKUA7C9P5QoVpAeU8In1ck8zRpj
HoJZFbZAyqeBqsNVrzPRtXXoCepHCEgi+10b8yx6aX7F11peVjM8rVfokyVCw9Je
cTtKHFTtqVWsKAXHxGxd3DyT9mk8glHOGhU9XgFz/0Ci6rSu04767l1sR8dB9dRW
V/IYNzLW1MxL9nHgdg==
-----END CERTIFICATE-----

Certificate:
    Data:
        Version: 3 (0x2)
        Serial Number:
            11:21:06:a0:81:d3:3f:d8:7a:e5:82:4c:c1:6b:52:09:4e:03
    Signature Algorithm: sha1WithRSAEncryption
        Issuer: C=BE, O=GlobalSign nv-sa, CN=GlobalSign Timestamping CA - G2
        Validity
            Not Before: Feb  3 00:00:00 2015 GMT
            Not After : Mar  3 00:00:00 2026 GMT
        Subject: C=SG, O=GMO GlobalSign Pte Ltd, CN=GlobalSign TSA for MS Authenticode - G2
        Subject Public Key Info:
            Public Key Algorithm: rsaEncryption
                Public-Key: (2048 bit)
                Modulus:
                    00:b0:17:ae:a2:d3:b6:04:30:56:1e:58:0f:b1:ed:
                    55:a4:d6:54:cb:d8:f6:73:3a:ec:5d:5e:ab:25:fd:
                    36:a5:fa:84:c3:61:40:c5:46:b5:59:52:3b:42:a2:
                    2e:5f:13:62:10:a9:5b:e6:73:d6:92:25:b1:7d:23:
                    e3:06:b3:87:3a:0e:43:f0:d7:00:89:53:a2:11:31:
                    52:28:6e:5d:40:72:3c:f2:09:77:a7:49:92:97:d4:
                    6c:90:a0:76:a7:fd:b8:dc:b3:9d:f2:07:60:2c:4f:
                    58:98:00:6b:d3:15:54:e0:fa:dd:ff:80:2c:5f:18:
                    a6:98:ff:d4:ab:ec:a1:45:59:b2:2e:6f:62:5d:e0:
                    d9:19:ac:8b:57:9c:a8:26:2b:d9:17:a5:10:d2:47:
                    08:1a:70:2c:33:8b:7f:68:80:2a:b5:a1:5d:6b:dd:
                    8d:02:02:29:03:aa:7c:37:bb:bb:29:4e:3d:53:93:
                    b3:a6:fa:8f:d2:58:93:15:4c:b9:2d:ab:80:a3:a3:
                    25:fb:af:f7:08:64:b0:7a:44:0f:5c:10:d7:5f:61:
                    37:aa:4e:6b:d3:d2:53:25:9d:82:73:fa:2c:f9:72:
                    b0:a9:19:39:2a:50:fa:a9:d0:3c:3a:ca:e8:5b:ef:
                    f5:5f:51:f4:f9:0a:d9:97:35:de:6a:85:e6:23:04:
                    42:af
                Exponent: 65537 (0x10001)
        X509v3 extensions:
            X509v3 Key Usage: critical
                Digital Signature
            X509v3 Certificate Policies: 
                Policy: 1.3.6.1.4.1.4146.1.30
                  CPS: https://www.globalsign.com/repository/

            X509v3 Basic Constraints: 
                CA:FALSE
            X509v3 Extended Key Usage: critical
                Time Stamping
            X509v3 CRL Distribution Points: 

                Full Name:
                  URI:http://crl.globalsign.com/gs/gstimestampingg2.crl

            Authority Information Access: 
                CA Issuers - URI:http://secure.globalsign.com/cacert/gstimestampingg2.crt

            X509v3 Subject Key Identifier: 
                D4:A2:84:4A:38:5A:18:7F:BA:4F:30:50:BD:9D:D5:7A:87:D6:09:F7
            X509v3 Authority Key Identifier: 
                keyid:46:D8:3E:FF:DC:E3:BE:FF:83:E6:F4:85:9B:B0:DD:6A:D6:14:A9:C1

    Signature Algorithm: sha1WithRSAEncryption
         80:32:dc:07:8d:1c:a0:9c:9d:3c:2a:e8:3d:21:8b:59:a1:4d:
         7e:cc:44:ce:03:be:7e:aa:bc:c4:e6:7b:73:bb:4b:f1:88:da:
         90:4e:75:37:28:38:63:b9:d7:2b:0f:54:a9:56:ce:77:39:97:
         30:73:cd:9b:d9:d9:05:45:1c:8d:a4:b8:03:5d:4f:d9:1c:2e:
         98:e0:e9:88:e6:ec:d7:05:7e:56:2a:7b:f7:16:5b:a3:ad:8f:
         97:25:12:84:1b:b2:5c:63:4a:0a:d2:ef:10:54:47:82:84:35:
         69:28:9c:0c:e4:1f:14:16:24:fa:75:dc:74:72:6e:4e:ca:e3:
         6a:43:af:cf:7d:36:48:d1:bd:e9:06:91:2c:2f:a6:c8:71:fd:
         cf:bd:d8:9d:21:98:fc:af:db:de:22:8c:af:a7:f3:77:ef:9d:
         dc:a3:70:4b:44:1a:f0:78:85:1e:f2:a5:8c:39:b5:dc:88:1c:
         37:ed:ad:14:f5:07:0b:26:bd:be:6d:02:5e:b1:b8:b0:58:6c:
         85:3a:0d:f6:ff:5a:27:0c:c5:de:53:e7:54:3c:56:4c:c9:4e:
         4c:30:f6:f2:5c:fb:1a:8c:c2:82:be:ad:59:91:f6:1b:4d:55:
         7b:cf:5b:01:dc:fd:7a:d3:6f:23:5c:32:47:9b:01:f3:c1:51:
         14:46:8a:9b
-----BEGIN CERTIFICATE-----
MIIEnzCCA4egAwIBAgISESEGoIHTP9h65YJMwWtSCU4DMA0GCSqGSIb3DQEBBQUA
MFIxCzAJBgNVBAYTAkJFMRkwFwYDVQQKExBHbG9iYWxTaWduIG52LXNhMSgwJgYD
VQQDEx9HbG9iYWxTaWduIFRpbWVzdGFtcGluZyBDQSAtIEcyMB4XDTE1MDIwMzAw
MDAwMFoXDTI2MDMwMzAwMDAwMFowYDELMAkGA1UEBhMCU0cxHzAdBgNVBAoTFkdN
TyBHbG9iYWxTaWduIFB0ZSBMdGQxMDAuBgNVBAMTJ0dsb2JhbFNpZ24gVFNBIGZv
ciBNUyBBdXRoZW50aWNvZGUgLSBHMjCCASIwDQYJKoZIhvcNAQEBBQADggEPADCC
AQoCggEBALAXrqLTtgQwVh5YD7HtVaTWVMvY9nM67F1eqyX9NqX6hMNhQMVGtVlS
O0KiLl8TYhCpW+Zz1pIlsX0j4wazhzoOQ/DXAIlTohExUihuXUByPPIJd6dJkpfU
bJCgdqf9uNyznfIHYCxPWJgAa9MVVOD63f+ALF8Yppj/1KvsoUVZsi5vYl3g2Rms
i1ecqCYr2RelENJHCBpwLDOLf2iAKrWhXWvdjQICKQOqfDe7uylOPVOTs6b6j9JY
kxVMuS2rgKOjJfuv9whksHpED1wQ119hN6pOa9PSUyWdgnP6LPlysKkZOSpQ+qnQ
PDrK6Fvv9V9R9PkK2Zc13mqF5iMEQq8CAwEAAaOCAV8wggFbMA4GA1UdDwEB/wQE
AwIHgDBMBgNVHSAERTBDMEEGCSsGAQQBoDIBHjA0MDIGCCsGAQUFBwIBFiZodHRw
czovL3d3dy5nbG9iYWxzaWduLmNvbS9yZXBvc2l0b3J5LzAJBgNVHRMEAjAAMBYG
A1UdJQEB/wQMMAoGCCsGAQUFBwMIMEIGA1UdHwQ7MDkwN6A1oDOGMWh0dHA6Ly9j
cmwuZ2xvYmFsc2lnbi5jb20vZ3MvZ3N0aW1lc3RhbXBpbmdnMi5jcmwwVAYIKwYB
BQUHAQEESDBGMEQGCCsGAQUFBzAChjhodHRwOi8vc2VjdXJlLmdsb2JhbHNpZ24u
Y29tL2NhY2VydC9nc3RpbWVzdGFtcGluZ2cyLmNydDAdBgNVHQ4EFgQU1KKESjha
GH+6TzBQvZ3VeofWCfcwHwYDVR0jBBgwFoAURtg+/9zjvv+D5vSFm7DdatYUqcEw
DQYJKoZIhvcNAQEFBQADggEBAIAy3AeNHKCcnTwq6D0hi1mhTX7MRM4Dvn6qvMTm
e3O7S/GI2pBOdTcoOGO51ysPVKlWznc5lzBzzZvZ2QVFHI2kuANdT9kcLpjg6Yjm
7NcFflYqe/cWW6Otj5clEoQbslxjSgrS7xBUR4KENWkonAzkHxQWJPp13HRybk7K
42pDr899NkjRvekGkSwvpshx/c+92J0hmPyv294ijK+n83fvndyjcEtEGvB4hR7y
pYw5tdyIHDftrRT1Bwsmvb5tAl6xuLBYbIU6Dfb/WicMxd5T51Q8VkzJTkww9vJc
+xqMwoK+rVmR9htNVXvPWwHc/XrTbyNcMkebAfPBURRGips=
-----END CERTIFICATE-----

Certificate:
    Data:
        Version: 3 (0x2)
        Serial Number:
            11:21:5d:77:80:0c:21:c2:cf:06:44:42:91:99:67:4f:a1:cc
    Signature Algorithm: sha256WithRSAEncryption
        Issuer: C=BE, O=GlobalSign nv-sa, CN=GlobalSign CodeSigning CA - SHA256 - G2
        Validity
            Not Before: Jun  1 07:46:53 2015 GMT
            Not After : Jun  1 07:46:53 2018 GMT
        Subject: C=AU, ST=Queensland, L=Bongaree, O=ArtistScope Pty Ltd, CN=ArtistScope Pty Ltd
        Subject Public Key Info:
            Public Key Algorithm: rsaEncryption
                Public-Key: (2048 bit)
                Modulus:
                    00:91:a2:71:26:6d:35:de:82:80:16:8d:75:ac:31:
                    01:23:f8:29:90:f9:1b:77:50:bc:83:57:ac:97:43:
                    40:f7:e6:ed:c8:92:4b:e1:9f:e3:87:06:51:0e:8f:
                    36:fa:0b:d5:02:d9:07:0d:cf:73:50:21:55:83:28:
                    67:91:12:db:6a:fe:b7:d1:61:7e:87:43:c8:02:28:
                    32:22:44:a3:33:24:27:1d:5a:20:7f:7f:77:34:ac:
                    a0:8f:d2:2c:26:69:b7:e1:cc:6c:3f:72:9d:8e:91:
                    61:18:13:85:7e:ba:a9:76:8c:e1:7d:82:4c:0c:31:
                    4e:dd:90:6b:51:e6:27:d3:e0:69:29:18:32:af:7a:
                    4a:ed:0f:6b:6e:63:ba:e0:14:b1:f7:07:94:63:91:
                    2b:23:d1:6a:c8:e5:82:ee:26:e5:23:23:16:6b:4a:
                    26:b1:cd:ef:59:6b:2c:fa:5e:88:c4:a1:35:43:a4:
                    dd:02:3c:0b:9c:b9:02:2f:f0:81:08:9f:6f:a7:83:
                    8f:7d:11:ae:6e:9c:dd:e1:ba:b9:4e:14:36:59:c2:
                    7d:f7:09:26:2d:d5:ee:fd:53:93:f1:bd:19:d8:24:
                    47:f3:b7:3c:e3:c2:97:e2:ca:67:91:d0:d8:e2:11:
                    c5:7d:85:e8:4e:b8:65:de:0f:bb:62:2c:d1:0d:00:
                    c0:49
                Exponent: 65537 (0x10001)
        X509v3 extensions:
            X509v3 Key Usage: critical
                Digital Signature
            X509v3 Certificate Policies: 
                Policy: 1.3.6.1.4.1.4146.1.50
                  CPS: https://www.globalsign.com/repository/

            X509v3 Basic Constraints: 
                CA:FALSE
            X509v3 Extended Key Usage: 
                Code Signing
            X509v3 CRL Distribution Points: 

                Full Name:
                  URI:http://crl.globalsign.com/gs/gscodesignsha2g2.crl

            Authority Information Access: 
                CA Issuers - URI:http://secure.globalsign.com/cacert/gscodesignsha2g2.crt
                OCSP - URI:http://ocsp2.globalsign.com/gscodesignsha2g2

            X509v3 Subject Key Identifier: 
                31:0D:04:E8:9D:59:F6:CA:A1:70:17:96:BC:0D:D1:1F:FD:11:BF:66
            X509v3 Authority Key Identifier: 
                keyid:19:4A:B8:5A:E4:4D:31:A5:14:E5:5E:EC:2F:A3:1C:FA:80:8C:32:6B

    Signature Algorithm: sha256WithRSAEncryption
         64:89:a0:a9:22:da:fc:ed:7a:41:77:89:62:a7:08:98:3c:ab:
         87:04:5d:c9:f2:0c:d3:f0:ee:c2:65:ec:9e:4b:ad:fc:21:62:
         ec:45:34:0b:64:cf:46:e1:42:3d:e0:a9:4d:02:e6:ad:87:a9:
         e3:63:ad:4a:7c:e1:86:35:c8:fb:8b:84:b6:05:56:02:1d:91:
         06:da:73:ad:e5:2d:61:55:c4:16:7d:a6:52:52:95:aa:98:8e:
         b7:59:67:68:18:6e:03:81:b6:37:49:1b:72:2a:70:a7:2c:17:
         fc:a7:b8:49:a1:3b:bc:9d:9c:e6:12:cf:54:ae:c0:59:4f:75:
         55:cd:50:8e:7a:96:6d:f8:09:d8:57:d1:c1:f7:d2:40:47:c7:
         52:6b:d4:22:08:4c:30:d1:01:3a:0f:11:39:5e:e5:dc:c0:05:
         34:7f:f2:ad:c0:82:4c:01:8d:e8:f5:f9:a7:03:44:b7:8f:d2:
         2a:24:04:10:db:2c:51:86:37:48:69:09:a6:ea:3d:7a:c8:5c:
         46:8c:c7:47:30:38:88:8c:10:e9:b5:8d:20:ec:29:f0:1f:6b:
         bc:03:82:4e:12:8e:01:39:17:95:c3:87:1c:88:c1:86:aa:d5:
         26:44:cc:be:78:17:8a:57:6c:6d:6f:d9:50:53:8a:82:31:74:
         a0:6f:b0:01
-----BEGIN CERTIFICATE-----
MIIE8jCCA9qgAwIBAgISESFdd4AMIcLPBkRCkZlnT6HMMA0GCSqGSIb3DQEBCwUA
MFoxCzAJBgNVBAYTAkJFMRkwFwYDVQQKExBHbG9iYWxTaWduIG52LXNhMTAwLgYD
VQQDEydHbG9iYWxTaWduIENvZGVTaWduaW5nIENBIC0gU0hBMjU2IC0gRzIwHhcN
MTUwNjAxMDc0NjUzWhcNMTgwNjAxMDc0NjUzWjBxMQswCQYDVQQGEwJBVTETMBEG
A1UECBMKUXVlZW5zbGFuZDERMA8GA1UEBxMIQm9uZ2FyZWUxHDAaBgNVBAoTE0Fy
dGlzdFNjb3BlIFB0eSBMdGQxHDAaBgNVBAMTE0FydGlzdFNjb3BlIFB0eSBMdGQw
ggEiMA0GCSqGSIb3DQEBAQUAA4IBDwAwggEKAoIBAQCRonEmbTXegoAWjXWsMQEj
+CmQ+Rt3ULyDV6yXQ0D35u3Ikkvhn+OHBlEOjzb6C9UC2QcNz3NQIVWDKGeREttq
/rfRYX6HQ8gCKDIiRKMzJCcdWiB/f3c0rKCP0iwmabfhzGw/cp2OkWEYE4V+uql2
jOF9gkwMMU7dkGtR5ifT4GkpGDKvekrtD2tuY7rgFLH3B5RjkSsj0WrI5YLuJuUj
IxZrSiaxze9Zayz6XojEoTVDpN0CPAucuQIv8IEIn2+ng499Ea5unN3hurlOFDZZ
wn33CSYt1e79U5PxvRnYJEfztzzjwpfiymeR0NjiEcV9hehOuGXeD7tiLNENAMBJ
AgMBAAGjggGZMIIBlTAOBgNVHQ8BAf8EBAMCB4AwTAYDVR0gBEUwQzBBBgkrBgEE
AaAyATIwNDAyBggrBgEFBQcCARYmaHR0cHM6Ly93d3cuZ2xvYmFsc2lnbi5jb20v
cmVwb3NpdG9yeS8wCQYDVR0TBAIwADATBgNVHSUEDDAKBggrBgEFBQcDAzBCBgNV
HR8EOzA5MDegNaAzhjFodHRwOi8vY3JsLmdsb2JhbHNpZ24uY29tL2dzL2dzY29k
ZXNpZ25zaGEyZzIuY3JsMIGQBggrBgEFBQcBAQSBgzCBgDBEBggrBgEFBQcwAoY4
aHR0cDovL3NlY3VyZS5nbG9iYWxzaWduLmNvbS9jYWNlcnQvZ3Njb2Rlc2lnbnNo
YTJnMi5jcnQwOAYIKwYBBQUHMAGGLGh0dHA6Ly9vY3NwMi5nbG9iYWxzaWduLmNv
bS9nc2NvZGVzaWduc2hhMmcyMB0GA1UdDgQWBBQxDQTonVn2yqFwF5a8DdEf/RG/
ZjAfBgNVHSMEGDAWgBQZSrha5E0xpRTlXuwvoxz6gIwyazANBgkqhkiG9w0BAQsF
AAOCAQEAZImgqSLa/O16QXeJYqcImDyrhwRdyfIM0/DuwmXsnkut/CFi7EU0C2TP
RuFCPeCpTQLmrYep42OtSnzhhjXI+4uEtgVWAh2RBtpzreUtYVXEFn2mUlKVqpiO
t1lnaBhuA4G2N0kbcipwpywX/Ke4SaE7vJ2c5hLPVK7AWU91Vc1QjnqWbfgJ2FfR
wffSQEfHUmvUIghMMNEBOg8ROV7l3MAFNH/yrcCCTAGN6PX5pwNEt4/SKiQEENss
UYY3SGkJpuo9eshcRozHRzA4iIwQ6bWNIOwp8B9rvAOCThKOATkXlcOHHIjBhqrV
JkTMvngXildsbW/ZUFOKgjF0oG+wAQ==
-----END CERTIFICATE-----

