Certificate:
    Data:
        Version: 3 (0x2)
        Serial Number:
            47:8a:8e:fb:59:e1:d8:3f:0c:e1:42:d2:a2:87:07:be
    Signature Algorithm: sha1WithRSAEncryption
        Issuer: C=US, ST=UT, L=Salt Lake City, O=The USERTRUST Network, OU=http://www.usertrust.com, CN=UTN-USERFirst-Object
        Validity
            Not Before: May 10 00:00:00 2010 GMT
            Not After : May 10 23:59:59 2015 GMT
        Subject: C=GB, ST=Greater Manchester, L=Salford, O=COMODO CA Limited, CN=COMODO Time Stamping Signer
        Subject Public Key Info:
            Public Key Algorithm: rsaEncryption
                Public-Key: (2048 bit)
                Modulus:
                    00:bc:35:a0:36:70:22:81:11:c3:b2:83:b9:d3:28:
                    c6:36:cd:25:6b:a9:7b:b2:1c:f6:9b:51:9c:ef:35:
                    f4:ed:08:8e:5e:38:08:f8:77:3c:0a:42:e0:f3:70:
                    dc:a3:d7:ca:f5:4c:0b:cf:ff:22:9c:0a:7e:68:d6:
                    09:a2:2a:84:7b:a6:9d:b4:a9:c1:33:e2:ef:1f:17:
                    48:ca:3a:cd:46:e6:c5:aa:77:bd:e3:77:9a:fa:47:
                    53:40:28:59:43:93:f1:a4:81:ea:ef:80:b5:4f:a7:
                    08:ce:ba:6e:bc:ca:76:0c:97:64:59:86:24:bb:3d:
                    82:90:a8:55:b1:92:d3:a0:a7:05:ac:9f:53:25:08:
                    10:47:99:cd:98:de:68:e5:b4:50:78:a3:af:01:cc:
                    59:43:58:e4:76:6e:7e:ac:c7:e2:9e:1f:4f:b0:47:
                    2d:c8:0c:a3:49:27:80:75:8c:bb:06:91:65:0f:90:
                    9b:f4:ba:d1:81:c8:5c:6a:ec:14:e9:25:09:bf:23:
                    16:f4:95:46:40:40:21:bb:83:96:fd:86:1f:7a:c8:
                    0d:10:8e:a2:f8:19:07:58:7f:9f:bd:37:02:60:f2:
                    a4:e9:9d:44:3f:30:05:e4:a7:70:99:51:9a:e8:17:
                    f1:55:ca:b2:61:89:65:46:a7:6a:f2:58:46:7e:aa:
                    a0:07
                Exponent: 65537 (0x10001)
        X509v3 extensions:
            X509v3 Authority Key Identifier: 
                keyid:DA:ED:64:74:14:9C:14:3C:AB:DD:99:A9:BD:5B:28:4D:8B:3C:C9:D8

            X509v3 Subject Key Identifier: 
                2E:2D:B0:0A:44:4A:D3:87:C0:02:07:CE:97:7D:50:62:20:FD:0F:83
            X509v3 Key Usage: critical
                Digital Signature, Non Repudiation
            X509v3 Basic Constraints: critical
                CA:FALSE
            X509v3 Extended Key Usage: critical
                Time Stamping
            X509v3 CRL Distribution Points: 

                Full Name:
                  URI:http://crl.usertrust.com/UTN-USERFirst-Object.crl

            Authority Information Access: 
                OCSP - URI:http://ocsp.usertrust.com

    Signature Algorithm: sha1WithRSAEncryption
         c8:fb:63:f8:0b:75:75:2c:3a:f1:f2:13:a7:2d:b6:a3:1a:9c:
         ad:01:07:d3:34:8e:77:e0:c2:6e:ae:02:5d:48:4f:a4:d2:21:
         b6:36:fd:2a:35:43:7c:6b:df:80:87:0b:15:f0:76:32:00:b4:
         ce:b5:67:a4:2f:2f:20:1b:9c:54:9e:83:3f:1f:5f:14:95:62:
         82:0f:22:41:22:1f:70:b3:f3:f7:42:de:6c:51:cd:4b:f8:21:
         ac:9b:3b:8c:b1:e5:e6:28:8f:ce:2a:8a:f9:aa:52:4d:8c:5b:
         77:ba:4d:5a:58:db:bb:6a:04:cc:52:1e:9d:e2:28:37:0e:bb:
         e7:0e:91:c7:f8:db:f1:81:98:eb:cd:37:b3:0e:ab:65:d3:62:
         ec:3a:a5:76:eb:13:a8:35:93:c9:2e:0a:01:ec:c0:e8:cc:3d:
         7e:b6:eb:e2:c1:ec:d3:14:92:82:66:87:50:dc:fd:50:97:ac:
         b3:4a:76:73:06:c4:86:11:3a:b3:5f:43:04:52:6f:ea:b3:d0:
         74:36:4c:ca:f1:1b:79:84:37:70:63:ad:74:b9:aa:0e:f3:98:
         b0:86:08:eb:db:e0:1f:8c:10:f2:39:64:9b:ae:4f:0a:2c:92:
         8a:4f:18:b5:91:e5:8d:1a:93:5f:1f:ae:f1:a6:f0:2e:97:d0:
         d2:f6:2b:3c
-----BEGIN CERTIFICATE-----
MIIEkzCCA3ugAwIBAgIQR4qO+1nh2D8M4ULSoocHvjANBgkqhkiG9w0BAQUFADCB
lTELMAkGA1UEBhMCVVMxCzAJBgNVBAgTAlVUMRcwFQYDVQQHEw5TYWx0IExha2Ug
Q2l0eTEeMBwGA1UEChMVVGhlIFVTRVJUUlVTVCBOZXR3b3JrMSEwHwYDVQQLExho
dHRwOi8vd3d3LnVzZXJ0cnVzdC5jb20xHTAbBgNVBAMTFFVUTi1VU0VSRmlyc3Qt
T2JqZWN0MB4XDTEwMDUxMDAwMDAwMFoXDTE1MDUxMDIzNTk1OVowfjELMAkGA1UE
BhMCR0IxGzAZBgNVBAgTEkdyZWF0ZXIgTWFuY2hlc3RlcjEQMA4GA1UEBxMHU2Fs
Zm9yZDEaMBgGA1UEChMRQ09NT0RPIENBIExpbWl0ZWQxJDAiBgNVBAMTG0NPTU9E
TyBUaW1lIFN0YW1waW5nIFNpZ25lcjCCASIwDQYJKoZIhvcNAQEBBQADggEPADCC
AQoCggEBALw1oDZwIoERw7KDudMoxjbNJWupe7Ic9ptRnO819O0Ijl44CPh3PApC
4PNw3KPXyvVMC8//IpwKfmjWCaIqhHumnbSpwTPi7x8XSMo6zUbmxap3veN3mvpH
U0AoWUOT8aSB6u+AtU+nCM66brzKdgyXZFmGJLs9gpCoVbGS06CnBayfUyUIEEeZ
zZjeaOW0UHijrwHMWUNY5HZufqzH4p4fT7BHLcgMo0kngHWMuwaRZQ+Qm/S60YHI
XGrsFOklCb8jFvSVRkBAIbuDlv2GH3rIDRCOovgZB1h/n703AmDypOmdRD8wBeSn
cJlRmugX8VXKsmGJZUanavJYRn6qoAcCAwEAAaOB9DCB8TAfBgNVHSMEGDAWgBTa
7WR0FJwUPKvdmam9WyhNizzJ2DAdBgNVHQ4EFgQULi2wCkRK04fAAgfOl31QYiD9
D4MwDgYDVR0PAQH/BAQDAgbAMAwGA1UdEwEB/wQCMAAwFgYDVR0lAQH/BAwwCgYI
KwYBBQUHAwgwQgYDVR0fBDswOTA3oDWgM4YxaHR0cDovL2NybC51c2VydHJ1c3Qu
Y29tL1VUTi1VU0VSRmlyc3QtT2JqZWN0LmNybDA1BggrBgEFBQcBAQQpMCcwJQYI
KwYBBQUHMAGGGWh0dHA6Ly9vY3NwLnVzZXJ0cnVzdC5jb20wDQYJKoZIhvcNAQEF
BQADggEBAMj7Y/gLdXUsOvHyE6cttqManK0BB9M0jnfgwm6uAl1IT6TSIbY2/So1
Q3xr34CHCxXwdjIAtM61Z6QvLyAbnFSegz8fXxSVYoIPIkEiH3Cz8/dC3mxRzUv4
IaybO4yx5eYoj84qivmqUk2MW3e6TVpY27tqBMxSHp3iKDcOu+cOkcf42/GBmOvN
N7MOq2XTYuw6pXbrE6g1k8kuCgHswOjMPX626+LB7NMUkoJmh1Dc/VCXrLNKdnMG
xIYROrNfQwRSb+qz0HQ2TMrxG3mEN3BjrXS5qg7zmLCGCOvb4B+MEPI5ZJuuTwos
kopPGLWR5Y0ak18frvGm8C6X0NL2Kzw=
-----END CERTIFICATE-----

Certificate:
    Data:
        Version: 3 (0x2)
        Serial Number:
            0c:a9:71:88:2d:08:0a:d7:82:fd:69:5f:89:09:9c:54
    Signature Algorithm: sha1WithRSAEncryption
        Issuer: C=US, ST=UT, L=Salt Lake City, O=The USERTRUST Network, OU=http://www.usertrust.com, CN=UTN-USERFirst-Object
        Validity
            Not Before: Jun  8 00:00:00 2009 GMT
            Not After : Jun  7 23:59:59 2012 GMT
        Subject: C=US/postalCode=80027, ST=CO, L=Louisville/street=PO Box 270303, O=DreamQuest Software LLC, CN=DreamQuest Software LLC
        Subject Public Key Info:
            Public Key Algorithm: rsaEncryption
                Public-Key: (2048 bit)
                Modulus:
                    00:d1:b2:b2:d1:e4:6e:b4:09:a9:75:ff:6d:29:0f:
                    8f:db:64:aa:ff:0a:3f:89:df:eb:d9:98:63:52:7b:
                    5a:e1:ba:4c:a2:af:16:13:f1:80:2c:9a:33:75:b1:
                    73:51:5f:5c:29:ef:92:10:9b:d4:27:e2:3d:5a:27:
                    15:d2:9b:08:dd:88:2c:e4:8e:cb:20:9e:0b:b9:46:
                    d4:00:3e:fd:7d:46:2b:30:e2:04:e9:13:38:62:6a:
                    3e:ed:20:d5:af:5c:a8:3f:06:0e:8e:15:69:bd:5e:
                    16:d4:c6:9a:c6:21:dc:12:90:80:24:52:5b:db:ce:
                    3f:f8:cb:98:6b:ed:f0:72:0c:a3:39:db:a1:03:2a:
                    2a:22:f8:c5:dd:03:27:44:0d:e5:14:1c:79:15:32:
                    92:76:a1:82:e4:20:c4:12:09:16:9d:74:e2:0f:f3:
                    bb:ce:08:ff:ea:b4:cb:1a:46:e0:32:b0:4b:19:55:
                    07:3e:66:f5:7d:45:38:ab:77:52:74:22:f8:58:7f:
                    ef:68:35:fa:5e:54:58:01:02:9d:e5:af:48:01:7a:
                    47:39:86:44:b9:34:53:5d:8e:c3:80:2f:d1:4b:31:
                    78:09:23:8d:9b:f2:89:2e:fc:10:55:7e:d2:17:3a:
                    3e:63:02:64:fd:1d:2d:ed:6e:7a:40:79:bd:5f:b5:
                    8e:d1
                Exponent: 65537 (0x10001)
        X509v3 extensions:
            X509v3 Authority Key Identifier: 
                keyid:DA:ED:64:74:14:9C:14:3C:AB:DD:99:A9:BD:5B:28:4D:8B:3C:C9:D8

            X509v3 Subject Key Identifier: 
                4D:97:9E:E9:0E:8F:7B:EF:1D:34:1C:6B:6B:32:87:25:F1:CD:0F:5E
            X509v3 Key Usage: critical
                Digital Signature
            X509v3 Basic Constraints: critical
                CA:FALSE
            X509v3 Extended Key Usage: 
                Code Signing
            Netscape Cert Type: 
                Object Signing
            X509v3 Certificate Policies: 
                Policy: 1.3.6.1.4.1.6449.1.2.1.3.2
                  CPS: https://secure.comodo.net/CPS

            X509v3 CRL Distribution Points: 

                Full Name:
                  URI:http://crl.usertrust.com/UTN-USERFirst-Object.crl

            Authority Information Access: 
                OCSP - URI:http://ocsp.comodoca.com

            X509v3 Subject Alternative Name: 
                email:support@dqsoft.com
    Signature Algorithm: sha1WithRSAEncryption
         69:03:ae:90:b2:0d:c7:c4:75:59:08:0f:91:25:13:fe:f8:84:
         75:19:b5:69:0f:2d:62:c8:b0:44:87:f2:c9:67:76:f2:1c:6f:
         62:85:d1:ec:1a:13:e3:cb:9d:57:cd:d3:ca:bf:75:9f:ca:7c:
         b5:bb:1c:36:52:f4:00:4e:07:5c:95:8e:30:ad:b1:1a:ab:15:
         66:9c:a1:1f:08:eb:40:f0:10:7e:b4:4e:38:ee:19:a9:07:fb:
         b8:98:42:d6:71:0e:39:07:c4:9a:4d:86:0d:09:64:92:34:dc:
         b7:15:a5:80:9d:8b:08:60:6c:27:f3:62:c0:07:73:3a:92:42:
         28:57:be:30:41:5b:19:00:7e:a2:9c:07:f3:be:3d:21:24:99:
         20:7d:a1:ca:7e:43:ea:00:41:1a:ec:87:74:60:94:80:63:85:
         8d:fa:29:60:e5:e3:8e:3d:2b:f5:4b:f6:88:43:b3:2b:14:a6:
         68:c6:d1:04:8f:af:02:4f:b4:4e:96:f2:df:9f:76:85:21:65:
         da:36:98:22:74:7a:9f:d6:96:f5:b9:fe:30:18:e3:dd:56:fa:
         5d:d5:92:87:89:3e:ce:f8:10:69:50:ef:ac:d1:f5:86:33:29:
         ce:65:10:b3:10:34:6c:68:c9:77:55:af:d9:58:e0:4b:36:67:
         97:c8:c6:1a
-----BEGIN CERTIFICATE-----
MIIFKTCCBBGgAwIBAgIQDKlxiC0ICteC/WlfiQmcVDANBgkqhkiG9w0BAQUFADCB
lTELMAkGA1UEBhMCVVMxCzAJBgNVBAgTAlVUMRcwFQYDVQQHEw5TYWx0IExha2Ug
Q2l0eTEeMBwGA1UEChMVVGhlIFVTRVJUUlVTVCBOZXR3b3JrMSEwHwYDVQQLExho
dHRwOi8vd3d3LnVzZXJ0cnVzdC5jb20xHTAbBgNVBAMTFFVUTi1VU0VSRmlyc3Qt
T2JqZWN0MB4XDTA5MDYwODAwMDAwMFoXDTEyMDYwNzIzNTk1OVowgZsxCzAJBgNV
BAYTAlVTMQ4wDAYDVQQRDAU4MDAyNzELMAkGA1UECAwCQ08xEzARBgNVBAcMCkxv
dWlzdmlsbGUxFjAUBgNVBAkMDVBPIEJveCAyNzAzMDMxIDAeBgNVBAoMF0RyZWFt
UXVlc3QgU29mdHdhcmUgTExDMSAwHgYDVQQDDBdEcmVhbVF1ZXN0IFNvZnR3YXJl
IExMQzCCASIwDQYJKoZIhvcNAQEBBQADggEPADCCAQoCggEBANGystHkbrQJqXX/
bSkPj9tkqv8KP4nf69mYY1J7WuG6TKKvFhPxgCyaM3Wxc1FfXCnvkhCb1CfiPVon
FdKbCN2ILOSOyyCeC7lG1AA+/X1GKzDiBOkTOGJqPu0g1a9cqD8GDo4Vab1eFtTG
msYh3BKQgCRSW9vOP/jLmGvt8HIMoznboQMqKiL4xd0DJ0QN5RQceRUyknahguQg
xBIJFp104g/zu84I/+q0yxpG4DKwSxlVBz5m9X1FOKt3UnQi+Fh/72g1+l5UWAEC
neWvSAF6RzmGRLk0U12Ow4Av0UsxeAkjjZvyiS78EFV+0hc6PmMCZP0dLe1uekB5
vV+1jtECAwEAAaOCAWswggFnMB8GA1UdIwQYMBaAFNrtZHQUnBQ8q92Zqb1bKE2L
PMnYMB0GA1UdDgQWBBRNl57pDo977x00HGtrMocl8c0PXjAOBgNVHQ8BAf8EBAMC
B4AwDAYDVR0TAQH/BAIwADATBgNVHSUEDDAKBggrBgEFBQcDAzARBglghkgBhvhC
AQEEBAMCBBAwRgYDVR0gBD8wPTA7BgwrBgEEAbIxAQIBAwIwKzApBggrBgEFBQcC
ARYdaHR0cHM6Ly9zZWN1cmUuY29tb2RvLm5ldC9DUFMwQgYDVR0fBDswOTA3oDWg
M4YxaHR0cDovL2NybC51c2VydHJ1c3QuY29tL1VUTi1VU0VSRmlyc3QtT2JqZWN0
LmNybDA0BggrBgEFBQcBAQQoMCYwJAYIKwYBBQUHMAGGGGh0dHA6Ly9vY3NwLmNv
bW9kb2NhLmNvbTAdBgNVHREEFjAUgRJzdXBwb3J0QGRxc29mdC5jb20wDQYJKoZI
hvcNAQEFBQADggEBAGkDrpCyDcfEdVkID5ElE/74hHUZtWkPLWLIsESH8slndvIc
b2KF0ewaE+PLnVfN08q/dZ/KfLW7HDZS9ABOB1yVjjCtsRqrFWacoR8I60DwEH60
TjjuGakH+7iYQtZxDjkHxJpNhg0JZJI03LcVpYCdiwhgbCfzYsAHczqSQihXvjBB
WxkAfqKcB/O+PSEkmSB9ocp+Q+oAQRrsh3RglIBjhY36KWDl4449K/VL9ohDsysU
pmjG0QSPrwJPtE6W8t+fdoUhZdo2mCJ0ep/WlvW5/jAY491W+l3VkoeJPs74EGlQ
76zR9YYzKc5lELMQNGxoyXdVr9lY4Es2Z5fIxho=
-----END CERTIFICATE-----

