Certificate:
    Data:
        Version: 3 (0x2)
        Serial Number:
            93:f0:60:21:ed:86:6b:60:13:56:c0:86:10:a0:2b:f0
    Signature Algorithm: sha256WithRSAEncryption
        Issuer: C=GB, ST=Greater Manchester, L=Salford, O=COMODO CA Limited, CN=COMODO RSA Code Signing CA
        Validity
            Not Before: Oct 23 00:00:00 2014 GMT
            Not After : Oct 22 23:59:59 2016 GMT
        Subject: C=ES/postalCode=08960, ST=Barcelona, L=St. Just Desvern/street=C/ St.Llu\xC3\xADs, 16, O=Index Consulting, s.l., OU=Developments, CN=Index Consulting, s.l.
        Subject Public Key Info:
            Public Key Algorithm: rsaEncryption
                Public-Key: (2048 bit)
                Modulus:
                    00:ac:42:2e:87:02:41:9e:8e:e3:73:f3:5a:e4:c3:
                    84:f3:35:5e:8e:68:c7:25:76:e4:f7:1b:13:86:06:
                    d0:b3:62:cc:c8:77:56:4b:d0:96:26:60:dd:ce:2d:
                    b2:51:b8:29:56:bf:80:80:43:62:03:03:8b:ca:21:
                    2f:7f:ad:6a:2c:17:3f:ab:e7:a8:fd:0f:3d:53:d8:
                    20:44:70:f7:b0:74:9a:49:08:14:a9:13:94:8e:5c:
                    a2:80:81:3b:d3:0b:2f:71:a6:e3:65:28:0e:a8:ae:
                    53:dd:2c:13:8d:88:0a:8d:4f:31:8b:b9:bd:df:08:
                    20:89:33:f1:80:4c:e5:50:65:08:3b:80:0a:51:10:
                    67:0b:eb:d8:36:11:a4:ff:3a:32:f8:77:ae:e7:bf:
                    db:8f:9b:d2:c6:9c:27:08:66:d7:29:27:dc:dc:d2:
                    84:d1:a1:e8:cb:ae:4f:8f:fb:48:b3:28:06:33:b9:
                    3b:bf:7c:b2:6d:2b:a1:8d:dd:4b:3a:f0:38:af:46:
                    68:d3:6b:80:fe:0a:7b:6a:ea:84:b6:d0:7f:16:6e:
                    95:6b:55:6d:62:0c:2c:02:34:b4:bc:08:92:d4:31:
                    7f:fe:42:5b:38:d8:0a:bf:5d:c5:00:1d:0a:e4:0b:
                    9e:ad:a5:82:ee:7d:a9:d8:d0:87:79:05:20:34:7f:
                    e9:4d
                Exponent: 65537 (0x10001)
        X509v3 extensions:
            X509v3 Authority Key Identifier: 
                keyid:29:91:60:FF:8A:4D:FA:EB:F9:A6:6A:B8:CF:F9:E6:4B:BD:49:CE:12

            X509v3 Subject Key Identifier: 
                B4:17:53:56:AB:71:C4:C1:EC:A3:3E:74:55:D6:41:EB:E5:1E:D2:EB
            X509v3 Key Usage: critical
                Digital Signature
            X509v3 Basic Constraints: critical
                CA:FALSE
            X509v3 Extended Key Usage: 
                Code Signing
            Netscape Cert Type: 
                Object Signing
            X509v3 Certificate Policies: 
                Policy: 1.3.6.1.4.1.6449.1.2.1.3.2
                  CPS: https://secure.comodo.net/CPS

            X509v3 CRL Distribution Points: 

                Full Name:
                  URI:http://crl.comodoca.com/COMODORSACodeSigningCA.crl

            Authority Information Access: 
                CA Issuers - URI:http://crt.comodoca.com/COMODORSACodeSigningCA.crt
                OCSP - URI:http://ocsp.comodoca.com

            X509v3 Subject Alternative Name: 
                email:info@indexconsulting.net
    Signature Algorithm: sha256WithRSAEncryption
         18:f6:f4:ba:81:8b:c2:18:77:89:d4:57:57:0a:e6:cb:35:7f:
         37:57:54:ff:00:7b:de:f0:eb:36:7d:53:aa:c5:40:6b:ca:ba:
         b8:5a:cf:fa:e2:b6:bb:49:2a:9c:bb:ac:47:ba:af:ba:27:6e:
         9f:bf:cd:ac:27:4a:4c:1a:bd:87:2c:f5:bf:ca:20:ca:ce:a9:
         6b:63:03:36:34:59:ac:ca:11:28:a2:8e:46:e1:f4:2b:b2:2d:
         97:33:e2:eb:46:b4:3a:c3:bb:d3:35:0c:9a:23:89:6f:d8:28:
         67:60:33:af:32:72:36:4c:45:06:a3:91:df:bf:3a:f7:2b:d2:
         37:02:72:6c:c2:9b:e5:b8:fe:a0:e5:c3:04:44:29:69:c8:53:
         a3:81:b2:49:9e:20:38:3d:59:dd:2b:4e:80:42:55:30:b4:48:
         f7:6c:02:7e:23:c7:f8:cd:30:99:ca:27:66:93:bc:7b:f2:17:
         cc:d1:6a:f5:be:b1:51:71:07:12:f9:66:2f:5c:c6:fc:0f:1c:
         9a:d9:8c:6a:53:bf:1a:5a:c2:86:6a:69:00:7e:9e:6c:75:eb:
         dc:05:b6:70:3c:27:52:11:1a:2a:12:db:8d:fd:da:fc:ad:f2:
         14:d8:ae:78:9e:3f:34:bf:1d:be:ff:34:a1:54:29:46:1a:6f:
         e2:f2:a1:06
-----BEGIN CERTIFICATE-----
MIIFfTCCBGWgAwIBAgIRAJPwYCHthmtgE1bAhhCgK/AwDQYJKoZIhvcNAQELBQAw
fTELMAkGA1UEBhMCR0IxGzAZBgNVBAgTEkdyZWF0ZXIgTWFuY2hlc3RlcjEQMA4G
A1UEBxMHU2FsZm9yZDEaMBgGA1UEChMRQ09NT0RPIENBIExpbWl0ZWQxIzAhBgNV
BAMTGkNPTU9ETyBSU0EgQ29kZSBTaWduaW5nIENBMB4XDTE0MTAyMzAwMDAwMFoX
DTE2MTAyMjIzNTk1OVowgcAxCzAJBgNVBAYTAkVTMQ4wDAYDVQQRDAUwODk2MDES
MBAGA1UECAwJQmFyY2Vsb25hMRkwFwYDVQQHDBBTdC4gSnVzdCBEZXN2ZXJuMRkw
FwYDVQQJDBBDLyBTdC5MbHXDrXMsIDE2MR8wHQYDVQQKDBZJbmRleCBDb25zdWx0
aW5nLCBzLmwuMRUwEwYDVQQLDAxEZXZlbG9wbWVudHMxHzAdBgNVBAMMFkluZGV4
IENvbnN1bHRpbmcsIHMubC4wggEiMA0GCSqGSIb3DQEBAQUAA4IBDwAwggEKAoIB
AQCsQi6HAkGejuNz81rkw4TzNV6OaMclduT3GxOGBtCzYszId1ZL0JYmYN3OLbJR
uClWv4CAQ2IDA4vKIS9/rWosFz+r56j9Dz1T2CBEcPewdJpJCBSpE5SOXKKAgTvT
Cy9xpuNlKA6orlPdLBONiAqNTzGLub3fCCCJM/GATOVQZQg7gApREGcL69g2EaT/
OjL4d67nv9uPm9LGnCcIZtcpJ9zc0oTRoejLrk+P+0izKAYzuTu/fLJtK6GN3Us6
8DivRmjTa4D+Cntq6oS20H8WbpVrVW1iDCwCNLS8CJLUMX/+Qls42Aq/XcUAHQrk
C56tpYLufanY0Id5BSA0f+lNAgMBAAGjggGyMIIBrjAfBgNVHSMEGDAWgBQpkWD/
ik366/mmarjP+eZLvUnOEjAdBgNVHQ4EFgQUtBdTVqtxxMHsoz50VdZB6+Ue0usw
DgYDVR0PAQH/BAQDAgeAMAwGA1UdEwEB/wQCMAAwEwYDVR0lBAwwCgYIKwYBBQUH
AwMwEQYJYIZIAYb4QgEBBAQDAgQQMEYGA1UdIAQ/MD0wOwYMKwYBBAGyMQECAQMC
MCswKQYIKwYBBQUHAgEWHWh0dHBzOi8vc2VjdXJlLmNvbW9kby5uZXQvQ1BTMEMG
A1UdHwQ8MDowOKA2oDSGMmh0dHA6Ly9jcmwuY29tb2RvY2EuY29tL0NPTU9ET1JT
QUNvZGVTaWduaW5nQ0EuY3JsMHQGCCsGAQUFBwEBBGgwZjA+BggrBgEFBQcwAoYy
aHR0cDovL2NydC5jb21vZG9jYS5jb20vQ09NT0RPUlNBQ29kZVNpZ25pbmdDQS5j
cnQwJAYIKwYBBQUHMAGGGGh0dHA6Ly9vY3NwLmNvbW9kb2NhLmNvbTAjBgNVHREE
HDAagRhpbmZvQGluZGV4Y29uc3VsdGluZy5uZXQwDQYJKoZIhvcNAQELBQADggEB
ABj29LqBi8IYd4nUV1cK5ss1fzdXVP8Ae97w6zZ9U6rFQGvKurhaz/ritrtJKpy7
rEe6r7onbp+/zawnSkwavYcs9b/KIMrOqWtjAzY0WazKESiijkbh9CuyLZcz4utG
tDrDu9M1DJojiW/YKGdgM68ycjZMRQajkd+/Ovcr0jcCcmzCm+W4/qDlwwREKWnI
U6OBskmeIDg9Wd0rToBCVTC0SPdsAn4jx/jNMJnKJ2aTvHvyF8zRavW+sVFxBxL5
Zi9cxvwPHJrZjGpTvxpawoZqaQB+nmx169wFtnA8J1IRGioS24392vyt8hTYrnie
PzS/Hb7/NKFUKUYab+LyoQY=
-----END CERTIFICATE-----

Certificate:
    Data:
        Version: 3 (0x2)
        Serial Number:
            2e:7c:87:cc:0e:93:4a:52:fe:94:fd:1c:b7:cd:34:af
    Signature Algorithm: sha384WithRSAEncryption
        Issuer: C=GB, ST=Greater Manchester, L=Salford, O=COMODO CA Limited, CN=COMODO RSA Certification Authority
        Validity
            Not Before: May  9 00:00:00 2013 GMT
            Not After : May  8 23:59:59 2028 GMT
        Subject: C=GB, ST=Greater Manchester, L=Salford, O=COMODO CA Limited, CN=COMODO RSA Code Signing CA
        Subject Public Key Info:
            Public Key Algorithm: rsaEncryption
                Public-Key: (2048 bit)
                Modulus:
                    00:a6:98:90:63:77:91:34:7f:8a:d1:dd:e9:67:31:
                    11:eb:cc:1e:fd:31:1d:b3:b9:62:57:3f:93:bc:5b:
                    e3:9f:1e:24:32:11:27:6b:bc:51:91:a7:cf:9e:9e:
                    25:b3:5f:81:a8:18:0f:1d:1e:20:30:0e:fb:61:7b:
                    86:09:b3:e3:fd:a2:68:9d:1c:2c:9d:bf:72:e3:e4:
                    75:a0:e5:35:23:8e:c9:8a:ee:1a:0c:64:c7:d8:42:
                    a1:7b:b5:52:03:4b:3a:b0:8e:23:4b:4b:63:e0:22:
                    94:37:7b:d5:79:90:0a:14:18:51:2c:e6:fe:c1:12:
                    f0:1c:3f:61:61:0a:8c:a2:dc:f6:c3:30:aa:cd:28:
                    18:75:48:c1:79:5a:08:cd:bb:8c:55:8c:f7:d4:76:
                    90:3a:33:46:50:73:98:5c:f4:85:4a:6b:0f:80:dd:
                    5e:d6:bd:fd:a9:2f:c0:25:f5:f9:78:d7:8d:5f:10:
                    c2:44:55:3c:90:3c:31:46:cb:70:ae:07:a9:0a:e3:
                    af:c1:01:6f:90:1a:23:e2:5f:38:db:c6:08:5d:47:
                    b3:83:41:f0:2e:00:37:14:b9:12:aa:79:92:52:cd:
                    87:0f:7b:d8:62:29:a4:7e:30:bd:1b:b5:8c:72:b4:
                    48:f2:e3:e8:21:f9:5e:4c:62:79:8b:02:06:9f:7f:
                    d5:0b
                Exponent: 65537 (0x10001)
        X509v3 extensions:
            X509v3 Authority Key Identifier: 
                keyid:BB:AF:7E:02:3D:FA:A6:F1:3C:84:8E:AD:EE:38:98:EC:D9:32:32:D4

            X509v3 Subject Key Identifier: 
                29:91:60:FF:8A:4D:FA:EB:F9:A6:6A:B8:CF:F9:E6:4B:BD:49:CE:12
            X509v3 Key Usage: critical
                Digital Signature, Certificate Sign, CRL Sign
            X509v3 Basic Constraints: critical
                CA:TRUE, pathlen:0
            X509v3 Extended Key Usage: 
                Code Signing
            X509v3 Certificate Policies: 
                Policy: X509v3 Any Policy

            X509v3 CRL Distribution Points: 

                Full Name:
                  URI:http://crl.comodoca.com/COMODORSACertificationAuthority.crl

            Authority Information Access: 
                CA Issuers - URI:http://crt.comodoca.com/COMODORSAAddTrustCA.crt
                OCSP - URI:http://ocsp.comodoca.com

    Signature Algorithm: sha384WithRSAEncryption
         02:3f:02:39:c3:ee:f8:ca:3b:89:de:0c:6d:4d:b1:f1:4e:92:
         4f:af:c2:38:2c:04:cc:c5:63:11:ab:09:63:af:ab:a2:d7:02:
         3f:cc:6f:19:c3:3d:d6:1a:08:94:ff:25:d8:a9:88:a7:2b:10:
         1a:e0:9b:b1:07:22:1a:51:1c:3a:d4:e1:e9:09:bf:e6:24:74:
         af:1e:7b:16:31:6e:23:ef:54:51:2d:52:02:e2:75:08:05:4c:
         f1:b7:51:e1:51:00:c6:87:f6:6c:ee:10:44:76:57:6a:f1:df:
         58:6b:21:aa:49:d4:7c:37:4e:bd:ff:b6:75:54:40:18:36:57:
         67:11:cd:4f:02:e4:fe:f3:da:fc:75:17:db:ec:b7:f7:65:09:
         23:49:1f:43:57:83:ea:7e:20:77:61:c8:4d:f2:bb:65:4d:a8:
         f7:85:45:07:af:7a:69:27:65:90:29:40:8b:df:7b:3a:51:39:
         8c:a8:1f:70:79:ad:6d:42:20:a2:cf:0c:6c:03:8c:4c:cd:73:
         07:94:e7:5a:8e:3a:04:ba:a2:a1:7c:1f:cb:63:3a:15:a7:d4:
         15:1b:a7:52:47:32:a9:f4:bf:64:47:d1:aa:1f:53:4e:32:30:
         73:c2:6f:b7:78:82:9d:5c:ff:46:bb:6b:22:1d:88:0b:f8:1b:
         aa:34:a6:fc:8c:f5:dd:7f:65:8c:8c:31:57:31:d0:36:ec:47:
         a1:cf:cb:8b:a8:ef:1c:18:58:c5:06:77:ca:4b:9b:51:af:4c:
         08:4a:7a:8f:e2:a3:52:e2:8e:8e:cc:26:e4:b2:d8:e5:38:c2:
         a8:ed:c6:81:9c:35:6b:a9:58:61:4a:0a:97:b4:4b:42:b6:55:
         9d:be:99:e7:70:6d:59:f8:6d:2a:0c:7f:19:60:5f:0c:9a:88:
         6c:30:ac:52:09:90:16:1b:ff:2b:9d:db:d0:20:ca:89:ea:28:
         7e:32:8e:19:df:7b:48:33:1e:d7:65:f8:ae:c9:f8:83:14:93:
         76:7d:64:d0:8e:ce:be:35:7d:ff:72:31:4d:9f:9e:bd:1e:6c:
         2f:a8:8f:0c:06:50:fb:8c:27:b3:76:c9:f4:e6:d7:c3:34:e2:
         8c:87:21:86:61:fe:bf:55:74:e1:21:77:03:0a:68:6c:bb:e4:
         c9:a9:e6:cf:59:25:eb:7c:ec:45:0e:79:66:68:e8:22:cd:b8:
         ef:98:85:4d:96:11:3c:09:8a:d0:7f:bc:28:28:13:fb:6a:ca:
         54:8d:92:5c:cd:c2:65:98:06:9e:ce:48:5b:d4:b5:37:93:46:
         41:7c:07:dd:cf:fa:43:ef:ba:67:61:ff:7d:49:e0:bb:30:7d:
         5c:80:e3:e6:16:39:4b:a7
-----BEGIN CERTIFICATE-----
MIIF4DCCA8igAwIBAgIQLnyHzA6TSlL+lP0ct800rzANBgkqhkiG9w0BAQwFADCB
hTELMAkGA1UEBhMCR0IxGzAZBgNVBAgTEkdyZWF0ZXIgTWFuY2hlc3RlcjEQMA4G
A1UEBxMHU2FsZm9yZDEaMBgGA1UEChMRQ09NT0RPIENBIExpbWl0ZWQxKzApBgNV
BAMTIkNPTU9ETyBSU0EgQ2VydGlmaWNhdGlvbiBBdXRob3JpdHkwHhcNMTMwNTA5
MDAwMDAwWhcNMjgwNTA4MjM1OTU5WjB9MQswCQYDVQQGEwJHQjEbMBkGA1UECBMS
R3JlYXRlciBNYW5jaGVzdGVyMRAwDgYDVQQHEwdTYWxmb3JkMRowGAYDVQQKExFD
T01PRE8gQ0EgTGltaXRlZDEjMCEGA1UEAxMaQ09NT0RPIFJTQSBDb2RlIFNpZ25p
bmcgQ0EwggEiMA0GCSqGSIb3DQEBAQUAA4IBDwAwggEKAoIBAQCmmJBjd5E0f4rR
3elnMRHrzB79MR2zuWJXP5O8W+OfHiQyESdrvFGRp8+eniWzX4GoGA8dHiAwDvth
e4YJs+P9omidHCydv3Lj5HWg5TUjjsmK7hoMZMfYQqF7tVIDSzqwjiNLS2PgIpQ3
e9V5kAoUGFEs5v7BEvAcP2FhCoyi3PbDMKrNKBh1SMF5WgjNu4xVjPfUdpA6M0ZQ
c5hc9IVKaw+A3V7Wvf2pL8Al9fl4141fEMJEVTyQPDFGy3CuB6kK46/BAW+QGiPi
XzjbxghdR7ODQfAuADcUuRKqeZJSzYcPe9hiKaR+ML0btYxytEjy4+gh+V5MYnmL
Agaff9ULAgMBAAGjggFRMIIBTTAfBgNVHSMEGDAWgBS7r34CPfqm8TyEjq3uOJjs
2TIy1DAdBgNVHQ4EFgQUKZFg/4pN+uv5pmq4z/nmS71JzhIwDgYDVR0PAQH/BAQD
AgGGMBIGA1UdEwEB/wQIMAYBAf8CAQAwEwYDVR0lBAwwCgYIKwYBBQUHAwMwEQYD
VR0gBAowCDAGBgRVHSAAMEwGA1UdHwRFMEMwQaA/oD2GO2h0dHA6Ly9jcmwuY29t
b2RvY2EuY29tL0NPTU9ET1JTQUNlcnRpZmljYXRpb25BdXRob3JpdHkuY3JsMHEG
CCsGAQUFBwEBBGUwYzA7BggrBgEFBQcwAoYvaHR0cDovL2NydC5jb21vZG9jYS5j
b20vQ09NT0RPUlNBQWRkVHJ1c3RDQS5jcnQwJAYIKwYBBQUHMAGGGGh0dHA6Ly9v
Y3NwLmNvbW9kb2NhLmNvbTANBgkqhkiG9w0BAQwFAAOCAgEAAj8COcPu+Mo7id4M
bU2x8U6ST6/COCwEzMVjEasJY6+rotcCP8xvGcM91hoIlP8l2KmIpysQGuCbsQci
GlEcOtTh6Qm/5iR0rx57FjFuI+9UUS1SAuJ1CAVM8bdR4VEAxof2bO4QRHZXavHf
WGshqknUfDdOvf+2dVRAGDZXZxHNTwLk/vPa/HUX2+y392UJI0kfQ1eD6n4gd2HI
TfK7ZU2o94VFB696aSdlkClAi997OlE5jKgfcHmtbUIgos8MbAOMTM1zB5TnWo46
BLqioXwfy2M6FafUFRunUkcyqfS/ZEfRqh9TTjIwc8Jvt3iCnVz/RrtrIh2IC/gb
qjSm/Iz13X9ljIwxVzHQNuxHoc/Li6jvHBhYxQZ3ykubUa9MCEp6j+KjUuKOjswm
5LLY5TjCqO3GgZw1a6lYYUoKl7RLQrZVnb6Z53BtWfhtKgx/GWBfDJqIbDCsUgmQ
Fhv/K53b0CDKieoofjKOGd97SDMe12X4rsn4gxSTdn1k0I7OvjV9/3IxTZ+evR5s
L6iPDAZQ+4wns3bJ9ObXwzTijIchhmH+v1V04SF3AwpobLvkyanmz1kl63zsRQ55
ZmjoIs2475iFTZYRPAmK0H+8KCgT+2rKVI2SXM3CZZgGns5IW9S1N5NGQXwH3c/6
Q++6Z2H/fUnguzB9XIDj5hY5S6c=
-----END CERTIFICATE-----

