Certificate:
    Data:
        Version: 3 (0x2)
        Serial Number:
            22:cf:7d:a7:b7:6f:c5:c4:e7:72:25:cf:a1:bd:a4:97
    Signature Algorithm: sha1WithRSAEncryption
        Issuer: C=US, O=VeriSign, Inc., OU=VeriSign Trust Network, OU=Terms of use at https://www.verisign.com/rpa (c)10, CN=VeriSign Class 3 Code Signing 2010 CA
        Validity
            Not Before: Mar 16 00:00:00 2012 GMT
            Not After : Jun 15 23:59:59 2015 GMT
        Subject: C=CN, ST=Beijing, L=Beijing, O=Beijing AmazGame Age Internet Technology Co., Ltd., OU=Digital ID Class 3 - Microsoft Software Validation v2, CN=Beijing AmazGame Age Internet Technology Co., Ltd.
        Subject Public Key Info:
            Public Key Algorithm: rsaEncryption
                Public-Key: (2048 bit)
                Modulus:
                    00:cb:53:df:13:cf:e4:eb:a0:e3:d7:65:78:f1:2d:
                    07:45:3a:c0:87:cb:70:34:97:da:12:90:13:98:26:
                    90:97:0b:8c:be:2d:b1:26:87:d5:ab:b7:47:f7:52:
                    34:bd:1d:e3:02:72:3d:b5:83:6a:74:61:d7:e8:bd:
                    2a:03:be:26:30:59:71:a8:16:b0:9b:c3:5a:bb:38:
                    32:06:79:69:3b:70:33:6d:32:45:dd:d0:75:75:2f:
                    da:cd:e7:4e:f5:2f:39:ee:39:90:c4:b2:57:84:68:
                    b8:af:d0:27:1c:4c:95:1b:69:8a:0c:1d:00:0d:b2:
                    69:00:35:29:28:bb:63:31:1f:18:dc:3d:39:19:c9:
                    1d:bf:32:e9:df:14:6c:25:3f:30:2f:7f:10:ef:fc:
                    53:c5:5c:c9:14:69:8d:d0:52:b0:6e:5f:e8:f1:70:
                    e4:26:ba:e5:50:dc:df:56:1b:65:13:49:cd:96:af:
                    9f:a4:c0:69:43:ca:ca:2e:ab:14:1e:83:2b:9d:6d:
                    e7:e5:79:0c:a4:ab:ca:83:c4:65:ed:16:32:f4:dc:
                    b9:16:e3:2c:55:19:01:af:07:af:79:e9:bf:8a:ff:
                    51:04:e9:42:39:1e:29:2a:27:00:b4:0b:ab:88:0a:
                    d6:96:03:c1:6b:cc:90:ee:5b:77:b9:dd:87:57:5d:
                    c9:ff
                Exponent: 65537 (0x10001)
        X509v3 extensions:
            X509v3 Basic Constraints: 
                CA:FALSE
            X509v3 Key Usage: critical
                Digital Signature
            X509v3 CRL Distribution Points: 

                Full Name:
                  URI:http://csc3-2010-crl.verisign.com/CSC3-2010.crl

            X509v3 Certificate Policies: 
                Policy: 2.16.840.1.113733.1.7.23.3
                  CPS: https://www.verisign.com/rpa

            X509v3 Extended Key Usage: 
                Code Signing
            Authority Information Access: 
                OCSP - URI:http://ocsp.verisign.com
                CA Issuers - URI:http://csc3-2010-aia.verisign.com/CSC3-2010.cer

            X509v3 Authority Key Identifier: 
                keyid:CF:99:A9:EA:7B:26:F4:4B:C9:8E:8F:D7:F0:05:26:EF:E3:D2:A7:9D

            Netscape Cert Type: 
                Object Signing
            1.3.6.1.4.1.311.2.1.27: 
                0.......
    Signature Algorithm: sha1WithRSAEncryption
         bc:24:95:58:3c:dd:56:3d:f9:34:2f:6d:07:b3:e8:20:ac:64:
         cc:5e:8e:18:61:6f:c3:ab:df:78:ac:57:d6:02:eb:bf:41:23:
         a0:42:ee:d1:2d:44:42:e7:8f:c7:74:ea:5d:cb:7a:3f:98:2f:
         a2:b7:26:bc:2c:22:a7:39:30:ae:69:bc:f0:09:5c:1e:72:86:
         ff:1f:70:4f:5d:b8:bd:75:ed:e8:b1:4b:ac:b1:4d:61:3d:b8:
         c6:f6:a8:67:cb:71:76:21:8e:ae:6a:c5:26:50:78:c7:85:30:
         3f:43:bb:4c:b3:80:c2:4b:3b:20:d2:aa:b8:fd:26:96:73:e9:
         be:8b:72:68:f3:e3:7f:dc:6e:91:d5:d1:a5:88:33:f8:9d:e5:
         08:94:ea:a4:94:6a:04:d8:07:5c:bc:b0:3c:26:c8:41:cc:e9:
         64:96:a1:87:90:2a:5f:d5:5e:44:67:46:1e:46:2f:cf:10:7e:
         17:4e:52:ef:4c:da:f9:b8:d4:d2:00:d3:9c:70:54:2a:08:cc:
         1a:74:4b:23:3a:61:17:40:cf:50:74:3e:0f:6a:f5:63:c5:e2:
         67:bb:fb:80:3e:09:78:4a:8d:6b:ae:a6:e4:24:f6:bf:57:1b:
         51:35:78:22:63:00:4e:56:fd:4d:f3:c8:7f:96:e3:79:bc:3c:
         f1:e9:4d:32
-----BEGIN CERTIFICATE-----
MIIFqDCCBJCgAwIBAgIQIs99p7dvxcTnciXPob2klzANBgkqhkiG9w0BAQUFADCB
tDELMAkGA1UEBhMCVVMxFzAVBgNVBAoTDlZlcmlTaWduLCBJbmMuMR8wHQYDVQQL
ExZWZXJpU2lnbiBUcnVzdCBOZXR3b3JrMTswOQYDVQQLEzJUZXJtcyBvZiB1c2Ug
YXQgaHR0cHM6Ly93d3cudmVyaXNpZ24uY29tL3JwYSAoYykxMDEuMCwGA1UEAxMl
VmVyaVNpZ24gQ2xhc3MgMyBDb2RlIFNpZ25pbmcgMjAxMCBDQTAeFw0xMjAzMTYw
MDAwMDBaFw0xNTA2MTUyMzU5NTlaMIHrMQswCQYDVQQGEwJDTjEQMA4GA1UECBMH
QmVpamluZzEQMA4GA1UEBxMHQmVpamluZzE7MDkGA1UEChQyQmVpamluZyBBbWF6
R2FtZSBBZ2UgSW50ZXJuZXQgVGVjaG5vbG9neSBDby4sIEx0ZC4xPjA8BgNVBAsT
NURpZ2l0YWwgSUQgQ2xhc3MgMyAtIE1pY3Jvc29mdCBTb2Z0d2FyZSBWYWxpZGF0
aW9uIHYyMTswOQYDVQQDFDJCZWlqaW5nIEFtYXpHYW1lIEFnZSBJbnRlcm5ldCBU
ZWNobm9sb2d5IENvLiwgTHRkLjCCASIwDQYJKoZIhvcNAQEBBQADggEPADCCAQoC
ggEBAMtT3xPP5Oug49dlePEtB0U6wIfLcDSX2hKQE5gmkJcLjL4tsSaH1au3R/dS
NL0d4wJyPbWDanRh1+i9KgO+JjBZcagWsJvDWrs4MgZ5aTtwM20yRd3QdXUv2s3n
TvUvOe45kMSyV4RouK/QJxxMlRtpigwdAA2yaQA1KSi7YzEfGNw9ORnJHb8y6d8U
bCU/MC9/EO/8U8VcyRRpjdBSsG5f6PFw5Ca65VDc31YbZRNJzZavn6TAaUPKyi6r
FB6DK51t5+V5DKSryoPEZe0WMvTcuRbjLFUZAa8Hr3npv4r/UQTpQjkeKSonALQL
q4gK1pYDwWvMkO5bd7ndh1ddyf8CAwEAAaOCAXswggF3MAkGA1UdEwQCMAAwDgYD
VR0PAQH/BAQDAgeAMEAGA1UdHwQ5MDcwNaAzoDGGL2h0dHA6Ly9jc2MzLTIwMTAt
Y3JsLnZlcmlzaWduLmNvbS9DU0MzLTIwMTAuY3JsMEQGA1UdIAQ9MDswOQYLYIZI
AYb4RQEHFwMwKjAoBggrBgEFBQcCARYcaHR0cHM6Ly93d3cudmVyaXNpZ24uY29t
L3JwYTATBgNVHSUEDDAKBggrBgEFBQcDAzBxBggrBgEFBQcBAQRlMGMwJAYIKwYB
BQUHMAGGGGh0dHA6Ly9vY3NwLnZlcmlzaWduLmNvbTA7BggrBgEFBQcwAoYvaHR0
cDovL2NzYzMtMjAxMC1haWEudmVyaXNpZ24uY29tL0NTQzMtMjAxMC5jZXIwHwYD
VR0jBBgwFoAUz5mp6nsm9EvJjo/X8AUm7+PSp50wEQYJYIZIAYb4QgEBBAQDAgQQ
MBYGCisGAQQBgjcCARsECDAGAQEAAQH/MA0GCSqGSIb3DQEBBQUAA4IBAQC8JJVY
PN1WPfk0L20Hs+ggrGTMXo4YYW/Dq994rFfWAuu/QSOgQu7RLURC54/HdOpdy3o/
mC+itya8LCKnOTCuabzwCVwecob/H3BPXbi9de3osUussU1hPbjG9qhny3F2IY6u
asUmUHjHhTA/Q7tMs4DCSzsg0qq4/SaWc+m+i3Jo8+N/3G6R1dGliDP4neUIlOqk
lGoE2AdcvLA8JshBzOlklqGHkCpf1V5EZ0YeRi/PEH4XTlLvTNr5uNTSANOccFQq
CMwadEsjOmEXQM9QdD4PavVjxeJnu/uAPgl4So1rrqbkJPa/VxtRNXgiYwBOVv1N
88h/luN5vDzx6U0y
-----END CERTIFICATE-----

Certificate:
    Data:
        Version: 3 (0x2)
        Serial Number:
            52:00:e5:aa:25:56:fc:1a:86:ed:96:c9:d4:4b:33:c7
    Signature Algorithm: sha1WithRSAEncryption
        Issuer: C=US, O=VeriSign, Inc., OU=VeriSign Trust Network, OU=(c) 2006 VeriSign, Inc. - For authorized use only, CN=VeriSign Class 3 Public Primary Certification Authority - G5
        Validity
            Not Before: Feb  8 00:00:00 2010 GMT
            Not After : Feb  7 23:59:59 2020 GMT
        Subject: C=US, O=VeriSign, Inc., OU=VeriSign Trust Network, OU=Terms of use at https://www.verisign.com/rpa (c)10, CN=VeriSign Class 3 Code Signing 2010 CA
        Subject Public Key Info:
            Public Key Algorithm: rsaEncryption
                Public-Key: (2048 bit)
                Modulus:
                    00:f5:23:4b:5e:a5:d7:8a:bb:32:e9:d4:57:f7:ef:
                    e4:c7:26:7e:ad:19:98:fe:a8:9d:7d:94:f6:36:6b:
                    10:d7:75:81:30:7f:04:68:7f:cb:2b:75:1e:cd:1d:
                    08:8c:df:69:94:a7:37:a3:9c:7b:80:e0:99:e1:ee:
                    37:4d:5f:ce:3b:14:ee:86:d4:d0:f5:27:35:bc:25:
                    0b:38:a7:8c:63:9d:17:a3:08:a5:ab:b0:fb:cd:6a:
                    62:82:4c:d5:21:da:1b:d9:f1:e3:84:3b:8a:2a:4f:
                    85:5b:90:01:4f:c9:a7:76:10:7f:27:03:7c:be:ae:
                    7e:7d:c1:dd:f9:05:bc:1b:48:9c:69:e7:c0:a4:3c:
                    3c:41:00:3e:df:96:e5:c5:e4:94:71:d6:55:01:c7:
                    00:26:4a:40:3c:b5:a1:26:a9:0c:a7:6d:80:8e:90:
                    25:7b:cf:bf:3f:1c:eb:2f:96:fa:e5:87:77:c6:b5:
                    56:b2:7a:3b:54:30:53:1b:df:62:34:ff:1e:d1:f4:
                    5a:93:28:85:e5:4c:17:4e:7e:5b:fd:a4:93:99:7f:
                    df:cd:ef:a4:75:ef:ef:15:f6:47:e7:f8:19:72:d8:
                    2e:34:1a:a6:b4:a7:4c:7e:bd:bb:4f:0c:3d:57:f1:
                    30:d6:a6:36:8e:d6:80:76:d7:19:2e:a5:cd:7e:34:
                    2d:89
                Exponent: 65537 (0x10001)
        X509v3 extensions:
            X509v3 Basic Constraints: critical
                CA:TRUE, pathlen:0
            X509v3 Certificate Policies: 
                Policy: 2.16.840.1.113733.1.7.23.3
                  CPS: https://www.verisign.com/cps
                  User Notice:
                    Explicit Text: https://www.verisign.com/rpa

            X509v3 Key Usage: critical
                Certificate Sign, CRL Sign
            1.3.6.1.5.5.7.1.12: 
                0_.].[0Y0W0U..image/gif0!0.0...+..............k...j.H.,{..0%.#http://logo.verisign.com/vslogo.gif
            X509v3 CRL Distribution Points: 

                Full Name:
                  URI:http://crl.verisign.com/pca3-g5.crl

            Authority Information Access: 
                OCSP - URI:http://ocsp.verisign.com

            X509v3 Extended Key Usage: 
                TLS Web Client Authentication, Code Signing
            X509v3 Subject Alternative Name: 
                DirName:/CN=VeriSignMPKI-2-8
            X509v3 Subject Key Identifier: 
                CF:99:A9:EA:7B:26:F4:4B:C9:8E:8F:D7:F0:05:26:EF:E3:D2:A7:9D
            X509v3 Authority Key Identifier: 
                keyid:7F:D3:65:A7:C2:DD:EC:BB:F0:30:09:F3:43:39:FA:02:AF:33:31:33

    Signature Algorithm: sha1WithRSAEncryption
         56:22:e6:34:a4:c4:61:cb:48:b9:01:ad:56:a8:64:0f:d9:8c:
         91:c4:bb:cc:0c:e5:ad:7a:a0:22:7f:df:47:38:4a:2d:6c:d1:
         7f:71:1a:7c:ec:70:a9:b1:f0:4f:e4:0f:0c:53:fa:15:5e:fe:
         74:98:49:24:85:81:26:1c:91:14:47:b0:4c:63:8c:bb:a1:34:
         d4:c6:45:e8:0d:85:26:73:03:d0:a9:8c:64:6d:dc:71:92:e6:
         45:05:60:15:59:51:39:fc:58:14:6b:fe:d4:a4:ed:79:6b:08:
         0c:41:72:e7:37:22:06:09:be:23:e9:3f:44:9a:1e:e9:61:9d:
         cc:b1:90:5c:fc:3d:d2:8d:ac:42:3d:65:36:d4:b4:3d:40:28:
         8f:9b:10:cf:23:26:cc:4b:20:cb:90:1f:5d:8c:4c:34:ca:3c:
         d8:e5:37:d6:6f:a5:20:bd:34:eb:26:d9:ae:0d:e7:c5:9a:f7:
         a1:b4:21:91:33:6f:86:e8:58:bb:25:7c:74:0e:58:fe:75:1b:
         63:3f:ce:31:7c:9b:8f:1b:96:9e:c5:53:76:84:5b:9c:ad:91:
         fa:ac:ed:93:ba:5d:c8:21:53:c2:82:53:63:af:12:0d:50:87:
         11:1b:3d:54:52:96:8a:2c:9c:3d:92:1a:08:9a:05:2e:c7:93:
         a5:48:91:d3
-----BEGIN CERTIFICATE-----
MIIGCjCCBPKgAwIBAgIQUgDlqiVW/BqG7ZbJ1EszxzANBgkqhkiG9w0BAQUFADCB
yjELMAkGA1UEBhMCVVMxFzAVBgNVBAoTDlZlcmlTaWduLCBJbmMuMR8wHQYDVQQL
ExZWZXJpU2lnbiBUcnVzdCBOZXR3b3JrMTowOAYDVQQLEzEoYykgMjAwNiBWZXJp
U2lnbiwgSW5jLiAtIEZvciBhdXRob3JpemVkIHVzZSBvbmx5MUUwQwYDVQQDEzxW
ZXJpU2lnbiBDbGFzcyAzIFB1YmxpYyBQcmltYXJ5IENlcnRpZmljYXRpb24gQXV0
aG9yaXR5IC0gRzUwHhcNMTAwMjA4MDAwMDAwWhcNMjAwMjA3MjM1OTU5WjCBtDEL
MAkGA1UEBhMCVVMxFzAVBgNVBAoTDlZlcmlTaWduLCBJbmMuMR8wHQYDVQQLExZW
ZXJpU2lnbiBUcnVzdCBOZXR3b3JrMTswOQYDVQQLEzJUZXJtcyBvZiB1c2UgYXQg
aHR0cHM6Ly93d3cudmVyaXNpZ24uY29tL3JwYSAoYykxMDEuMCwGA1UEAxMlVmVy
aVNpZ24gQ2xhc3MgMyBDb2RlIFNpZ25pbmcgMjAxMCBDQTCCASIwDQYJKoZIhvcN
AQEBBQADggEPADCCAQoCggEBAPUjS16l14q7MunUV/fv5Mcmfq0ZmP6onX2U9jZr
ENd1gTB/BGh/yyt1Hs0dCIzfaZSnN6Oce4DgmeHuN01fzjsU7obU0PUnNbwlCzin
jGOdF6MIpauw+81qYoJM1SHaG9nx44Q7iipPhVuQAU/Jp3YQfycDfL6ufn3B3fkF
vBtInGnnwKQ8PEEAPt+W5cXklHHWVQHHACZKQDy1oSapDKdtgI6QJXvPvz8c6y+W
+uWHd8a1VrJ6O1QwUxvfYjT/HtH0WpMoheVMF05+W/2kk5l/383vpHXv7xX2R+f4
GXLYLjQaprSnTH69u08MPVfxMNamNo7WgHbXGS6lzX40LYkCAwEAAaOCAf4wggH6
MBIGA1UdEwEB/wQIMAYBAf8CAQAwcAYDVR0gBGkwZzBlBgtghkgBhvhFAQcXAzBW
MCgGCCsGAQUFBwIBFhxodHRwczovL3d3dy52ZXJpc2lnbi5jb20vY3BzMCoGCCsG
AQUFBwICMB4aHGh0dHBzOi8vd3d3LnZlcmlzaWduLmNvbS9ycGEwDgYDVR0PAQH/
BAQDAgEGMG0GCCsGAQUFBwEMBGEwX6FdoFswWTBXMFUWCWltYWdlL2dpZjAhMB8w
BwYFKw4DAhoEFI/l0xqGrI2Oa8PPgGrUSBgsexkuMCUWI2h0dHA6Ly9sb2dvLnZl
cmlzaWduLmNvbS92c2xvZ28uZ2lmMDQGA1UdHwQtMCswKaAnoCWGI2h0dHA6Ly9j
cmwudmVyaXNpZ24uY29tL3BjYTMtZzUuY3JsMDQGCCsGAQUFBwEBBCgwJjAkBggr
BgEFBQcwAYYYaHR0cDovL29jc3AudmVyaXNpZ24uY29tMB0GA1UdJQQWMBQGCCsG
AQUFBwMCBggrBgEFBQcDAzAoBgNVHREEITAfpB0wGzEZMBcGA1UEAxMQVmVyaVNp
Z25NUEtJLTItODAdBgNVHQ4EFgQUz5mp6nsm9EvJjo/X8AUm7+PSp50wHwYDVR0j
BBgwFoAUf9Nlp8Ld7LvwMAnzQzn6Aq8zMTMwDQYJKoZIhvcNAQEFBQADggEBAFYi
5jSkxGHLSLkBrVaoZA/ZjJHEu8wM5a16oCJ/30c4Si1s0X9xGnzscKmx8E/kDwxT
+hVe/nSYSSSFgSYckRRHsExjjLuhNNTGRegNhSZzA9CpjGRt3HGS5kUFYBVZUTn8
WBRr/tSk7XlrCAxBcuc3IgYJviPpP0SaHulhncyxkFz8PdKNrEI9ZTbUtD1AKI+b
EM8jJsxLIMuQH12MTDTKPNjlN9ZvpSC9NOsm2a4N58Wa96G0IZEzb4boWLslfHQO
WP51G2M/zjF8m48blp7FU3aEW5ytkfqs7ZO6XcghU8KCU2OvEg1QhxEbPVRSloos
nD2SGgiaBS7Hk6VIkdM=
-----END CERTIFICATE-----

