Certificate:
    Data:
        Version: 3 (0x2)
        Serial Number:
            6e:c2:a6:8f:cd:12:45:9f:0c:79:59:20:1a:e1:bf:8b
    Signature Algorithm: sha256WithRSAEncryption
        Issuer: C=GB, ST=Greater Manchester, L=Salford, O=COMODO CA Limited, CN=COMODO RSA Code Signing CA
        Validity
            Not Before: Jun  9 00:00:00 2016 GMT
            Not After : Jun  6 23:59:59 2017 GMT
        Subject: C=SC/postalCode=0000, ST=Mahe, L=Providence/street=Rue de la Perle/street=Global Gateway 8, O=XDisc Corp Ltd, CN=XDisc Corp Ltd
        Subject Public Key Info:
            Public Key Algorithm: rsaEncryption
                Public-Key: (2048 bit)
                Modulus:
                    00:9e:57:51:0c:b6:ca:31:38:97:4f:54:26:a4:3a:
                    aa:56:83:5a:0f:6c:52:ba:86:45:5d:1e:b7:2b:c2:
                    31:7e:e2:a0:9e:20:3e:0c:d2:66:03:6e:73:44:7b:
                    76:38:a8:2d:ad:70:f1:f7:51:b2:f2:b5:63:33:eb:
                    1e:ad:5b:9c:d8:c4:25:9e:6d:7e:f9:7e:eb:b1:71:
                    32:d3:0c:b5:15:be:c5:fc:49:51:0a:0e:34:28:f8:
                    71:3e:ea:b3:62:9f:2e:97:5d:4b:2d:9a:4d:38:f2:
                    b7:bd:e5:cb:94:fd:2c:e5:37:ee:c7:5a:ac:f5:c6:
                    e8:16:10:38:84:4e:3d:38:9f:32:41:f9:b7:17:6c:
                    1e:c5:73:47:1c:e4:2e:0d:d4:5a:72:2a:ae:33:23:
                    99:71:61:7a:bf:19:57:94:53:a2:08:c5:ce:c2:9d:
                    3b:bf:5d:5d:43:2d:bd:7c:f8:ca:23:9f:71:f4:1b:
                    5b:c3:4a:f3:7e:5c:cf:2e:90:33:55:0a:ca:3f:be:
                    66:5c:b7:9e:ce:01:d8:69:14:71:36:ab:90:c4:17:
                    30:68:e8:f2:71:8f:9a:dc:08:e8:ee:cb:aa:42:5c:
                    e5:0d:ce:20:48:62:60:bc:dc:3d:4b:bc:ca:be:9b:
                    18:20:15:dd:82:3f:d8:44:ca:b6:56:59:90:ae:f8:
                    61:2f
                Exponent: 65537 (0x10001)
        X509v3 extensions:
            X509v3 Authority Key Identifier: 
                keyid:29:91:60:FF:8A:4D:FA:EB:F9:A6:6A:B8:CF:F9:E6:4B:BD:49:CE:12

            X509v3 Subject Key Identifier: 
                93:82:08:51:98:CE:12:81:43:14:E3:28:C8:4B:35:F5:34:FC:E3:33
            X509v3 Key Usage: critical
                Digital Signature
            X509v3 Basic Constraints: critical
                CA:FALSE
            X509v3 Extended Key Usage: 
                Code Signing
            Netscape Cert Type: 
                Object Signing
            X509v3 Certificate Policies: 
                Policy: 1.3.6.1.4.1.6449.1.2.1.3.2
                  CPS: https://secure.comodo.net/CPS

            X509v3 CRL Distribution Points: 

                Full Name:
                  URI:http://crl.comodoca.com/COMODORSACodeSigningCA.crl

            Authority Information Access: 
                CA Issuers - URI:http://crt.comodoca.com/COMODORSACodeSigningCA.crt
                OCSP - URI:http://ocsp.comodoca.com

            X509v3 Subject Alternative Name: 
                email:info@xdisc.biz
    Signature Algorithm: sha256WithRSAEncryption
         3a:d5:e9:b8:b5:cb:1b:8f:fb:17:de:ba:4e:6f:30:77:37:eb:
         e7:46:6d:5d:12:26:1f:4f:d5:e7:98:d5:ee:96:33:ac:74:34:
         c3:48:c3:73:54:64:de:5f:d1:96:3a:42:c2:6a:4b:1e:f4:cb:
         02:b9:67:ea:9c:93:4f:09:31:44:f0:90:9b:41:27:d3:9e:3e:
         4a:c8:6a:43:8f:6e:42:b5:2a:59:d0:e3:ba:d9:53:42:ef:71:
         b6:b3:fa:0e:97:0b:a9:85:d5:48:b9:08:5c:ad:d0:7d:82:fb:
         6f:df:c4:04:0d:23:8d:72:00:3c:01:e6:5c:99:ec:fc:8f:7c:
         f1:04:67:3f:10:98:5d:0d:c9:a6:d9:61:b3:3d:a3:70:cd:2d:
         e4:52:03:c6:0b:fb:7e:d3:95:a8:26:7e:0f:da:39:3c:07:40:
         eb:94:60:0b:b7:16:24:db:a5:44:e2:37:33:54:d0:02:cf:f8:
         bc:de:77:95:a5:90:cd:12:c1:dd:1e:49:f7:0b:27:89:61:06:
         86:5f:a8:3a:23:ea:4a:da:04:eb:60:09:11:7a:9c:8e:18:34:
         34:3f:9d:1a:df:e4:69:22:45:a0:b5:b8:34:f5:2d:14:b9:24:
         2e:c5:8c:d6:29:73:d7:af:03:ab:37:c7:ed:92:47:51:00:1b:
         cc:60:11:35
-----BEGIN CERTIFICATE-----
MIIFWTCCBEGgAwIBAgIQbsKmj80SRZ8MeVkgGuG/izANBgkqhkiG9w0BAQsFADB9
MQswCQYDVQQGEwJHQjEbMBkGA1UECBMSR3JlYXRlciBNYW5jaGVzdGVyMRAwDgYD
VQQHEwdTYWxmb3JkMRowGAYDVQQKExFDT01PRE8gQ0EgTGltaXRlZDEjMCEGA1UE
AxMaQ09NT0RPIFJTQSBDb2RlIFNpZ25pbmcgQ0EwHhcNMTYwNjA5MDAwMDAwWhcN
MTcwNjA2MjM1OTU5WjCBpzELMAkGA1UEBhMCU0MxDTALBgNVBBEMBDAwMDAxDTAL
BgNVBAgMBE1haGUxEzARBgNVBAcMClByb3ZpZGVuY2UxGDAWBgNVBAkMD1J1ZSBk
ZSBsYSBQZXJsZTEZMBcGA1UECQwQR2xvYmFsIEdhdGV3YXkgODEXMBUGA1UECgwO
WERpc2MgQ29ycCBMdGQxFzAVBgNVBAMMDlhEaXNjIENvcnAgTHRkMIIBIjANBgkq
hkiG9w0BAQEFAAOCAQ8AMIIBCgKCAQEAnldRDLbKMTiXT1QmpDqqVoNaD2xSuoZF
XR63K8IxfuKgniA+DNJmA25zRHt2OKgtrXDx91Gy8rVjM+serVuc2MQlnm1++X7r
sXEy0wy1Fb7F/ElRCg40KPhxPuqzYp8ul11LLZpNOPK3veXLlP0s5Tfux1qs9cbo
FhA4hE49OJ8yQfm3F2wexXNHHOQuDdRaciquMyOZcWF6vxlXlFOiCMXOwp07v11d
Qy29fPjKI59x9Btbw0rzflzPLpAzVQrKP75mXLeezgHYaRRxNquQxBcwaOjycY+a
3Ajo7suqQlzlDc4gSGJgvNw9S7zKvpsYIBXdgj/YRMq2VlmQrvhhLwIDAQABo4IB
qDCCAaQwHwYDVR0jBBgwFoAUKZFg/4pN+uv5pmq4z/nmS71JzhIwHQYDVR0OBBYE
FJOCCFGYzhKBQxTjKMhLNfU0/OMzMA4GA1UdDwEB/wQEAwIHgDAMBgNVHRMBAf8E
AjAAMBMGA1UdJQQMMAoGCCsGAQUFBwMDMBEGCWCGSAGG+EIBAQQEAwIEEDBGBgNV
HSAEPzA9MDsGDCsGAQQBsjEBAgEDAjArMCkGCCsGAQUFBwIBFh1odHRwczovL3Nl
Y3VyZS5jb21vZG8ubmV0L0NQUzBDBgNVHR8EPDA6MDigNqA0hjJodHRwOi8vY3Js
LmNvbW9kb2NhLmNvbS9DT01PRE9SU0FDb2RlU2lnbmluZ0NBLmNybDB0BggrBgEF
BQcBAQRoMGYwPgYIKwYBBQUHMAKGMmh0dHA6Ly9jcnQuY29tb2RvY2EuY29tL0NP
TU9ET1JTQUNvZGVTaWduaW5nQ0EuY3J0MCQGCCsGAQUFBzABhhhodHRwOi8vb2Nz
cC5jb21vZG9jYS5jb20wGQYDVR0RBBIwEIEOaW5mb0B4ZGlzYy5iaXowDQYJKoZI
hvcNAQELBQADggEBADrV6bi1yxuP+xfeuk5vMHc36+dGbV0SJh9P1eeY1e6WM6x0
NMNIw3NUZN5f0ZY6QsJqSx70ywK5Z+qck08JMUTwkJtBJ9OePkrIakOPbkK1KlnQ
47rZU0Lvcbaz+g6XC6mF1Ui5CFyt0H2C+2/fxAQNI41yADwB5lyZ7PyPfPEEZz8Q
mF0NyabZYbM9o3DNLeRSA8YL+37Tlagmfg/aOTwHQOuUYAu3FiTbpUTiNzNU0ALP
+Lzed5WlkM0Swd0eSfcLJ4lhBoZfqDoj6kraBOtgCRF6nI4YNDQ/nRrf5GkiRaC1
uDT1LRS5JC7FjNYpc9evA6s3x+2SR1EAG8xgETU=
-----END CERTIFICATE-----

Certificate:
    Data:
        Version: 3 (0x2)
        Serial Number:
            2e:7c:87:cc:0e:93:4a:52:fe:94:fd:1c:b7:cd:34:af
    Signature Algorithm: sha384WithRSAEncryption
        Issuer: C=GB, ST=Greater Manchester, L=Salford, O=COMODO CA Limited, CN=COMODO RSA Certification Authority
        Validity
            Not Before: May  9 00:00:00 2013 GMT
            Not After : May  8 23:59:59 2028 GMT
        Subject: C=GB, ST=Greater Manchester, L=Salford, O=COMODO CA Limited, CN=COMODO RSA Code Signing CA
        Subject Public Key Info:
            Public Key Algorithm: rsaEncryption
                Public-Key: (2048 bit)
                Modulus:
                    00:a6:98:90:63:77:91:34:7f:8a:d1:dd:e9:67:31:
                    11:eb:cc:1e:fd:31:1d:b3:b9:62:57:3f:93:bc:5b:
                    e3:9f:1e:24:32:11:27:6b:bc:51:91:a7:cf:9e:9e:
                    25:b3:5f:81:a8:18:0f:1d:1e:20:30:0e:fb:61:7b:
                    86:09:b3:e3:fd:a2:68:9d:1c:2c:9d:bf:72:e3:e4:
                    75:a0:e5:35:23:8e:c9:8a:ee:1a:0c:64:c7:d8:42:
                    a1:7b:b5:52:03:4b:3a:b0:8e:23:4b:4b:63:e0:22:
                    94:37:7b:d5:79:90:0a:14:18:51:2c:e6:fe:c1:12:
                    f0:1c:3f:61:61:0a:8c:a2:dc:f6:c3:30:aa:cd:28:
                    18:75:48:c1:79:5a:08:cd:bb:8c:55:8c:f7:d4:76:
                    90:3a:33:46:50:73:98:5c:f4:85:4a:6b:0f:80:dd:
                    5e:d6:bd:fd:a9:2f:c0:25:f5:f9:78:d7:8d:5f:10:
                    c2:44:55:3c:90:3c:31:46:cb:70:ae:07:a9:0a:e3:
                    af:c1:01:6f:90:1a:23:e2:5f:38:db:c6:08:5d:47:
                    b3:83:41:f0:2e:00:37:14:b9:12:aa:79:92:52:cd:
                    87:0f:7b:d8:62:29:a4:7e:30:bd:1b:b5:8c:72:b4:
                    48:f2:e3:e8:21:f9:5e:4c:62:79:8b:02:06:9f:7f:
                    d5:0b
                Exponent: 65537 (0x10001)
        X509v3 extensions:
            X509v3 Authority Key Identifier: 
                keyid:BB:AF:7E:02:3D:FA:A6:F1:3C:84:8E:AD:EE:38:98:EC:D9:32:32:D4

            X509v3 Subject Key Identifier: 
                29:91:60:FF:8A:4D:FA:EB:F9:A6:6A:B8:CF:F9:E6:4B:BD:49:CE:12
            X509v3 Key Usage: critical
                Digital Signature, Certificate Sign, CRL Sign
            X509v3 Basic Constraints: critical
                CA:TRUE, pathlen:0
            X509v3 Extended Key Usage: 
                Code Signing
            X509v3 Certificate Policies: 
                Policy: X509v3 Any Policy

            X509v3 CRL Distribution Points: 

                Full Name:
                  URI:http://crl.comodoca.com/COMODORSACertificationAuthority.crl

            Authority Information Access: 
                CA Issuers - URI:http://crt.comodoca.com/COMODORSAAddTrustCA.crt
                OCSP - URI:http://ocsp.comodoca.com

    Signature Algorithm: sha384WithRSAEncryption
         02:3f:02:39:c3:ee:f8:ca:3b:89:de:0c:6d:4d:b1:f1:4e:92:
         4f:af:c2:38:2c:04:cc:c5:63:11:ab:09:63:af:ab:a2:d7:02:
         3f:cc:6f:19:c3:3d:d6:1a:08:94:ff:25:d8:a9:88:a7:2b:10:
         1a:e0:9b:b1:07:22:1a:51:1c:3a:d4:e1:e9:09:bf:e6:24:74:
         af:1e:7b:16:31:6e:23:ef:54:51:2d:52:02:e2:75:08:05:4c:
         f1:b7:51:e1:51:00:c6:87:f6:6c:ee:10:44:76:57:6a:f1:df:
         58:6b:21:aa:49:d4:7c:37:4e:bd:ff:b6:75:54:40:18:36:57:
         67:11:cd:4f:02:e4:fe:f3:da:fc:75:17:db:ec:b7:f7:65:09:
         23:49:1f:43:57:83:ea:7e:20:77:61:c8:4d:f2:bb:65:4d:a8:
         f7:85:45:07:af:7a:69:27:65:90:29:40:8b:df:7b:3a:51:39:
         8c:a8:1f:70:79:ad:6d:42:20:a2:cf:0c:6c:03:8c:4c:cd:73:
         07:94:e7:5a:8e:3a:04:ba:a2:a1:7c:1f:cb:63:3a:15:a7:d4:
         15:1b:a7:52:47:32:a9:f4:bf:64:47:d1:aa:1f:53:4e:32:30:
         73:c2:6f:b7:78:82:9d:5c:ff:46:bb:6b:22:1d:88:0b:f8:1b:
         aa:34:a6:fc:8c:f5:dd:7f:65:8c:8c:31:57:31:d0:36:ec:47:
         a1:cf:cb:8b:a8:ef:1c:18:58:c5:06:77:ca:4b:9b:51:af:4c:
         08:4a:7a:8f:e2:a3:52:e2:8e:8e:cc:26:e4:b2:d8:e5:38:c2:
         a8:ed:c6:81:9c:35:6b:a9:58:61:4a:0a:97:b4:4b:42:b6:55:
         9d:be:99:e7:70:6d:59:f8:6d:2a:0c:7f:19:60:5f:0c:9a:88:
         6c:30:ac:52:09:90:16:1b:ff:2b:9d:db:d0:20:ca:89:ea:28:
         7e:32:8e:19:df:7b:48:33:1e:d7:65:f8:ae:c9:f8:83:14:93:
         76:7d:64:d0:8e:ce:be:35:7d:ff:72:31:4d:9f:9e:bd:1e:6c:
         2f:a8:8f:0c:06:50:fb:8c:27:b3:76:c9:f4:e6:d7:c3:34:e2:
         8c:87:21:86:61:fe:bf:55:74:e1:21:77:03:0a:68:6c:bb:e4:
         c9:a9:e6:cf:59:25:eb:7c:ec:45:0e:79:66:68:e8:22:cd:b8:
         ef:98:85:4d:96:11:3c:09:8a:d0:7f:bc:28:28:13:fb:6a:ca:
         54:8d:92:5c:cd:c2:65:98:06:9e:ce:48:5b:d4:b5:37:93:46:
         41:7c:07:dd:cf:fa:43:ef:ba:67:61:ff:7d:49:e0:bb:30:7d:
         5c:80:e3:e6:16:39:4b:a7
-----BEGIN CERTIFICATE-----
MIIF4DCCA8igAwIBAgIQLnyHzA6TSlL+lP0ct800rzANBgkqhkiG9w0BAQwFADCB
hTELMAkGA1UEBhMCR0IxGzAZBgNVBAgTEkdyZWF0ZXIgTWFuY2hlc3RlcjEQMA4G
A1UEBxMHU2FsZm9yZDEaMBgGA1UEChMRQ09NT0RPIENBIExpbWl0ZWQxKzApBgNV
BAMTIkNPTU9ETyBSU0EgQ2VydGlmaWNhdGlvbiBBdXRob3JpdHkwHhcNMTMwNTA5
MDAwMDAwWhcNMjgwNTA4MjM1OTU5WjB9MQswCQYDVQQGEwJHQjEbMBkGA1UECBMS
R3JlYXRlciBNYW5jaGVzdGVyMRAwDgYDVQQHEwdTYWxmb3JkMRowGAYDVQQKExFD
T01PRE8gQ0EgTGltaXRlZDEjMCEGA1UEAxMaQ09NT0RPIFJTQSBDb2RlIFNpZ25p
bmcgQ0EwggEiMA0GCSqGSIb3DQEBAQUAA4IBDwAwggEKAoIBAQCmmJBjd5E0f4rR
3elnMRHrzB79MR2zuWJXP5O8W+OfHiQyESdrvFGRp8+eniWzX4GoGA8dHiAwDvth
e4YJs+P9omidHCydv3Lj5HWg5TUjjsmK7hoMZMfYQqF7tVIDSzqwjiNLS2PgIpQ3
e9V5kAoUGFEs5v7BEvAcP2FhCoyi3PbDMKrNKBh1SMF5WgjNu4xVjPfUdpA6M0ZQ
c5hc9IVKaw+A3V7Wvf2pL8Al9fl4141fEMJEVTyQPDFGy3CuB6kK46/BAW+QGiPi
XzjbxghdR7ODQfAuADcUuRKqeZJSzYcPe9hiKaR+ML0btYxytEjy4+gh+V5MYnmL
Agaff9ULAgMBAAGjggFRMIIBTTAfBgNVHSMEGDAWgBS7r34CPfqm8TyEjq3uOJjs
2TIy1DAdBgNVHQ4EFgQUKZFg/4pN+uv5pmq4z/nmS71JzhIwDgYDVR0PAQH/BAQD
AgGGMBIGA1UdEwEB/wQIMAYBAf8CAQAwEwYDVR0lBAwwCgYIKwYBBQUHAwMwEQYD
VR0gBAowCDAGBgRVHSAAMEwGA1UdHwRFMEMwQaA/oD2GO2h0dHA6Ly9jcmwuY29t
b2RvY2EuY29tL0NPTU9ET1JTQUNlcnRpZmljYXRpb25BdXRob3JpdHkuY3JsMHEG
CCsGAQUFBwEBBGUwYzA7BggrBgEFBQcwAoYvaHR0cDovL2NydC5jb21vZG9jYS5j
b20vQ09NT0RPUlNBQWRkVHJ1c3RDQS5jcnQwJAYIKwYBBQUHMAGGGGh0dHA6Ly9v
Y3NwLmNvbW9kb2NhLmNvbTANBgkqhkiG9w0BAQwFAAOCAgEAAj8COcPu+Mo7id4M
bU2x8U6ST6/COCwEzMVjEasJY6+rotcCP8xvGcM91hoIlP8l2KmIpysQGuCbsQci
GlEcOtTh6Qm/5iR0rx57FjFuI+9UUS1SAuJ1CAVM8bdR4VEAxof2bO4QRHZXavHf
WGshqknUfDdOvf+2dVRAGDZXZxHNTwLk/vPa/HUX2+y392UJI0kfQ1eD6n4gd2HI
TfK7ZU2o94VFB696aSdlkClAi997OlE5jKgfcHmtbUIgos8MbAOMTM1zB5TnWo46
BLqioXwfy2M6FafUFRunUkcyqfS/ZEfRqh9TTjIwc8Jvt3iCnVz/RrtrIh2IC/gb
qjSm/Iz13X9ljIwxVzHQNuxHoc/Li6jvHBhYxQZ3ykubUa9MCEp6j+KjUuKOjswm
5LLY5TjCqO3GgZw1a6lYYUoKl7RLQrZVnb6Z53BtWfhtKgx/GWBfDJqIbDCsUgmQ
Fhv/K53b0CDKieoofjKOGd97SDMe12X4rsn4gxSTdn1k0I7OvjV9/3IxTZ+evR5s
L6iPDAZQ+4wns3bJ9ObXwzTijIchhmH+v1V04SF3AwpobLvkyanmz1kl63zsRQ55
ZmjoIs2475iFTZYRPAmK0H+8KCgT+2rKVI2SXM3CZZgGns5IW9S1N5NGQXwH3c/6
Q++6Z2H/fUnguzB9XIDj5hY5S6c=
-----END CERTIFICATE-----

