Certificate:
    Data:
        Version: 1 (0x0)
        Serial Number:
            3c:91:31:cb:1f:f6:d0:1b:0e:9a:b8:d0:44:bf:12:be
    Signature Algorithm: sha1WithRSAEncryption
        Issuer: C=US, O=VeriSign, Inc., OU=Class 3 Public Primary Certification Authority
        Validity
            Not Before: Jan 29 00:00:00 1996 GMT
            Not After : Aug  2 23:59:59 2028 GMT
        Subject: C=US, O=VeriSign, Inc., OU=Class 3 Public Primary Certification Authority
        Subject Public Key Info:
            Public Key Algorithm: rsaEncryption
                Public-Key: (1024 bit)
                Modulus:
                    00:c9:5c:59:9e:f2:1b:8a:01:14:b4:10:df:04:40:
                    db:e3:57:af:6a:45:40:8f:84:0c:0b:d1:33:d9:d9:
                    11:cf:ee:02:58:1f:25:f7:2a:a8:44:05:aa:ec:03:
                    1f:78:7f:9e:93:b9:9a:00:aa:23:7d:d6:ac:85:a2:
                    63:45:c7:72:27:cc:f4:4c:c6:75:71:d2:39:ef:4f:
                    42:f0:75:df:0a:90:c6:8e:20:6f:98:0f:f8:ac:23:
                    5f:70:29:36:a4:c9:86:e7:b1:9a:20:cb:53:a5:85:
                    e7:3d:be:7d:9a:fe:24:45:33:dc:76:15:ed:0f:a2:
                    71:64:4c:65:2e:81:68:45:a7
                Exponent: 65537 (0x10001)
    Signature Algorithm: sha1WithRSAEncryption
         10:72:52:a9:05:14:19:32:08:41:f0:c5:6b:0a:cc:7e:0f:21:
         19:cd:e4:67:dc:5f:a9:1b:e6:ca:e8:73:9d:22:d8:98:6e:73:
         03:61:91:c5:7c:b0:45:40:6e:44:9d:8d:b0:b1:96:74:61:2d:
         0d:a9:45:d2:a4:92:2a:d6:9a:75:97:6e:3f:53:fd:45:99:60:
         1d:a8:2b:4c:f9:5e:a7:09:d8:75:30:d7:d2:65:60:3d:67:d6:
         48:55:75:69:3f:91:f5:48:0b:47:69:22:69:82:96:be:c9:c8:
         38:86:4a:7a:2c:73:19:48:69:4e:6b:7c:65:bf:0f:fc:70:ce:
         88:90
-----BEGIN CERTIFICATE-----
MIICPDCCAaUCEDyRMcsf9tAbDpq40ES/Er4wDQYJKoZIhvcNAQEFBQAwXzELMAkG
A1UEBhMCVVMxFzAVBgNVBAoTDlZlcmlTaWduLCBJbmMuMTcwNQYDVQQLEy5DbGFz
cyAzIFB1YmxpYyBQcmltYXJ5IENlcnRpZmljYXRpb24gQXV0aG9yaXR5MB4XDTk2
MDEyOTAwMDAwMFoXDTI4MDgwMjIzNTk1OVowXzELMAkGA1UEBhMCVVMxFzAVBgNV
BAoTDlZlcmlTaWduLCBJbmMuMTcwNQYDVQQLEy5DbGFzcyAzIFB1YmxpYyBQcmlt
YXJ5IENlcnRpZmljYXRpb24gQXV0aG9yaXR5MIGfMA0GCSqGSIb3DQEBAQUAA4GN
ADCBiQKBgQDJXFme8huKARS0EN8EQNvjV69qRUCPhAwL0TPZ2RHP7gJYHyX3KqhE
BarsAx94f56TuZoAqiN91qyFomNFx3InzPRMxnVx0jnvT0Lwdd8KkMaOIG+YD/is
I19wKTakyYbnsZogy1Olhec9vn2a/iRFM9x2Fe0PonFkTGUugWhFpwIDAQABMA0G
CSqGSIb3DQEBBQUAA4GBABByUqkFFBkyCEHwxWsKzH4PIRnN5GfcX6kb5sroc50i
2JhucwNhkcV8sEVAbkSdjbCxlnRhLQ2pRdKkkirWmnWXbj9T/UWZYB2oK0z5XqcJ
2HUw19JlYD1n1khVdWk/kfVIC0dpImmClr7JyDiGSnoscxlIaU5rfGW/D/xwzoiQ
-----END CERTIFICATE-----

Certificate:
    Data:
        Version: 3 (0x2)
        Serial Number:
            38:25:d7:fa:f8:61:af:9e:f4:90:e7:26:b5:d6:5a:d5
    Signature Algorithm: sha1WithRSAEncryption
        Issuer: C=US, O=VeriSign, Inc., CN=VeriSign Time Stamping Services CA
        Validity
            Not Before: Jun 15 00:00:00 2007 GMT
            Not After : Jun 14 23:59:59 2012 GMT
        Subject: C=US, O=VeriSign, Inc., CN=VeriSign Time Stamping Services Signer - G2
        Subject Public Key Info:
            Public Key Algorithm: rsaEncryption
                Public-Key: (1024 bit)
                Modulus:
                    00:c4:b5:f2:52:15:bc:88:86:60:29:16:4a:5b:2f:
                    4b:91:6b:87:91:f3:35:54:58:35:ea:d1:36:5e:62:
                    4d:52:51:34:71:c2:7b:66:1d:89:c8:dd:2a:c4:6a:
                    0a:f6:37:d9:98:74:91:f6:92:ae:b0:b5:76:96:f1:
                    a9:4a:63:45:47:2e:6b:0b:92:4e:4b:2b:8c:ee:58:
                    4a:8b:d4:07:e4:1a:2c:f8:82:aa:58:d9:cd:42:f3:
                    2d:c0:75:de:8d:ab:c7:8e:1d:9a:6c:4c:08:95:1e:
                    de:db:ef:67:e1:72:c2:49:c2:9e:60:3c:e1:e2:be:
                    16:a3:63:78:69:14:7b:ad:2d
                Exponent: 65537 (0x10001)
        X509v3 extensions:
            Authority Information Access: 
                OCSP - URI:http://ocsp.verisign.com

            X509v3 Basic Constraints: critical
                CA:FALSE
            X509v3 CRL Distribution Points: 

                Full Name:
                  URI:http://crl.verisign.com/tss-ca.crl

            X509v3 Extended Key Usage: critical
                Time Stamping
            X509v3 Key Usage: critical
                Digital Signature, Non Repudiation
            X509v3 Subject Alternative Name: 
                DirName:/CN=TSA1-2
    Signature Algorithm: sha1WithRSAEncryption
         50:c5:4b:c8:24:80:df:e4:0d:24:c2:de:1a:b1:a1:02:a1:a6:
         82:2d:0c:83:15:81:37:0a:82:0e:2c:b0:5a:17:61:b5:d8:05:
         fe:88:db:f1:91:91:b3:56:1a:40:a6:eb:92:be:38:39:b0:75:
         36:74:3a:98:4f:e4:37:ba:99:89:ca:95:42:1d:b0:b9:c7:a0:
         8d:57:e0:fa:d5:64:04:42:35:4e:01:d1:33:a2:17:c8:4d:aa:
         27:c7:f2:e1:86:4c:02:38:4d:83:78:c6:fc:53:e0:eb:e0:06:
         87:dd:a4:96:9e:5e:0c:98:e2:a5:be:bf:82:85:c3:60:e1:df:
         ad:28:d8:c7:a5:4b:64:da:c7:1b:5b:bd:ac:39:08:d5:38:22:
         a1:33:8b:2f:8a:9a:eb:bc:07:21:3f:44:41:09:07:b5:65:1c:
         24:bc:48:d3:44:80:eb:a1:cf:c9:02:b4:14:cf:54:c7:16:a3:
         80:5c:f9:79:3e:5d:72:7d:88:17:9e:2c:43:a2:ca:53:ce:7d:
         3d:f6:2a:3a:b8:4f:94:00:a5:6d:0a:83:5d:f9:5e:53:f4:18:
         b3:57:0f:70:c3:fb:f5:ad:95:a0:0e:17:de:c4:16:80:60:c9:
         0f:2b:6e:86:04:f1:eb:f4:78:27:d1:05:c5:ee:34:5b:5e:b9:
         49:32:f2:33
-----BEGIN CERTIFICATE-----
MIIDejCCAmKgAwIBAgIQOCXX+vhhr570kOcmtdZa1TANBgkqhkiG9w0BAQUFADBT
MQswCQYDVQQGEwJVUzEXMBUGA1UEChMOVmVyaVNpZ24sIEluYy4xKzApBgNVBAMT
IlZlcmlTaWduIFRpbWUgU3RhbXBpbmcgU2VydmljZXMgQ0EwHhcNMDcwNjE1MDAw
MDAwWhcNMTIwNjE0MjM1OTU5WjBcMQswCQYDVQQGEwJVUzEXMBUGA1UEChMOVmVy
aVNpZ24sIEluYy4xNDAyBgNVBAMTK1ZlcmlTaWduIFRpbWUgU3RhbXBpbmcgU2Vy
dmljZXMgU2lnbmVyIC0gRzIwgZ8wDQYJKoZIhvcNAQEBBQADgY0AMIGJAoGBAMS1
8lIVvIiGYCkWSlsvS5Frh5HzNVRYNerRNl5iTVJRNHHCe2YdicjdKsRqCvY32Zh0
kfaSrrC1dpbxqUpjRUcuawuSTksrjO5YSovUB+QaLPiCqljZzULzLcB13o2rx44d
mmxMCJUe3tvvZ+FywknCnmA84eK+FqNjeGkUe60tAgMBAAGjgcQwgcEwNAYIKwYB
BQUHAQEEKDAmMCQGCCsGAQUFBzABhhhodHRwOi8vb2NzcC52ZXJpc2lnbi5jb20w
DAYDVR0TAQH/BAIwADAzBgNVHR8ELDAqMCigJqAkhiJodHRwOi8vY3JsLnZlcmlz
aWduLmNvbS90c3MtY2EuY3JsMBYGA1UdJQEB/wQMMAoGCCsGAQUFBwMIMA4GA1Ud
DwEB/wQEAwIGwDAeBgNVHREEFzAVpBMwETEPMA0GA1UEAxMGVFNBMS0yMA0GCSqG
SIb3DQEBBQUAA4IBAQBQxUvIJIDf5A0kwt4asaECoaaCLQyDFYE3CoIOLLBaF2G1
2AX+iNvxkZGzVhpApuuSvjg5sHU2dDqYT+Q3upmJypVCHbC5x6CNV+D61WQEQjVO
AdEzohfITaonx/LhhkwCOE2DeMb8U+Dr4AaH3aSWnl4MmOKlvr+ChcNg4d+tKNjH
pUtk2scbW72sOQjVOCKhM4sviprrvAchP0RBCQe1ZRwkvEjTRIDroc/JArQUz1TH
FqOAXPl5Pl1yfYgXnixDospTzn099io6uE+UAKVtCoNd+V5T9BizVw9ww/v1rZWg
DhfexBaAYMkPK26GBPHr9Hgn0QXF7jRbXrlJMvIz
-----END CERTIFICATE-----

Certificate:
    Data:
        Version: 3 (0x2)
        Serial Number:
            47:bf:19:95:df:8d:52:46:43:f7:db:6d:48:0d:31:a4
    Signature Algorithm: sha1WithRSAEncryption
        Issuer: C=ZA, ST=Western Cape, L=Durbanville, O=Thawte, OU=Thawte Certification, CN=Thawte Timestamping CA
        Validity
            Not Before: Dec  4 00:00:00 2003 GMT
            Not After : Dec  3 23:59:59 2013 GMT
        Subject: C=US, O=VeriSign, Inc., CN=VeriSign Time Stamping Services CA
        Subject Public Key Info:
            Public Key Algorithm: rsaEncryption
                Public-Key: (2048 bit)
                Modulus:
                    00:a9:ca:b2:a4:cc:cd:20:af:0a:7d:89:ac:87:75:
                    f0:b4:4e:f1:df:c1:0f:bf:67:61:bd:a3:64:1c:da:
                    bb:f9:ca:33:ab:84:30:89:58:7e:8c:db:6b:dd:36:
                    9e:0f:bf:d1:ec:78:f2:77:a6:7e:6f:3c:bf:93:af:
                    0d:ba:68:f4:6c:94:ca:bd:52:2d:ab:48:3d:f5:b6:
                    d5:5d:5f:1b:02:9f:fa:2f:6b:1e:a4:f7:a3:9a:a6:
                    1a:c8:02:e1:7f:4c:52:e3:0e:60:ec:40:1c:7e:b9:
                    0d:de:3f:c7:b4:df:87:bd:5f:7a:6a:31:2e:03:99:
                    81:13:a8:47:20:ce:31:73:0d:57:2d:cd:78:34:33:
                    95:12:99:12:b9:de:68:2f:aa:e6:e3:c2:8a:8c:2a:
                    c3:8b:21:87:66:bd:83:58:57:6f:75:bf:3c:aa:26:
                    87:5d:ca:10:15:3c:9f:84:ea:54:c1:0a:6e:c4:fe:
                    c5:4a:dd:b9:07:11:97:22:7c:db:3e:27:d1:1e:78:
                    ec:9f:31:c9:f1:e6:22:19:db:c4:b3:47:43:9a:1a:
                    5f:a0:1e:90:e4:5e:f5:ee:7c:f1:7d:ab:62:01:8f:
                    f5:4d:0b:de:d0:22:56:a8:95:cd:ae:88:76:ae:ee:
                    ba:0d:f3:e4:4d:d9:a0:fb:68:a0:ae:14:3b:b3:87:
                    c1:bb
                Exponent: 65537 (0x10001)
        X509v3 extensions:
            Authority Information Access: 
                OCSP - URI:http://ocsp.verisign.com

            X509v3 Basic Constraints: critical
                CA:TRUE, pathlen:0
            X509v3 CRL Distribution Points: 

                Full Name:
                  URI:http://crl.verisign.com/ThawteTimestampingCA.crl

            X509v3 Extended Key Usage: 
                Time Stamping
            X509v3 Key Usage: critical
                Certificate Sign, CRL Sign
            X509v3 Subject Alternative Name: 
                DirName:/CN=TSA2048-1-53
    Signature Algorithm: sha1WithRSAEncryption
         4a:6b:f9:ea:58:c2:44:1c:31:89:79:99:2b:96:bf:82:ac:01:
         d6:1c:4c:cd:b0:8a:58:6e:df:08:29:a3:5e:c8:ca:93:13:e7:
         04:52:0d:ef:47:27:2f:00:38:b0:e4:c9:93:4e:9a:d4:22:62:
         15:f7:3f:37:21:4f:70:31:80:f1:8b:38:87:b3:e8:e8:97:00:
         fe:cf:55:96:4e:24:d2:a9:27:4e:7a:ae:b7:61:41:f3:2a:ce:
         e7:c9:d9:5e:dd:bb:2b:85:3e:b5:9d:b5:d9:e1:57:ff:be:b4:
         c5:7e:f5:cf:0c:9e:f0:97:fe:2b:d3:3b:52:1b:1b:38:27:f7:
         3f:4a
-----BEGIN CERTIFICATE-----
MIIDxDCCAy2gAwIBAgIQR78Zld+NUkZD99ttSA0xpDANBgkqhkiG9w0BAQUFADCB
izELMAkGA1UEBhMCWkExFTATBgNVBAgTDFdlc3Rlcm4gQ2FwZTEUMBIGA1UEBxML
RHVyYmFudmlsbGUxDzANBgNVBAoTBlRoYXd0ZTEdMBsGA1UECxMUVGhhd3RlIENl
cnRpZmljYXRpb24xHzAdBgNVBAMTFlRoYXd0ZSBUaW1lc3RhbXBpbmcgQ0EwHhcN
MDMxMjA0MDAwMDAwWhcNMTMxMjAzMjM1OTU5WjBTMQswCQYDVQQGEwJVUzEXMBUG
A1UEChMOVmVyaVNpZ24sIEluYy4xKzApBgNVBAMTIlZlcmlTaWduIFRpbWUgU3Rh
bXBpbmcgU2VydmljZXMgQ0EwggEiMA0GCSqGSIb3DQEBAQUAA4IBDwAwggEKAoIB
AQCpyrKkzM0grwp9iayHdfC0TvHfwQ+/Z2G9o2Qc2rv5yjOrhDCJWH6M22vdNp4P
v9HsePJ3pn5vPL+Trw26aPRslMq9Ui2rSD31ttVdXxsCn/ovax6k96OaphrIAuF/
TFLjDmDsQBx+uQ3eP8e034e9X3pqMS4DmYETqEcgzjFzDVctzXg0M5USmRK53mgv
qubjwoqMKsOLIYdmvYNYV291vzyqJoddyhAVPJ+E6lTBCm7E/sVK3bkHEZcifNs+
J9EeeOyfMcnx5iIZ28SzR0OaGl+gHpDkXvXufPF9q2IBj/VNC97QIlaolc2uiHau
7roN8+RN2aD7aKCuFDuzh8G7AgMBAAGjgdswgdgwNAYIKwYBBQUHAQEEKDAmMCQG
CCsGAQUFBzABhhhodHRwOi8vb2NzcC52ZXJpc2lnbi5jb20wEgYDVR0TAQH/BAgw
BgEB/wIBADBBBgNVHR8EOjA4MDagNKAyhjBodHRwOi8vY3JsLnZlcmlzaWduLmNv
bS9UaGF3dGVUaW1lc3RhbXBpbmdDQS5jcmwwEwYDVR0lBAwwCgYIKwYBBQUHAwgw
DgYDVR0PAQH/BAQDAgEGMCQGA1UdEQQdMBukGTAXMRUwEwYDVQQDEwxUU0EyMDQ4
LTEtNTMwDQYJKoZIhvcNAQEFBQADgYEASmv56ljCRBwxiXmZK5a/gqwB1hxMzbCK
WG7fCCmjXsjKkxPnBFIN70cnLwA4sOTJk06a1CJiFfc/NyFPcDGA8Ys4h7Po6JcA
/s9Vlk4k0qknTnqut2FB8yrO58nZXt27K4U+tZ212eFX/760xX71zwye8Jf+K9M7
UhsbOCf3P0o=
-----END CERTIFICATE-----

Certificate:
    Data:
        Version: 3 (0x2)
        Serial Number:
            25:0c:e8:e0:30:61:2e:9f:2b:89:f7:05:4d:7c:f8:fd
    Signature Algorithm: sha1WithRSAEncryption
        Issuer: C=US, O=VeriSign, Inc., OU=Class 3 Public Primary Certification Authority
        Validity
            Not Before: Nov  8 00:00:00 2006 GMT
            Not After : Nov  7 23:59:59 2021 GMT
        Subject: C=US, O=VeriSign, Inc., OU=VeriSign Trust Network, OU=(c) 2006 VeriSign, Inc. - For authorized use only, CN=VeriSign Class 3 Public Primary Certification Authority - G5
        Subject Public Key Info:
            Public Key Algorithm: rsaEncryption
                Public-Key: (2048 bit)
                Modulus:
                    00:af:24:08:08:29:7a:35:9e:60:0c:aa:e7:4b:3b:
                    4e:dc:7c:bc:3c:45:1c:bb:2b:e0:fe:29:02:f9:57:
                    08:a3:64:85:15:27:f5:f1:ad:c8:31:89:5d:22:e8:
                    2a:aa:a6:42:b3:8f:f8:b9:55:b7:b1:b7:4b:b3:fe:
                    8f:7e:07:57:ec:ef:43:db:66:62:15:61:cf:60:0d:
                    a4:d8:de:f8:e0:c3:62:08:3d:54:13:eb:49:ca:59:
                    54:85:26:e5:2b:8f:1b:9f:eb:f5:a1:91:c2:33:49:
                    d8:43:63:6a:52:4b:d2:8f:e8:70:51:4d:d1:89:69:
                    7b:c7:70:f6:b3:dc:12:74:db:7b:5d:4b:56:d3:96:
                    bf:15:77:a1:b0:f4:a2:25:f2:af:1c:92:67:18:e5:
                    f4:06:04:ef:90:b9:e4:00:e4:dd:3a:b5:19:ff:02:
                    ba:f4:3c:ee:e0:8b:eb:37:8b:ec:f4:d7:ac:f2:f6:
                    f0:3d:af:dd:75:91:33:19:1d:1c:40:cb:74:24:19:
                    21:93:d9:14:fe:ac:2a:52:c7:8f:d5:04:49:e4:8d:
                    63:47:88:3c:69:83:cb:fe:47:bd:2b:7e:4f:c5:95:
                    ae:0e:9d:d4:d1:43:c0:67:73:e3:14:08:7e:e5:3f:
                    9f:73:b8:33:0a:cf:5d:3f:34:87:96:8a:ee:53:e8:
                    25:15
                Exponent: 65537 (0x10001)
        X509v3 extensions:
            X509v3 Basic Constraints: critical
                CA:TRUE
            X509v3 CRL Distribution Points: 

                Full Name:
                  URI:http://crl.verisign.com/pca3.crl

            X509v3 Key Usage: critical
                Certificate Sign, CRL Sign
            X509v3 Certificate Policies: 
                Policy: X509v3 Any Policy
                  CPS: https://www.verisign.com/cps

            X509v3 Subject Key Identifier: 
                7F:D3:65:A7:C2:DD:EC:BB:F0:30:09:F3:43:39:FA:02:AF:33:31:33
            1.3.6.1.5.5.7.1.12: 
                0_.].[0Y0W0U..image/gif0!0.0...+..............k...j.H.,{..0%.#http://logo.verisign.com/vslogo.gif
            Authority Information Access: 
                OCSP - URI:http://ocsp.verisign.com

            X509v3 Extended Key Usage: 
                TLS Web Server Authentication, TLS Web Client Authentication, Code Signing, Netscape Server Gated Crypto, 2.16.840.1.113733.1.8.1
    Signature Algorithm: sha1WithRSAEncryption
         13:02:dd:f8:e8:86:00:f2:5a:f8:f8:20:0c:59:88:62:07:ce:
         ce:f7:4e:f9:bb:59:a1:98:e5:e1:38:dd:4e:bc:66:18:d3:ad:
         eb:18:f2:0d:c9:6d:3e:4a:94:20:c3:3c:ba:bd:65:54:c6:af:
         44:b3:10:ad:2c:6b:3e:ab:d7:07:b6:b8:81:63:c5:f9:5e:2e:
         e5:2a:67:ce:cd:33:0c:2a:d7:89:56:03:23:1f:b3:be:e8:3a:
         08:59:b4:ec:45:35:f7:8a:5b:ff:66:cf:50:af:c6:6d:57:8d:
         19:78:b7:b9:a2:d1:57:ea:1f:9a:4b:af:ba:c9:8e:12:7e:c6:
         bd:ff
-----BEGIN CERTIFICATE-----
MIIE0DCCBDmgAwIBAgIQJQzo4DBhLp8rifcFTXz4/TANBgkqhkiG9w0BAQUFADBf
MQswCQYDVQQGEwJVUzEXMBUGA1UEChMOVmVyaVNpZ24sIEluYy4xNzA1BgNVBAsT
LkNsYXNzIDMgUHVibGljIFByaW1hcnkgQ2VydGlmaWNhdGlvbiBBdXRob3JpdHkw
HhcNMDYxMTA4MDAwMDAwWhcNMjExMTA3MjM1OTU5WjCByjELMAkGA1UEBhMCVVMx
FzAVBgNVBAoTDlZlcmlTaWduLCBJbmMuMR8wHQYDVQQLExZWZXJpU2lnbiBUcnVz
dCBOZXR3b3JrMTowOAYDVQQLEzEoYykgMjAwNiBWZXJpU2lnbiwgSW5jLiAtIEZv
ciBhdXRob3JpemVkIHVzZSBvbmx5MUUwQwYDVQQDEzxWZXJpU2lnbiBDbGFzcyAz
IFB1YmxpYyBQcmltYXJ5IENlcnRpZmljYXRpb24gQXV0aG9yaXR5IC0gRzUwggEi
MA0GCSqGSIb3DQEBAQUAA4IBDwAwggEKAoIBAQCvJAgIKXo1nmAMqudLO07cfLw8
RRy7K+D+KQL5VwijZIUVJ/XxrcgxiV0i6CqqpkKzj/i5Vbext0uz/o9+B1fs70Pb
ZmIVYc9gDaTY3vjgw2IIPVQT60nKWVSFJuUrjxuf6/WhkcIzSdhDY2pSS9KP6HBR
TdGJaXvHcPaz3BJ023tdS1bTlr8Vd6Gw9KIl8q8ckmcY5fQGBO+QueQA5N06tRn/
Arr0PO7gi+s3i+z016zy9vA9r911kTMZHRxAy3QkGSGT2RT+rCpSx4/VBEnkjWNH
iDxpg8v+R70rfk/Fla4OndTRQ8Bnc+MUCH7lP59zuDMKz10/NIeWiu5T6CUVAgMB
AAGjggGbMIIBlzAPBgNVHRMBAf8EBTADAQH/MDEGA1UdHwQqMCgwJqAkoCKGIGh0
dHA6Ly9jcmwudmVyaXNpZ24uY29tL3BjYTMuY3JsMA4GA1UdDwEB/wQEAwIBBjA9
BgNVHSAENjA0MDIGBFUdIAAwKjAoBggrBgEFBQcCARYcaHR0cHM6Ly93d3cudmVy
aXNpZ24uY29tL2NwczAdBgNVHQ4EFgQUf9Nlp8Ld7LvwMAnzQzn6Aq8zMTMwbQYI
KwYBBQUHAQwEYTBfoV2gWzBZMFcwVRYJaW1hZ2UvZ2lmMCEwHzAHBgUrDgMCGgQU
j+XTGoasjY5rw8+AatRIGCx7GS4wJRYjaHR0cDovL2xvZ28udmVyaXNpZ24uY29t
L3ZzbG9nby5naWYwNAYIKwYBBQUHAQEEKDAmMCQGCCsGAQUFBzABhhhodHRwOi8v
b2NzcC52ZXJpc2lnbi5jb20wPgYDVR0lBDcwNQYIKwYBBQUHAwEGCCsGAQUFBwMC
BggrBgEFBQcDAwYJYIZIAYb4QgQBBgpghkgBhvhFAQgBMA0GCSqGSIb3DQEBBQUA
A4GBABMC3fjohgDyWvj4IAxZiGIHzs73Tvm7WaGY5eE43U68ZhjTresY8g3JbT5K
lCDDPLq9ZVTGr0SzEK0saz6r1we2uIFjxfleLuUqZ87NMwwq14lWAyMfs77oOghZ
tOxFNfeKW/9mz1Cvxm1XjRl4t7mi0VfqH5pLr7rJjhJ+xr3/
-----END CERTIFICATE-----

Certificate:
    Data:
        Version: 3 (0x2)
        Serial Number:
            4e:e7:f3:3f:2d:15:bb:7f:81:9e:0c:27:70:12:75:78
    Signature Algorithm: sha1WithRSAEncryption
        Issuer: C=US, O=VeriSign, Inc., OU=VeriSign Trust Network, OU=Terms of use at https://www.verisign.com/rpa (c)10, CN=VeriSign Class 3 Code Signing 2010 CA
        Validity
            Not Before: Mar 22 00:00:00 2011 GMT
            Not After : Apr 20 23:59:59 2012 GMT
        Subject: C=KR, ST=Seoul, L=Yongsan-gu, O=Knowhow Information & Communication Inc, OU=Digital ID Class 3 - Microsoft Software Validation v2, CN=Knowhow Information & Communication Inc
        Subject Public Key Info:
            Public Key Algorithm: rsaEncryption
                Public-Key: (2048 bit)
                Modulus:
                    00:b7:ed:a8:b3:02:16:b5:80:36:ea:ea:65:40:14:
                    af:f2:a4:90:90:9f:b4:c3:eb:8c:13:e7:fd:f5:41:
                    c8:d6:b9:c5:a7:6c:7b:88:34:e7:19:d9:a1:f9:e8:
                    5c:86:e0:96:f1:36:13:69:10:3b:cd:b4:8d:f6:3d:
                    22:24:18:1c:2a:93:32:61:e2:7f:1f:15:cd:f0:66:
                    52:71:03:74:97:20:7f:53:37:74:cd:3f:e4:16:10:
                    1c:3a:4f:35:49:83:42:63:fd:5f:02:9b:e6:30:5c:
                    e9:36:ae:fa:ff:a6:c7:e6:dd:56:51:2a:37:82:2e:
                    bd:26:ab:4c:76:d2:ee:27:6e:29:cd:51:10:bf:3f:
                    59:f6:a9:75:19:65:8e:dc:53:08:3f:26:de:56:76:
                    38:eb:eb:12:2b:9a:c5:95:8b:21:6e:9e:60:50:89:
                    47:56:89:2d:0c:76:68:dc:5a:77:25:6e:6c:e2:a0:
                    40:39:b2:04:98:d4:47:3e:90:21:29:4e:0e:e1:32:
                    27:2e:22:39:be:63:60:ab:76:7a:af:74:22:8f:a3:
                    62:a0:66:6d:cd:10:75:58:6c:7b:f0:00:9d:bd:a2:
                    b1:3c:6b:a7:40:bf:3a:23:9b:27:9f:82:5a:83:d1:
                    bd:42:f6:d0:00:44:57:ed:d6:35:74:81:cd:8f:e1:
                    f1:29
                Exponent: 65537 (0x10001)
        X509v3 extensions:
            X509v3 Basic Constraints: 
                CA:FALSE
            X509v3 Key Usage: critical
                Digital Signature
            X509v3 CRL Distribution Points: 

                Full Name:
                  URI:http://csc3-2010-crl.verisign.com/CSC3-2010.crl

            X509v3 Certificate Policies: 
                Policy: 2.16.840.1.113733.1.7.23.3
                  CPS: https://www.verisign.com/rpa

            X509v3 Extended Key Usage: 
                Code Signing
            Authority Information Access: 
                OCSP - URI:http://ocsp.verisign.com
                CA Issuers - URI:http://csc3-2010-aia.verisign.com/CSC3-2010.cer

            X509v3 Authority Key Identifier: 
                keyid:CF:99:A9:EA:7B:26:F4:4B:C9:8E:8F:D7:F0:05:26:EF:E3:D2:A7:9D

            Netscape Cert Type: 
                Object Signing
            1.3.6.1.4.1.311.2.1.27: 
                0.......
    Signature Algorithm: sha1WithRSAEncryption
         08:84:a9:03:9d:88:17:70:cd:2e:53:3a:0b:f5:3f:d3:12:80:
         a8:aa:eb:84:34:24:c3:56:49:b7:c1:35:78:81:b9:8e:85:dd:
         26:23:3f:3d:4d:fe:bf:cd:2b:d1:9c:c3:fc:6b:85:c0:6d:4a:
         d7:f2:52:d4:d1:c4:c7:0a:ae:14:07:6c:e3:37:64:b6:99:29:
         57:0f:ac:43:d6:0d:c5:51:7d:06:3c:9d:c2:dc:d6:bc:2d:d2:
         38:48:d5:9a:ef:dc:5c:e5:c3:51:e0:8f:e7:d9:fe:98:bc:17:
         7d:b9:32:41:4e:97:d3:f6:c4:d8:6b:01:0a:66:dc:32:60:76:
         e0:74:8f:04:f1:1d:2c:d0:8e:3a:4f:3b:92:5e:4a:d3:cd:55:
         65:8c:5b:64:2e:5a:57:b7:4f:a8:a5:db:3c:7b:d0:bd:e8:c8:
         d4:0e:5d:98:9b:ff:d8:63:1d:58:10:bf:6a:a2:75:85:71:85:
         e5:14:d0:d4:a1:f4:a8:af:58:49:12:39:31:19:b5:8b:78:e5:
         a3:7a:04:68:3b:ce:a6:1f:5a:c7:f9:94:a6:0d:44:2b:c1:81:
         f9:de:82:4e:12:13:c9:da:56:c3:7c:cf:77:9b:65:4a:da:ab:
         1d:95:69:0a:70:c8:0e:7b:63:ee:ec:99:25:fb:68:eb:81:d0:
         9e:04:41:18
-----BEGIN CERTIFICATE-----
MIIFkzCCBHugAwIBAgIQTufzPy0Vu3+BngwncBJ1eDANBgkqhkiG9w0BAQUFADCB
tDELMAkGA1UEBhMCVVMxFzAVBgNVBAoTDlZlcmlTaWduLCBJbmMuMR8wHQYDVQQL
ExZWZXJpU2lnbiBUcnVzdCBOZXR3b3JrMTswOQYDVQQLEzJUZXJtcyBvZiB1c2Ug
YXQgaHR0cHM6Ly93d3cudmVyaXNpZ24uY29tL3JwYSAoYykxMDEuMCwGA1UEAxMl
VmVyaVNpZ24gQ2xhc3MgMyBDb2RlIFNpZ25pbmcgMjAxMCBDQTAeFw0xMTAzMjIw
MDAwMDBaFw0xMjA0MjAyMzU5NTlaMIHWMQswCQYDVQQGEwJLUjEOMAwGA1UECBMF
U2VvdWwxEzARBgNVBAcTCllvbmdzYW4tZ3UxMDAuBgNVBAoUJ0tub3dob3cgSW5m
b3JtYXRpb24gJiBDb21tdW5pY2F0aW9uIEluYzE+MDwGA1UECxM1RGlnaXRhbCBJ
RCBDbGFzcyAzIC0gTWljcm9zb2Z0IFNvZnR3YXJlIFZhbGlkYXRpb24gdjIxMDAu
BgNVBAMUJ0tub3dob3cgSW5mb3JtYXRpb24gJiBDb21tdW5pY2F0aW9uIEluYzCC
ASIwDQYJKoZIhvcNAQEBBQADggEPADCCAQoCggEBALftqLMCFrWANurqZUAUr/Kk
kJCftMPrjBPn/fVByNa5xadse4g05xnZofnoXIbglvE2E2kQO820jfY9IiQYHCqT
MmHifx8VzfBmUnEDdJcgf1M3dM0/5BYQHDpPNUmDQmP9XwKb5jBc6Tau+v+mx+bd
VlEqN4IuvSarTHbS7iduKc1REL8/WfapdRlljtxTCD8m3lZ2OOvrEiuaxZWLIW6e
YFCJR1aJLQx2aNxadyVubOKgQDmyBJjURz6QISlODuEyJy4iOb5jYKt2eq90Io+j
YqBmbc0QdVhse/AAnb2isTxrp0C/OiObJ5+CWoPRvUL20ABEV+3WNXSBzY/h8SkC
AwEAAaOCAXswggF3MAkGA1UdEwQCMAAwDgYDVR0PAQH/BAQDAgeAMEAGA1UdHwQ5
MDcwNaAzoDGGL2h0dHA6Ly9jc2MzLTIwMTAtY3JsLnZlcmlzaWduLmNvbS9DU0Mz
LTIwMTAuY3JsMEQGA1UdIAQ9MDswOQYLYIZIAYb4RQEHFwMwKjAoBggrBgEFBQcC
ARYcaHR0cHM6Ly93d3cudmVyaXNpZ24uY29tL3JwYTATBgNVHSUEDDAKBggrBgEF
BQcDAzBxBggrBgEFBQcBAQRlMGMwJAYIKwYBBQUHMAGGGGh0dHA6Ly9vY3NwLnZl
cmlzaWduLmNvbTA7BggrBgEFBQcwAoYvaHR0cDovL2NzYzMtMjAxMC1haWEudmVy
aXNpZ24uY29tL0NTQzMtMjAxMC5jZXIwHwYDVR0jBBgwFoAUz5mp6nsm9EvJjo/X
8AUm7+PSp50wEQYJYIZIAYb4QgEBBAQDAgQQMBYGCisGAQQBgjcCARsECDAGAQEA
AQH/MA0GCSqGSIb3DQEBBQUAA4IBAQAIhKkDnYgXcM0uUzoL9T/TEoCoquuENCTD
Vkm3wTV4gbmOhd0mIz89Tf6/zSvRnMP8a4XAbUrX8lLU0cTHCq4UB2zjN2S2mSlX
D6xD1g3FUX0GPJ3C3Na8LdI4SNWa79xc5cNR4I/n2f6YvBd9uTJBTpfT9sTYawEK
ZtwyYHbgdI8E8R0s0I46TzuSXkrTzVVljFtkLlpXt0+opds8e9C96MjUDl2Ym//Y
Yx1YEL9qonWFcYXlFNDUofSor1hJEjkxGbWLeOWjegRoO86mH1rH+ZSmDUQrwYH5
3oJOEhPJ2lbDfM93m2VK2qsdlWkKcMgOe2Pu7Jkl+2jrgdCeBEEY
-----END CERTIFICATE-----

Certificate:
    Data:
        Version: 3 (0x2)
        Serial Number:
            52:00:e5:aa:25:56:fc:1a:86:ed:96:c9:d4:4b:33:c7
    Signature Algorithm: sha1WithRSAEncryption
        Issuer: C=US, O=VeriSign, Inc., OU=VeriSign Trust Network, OU=(c) 2006 VeriSign, Inc. - For authorized use only, CN=VeriSign Class 3 Public Primary Certification Authority - G5
        Validity
            Not Before: Feb  8 00:00:00 2010 GMT
            Not After : Feb  7 23:59:59 2020 GMT
        Subject: C=US, O=VeriSign, Inc., OU=VeriSign Trust Network, OU=Terms of use at https://www.verisign.com/rpa (c)10, CN=VeriSign Class 3 Code Signing 2010 CA
        Subject Public Key Info:
            Public Key Algorithm: rsaEncryption
                Public-Key: (2048 bit)
                Modulus:
                    00:f5:23:4b:5e:a5:d7:8a:bb:32:e9:d4:57:f7:ef:
                    e4:c7:26:7e:ad:19:98:fe:a8:9d:7d:94:f6:36:6b:
                    10:d7:75:81:30:7f:04:68:7f:cb:2b:75:1e:cd:1d:
                    08:8c:df:69:94:a7:37:a3:9c:7b:80:e0:99:e1:ee:
                    37:4d:5f:ce:3b:14:ee:86:d4:d0:f5:27:35:bc:25:
                    0b:38:a7:8c:63:9d:17:a3:08:a5:ab:b0:fb:cd:6a:
                    62:82:4c:d5:21:da:1b:d9:f1:e3:84:3b:8a:2a:4f:
                    85:5b:90:01:4f:c9:a7:76:10:7f:27:03:7c:be:ae:
                    7e:7d:c1:dd:f9:05:bc:1b:48:9c:69:e7:c0:a4:3c:
                    3c:41:00:3e:df:96:e5:c5:e4:94:71:d6:55:01:c7:
                    00:26:4a:40:3c:b5:a1:26:a9:0c:a7:6d:80:8e:90:
                    25:7b:cf:bf:3f:1c:eb:2f:96:fa:e5:87:77:c6:b5:
                    56:b2:7a:3b:54:30:53:1b:df:62:34:ff:1e:d1:f4:
                    5a:93:28:85:e5:4c:17:4e:7e:5b:fd:a4:93:99:7f:
                    df:cd:ef:a4:75:ef:ef:15:f6:47:e7:f8:19:72:d8:
                    2e:34:1a:a6:b4:a7:4c:7e:bd:bb:4f:0c:3d:57:f1:
                    30:d6:a6:36:8e:d6:80:76:d7:19:2e:a5:cd:7e:34:
                    2d:89
                Exponent: 65537 (0x10001)
        X509v3 extensions:
            X509v3 Basic Constraints: critical
                CA:TRUE, pathlen:0
            X509v3 Certificate Policies: 
                Policy: 2.16.840.1.113733.1.7.23.3
                  CPS: https://www.verisign.com/cps
                  User Notice:
                    Explicit Text: https://www.verisign.com/rpa

            X509v3 Key Usage: critical
                Certificate Sign, CRL Sign
            1.3.6.1.5.5.7.1.12: 
                0_.].[0Y0W0U..image/gif0!0.0...+..............k...j.H.,{..0%.#http://logo.verisign.com/vslogo.gif
            X509v3 CRL Distribution Points: 

                Full Name:
                  URI:http://crl.verisign.com/pca3-g5.crl

            Authority Information Access: 
                OCSP - URI:http://ocsp.verisign.com

            X509v3 Extended Key Usage: 
                TLS Web Client Authentication, Code Signing
            X509v3 Subject Alternative Name: 
                DirName:/CN=VeriSignMPKI-2-8
            X509v3 Subject Key Identifier: 
                CF:99:A9:EA:7B:26:F4:4B:C9:8E:8F:D7:F0:05:26:EF:E3:D2:A7:9D
            X509v3 Authority Key Identifier: 
                keyid:7F:D3:65:A7:C2:DD:EC:BB:F0:30:09:F3:43:39:FA:02:AF:33:31:33

    Signature Algorithm: sha1WithRSAEncryption
         56:22:e6:34:a4:c4:61:cb:48:b9:01:ad:56:a8:64:0f:d9:8c:
         91:c4:bb:cc:0c:e5:ad:7a:a0:22:7f:df:47:38:4a:2d:6c:d1:
         7f:71:1a:7c:ec:70:a9:b1:f0:4f:e4:0f:0c:53:fa:15:5e:fe:
         74:98:49:24:85:81:26:1c:91:14:47:b0:4c:63:8c:bb:a1:34:
         d4:c6:45:e8:0d:85:26:73:03:d0:a9:8c:64:6d:dc:71:92:e6:
         45:05:60:15:59:51:39:fc:58:14:6b:fe:d4:a4:ed:79:6b:08:
         0c:41:72:e7:37:22:06:09:be:23:e9:3f:44:9a:1e:e9:61:9d:
         cc:b1:90:5c:fc:3d:d2:8d:ac:42:3d:65:36:d4:b4:3d:40:28:
         8f:9b:10:cf:23:26:cc:4b:20:cb:90:1f:5d:8c:4c:34:ca:3c:
         d8:e5:37:d6:6f:a5:20:bd:34:eb:26:d9:ae:0d:e7:c5:9a:f7:
         a1:b4:21:91:33:6f:86:e8:58:bb:25:7c:74:0e:58:fe:75:1b:
         63:3f:ce:31:7c:9b:8f:1b:96:9e:c5:53:76:84:5b:9c:ad:91:
         fa:ac:ed:93:ba:5d:c8:21:53:c2:82:53:63:af:12:0d:50:87:
         11:1b:3d:54:52:96:8a:2c:9c:3d:92:1a:08:9a:05:2e:c7:93:
         a5:48:91:d3
-----BEGIN CERTIFICATE-----
MIIGCjCCBPKgAwIBAgIQUgDlqiVW/BqG7ZbJ1EszxzANBgkqhkiG9w0BAQUFADCB
yjELMAkGA1UEBhMCVVMxFzAVBgNVBAoTDlZlcmlTaWduLCBJbmMuMR8wHQYDVQQL
ExZWZXJpU2lnbiBUcnVzdCBOZXR3b3JrMTowOAYDVQQLEzEoYykgMjAwNiBWZXJp
U2lnbiwgSW5jLiAtIEZvciBhdXRob3JpemVkIHVzZSBvbmx5MUUwQwYDVQQDEzxW
ZXJpU2lnbiBDbGFzcyAzIFB1YmxpYyBQcmltYXJ5IENlcnRpZmljYXRpb24gQXV0
aG9yaXR5IC0gRzUwHhcNMTAwMjA4MDAwMDAwWhcNMjAwMjA3MjM1OTU5WjCBtDEL
MAkGA1UEBhMCVVMxFzAVBgNVBAoTDlZlcmlTaWduLCBJbmMuMR8wHQYDVQQLExZW
ZXJpU2lnbiBUcnVzdCBOZXR3b3JrMTswOQYDVQQLEzJUZXJtcyBvZiB1c2UgYXQg
aHR0cHM6Ly93d3cudmVyaXNpZ24uY29tL3JwYSAoYykxMDEuMCwGA1UEAxMlVmVy
aVNpZ24gQ2xhc3MgMyBDb2RlIFNpZ25pbmcgMjAxMCBDQTCCASIwDQYJKoZIhvcN
AQEBBQADggEPADCCAQoCggEBAPUjS16l14q7MunUV/fv5Mcmfq0ZmP6onX2U9jZr
ENd1gTB/BGh/yyt1Hs0dCIzfaZSnN6Oce4DgmeHuN01fzjsU7obU0PUnNbwlCzin
jGOdF6MIpauw+81qYoJM1SHaG9nx44Q7iipPhVuQAU/Jp3YQfycDfL6ufn3B3fkF
vBtInGnnwKQ8PEEAPt+W5cXklHHWVQHHACZKQDy1oSapDKdtgI6QJXvPvz8c6y+W
+uWHd8a1VrJ6O1QwUxvfYjT/HtH0WpMoheVMF05+W/2kk5l/383vpHXv7xX2R+f4
GXLYLjQaprSnTH69u08MPVfxMNamNo7WgHbXGS6lzX40LYkCAwEAAaOCAf4wggH6
MBIGA1UdEwEB/wQIMAYBAf8CAQAwcAYDVR0gBGkwZzBlBgtghkgBhvhFAQcXAzBW
MCgGCCsGAQUFBwIBFhxodHRwczovL3d3dy52ZXJpc2lnbi5jb20vY3BzMCoGCCsG
AQUFBwICMB4aHGh0dHBzOi8vd3d3LnZlcmlzaWduLmNvbS9ycGEwDgYDVR0PAQH/
BAQDAgEGMG0GCCsGAQUFBwEMBGEwX6FdoFswWTBXMFUWCWltYWdlL2dpZjAhMB8w
BwYFKw4DAhoEFI/l0xqGrI2Oa8PPgGrUSBgsexkuMCUWI2h0dHA6Ly9sb2dvLnZl
cmlzaWduLmNvbS92c2xvZ28uZ2lmMDQGA1UdHwQtMCswKaAnoCWGI2h0dHA6Ly9j
cmwudmVyaXNpZ24uY29tL3BjYTMtZzUuY3JsMDQGCCsGAQUFBwEBBCgwJjAkBggr
BgEFBQcwAYYYaHR0cDovL29jc3AudmVyaXNpZ24uY29tMB0GA1UdJQQWMBQGCCsG
AQUFBwMCBggrBgEFBQcDAzAoBgNVHREEITAfpB0wGzEZMBcGA1UEAxMQVmVyaVNp
Z25NUEtJLTItODAdBgNVHQ4EFgQUz5mp6nsm9EvJjo/X8AUm7+PSp50wHwYDVR0j
BBgwFoAUf9Nlp8Ld7LvwMAnzQzn6Aq8zMTMwDQYJKoZIhvcNAQEFBQADggEBAFYi
5jSkxGHLSLkBrVaoZA/ZjJHEu8wM5a16oCJ/30c4Si1s0X9xGnzscKmx8E/kDwxT
+hVe/nSYSSSFgSYckRRHsExjjLuhNNTGRegNhSZzA9CpjGRt3HGS5kUFYBVZUTn8
WBRr/tSk7XlrCAxBcuc3IgYJviPpP0SaHulhncyxkFz8PdKNrEI9ZTbUtD1AKI+b
EM8jJsxLIMuQH12MTDTKPNjlN9ZvpSC9NOsm2a4N58Wa96G0IZEzb4boWLslfHQO
WP51G2M/zjF8m48blp7FU3aEW5ytkfqs7ZO6XcghU8KCU2OvEg1QhxEbPVRSloos
nD2SGgiaBS7Hk6VIkdM=
-----END CERTIFICATE-----

