Certificate:
    Data:
        Version: 3 (0x2)
        Serial Number:
            38:25:d7:fa:f8:61:af:9e:f4:90:e7:26:b5:d6:5a:d5
    Signature Algorithm: sha1WithRSAEncryption
        Issuer: C=US, O=VeriSign, Inc., CN=VeriSign Time Stamping Services CA
        Validity
            Not Before: Jun 15 00:00:00 2007 GMT
            Not After : Jun 14 23:59:59 2012 GMT
        Subject: C=US, O=VeriSign, Inc., CN=VeriSign Time Stamping Services Signer - G2
        Subject Public Key Info:
            Public Key Algorithm: rsaEncryption
                Public-Key: (1024 bit)
                Modulus:
                    00:c4:b5:f2:52:15:bc:88:86:60:29:16:4a:5b:2f:
                    4b:91:6b:87:91:f3:35:54:58:35:ea:d1:36:5e:62:
                    4d:52:51:34:71:c2:7b:66:1d:89:c8:dd:2a:c4:6a:
                    0a:f6:37:d9:98:74:91:f6:92:ae:b0:b5:76:96:f1:
                    a9:4a:63:45:47:2e:6b:0b:92:4e:4b:2b:8c:ee:58:
                    4a:8b:d4:07:e4:1a:2c:f8:82:aa:58:d9:cd:42:f3:
                    2d:c0:75:de:8d:ab:c7:8e:1d:9a:6c:4c:08:95:1e:
                    de:db:ef:67:e1:72:c2:49:c2:9e:60:3c:e1:e2:be:
                    16:a3:63:78:69:14:7b:ad:2d
                Exponent: 65537 (0x10001)
        X509v3 extensions:
            Authority Information Access: 
                OCSP - URI:http://ocsp.verisign.com

            X509v3 Basic Constraints: critical
                CA:FALSE
            X509v3 CRL Distribution Points: 

                Full Name:
                  URI:http://crl.verisign.com/tss-ca.crl

            X509v3 Extended Key Usage: critical
                Time Stamping
            X509v3 Key Usage: critical
                Digital Signature, Non Repudiation
            X509v3 Subject Alternative Name: 
                DirName:/CN=TSA1-2
    Signature Algorithm: sha1WithRSAEncryption
         50:c5:4b:c8:24:80:df:e4:0d:24:c2:de:1a:b1:a1:02:a1:a6:
         82:2d:0c:83:15:81:37:0a:82:0e:2c:b0:5a:17:61:b5:d8:05:
         fe:88:db:f1:91:91:b3:56:1a:40:a6:eb:92:be:38:39:b0:75:
         36:74:3a:98:4f:e4:37:ba:99:89:ca:95:42:1d:b0:b9:c7:a0:
         8d:57:e0:fa:d5:64:04:42:35:4e:01:d1:33:a2:17:c8:4d:aa:
         27:c7:f2:e1:86:4c:02:38:4d:83:78:c6:fc:53:e0:eb:e0:06:
         87:dd:a4:96:9e:5e:0c:98:e2:a5:be:bf:82:85:c3:60:e1:df:
         ad:28:d8:c7:a5:4b:64:da:c7:1b:5b:bd:ac:39:08:d5:38:22:
         a1:33:8b:2f:8a:9a:eb:bc:07:21:3f:44:41:09:07:b5:65:1c:
         24:bc:48:d3:44:80:eb:a1:cf:c9:02:b4:14:cf:54:c7:16:a3:
         80:5c:f9:79:3e:5d:72:7d:88:17:9e:2c:43:a2:ca:53:ce:7d:
         3d:f6:2a:3a:b8:4f:94:00:a5:6d:0a:83:5d:f9:5e:53:f4:18:
         b3:57:0f:70:c3:fb:f5:ad:95:a0:0e:17:de:c4:16:80:60:c9:
         0f:2b:6e:86:04:f1:eb:f4:78:27:d1:05:c5:ee:34:5b:5e:b9:
         49:32:f2:33
-----BEGIN CERTIFICATE-----
MIIDejCCAmKgAwIBAgIQOCXX+vhhr570kOcmtdZa1TANBgkqhkiG9w0BAQUFADBT
MQswCQYDVQQGEwJVUzEXMBUGA1UEChMOVmVyaVNpZ24sIEluYy4xKzApBgNVBAMT
IlZlcmlTaWduIFRpbWUgU3RhbXBpbmcgU2VydmljZXMgQ0EwHhcNMDcwNjE1MDAw
MDAwWhcNMTIwNjE0MjM1OTU5WjBcMQswCQYDVQQGEwJVUzEXMBUGA1UEChMOVmVy
aVNpZ24sIEluYy4xNDAyBgNVBAMTK1ZlcmlTaWduIFRpbWUgU3RhbXBpbmcgU2Vy
dmljZXMgU2lnbmVyIC0gRzIwgZ8wDQYJKoZIhvcNAQEBBQADgY0AMIGJAoGBAMS1
8lIVvIiGYCkWSlsvS5Frh5HzNVRYNerRNl5iTVJRNHHCe2YdicjdKsRqCvY32Zh0
kfaSrrC1dpbxqUpjRUcuawuSTksrjO5YSovUB+QaLPiCqljZzULzLcB13o2rx44d
mmxMCJUe3tvvZ+FywknCnmA84eK+FqNjeGkUe60tAgMBAAGjgcQwgcEwNAYIKwYB
BQUHAQEEKDAmMCQGCCsGAQUFBzABhhhodHRwOi8vb2NzcC52ZXJpc2lnbi5jb20w
DAYDVR0TAQH/BAIwADAzBgNVHR8ELDAqMCigJqAkhiJodHRwOi8vY3JsLnZlcmlz
aWduLmNvbS90c3MtY2EuY3JsMBYGA1UdJQEB/wQMMAoGCCsGAQUFBwMIMA4GA1Ud
DwEB/wQEAwIGwDAeBgNVHREEFzAVpBMwETEPMA0GA1UEAxMGVFNBMS0yMA0GCSqG
SIb3DQEBBQUAA4IBAQBQxUvIJIDf5A0kwt4asaECoaaCLQyDFYE3CoIOLLBaF2G1
2AX+iNvxkZGzVhpApuuSvjg5sHU2dDqYT+Q3upmJypVCHbC5x6CNV+D61WQEQjVO
AdEzohfITaonx/LhhkwCOE2DeMb8U+Dr4AaH3aSWnl4MmOKlvr+ChcNg4d+tKNjH
pUtk2scbW72sOQjVOCKhM4sviprrvAchP0RBCQe1ZRwkvEjTRIDroc/JArQUz1TH
FqOAXPl5Pl1yfYgXnixDospTzn099io6uE+UAKVtCoNd+V5T9BizVw9ww/v1rZWg
DhfexBaAYMkPK26GBPHr9Hgn0QXF7jRbXrlJMvIz
-----END CERTIFICATE-----

Certificate:
    Data:
        Version: 3 (0x2)
        Serial Number:
            47:bf:19:95:df:8d:52:46:43:f7:db:6d:48:0d:31:a4
    Signature Algorithm: sha1WithRSAEncryption
        Issuer: C=ZA, ST=Western Cape, L=Durbanville, O=Thawte, OU=Thawte Certification, CN=Thawte Timestamping CA
        Validity
            Not Before: Dec  4 00:00:00 2003 GMT
            Not After : Dec  3 23:59:59 2013 GMT
        Subject: C=US, O=VeriSign, Inc., CN=VeriSign Time Stamping Services CA
        Subject Public Key Info:
            Public Key Algorithm: rsaEncryption
                Public-Key: (2048 bit)
                Modulus:
                    00:a9:ca:b2:a4:cc:cd:20:af:0a:7d:89:ac:87:75:
                    f0:b4:4e:f1:df:c1:0f:bf:67:61:bd:a3:64:1c:da:
                    bb:f9:ca:33:ab:84:30:89:58:7e:8c:db:6b:dd:36:
                    9e:0f:bf:d1:ec:78:f2:77:a6:7e:6f:3c:bf:93:af:
                    0d:ba:68:f4:6c:94:ca:bd:52:2d:ab:48:3d:f5:b6:
                    d5:5d:5f:1b:02:9f:fa:2f:6b:1e:a4:f7:a3:9a:a6:
                    1a:c8:02:e1:7f:4c:52:e3:0e:60:ec:40:1c:7e:b9:
                    0d:de:3f:c7:b4:df:87:bd:5f:7a:6a:31:2e:03:99:
                    81:13:a8:47:20:ce:31:73:0d:57:2d:cd:78:34:33:
                    95:12:99:12:b9:de:68:2f:aa:e6:e3:c2:8a:8c:2a:
                    c3:8b:21:87:66:bd:83:58:57:6f:75:bf:3c:aa:26:
                    87:5d:ca:10:15:3c:9f:84:ea:54:c1:0a:6e:c4:fe:
                    c5:4a:dd:b9:07:11:97:22:7c:db:3e:27:d1:1e:78:
                    ec:9f:31:c9:f1:e6:22:19:db:c4:b3:47:43:9a:1a:
                    5f:a0:1e:90:e4:5e:f5:ee:7c:f1:7d:ab:62:01:8f:
                    f5:4d:0b:de:d0:22:56:a8:95:cd:ae:88:76:ae:ee:
                    ba:0d:f3:e4:4d:d9:a0:fb:68:a0:ae:14:3b:b3:87:
                    c1:bb
                Exponent: 65537 (0x10001)
        X509v3 extensions:
            Authority Information Access: 
                OCSP - URI:http://ocsp.verisign.com

            X509v3 Basic Constraints: critical
                CA:TRUE, pathlen:0
            X509v3 CRL Distribution Points: 

                Full Name:
                  URI:http://crl.verisign.com/ThawteTimestampingCA.crl

            X509v3 Extended Key Usage: 
                Time Stamping
            X509v3 Key Usage: critical
                Certificate Sign, CRL Sign
            X509v3 Subject Alternative Name: 
                DirName:/CN=TSA2048-1-53
    Signature Algorithm: sha1WithRSAEncryption
         4a:6b:f9:ea:58:c2:44:1c:31:89:79:99:2b:96:bf:82:ac:01:
         d6:1c:4c:cd:b0:8a:58:6e:df:08:29:a3:5e:c8:ca:93:13:e7:
         04:52:0d:ef:47:27:2f:00:38:b0:e4:c9:93:4e:9a:d4:22:62:
         15:f7:3f:37:21:4f:70:31:80:f1:8b:38:87:b3:e8:e8:97:00:
         fe:cf:55:96:4e:24:d2:a9:27:4e:7a:ae:b7:61:41:f3:2a:ce:
         e7:c9:d9:5e:dd:bb:2b:85:3e:b5:9d:b5:d9:e1:57:ff:be:b4:
         c5:7e:f5:cf:0c:9e:f0:97:fe:2b:d3:3b:52:1b:1b:38:27:f7:
         3f:4a
-----BEGIN CERTIFICATE-----
MIIDxDCCAy2gAwIBAgIQR78Zld+NUkZD99ttSA0xpDANBgkqhkiG9w0BAQUFADCB
izELMAkGA1UEBhMCWkExFTATBgNVBAgTDFdlc3Rlcm4gQ2FwZTEUMBIGA1UEBxML
RHVyYmFudmlsbGUxDzANBgNVBAoTBlRoYXd0ZTEdMBsGA1UECxMUVGhhd3RlIENl
cnRpZmljYXRpb24xHzAdBgNVBAMTFlRoYXd0ZSBUaW1lc3RhbXBpbmcgQ0EwHhcN
MDMxMjA0MDAwMDAwWhcNMTMxMjAzMjM1OTU5WjBTMQswCQYDVQQGEwJVUzEXMBUG
A1UEChMOVmVyaVNpZ24sIEluYy4xKzApBgNVBAMTIlZlcmlTaWduIFRpbWUgU3Rh
bXBpbmcgU2VydmljZXMgQ0EwggEiMA0GCSqGSIb3DQEBAQUAA4IBDwAwggEKAoIB
AQCpyrKkzM0grwp9iayHdfC0TvHfwQ+/Z2G9o2Qc2rv5yjOrhDCJWH6M22vdNp4P
v9HsePJ3pn5vPL+Trw26aPRslMq9Ui2rSD31ttVdXxsCn/ovax6k96OaphrIAuF/
TFLjDmDsQBx+uQ3eP8e034e9X3pqMS4DmYETqEcgzjFzDVctzXg0M5USmRK53mgv
qubjwoqMKsOLIYdmvYNYV291vzyqJoddyhAVPJ+E6lTBCm7E/sVK3bkHEZcifNs+
J9EeeOyfMcnx5iIZ28SzR0OaGl+gHpDkXvXufPF9q2IBj/VNC97QIlaolc2uiHau
7roN8+RN2aD7aKCuFDuzh8G7AgMBAAGjgdswgdgwNAYIKwYBBQUHAQEEKDAmMCQG
CCsGAQUFBzABhhhodHRwOi8vb2NzcC52ZXJpc2lnbi5jb20wEgYDVR0TAQH/BAgw
BgEB/wIBADBBBgNVHR8EOjA4MDagNKAyhjBodHRwOi8vY3JsLnZlcmlzaWduLmNv
bS9UaGF3dGVUaW1lc3RhbXBpbmdDQS5jcmwwEwYDVR0lBAwwCgYIKwYBBQUHAwgw
DgYDVR0PAQH/BAQDAgEGMCQGA1UdEQQdMBukGTAXMRUwEwYDVQQDEwxUU0EyMDQ4
LTEtNTMwDQYJKoZIhvcNAQEFBQADgYEASmv56ljCRBwxiXmZK5a/gqwB1hxMzbCK
WG7fCCmjXsjKkxPnBFIN70cnLwA4sOTJk06a1CJiFfc/NyFPcDGA8Ys4h7Po6JcA
/s9Vlk4k0qknTnqut2FB8yrO58nZXt27K4U+tZ212eFX/760xX71zwye8Jf+K9M7
UhsbOCf3P0o=
-----END CERTIFICATE-----

Certificate:
    Data:
        Version: 3 (0x2)
        Serial Number:
            18:da:d1:9e:26:7d:e8:bb:4a:21:58:cd:cc:6b:3b:4a
    Signature Algorithm: sha1WithRSAEncryption
        Issuer: C=US, O=VeriSign, Inc., OU=VeriSign Trust Network, OU=(c) 2006 VeriSign, Inc. - For authorized use only, CN=VeriSign Class 3 Public Primary Certification Authority - G5
        Validity
            Not Before: Nov  8 00:00:00 2006 GMT
            Not After : Jul 16 23:59:59 2036 GMT
        Subject: C=US, O=VeriSign, Inc., OU=VeriSign Trust Network, OU=(c) 2006 VeriSign, Inc. - For authorized use only, CN=VeriSign Class 3 Public Primary Certification Authority - G5
        Subject Public Key Info:
            Public Key Algorithm: rsaEncryption
                Public-Key: (2048 bit)
                Modulus:
                    00:af:24:08:08:29:7a:35:9e:60:0c:aa:e7:4b:3b:
                    4e:dc:7c:bc:3c:45:1c:bb:2b:e0:fe:29:02:f9:57:
                    08:a3:64:85:15:27:f5:f1:ad:c8:31:89:5d:22:e8:
                    2a:aa:a6:42:b3:8f:f8:b9:55:b7:b1:b7:4b:b3:fe:
                    8f:7e:07:57:ec:ef:43:db:66:62:15:61:cf:60:0d:
                    a4:d8:de:f8:e0:c3:62:08:3d:54:13:eb:49:ca:59:
                    54:85:26:e5:2b:8f:1b:9f:eb:f5:a1:91:c2:33:49:
                    d8:43:63:6a:52:4b:d2:8f:e8:70:51:4d:d1:89:69:
                    7b:c7:70:f6:b3:dc:12:74:db:7b:5d:4b:56:d3:96:
                    bf:15:77:a1:b0:f4:a2:25:f2:af:1c:92:67:18:e5:
                    f4:06:04:ef:90:b9:e4:00:e4:dd:3a:b5:19:ff:02:
                    ba:f4:3c:ee:e0:8b:eb:37:8b:ec:f4:d7:ac:f2:f6:
                    f0:3d:af:dd:75:91:33:19:1d:1c:40:cb:74:24:19:
                    21:93:d9:14:fe:ac:2a:52:c7:8f:d5:04:49:e4:8d:
                    63:47:88:3c:69:83:cb:fe:47:bd:2b:7e:4f:c5:95:
                    ae:0e:9d:d4:d1:43:c0:67:73:e3:14:08:7e:e5:3f:
                    9f:73:b8:33:0a:cf:5d:3f:34:87:96:8a:ee:53:e8:
                    25:15
                Exponent: 65537 (0x10001)
        X509v3 extensions:
            X509v3 Basic Constraints: critical
                CA:TRUE
            X509v3 Key Usage: critical
                Certificate Sign, CRL Sign
            1.3.6.1.5.5.7.1.12: 
                0_.].[0Y0W0U..image/gif0!0.0...+..............k...j.H.,{..0%.#http://logo.verisign.com/vslogo.gif
            X509v3 Subject Key Identifier: 
                7F:D3:65:A7:C2:DD:EC:BB:F0:30:09:F3:43:39:FA:02:AF:33:31:33
    Signature Algorithm: sha1WithRSAEncryption
         93:24:4a:30:5f:62:cf:d8:1a:98:2f:3d:ea:dc:99:2d:bd:77:
         f6:a5:79:22:38:ec:c4:a7:a0:78:12:ad:62:0e:45:70:64:c5:
         e7:97:66:2d:98:09:7e:5f:af:d6:cc:28:65:f2:01:aa:08:1a:
         47:de:f9:f9:7c:92:5a:08:69:20:0d:d9:3e:6d:6e:3c:0d:6e:
         d8:e6:06:91:40:18:b9:f8:c1:ed:df:db:41:aa:e0:96:20:c9:
         cd:64:15:38:81:c9:94:ee:a2:84:29:0b:13:6f:8e:db:0c:dd:
         25:02:db:a4:8b:19:44:d2:41:7a:05:69:4a:58:4f:60:ca:7e:
         82:6a:0b:02:aa:25:17:39:b5:db:7f:e7:84:65:2a:95:8a:bd:
         86:de:5e:81:16:83:2d:10:cc:de:fd:a8:82:2a:6d:28:1f:0d:
         0b:c4:e5:e7:1a:26:19:e1:f4:11:6f:10:b5:95:fc:e7:42:05:
         32:db:ce:9d:51:5e:28:b6:9e:85:d3:5b:ef:a5:7d:45:40:72:
         8e:b7:0e:6b:0e:06:fb:33:35:48:71:b8:9d:27:8b:c4:65:5f:
         0d:86:76:9c:44:7a:f6:95:5c:f6:5d:32:08:33:a4:54:b6:18:
         3f:68:5c:f2:42:4a:85:38:54:83:5f:d1:e8:2c:f2:ac:11:d6:
         a8:ed:63:6a
-----BEGIN CERTIFICATE-----
MIIE0zCCA7ugAwIBAgIQGNrRniZ96LtKIVjNzGs7SjANBgkqhkiG9w0BAQUFADCB
yjELMAkGA1UEBhMCVVMxFzAVBgNVBAoTDlZlcmlTaWduLCBJbmMuMR8wHQYDVQQL
ExZWZXJpU2lnbiBUcnVzdCBOZXR3b3JrMTowOAYDVQQLEzEoYykgMjAwNiBWZXJp
U2lnbiwgSW5jLiAtIEZvciBhdXRob3JpemVkIHVzZSBvbmx5MUUwQwYDVQQDEzxW
ZXJpU2lnbiBDbGFzcyAzIFB1YmxpYyBQcmltYXJ5IENlcnRpZmljYXRpb24gQXV0
aG9yaXR5IC0gRzUwHhcNMDYxMTA4MDAwMDAwWhcNMzYwNzE2MjM1OTU5WjCByjEL
MAkGA1UEBhMCVVMxFzAVBgNVBAoTDlZlcmlTaWduLCBJbmMuMR8wHQYDVQQLExZW
ZXJpU2lnbiBUcnVzdCBOZXR3b3JrMTowOAYDVQQLEzEoYykgMjAwNiBWZXJpU2ln
biwgSW5jLiAtIEZvciBhdXRob3JpemVkIHVzZSBvbmx5MUUwQwYDVQQDEzxWZXJp
U2lnbiBDbGFzcyAzIFB1YmxpYyBQcmltYXJ5IENlcnRpZmljYXRpb24gQXV0aG9y
aXR5IC0gRzUwggEiMA0GCSqGSIb3DQEBAQUAA4IBDwAwggEKAoIBAQCvJAgIKXo1
nmAMqudLO07cfLw8RRy7K+D+KQL5VwijZIUVJ/XxrcgxiV0i6CqqpkKzj/i5Vbex
t0uz/o9+B1fs70PbZmIVYc9gDaTY3vjgw2IIPVQT60nKWVSFJuUrjxuf6/WhkcIz
SdhDY2pSS9KP6HBRTdGJaXvHcPaz3BJ023tdS1bTlr8Vd6Gw9KIl8q8ckmcY5fQG
BO+QueQA5N06tRn/Arr0PO7gi+s3i+z016zy9vA9r911kTMZHRxAy3QkGSGT2RT+
rCpSx4/VBEnkjWNHiDxpg8v+R70rfk/Fla4OndTRQ8Bnc+MUCH7lP59zuDMKz10/
NIeWiu5T6CUVAgMBAAGjgbIwga8wDwYDVR0TAQH/BAUwAwEB/zAOBgNVHQ8BAf8E
BAMCAQYwbQYIKwYBBQUHAQwEYTBfoV2gWzBZMFcwVRYJaW1hZ2UvZ2lmMCEwHzAH
BgUrDgMCGgQUj+XTGoasjY5rw8+AatRIGCx7GS4wJRYjaHR0cDovL2xvZ28udmVy
aXNpZ24uY29tL3ZzbG9nby5naWYwHQYDVR0OBBYEFH/TZafC3ey78DAJ80M5+gKv
MzEzMA0GCSqGSIb3DQEBBQUAA4IBAQCTJEowX2LP2BqYLz3q3JktvXf2pXkiOOzE
p6B4Eq1iDkVwZMXnl2YtmAl+X6/WzChl8gGqCBpH3vn5fJJaCGkgDdk+bW48DW7Y
5gaRQBi5+MHt39tBquCWIMnNZBU4gcmU7qKEKQsTb47bDN0lAtukixlE0kF6BWlK
WE9gyn6CagsCqiUXObXbf+eEZSqVir2G3l6BFoMtEMze/aiCKm0oHw0LxOXnGiYZ
4fQRbxC1lfznQgUy286dUV4otp6F01vvpX1FQHKOtw5rDgb7MzVIcbidJ4vEZV8N
hnacRHr2lVz2XTIIM6RUthg/aFzyQkqFOFSDX9HoLPKsEdao7WNq
-----END CERTIFICATE-----

Certificate:
    Data:
        Version: 3 (0x2)
        Serial Number:
            6b:49:d4:67:6a:e3:4c:b8:72:c9:62:d5:fc:09:0a:14
    Signature Algorithm: sha1WithRSAEncryption
        Issuer: C=US, O=VeriSign, Inc., OU=VeriSign Trust Network, OU=Terms of use at https://www.verisign.com/rpa (c)10, CN=VeriSign Class 3 Code Signing 2010 CA
        Validity
            Not Before: Apr 12 00:00:00 2011 GMT
            Not After : Apr 11 23:59:59 2012 GMT
        Subject: C=JP, ST=Tokyo, L=1-1 Shibaura, 1-chome, Minato-ku, O=TOSHIBA CORPORATION, OU=Digital ID Class 3 - Microsoft Software Validation v2, OU=TOSHIBA CORPORATION, CN=TOSHIBA CORPORATION
        Subject Public Key Info:
            Public Key Algorithm: rsaEncryption
                Public-Key: (2048 bit)
                Modulus:
                    00:b8:91:98:f3:24:27:a2:c3:eb:00:52:01:bf:08:
                    cf:97:9d:58:f3:be:a2:9c:d4:cd:ba:61:ca:a1:47:
                    f1:b0:99:b6:75:78:4d:71:f6:11:d8:f6:92:96:c9:
                    30:93:da:c8:da:64:6a:aa:c7:b4:24:64:4b:c9:40:
                    4c:dc:7b:44:5e:16:07:27:90:29:81:82:d3:8d:c9:
                    e8:99:e1:b5:8c:b6:15:18:0e:ec:b1:a3:28:77:9c:
                    90:30:af:e6:24:d5:33:04:33:34:f6:46:c2:3a:a5:
                    48:bb:e1:8e:0d:34:8f:4c:0d:79:e0:4f:23:05:8f:
                    c1:6e:04:1b:8c:ac:df:c4:69:cf:46:9e:f9:c0:09:
                    3b:f8:7a:7a:38:78:5f:43:f0:55:ed:92:06:06:40:
                    4c:26:64:57:26:51:41:1d:bb:46:fa:be:a3:79:82:
                    ce:a6:59:b2:02:89:ba:b2:23:38:a8:b8:67:ff:88:
                    dc:24:ed:30:9c:8b:b3:17:15:ca:ba:ec:49:88:4d:
                    60:0e:fa:c7:bb:e8:cb:95:a6:58:da:a9:4d:2b:9e:
                    c1:44:a7:91:06:d2:44:3c:60:a7:95:ca:86:74:64:
                    79:e9:cf:1c:bf:27:37:96:b2:ee:29:8c:85:aa:30:
                    13:ca:df:a1:42:ed:16:28:b4:13:3a:54:99:f4:97:
                    1a:8f
                Exponent: 65537 (0x10001)
        X509v3 extensions:
            X509v3 Basic Constraints: 
                CA:FALSE
            X509v3 Key Usage: critical
                Digital Signature
            X509v3 CRL Distribution Points: 

                Full Name:
                  URI:http://csc3-2010-crl.verisign.com/CSC3-2010.crl

            X509v3 Certificate Policies: 
                Policy: 2.16.840.1.113733.1.7.23.3
                  CPS: https://www.verisign.com/rpa

            X509v3 Extended Key Usage: 
                Code Signing
            Authority Information Access: 
                OCSP - URI:http://ocsp.verisign.com
                CA Issuers - URI:http://csc3-2010-aia.verisign.com/CSC3-2010.cer

            X509v3 Authority Key Identifier: 
                keyid:CF:99:A9:EA:7B:26:F4:4B:C9:8E:8F:D7:F0:05:26:EF:E3:D2:A7:9D

            Netscape Cert Type: 
                Object Signing
            1.3.6.1.4.1.311.2.1.27: 
                0.......
    Signature Algorithm: sha1WithRSAEncryption
         bf:18:a7:47:4c:80:7f:e7:ed:ce:ce:f6:ba:d1:a8:29:8c:ca:
         51:70:9a:0d:79:fd:07:37:c6:0b:ea:28:e4:91:28:83:a8:b2:
         e0:92:cc:1f:8e:7e:39:80:4f:f0:7a:52:54:ad:33:20:77:6b:
         69:c2:39:a4:05:c8:1d:10:64:be:c4:72:92:f4:06:98:68:35:
         5c:6b:88:72:5d:d1:d8:7d:95:b3:78:39:c0:5d:d0:f5:1c:b7:
         6d:3f:f2:44:c1:b6:fa:1e:20:06:0a:f7:35:24:cc:b0:db:0d:
         f0:0d:cc:96:87:00:0b:71:1d:31:71:31:c1:5e:63:76:32:1d:
         28:ec:6c:aa:f3:50:8a:70:cc:23:73:27:6b:00:f5:b9:97:15:
         6d:23:77:a0:b7:ae:b3:bc:00:e0:f6:59:bc:a1:32:a3:7f:9b:
         67:51:57:5d:c2:c2:81:a3:de:38:58:e6:bb:ca:08:87:5b:9e:
         54:f8:87:8a:71:f5:a2:f5:f4:33:53:c5:50:0f:c5:cc:40:0d:
         e7:fc:87:f0:ad:67:b9:3f:ae:69:b0:3d:c8:f5:9e:ab:dd:6f:
         1f:37:e7:dd:aa:c7:6c:ba:80:c4:03:d0:49:85:d4:9c:25:7c:
         58:50:38:51:fd:f9:19:4c:fd:80:8f:6d:c8:de:98:ee:75:f1:
         6d:e9:ba:a8
-----BEGIN CERTIFICATE-----
MIIFnzCCBIegAwIBAgIQa0nUZ2rjTLhyyWLV/AkKFDANBgkqhkiG9w0BAQUFADCB
tDELMAkGA1UEBhMCVVMxFzAVBgNVBAoTDlZlcmlTaWduLCBJbmMuMR8wHQYDVQQL
ExZWZXJpU2lnbiBUcnVzdCBOZXR3b3JrMTswOQYDVQQLEzJUZXJtcyBvZiB1c2Ug
YXQgaHR0cHM6Ly93d3cudmVyaXNpZ24uY29tL3JwYSAoYykxMDEuMCwGA1UEAxMl
VmVyaVNpZ24gQ2xhc3MgMyBDb2RlIFNpZ25pbmcgMjAxMCBDQTAeFw0xMTA0MTIw
MDAwMDBaFw0xMjA0MTEyMzU5NTlaMIHiMQswCQYDVQQGEwJKUDEOMAwGA1UECBMF
VG9reW8xKTAnBgNVBAcTIDEtMSBTaGliYXVyYSwgMS1jaG9tZSwgTWluYXRvLWt1
MRwwGgYDVQQKFBNUT1NISUJBIENPUlBPUkFUSU9OMT4wPAYDVQQLEzVEaWdpdGFs
IElEIENsYXNzIDMgLSBNaWNyb3NvZnQgU29mdHdhcmUgVmFsaWRhdGlvbiB2MjEc
MBoGA1UECxQTVE9TSElCQSBDT1JQT1JBVElPTjEcMBoGA1UEAxQTVE9TSElCQSBD
T1JQT1JBVElPTjCCASIwDQYJKoZIhvcNAQEBBQADggEPADCCAQoCggEBALiRmPMk
J6LD6wBSAb8Iz5edWPO+opzUzbphyqFH8bCZtnV4TXH2Edj2kpbJMJPayNpkaqrH
tCRkS8lATNx7RF4WByeQKYGC043J6JnhtYy2FRgO7LGjKHeckDCv5iTVMwQzNPZG
wjqlSLvhjg00j0wNeeBPIwWPwW4EG4ys38Rpz0ae+cAJO/h6ejh4X0PwVe2SBgZA
TCZkVyZRQR27Rvq+o3mCzqZZsgKJurIjOKi4Z/+I3CTtMJyLsxcVyrrsSYhNYA76
x7voy5WmWNqpTSuewUSnkQbSRDxgp5XKhnRkeenPHL8nN5ay7imMhaowE8rfoULt
Fii0EzpUmfSXGo8CAwEAAaOCAXswggF3MAkGA1UdEwQCMAAwDgYDVR0PAQH/BAQD
AgeAMEAGA1UdHwQ5MDcwNaAzoDGGL2h0dHA6Ly9jc2MzLTIwMTAtY3JsLnZlcmlz
aWduLmNvbS9DU0MzLTIwMTAuY3JsMEQGA1UdIAQ9MDswOQYLYIZIAYb4RQEHFwMw
KjAoBggrBgEFBQcCARYcaHR0cHM6Ly93d3cudmVyaXNpZ24uY29tL3JwYTATBgNV
HSUEDDAKBggrBgEFBQcDAzBxBggrBgEFBQcBAQRlMGMwJAYIKwYBBQUHMAGGGGh0
dHA6Ly9vY3NwLnZlcmlzaWduLmNvbTA7BggrBgEFBQcwAoYvaHR0cDovL2NzYzMt
MjAxMC1haWEudmVyaXNpZ24uY29tL0NTQzMtMjAxMC5jZXIwHwYDVR0jBBgwFoAU
z5mp6nsm9EvJjo/X8AUm7+PSp50wEQYJYIZIAYb4QgEBBAQDAgQQMBYGCisGAQQB
gjcCARsECDAGAQEAAQH/MA0GCSqGSIb3DQEBBQUAA4IBAQC/GKdHTIB/5+3Ozva6
0agpjMpRcJoNef0HN8YL6ijkkSiDqLLgkswfjn45gE/welJUrTMgd2tpwjmkBcgd
EGS+xHKS9AaYaDVca4hyXdHYfZWzeDnAXdD1HLdtP/JEwbb6HiAGCvc1JMyw2w3w
DcyWhwALcR0xcTHBXmN2Mh0o7Gyq81CKcMwjcydrAPW5lxVtI3egt66zvADg9lm8
oTKjf5tnUVddwsKBo944WOa7ygiHW55U+IeKcfWi9fQzU8VQD8XMQA3n/IfwrWe5
P65psD3I9Z6r3W8fN+fdqsdsuoDEA9BJhdScJXxYUDhR/fkZTP2Aj23I3pjudfFt
6bqo
-----END CERTIFICATE-----

Certificate:
    Data:
        Version: 3 (0x2)
        Serial Number:
            52:00:e5:aa:25:56:fc:1a:86:ed:96:c9:d4:4b:33:c7
    Signature Algorithm: sha1WithRSAEncryption
        Issuer: C=US, O=VeriSign, Inc., OU=VeriSign Trust Network, OU=(c) 2006 VeriSign, Inc. - For authorized use only, CN=VeriSign Class 3 Public Primary Certification Authority - G5
        Validity
            Not Before: Feb  8 00:00:00 2010 GMT
            Not After : Feb  7 23:59:59 2020 GMT
        Subject: C=US, O=VeriSign, Inc., OU=VeriSign Trust Network, OU=Terms of use at https://www.verisign.com/rpa (c)10, CN=VeriSign Class 3 Code Signing 2010 CA
        Subject Public Key Info:
            Public Key Algorithm: rsaEncryption
                Public-Key: (2048 bit)
                Modulus:
                    00:f5:23:4b:5e:a5:d7:8a:bb:32:e9:d4:57:f7:ef:
                    e4:c7:26:7e:ad:19:98:fe:a8:9d:7d:94:f6:36:6b:
                    10:d7:75:81:30:7f:04:68:7f:cb:2b:75:1e:cd:1d:
                    08:8c:df:69:94:a7:37:a3:9c:7b:80:e0:99:e1:ee:
                    37:4d:5f:ce:3b:14:ee:86:d4:d0:f5:27:35:bc:25:
                    0b:38:a7:8c:63:9d:17:a3:08:a5:ab:b0:fb:cd:6a:
                    62:82:4c:d5:21:da:1b:d9:f1:e3:84:3b:8a:2a:4f:
                    85:5b:90:01:4f:c9:a7:76:10:7f:27:03:7c:be:ae:
                    7e:7d:c1:dd:f9:05:bc:1b:48:9c:69:e7:c0:a4:3c:
                    3c:41:00:3e:df:96:e5:c5:e4:94:71:d6:55:01:c7:
                    00:26:4a:40:3c:b5:a1:26:a9:0c:a7:6d:80:8e:90:
                    25:7b:cf:bf:3f:1c:eb:2f:96:fa:e5:87:77:c6:b5:
                    56:b2:7a:3b:54:30:53:1b:df:62:34:ff:1e:d1:f4:
                    5a:93:28:85:e5:4c:17:4e:7e:5b:fd:a4:93:99:7f:
                    df:cd:ef:a4:75:ef:ef:15:f6:47:e7:f8:19:72:d8:
                    2e:34:1a:a6:b4:a7:4c:7e:bd:bb:4f:0c:3d:57:f1:
                    30:d6:a6:36:8e:d6:80:76:d7:19:2e:a5:cd:7e:34:
                    2d:89
                Exponent: 65537 (0x10001)
        X509v3 extensions:
            X509v3 Basic Constraints: critical
                CA:TRUE, pathlen:0
            X509v3 Certificate Policies: 
                Policy: 2.16.840.1.113733.1.7.23.3
                  CPS: https://www.verisign.com/cps
                  User Notice:
                    Explicit Text: https://www.verisign.com/rpa

            X509v3 Key Usage: critical
                Certificate Sign, CRL Sign
            1.3.6.1.5.5.7.1.12: 
                0_.].[0Y0W0U..image/gif0!0.0...+..............k...j.H.,{..0%.#http://logo.verisign.com/vslogo.gif
            X509v3 CRL Distribution Points: 

                Full Name:
                  URI:http://crl.verisign.com/pca3-g5.crl

            Authority Information Access: 
                OCSP - URI:http://ocsp.verisign.com

            X509v3 Extended Key Usage: 
                TLS Web Client Authentication, Code Signing
            X509v3 Subject Alternative Name: 
                DirName:/CN=VeriSignMPKI-2-8
            X509v3 Subject Key Identifier: 
                CF:99:A9:EA:7B:26:F4:4B:C9:8E:8F:D7:F0:05:26:EF:E3:D2:A7:9D
            X509v3 Authority Key Identifier: 
                keyid:7F:D3:65:A7:C2:DD:EC:BB:F0:30:09:F3:43:39:FA:02:AF:33:31:33

    Signature Algorithm: sha1WithRSAEncryption
         56:22:e6:34:a4:c4:61:cb:48:b9:01:ad:56:a8:64:0f:d9:8c:
         91:c4:bb:cc:0c:e5:ad:7a:a0:22:7f:df:47:38:4a:2d:6c:d1:
         7f:71:1a:7c:ec:70:a9:b1:f0:4f:e4:0f:0c:53:fa:15:5e:fe:
         74:98:49:24:85:81:26:1c:91:14:47:b0:4c:63:8c:bb:a1:34:
         d4:c6:45:e8:0d:85:26:73:03:d0:a9:8c:64:6d:dc:71:92:e6:
         45:05:60:15:59:51:39:fc:58:14:6b:fe:d4:a4:ed:79:6b:08:
         0c:41:72:e7:37:22:06:09:be:23:e9:3f:44:9a:1e:e9:61:9d:
         cc:b1:90:5c:fc:3d:d2:8d:ac:42:3d:65:36:d4:b4:3d:40:28:
         8f:9b:10:cf:23:26:cc:4b:20:cb:90:1f:5d:8c:4c:34:ca:3c:
         d8:e5:37:d6:6f:a5:20:bd:34:eb:26:d9:ae:0d:e7:c5:9a:f7:
         a1:b4:21:91:33:6f:86:e8:58:bb:25:7c:74:0e:58:fe:75:1b:
         63:3f:ce:31:7c:9b:8f:1b:96:9e:c5:53:76:84:5b:9c:ad:91:
         fa:ac:ed:93:ba:5d:c8:21:53:c2:82:53:63:af:12:0d:50:87:
         11:1b:3d:54:52:96:8a:2c:9c:3d:92:1a:08:9a:05:2e:c7:93:
         a5:48:91:d3
-----BEGIN CERTIFICATE-----
MIIGCjCCBPKgAwIBAgIQUgDlqiVW/BqG7ZbJ1EszxzANBgkqhkiG9w0BAQUFADCB
yjELMAkGA1UEBhMCVVMxFzAVBgNVBAoTDlZlcmlTaWduLCBJbmMuMR8wHQYDVQQL
ExZWZXJpU2lnbiBUcnVzdCBOZXR3b3JrMTowOAYDVQQLEzEoYykgMjAwNiBWZXJp
U2lnbiwgSW5jLiAtIEZvciBhdXRob3JpemVkIHVzZSBvbmx5MUUwQwYDVQQDEzxW
ZXJpU2lnbiBDbGFzcyAzIFB1YmxpYyBQcmltYXJ5IENlcnRpZmljYXRpb24gQXV0
aG9yaXR5IC0gRzUwHhcNMTAwMjA4MDAwMDAwWhcNMjAwMjA3MjM1OTU5WjCBtDEL
MAkGA1UEBhMCVVMxFzAVBgNVBAoTDlZlcmlTaWduLCBJbmMuMR8wHQYDVQQLExZW
ZXJpU2lnbiBUcnVzdCBOZXR3b3JrMTswOQYDVQQLEzJUZXJtcyBvZiB1c2UgYXQg
aHR0cHM6Ly93d3cudmVyaXNpZ24uY29tL3JwYSAoYykxMDEuMCwGA1UEAxMlVmVy
aVNpZ24gQ2xhc3MgMyBDb2RlIFNpZ25pbmcgMjAxMCBDQTCCASIwDQYJKoZIhvcN
AQEBBQADggEPADCCAQoCggEBAPUjS16l14q7MunUV/fv5Mcmfq0ZmP6onX2U9jZr
ENd1gTB/BGh/yyt1Hs0dCIzfaZSnN6Oce4DgmeHuN01fzjsU7obU0PUnNbwlCzin
jGOdF6MIpauw+81qYoJM1SHaG9nx44Q7iipPhVuQAU/Jp3YQfycDfL6ufn3B3fkF
vBtInGnnwKQ8PEEAPt+W5cXklHHWVQHHACZKQDy1oSapDKdtgI6QJXvPvz8c6y+W
+uWHd8a1VrJ6O1QwUxvfYjT/HtH0WpMoheVMF05+W/2kk5l/383vpHXv7xX2R+f4
GXLYLjQaprSnTH69u08MPVfxMNamNo7WgHbXGS6lzX40LYkCAwEAAaOCAf4wggH6
MBIGA1UdEwEB/wQIMAYBAf8CAQAwcAYDVR0gBGkwZzBlBgtghkgBhvhFAQcXAzBW
MCgGCCsGAQUFBwIBFhxodHRwczovL3d3dy52ZXJpc2lnbi5jb20vY3BzMCoGCCsG
AQUFBwICMB4aHGh0dHBzOi8vd3d3LnZlcmlzaWduLmNvbS9ycGEwDgYDVR0PAQH/
BAQDAgEGMG0GCCsGAQUFBwEMBGEwX6FdoFswWTBXMFUWCWltYWdlL2dpZjAhMB8w
BwYFKw4DAhoEFI/l0xqGrI2Oa8PPgGrUSBgsexkuMCUWI2h0dHA6Ly9sb2dvLnZl
cmlzaWduLmNvbS92c2xvZ28uZ2lmMDQGA1UdHwQtMCswKaAnoCWGI2h0dHA6Ly9j
cmwudmVyaXNpZ24uY29tL3BjYTMtZzUuY3JsMDQGCCsGAQUFBwEBBCgwJjAkBggr
BgEFBQcwAYYYaHR0cDovL29jc3AudmVyaXNpZ24uY29tMB0GA1UdJQQWMBQGCCsG
AQUFBwMCBggrBgEFBQcDAzAoBgNVHREEITAfpB0wGzEZMBcGA1UEAxMQVmVyaVNp
Z25NUEtJLTItODAdBgNVHQ4EFgQUz5mp6nsm9EvJjo/X8AUm7+PSp50wHwYDVR0j
BBgwFoAUf9Nlp8Ld7LvwMAnzQzn6Aq8zMTMwDQYJKoZIhvcNAQEFBQADggEBAFYi
5jSkxGHLSLkBrVaoZA/ZjJHEu8wM5a16oCJ/30c4Si1s0X9xGnzscKmx8E/kDwxT
+hVe/nSYSSSFgSYckRRHsExjjLuhNNTGRegNhSZzA9CpjGRt3HGS5kUFYBVZUTn8
WBRr/tSk7XlrCAxBcuc3IgYJviPpP0SaHulhncyxkFz8PdKNrEI9ZTbUtD1AKI+b
EM8jJsxLIMuQH12MTDTKPNjlN9ZvpSC9NOsm2a4N58Wa96G0IZEzb4boWLslfHQO
WP51G2M/zjF8m48blp7FU3aEW5ytkfqs7ZO6XcghU8KCU2OvEg1QhxEbPVRSloos
nD2SGgiaBS7Hk6VIkdM=
-----END CERTIFICATE-----

