Certificate:
    Data:
        Version: 3 (0x2)
        Serial Number:
            38:25:d7:fa:f8:61:af:9e:f4:90:e7:26:b5:d6:5a:d5
    Signature Algorithm: sha1WithRSAEncryption
        Issuer: C=US, O=VeriSign, Inc., CN=VeriSign Time Stamping Services CA
        Validity
            Not Before: Jun 15 00:00:00 2007 GMT
            Not After : Jun 14 23:59:59 2012 GMT
        Subject: C=US, O=VeriSign, Inc., CN=VeriSign Time Stamping Services Signer - G2
        Subject Public Key Info:
            Public Key Algorithm: rsaEncryption
                Public-Key: (1024 bit)
                Modulus:
                    00:c4:b5:f2:52:15:bc:88:86:60:29:16:4a:5b:2f:
                    4b:91:6b:87:91:f3:35:54:58:35:ea:d1:36:5e:62:
                    4d:52:51:34:71:c2:7b:66:1d:89:c8:dd:2a:c4:6a:
                    0a:f6:37:d9:98:74:91:f6:92:ae:b0:b5:76:96:f1:
                    a9:4a:63:45:47:2e:6b:0b:92:4e:4b:2b:8c:ee:58:
                    4a:8b:d4:07:e4:1a:2c:f8:82:aa:58:d9:cd:42:f3:
                    2d:c0:75:de:8d:ab:c7:8e:1d:9a:6c:4c:08:95:1e:
                    de:db:ef:67:e1:72:c2:49:c2:9e:60:3c:e1:e2:be:
                    16:a3:63:78:69:14:7b:ad:2d
                Exponent: 65537 (0x10001)
        X509v3 extensions:
            Authority Information Access: 
                OCSP - URI:http://ocsp.verisign.com

            X509v3 Basic Constraints: critical
                CA:FALSE
            X509v3 CRL Distribution Points: 

                Full Name:
                  URI:http://crl.verisign.com/tss-ca.crl

            X509v3 Extended Key Usage: critical
                Time Stamping
            X509v3 Key Usage: critical
                Digital Signature, Non Repudiation
            X509v3 Subject Alternative Name: 
                DirName:/CN=TSA1-2
    Signature Algorithm: sha1WithRSAEncryption
         50:c5:4b:c8:24:80:df:e4:0d:24:c2:de:1a:b1:a1:02:a1:a6:
         82:2d:0c:83:15:81:37:0a:82:0e:2c:b0:5a:17:61:b5:d8:05:
         fe:88:db:f1:91:91:b3:56:1a:40:a6:eb:92:be:38:39:b0:75:
         36:74:3a:98:4f:e4:37:ba:99:89:ca:95:42:1d:b0:b9:c7:a0:
         8d:57:e0:fa:d5:64:04:42:35:4e:01:d1:33:a2:17:c8:4d:aa:
         27:c7:f2:e1:86:4c:02:38:4d:83:78:c6:fc:53:e0:eb:e0:06:
         87:dd:a4:96:9e:5e:0c:98:e2:a5:be:bf:82:85:c3:60:e1:df:
         ad:28:d8:c7:a5:4b:64:da:c7:1b:5b:bd:ac:39:08:d5:38:22:
         a1:33:8b:2f:8a:9a:eb:bc:07:21:3f:44:41:09:07:b5:65:1c:
         24:bc:48:d3:44:80:eb:a1:cf:c9:02:b4:14:cf:54:c7:16:a3:
         80:5c:f9:79:3e:5d:72:7d:88:17:9e:2c:43:a2:ca:53:ce:7d:
         3d:f6:2a:3a:b8:4f:94:00:a5:6d:0a:83:5d:f9:5e:53:f4:18:
         b3:57:0f:70:c3:fb:f5:ad:95:a0:0e:17:de:c4:16:80:60:c9:
         0f:2b:6e:86:04:f1:eb:f4:78:27:d1:05:c5:ee:34:5b:5e:b9:
         49:32:f2:33
-----BEGIN CERTIFICATE-----
MIIDejCCAmKgAwIBAgIQOCXX+vhhr570kOcmtdZa1TANBgkqhkiG9w0BAQUFADBT
MQswCQYDVQQGEwJVUzEXMBUGA1UEChMOVmVyaVNpZ24sIEluYy4xKzApBgNVBAMT
IlZlcmlTaWduIFRpbWUgU3RhbXBpbmcgU2VydmljZXMgQ0EwHhcNMDcwNjE1MDAw
MDAwWhcNMTIwNjE0MjM1OTU5WjBcMQswCQYDVQQGEwJVUzEXMBUGA1UEChMOVmVy
aVNpZ24sIEluYy4xNDAyBgNVBAMTK1ZlcmlTaWduIFRpbWUgU3RhbXBpbmcgU2Vy
dmljZXMgU2lnbmVyIC0gRzIwgZ8wDQYJKoZIhvcNAQEBBQADgY0AMIGJAoGBAMS1
8lIVvIiGYCkWSlsvS5Frh5HzNVRYNerRNl5iTVJRNHHCe2YdicjdKsRqCvY32Zh0
kfaSrrC1dpbxqUpjRUcuawuSTksrjO5YSovUB+QaLPiCqljZzULzLcB13o2rx44d
mmxMCJUe3tvvZ+FywknCnmA84eK+FqNjeGkUe60tAgMBAAGjgcQwgcEwNAYIKwYB
BQUHAQEEKDAmMCQGCCsGAQUFBzABhhhodHRwOi8vb2NzcC52ZXJpc2lnbi5jb20w
DAYDVR0TAQH/BAIwADAzBgNVHR8ELDAqMCigJqAkhiJodHRwOi8vY3JsLnZlcmlz
aWduLmNvbS90c3MtY2EuY3JsMBYGA1UdJQEB/wQMMAoGCCsGAQUFBwMIMA4GA1Ud
DwEB/wQEAwIGwDAeBgNVHREEFzAVpBMwETEPMA0GA1UEAxMGVFNBMS0yMA0GCSqG
SIb3DQEBBQUAA4IBAQBQxUvIJIDf5A0kwt4asaECoaaCLQyDFYE3CoIOLLBaF2G1
2AX+iNvxkZGzVhpApuuSvjg5sHU2dDqYT+Q3upmJypVCHbC5x6CNV+D61WQEQjVO
AdEzohfITaonx/LhhkwCOE2DeMb8U+Dr4AaH3aSWnl4MmOKlvr+ChcNg4d+tKNjH
pUtk2scbW72sOQjVOCKhM4sviprrvAchP0RBCQe1ZRwkvEjTRIDroc/JArQUz1TH
FqOAXPl5Pl1yfYgXnixDospTzn099io6uE+UAKVtCoNd+V5T9BizVw9ww/v1rZWg
DhfexBaAYMkPK26GBPHr9Hgn0QXF7jRbXrlJMvIz
-----END CERTIFICATE-----

Certificate:
    Data:
        Version: 3 (0x2)
        Serial Number:
            47:bf:19:95:df:8d:52:46:43:f7:db:6d:48:0d:31:a4
    Signature Algorithm: sha1WithRSAEncryption
        Issuer: C=ZA, ST=Western Cape, L=Durbanville, O=Thawte, OU=Thawte Certification, CN=Thawte Timestamping CA
        Validity
            Not Before: Dec  4 00:00:00 2003 GMT
            Not After : Dec  3 23:59:59 2013 GMT
        Subject: C=US, O=VeriSign, Inc., CN=VeriSign Time Stamping Services CA
        Subject Public Key Info:
            Public Key Algorithm: rsaEncryption
                Public-Key: (2048 bit)
                Modulus:
                    00:a9:ca:b2:a4:cc:cd:20:af:0a:7d:89:ac:87:75:
                    f0:b4:4e:f1:df:c1:0f:bf:67:61:bd:a3:64:1c:da:
                    bb:f9:ca:33:ab:84:30:89:58:7e:8c:db:6b:dd:36:
                    9e:0f:bf:d1:ec:78:f2:77:a6:7e:6f:3c:bf:93:af:
                    0d:ba:68:f4:6c:94:ca:bd:52:2d:ab:48:3d:f5:b6:
                    d5:5d:5f:1b:02:9f:fa:2f:6b:1e:a4:f7:a3:9a:a6:
                    1a:c8:02:e1:7f:4c:52:e3:0e:60:ec:40:1c:7e:b9:
                    0d:de:3f:c7:b4:df:87:bd:5f:7a:6a:31:2e:03:99:
                    81:13:a8:47:20:ce:31:73:0d:57:2d:cd:78:34:33:
                    95:12:99:12:b9:de:68:2f:aa:e6:e3:c2:8a:8c:2a:
                    c3:8b:21:87:66:bd:83:58:57:6f:75:bf:3c:aa:26:
                    87:5d:ca:10:15:3c:9f:84:ea:54:c1:0a:6e:c4:fe:
                    c5:4a:dd:b9:07:11:97:22:7c:db:3e:27:d1:1e:78:
                    ec:9f:31:c9:f1:e6:22:19:db:c4:b3:47:43:9a:1a:
                    5f:a0:1e:90:e4:5e:f5:ee:7c:f1:7d:ab:62:01:8f:
                    f5:4d:0b:de:d0:22:56:a8:95:cd:ae:88:76:ae:ee:
                    ba:0d:f3:e4:4d:d9:a0:fb:68:a0:ae:14:3b:b3:87:
                    c1:bb
                Exponent: 65537 (0x10001)
        X509v3 extensions:
            Authority Information Access: 
                OCSP - URI:http://ocsp.verisign.com

            X509v3 Basic Constraints: critical
                CA:TRUE, pathlen:0
            X509v3 CRL Distribution Points: 

                Full Name:
                  URI:http://crl.verisign.com/ThawteTimestampingCA.crl

            X509v3 Extended Key Usage: 
                Time Stamping
            X509v3 Key Usage: critical
                Certificate Sign, CRL Sign
            X509v3 Subject Alternative Name: 
                DirName:/CN=TSA2048-1-53
    Signature Algorithm: sha1WithRSAEncryption
         4a:6b:f9:ea:58:c2:44:1c:31:89:79:99:2b:96:bf:82:ac:01:
         d6:1c:4c:cd:b0:8a:58:6e:df:08:29:a3:5e:c8:ca:93:13:e7:
         04:52:0d:ef:47:27:2f:00:38:b0:e4:c9:93:4e:9a:d4:22:62:
         15:f7:3f:37:21:4f:70:31:80:f1:8b:38:87:b3:e8:e8:97:00:
         fe:cf:55:96:4e:24:d2:a9:27:4e:7a:ae:b7:61:41:f3:2a:ce:
         e7:c9:d9:5e:dd:bb:2b:85:3e:b5:9d:b5:d9:e1:57:ff:be:b4:
         c5:7e:f5:cf:0c:9e:f0:97:fe:2b:d3:3b:52:1b:1b:38:27:f7:
         3f:4a
-----BEGIN CERTIFICATE-----
MIIDxDCCAy2gAwIBAgIQR78Zld+NUkZD99ttSA0xpDANBgkqhkiG9w0BAQUFADCB
izELMAkGA1UEBhMCWkExFTATBgNVBAgTDFdlc3Rlcm4gQ2FwZTEUMBIGA1UEBxML
RHVyYmFudmlsbGUxDzANBgNVBAoTBlRoYXd0ZTEdMBsGA1UECxMUVGhhd3RlIENl
cnRpZmljYXRpb24xHzAdBgNVBAMTFlRoYXd0ZSBUaW1lc3RhbXBpbmcgQ0EwHhcN
MDMxMjA0MDAwMDAwWhcNMTMxMjAzMjM1OTU5WjBTMQswCQYDVQQGEwJVUzEXMBUG
A1UEChMOVmVyaVNpZ24sIEluYy4xKzApBgNVBAMTIlZlcmlTaWduIFRpbWUgU3Rh
bXBpbmcgU2VydmljZXMgQ0EwggEiMA0GCSqGSIb3DQEBAQUAA4IBDwAwggEKAoIB
AQCpyrKkzM0grwp9iayHdfC0TvHfwQ+/Z2G9o2Qc2rv5yjOrhDCJWH6M22vdNp4P
v9HsePJ3pn5vPL+Trw26aPRslMq9Ui2rSD31ttVdXxsCn/ovax6k96OaphrIAuF/
TFLjDmDsQBx+uQ3eP8e034e9X3pqMS4DmYETqEcgzjFzDVctzXg0M5USmRK53mgv
qubjwoqMKsOLIYdmvYNYV291vzyqJoddyhAVPJ+E6lTBCm7E/sVK3bkHEZcifNs+
J9EeeOyfMcnx5iIZ28SzR0OaGl+gHpDkXvXufPF9q2IBj/VNC97QIlaolc2uiHau
7roN8+RN2aD7aKCuFDuzh8G7AgMBAAGjgdswgdgwNAYIKwYBBQUHAQEEKDAmMCQG
CCsGAQUFBzABhhhodHRwOi8vb2NzcC52ZXJpc2lnbi5jb20wEgYDVR0TAQH/BAgw
BgEB/wIBADBBBgNVHR8EOjA4MDagNKAyhjBodHRwOi8vY3JsLnZlcmlzaWduLmNv
bS9UaGF3dGVUaW1lc3RhbXBpbmdDQS5jcmwwEwYDVR0lBAwwCgYIKwYBBQUHAwgw
DgYDVR0PAQH/BAQDAgEGMCQGA1UdEQQdMBukGTAXMRUwEwYDVQQDEwxUU0EyMDQ4
LTEtNTMwDQYJKoZIhvcNAQEFBQADgYEASmv56ljCRBwxiXmZK5a/gqwB1hxMzbCK
WG7fCCmjXsjKkxPnBFIN70cnLwA4sOTJk06a1CJiFfc/NyFPcDGA8Ys4h7Po6JcA
/s9Vlk4k0qknTnqut2FB8yrO58nZXt27K4U+tZ212eFX/760xX71zwye8Jf+K9M7
UhsbOCf3P0o=
-----END CERTIFICATE-----

Certificate:
    Data:
        Version: 3 (0x2)
        Serial Number:
            2b:ad:ad:20:cc:bc:17:01:64:bd:ec:8f:bc:a0:69:24
    Signature Algorithm: sha1WithRSAEncryption
        Issuer: C=US, O=VeriSign, Inc., OU=VeriSign Trust Network, OU=Terms of use at https://www.verisign.com/rpa (c)10, CN=VeriSign Class 3 Code Signing 2010 CA
        Validity
            Not Before: May 23 00:00:00 2011 GMT
            Not After : May 22 23:59:59 2012 GMT
        Subject: C=KR, ST=Seoul, L=Yeongdeungpo-gu, O=AhnLab, Inc., OU=Digital ID Class 3 - Microsoft Software Validation v2, CN=AhnLab, Inc.
        Subject Public Key Info:
            Public Key Algorithm: rsaEncryption
                Public-Key: (2048 bit)
                Modulus:
                    00:ed:6b:47:00:32:0c:f5:10:2f:56:09:07:be:b8:
                    22:be:e9:2f:b4:3f:30:02:56:32:cd:aa:f7:e0:7e:
                    b8:7f:79:de:fb:a2:81:c0:91:d7:59:d0:ca:fe:26:
                    d6:77:87:68:90:02:c6:34:81:6a:f2:14:bf:33:d5:
                    b0:eb:48:83:6b:cf:93:66:9c:f4:0c:bc:fb:56:08:
                    2b:7f:5d:f6:ed:41:33:0d:b0:03:6f:dd:bb:93:e5:
                    45:98:58:e1:39:f7:a5:c1:e1:f5:d6:7a:de:35:c4:
                    59:fc:77:a7:b9:de:f8:c3:43:9c:92:2e:b5:bc:b7:
                    57:8a:09:d5:56:12:cd:ad:14:03:3a:af:90:94:6f:
                    d3:f5:13:c9:27:19:40:ad:f8:84:eb:e4:ab:8e:58:
                    ae:bb:9f:b4:19:7e:7f:d2:36:67:ec:d7:03:e8:8b:
                    52:27:8e:00:b3:4a:fc:57:dc:f6:a4:c7:69:26:18:
                    08:30:dd:2e:1d:cf:8b:fe:65:79:68:0a:a7:75:08:
                    b2:73:dd:11:72:61:5c:c2:f6:f7:34:ef:57:22:52:
                    94:c1:9c:f8:95:34:55:c3:5f:10:18:dc:c8:34:e0:
                    9d:c7:b9:c9:e7:01:1d:83:0b:b3:a0:3d:a5:5e:dd:
                    a1:47:d4:87:97:03:fd:50:ac:86:0f:04:19:c8:87:
                    0e:9d
                Exponent: 65537 (0x10001)
        X509v3 extensions:
            X509v3 Basic Constraints: 
                CA:FALSE
            X509v3 Key Usage: critical
                Digital Signature
            X509v3 CRL Distribution Points: 

                Full Name:
                  URI:http://csc3-2010-crl.verisign.com/CSC3-2010.crl

            X509v3 Certificate Policies: 
                Policy: 2.16.840.1.113733.1.7.23.3
                  CPS: https://www.verisign.com/rpa

            X509v3 Extended Key Usage: 
                Code Signing
            Authority Information Access: 
                OCSP - URI:http://ocsp.verisign.com
                CA Issuers - URI:http://csc3-2010-aia.verisign.com/CSC3-2010.cer

            X509v3 Authority Key Identifier: 
                keyid:CF:99:A9:EA:7B:26:F4:4B:C9:8E:8F:D7:F0:05:26:EF:E3:D2:A7:9D

            Netscape Cert Type: 
                Object Signing
            1.3.6.1.4.1.311.2.1.27: 
                0.......
    Signature Algorithm: sha1WithRSAEncryption
         42:ca:db:90:fb:d3:c0:1d:a1:80:63:2a:f9:ad:04:4a:8b:07:
         bd:46:aa:56:50:6d:4c:c2:cb:88:d0:88:b3:eb:fd:f2:8f:f7:
         fa:46:6f:5b:8b:ab:fe:f6:75:6d:6c:7e:96:3d:de:65:2f:6e:
         bf:bd:60:ae:93:4e:a3:33:45:c7:3b:69:06:0e:d9:33:a4:a6:
         0d:3d:e8:58:42:82:73:2e:e9:77:24:4b:4e:ce:00:ab:67:46:
         3d:b8:0c:0c:9e:06:fb:c5:7c:b5:75:27:fa:77:66:68:63:6d:
         54:78:12:2f:ac:ab:a4:21:6a:d9:32:61:ab:4d:92:2a:12:81:
         25:48:a4:3d:5c:4a:73:6d:7f:ba:59:9f:a2:4f:33:38:14:c4:
         49:94:ad:02:f0:45:77:53:56:ab:ad:73:3d:d5:70:5c:0b:5b:
         27:82:74:61:7d:27:1f:52:dd:6c:bf:91:b1:96:12:44:7b:8a:
         0e:62:0a:34:d9:83:d6:f4:98:7a:bc:6d:36:c3:92:76:b0:d9:
         63:8e:85:5b:17:ff:a5:91:36:8c:63:66:0e:f9:26:51:58:cc:
         04:2a:22:b5:93:ac:f9:09:1b:95:99:21:8a:e4:14:34:e7:f0:
         02:54:ba:ea:83:d9:74:75:f4:5f:87:be:74:63:b1:8a:e5:66:
         4d:37:24:0f
-----BEGIN CERTIFICATE-----
MIIFYjCCBEqgAwIBAgIQK62tIMy8FwFkveyPvKBpJDANBgkqhkiG9w0BAQUFADCB
tDELMAkGA1UEBhMCVVMxFzAVBgNVBAoTDlZlcmlTaWduLCBJbmMuMR8wHQYDVQQL
ExZWZXJpU2lnbiBUcnVzdCBOZXR3b3JrMTswOQYDVQQLEzJUZXJtcyBvZiB1c2Ug
YXQgaHR0cHM6Ly93d3cudmVyaXNpZ24uY29tL3JwYSAoYykxMDEuMCwGA1UEAxMl
VmVyaVNpZ24gQ2xhc3MgMyBDb2RlIFNpZ25pbmcgMjAxMCBDQTAeFw0xMTA1MjMw
MDAwMDBaFw0xMjA1MjIyMzU5NTlaMIGlMQswCQYDVQQGEwJLUjEOMAwGA1UECBMF
U2VvdWwxGDAWBgNVBAcTD1llb25nZGV1bmdwby1ndTEVMBMGA1UEChQMQWhuTGFi
LCBJbmMuMT4wPAYDVQQLEzVEaWdpdGFsIElEIENsYXNzIDMgLSBNaWNyb3NvZnQg
U29mdHdhcmUgVmFsaWRhdGlvbiB2MjEVMBMGA1UEAxQMQWhuTGFiLCBJbmMuMIIB
IjANBgkqhkiG9w0BAQEFAAOCAQ8AMIIBCgKCAQEA7WtHADIM9RAvVgkHvrgivukv
tD8wAlYyzar34H64f3ne+6KBwJHXWdDK/ibWd4dokALGNIFq8hS/M9Ww60iDa8+T
Zpz0DLz7Vggrf1327UEzDbADb927k+VFmFjhOfelweH11nreNcRZ/Henud74w0Oc
ki61vLdXignVVhLNrRQDOq+QlG/T9RPJJxlArfiE6+Srjliuu5+0GX5/0jZn7NcD
6ItSJ44As0r8V9z2pMdpJhgIMN0uHc+L/mV5aAqndQiyc90RcmFcwvb3NO9XIlKU
wZz4lTRVw18QGNzINOCdx7nJ5wEdgwuzoD2lXt2hR9SHlwP9UKyGDwQZyIcOnQID
AQABo4IBezCCAXcwCQYDVR0TBAIwADAOBgNVHQ8BAf8EBAMCB4AwQAYDVR0fBDkw
NzA1oDOgMYYvaHR0cDovL2NzYzMtMjAxMC1jcmwudmVyaXNpZ24uY29tL0NTQzMt
MjAxMC5jcmwwRAYDVR0gBD0wOzA5BgtghkgBhvhFAQcXAzAqMCgGCCsGAQUFBwIB
FhxodHRwczovL3d3dy52ZXJpc2lnbi5jb20vcnBhMBMGA1UdJQQMMAoGCCsGAQUF
BwMDMHEGCCsGAQUFBwEBBGUwYzAkBggrBgEFBQcwAYYYaHR0cDovL29jc3AudmVy
aXNpZ24uY29tMDsGCCsGAQUFBzAChi9odHRwOi8vY3NjMy0yMDEwLWFpYS52ZXJp
c2lnbi5jb20vQ1NDMy0yMDEwLmNlcjAfBgNVHSMEGDAWgBTPmanqeyb0S8mOj9fw
BSbv49KnnTARBglghkgBhvhCAQEEBAMCBBAwFgYKKwYBBAGCNwIBGwQIMAYBAQAB
Af8wDQYJKoZIhvcNAQEFBQADggEBAELK25D708AdoYBjKvmtBEqLB71GqlZQbUzC
y4jQiLPr/fKP9/pGb1uLq/72dW1sfpY93mUvbr+9YK6TTqMzRcc7aQYO2TOkpg09
6FhCgnMu6XckS07OAKtnRj24DAyeBvvFfLV1J/p3ZmhjbVR4Ei+sq6QhatkyYatN
kioSgSVIpD1cSnNtf7pZn6JPMzgUxEmUrQLwRXdTVqutcz3VcFwLWyeCdGF9Jx9S
3Wy/kbGWEkR7ig5iCjTZg9b0mHq8bTbDknaw2WOOhVsX/6WRNoxjZg75JlFYzAQq
IrWTrPkJG5WZIYrkFDTn8AJUuuqD2XR19F+HvnRjsYrlZk03JA8=
-----END CERTIFICATE-----

Certificate:
    Data:
        Version: 3 (0x2)
        Serial Number:
            61:19:93:e4:00:00:00:00:00:1c
    Signature Algorithm: sha1WithRSAEncryption
        Issuer: C=US, ST=Washington, L=Redmond, O=Microsoft Corporation, CN=Microsoft Code Verification Root
        Validity
            Not Before: Feb 22 19:25:17 2011 GMT
            Not After : Feb 22 19:35:17 2021 GMT
        Subject: C=US, O=VeriSign, Inc., OU=VeriSign Trust Network, OU=(c) 2006 VeriSign, Inc. - For authorized use only, CN=VeriSign Class 3 Public Primary Certification Authority - G5
        Subject Public Key Info:
            Public Key Algorithm: rsaEncryption
                Public-Key: (2048 bit)
                Modulus:
                    00:af:24:08:08:29:7a:35:9e:60:0c:aa:e7:4b:3b:
                    4e:dc:7c:bc:3c:45:1c:bb:2b:e0:fe:29:02:f9:57:
                    08:a3:64:85:15:27:f5:f1:ad:c8:31:89:5d:22:e8:
                    2a:aa:a6:42:b3:8f:f8:b9:55:b7:b1:b7:4b:b3:fe:
                    8f:7e:07:57:ec:ef:43:db:66:62:15:61:cf:60:0d:
                    a4:d8:de:f8:e0:c3:62:08:3d:54:13:eb:49:ca:59:
                    54:85:26:e5:2b:8f:1b:9f:eb:f5:a1:91:c2:33:49:
                    d8:43:63:6a:52:4b:d2:8f:e8:70:51:4d:d1:89:69:
                    7b:c7:70:f6:b3:dc:12:74:db:7b:5d:4b:56:d3:96:
                    bf:15:77:a1:b0:f4:a2:25:f2:af:1c:92:67:18:e5:
                    f4:06:04:ef:90:b9:e4:00:e4:dd:3a:b5:19:ff:02:
                    ba:f4:3c:ee:e0:8b:eb:37:8b:ec:f4:d7:ac:f2:f6:
                    f0:3d:af:dd:75:91:33:19:1d:1c:40:cb:74:24:19:
                    21:93:d9:14:fe:ac:2a:52:c7:8f:d5:04:49:e4:8d:
                    63:47:88:3c:69:83:cb:fe:47:bd:2b:7e:4f:c5:95:
                    ae:0e:9d:d4:d1:43:c0:67:73:e3:14:08:7e:e5:3f:
                    9f:73:b8:33:0a:cf:5d:3f:34:87:96:8a:ee:53:e8:
                    25:15
                Exponent: 65537 (0x10001)
        X509v3 extensions:
            X509v3 Certificate Policies: 
                Policy: X509v3 Any Policy

            X509v3 Basic Constraints: critical
                CA:TRUE
            X509v3 Key Usage: 
                Digital Signature, Certificate Sign, CRL Sign
            X509v3 Subject Key Identifier: 
                7F:D3:65:A7:C2:DD:EC:BB:F0:30:09:F3:43:39:FA:02:AF:33:31:33
            X509v3 Authority Key Identifier: 
                keyid:62:FB:0A:21:5B:7F:43:6E:11:DA:09:54:50:6B:F5:D2:96:71:F1:9E

            X509v3 CRL Distribution Points: 

                Full Name:
                  URI:http://crl.microsoft.com/pki/crl/products/MicrosoftCodeVerifRoot.crl

    Signature Algorithm: sha1WithRSAEncryption
         81:2a:82:16:8c:34:67:2b:e5:03:eb:34:7b:8c:a2:a3:50:8a:
         f4:55:86:f1:1e:8c:8e:ae:7d:ee:03:19:ce:72:95:18:48:ad:
         62:11:fd:20:fd:3f:47:06:01:5a:e2:e0:6f:8c:15:2c:4e:3c:
         6a:50:6c:0b:36:a3:cf:7a:0d:9c:42:bc:5c:f8:19:d5:60:e3:
         69:e6:e2:23:41:67:8c:68:83:76:2b:8f:93:a3:2a:b5:7f:be:
         59:fb:a9:c9:b2:26:8f:ca:a2:f3:82:1b:98:3e:91:95:27:97:
         86:61:ee:5b:5d:07:6b:cd:86:a8:e2:65:80:a8:e2:15:e2:b2:
         be:23:05:6a:ba:0c:f3:47:93:4d:ac:a4:8c:07:79:39:c0:61:
         12:3a:05:0d:89:a3:ec:9f:57:89:84:fb:ec:ca:7c:47:66:14:
         91:d8:b6:0f:19:5d:e6:b8:4a:ac:bc:47:c8:71:43:96:e6:32:
         20:a5:dc:77:86:fd:3c:e3:8b:71:db:7b:9b:03:fc:b7:1d:32:
         64:eb:16:52:a0:43:a3:fa:2e:ad:59:92:4e:7c:c7:f2:33:42:
         48:38:51:3a:7c:38:c7:1b:24:22:28:40:1e:1a:46:1f:17:db:
         18:f7:f0:27:35:6c:b8:63:d9:cd:b9:64:5d:2b:a5:5e:ef:c6:
         29:b4:f2:c7:f8:21:cc:04:ba:57:fd:01:b6:ab:c6:67:f9:e7:
         d3:99:7f:f4:f5:22:fa:72:f5:fd:ff:3a:1c:42:3a:a1:f9:80:
         18:a5:ee:8d:1c:d4:66:9e:45:01:fe:aa:ee:ff:fb:17:8f:30:
         f7:f1:cd:29:c5:9d:ec:b5:d5:49:00:3d:85:b8:cb:bb:93:3a:
         27:6a:49:c0:30:ae:66:c9:f7:23:28:32:76:f9:a4:83:56:c8:
         48:ce:5a:96:aa:a0:cc:0c:c4:7f:b4:8e:97:af:6d:e3:54:27:
         c3:9f:86:c0:d6:e4:73:08:97:05:db:d0:54:62:5e:03:48:c2:
         d5:9f:7f:a7:66:8c:d0:9d:b0:4f:d4:d3:98:5f:4b:7a:c9:7f:
         b2:29:52:d0:12:80:c7:0f:54:b6:1e:67:cd:c6:a0:6c:11:03:
         84:d3:48:75:e7:2a:fe:b0:3b:6e:0a:3a:a6:6b:76:99:05:a3:
         f1:77:68:61:33:14:47:06:fc:53:7f:52:bd:92:14:5c:4a:24:
         6a:67:8c:af:8d:90:aa:d0:f6:79:21:1b:93:26:7c:c3:ce:1e:
         bd:88:38:92:ae:45:c6:19:6a:49:50:b3:05:f8:ae:59:37:8a:
         6a:25:03:94:b1:59:81:50:e8:ba:83:80:b7:23:35:f4:76:b9:
         67:1d:59:18:ad:20:8d:94
-----BEGIN CERTIFICATE-----
MIIFmjCCA4KgAwIBAgIKYRmT5AAAAAAAHDANBgkqhkiG9w0BAQUFADB/MQswCQYD
VQQGEwJVUzETMBEGA1UECBMKV2FzaGluZ3RvbjEQMA4GA1UEBxMHUmVkbW9uZDEe
MBwGA1UEChMVTWljcm9zb2Z0IENvcnBvcmF0aW9uMSkwJwYDVQQDEyBNaWNyb3Nv
ZnQgQ29kZSBWZXJpZmljYXRpb24gUm9vdDAeFw0xMTAyMjIxOTI1MTdaFw0yMTAy
MjIxOTM1MTdaMIHKMQswCQYDVQQGEwJVUzEXMBUGA1UEChMOVmVyaVNpZ24sIElu
Yy4xHzAdBgNVBAsTFlZlcmlTaWduIFRydXN0IE5ldHdvcmsxOjA4BgNVBAsTMShj
KSAyMDA2IFZlcmlTaWduLCBJbmMuIC0gRm9yIGF1dGhvcml6ZWQgdXNlIG9ubHkx
RTBDBgNVBAMTPFZlcmlTaWduIENsYXNzIDMgUHVibGljIFByaW1hcnkgQ2VydGlm
aWNhdGlvbiBBdXRob3JpdHkgLSBHNTCCASIwDQYJKoZIhvcNAQEBBQADggEPADCC
AQoCggEBAK8kCAgpejWeYAyq50s7Ttx8vDxFHLsr4P4pAvlXCKNkhRUn9fGtyDGJ
XSLoKqqmQrOP+LlVt7G3S7P+j34HV+zvQ9tmYhVhz2ANpNje+ODDYgg9VBPrScpZ
VIUm5SuPG5/r9aGRwjNJ2ENjalJL0o/ocFFN0Ylpe8dw9rPcEnTbe11LVtOWvxV3
obD0oiXyrxySZxjl9AYE75C55ADk3Tq1Gf8CuvQ87uCL6zeL7PTXrPL28D2v3XWR
MxkdHEDLdCQZIZPZFP6sKlLHj9UESeSNY0eIPGmDy/5HvSt+T8WVrg6d1NFDwGdz
4xQIfuU/n3O4MwrPXT80h5aK7lPoJRUCAwEAAaOByzCByDARBgNVHSAECjAIMAYG
BFUdIAAwDwYDVR0TAQH/BAUwAwEB/zALBgNVHQ8EBAMCAYYwHQYDVR0OBBYEFH/T
ZafC3ey78DAJ80M5+gKvMzEzMB8GA1UdIwQYMBaAFGL7CiFbf0NuEdoJVFBr9dKW
cfGeMFUGA1UdHwROMEwwSqBIoEaGRGh0dHA6Ly9jcmwubWljcm9zb2Z0LmNvbS9w
a2kvY3JsL3Byb2R1Y3RzL01pY3Jvc29mdENvZGVWZXJpZlJvb3QuY3JsMA0GCSqG
SIb3DQEBBQUAA4ICAQCBKoIWjDRnK+UD6zR7jKKjUIr0VYbxHoyOrn3uAxnOcpUY
SK1iEf0g/T9HBgFa4uBvjBUsTjxqUGwLNqPPeg2cQrxc+BnVYONp5uIjQWeMaIN2
K4+Toyq1f75Z+6nJsiaPyqLzghuYPpGVJ5eGYe5bXQdrzYao4mWAqOIV4rK+IwVq
ugzzR5NNrKSMB3k5wGESOgUNiaPsn1eJhPvsynxHZhSR2LYPGV3muEqsvEfIcUOW
5jIgpdx3hv0844tx23ubA/y3HTJk6xZSoEOj+i6tWZJOfMfyM0JIOFE6fDjHGyQi
KEAeGkYfF9sY9/AnNWy4Y9nNuWRdK6Ve78YptPLH+CHMBLpX/QG2q8Zn+efTmX/0
9SL6cvX9/zocQjqh+YAYpe6NHNRmnkUB/qru//sXjzD38c0pxZ3stdVJAD2FuMu7
kzonaknAMK5myfcjKDJ2+aSDVshIzlqWqqDMDMR/tI6Xr23jVCfDn4bA1uRzCJcF
29BUYl4DSMLVn3+nZozQnbBP1NOYX0t6yX+yKVLQEoDHD1S2HmfNxqBsEQOE00h1
5yr+sDtuCjqma3aZBaPxd2hhMxRHBvxTf1K9khRcSiRqZ4yvjZCq0PZ5IRuTJnzD
zh69iDiSrkXGGWpJULMF+K5ZN4pqJQOUsVmBUOi6g4C3IzX0drlnHVkYrSCNlA==
-----END CERTIFICATE-----

Certificate:
    Data:
        Version: 3 (0x2)
        Serial Number:
            52:00:e5:aa:25:56:fc:1a:86:ed:96:c9:d4:4b:33:c7
    Signature Algorithm: sha1WithRSAEncryption
        Issuer: C=US, O=VeriSign, Inc., OU=VeriSign Trust Network, OU=(c) 2006 VeriSign, Inc. - For authorized use only, CN=VeriSign Class 3 Public Primary Certification Authority - G5
        Validity
            Not Before: Feb  8 00:00:00 2010 GMT
            Not After : Feb  7 23:59:59 2020 GMT
        Subject: C=US, O=VeriSign, Inc., OU=VeriSign Trust Network, OU=Terms of use at https://www.verisign.com/rpa (c)10, CN=VeriSign Class 3 Code Signing 2010 CA
        Subject Public Key Info:
            Public Key Algorithm: rsaEncryption
                Public-Key: (2048 bit)
                Modulus:
                    00:f5:23:4b:5e:a5:d7:8a:bb:32:e9:d4:57:f7:ef:
                    e4:c7:26:7e:ad:19:98:fe:a8:9d:7d:94:f6:36:6b:
                    10:d7:75:81:30:7f:04:68:7f:cb:2b:75:1e:cd:1d:
                    08:8c:df:69:94:a7:37:a3:9c:7b:80:e0:99:e1:ee:
                    37:4d:5f:ce:3b:14:ee:86:d4:d0:f5:27:35:bc:25:
                    0b:38:a7:8c:63:9d:17:a3:08:a5:ab:b0:fb:cd:6a:
                    62:82:4c:d5:21:da:1b:d9:f1:e3:84:3b:8a:2a:4f:
                    85:5b:90:01:4f:c9:a7:76:10:7f:27:03:7c:be:ae:
                    7e:7d:c1:dd:f9:05:bc:1b:48:9c:69:e7:c0:a4:3c:
                    3c:41:00:3e:df:96:e5:c5:e4:94:71:d6:55:01:c7:
                    00:26:4a:40:3c:b5:a1:26:a9:0c:a7:6d:80:8e:90:
                    25:7b:cf:bf:3f:1c:eb:2f:96:fa:e5:87:77:c6:b5:
                    56:b2:7a:3b:54:30:53:1b:df:62:34:ff:1e:d1:f4:
                    5a:93:28:85:e5:4c:17:4e:7e:5b:fd:a4:93:99:7f:
                    df:cd:ef:a4:75:ef:ef:15:f6:47:e7:f8:19:72:d8:
                    2e:34:1a:a6:b4:a7:4c:7e:bd:bb:4f:0c:3d:57:f1:
                    30:d6:a6:36:8e:d6:80:76:d7:19:2e:a5:cd:7e:34:
                    2d:89
                Exponent: 65537 (0x10001)
        X509v3 extensions:
            X509v3 Basic Constraints: critical
                CA:TRUE, pathlen:0
            X509v3 Certificate Policies: 
                Policy: 2.16.840.1.113733.1.7.23.3
                  CPS: https://www.verisign.com/cps
                  User Notice:
                    Explicit Text: https://www.verisign.com/rpa

            X509v3 Key Usage: critical
                Certificate Sign, CRL Sign
            1.3.6.1.5.5.7.1.12: 
                0_.].[0Y0W0U..image/gif0!0.0...+..............k...j.H.,{..0%.#http://logo.verisign.com/vslogo.gif
            X509v3 CRL Distribution Points: 

                Full Name:
                  URI:http://crl.verisign.com/pca3-g5.crl

            Authority Information Access: 
                OCSP - URI:http://ocsp.verisign.com

            X509v3 Extended Key Usage: 
                TLS Web Client Authentication, Code Signing
            X509v3 Subject Alternative Name: 
                DirName:/CN=VeriSignMPKI-2-8
            X509v3 Subject Key Identifier: 
                CF:99:A9:EA:7B:26:F4:4B:C9:8E:8F:D7:F0:05:26:EF:E3:D2:A7:9D
            X509v3 Authority Key Identifier: 
                keyid:7F:D3:65:A7:C2:DD:EC:BB:F0:30:09:F3:43:39:FA:02:AF:33:31:33

    Signature Algorithm: sha1WithRSAEncryption
         56:22:e6:34:a4:c4:61:cb:48:b9:01:ad:56:a8:64:0f:d9:8c:
         91:c4:bb:cc:0c:e5:ad:7a:a0:22:7f:df:47:38:4a:2d:6c:d1:
         7f:71:1a:7c:ec:70:a9:b1:f0:4f:e4:0f:0c:53:fa:15:5e:fe:
         74:98:49:24:85:81:26:1c:91:14:47:b0:4c:63:8c:bb:a1:34:
         d4:c6:45:e8:0d:85:26:73:03:d0:a9:8c:64:6d:dc:71:92:e6:
         45:05:60:15:59:51:39:fc:58:14:6b:fe:d4:a4:ed:79:6b:08:
         0c:41:72:e7:37:22:06:09:be:23:e9:3f:44:9a:1e:e9:61:9d:
         cc:b1:90:5c:fc:3d:d2:8d:ac:42:3d:65:36:d4:b4:3d:40:28:
         8f:9b:10:cf:23:26:cc:4b:20:cb:90:1f:5d:8c:4c:34:ca:3c:
         d8:e5:37:d6:6f:a5:20:bd:34:eb:26:d9:ae:0d:e7:c5:9a:f7:
         a1:b4:21:91:33:6f:86:e8:58:bb:25:7c:74:0e:58:fe:75:1b:
         63:3f:ce:31:7c:9b:8f:1b:96:9e:c5:53:76:84:5b:9c:ad:91:
         fa:ac:ed:93:ba:5d:c8:21:53:c2:82:53:63:af:12:0d:50:87:
         11:1b:3d:54:52:96:8a:2c:9c:3d:92:1a:08:9a:05:2e:c7:93:
         a5:48:91:d3
-----BEGIN CERTIFICATE-----
MIIGCjCCBPKgAwIBAgIQUgDlqiVW/BqG7ZbJ1EszxzANBgkqhkiG9w0BAQUFADCB
yjELMAkGA1UEBhMCVVMxFzAVBgNVBAoTDlZlcmlTaWduLCBJbmMuMR8wHQYDVQQL
ExZWZXJpU2lnbiBUcnVzdCBOZXR3b3JrMTowOAYDVQQLEzEoYykgMjAwNiBWZXJp
U2lnbiwgSW5jLiAtIEZvciBhdXRob3JpemVkIHVzZSBvbmx5MUUwQwYDVQQDEzxW
ZXJpU2lnbiBDbGFzcyAzIFB1YmxpYyBQcmltYXJ5IENlcnRpZmljYXRpb24gQXV0
aG9yaXR5IC0gRzUwHhcNMTAwMjA4MDAwMDAwWhcNMjAwMjA3MjM1OTU5WjCBtDEL
MAkGA1UEBhMCVVMxFzAVBgNVBAoTDlZlcmlTaWduLCBJbmMuMR8wHQYDVQQLExZW
ZXJpU2lnbiBUcnVzdCBOZXR3b3JrMTswOQYDVQQLEzJUZXJtcyBvZiB1c2UgYXQg
aHR0cHM6Ly93d3cudmVyaXNpZ24uY29tL3JwYSAoYykxMDEuMCwGA1UEAxMlVmVy
aVNpZ24gQ2xhc3MgMyBDb2RlIFNpZ25pbmcgMjAxMCBDQTCCASIwDQYJKoZIhvcN
AQEBBQADggEPADCCAQoCggEBAPUjS16l14q7MunUV/fv5Mcmfq0ZmP6onX2U9jZr
ENd1gTB/BGh/yyt1Hs0dCIzfaZSnN6Oce4DgmeHuN01fzjsU7obU0PUnNbwlCzin
jGOdF6MIpauw+81qYoJM1SHaG9nx44Q7iipPhVuQAU/Jp3YQfycDfL6ufn3B3fkF
vBtInGnnwKQ8PEEAPt+W5cXklHHWVQHHACZKQDy1oSapDKdtgI6QJXvPvz8c6y+W
+uWHd8a1VrJ6O1QwUxvfYjT/HtH0WpMoheVMF05+W/2kk5l/383vpHXv7xX2R+f4
GXLYLjQaprSnTH69u08MPVfxMNamNo7WgHbXGS6lzX40LYkCAwEAAaOCAf4wggH6
MBIGA1UdEwEB/wQIMAYBAf8CAQAwcAYDVR0gBGkwZzBlBgtghkgBhvhFAQcXAzBW
MCgGCCsGAQUFBwIBFhxodHRwczovL3d3dy52ZXJpc2lnbi5jb20vY3BzMCoGCCsG
AQUFBwICMB4aHGh0dHBzOi8vd3d3LnZlcmlzaWduLmNvbS9ycGEwDgYDVR0PAQH/
BAQDAgEGMG0GCCsGAQUFBwEMBGEwX6FdoFswWTBXMFUWCWltYWdlL2dpZjAhMB8w
BwYFKw4DAhoEFI/l0xqGrI2Oa8PPgGrUSBgsexkuMCUWI2h0dHA6Ly9sb2dvLnZl
cmlzaWduLmNvbS92c2xvZ28uZ2lmMDQGA1UdHwQtMCswKaAnoCWGI2h0dHA6Ly9j
cmwudmVyaXNpZ24uY29tL3BjYTMtZzUuY3JsMDQGCCsGAQUFBwEBBCgwJjAkBggr
BgEFBQcwAYYYaHR0cDovL29jc3AudmVyaXNpZ24uY29tMB0GA1UdJQQWMBQGCCsG
AQUFBwMCBggrBgEFBQcDAzAoBgNVHREEITAfpB0wGzEZMBcGA1UEAxMQVmVyaVNp
Z25NUEtJLTItODAdBgNVHQ4EFgQUz5mp6nsm9EvJjo/X8AUm7+PSp50wHwYDVR0j
BBgwFoAUf9Nlp8Ld7LvwMAnzQzn6Aq8zMTMwDQYJKoZIhvcNAQEFBQADggEBAFYi
5jSkxGHLSLkBrVaoZA/ZjJHEu8wM5a16oCJ/30c4Si1s0X9xGnzscKmx8E/kDwxT
+hVe/nSYSSSFgSYckRRHsExjjLuhNNTGRegNhSZzA9CpjGRt3HGS5kUFYBVZUTn8
WBRr/tSk7XlrCAxBcuc3IgYJviPpP0SaHulhncyxkFz8PdKNrEI9ZTbUtD1AKI+b
EM8jJsxLIMuQH12MTDTKPNjlN9ZvpSC9NOsm2a4N58Wa96G0IZEzb4boWLslfHQO
WP51G2M/zjF8m48blp7FU3aEW5ytkfqs7ZO6XcghU8KCU2OvEg1QhxEbPVRSloos
nD2SGgiaBS7Hk6VIkdM=
-----END CERTIFICATE-----

