Certificate:
    Data:
        Version: 3 (0x2)
        Serial Number:
            7e:93:eb:fb:7c:c6:4e:59:ea:4b:9a:77:d4:06:fc:3b
    Signature Algorithm: sha1WithRSAEncryption
        Issuer: C=ZA, ST=Western Cape, L=Durbanville, O=Thawte, OU=Thawte Certification, CN=Thawte Timestamping CA
        Validity
            Not Before: Dec 21 00:00:00 2012 GMT
            Not After : Dec 30 23:59:59 2020 GMT
        Subject: C=US, O=Symantec Corporation, CN=Symantec Time Stamping Services CA - G2
        Subject Public Key Info:
            Public Key Algorithm: rsaEncryption
                Public-Key: (2048 bit)
                Modulus:
                    00:b1:ac:b3:49:54:4b:97:1c:12:0a:d8:25:79:91:
                    22:57:2a:6f:dc:b8:26:c4:43:73:6b:c2:bf:2e:50:
                    5a:fb:14:c2:76:8e:43:01:25:43:b4:a1:e2:45:f4:
                    e8:b7:7b:c3:74:cc:22:d7:b4:94:00:02:f7:4d:ed:
                    bf:b4:b7:44:24:6b:cd:5f:45:3b:d1:44:ce:43:12:
                    73:17:82:8b:69:b4:2b:cb:99:1e:ac:72:1b:26:4d:
                    71:1f:b1:31:dd:fb:51:61:02:53:a6:aa:f5:49:2c:
                    05:78:45:a5:2f:89:ce:e7:99:e7:fe:8c:e2:57:3f:
                    3d:c6:92:dc:4a:f8:7b:33:e4:79:0a:fb:f0:75:88:
                    41:9c:ff:c5:03:51:99:aa:d7:6c:9f:93:69:87:65:
                    29:83:85:c2:60:14:c4:c8:c9:3b:14:da:c0:81:f0:
                    1f:0d:74:de:92:22:ab:ca:f7:fb:74:7c:27:e6:f7:
                    4a:1b:7f:a7:c3:9e:2d:ae:8a:ea:a6:e6:aa:27:16:
                    7d:61:f7:98:71:11:bc:e2:50:a1:4b:e5:5d:fa:e5:
                    0e:a7:2c:9f:aa:65:20:d3:d8:96:e8:c8:7c:a5:4e:
                    48:44:ff:19:e2:44:07:92:0b:d7:68:84:80:5d:6a:
                    78:64:45:cd:60:46:7e:54:c1:13:7c:c5:79:f1:c9:
                    c1:71
                Exponent: 65537 (0x10001)
        X509v3 extensions:
            X509v3 Subject Key Identifier: 
                5F:9A:F5:6E:5C:CC:CC:74:9A:D4:DD:7D:EF:3F:DB:EC:4C:80:2E:DD
            Authority Information Access: 
                OCSP - URI:http://ocsp.thawte.com

            X509v3 Basic Constraints: critical
                CA:TRUE, pathlen:0
            X509v3 CRL Distribution Points: 

                Full Name:
                  URI:http://crl.thawte.com/ThawteTimestampingCA.crl

            X509v3 Extended Key Usage: 
                Time Stamping
            X509v3 Key Usage: critical
                Certificate Sign, CRL Sign
            X509v3 Subject Alternative Name: 
                DirName:/CN=TimeStamp-2048-1
    Signature Algorithm: sha1WithRSAEncryption
         03:09:9b:8f:79:ef:7f:59:30:aa:ef:68:b5:fa:e3:09:1d:bb:
         4f:82:06:5d:37:5f:a6:52:9f:16:8d:ea:1c:92:09:44:6e:f5:
         6d:eb:58:7c:30:e8:f9:69:8d:23:73:0b:12:6f:47:a9:ae:39:
         11:f8:2a:b1:9b:b0:1a:c3:8e:eb:59:96:00:ad:ce:0c:4d:b2:
         d0:31:a6:08:5c:2a:7a:fc:e2:7a:1d:57:4c:a8:65:18:e9:79:
         40:62:25:96:6e:c7:c7:37:6a:83:21:08:8e:41:ea:dd:d9:57:
         3f:1d:77:49:87:2a:16:06:5e:a6:38:6a:22:12:a3:51:19:83:
         7e:b6
-----BEGIN CERTIFICATE-----
MIID7jCCA1egAwIBAgIQfpPr+3zGTlnqS5p31Ab8OzANBgkqhkiG9w0BAQUFADCB
izELMAkGA1UEBhMCWkExFTATBgNVBAgTDFdlc3Rlcm4gQ2FwZTEUMBIGA1UEBxML
RHVyYmFudmlsbGUxDzANBgNVBAoTBlRoYXd0ZTEdMBsGA1UECxMUVGhhd3RlIENl
cnRpZmljYXRpb24xHzAdBgNVBAMTFlRoYXd0ZSBUaW1lc3RhbXBpbmcgQ0EwHhcN
MTIxMjIxMDAwMDAwWhcNMjAxMjMwMjM1OTU5WjBeMQswCQYDVQQGEwJVUzEdMBsG
A1UEChMUU3ltYW50ZWMgQ29ycG9yYXRpb24xMDAuBgNVBAMTJ1N5bWFudGVjIFRp
bWUgU3RhbXBpbmcgU2VydmljZXMgQ0EgLSBHMjCCASIwDQYJKoZIhvcNAQEBBQAD
ggEPADCCAQoCggEBALGss0lUS5ccEgrYJXmRIlcqb9y4JsRDc2vCvy5QWvsUwnaO
QwElQ7Sh4kX06Ld7w3TMIte0lAAC903tv7S3RCRrzV9FO9FEzkMScxeCi2m0K8uZ
HqxyGyZNcR+xMd37UWECU6aq9UksBXhFpS+JzueZ5/6M4lc/PcaS3Er4ezPkeQr7
8HWIQZz/xQNRmarXbJ+TaYdlKYOFwmAUxMjJOxTawIHwHw103pIiq8r3+3R8J+b3
Sht/p8OeLa6K6qbmqicWfWH3mHERvOJQoUvlXfrlDqcsn6plINPYlujIfKVOSET/
GeJEB5IL12iEgF1qeGRFzWBGflTBE3zFefHJwXECAwEAAaOB+jCB9zAdBgNVHQ4E
FgQUX5r1blzMzHSa1N197z/b7EyALt0wMgYIKwYBBQUHAQEEJjAkMCIGCCsGAQUF
BzABhhZodHRwOi8vb2NzcC50aGF3dGUuY29tMBIGA1UdEwEB/wQIMAYBAf8CAQAw
PwYDVR0fBDgwNjA0oDKgMIYuaHR0cDovL2NybC50aGF3dGUuY29tL1RoYXd0ZVRp
bWVzdGFtcGluZ0NBLmNybDATBgNVHSUEDDAKBggrBgEFBQcDCDAOBgNVHQ8BAf8E
BAMCAQYwKAYDVR0RBCEwH6QdMBsxGTAXBgNVBAMTEFRpbWVTdGFtcC0yMDQ4LTEw
DQYJKoZIhvcNAQEFBQADgYEAAwmbj3nvf1kwqu9otfrjCR27T4IGXTdfplKfFo3q
HJIJRG71betYfDDo+WmNI3MLEm9Hqa45EfgqsZuwGsOO61mWAK3ODE2y0DGmCFwq
evzieh1XTKhlGOl5QGIllm7HxzdqgyEIjkHq3dlXPx13SYcqFgZepjhqIhKjURmD
frY=
-----END CERTIFICATE-----

Certificate:
    Data:
        Version: 3 (0x2)
        Serial Number:
            0e:cf:f4:38:c8:fe:bf:35:6e:04:d8:6a:98:1b:1a:50
    Signature Algorithm: sha1WithRSAEncryption
        Issuer: C=US, O=Symantec Corporation, CN=Symantec Time Stamping Services CA - G2
        Validity
            Not Before: Oct 18 00:00:00 2012 GMT
            Not After : Dec 29 23:59:59 2020 GMT
        Subject: C=US, O=Symantec Corporation, CN=Symantec Time Stamping Services Signer - G4
        Subject Public Key Info:
            Public Key Algorithm: rsaEncryption
                Public-Key: (2048 bit)
                Modulus:
                    00:a2:63:0b:39:44:b8:bb:23:a7:44:49:bb:0e:ff:
                    a1:f0:61:0a:53:93:b0:98:db:ad:2c:0f:4a:c5:6e:
                    ff:86:3c:53:55:0f:15:ce:04:3f:2b:fd:a9:96:96:
                    d9:be:61:79:0b:5b:c9:4c:86:76:e5:e0:43:4b:22:
                    95:ee:c2:2b:43:c1:9f:d8:68:b4:8e:40:4f:ee:85:
                    38:b9:11:c5:23:f2:64:58:f0:15:32:6f:4e:57:a1:
                    ae:88:a4:02:d7:2a:1e:cd:4b:e1:dd:63:d5:17:89:
                    32:5b:b0:5e:99:5a:a8:9d:28:50:0e:17:ee:96:db:
                    61:3b:45:51:1d:cf:12:56:0b:92:47:fc:ab:ae:f6:
                    66:3d:47:ac:70:72:e7:92:e7:5f:cd:10:b9:c4:83:
                    64:94:19:bd:25:80:e1:e8:d2:22:a5:d0:ba:02:7a:
                    a1:77:93:5b:65:c3:ee:17:74:bc:41:86:2a:dc:08:
                    4c:8c:92:8c:91:2d:9e:77:44:1f:68:d6:a8:74:77:
                    db:0e:5b:32:8b:56:8b:33:bd:d9:63:c8:49:9d:3a:
                    c5:c5:ea:33:0b:d2:f1:a3:1b:f4:8b:be:d9:b3:57:
                    8b:3b:de:04:a7:7a:22:b2:24:ae:2e:c7:70:c5:be:
                    4e:83:26:08:fb:0b:bd:a9:4f:99:08:e1:10:28:72:
                    aa:cd
                Exponent: 65537 (0x10001)
        X509v3 extensions:
            X509v3 Basic Constraints: critical
                CA:FALSE
            X509v3 Extended Key Usage: critical
                Time Stamping
            X509v3 Key Usage: critical
                Digital Signature
            Authority Information Access: 
                OCSP - URI:http://ts-ocsp.ws.symantec.com
                CA Issuers - URI:http://ts-aia.ws.symantec.com/tss-ca-g2.cer

            X509v3 CRL Distribution Points: 

                Full Name:
                  URI:http://ts-crl.ws.symantec.com/tss-ca-g2.crl

            X509v3 Subject Alternative Name: 
                DirName:/CN=TimeStamp-2048-2
            X509v3 Subject Key Identifier: 
                46:C6:69:A3:0E:4A:14:1E:D5:4C:DA:52:63:17:3F:5E:36:BC:0D:E6
            X509v3 Authority Key Identifier: 
                keyid:5F:9A:F5:6E:5C:CC:CC:74:9A:D4:DD:7D:EF:3F:DB:EC:4C:80:2E:DD

    Signature Algorithm: sha1WithRSAEncryption
         78:3b:b4:91:2a:00:4c:f0:8f:62:30:37:78:a3:84:27:07:6f:
         18:b2:de:25:dc:a0:d4:94:03:aa:86:4e:25:9f:9a:40:03:1c:
         dd:ce:e3:79:cb:21:68:06:da:b6:32:b4:6d:bf:f4:2c:26:63:
         33:e4:49:64:6d:0d:e6:c3:67:0e:f7:05:a4:35:6c:7c:89:16:
         c6:e9:b2:df:b2:e9:dd:20:c6:71:0f:cd:95:74:dc:b6:5c:de:
         bd:37:1f:43:78:e6:78:b5:cd:28:04:20:a3:aa:f1:4b:c4:88:
         29:91:0e:80:d1:11:fc:dd:5c:76:6e:4f:5e:0e:45:46:41:6e:
         0d:b0:ea:38:9a:b1:3a:da:09:71:10:fc:1c:79:b4:80:7b:ac:
         69:f4:fd:9c:b6:0c:16:2b:f1:7f:5b:09:3d:9b:5b:e2:16:ca:
         13:81:6d:00:2e:38:0d:a8:29:8f:2c:e1:b2:f4:5a:a9:01:af:
         15:9c:2c:2f:49:1b:db:22:bb:c3:fe:78:94:51:c3:86:b1:82:
         88:5d:f0:3d:b4:51:a1:79:33:2b:2e:7b:b9:dc:20:09:13:71:
         eb:6a:19:5b:cf:e8:a5:30:57:2c:89:49:3f:b9:cf:7f:c9:bf:
         3e:22:68:63:53:9a:bd:69:74:ac:c5:1d:3c:7f:92:e0:c3:bc:
         1c:d8:04:75
-----BEGIN CERTIFICATE-----
MIIEozCCA4ugAwIBAgIQDs/0OMj+vzVuBNhqmBsaUDANBgkqhkiG9w0BAQUFADBe
MQswCQYDVQQGEwJVUzEdMBsGA1UEChMUU3ltYW50ZWMgQ29ycG9yYXRpb24xMDAu
BgNVBAMTJ1N5bWFudGVjIFRpbWUgU3RhbXBpbmcgU2VydmljZXMgQ0EgLSBHMjAe
Fw0xMjEwMTgwMDAwMDBaFw0yMDEyMjkyMzU5NTlaMGIxCzAJBgNVBAYTAlVTMR0w
GwYDVQQKExRTeW1hbnRlYyBDb3Jwb3JhdGlvbjE0MDIGA1UEAxMrU3ltYW50ZWMg
VGltZSBTdGFtcGluZyBTZXJ2aWNlcyBTaWduZXIgLSBHNDCCASIwDQYJKoZIhvcN
AQEBBQADggEPADCCAQoCggEBAKJjCzlEuLsjp0RJuw7/ofBhClOTsJjbrSwPSsVu
/4Y8U1UPFc4EPyv9qZaW2b5heQtbyUyGduXgQ0sile7CK0PBn9hotI5AT+6FOLkR
xSPyZFjwFTJvTlehroikAtcqHs1L4d1j1ReJMluwXplaqJ0oUA4X7pbbYTtFUR3P
ElYLkkf8q672Zj1HrHBy55LnX80QucSDZJQZvSWA4ejSIqXQugJ6oXeTW2XD7hd0
vEGGKtwITIySjJEtnndEH2jWqHR32w5bMotWizO92WPISZ06xcXqMwvS8aMb9Iu+
2bNXizveBKd6IrIkri7HcMW+ToMmCPsLvalPmQjhEChyqs0CAwEAAaOCAVcwggFT
MAwGA1UdEwEB/wQCMAAwFgYDVR0lAQH/BAwwCgYIKwYBBQUHAwgwDgYDVR0PAQH/
BAQDAgeAMHMGCCsGAQUFBwEBBGcwZTAqBggrBgEFBQcwAYYeaHR0cDovL3RzLW9j
c3Aud3Muc3ltYW50ZWMuY29tMDcGCCsGAQUFBzAChitodHRwOi8vdHMtYWlhLndz
LnN5bWFudGVjLmNvbS90c3MtY2EtZzIuY2VyMDwGA1UdHwQ1MDMwMaAvoC2GK2h0
dHA6Ly90cy1jcmwud3Muc3ltYW50ZWMuY29tL3Rzcy1jYS1nMi5jcmwwKAYDVR0R
BCEwH6QdMBsxGTAXBgNVBAMTEFRpbWVTdGFtcC0yMDQ4LTIwHQYDVR0OBBYEFEbG
aaMOShQe1UzaUmMXP142vA3mMB8GA1UdIwQYMBaAFF+a9W5czMx0mtTdfe8/2+xM
gC7dMA0GCSqGSIb3DQEBBQUAA4IBAQB4O7SRKgBM8I9iMDd4o4QnB28Yst4l3KDU
lAOqhk4ln5pAAxzdzuN5yyFoBtq2MrRtv/QsJmMz5ElkbQ3mw2cO9wWkNWx8iRbG
6bLfsundIMZxD82VdNy2XN69Nx9DeOZ4tc0oBCCjqvFLxIgpkQ6A0RH83Vx2bk9e
DkVGQW4NsOo4mrE62glxEPwcebSAe6xp9P2ctgwWK/F/Wwk9m1viFsoTgW0ALjgN
qCmPLOGy9FqpAa8VnCwvSRvbIrvD/niUUcOGsYKIXfA9tFGheTMrLnu53CAJE3Hr
ahlbz+ilMFcsiUk/uc9/yb8+ImhjU5q9aXSsxR08f5Lgw7wc2AR1
-----END CERTIFICATE-----

Certificate:
    Data:
        Version: 3 (0x2)
        Serial Number: 36 (0x24)
    Signature Algorithm: sha1WithRSAEncryption
        Issuer: C=IL, O=StartCom Ltd., OU=Secure Digital Certificate Signing, CN=StartCom Certification Authority
        Validity
            Not Before: Oct 24 22:01:46 2007 GMT
            Not After : Oct 24 22:01:46 2017 GMT
        Subject: C=IL, O=StartCom Ltd., OU=Secure Digital Certificate Signing, CN=StartCom Class 2 Primary Intermediate Object CA
        Subject Public Key Info:
            Public Key Algorithm: rsaEncryption
                Public-Key: (2048 bit)
                Modulus:
                    00:ca:23:8b:22:35:1e:9a:a0:1b:3c:9d:49:d0:3f:
                    0c:97:38:16:29:ba:f8:7d:89:5b:45:58:ef:84:70:
                    ed:7e:11:4d:e9:14:31:ab:43:e3:4d:0c:51:81:6c:
                    f0:15:03:4a:24:27:54:e5:fb:4a:a0:ce:4d:e1:84:
                    a3:21:de:99:35:ab:dc:49:ae:bf:31:c5:67:84:30:
                    10:9b:ef:07:dc:75:a8:0f:4d:f4:35:53:b1:6e:38:
                    03:fc:88:77:1d:a5:77:ff:3f:75:e7:d9:e7:bf:2c:
                    50:11:c9:11:65:fa:49:07:62:9f:93:a6:87:a9:6d:
                    c9:9d:2b:d1:7b:e5:d5:65:2b:9f:0d:50:9e:fe:fb:
                    71:19:21:30:28:26:8d:ae:c2:dc:f6:96:e8:52:86:
                    08:0b:7a:32:cd:6a:14:4d:9e:b9:f9:cd:07:e2:96:
                    91:f1:cf:1e:2b:f9:82:f7:5e:26:06:8e:8d:d1:d4:
                    39:d7:6f:db:91:27:5a:79:8f:58:69:0a:46:b5:6f:
                    e1:fd:6f:c5:91:b4:11:4f:7b:02:a6:db:4b:56:52:
                    23:9e:4b:98:e2:bf:7e:ce:fa:a1:4e:83:e3:c5:c7:
                    c3:60:47:fe:5c:3f:15:1a:40:2a:95:ef:00:6b:c8:
                    50:f8:cd:6a:19:d4:23:03:27:bc:3b:36:d5:b9:43:
                    b0:ef
                Exponent: 65537 (0x10001)
        X509v3 extensions:
            X509v3 Basic Constraints: critical
                CA:TRUE
            X509v3 Key Usage: critical
                Certificate Sign, CRL Sign
            X509v3 Subject Key Identifier: 
                D0:4E:0F:40:99:6C:B8:4B:19:6F:3B:28:B8:E0:E3:88:07:34:AA:B7
            X509v3 Authority Key Identifier: 
                keyid:4E:0B:EF:1A:A4:40:5B:A5:17:69:87:30:CA:34:68:43:D0:41:AE:F2

            Authority Information Access: 
                CA Issuers - URI:http://www.startssl.com/sfsca.crt

            X509v3 CRL Distribution Points: 

                Full Name:
                  URI:http://www.startssl.com/sfsca.crl

                Full Name:
                  URI:http://crl.startssl.com/sfsca.crl

            X509v3 Certificate Policies: 
                Policy: 1.3.6.1.4.1.23223.1.2.1
                  CPS: http://www.startssl.com/policy.pdf
                  CPS: http://www.startssl.com/intermediate.pdf

            Netscape Cert Type: 
                Object Signing CA
            Netscape Comment: 
                StartCom Class 2 Primary Intermediate Object Signing Certificates
    Signature Algorithm: sha1WithRSAEncryption
         72:73:0b:03:75:5a:37:83:88:13:d9:78:41:3e:4e:12:d6:72:
         e4:f0:72:06:2b:77:a0:78:aa:42:98:15:11:0a:3b:0c:74:6c:
         8d:70:f9:1f:f2:32:4e:2b:e9:32:29:1a:69:e4:71:22:ff:79:
         6d:a4:5d:e2:1a:14:70:cc:03:8f:82:48:8c:2d:d6:03:d1:68:
         34:55:77:d5:23:25:8c:46:5a:eb:a1:bc:45:01:02:74:c4:92:
         b9:f8:1f:0d:8b:b5:5d:0f:9c:50:ac:61:0f:71:2d:2c:61:9c:
         14:68:e3:30:be:c4:42:fd:88:a2:5e:f8:d6:b1:2c:c9:c5:f0:
         21:77:2b:cb:17:a2:31:b5:36:4c:f8:bb:5f:77:a5:6f:04:0c:
         73:82:45:94:9e:01:cb:d1:61:07:3b:99:07:50:d5:da:c3:76:
         8a:b1:95:6c:2d:c6:ff:5f:92:d9:da:0f:0e:32:f5:09:a1:25:
         c1:16:bf:4f:4a:a4:ab:6b:ef:3f:15:20:af:20:28:0a:9a:54:
         14:a5:62:c3:9c:a8:19:80:be:cf:51:9a:7a:c5:96:88:fd:5e:
         14:a0:0b:d3:02:3b:22:04:af:2f:35:37:cb:55:69:ee:fb:18:
         6b:13:95:06:a6:6d:79:b1:53:59:11:ed:5e:30:ac:16:ba:d0:
         06:78:2d:d1:dd:f7:41:b4:11:23:99:b0:83:31:29:ed:72:7d:
         c6:ee:5d:e9:15:56:33:84:cf:45:4b:1d:f8:30:d9:a4:11:e6:
         f6:6b:33:be:2f:60:54:56:f6:64:6e:ea:45:15:c2:4a:ac:ac:
         e3:eb:bf:34:b0:4f:6d:78:bf:9b:f9:54:d3:47:0e:0d:04:e5:
         0b:f7:ae:c2:39:3d:1d:0b:51:ad:74:3f:ce:ab:01:25:2e:94:
         27:e7:8b:1b:0d:6a:39:f8:fe:1d:50:65:fd:94:29:7e:82:e4:
         ec:8a:16:95:14:2f:44:bd:6c:ee:88:ab:11:aa:8f:65:42:16:
         63:f8:2b:5e:af:6b:ea:30:ca:02:9d:cb:65:d2:90:a4:f3:a7:
         9e:88:2d:aa:55:38:7f:bf:e4:2e:31:09:86:ba:dc:f7:c9:ab:
         39:69:95:30:af:c1:b8:54:40:7d:0e:68:0d:43:27:56:60:b3:
         03:32:cc:8c:a7:c6:71:55:bf:88:c7:b0:e3:5c:9f:86:02:9b:
         c2:97:f3:9b:72:c1:af:56:6f:fa:91:01:81:c8:16:ea:89:d1:
         2d:20:27:dd:71:cc:d1:e3:6d:cf:e0:24:c4:7e:ab:45:fe:81:
         da:66:21:2c:41:06:2d:aa:47:f1:1d:40:30:0a:38:05:b5:45:
         39:94:79:91:77:0c:0b:0a
-----BEGIN CERTIFICATE-----
MIIGcDCCBFigAwIBAgIBJDANBgkqhkiG9w0BAQUFADB9MQswCQYDVQQGEwJJTDEW
MBQGA1UEChMNU3RhcnRDb20gTHRkLjErMCkGA1UECxMiU2VjdXJlIERpZ2l0YWwg
Q2VydGlmaWNhdGUgU2lnbmluZzEpMCcGA1UEAxMgU3RhcnRDb20gQ2VydGlmaWNh
dGlvbiBBdXRob3JpdHkwHhcNMDcxMDI0MjIwMTQ2WhcNMTcxMDI0MjIwMTQ2WjCB
jDELMAkGA1UEBhMCSUwxFjAUBgNVBAoTDVN0YXJ0Q29tIEx0ZC4xKzApBgNVBAsT
IlNlY3VyZSBEaWdpdGFsIENlcnRpZmljYXRlIFNpZ25pbmcxODA2BgNVBAMTL1N0
YXJ0Q29tIENsYXNzIDIgUHJpbWFyeSBJbnRlcm1lZGlhdGUgT2JqZWN0IENBMIIB
IjANBgkqhkiG9w0BAQEFAAOCAQ8AMIIBCgKCAQEAyiOLIjUemqAbPJ1J0D8MlzgW
Kbr4fYlbRVjvhHDtfhFN6RQxq0PjTQxRgWzwFQNKJCdU5ftKoM5N4YSjId6ZNavc
Sa6/McVnhDAQm+8H3HWoD030NVOxbjgD/Ih3HaV3/z9159nnvyxQEckRZfpJB2Kf
k6aHqW3JnSvRe+XVZSufDVCe/vtxGSEwKCaNrsLc9pboUoYIC3oyzWoUTZ65+c0H
4paR8c8eK/mC914mBo6N0dQ512/bkSdaeY9YaQpGtW/h/W/FkbQRT3sCpttLVlIj
nkuY4r9+zvqhToPjxcfDYEf+XD8VGkAqle8Aa8hQ+M1qGdQjAye8OzbVuUOw7wID
AQABo4IB6TCCAeUwDwYDVR0TAQH/BAUwAwEB/zAOBgNVHQ8BAf8EBAMCAQYwHQYD
VR0OBBYEFNBOD0CZbLhLGW87KLjg44gHNKq3MB8GA1UdIwQYMBaAFE4L7xqkQFul
F2mHMMo0aEPQQa7yMD0GCCsGAQUFBwEBBDEwLzAtBggrBgEFBQcwAoYhaHR0cDov
L3d3dy5zdGFydHNzbC5jb20vc2ZzY2EuY3J0MFsGA1UdHwRUMFIwJ6AloCOGIWh0
dHA6Ly93d3cuc3RhcnRzc2wuY29tL3Nmc2NhLmNybDAnoCWgI4YhaHR0cDovL2Ny
bC5zdGFydHNzbC5jb20vc2ZzY2EuY3JsMIGABgNVHSAEeTB3MHUGCysGAQQBgbU3
AQIBMGYwLgYIKwYBBQUHAgEWImh0dHA6Ly93d3cuc3RhcnRzc2wuY29tL3BvbGlj
eS5wZGYwNAYIKwYBBQUHAgEWKGh0dHA6Ly93d3cuc3RhcnRzc2wuY29tL2ludGVy
bWVkaWF0ZS5wZGYwEQYJYIZIAYb4QgEBBAQDAgABMFAGCWCGSAGG+EIBDQRDFkFT
dGFydENvbSBDbGFzcyAyIFByaW1hcnkgSW50ZXJtZWRpYXRlIE9iamVjdCBTaWdu
aW5nIENlcnRpZmljYXRlczANBgkqhkiG9w0BAQUFAAOCAgEAcnMLA3VaN4OIE9l4
QT5OEtZy5PByBit3oHiqQpgVEQo7DHRsjXD5H/IyTivpMikaaeRxIv95baRd4hoU
cMwDj4JIjC3WA9FoNFV31SMljEZa66G8RQECdMSSufgfDYu1XQ+cUKxhD3EtLGGc
FGjjML7EQv2Iol741rEsycXwIXcryxeiMbU2TPi7X3elbwQMc4JFlJ4By9FhBzuZ
B1DV2sN2irGVbC3G/1+S2doPDjL1CaElwRa/T0qkq2vvPxUgryAoCppUFKViw5yo
GYC+z1GaesWWiP1eFKAL0wI7IgSvLzU3y1Vp7vsYaxOVBqZtebFTWRHtXjCsFrrQ
Bngt0d33QbQRI5mwgzEp7XJ9xu5d6RVWM4TPRUsd+DDZpBHm9mszvi9gVFb2ZG7q
RRXCSqys4+u/NLBPbXi/m/lU00cODQTlC/euwjk9HQtRrXQ/zqsBJS6UJ+eLGw1q
Ofj+HVBl/ZQpfoLk7IoWlRQvRL1s7oirEaqPZUIWY/grXq9r6jDKAp3LZdKQpPOn
nogtqlU4f7/kLjEJhrrc98mrOWmVMK/BuFRAfQ5oDUMnVmCzAzLMjKfGcVW/iMew
41yfhgKbwpfzm3LBr1Zv+pEBgcgW6onRLSAn3XHM0eNtz+AkxH6rRf6B2mYhLEEG
LapH8R1AMAo4BbVFOZR5kXcMCwo=
-----END CERTIFICATE-----

Certificate:
    Data:
        Version: 3 (0x2)
        Serial Number: 3174 (0xc66)
    Signature Algorithm: sha1WithRSAEncryption
        Issuer: C=IL, O=StartCom Ltd., OU=Secure Digital Certificate Signing, CN=StartCom Class 2 Primary Intermediate Object CA
        Validity
            Not Before: Jan 11 22:21:54 2014 GMT
            Not After : Jan 12 23:03:57 2016 GMT
        Subject: description=W7iWE9WUDMEwQToS, C=RU, ST=Nizhny Novgorod Oblast, L=Kstovo, CN=Anton Panin/emailAddress=veles83@gmail.com
        Subject Public Key Info:
            Public Key Algorithm: rsaEncryption
                Public-Key: (4096 bit)
                Modulus:
                    00:c2:bc:66:00:a4:9f:a4:e6:1a:f1:87:1a:10:22:
                    07:79:2a:40:9b:85:3d:18:47:c5:83:05:2e:f4:87:
                    df:18:81:a2:d1:52:a0:d7:1e:7a:fd:d2:ec:df:a9:
                    b6:12:30:9f:ee:6a:14:0e:87:15:5b:d3:7d:3a:56:
                    12:1a:ff:32:85:a5:9d:67:e4:f9:8f:ef:74:eb:35:
                    f7:02:d5:a6:8e:9b:11:98:f3:2b:c0:78:2a:08:34:
                    50:68:5b:4c:9a:a8:7c:b8:cd:0e:ab:39:7a:ce:dc:
                    90:cf:14:51:11:46:e1:37:e6:e7:ac:27:4d:fd:12:
                    34:8d:95:f8:84:cb:c6:88:a5:32:aa:73:e8:dd:02:
                    5b:09:1b:6f:c9:28:78:0d:69:6c:13:79:f6:98:77:
                    29:16:89:2b:2b:a3:31:3b:07:91:8f:3f:20:03:e9:
                    4a:15:1b:92:c8:1c:f8:6f:47:30:ac:f7:f2:db:52:
                    b6:46:d8:81:99:d6:c9:65:ed:44:e0:1c:86:c4:9b:
                    ec:e8:bd:75:d8:a3:27:37:c3:95:e5:b7:b8:15:a7:
                    26:a2:5d:fb:15:96:25:78:d6:2e:6a:cb:6d:54:cb:
                    ae:91:9b:c1:df:1a:23:9a:b0:8c:2d:d0:f2:e8:14:
                    3c:49:7d:66:09:1c:1b:23:c2:aa:23:db:bc:c5:a3:
                    e0:02:ab:70:82:ab:10:62:81:88:0c:2a:de:80:7f:
                    54:16:ff:23:1b:ec:3e:e0:8d:7e:20:12:bc:c0:4d:
                    7b:da:36:69:db:b5:1b:26:f6:dc:83:df:cb:67:46:
                    18:bc:20:b2:68:e6:f6:75:b4:f2:8b:d8:75:d3:e9:
                    62:76:23:10:ba:0f:e9:70:0f:8a:9f:66:82:1a:e3:
                    10:9c:e0:33:7e:44:46:f1:f4:b9:5a:95:12:d9:f1:
                    b2:ea:7b:d3:5c:d5:06:b7:db:16:bf:c2:e1:f0:c6:
                    19:c2:61:2a:a0:71:f7:3f:bb:7e:e1:0b:24:24:35:
                    52:3c:74:73:2e:4e:ba:5c:87:e9:b9:55:62:96:b0:
                    55:bb:aa:bc:f5:ea:12:7d:84:02:83:fd:ea:ca:56:
                    c3:f4:8f:2e:92:54:a8:83:e9:5c:22:a7:75:e5:54:
                    d4:0a:76:85:98:08:aa:cf:a5:91:5b:6d:44:79:56:
                    ee:47:4b:a7:c0:23:d7:9a:fe:51:40:86:a0:bd:af:
                    94:cf:73:46:9b:6f:9c:4a:3c:7c:a8:49:11:5e:94:
                    e6:b6:1b:13:9f:ad:9f:18:08:4d:c0:58:50:80:2e:
                    0e:90:84:15:f0:ad:27:26:64:6e:fb:9c:ee:c3:9b:
                    eb:0b:79:49:4c:38:01:da:54:c5:4d:2d:d7:20:b3:
                    93:57:a3
                Exponent: 65537 (0x10001)
        X509v3 extensions:
            X509v3 Basic Constraints: 
                CA:FALSE
            X509v3 Key Usage: critical
                Digital Signature
            X509v3 Extended Key Usage: critical
                Code Signing, Microsoft Individual Code Signing, 1.3.6.1.4.1.311.10.3.13
            X509v3 Subject Key Identifier: 
                43:71:D0:FC:DE:B3:88:CF:0A:6E:FB:CA:FB:CC:60:8A:77:9A:F4:4E
            X509v3 Authority Key Identifier: 
                keyid:D0:4E:0F:40:99:6C:B8:4B:19:6F:3B:28:B8:E0:E3:88:07:34:AA:B7

            X509v3 Certificate Policies: 
                Policy: 1.3.6.1.4.1.23223.1.2.3
                  CPS: http://www.startssl.com/policy.pdf
                  User Notice:
                    Organization: StartCom Certification Authority
                    Number: 1
                    Explicit Text: This certificate was issued according to the Class 2 Validation requirements of the StartCom CA policy, reliance only for the intended purpose in compliance of the relying party obligations.

            X509v3 CRL Distribution Points: 

                Full Name:
                  URI:http://crl.startssl.com/crtc2-crl.crl

            Authority Information Access: 
                OCSP - URI:http://ocsp.startssl.com/sub/class2/code/ca
                CA Issuers - URI:http://aia.startssl.com/certs/sub.class2.code.ca.crt

            X509v3 Issuer Alternative Name: 
                URI:http://www.startssl.com/
    Signature Algorithm: sha1WithRSAEncryption
         6a:49:91:ef:a7:f6:b7:fb:56:ac:9d:35:ee:c8:39:e0:48:ad:
         8e:88:b4:74:96:bb:7b:9f:b5:b7:a1:b3:c0:10:09:80:e4:c3:
         9a:b7:6f:6c:7f:42:91:b1:2e:41:33:eb:8d:13:cd:c6:b3:66:
         50:a4:e6:0b:af:5b:05:29:4a:07:9b:1a:a7:4f:c4:18:d6:8e:
         a4:e8:02:70:eb:93:b3:c9:5a:43:ea:bb:73:03:10:6d:5d:6f:
         b3:c1:e8:d2:67:ab:49:d1:c0:c7:14:8b:fb:64:80:32:37:0a:
         ff:cd:b4:d5:5a:78:92:22:0e:9a:33:63:3f:21:d2:df:a7:e5:
         5d:14:3f:d0:f9:8d:48:64:67:5c:bf:17:ae:f5:18:39:08:af:
         17:24:17:b8:14:c4:00:a8:04:c6:92:76:1b:6a:c4:83:ac:24:
         54:46:b5:5d:82:d1:a1:84:a5:72:27:e7:63:8d:e8:7a:4f:19:
         f5:73:f0:7b:65:ed:90:bc:5e:e7:b7:50:9c:7f:56:82:61:25:
         81:be:3c:bb:bc:f7:e2:bc:18:a4:9c:cd:97:f5:27:ee:9a:a8:
         c4:fa:68:86:bd:07:49:8c:03:da:43:6a:55:6d:ed:c1:ab:15:
         60:3f:af:c4:9e:eb:08:2d:32:67:7e:60:da:b0:bd:15:29:a7:
         69:29:a1:51
-----BEGIN CERTIFICATE-----
MIIHZjCCBk6gAwIBAgICDGYwDQYJKoZIhvcNAQEFBQAwgYwxCzAJBgNVBAYTAklM
MRYwFAYDVQQKEw1TdGFydENvbSBMdGQuMSswKQYDVQQLEyJTZWN1cmUgRGlnaXRh
bCBDZXJ0aWZpY2F0ZSBTaWduaW5nMTgwNgYDVQQDEy9TdGFydENvbSBDbGFzcyAy
IFByaW1hcnkgSW50ZXJtZWRpYXRlIE9iamVjdCBDQTAeFw0xNDAxMTEyMjIxNTRa
Fw0xNjAxMTIyMzAzNTdaMIGSMRkwFwYDVQQNExBXN2lXRTlXVURNRXdRVG9TMQsw
CQYDVQQGEwJSVTEfMB0GA1UECBMWTml6aG55IE5vdmdvcm9kIE9ibGFzdDEPMA0G
A1UEBxMGS3N0b3ZvMRQwEgYDVQQDEwtBbnRvbiBQYW5pbjEgMB4GCSqGSIb3DQEJ
ARYRdmVsZXM4M0BnbWFpbC5jb20wggIiMA0GCSqGSIb3DQEBAQUAA4ICDwAwggIK
AoICAQDCvGYApJ+k5hrxhxoQIgd5KkCbhT0YR8WDBS70h98YgaLRUqDXHnr90uzf
qbYSMJ/uahQOhxVb0306VhIa/zKFpZ1n5PmP73TrNfcC1aaOmxGY8yvAeCoINFBo
W0yaqHy4zQ6rOXrO3JDPFFERRuE35uesJ039EjSNlfiEy8aIpTKqc+jdAlsJG2/J
KHgNaWwTefaYdykWiSsrozE7B5GPPyAD6UoVG5LIHPhvRzCs9/LbUrZG2IGZ1sll
7UTgHIbEm+zovXXYoyc3w5Xlt7gVpyaiXfsVliV41i5qy21Uy66Rm8HfGiOasIwt
0PLoFDxJfWYJHBsjwqoj27zFo+ACq3CCqxBigYgMKt6Af1QW/yMb7D7gjX4gErzA
TXvaNmnbtRsm9tyD38tnRhi8ILJo5vZ1tPKL2HXT6WJ2IxC6D+lwD4qfZoIa4xCc
4DN+REbx9LlalRLZ8bLqe9Nc1Qa32xa/wuHwxhnCYSqgcfc/u37hCyQkNVI8dHMu
Trpch+m5VWKWsFW7qrz16hJ9hAKD/erKVsP0jy6SVKiD6Vwip3XlVNQKdoWYCKrP
pZFbbUR5Vu5HS6fAI9ea/lFAhqC9r5TPc0abb5xKPHyoSRFelOa2GxOfrZ8YCE3A
WFCALg6QhBXwrScmZG77nO7Dm+sLeUlMOAHaVMVNLdcgs5NXowIDAQABo4ICyDCC
AsQwCQYDVR0TBAIwADAOBgNVHQ8BAf8EBAMCB4AwLgYDVR0lAQH/BCQwIgYIKwYB
BQUHAwMGCisGAQQBgjcCARUGCisGAQQBgjcKAw0wHQYDVR0OBBYEFENx0Pzes4jP
Cm77yvvMYIp3mvROMB8GA1UdIwQYMBaAFNBOD0CZbLhLGW87KLjg44gHNKq3MIIB
TAYDVR0gBIIBQzCCAT8wggE7BgsrBgEEAYG1NwECAzCCASowLgYIKwYBBQUHAgEW
Imh0dHA6Ly93d3cuc3RhcnRzc2wuY29tL3BvbGljeS5wZGYwgfcGCCsGAQUFBwIC
MIHqMCcWIFN0YXJ0Q29tIENlcnRpZmljYXRpb24gQXV0aG9yaXR5MAMCAQEagb5U
aGlzIGNlcnRpZmljYXRlIHdhcyBpc3N1ZWQgYWNjb3JkaW5nIHRvIHRoZSBDbGFz
cyAyIFZhbGlkYXRpb24gcmVxdWlyZW1lbnRzIG9mIHRoZSBTdGFydENvbSBDQSBw
b2xpY3ksIHJlbGlhbmNlIG9ubHkgZm9yIHRoZSBpbnRlbmRlZCBwdXJwb3NlIGlu
IGNvbXBsaWFuY2Ugb2YgdGhlIHJlbHlpbmcgcGFydHkgb2JsaWdhdGlvbnMuMDYG
A1UdHwQvMC0wK6ApoCeGJWh0dHA6Ly9jcmwuc3RhcnRzc2wuY29tL2NydGMyLWNy
bC5jcmwwgYkGCCsGAQUFBwEBBH0wezA3BggrBgEFBQcwAYYraHR0cDovL29jc3Au
c3RhcnRzc2wuY29tL3N1Yi9jbGFzczIvY29kZS9jYTBABggrBgEFBQcwAoY0aHR0
cDovL2FpYS5zdGFydHNzbC5jb20vY2VydHMvc3ViLmNsYXNzMi5jb2RlLmNhLmNy
dDAjBgNVHRIEHDAahhhodHRwOi8vd3d3LnN0YXJ0c3NsLmNvbS8wDQYJKoZIhvcN
AQEFBQADggEBAGpJke+n9rf7VqydNe7IOeBIrY6ItHSWu3uftbehs8AQCYDkw5q3
b2x/QpGxLkEz640TzcazZlCk5guvWwUpSgebGqdPxBjWjqToAnDrk7PJWkPqu3MD
EG1db7PB6NJnq0nRwMcUi/tkgDI3Cv/NtNVaeJIiDpozYz8h0t+n5V0UP9D5jUhk
Z1y/F671GDkIrxckF7gUxACoBMaSdhtqxIOsJFRGtV2C0aGEpXIn52ON6HpPGfVz
8Htl7ZC8Xue3UJx/VoJhJYG+PLu89+K8GKSczZf1J+6aqMT6aIa9B0mMA9pDalVt
7cGrFWA/r8Se6wgtMmd+YNqwvRUpp2kpoVE=
-----END CERTIFICATE-----

