Certificate:
    Data:
        Version: 3 (0x2)
        Serial Number:
            19:1a:32:cb:75:9c:97:b8:cf:ac:11:8d:d5:12:7f:49
    Signature Algorithm: sha256WithRSAEncryption
        Issuer: C=US, O=VeriSign, Inc., OU=VeriSign Trust Network, OU=(c) 2006 VeriSign, Inc. - For authorized use only, CN=VeriSign Class 3 Public Primary Certification Authority - G5
        Validity
            Not Before: Mar  4 00:00:00 2014 GMT
            Not After : Mar  3 23:59:59 2024 GMT
        Subject: C=US, O=Symantec Corporation, OU=Symantec Trust Network, CN=Symantec Class 3 Extended Validation Code Signing CA - G2
        Subject Public Key Info:
            Public Key Algorithm: rsaEncryption
                Public-Key: (2048 bit)
                Modulus:
                    00:d0:18:02:ee:ed:a2:8d:08:58:63:0f:26:d7:dd:
                    22:7b:88:f6:e4:c7:ec:3b:26:18:78:d3:c7:a4:20:
                    53:8d:83:7c:a5:3f:7e:a5:c8:2b:47:df:0d:f5:a6:
                    d9:c3:1d:25:93:60:cf:7c:dc:ea:03:2c:be:78:7f:
                    5c:48:6d:a7:02:d9:49:f8:a1:eb:eb:9a:61:7c:9f:
                    c0:26:d6:dc:15:d8:b8:10:7c:20:ba:5e:f4:28:f6:
                    a8:ea:a7:5c:7c:c6:9c:90:90:34:3c:b6:22:ac:fe:
                    ba:0c:3a:1e:d6:5e:84:b6:5b:f0:a3:81:70:78:8a:
                    8d:46:52:7b:fc:db:49:f3:29:13:11:74:4f:8d:16:
                    b3:c2:e3:a0:2d:c7:03:04:9d:cc:c3:72:e1:0e:0c:
                    fb:02:8e:f1:26:17:7b:6e:ae:f8:b7:33:8b:a6:61:
                    4b:45:df:f2:25:44:c7:f7:b0:98:23:36:dc:28:79:
                    0a:e8:9b:72:88:a8:d8:e8:ae:7b:7f:0a:64:45:a5:
                    f0:57:92:9a:77:06:45:1e:eb:9f:e8:66:f3:7a:7d:
                    92:81:5f:00:2d:1e:b8:f6:56:13:5a:62:0d:b7:47:
                    a1:8f:72:ef:83:5e:82:e0:94:98:e1:ac:a5:ad:86:
                    37:e0:a7:d3:ba:b1:3e:7a:eb:45:a8:f1:c1:44:7d:
                    e2:03
                Exponent: 65537 (0x10001)
        X509v3 extensions:
            X509v3 Basic Constraints: critical
                CA:TRUE, pathlen:0
            X509v3 CRL Distribution Points: 

                Full Name:
                  URI:http://s.symcb.com/pca3-g5.crl

            X509v3 Extended Key Usage: critical
                Code Signing
            X509v3 Key Usage: critical
                Certificate Sign, CRL Sign
            Authority Information Access: 
                OCSP - URI:http://s.symcd.com

            X509v3 Certificate Policies: 
                Policy: X509v3 Any Policy
                  CPS: https://d.symcb.com/cps
                  User Notice:
                    Explicit Text: https://d.symcb.com/rpa

            X509v3 Subject Alternative Name: 
                DirName:/CN=SymantecPKI-1-629
            X509v3 Subject Key Identifier: 
                16:66:DE:4A:34:E3:50:A7:11:86:03:B1:6C:A9:C6:AC:CD:59:6E:9B
            X509v3 Authority Key Identifier: 
                keyid:7F:D3:65:A7:C2:DD:EC:BB:F0:30:09:F3:43:39:FA:02:AF:33:31:33

    Signature Algorithm: sha256WithRSAEncryption
         3f:5b:19:f3:fa:13:d5:75:38:2a:5a:ee:9f:5a:a0:4c:a9:1d:
         c5:cc:94:ee:de:15:fe:f5:10:6e:a4:1b:a5:64:83:54:18:58:
         c4:0b:28:a1:85:c3:4e:74:e5:ff:89:7c:fe:d5:ed:3c:ba:71:
         9f:56:02:26:8f:16:2a:88:fe:b0:a3:27:22:ce:4b:e2:38:8e:
         00:a6:3a:86:5f:9d:e5:3e:a8:de:64:49:41:74:41:21:fd:07:
         c8:84:17:da:1d:65:30:82:cb:26:4f:39:d6:04:27:a4:81:b1:
         4b:49:c3:23:8b:7e:02:32:18:27:b7:ab:0b:f3:18:72:b6:a4:
         ee:67:06:6f:38:a6:58:8d:e0:f1:7e:5d:a4:60:c6:a8:e5:50:
         5f:e0:e8:ba:e2:8f:99:58:b6:b5:a0:a8:76:f1:a2:f1:1c:88:
         41:72:7e:52:97:9b:0a:36:99:8d:50:f7:01:eb:3c:e7:f0:22:
         6a:e5:35:8c:63:36:8a:1a:b1:d9:67:66:5f:97:1a:ef:a8:20:
         9d:f0:2f:ba:6c:ce:d9:94:85:00:f1:58:f1:7d:c9:7c:22:b5:
         07:5d:02:c6:e6:0b:bf:ab:93:93:ff:27:18:8e:33:36:7e:57:
         34:f1:c3:af:04:c1:84:f1:56:b3:e8:87:83:36:f8:d3:0a:31:
         dc:6e:2c:6d
-----BEGIN CERTIFICATE-----
MIIFVjCCBD6gAwIBAgIQGRoyy3Wcl7jPrBGN1RJ/STANBgkqhkiG9w0BAQsFADCB
yjELMAkGA1UEBhMCVVMxFzAVBgNVBAoTDlZlcmlTaWduLCBJbmMuMR8wHQYDVQQL
ExZWZXJpU2lnbiBUcnVzdCBOZXR3b3JrMTowOAYDVQQLEzEoYykgMjAwNiBWZXJp
U2lnbiwgSW5jLiAtIEZvciBhdXRob3JpemVkIHVzZSBvbmx5MUUwQwYDVQQDEzxW
ZXJpU2lnbiBDbGFzcyAzIFB1YmxpYyBQcmltYXJ5IENlcnRpZmljYXRpb24gQXV0
aG9yaXR5IC0gRzUwHhcNMTQwMzA0MDAwMDAwWhcNMjQwMzAzMjM1OTU5WjCBkTEL
MAkGA1UEBhMCVVMxHTAbBgNVBAoTFFN5bWFudGVjIENvcnBvcmF0aW9uMR8wHQYD
VQQLExZTeW1hbnRlYyBUcnVzdCBOZXR3b3JrMUIwQAYDVQQDEzlTeW1hbnRlYyBD
bGFzcyAzIEV4dGVuZGVkIFZhbGlkYXRpb24gQ29kZSBTaWduaW5nIENBIC0gRzIw
ggEiMA0GCSqGSIb3DQEBAQUAA4IBDwAwggEKAoIBAQDQGALu7aKNCFhjDybX3SJ7
iPbkx+w7Jhh408ekIFONg3ylP36lyCtH3w31ptnDHSWTYM983OoDLL54f1xIbacC
2Un4oevrmmF8n8Am1twV2LgQfCC6XvQo9qjqp1x8xpyQkDQ8tiKs/roMOh7WXoS2
W/CjgXB4io1GUnv820nzKRMRdE+NFrPC46AtxwMEnczDcuEODPsCjvEmF3turvi3
M4umYUtF3/IlRMf3sJgjNtwoeQrom3KIqNjornt/CmRFpfBXkpp3BkUe65/oZvN6
fZKBXwAtHrj2VhNaYg23R6GPcu+DXoLglJjhrKWthjfgp9O6sT5660Wo8cFEfeID
AgMBAAGjggFtMIIBaTASBgNVHRMBAf8ECDAGAQH/AgEAMC8GA1UdHwQoMCYwJKAi
oCCGHmh0dHA6Ly9zLnN5bWNiLmNvbS9wY2EzLWc1LmNybDAWBgNVHSUBAf8EDDAK
BggrBgEFBQcDAzAOBgNVHQ8BAf8EBAMCAQYwLgYIKwYBBQUHAQEEIjAgMB4GCCsG
AQUFBzABhhJodHRwOi8vcy5zeW1jZC5jb20wXwYDVR0gBFgwVjBUBgRVHSAAMEww
IwYIKwYBBQUHAgEWF2h0dHBzOi8vZC5zeW1jYi5jb20vY3BzMCUGCCsGAQUFBwIC
MBkaF2h0dHBzOi8vZC5zeW1jYi5jb20vcnBhMCkGA1UdEQQiMCCkHjAcMRowGAYD
VQQDExFTeW1hbnRlY1BLSS0xLTYyOTAdBgNVHQ4EFgQUFmbeSjTjUKcRhgOxbKnG
rM1ZbpswHwYDVR0jBBgwFoAUf9Nlp8Ld7LvwMAnzQzn6Aq8zMTMwDQYJKoZIhvcN
AQELBQADggEBAD9bGfP6E9V1OCpa7p9aoEypHcXMlO7eFf71EG6kG6Vkg1QYWMQL
KKGFw0505f+JfP7V7Ty6cZ9WAiaPFiqI/rCjJyLOS+I4jgCmOoZfneU+qN5kSUF0
QSH9B8iEF9odZTCCyyZPOdYEJ6SBsUtJwyOLfgIyGCe3qwvzGHK2pO5nBm84pliN
4PF+XaRgxqjlUF/g6Lrij5lYtrWgqHbxovEciEFyflKXmwo2mY1Q9wHrPOfwImrl
NYxjNooasdlnZl+XGu+oIJ3wL7psztmUhQDxWPF9yXwitQddAsbmC7+rk5P/JxiO
MzZ+VzTxw68EwYTxVrPoh4M2+NMKMdxuLG0=
-----END CERTIFICATE-----

Certificate:
    Data:
        Version: 3 (0x2)
        Serial Number:
            1c:30:ca:69:31:e2:7b:82:29:80:5a:55:44:46:c1:00
    Signature Algorithm: sha256WithRSAEncryption
        Issuer: C=US, O=Symantec Corporation, OU=Symantec Trust Network, CN=Symantec Class 3 Extended Validation Code Signing CA - G2
        Validity
            Not Before: Nov 19 00:00:00 2014 GMT
            Not After : Nov 18 23:59:59 2015 GMT
        Subject: jurisdictionC=PL/businessCategory=Private Organization/serialNumber=0000485488, C=PL, ST=MALOPOLSKIE, L=Krakow, O=exc sp. z.o.o., CN=exc sp. z.o.o.
        Subject Public Key Info:
            Public Key Algorithm: rsaEncryption
                Public-Key: (2048 bit)
                Modulus:
                    00:9e:5b:f3:81:28:81:20:5f:bb:f6:e9:b4:22:e4:
                    a0:d9:a2:8d:b9:af:93:e9:70:8a:c4:47:a0:ac:1a:
                    0e:b1:f6:c3:a4:bd:f4:c0:70:8a:34:26:73:df:8f:
                    e8:9b:ff:e3:2f:60:6b:98:43:70:ef:aa:62:29:82:
                    bd:6d:5f:37:11:84:38:1a:8a:c9:da:76:17:c3:2f:
                    5e:35:8f:66:0e:0c:ab:04:3b:8d:65:1f:af:87:8c:
                    4b:58:01:98:b6:8b:e9:83:4a:6e:26:70:dc:c5:2c:
                    ba:17:ab:d1:49:9b:0b:74:8a:b7:8f:bd:b1:14:8a:
                    87:29:89:0e:d1:00:92:ba:cf:75:da:e9:1c:be:bf:
                    26:02:88:65:2e:76:6b:66:5b:17:fe:fc:b6:e0:d3:
                    b5:f5:aa:46:e2:6a:97:b7:4a:82:96:00:c2:30:4e:
                    8f:e8:03:fd:b7:58:13:79:e8:f5:7c:d8:b1:6f:e4:
                    ff:4e:3f:28:f2:86:7e:5b:73:d1:08:2d:12:aa:71:
                    7d:78:9e:f6:47:be:39:86:e9:f8:6c:ba:2b:14:68:
                    f2:aa:c9:df:fd:1c:18:5d:f1:0e:59:3e:f0:9a:6c:
                    67:ea:5d:aa:7e:96:3e:c6:1c:63:f2:39:ff:7d:50:
                    76:1b:49:81:21:99:ea:f0:33:c6:0b:06:20:af:5b:
                    84:a5
                Exponent: 65537 (0x10001)
        X509v3 extensions:
            X509v3 Subject Alternative Name: 
                othername:<unsupported>
            X509v3 Basic Constraints: 
                CA:FALSE
            X509v3 Key Usage: critical
                Digital Signature
            X509v3 CRL Distribution Points: 

                Full Name:
                  URI:http://sw.symcb.com/sw.crl

            X509v3 Certificate Policies: 
                Policy: 2.16.840.1.113733.1.7.23.6
                  CPS: https://d.symcb.com/cps
                  User Notice:
                    Explicit Text: https://d.symcb.com/rpa

            X509v3 Extended Key Usage: critical
                Code Signing
            X509v3 Authority Key Identifier: 
                keyid:16:66:DE:4A:34:E3:50:A7:11:86:03:B1:6C:A9:C6:AC:CD:59:6E:9B

            X509v3 Subject Key Identifier: 
                17:DA:F8:1F:05:56:48:AA:6F:F5:5B:EC:85:04:4C:F0:B7:D6:35:5B
            Authority Information Access: 
                OCSP - URI:http://sw.symcd.com
                CA Issuers - URI:http://sw1.symcb.com/sw.crt

    Signature Algorithm: sha256WithRSAEncryption
         28:b0:91:1f:6e:a5:8f:01:b2:22:c8:d7:07:a7:fd:11:12:10:
         43:c3:a6:68:8e:bc:84:e5:39:7f:22:48:16:92:a9:72:50:24:
         41:c9:1e:41:e7:e2:d1:9f:79:81:8a:2f:6c:a2:b4:cf:da:e0:
         a1:12:37:41:2e:91:ae:ec:b0:7a:f5:7f:15:6e:71:55:7c:fe:
         32:1d:18:cf:dc:e8:61:89:07:e3:f5:e6:f6:38:fe:61:cd:c0:
         77:a7:b5:c3:25:32:82:3e:63:c7:c6:8d:16:77:23:7d:0e:ec:
         f5:c9:af:77:85:da:22:54:e1:20:49:f1:37:ef:25:8a:88:a8:
         e7:4c:40:8c:25:5d:8e:84:0a:5f:ae:d9:4b:63:79:b0:7b:a2:
         28:e0:d4:e7:33:89:08:d1:1b:70:02:5a:13:5c:93:a0:b5:12:
         31:d5:1b:79:36:28:51:00:03:44:84:c7:01:2d:63:01:f1:83:
         4b:d8:23:24:b1:9d:a8:ab:78:29:3e:b4:95:45:ca:1c:87:52:
         f1:06:02:cb:ec:22:2c:a1:7c:47:ca:6d:94:a9:64:8c:0f:b8:
         a5:c0:5d:22:53:65:9e:16:81:42:b2:97:64:d8:3f:6e:0e:1c:
         3f:fc:99:dc:08:af:51:73:df:5e:38:5d:30:e2:bd:4f:e9:2e:
         00:8b:27:db
-----BEGIN CERTIFICATE-----
MIIFXjCCBEagAwIBAgIQHDDKaTHie4IpgFpVREbBADANBgkqhkiG9w0BAQsFADCB
kTELMAkGA1UEBhMCVVMxHTAbBgNVBAoTFFN5bWFudGVjIENvcnBvcmF0aW9uMR8w
HQYDVQQLExZTeW1hbnRlYyBUcnVzdCBOZXR3b3JrMUIwQAYDVQQDEzlTeW1hbnRl
YyBDbGFzcyAzIEV4dGVuZGVkIFZhbGlkYXRpb24gQ29kZSBTaWduaW5nIENBIC0g
RzIwHhcNMTQxMTE5MDAwMDAwWhcNMTUxMTE4MjM1OTU5WjCBrzETMBEGCysGAQQB
gjc8AgEDEwJQTDEdMBsGA1UEDxMUUHJpdmF0ZSBPcmdhbml6YXRpb24xEzARBgNV
BAUTCjAwMDA0ODU0ODgxCzAJBgNVBAYTAlBMMRQwEgYDVQQIDAtNQUxPUE9MU0tJ
RTEPMA0GA1UEBwwGS3Jha293MRcwFQYDVQQKDA5leGMgc3AuIHouby5vLjEXMBUG
A1UEAxQOZXhjIHNwLiB6Lm8uby4wggEiMA0GCSqGSIb3DQEBAQUAA4IBDwAwggEK
AoIBAQCeW/OBKIEgX7v26bQi5KDZoo25r5PpcIrER6CsGg6x9sOkvfTAcIo0JnPf
j+ib/+MvYGuYQ3DvqmIpgr1tXzcRhDgaisnadhfDL141j2YODKsEO41lH6+HjEtY
AZi2i+mDSm4mcNzFLLoXq9FJmwt0irePvbEUiocpiQ7RAJK6z3Xa6Ry+vyYCiGUu
dmtmWxf+/Lbg07X1qkbiape3SoKWAMIwTo/oA/23WBN56PV82LFv5P9OPyjyhn5b
c9EILRKqcX14nvZHvjmG6fhsuisUaPKqyd/9HBhd8Q5ZPvCabGfqXap+lj7GHGPy
Of99UHYbSYEhmerwM8YLBiCvW4SlAgMBAAGjggGQMIIBjDAoBgNVHREEITAfoB0G
CCsGAQUFBwgDoBEwDwwNUEwtMDAwMDQ4NTQ4ODAJBgNVHRMEAjAAMA4GA1UdDwEB
/wQEAwIHgDArBgNVHR8EJDAiMCCgHqAchhpodHRwOi8vc3cuc3ltY2IuY29tL3N3
LmNybDBmBgNVHSAEXzBdMFsGC2CGSAGG+EUBBxcGMEwwIwYIKwYBBQUHAgEWF2h0
dHBzOi8vZC5zeW1jYi5jb20vY3BzMCUGCCsGAQUFBwICMBkMF2h0dHBzOi8vZC5z
eW1jYi5jb20vcnBhMBYGA1UdJQEB/wQMMAoGCCsGAQUFBwMDMB8GA1UdIwQYMBaA
FBZm3ko041CnEYYDsWypxqzNWW6bMB0GA1UdDgQWBBQX2vgfBVZIqm/1W+yFBEzw
t9Y1WzBYBggrBgEFBQcBAQRMMEowHwYIKwYBBQUHMAGGE2h0dHA6Ly9zdy5zeW1j
ZC5jb20wJwYIKwYBBQUHMAKGG2h0dHA6Ly9zdzEuc3ltY2IuY29tL3N3LmNydDAN
BgkqhkiG9w0BAQsFAAOCAQEAKLCRH26ljwGyIsjXB6f9ERIQQ8OmaI68hOU5fyJI
FpKpclAkQckeQefi0Z95gYovbKK0z9rgoRI3QS6RruywevV/FW5xVXz+Mh0Yz9zo
YYkH4/Xm9jj+Yc3Ad6e1wyUygj5jx8aNFncjfQ7s9cmvd4XaIlThIEnxN+8lioio
50xAjCVdjoQKX67ZS2N5sHuiKODU5zOJCNEbcAJaE1yToLUSMdUbeTYoUQADRITH
AS1jAfGDS9gjJLGdqKt4KT60lUXKHIdS8QYCy+wiLKF8R8ptlKlkjA+4pcBdIlNl
nhaBQrKXZNg/bg4cP/yZ3AivUXPfXjhdMOK9T+kuAIsn2w==
-----END CERTIFICATE-----

Certificate:
    Data:
        Version: 3 (0x2)
        Serial Number:
            03:01:9a:02:3a:ff:58:b1:6b:d6:d5:ea:e6:17:f0:66
    Signature Algorithm: sha1WithRSAEncryption
        Issuer: C=US, O=DigiCert Inc, OU=www.digicert.com, CN=DigiCert Assured ID CA-1
        Validity
            Not Before: Oct 22 00:00:00 2014 GMT
            Not After : Oct 22 00:00:00 2024 GMT
        Subject: C=US, O=DigiCert, CN=DigiCert Timestamp Responder
        Subject Public Key Info:
            Public Key Algorithm: rsaEncryption
                Public-Key: (2048 bit)
                Modulus:
                    00:a3:64:5d:fc:7c:b3:e0:82:35:e0:e0:f6:c6:2a:
                    e6:49:75:3b:cc:6e:e0:53:a9:9f:1f:64:59:e6:7c:
                    6b:7f:6b:8c:9d:55:f8:92:e3:9e:d5:5a:63:5b:02:
                    49:50:d9:83:ce:6f:66:ee:dd:cb:85:e9:5f:a5:f9:
                    d4:87:74:88:44:3b:19:c9:e5:f5:91:9f:c6:14:39:
                    ac:24:ea:a8:4b:2c:91:89:cc:5e:28:f4:64:b6:50:
                    b7:f5:12:b3:73:96:0a:67:a3:be:61:9f:ae:f3:fd:
                    12:78:75:0e:a6:5b:14:fd:45:23:8e:86:44:55:7d:
                    18:86:05:8c:55:87:79:48:46:f7:ca:0e:8d:a7:de:
                    4e:5f:e2:a8:b6:2d:59:02:61:88:61:72:18:68:b9:
                    b8:7c:ee:e6:e7:34:2f:31:77:81:30:1f:bb:36:01:
                    8d:ef:27:e3:f7:9a:f0:4c:31:64:8d:e3:eb:fa:19:
                    87:a8:7e:cf:ec:8c:0c:36:5b:7a:c1:7a:b8:78:c7:
                    c9:06:2e:46:10:c8:8d:e8:04:60:db:bc:73:74:fa:
                    4e:d8:fe:aa:40:f1:b2:ce:70:46:83:e9:da:40:a1:
                    59:3a:d9:15:09:57:99:56:30:93:f3:c9:61:cc:d0:
                    08:cc:6b:ec:62:42:91:ac:02:c0:ef:a4:f0:89:11:
                    8f:77
                Exponent: 65537 (0x10001)
        X509v3 extensions:
            X509v3 Key Usage: critical
                Digital Signature
            X509v3 Basic Constraints: critical
                CA:FALSE
            X509v3 Extended Key Usage: critical
                Time Stamping
            X509v3 Certificate Policies: 
                Policy: 2.16.840.1.114412.7.1
                  CPS: https://www.digicert.com/CPS
                  User Notice:
                    Explicit Text: 
                Policy: 2.16.840.1.114412.3.21

            X509v3 Authority Key Identifier: 
                keyid:15:00:12:2B:13:98:B2:99:07:ED:1E:DF:A2:BE:57:0D:2B:67:02:CD

            X509v3 Subject Key Identifier: 
                61:5A:4D:24:B6:49:32:9D:4A:2A:79:1A:83:4B:F4:1E:89:C1:CA:7D
            X509v3 CRL Distribution Points: 

                Full Name:
                  URI:http://crl3.digicert.com/DigiCertAssuredIDCA-1.crl

                Full Name:
                  URI:http://crl4.digicert.com/DigiCertAssuredIDCA-1.crl

            Authority Information Access: 
                OCSP - URI:http://ocsp.digicert.com
                CA Issuers - URI:http://cacerts.digicert.com/DigiCertAssuredIDCA-1.crt

    Signature Algorithm: sha1WithRSAEncryption
         9d:25:7e:1b:33:4d:b2:26:81:5c:9b:86:ce:23:20:0f:80:87:
         e5:88:ff:ff:b1:d4:6a:2c:31:ed:3a:17:19:71:17:cd:a9:1b:
         bc:5a:16:39:00:9d:e3:6c:84:e4:5a:40:fb:de:06:01:8c:37:
         fa:9b:b1:9d:24:7e:fe:20:a4:57:ad:5b:b7:9a:b0:60:26:ea:
         69:57:21:5d:34:2f:1f:71:b0:83:94:19:05:6b:35:90:10:a0:
         7b:97:c7:f6:3f:e7:e2:11:41:a6:bd:62:d9:f0:27:3d:38:1d:
         28:6f:3a:52:09:f0:ec:70:62:d3:62:4b:b0:e0:73:a6:92:c0:
         d3:8e:31:d8:2f:e3:6d:17:13:06:ee:e4:03:b6:14:ab:f3:8f:
         43:a7:71:9d:21:dd:14:ca:15:5d:92:41:da:f9:0f:81:d1:99:
         74:0d:26:c4:0e:7f:1b:b5:f5:a0:f1:c6:77:06:28:15:e9:d8:
         93:e5:55:16:f0:bb:0a:ab:1c:db:5c:48:27:66:c8:a3:8b:0a:
         1c:e5:95:da:ae:c4:2e:59:a0:61:dd:da:f3:6d:a2:61:e9:8a:
         0b:6d:ec:12:18:bd:f7:55:54:40:03:92:2b:6b:c2:51:c2:0a:
         48:af:b0:d4:6e:e0:f4:14:0a:3a:1b:e3:8f:3d:ca:af:6a:8d:
         7b:dc:d8:44
-----BEGIN CERTIFICATE-----
MIIGajCCBVKgAwIBAgIQAwGaAjr/WLFr1tXq5hfwZjANBgkqhkiG9w0BAQUFADBi
MQswCQYDVQQGEwJVUzEVMBMGA1UEChMMRGlnaUNlcnQgSW5jMRkwFwYDVQQLExB3
d3cuZGlnaWNlcnQuY29tMSEwHwYDVQQDExhEaWdpQ2VydCBBc3N1cmVkIElEIENB
LTEwHhcNMTQxMDIyMDAwMDAwWhcNMjQxMDIyMDAwMDAwWjBHMQswCQYDVQQGEwJV
UzERMA8GA1UEChMIRGlnaUNlcnQxJTAjBgNVBAMTHERpZ2lDZXJ0IFRpbWVzdGFt
cCBSZXNwb25kZXIwggEiMA0GCSqGSIb3DQEBAQUAA4IBDwAwggEKAoIBAQCjZF38
fLPggjXg4PbGKuZJdTvMbuBTqZ8fZFnmfGt/a4ydVfiS457VWmNbAklQ2YPOb2bu
3cuF6V+l+dSHdIhEOxnJ5fWRn8YUOawk6qhLLJGJzF4o9GS2ULf1ErNzlgpno75h
n67z/RJ4dQ6mWxT9RSOOhkRVfRiGBYxVh3lIRvfKDo2n3k5f4qi2LVkCYYhhchho
ubh87ubnNC8xd4EwH7s2AY3vJ+P3mvBMMWSN4+v6GYeofs/sjAw2W3rBerh4x8kG
LkYQyI3oBGDbvHN0+k7Y/qpA8bLOcEaD6dpAoVk62RUJV5lWMJPzyWHM0AjMa+xi
QpGsAsDvpPCJEY93AgMBAAGjggM1MIIDMTAOBgNVHQ8BAf8EBAMCB4AwDAYDVR0T
AQH/BAIwADAWBgNVHSUBAf8EDDAKBggrBgEFBQcDCDCCAb8GA1UdIASCAbYwggGy
MIIBoQYJYIZIAYb9bAcBMIIBkjAoBggrBgEFBQcCARYcaHR0cHM6Ly93d3cuZGln
aWNlcnQuY29tL0NQUzCCAWQGCCsGAQUFBwICMIIBVh6CAVIAQQBuAHkAIAB1AHMA
ZQAgAG8AZgAgAHQAaABpAHMAIABDAGUAcgB0AGkAZgBpAGMAYQB0AGUAIABjAG8A
bgBzAHQAaQB0AHUAdABlAHMAIABhAGMAYwBlAHAAdABhAG4AYwBlACAAbwBmACAA
dABoAGUAIABEAGkAZwBpAEMAZQByAHQAIABDAFAALwBDAFAAUwAgAGEAbgBkACAA
dABoAGUAIABSAGUAbAB5AGkAbgBnACAAUABhAHIAdAB5ACAAQQBnAHIAZQBlAG0A
ZQBuAHQAIAB3AGgAaQBjAGgAIABsAGkAbQBpAHQAIABsAGkAYQBiAGkAbABpAHQA
eQAgAGEAbgBkACAAYQByAGUAIABpAG4AYwBvAHIAcABvAHIAYQB0AGUAZAAgAGgA
ZQByAGUAaQBuACAAYgB5ACAAcgBlAGYAZQByAGUAbgBjAGUALjALBglghkgBhv1s
AxUwHwYDVR0jBBgwFoAUFQASKxOYspkH7R7for5XDStnAs0wHQYDVR0OBBYEFGFa
TSS2STKdSip5GoNL9B6Jwcp9MH0GA1UdHwR2MHQwOKA2oDSGMmh0dHA6Ly9jcmwz
LmRpZ2ljZXJ0LmNvbS9EaWdpQ2VydEFzc3VyZWRJRENBLTEuY3JsMDigNqA0hjJo
dHRwOi8vY3JsNC5kaWdpY2VydC5jb20vRGlnaUNlcnRBc3N1cmVkSURDQS0xLmNy
bDB3BggrBgEFBQcBAQRrMGkwJAYIKwYBBQUHMAGGGGh0dHA6Ly9vY3NwLmRpZ2lj
ZXJ0LmNvbTBBBggrBgEFBQcwAoY1aHR0cDovL2NhY2VydHMuZGlnaWNlcnQuY29t
L0RpZ2lDZXJ0QXNzdXJlZElEQ0EtMS5jcnQwDQYJKoZIhvcNAQEFBQADggEBAJ0l
fhszTbImgVybhs4jIA+Ah+WI//+x1GosMe06FxlxF82pG7xaFjkAneNshORaQPve
BgGMN/qbsZ0kfv4gpFetW7easGAm6mlXIV00Lx9xsIOUGQVrNZAQoHuXx/Y/5+IR
Qaa9YtnwJz04HShvOlIJ8OxwYtNiS7Dgc6aSwNOOMdgv420XEwbu5AO2FKvzj0On
cZ0h3RTKFV2SQdr5D4HRmXQNJsQOfxu19aDxxncGKBXp2JPlVRbwuwqrHNtcSCdm
yKOLChzlldquxC5ZoGHd2vNtomHpigtt7BIYvfdVVEADkitrwlHCCkivsNRu4PQU
Cjob4489yq9qjXvc2EQ=
-----END CERTIFICATE-----

Certificate:
    Data:
        Version: 3 (0x2)
        Serial Number:
            06:fd:f9:03:96:03:ad:ea:00:0a:eb:3f:27:bb:ba:1b
    Signature Algorithm: sha1WithRSAEncryption
        Issuer: C=US, O=DigiCert Inc, OU=www.digicert.com, CN=DigiCert Assured ID Root CA
        Validity
            Not Before: Nov 10 00:00:00 2006 GMT
            Not After : Nov 10 00:00:00 2021 GMT
        Subject: C=US, O=DigiCert Inc, OU=www.digicert.com, CN=DigiCert Assured ID CA-1
        Subject Public Key Info:
            Public Key Algorithm: rsaEncryption
                Public-Key: (2048 bit)
                Modulus:
                    00:e8:82:2d:99:f9:ca:c2:42:95:a5:80:73:40:70:
                    d2:9e:56:54:5c:a9:c4:d2:41:06:8f:c9:33:fc:4d:
                    45:91:5c:81:9f:ed:2c:9c:f8:16:59:df:9e:b5:24:
                    15:c2:98:b9:b4:77:49:dc:89:c4:0a:da:af:cb:5e:
                    6b:ed:ad:b0:71:31:eb:cf:3a:40:0c:46:4d:93:ec:
                    8b:7a:36:08:03:ab:0c:34:fe:18:49:82:fe:c7:c7:
                    31:48:80:7c:1e:a2:0f:92:0e:50:c9:c6:87:eb:36:
                    3f:d8:30:c3:ff:a6:f7:fb:a2:cd:6f:73:23:fe:ac:
                    56:05:90:f0:32:21:16:89:c6:70:88:f9:05:97:7d:
                    a3:c7:43:dd:02:e8:3b:3d:ed:b1:41:a3:ed:3f:be:
                    db:95:48:c4:ee:1e:b3:f2:bc:0c:2b:99:d0:c6:5d:
                    12:42:81:e1:83:6e:82:73:3f:26:4b:14:90:ae:59:
                    66:0a:c4:8d:be:d2:ce:06:ae:ad:84:6f:48:84:9b:
                    4f:40:b9:f1:4c:f2:af:98:fb:f6:ce:40:5d:5c:f6:
                    a8:f1:2f:af:ec:89:22:f2:6b:18:65:b1:c1:73:ad:
                    d7:f1:d8:cf:1e:0a:74:5c:42:b8:68:7e:b7:d5:77:
                    0a:27:56:7c:0f:62:a4:3f:32:14:60:95:fd:07:04:
                    a2:09
                Exponent: 65537 (0x10001)
        X509v3 extensions:
            X509v3 Key Usage: critical
                Digital Signature, Certificate Sign, CRL Sign
            X509v3 Extended Key Usage: 
                TLS Web Server Authentication, TLS Web Client Authentication, Code Signing, E-mail Protection, Time Stamping
            X509v3 Certificate Policies: 
                Policy: 2.16.840.1.114412.0.1.4
                  CPS: http://www.digicert.com/ssl-cps-repository.htm
                  User Notice:
                    Explicit Text: 
                Policy: 2.16.840.1.114412.3.21

            X509v3 Basic Constraints: critical
                CA:TRUE, pathlen:0
            Authority Information Access: 
                OCSP - URI:http://ocsp.digicert.com
                CA Issuers - URI:http://cacerts.digicert.com/DigiCertAssuredIDRootCA.crt

            X509v3 CRL Distribution Points: 

                Full Name:
                  URI:http://crl3.digicert.com/DigiCertAssuredIDRootCA.crl

                Full Name:
                  URI:http://crl4.digicert.com/DigiCertAssuredIDRootCA.crl

            X509v3 Subject Key Identifier: 
                15:00:12:2B:13:98:B2:99:07:ED:1E:DF:A2:BE:57:0D:2B:67:02:CD
            X509v3 Authority Key Identifier: 
                keyid:45:EB:A2:AF:F4:92:CB:82:31:2D:51:8B:A7:A7:21:9D:F3:6D:C8:0F

    Signature Algorithm: sha1WithRSAEncryption
         46:50:3e:c9:b7:28:24:a7:38:1d:b6:5b:29:af:52:cf:52:e9:
         31:47:ab:56:5c:7b:d5:0d:0b:41:b3:ef:ec:75:1f:74:38:f2:
         b2:5c:61:a2:9c:95:c3:50:e4:82:b9:23:d1:ba:3a:86:72:ad:
         38:78:ac:75:5d:17:17:34:72:47:85:94:56:d1:eb:bb:36:84:
         77:cc:24:a5:f3:04:19:55:a9:e7:e3:e7:ab:62:cd:fb:8b:2d:
         90:c2:c0:d2:b5:94:bd:5e:4f:b1:05:d2:0e:3d:1a:a9:14:5b:
         a6:86:31:62:a8:a8:33:e4:9b:39:a7:c4:f5:ce:1d:78:76:94:
         25:73:e4:2a:ab:cf:9c:76:4b:ed:5f:c2:4b:16:e4:4b:70:4c:
         00:89:1e:fc:c5:79:bc:4c:12:57:fe:5f:e1:1e:bc:02:5d:a8:
         fe:fb:07:38:4f:0d:c6:5d:91:b9:0f:67:45:cd:d6:83:ed:e7:
         92:0d:8d:b1:69:8c:4f:fb:59:e0:23:0f:d2:aa:ae:00:7c:ee:
         9c:42:0e:cf:91:d7:27:b7:16:ee:0f:c3:bd:7c:0a:a0:ee:2c:
         08:55:85:22:b8:eb:18:1a:4d:fc:2a:21:ad:49:31:83:47:95:
         77:71:dc:b1:1b:4b:4b:1c:10:9c:77:14:c1:9d:4f:2f:5a:95:
         08:29:10:26
-----BEGIN CERTIFICATE-----
MIIGzTCCBbWgAwIBAgIQBv35A5YDreoACus/J7u6GzANBgkqhkiG9w0BAQUFADBl
MQswCQYDVQQGEwJVUzEVMBMGA1UEChMMRGlnaUNlcnQgSW5jMRkwFwYDVQQLExB3
d3cuZGlnaWNlcnQuY29tMSQwIgYDVQQDExtEaWdpQ2VydCBBc3N1cmVkIElEIFJv
b3QgQ0EwHhcNMDYxMTEwMDAwMDAwWhcNMjExMTEwMDAwMDAwWjBiMQswCQYDVQQG
EwJVUzEVMBMGA1UEChMMRGlnaUNlcnQgSW5jMRkwFwYDVQQLExB3d3cuZGlnaWNl
cnQuY29tMSEwHwYDVQQDExhEaWdpQ2VydCBBc3N1cmVkIElEIENBLTEwggEiMA0G
CSqGSIb3DQEBAQUAA4IBDwAwggEKAoIBAQDogi2Z+crCQpWlgHNAcNKeVlRcqcTS
QQaPyTP8TUWRXIGf7Syc+BZZ3561JBXCmLm0d0ncicQK2q/LXmvtrbBxMevPOkAM
Rk2T7It6NggDqww0/hhJgv7HxzFIgHweog+SDlDJxofrNj/YMMP/pvf7os1vcyP+
rFYFkPAyIRaJxnCI+QWXfaPHQ90C6Ds97bFBo+0/vtuVSMTuHrPyvAwrmdDGXRJC
geGDboJzPyZLFJCuWWYKxI2+0s4Grq2Eb0iEm09AufFM8q+Y+/bOQF1c9qjxL6/s
iSLyaxhlscFzrdfx2M8eCnRcQrhofrfVdwonVnwPYqQ/MhRglf0HBKIJAgMBAAGj
ggN6MIIDdjAOBgNVHQ8BAf8EBAMCAYYwOwYDVR0lBDQwMgYIKwYBBQUHAwEGCCsG
AQUFBwMCBggrBgEFBQcDAwYIKwYBBQUHAwQGCCsGAQUFBwMIMIIB0gYDVR0gBIIB
yTCCAcUwggG0BgpghkgBhv1sAAEEMIIBpDA6BggrBgEFBQcCARYuaHR0cDovL3d3
dy5kaWdpY2VydC5jb20vc3NsLWNwcy1yZXBvc2l0b3J5Lmh0bTCCAWQGCCsGAQUF
BwICMIIBVh6CAVIAQQBuAHkAIAB1AHMAZQAgAG8AZgAgAHQAaABpAHMAIABDAGUA
cgB0AGkAZgBpAGMAYQB0AGUAIABjAG8AbgBzAHQAaQB0AHUAdABlAHMAIABhAGMA
YwBlAHAAdABhAG4AYwBlACAAbwBmACAAdABoAGUAIABEAGkAZwBpAEMAZQByAHQA
IABDAFAALwBDAFAAUwAgAGEAbgBkACAAdABoAGUAIABSAGUAbAB5AGkAbgBnACAA
UABhAHIAdAB5ACAAQQBnAHIAZQBlAG0AZQBuAHQAIAB3AGgAaQBjAGgAIABsAGkA
bQBpAHQAIABsAGkAYQBiAGkAbABpAHQAeQAgAGEAbgBkACAAYQByAGUAIABpAG4A
YwBvAHIAcABvAHIAYQB0AGUAZAAgAGgAZQByAGUAaQBuACAAYgB5ACAAcgBlAGYA
ZQByAGUAbgBjAGUALjALBglghkgBhv1sAxUwEgYDVR0TAQH/BAgwBgEB/wIBADB5
BggrBgEFBQcBAQRtMGswJAYIKwYBBQUHMAGGGGh0dHA6Ly9vY3NwLmRpZ2ljZXJ0
LmNvbTBDBggrBgEFBQcwAoY3aHR0cDovL2NhY2VydHMuZGlnaWNlcnQuY29tL0Rp
Z2lDZXJ0QXNzdXJlZElEUm9vdENBLmNydDCBgQYDVR0fBHoweDA6oDigNoY0aHR0
cDovL2NybDMuZGlnaWNlcnQuY29tL0RpZ2lDZXJ0QXNzdXJlZElEUm9vdENBLmNy
bDA6oDigNoY0aHR0cDovL2NybDQuZGlnaWNlcnQuY29tL0RpZ2lDZXJ0QXNzdXJl
ZElEUm9vdENBLmNybDAdBgNVHQ4EFgQUFQASKxOYspkH7R7for5XDStnAs0wHwYD
VR0jBBgwFoAUReuir/SSy4IxLVGLp6chnfNtyA8wDQYJKoZIhvcNAQEFBQADggEB
AEZQPsm3KCSnOB22WymvUs9S6TFHq1Zce9UNC0Gz7+x1H3Q48rJcYaKclcNQ5IK5
I9G6OoZyrTh4rHVdFxc0ckeFlFbR67s2hHfMJKXzBBlVqefj56tizfuLLZDCwNK1
lL1eT7EF0g49GqkUW6aGMWKoqDPkmzmnxPXOHXh2lCVz5Cqrz5x2S+1fwksW5Etw
TACJHvzFebxMElf+X+EevAJdqP77BzhPDcZdkbkPZ0XN1oPt55INjbFpjE/7WeAj
D9KqrgB87pxCDs+R1ye3Fu4Pw718CqDuLAhVhSK46xgaTfwqIa1JMYNHlXdx3LEb
S0scEJx3FMGdTy9alQgpECY=
-----END CERTIFICATE-----

