Certificate:
    Data:
        Version: 3 (0x2)
        Serial Number:
            19:0f:bf:70:c2:4a:70:76:72:ee:53:0c:4a:b3:fc:30
    Signature Algorithm: sha1WithRSAEncryption
        Issuer: C=US, O=VeriSign, Inc., OU=VeriSign Trust Network, OU=Terms of use at https://www.verisign.com/rpa (c)10, CN=VeriSign Class 3 Code Signing 2010 CA
        Validity
            Not Before: Apr 10 00:00:00 2014 GMT
            Not After : Jun  9 23:59:59 2015 GMT
        Subject: C=US, ST=Nevada, L=Henderson, O=Red Dog Media, Inc., OU=Digital ID Class 3 - Microsoft Software Validation v2, CN=Red Dog Media, Inc.
        Subject Public Key Info:
            Public Key Algorithm: rsaEncryption
                Public-Key: (2048 bit)
                Modulus:
                    00:da:6c:2b:1c:74:c5:2b:1e:12:f6:98:45:af:65:
                    ab:85:3a:f4:19:62:58:d6:d3:5c:51:73:59:1f:73:
                    49:8d:07:02:0a:0d:69:3d:74:ba:aa:35:2a:3b:48:
                    5f:f9:6f:22:8d:fe:6b:3b:90:14:89:fa:6f:4c:1c:
                    0d:d6:1a:9e:04:9f:84:0d:e9:80:76:45:b4:f5:4f:
                    b2:bc:e4:31:41:43:bd:59:42:32:43:40:25:4c:b4:
                    6d:c8:6f:39:78:85:38:73:c1:7d:2f:2e:21:31:ca:
                    f0:c1:93:66:59:2f:d1:42:9d:22:3a:90:97:aa:48:
                    ad:ed:ef:0f:1e:5e:57:63:5f:94:ac:8d:55:68:32:
                    cc:22:e9:ca:2c:bc:ea:4b:6c:27:1a:59:bb:2c:25:
                    38:cc:21:5a:3d:80:73:f2:39:ca:3c:9f:6a:0b:fb:
                    43:68:48:15:ca:5d:1b:7c:2b:8b:d0:d8:ee:90:ef:
                    e8:ec:a0:07:c6:ff:56:0d:c3:c6:2e:a8:a4:80:09:
                    65:9c:e7:78:74:49:56:5a:24:c1:da:5f:31:b2:f8:
                    b8:da:59:82:1a:57:3f:fc:97:ef:aa:27:14:28:58:
                    32:a5:b2:e1:eb:20:c1:48:69:fa:ed:ee:84:3e:d0:
                    50:29:6e:5b:b3:69:e9:1d:d8:e6:45:64:a6:85:c0:
                    cd:49
                Exponent: 65537 (0x10001)
        X509v3 extensions:
            X509v3 Basic Constraints: 
                CA:FALSE
            X509v3 Key Usage: critical
                Digital Signature
            X509v3 CRL Distribution Points: 

                Full Name:
                  URI:http://csc3-2010-crl.verisign.com/CSC3-2010.crl

            X509v3 Certificate Policies: 
                Policy: 2.16.840.1.113733.1.7.23.3
                  CPS: https://www.verisign.com/rpa

            X509v3 Extended Key Usage: 
                Code Signing
            Authority Information Access: 
                OCSP - URI:http://ocsp.verisign.com
                CA Issuers - URI:http://csc3-2010-aia.verisign.com/CSC3-2010.cer

            X509v3 Authority Key Identifier: 
                keyid:CF:99:A9:EA:7B:26:F4:4B:C9:8E:8F:D7:F0:05:26:EF:E3:D2:A7:9D

            Netscape Cert Type: 
                Object Signing
            1.3.6.1.4.1.311.2.1.27: 
                0.......
    Signature Algorithm: sha1WithRSAEncryption
         1f:1b:ae:57:6d:7e:d8:e6:91:15:74:94:3b:20:79:3b:04:06:
         2a:b3:a9:9d:5f:3f:71:6e:3a:8f:46:7d:a9:af:08:72:4c:46:
         59:80:e8:84:8a:d7:d8:14:04:13:55:31:85:79:5c:c1:28:98:
         a7:0a:30:e9:09:ec:78:da:3a:f2:09:84:bd:6d:40:bb:0e:04:
         5e:bd:af:0f:4f:35:09:21:b5:8a:dc:df:d3:18:98:46:2d:0d:
         96:48:86:90:47:8e:8a:f5:5f:5b:6e:d6:a2:99:84:c4:73:b0:
         b5:62:38:97:9d:f2:ae:53:19:90:9c:5b:9b:2b:6b:ac:50:74:
         69:d7:4f:09:e6:fc:1f:75:df:4d:05:7c:3d:37:67:47:72:3e:
         af:7e:82:f0:12:a3:77:1e:90:72:41:29:5c:a9:3b:35:cd:50:
         f8:aa:ae:c7:b4:a5:9d:06:5b:1f:bf:46:84:53:f6:11:5e:a3:
         2f:48:4a:c6:10:b7:71:97:bd:06:6b:3b:f8:36:7a:da:62:96:
         0a:27:f2:ed:8f:12:51:7c:ba:45:8e:4d:e9:6f:d5:f7:d2:45:
         6e:e9:c0:d7:13:ca:3c:1a:af:7a:f6:46:9b:2d:12:68:b2:1d:
         b9:53:0a:cb:88:99:bc:56:9d:02:3b:d7:8d:d3:97:88:c8:7d:
         56:f9:60:a5
-----BEGIN CERTIFICATE-----
MIIFazCCBFOgAwIBAgIQGQ+/cMJKcHZy7lMMSrP8MDANBgkqhkiG9w0BAQUFADCB
tDELMAkGA1UEBhMCVVMxFzAVBgNVBAoTDlZlcmlTaWduLCBJbmMuMR8wHQYDVQQL
ExZWZXJpU2lnbiBUcnVzdCBOZXR3b3JrMTswOQYDVQQLEzJUZXJtcyBvZiB1c2Ug
YXQgaHR0cHM6Ly93d3cudmVyaXNpZ24uY29tL3JwYSAoYykxMDEuMCwGA1UEAxMl
VmVyaVNpZ24gQ2xhc3MgMyBDb2RlIFNpZ25pbmcgMjAxMCBDQTAeFw0xNDA0MTAw
MDAwMDBaFw0xNTA2MDkyMzU5NTlaMIGuMQswCQYDVQQGEwJVUzEPMA0GA1UECBMG
TmV2YWRhMRIwEAYDVQQHEwlIZW5kZXJzb24xHDAaBgNVBAoUE1JlZCBEb2cgTWVk
aWEsIEluYy4xPjA8BgNVBAsTNURpZ2l0YWwgSUQgQ2xhc3MgMyAtIE1pY3Jvc29m
dCBTb2Z0d2FyZSBWYWxpZGF0aW9uIHYyMRwwGgYDVQQDFBNSZWQgRG9nIE1lZGlh
LCBJbmMuMIIBIjANBgkqhkiG9w0BAQEFAAOCAQ8AMIIBCgKCAQEA2mwrHHTFKx4S
9phFr2WrhTr0GWJY1tNcUXNZH3NJjQcCCg1pPXS6qjUqO0hf+W8ijf5rO5AUifpv
TBwN1hqeBJ+EDemAdkW09U+yvOQxQUO9WUIyQ0AlTLRtyG85eIU4c8F9Ly4hMcrw
wZNmWS/RQp0iOpCXqkit7e8PHl5XY1+UrI1VaDLMIunKLLzqS2wnGlm7LCU4zCFa
PYBz8jnKPJ9qC/tDaEgVyl0bfCuL0NjukO/o7KAHxv9WDcPGLqikgAllnOd4dElW
WiTB2l8xsvi42lmCGlc//JfvqicUKFgypbLh6yDBSGn67e6EPtBQKW5bs2npHdjm
RWSmhcDNSQIDAQABo4IBezCCAXcwCQYDVR0TBAIwADAOBgNVHQ8BAf8EBAMCB4Aw
QAYDVR0fBDkwNzA1oDOgMYYvaHR0cDovL2NzYzMtMjAxMC1jcmwudmVyaXNpZ24u
Y29tL0NTQzMtMjAxMC5jcmwwRAYDVR0gBD0wOzA5BgtghkgBhvhFAQcXAzAqMCgG
CCsGAQUFBwIBFhxodHRwczovL3d3dy52ZXJpc2lnbi5jb20vcnBhMBMGA1UdJQQM
MAoGCCsGAQUFBwMDMHEGCCsGAQUFBwEBBGUwYzAkBggrBgEFBQcwAYYYaHR0cDov
L29jc3AudmVyaXNpZ24uY29tMDsGCCsGAQUFBzAChi9odHRwOi8vY3NjMy0yMDEw
LWFpYS52ZXJpc2lnbi5jb20vQ1NDMy0yMDEwLmNlcjAfBgNVHSMEGDAWgBTPmanq
eyb0S8mOj9fwBSbv49KnnTARBglghkgBhvhCAQEEBAMCBBAwFgYKKwYBBAGCNwIB
GwQIMAYBAQABAf8wDQYJKoZIhvcNAQEFBQADggEBAB8brldtftjmkRV0lDsgeTsE
BiqzqZ1fP3FuOo9GfamvCHJMRlmA6ISK19gUBBNVMYV5XMEomKcKMOkJ7HjaOvIJ
hL1tQLsOBF69rw9PNQkhtYrc39MYmEYtDZZIhpBHjor1X1tu1qKZhMRzsLViOJed
8q5TGZCcW5sra6xQdGnXTwnm/B91300FfD03Z0dyPq9+gvASo3cekHJBKVypOzXN
UPiqrse0pZ0GWx+/RoRT9hFeoy9ISsYQt3GXvQZrO/g2etpilgon8u2PElF8ukWO
Telv1ffSRW7pwNcTyjwar3r2RpstEmiyHblTCsuImbxWnQI7143Tl4jIfVb5YKU=
-----END CERTIFICATE-----

Certificate:
    Data:
        Version: 3 (0x2)
        Serial Number:
            52:00:e5:aa:25:56:fc:1a:86:ed:96:c9:d4:4b:33:c7
    Signature Algorithm: sha1WithRSAEncryption
        Issuer: C=US, O=VeriSign, Inc., OU=VeriSign Trust Network, OU=(c) 2006 VeriSign, Inc. - For authorized use only, CN=VeriSign Class 3 Public Primary Certification Authority - G5
        Validity
            Not Before: Feb  8 00:00:00 2010 GMT
            Not After : Feb  7 23:59:59 2020 GMT
        Subject: C=US, O=VeriSign, Inc., OU=VeriSign Trust Network, OU=Terms of use at https://www.verisign.com/rpa (c)10, CN=VeriSign Class 3 Code Signing 2010 CA
        Subject Public Key Info:
            Public Key Algorithm: rsaEncryption
                Public-Key: (2048 bit)
                Modulus:
                    00:f5:23:4b:5e:a5:d7:8a:bb:32:e9:d4:57:f7:ef:
                    e4:c7:26:7e:ad:19:98:fe:a8:9d:7d:94:f6:36:6b:
                    10:d7:75:81:30:7f:04:68:7f:cb:2b:75:1e:cd:1d:
                    08:8c:df:69:94:a7:37:a3:9c:7b:80:e0:99:e1:ee:
                    37:4d:5f:ce:3b:14:ee:86:d4:d0:f5:27:35:bc:25:
                    0b:38:a7:8c:63:9d:17:a3:08:a5:ab:b0:fb:cd:6a:
                    62:82:4c:d5:21:da:1b:d9:f1:e3:84:3b:8a:2a:4f:
                    85:5b:90:01:4f:c9:a7:76:10:7f:27:03:7c:be:ae:
                    7e:7d:c1:dd:f9:05:bc:1b:48:9c:69:e7:c0:a4:3c:
                    3c:41:00:3e:df:96:e5:c5:e4:94:71:d6:55:01:c7:
                    00:26:4a:40:3c:b5:a1:26:a9:0c:a7:6d:80:8e:90:
                    25:7b:cf:bf:3f:1c:eb:2f:96:fa:e5:87:77:c6:b5:
                    56:b2:7a:3b:54:30:53:1b:df:62:34:ff:1e:d1:f4:
                    5a:93:28:85:e5:4c:17:4e:7e:5b:fd:a4:93:99:7f:
                    df:cd:ef:a4:75:ef:ef:15:f6:47:e7:f8:19:72:d8:
                    2e:34:1a:a6:b4:a7:4c:7e:bd:bb:4f:0c:3d:57:f1:
                    30:d6:a6:36:8e:d6:80:76:d7:19:2e:a5:cd:7e:34:
                    2d:89
                Exponent: 65537 (0x10001)
        X509v3 extensions:
            X509v3 Basic Constraints: critical
                CA:TRUE, pathlen:0
            X509v3 Certificate Policies: 
                Policy: 2.16.840.1.113733.1.7.23.3
                  CPS: https://www.verisign.com/cps
                  User Notice:
                    Explicit Text: https://www.verisign.com/rpa

            X509v3 Key Usage: critical
                Certificate Sign, CRL Sign
            1.3.6.1.5.5.7.1.12: 
                0_.].[0Y0W0U..image/gif0!0.0...+..............k...j.H.,{..0%.#http://logo.verisign.com/vslogo.gif
            X509v3 CRL Distribution Points: 

                Full Name:
                  URI:http://crl.verisign.com/pca3-g5.crl

            Authority Information Access: 
                OCSP - URI:http://ocsp.verisign.com

            X509v3 Extended Key Usage: 
                TLS Web Client Authentication, Code Signing
            X509v3 Subject Alternative Name: 
                DirName:/CN=VeriSignMPKI-2-8
            X509v3 Subject Key Identifier: 
                CF:99:A9:EA:7B:26:F4:4B:C9:8E:8F:D7:F0:05:26:EF:E3:D2:A7:9D
            X509v3 Authority Key Identifier: 
                keyid:7F:D3:65:A7:C2:DD:EC:BB:F0:30:09:F3:43:39:FA:02:AF:33:31:33

    Signature Algorithm: sha1WithRSAEncryption
         56:22:e6:34:a4:c4:61:cb:48:b9:01:ad:56:a8:64:0f:d9:8c:
         91:c4:bb:cc:0c:e5:ad:7a:a0:22:7f:df:47:38:4a:2d:6c:d1:
         7f:71:1a:7c:ec:70:a9:b1:f0:4f:e4:0f:0c:53:fa:15:5e:fe:
         74:98:49:24:85:81:26:1c:91:14:47:b0:4c:63:8c:bb:a1:34:
         d4:c6:45:e8:0d:85:26:73:03:d0:a9:8c:64:6d:dc:71:92:e6:
         45:05:60:15:59:51:39:fc:58:14:6b:fe:d4:a4:ed:79:6b:08:
         0c:41:72:e7:37:22:06:09:be:23:e9:3f:44:9a:1e:e9:61:9d:
         cc:b1:90:5c:fc:3d:d2:8d:ac:42:3d:65:36:d4:b4:3d:40:28:
         8f:9b:10:cf:23:26:cc:4b:20:cb:90:1f:5d:8c:4c:34:ca:3c:
         d8:e5:37:d6:6f:a5:20:bd:34:eb:26:d9:ae:0d:e7:c5:9a:f7:
         a1:b4:21:91:33:6f:86:e8:58:bb:25:7c:74:0e:58:fe:75:1b:
         63:3f:ce:31:7c:9b:8f:1b:96:9e:c5:53:76:84:5b:9c:ad:91:
         fa:ac:ed:93:ba:5d:c8:21:53:c2:82:53:63:af:12:0d:50:87:
         11:1b:3d:54:52:96:8a:2c:9c:3d:92:1a:08:9a:05:2e:c7:93:
         a5:48:91:d3
-----BEGIN CERTIFICATE-----
MIIGCjCCBPKgAwIBAgIQUgDlqiVW/BqG7ZbJ1EszxzANBgkqhkiG9w0BAQUFADCB
yjELMAkGA1UEBhMCVVMxFzAVBgNVBAoTDlZlcmlTaWduLCBJbmMuMR8wHQYDVQQL
ExZWZXJpU2lnbiBUcnVzdCBOZXR3b3JrMTowOAYDVQQLEzEoYykgMjAwNiBWZXJp
U2lnbiwgSW5jLiAtIEZvciBhdXRob3JpemVkIHVzZSBvbmx5MUUwQwYDVQQDEzxW
ZXJpU2lnbiBDbGFzcyAzIFB1YmxpYyBQcmltYXJ5IENlcnRpZmljYXRpb24gQXV0
aG9yaXR5IC0gRzUwHhcNMTAwMjA4MDAwMDAwWhcNMjAwMjA3MjM1OTU5WjCBtDEL
MAkGA1UEBhMCVVMxFzAVBgNVBAoTDlZlcmlTaWduLCBJbmMuMR8wHQYDVQQLExZW
ZXJpU2lnbiBUcnVzdCBOZXR3b3JrMTswOQYDVQQLEzJUZXJtcyBvZiB1c2UgYXQg
aHR0cHM6Ly93d3cudmVyaXNpZ24uY29tL3JwYSAoYykxMDEuMCwGA1UEAxMlVmVy
aVNpZ24gQ2xhc3MgMyBDb2RlIFNpZ25pbmcgMjAxMCBDQTCCASIwDQYJKoZIhvcN
AQEBBQADggEPADCCAQoCggEBAPUjS16l14q7MunUV/fv5Mcmfq0ZmP6onX2U9jZr
ENd1gTB/BGh/yyt1Hs0dCIzfaZSnN6Oce4DgmeHuN01fzjsU7obU0PUnNbwlCzin
jGOdF6MIpauw+81qYoJM1SHaG9nx44Q7iipPhVuQAU/Jp3YQfycDfL6ufn3B3fkF
vBtInGnnwKQ8PEEAPt+W5cXklHHWVQHHACZKQDy1oSapDKdtgI6QJXvPvz8c6y+W
+uWHd8a1VrJ6O1QwUxvfYjT/HtH0WpMoheVMF05+W/2kk5l/383vpHXv7xX2R+f4
GXLYLjQaprSnTH69u08MPVfxMNamNo7WgHbXGS6lzX40LYkCAwEAAaOCAf4wggH6
MBIGA1UdEwEB/wQIMAYBAf8CAQAwcAYDVR0gBGkwZzBlBgtghkgBhvhFAQcXAzBW
MCgGCCsGAQUFBwIBFhxodHRwczovL3d3dy52ZXJpc2lnbi5jb20vY3BzMCoGCCsG
AQUFBwICMB4aHGh0dHBzOi8vd3d3LnZlcmlzaWduLmNvbS9ycGEwDgYDVR0PAQH/
BAQDAgEGMG0GCCsGAQUFBwEMBGEwX6FdoFswWTBXMFUWCWltYWdlL2dpZjAhMB8w
BwYFKw4DAhoEFI/l0xqGrI2Oa8PPgGrUSBgsexkuMCUWI2h0dHA6Ly9sb2dvLnZl
cmlzaWduLmNvbS92c2xvZ28uZ2lmMDQGA1UdHwQtMCswKaAnoCWGI2h0dHA6Ly9j
cmwudmVyaXNpZ24uY29tL3BjYTMtZzUuY3JsMDQGCCsGAQUFBwEBBCgwJjAkBggr
BgEFBQcwAYYYaHR0cDovL29jc3AudmVyaXNpZ24uY29tMB0GA1UdJQQWMBQGCCsG
AQUFBwMCBggrBgEFBQcDAzAoBgNVHREEITAfpB0wGzEZMBcGA1UEAxMQVmVyaVNp
Z25NUEtJLTItODAdBgNVHQ4EFgQUz5mp6nsm9EvJjo/X8AUm7+PSp50wHwYDVR0j
BBgwFoAUf9Nlp8Ld7LvwMAnzQzn6Aq8zMTMwDQYJKoZIhvcNAQEFBQADggEBAFYi
5jSkxGHLSLkBrVaoZA/ZjJHEu8wM5a16oCJ/30c4Si1s0X9xGnzscKmx8E/kDwxT
+hVe/nSYSSSFgSYckRRHsExjjLuhNNTGRegNhSZzA9CpjGRt3HGS5kUFYBVZUTn8
WBRr/tSk7XlrCAxBcuc3IgYJviPpP0SaHulhncyxkFz8PdKNrEI9ZTbUtD1AKI+b
EM8jJsxLIMuQH12MTDTKPNjlN9ZvpSC9NOsm2a4N58Wa96G0IZEzb4boWLslfHQO
WP51G2M/zjF8m48blp7FU3aEW5ytkfqs7ZO6XcghU8KCU2OvEg1QhxEbPVRSloos
nD2SGgiaBS7Hk6VIkdM=
-----END CERTIFICATE-----

