Certificate:
    Data:
        Version: 3 (0x2)
        Serial Number:
            04:de:58:73:e7:09:0a:e2:f5:ac:ef:b1:67:a5:35:73
    Signature Algorithm: sha1WithRSAEncryption
        Issuer: C=US, O=VeriSign, Inc., OU=VeriSign Trust Network, OU=Terms of use at https://www.verisign.com/rpa (c)10, CN=VeriSign Class 3 Code Signing 2010 CA
        Validity
            Not Before: Aug 21 00:00:00 2012 GMT
            Not After : Sep  4 23:59:59 2015 GMT
        Subject: C=AU, ST=Victoria, L=Albert Park, O=Beepa Pty Ltd, OU=Digital ID Class 3 - Microsoft Software Validation v2, OU=Development, CN=Beepa Pty Ltd
        Subject Public Key Info:
            Public Key Algorithm: rsaEncryption
                Public-Key: (2048 bit)
                Modulus:
                    00:d9:43:e8:5b:1e:41:c4:83:ad:de:1f:30:dd:1d:
                    65:3b:92:78:a5:02:a0:7b:a9:20:9b:b8:43:db:1f:
                    21:61:cd:b6:72:91:47:fa:64:b7:67:0e:0e:64:20:
                    01:87:5c:26:5a:0f:0a:6a:cf:4c:b6:b9:e3:4e:26:
                    f2:1e:0b:51:3d:56:10:08:87:ab:23:51:14:32:6b:
                    b6:c1:71:09:1a:1f:22:0a:54:5e:4c:13:17:d1:ef:
                    7b:af:e4:40:d2:6c:2d:c2:ee:bd:a8:c9:27:64:31:
                    a0:60:7e:f0:2b:9b:fc:d7:0d:48:cc:33:76:96:15:
                    26:93:a7:82:71:de:9a:70:b2:17:05:40:a0:d4:f9:
                    61:c0:e2:04:64:6b:89:2e:ef:9c:22:f8:bb:e1:85:
                    39:5d:9a:6d:9e:c5:7b:68:e1:62:c6:fb:15:2b:05:
                    c1:55:72:26:e8:d8:9c:ef:d4:e3:3e:0a:3d:99:7a:
                    ed:9f:4c:ee:03:41:2d:f1:d7:43:4c:bd:fb:e9:a2:
                    1b:1b:1e:90:74:07:b6:8c:c1:c7:88:c0:4f:ae:10:
                    2c:8b:5e:fe:14:52:0b:61:65:fc:0a:55:21:d2:e5:
                    91:25:f0:06:bc:f3:34:f7:dc:bd:0a:c8:27:91:f2:
                    c4:cd:e1:0f:fd:89:9d:df:4f:8a:fc:87:c0:73:e5:
                    40:7f
                Exponent: 65537 (0x10001)
        X509v3 extensions:
            X509v3 Basic Constraints: 
                CA:FALSE
            X509v3 Key Usage: critical
                Digital Signature
            X509v3 CRL Distribution Points: 

                Full Name:
                  URI:http://csc3-2010-crl.verisign.com/CSC3-2010.crl

            X509v3 Certificate Policies: 
                Policy: 2.16.840.1.113733.1.7.23.3
                  CPS: https://www.verisign.com/rpa

            X509v3 Extended Key Usage: 
                Code Signing
            Authority Information Access: 
                OCSP - URI:http://ocsp.verisign.com
                CA Issuers - URI:http://csc3-2010-aia.verisign.com/CSC3-2010.cer

            X509v3 Authority Key Identifier: 
                keyid:CF:99:A9:EA:7B:26:F4:4B:C9:8E:8F:D7:F0:05:26:EF:E3:D2:A7:9D

            Netscape Cert Type: 
                Object Signing
            1.3.6.1.4.1.311.2.1.27: 
                0.......
    Signature Algorithm: sha1WithRSAEncryption
         39:b5:83:82:02:a2:70:91:72:06:8a:36:e1:36:c4:13:c6:f5:
         45:6c:c3:2c:26:f9:7a:d1:ed:4c:11:19:5e:cc:8b:92:7b:b2:
         b0:bd:2d:b2:6b:f4:e2:14:97:e6:fe:44:59:8b:ec:a3:a4:a9:
         40:5a:d8:ad:89:68:83:5d:dd:61:1e:1e:ad:d9:c6:ef:cf:70:
         5d:1f:49:a1:75:0d:c5:e0:87:72:d6:c2:c3:78:63:6f:eb:10:
         b9:3a:e9:ef:a5:1f:5d:00:94:79:61:c1:6c:f1:b8:ec:56:3b:
         56:d3:7b:92:f0:92:f5:dc:cb:c7:9c:5d:d5:74:b2:58:92:0a:
         77:0c:7a:80:2c:4c:ab:62:fe:48:e3:2e:8e:32:b2:06:89:9b:
         f3:75:ba:78:18:ca:f1:b2:6d:8e:36:8e:a4:18:fe:c1:0d:92:
         65:4a:e0:07:e2:4a:c3:c8:61:4a:e0:30:6c:9b:43:7d:1e:6f:
         79:c8:28:f3:23:fa:35:9b:8a:a8:99:7b:31:4d:a8:cc:07:39:
         8d:ba:64:82:1f:d3:f2:1f:f2:a4:c1:bd:6e:49:cf:b4:13:12:
         6c:09:32:50:d1:1a:ca:f9:13:99:64:70:12:84:b9:c8:17:45:
         a0:3b:35:19:0e:5f:a2:15:e5:11:7e:ae:54:75:4b:80:f4:f5:
         91:95:46:87
-----BEGIN CERTIFICATE-----
MIIFeTCCBGGgAwIBAgIQBN5Yc+cJCuL1rO+xZ6U1czANBgkqhkiG9w0BAQUFADCB
tDELMAkGA1UEBhMCVVMxFzAVBgNVBAoTDlZlcmlTaWduLCBJbmMuMR8wHQYDVQQL
ExZWZXJpU2lnbiBUcnVzdCBOZXR3b3JrMTswOQYDVQQLEzJUZXJtcyBvZiB1c2Ug
YXQgaHR0cHM6Ly93d3cudmVyaXNpZ24uY29tL3JwYSAoYykxMDEuMCwGA1UEAxMl
VmVyaVNpZ24gQ2xhc3MgMyBDb2RlIFNpZ25pbmcgMjAxMCBDQTAeFw0xMjA4MjEw
MDAwMDBaFw0xNTA5MDQyMzU5NTlaMIG8MQswCQYDVQQGEwJBVTERMA8GA1UECBMI
VmljdG9yaWExFDASBgNVBAcTC0FsYmVydCBQYXJrMRYwFAYDVQQKFA1CZWVwYSBQ
dHkgTHRkMT4wPAYDVQQLEzVEaWdpdGFsIElEIENsYXNzIDMgLSBNaWNyb3NvZnQg
U29mdHdhcmUgVmFsaWRhdGlvbiB2MjEUMBIGA1UECxQLRGV2ZWxvcG1lbnQxFjAU
BgNVBAMUDUJlZXBhIFB0eSBMdGQwggEiMA0GCSqGSIb3DQEBAQUAA4IBDwAwggEK
AoIBAQDZQ+hbHkHEg63eHzDdHWU7knilAqB7qSCbuEPbHyFhzbZykUf6ZLdnDg5k
IAGHXCZaDwpqz0y2ueNOJvIeC1E9VhAIh6sjURQya7bBcQkaHyIKVF5MExfR73uv
5EDSbC3C7r2oySdkMaBgfvArm/zXDUjMM3aWFSaTp4Jx3ppwshcFQKDU+WHA4gRk
a4ku75wi+LvhhTldmm2exXto4WLG+xUrBcFVcibo2Jzv1OM+Cj2Zeu2fTO4DQS3x
10NMvfvpohsbHpB0B7aMwceIwE+uECyLXv4UUgthZfwKVSHS5ZEl8Aa88zT33L0K
yCeR8sTN4Q/9iZ3fT4r8h8Bz5UB/AgMBAAGjggF7MIIBdzAJBgNVHRMEAjAAMA4G
A1UdDwEB/wQEAwIHgDBABgNVHR8EOTA3MDWgM6Axhi9odHRwOi8vY3NjMy0yMDEw
LWNybC52ZXJpc2lnbi5jb20vQ1NDMy0yMDEwLmNybDBEBgNVHSAEPTA7MDkGC2CG
SAGG+EUBBxcDMCowKAYIKwYBBQUHAgEWHGh0dHBzOi8vd3d3LnZlcmlzaWduLmNv
bS9ycGEwEwYDVR0lBAwwCgYIKwYBBQUHAwMwcQYIKwYBBQUHAQEEZTBjMCQGCCsG
AQUFBzABhhhodHRwOi8vb2NzcC52ZXJpc2lnbi5jb20wOwYIKwYBBQUHMAKGL2h0
dHA6Ly9jc2MzLTIwMTAtYWlhLnZlcmlzaWduLmNvbS9DU0MzLTIwMTAuY2VyMB8G
A1UdIwQYMBaAFM+Zqep7JvRLyY6P1/AFJu/j0qedMBEGCWCGSAGG+EIBAQQEAwIE
EDAWBgorBgEEAYI3AgEbBAgwBgEBAAEB/zANBgkqhkiG9w0BAQUFAAOCAQEAObWD
ggKicJFyBoo24TbEE8b1RWzDLCb5etHtTBEZXsyLknuysL0tsmv04hSX5v5EWYvs
o6SpQFrYrYlog13dYR4erdnG789wXR9JoXUNxeCHctbCw3hjb+sQuTrp76UfXQCU
eWHBbPG47FY7VtN7kvCS9dzLx5xd1XSyWJIKdwx6gCxMq2L+SOMujjKyBomb83W6
eBjK8bJtjjaOpBj+wQ2SZUrgB+JKw8hhSuAwbJtDfR5vecgo8yP6NZuKqJl7MU2o
zAc5jbpkgh/T8h/ypMG9bknPtBMSbAkyUNEayvkTmWRwEoS5yBdFoDs1GQ5fohXl
EX6uVHVLgPT1kZVGhw==
-----END CERTIFICATE-----

Certificate:
    Data:
        Version: 3 (0x2)
        Serial Number:
            52:00:e5:aa:25:56:fc:1a:86:ed:96:c9:d4:4b:33:c7
    Signature Algorithm: sha1WithRSAEncryption
        Issuer: C=US, O=VeriSign, Inc., OU=VeriSign Trust Network, OU=(c) 2006 VeriSign, Inc. - For authorized use only, CN=VeriSign Class 3 Public Primary Certification Authority - G5
        Validity
            Not Before: Feb  8 00:00:00 2010 GMT
            Not After : Feb  7 23:59:59 2020 GMT
        Subject: C=US, O=VeriSign, Inc., OU=VeriSign Trust Network, OU=Terms of use at https://www.verisign.com/rpa (c)10, CN=VeriSign Class 3 Code Signing 2010 CA
        Subject Public Key Info:
            Public Key Algorithm: rsaEncryption
                Public-Key: (2048 bit)
                Modulus:
                    00:f5:23:4b:5e:a5:d7:8a:bb:32:e9:d4:57:f7:ef:
                    e4:c7:26:7e:ad:19:98:fe:a8:9d:7d:94:f6:36:6b:
                    10:d7:75:81:30:7f:04:68:7f:cb:2b:75:1e:cd:1d:
                    08:8c:df:69:94:a7:37:a3:9c:7b:80:e0:99:e1:ee:
                    37:4d:5f:ce:3b:14:ee:86:d4:d0:f5:27:35:bc:25:
                    0b:38:a7:8c:63:9d:17:a3:08:a5:ab:b0:fb:cd:6a:
                    62:82:4c:d5:21:da:1b:d9:f1:e3:84:3b:8a:2a:4f:
                    85:5b:90:01:4f:c9:a7:76:10:7f:27:03:7c:be:ae:
                    7e:7d:c1:dd:f9:05:bc:1b:48:9c:69:e7:c0:a4:3c:
                    3c:41:00:3e:df:96:e5:c5:e4:94:71:d6:55:01:c7:
                    00:26:4a:40:3c:b5:a1:26:a9:0c:a7:6d:80:8e:90:
                    25:7b:cf:bf:3f:1c:eb:2f:96:fa:e5:87:77:c6:b5:
                    56:b2:7a:3b:54:30:53:1b:df:62:34:ff:1e:d1:f4:
                    5a:93:28:85:e5:4c:17:4e:7e:5b:fd:a4:93:99:7f:
                    df:cd:ef:a4:75:ef:ef:15:f6:47:e7:f8:19:72:d8:
                    2e:34:1a:a6:b4:a7:4c:7e:bd:bb:4f:0c:3d:57:f1:
                    30:d6:a6:36:8e:d6:80:76:d7:19:2e:a5:cd:7e:34:
                    2d:89
                Exponent: 65537 (0x10001)
        X509v3 extensions:
            X509v3 Basic Constraints: critical
                CA:TRUE, pathlen:0
            X509v3 Certificate Policies: 
                Policy: 2.16.840.1.113733.1.7.23.3
                  CPS: https://www.verisign.com/cps
                  User Notice:
                    Explicit Text: https://www.verisign.com/rpa

            X509v3 Key Usage: critical
                Certificate Sign, CRL Sign
            1.3.6.1.5.5.7.1.12: 
                0_.].[0Y0W0U..image/gif0!0.0...+..............k...j.H.,{..0%.#http://logo.verisign.com/vslogo.gif
            X509v3 CRL Distribution Points: 

                Full Name:
                  URI:http://crl.verisign.com/pca3-g5.crl

            Authority Information Access: 
                OCSP - URI:http://ocsp.verisign.com

            X509v3 Extended Key Usage: 
                TLS Web Client Authentication, Code Signing
            X509v3 Subject Alternative Name: 
                DirName:/CN=VeriSignMPKI-2-8
            X509v3 Subject Key Identifier: 
                CF:99:A9:EA:7B:26:F4:4B:C9:8E:8F:D7:F0:05:26:EF:E3:D2:A7:9D
            X509v3 Authority Key Identifier: 
                keyid:7F:D3:65:A7:C2:DD:EC:BB:F0:30:09:F3:43:39:FA:02:AF:33:31:33

    Signature Algorithm: sha1WithRSAEncryption
         56:22:e6:34:a4:c4:61:cb:48:b9:01:ad:56:a8:64:0f:d9:8c:
         91:c4:bb:cc:0c:e5:ad:7a:a0:22:7f:df:47:38:4a:2d:6c:d1:
         7f:71:1a:7c:ec:70:a9:b1:f0:4f:e4:0f:0c:53:fa:15:5e:fe:
         74:98:49:24:85:81:26:1c:91:14:47:b0:4c:63:8c:bb:a1:34:
         d4:c6:45:e8:0d:85:26:73:03:d0:a9:8c:64:6d:dc:71:92:e6:
         45:05:60:15:59:51:39:fc:58:14:6b:fe:d4:a4:ed:79:6b:08:
         0c:41:72:e7:37:22:06:09:be:23:e9:3f:44:9a:1e:e9:61:9d:
         cc:b1:90:5c:fc:3d:d2:8d:ac:42:3d:65:36:d4:b4:3d:40:28:
         8f:9b:10:cf:23:26:cc:4b:20:cb:90:1f:5d:8c:4c:34:ca:3c:
         d8:e5:37:d6:6f:a5:20:bd:34:eb:26:d9:ae:0d:e7:c5:9a:f7:
         a1:b4:21:91:33:6f:86:e8:58:bb:25:7c:74:0e:58:fe:75:1b:
         63:3f:ce:31:7c:9b:8f:1b:96:9e:c5:53:76:84:5b:9c:ad:91:
         fa:ac:ed:93:ba:5d:c8:21:53:c2:82:53:63:af:12:0d:50:87:
         11:1b:3d:54:52:96:8a:2c:9c:3d:92:1a:08:9a:05:2e:c7:93:
         a5:48:91:d3
-----BEGIN CERTIFICATE-----
MIIGCjCCBPKgAwIBAgIQUgDlqiVW/BqG7ZbJ1EszxzANBgkqhkiG9w0BAQUFADCB
yjELMAkGA1UEBhMCVVMxFzAVBgNVBAoTDlZlcmlTaWduLCBJbmMuMR8wHQYDVQQL
ExZWZXJpU2lnbiBUcnVzdCBOZXR3b3JrMTowOAYDVQQLEzEoYykgMjAwNiBWZXJp
U2lnbiwgSW5jLiAtIEZvciBhdXRob3JpemVkIHVzZSBvbmx5MUUwQwYDVQQDEzxW
ZXJpU2lnbiBDbGFzcyAzIFB1YmxpYyBQcmltYXJ5IENlcnRpZmljYXRpb24gQXV0
aG9yaXR5IC0gRzUwHhcNMTAwMjA4MDAwMDAwWhcNMjAwMjA3MjM1OTU5WjCBtDEL
MAkGA1UEBhMCVVMxFzAVBgNVBAoTDlZlcmlTaWduLCBJbmMuMR8wHQYDVQQLExZW
ZXJpU2lnbiBUcnVzdCBOZXR3b3JrMTswOQYDVQQLEzJUZXJtcyBvZiB1c2UgYXQg
aHR0cHM6Ly93d3cudmVyaXNpZ24uY29tL3JwYSAoYykxMDEuMCwGA1UEAxMlVmVy
aVNpZ24gQ2xhc3MgMyBDb2RlIFNpZ25pbmcgMjAxMCBDQTCCASIwDQYJKoZIhvcN
AQEBBQADggEPADCCAQoCggEBAPUjS16l14q7MunUV/fv5Mcmfq0ZmP6onX2U9jZr
ENd1gTB/BGh/yyt1Hs0dCIzfaZSnN6Oce4DgmeHuN01fzjsU7obU0PUnNbwlCzin
jGOdF6MIpauw+81qYoJM1SHaG9nx44Q7iipPhVuQAU/Jp3YQfycDfL6ufn3B3fkF
vBtInGnnwKQ8PEEAPt+W5cXklHHWVQHHACZKQDy1oSapDKdtgI6QJXvPvz8c6y+W
+uWHd8a1VrJ6O1QwUxvfYjT/HtH0WpMoheVMF05+W/2kk5l/383vpHXv7xX2R+f4
GXLYLjQaprSnTH69u08MPVfxMNamNo7WgHbXGS6lzX40LYkCAwEAAaOCAf4wggH6
MBIGA1UdEwEB/wQIMAYBAf8CAQAwcAYDVR0gBGkwZzBlBgtghkgBhvhFAQcXAzBW
MCgGCCsGAQUFBwIBFhxodHRwczovL3d3dy52ZXJpc2lnbi5jb20vY3BzMCoGCCsG
AQUFBwICMB4aHGh0dHBzOi8vd3d3LnZlcmlzaWduLmNvbS9ycGEwDgYDVR0PAQH/
BAQDAgEGMG0GCCsGAQUFBwEMBGEwX6FdoFswWTBXMFUWCWltYWdlL2dpZjAhMB8w
BwYFKw4DAhoEFI/l0xqGrI2Oa8PPgGrUSBgsexkuMCUWI2h0dHA6Ly9sb2dvLnZl
cmlzaWduLmNvbS92c2xvZ28uZ2lmMDQGA1UdHwQtMCswKaAnoCWGI2h0dHA6Ly9j
cmwudmVyaXNpZ24uY29tL3BjYTMtZzUuY3JsMDQGCCsGAQUFBwEBBCgwJjAkBggr
BgEFBQcwAYYYaHR0cDovL29jc3AudmVyaXNpZ24uY29tMB0GA1UdJQQWMBQGCCsG
AQUFBwMCBggrBgEFBQcDAzAoBgNVHREEITAfpB0wGzEZMBcGA1UEAxMQVmVyaVNp
Z25NUEtJLTItODAdBgNVHQ4EFgQUz5mp6nsm9EvJjo/X8AUm7+PSp50wHwYDVR0j
BBgwFoAUf9Nlp8Ld7LvwMAnzQzn6Aq8zMTMwDQYJKoZIhvcNAQEFBQADggEBAFYi
5jSkxGHLSLkBrVaoZA/ZjJHEu8wM5a16oCJ/30c4Si1s0X9xGnzscKmx8E/kDwxT
+hVe/nSYSSSFgSYckRRHsExjjLuhNNTGRegNhSZzA9CpjGRt3HGS5kUFYBVZUTn8
WBRr/tSk7XlrCAxBcuc3IgYJviPpP0SaHulhncyxkFz8PdKNrEI9ZTbUtD1AKI+b
EM8jJsxLIMuQH12MTDTKPNjlN9ZvpSC9NOsm2a4N58Wa96G0IZEzb4boWLslfHQO
WP51G2M/zjF8m48blp7FU3aEW5ytkfqs7ZO6XcghU8KCU2OvEg1QhxEbPVRSloos
nD2SGgiaBS7Hk6VIkdM=
-----END CERTIFICATE-----

