Certificate:
    Data:
        Version: 3 (0x2)
        Serial Number:
            ad:18:6b:59:c2:a0:9a:3d:d7:b6:2b:b4:a4:7d:af:dd
    Signature Algorithm: sha256WithRSAEncryption
        Issuer: C=GB, ST=Greater Manchester, L=Salford, O=COMODO CA Limited, CN=COMODO RSA Code Signing CA
        Validity
            Not Before: Aug 30 00:00:00 2016 GMT
            Not After : Aug 30 23:59:59 2020 GMT
        Subject: C=DE/postalCode=42897, ST=NRW, L=Remscheid/street=Julius-Pluecker-Stra\xC3\x9Fe 5, O=Totalidea Software GmbH, CN=Totalidea Software GmbH
        Subject Public Key Info:
            Public Key Algorithm: rsaEncryption
                Public-Key: (2048 bit)
                Modulus:
                    00:c0:53:a4:11:b3:49:4b:97:dc:3f:1a:00:8a:a4:
                    55:4b:5b:c3:6e:6e:21:00:1b:9a:db:fa:42:71:7f:
                    65:da:82:ff:9d:2f:11:dd:9b:b9:d7:8e:9b:b7:d7:
                    48:df:2c:fb:ff:0a:5f:24:e5:45:81:5d:a0:3e:78:
                    1a:bb:78:aa:97:08:94:9e:1c:04:6e:e8:d8:f8:a2:
                    67:54:28:54:bf:50:31:c7:ab:02:dc:1d:2f:b2:8f:
                    6e:99:05:93:43:a1:5e:ce:b1:21:e9:84:7b:a6:d3:
                    d0:67:c0:8d:b1:65:66:55:ce:50:4b:c5:8b:5f:8e:
                    63:37:d3:36:06:0a:b3:a1:f4:49:6f:05:16:b8:50:
                    c9:fe:01:46:cd:a1:c6:e6:e3:98:20:06:e5:06:c3:
                    ab:a6:1f:18:ea:b3:c4:0e:50:46:1e:16:4b:cb:c5:
                    39:71:69:83:c6:98:81:8c:be:a8:7c:db:25:7a:b7:
                    50:aa:f5:24:59:5d:cf:5b:48:30:aa:b4:ef:d6:cf:
                    5f:38:15:12:65:f2:73:a7:8a:f3:25:a8:4b:61:da:
                    79:94:ee:bf:02:ed:db:07:eb:4f:a8:5e:2f:1c:5e:
                    42:25:80:de:fe:f4:c4:94:60:58:39:6c:50:1f:0c:
                    80:24:26:ec:5f:53:b2:80:30:b0:d9:5a:3e:d9:8c:
                    a1:53
                Exponent: 65537 (0x10001)
        X509v3 extensions:
            X509v3 Authority Key Identifier: 
                keyid:29:91:60:FF:8A:4D:FA:EB:F9:A6:6A:B8:CF:F9:E6:4B:BD:49:CE:12

            X509v3 Subject Key Identifier: 
                BA:B5:CA:1D:2C:F6:45:EA:44:CC:4D:96:FC:19:BE:86:9F:6D:E6:E5
            X509v3 Key Usage: critical
                Digital Signature
            X509v3 Basic Constraints: critical
                CA:FALSE
            X509v3 Extended Key Usage: 
                Code Signing
            Netscape Cert Type: 
                Object Signing
            X509v3 Certificate Policies: 
                Policy: 1.3.6.1.4.1.6449.1.2.1.3.2
                  CPS: https://secure.comodo.net/CPS

            X509v3 CRL Distribution Points: 

                Full Name:
                  URI:http://crl.comodoca.com/COMODORSACodeSigningCA.crl

            Authority Information Access: 
                CA Issuers - URI:http://crt.comodoca.com/COMODORSACodeSigningCA.crt
                OCSP - URI:http://ocsp.comodoca.com

            X509v3 Subject Alternative Name: 
                email:skuske@totalidea.com
    Signature Algorithm: sha256WithRSAEncryption
         4d:ba:8b:40:a8:b9:69:35:1f:75:d6:31:62:ac:ae:81:e9:35:
         68:95:53:e9:df:e3:d4:96:1a:9b:53:bb:4e:e3:de:87:1b:a9:
         fb:3e:52:9a:bd:e0:6f:e1:5c:f0:39:ed:60:e6:03:f2:16:01:
         65:10:97:39:e6:9b:d6:b8:5f:ec:ea:0d:e7:08:5c:ca:54:26:
         04:80:72:b5:bb:7b:f2:b7:2a:c4:29:b2:ba:45:69:7f:b7:9f:
         98:1a:4d:cd:60:59:aa:6b:58:5c:77:c7:65:b5:e6:18:33:9d:
         57:26:8c:ae:c2:67:21:b2:ca:ad:92:f4:b6:24:21:4c:93:69:
         81:09:f3:e7:da:94:1d:c7:56:4e:53:1d:ea:08:d0:89:8c:73:
         ff:8d:16:7a:2a:c4:77:6b:cf:bc:bb:b2:b3:12:00:03:0a:39:
         38:0e:9d:89:39:2a:12:b0:fb:5c:14:39:59:36:2a:97:a6:c9:
         d1:f2:d1:56:a7:26:8d:08:51:bb:bd:4b:9c:b1:65:8e:d5:a2:
         94:7a:c6:ed:35:e5:9a:f3:72:04:6a:8c:0b:b2:74:5c:47:1e:
         2d:c6:9e:76:dd:50:77:a1:ed:f9:66:68:0c:85:11:75:44:26:
         0d:74:e9:35:0a:6b:47:f4:2d:d3:ce:18:cd:7f:e9:dc:f1:2f:
         2e:56:a1:3c
-----BEGIN CERTIFICATE-----
MIIFYDCCBEigAwIBAgIRAK0Ya1nCoJo917YrtKR9r90wDQYJKoZIhvcNAQELBQAw
fTELMAkGA1UEBhMCR0IxGzAZBgNVBAgTEkdyZWF0ZXIgTWFuY2hlc3RlcjEQMA4G
A1UEBxMHU2FsZm9yZDEaMBgGA1UEChMRQ09NT0RPIENBIExpbWl0ZWQxIzAhBgNV
BAMTGkNPTU9ETyBSU0EgQ29kZSBTaWduaW5nIENBMB4XDTE2MDgzMDAwMDAwMFoX
DTIwMDgzMDIzNTk1OVowgacxCzAJBgNVBAYTAkRFMQ4wDAYDVQQRDAU0Mjg5NzEM
MAoGA1UECAwDTlJXMRIwEAYDVQQHDAlSZW1zY2hlaWQxIjAgBgNVBAkMGUp1bGl1
cy1QbHVlY2tlci1TdHJhw59lIDUxIDAeBgNVBAoMF1RvdGFsaWRlYSBTb2Z0d2Fy
ZSBHbWJIMSAwHgYDVQQDDBdUb3RhbGlkZWEgU29mdHdhcmUgR21iSDCCASIwDQYJ
KoZIhvcNAQEBBQADggEPADCCAQoCggEBAMBTpBGzSUuX3D8aAIqkVUtbw25uIQAb
mtv6QnF/ZdqC/50vEd2budeOm7fXSN8s+/8KXyTlRYFdoD54Grt4qpcIlJ4cBG7o
2PiiZ1QoVL9QMcerAtwdL7KPbpkFk0OhXs6xIemEe6bT0GfAjbFlZlXOUEvFi1+O
YzfTNgYKs6H0SW8FFrhQyf4BRs2hxubjmCAG5QbDq6YfGOqzxA5QRh4WS8vFOXFp
g8aYgYy+qHzbJXq3UKr1JFldz1tIMKq079bPXzgVEmXyc6eK8yWoS2HaeZTuvwLt
2wfrT6heLxxeQiWA3v70xJRgWDlsUB8MgCQm7F9TsoAwsNlaPtmMoVMCAwEAAaOC
Aa4wggGqMB8GA1UdIwQYMBaAFCmRYP+KTfrr+aZquM/55ku9Sc4SMB0GA1UdDgQW
BBS6tcodLPZF6kTMTZb8Gb6Gn23m5TAOBgNVHQ8BAf8EBAMCB4AwDAYDVR0TAQH/
BAIwADATBgNVHSUEDDAKBggrBgEFBQcDAzARBglghkgBhvhCAQEEBAMCBBAwRgYD
VR0gBD8wPTA7BgwrBgEEAbIxAQIBAwIwKzApBggrBgEFBQcCARYdaHR0cHM6Ly9z
ZWN1cmUuY29tb2RvLm5ldC9DUFMwQwYDVR0fBDwwOjA4oDagNIYyaHR0cDovL2Ny
bC5jb21vZG9jYS5jb20vQ09NT0RPUlNBQ29kZVNpZ25pbmdDQS5jcmwwdAYIKwYB
BQUHAQEEaDBmMD4GCCsGAQUFBzAChjJodHRwOi8vY3J0LmNvbW9kb2NhLmNvbS9D
T01PRE9SU0FDb2RlU2lnbmluZ0NBLmNydDAkBggrBgEFBQcwAYYYaHR0cDovL29j
c3AuY29tb2RvY2EuY29tMB8GA1UdEQQYMBaBFHNrdXNrZUB0b3RhbGlkZWEuY29t
MA0GCSqGSIb3DQEBCwUAA4IBAQBNuotAqLlpNR911jFirK6B6TVolVPp3+PUlhqb
U7tO496HG6n7PlKaveBv4VzwOe1g5gPyFgFlEJc55pvWuF/s6g3nCFzKVCYEgHK1
u3vytyrEKbK6RWl/t5+YGk3NYFmqa1hcd8dlteYYM51XJoyuwmchssqtkvS2JCFM
k2mBCfPn2pQdx1ZOUx3qCNCJjHP/jRZ6KsR3a8+8u7KzEgADCjk4Dp2JOSoSsPtc
FDlZNiqXpsnR8tFWpyaNCFG7vUucsWWO1aKUesbtNeWa83IEaowLsnRcRx4txp52
3VB3oe35ZmgMhRF1RCYNdOk1CmtH9C3TzhjNf+nc8S8uVqE8
-----END CERTIFICATE-----

Certificate:
    Data:
        Version: 3 (0x2)
        Serial Number:
            2e:7c:87:cc:0e:93:4a:52:fe:94:fd:1c:b7:cd:34:af
    Signature Algorithm: sha384WithRSAEncryption
        Issuer: C=GB, ST=Greater Manchester, L=Salford, O=COMODO CA Limited, CN=COMODO RSA Certification Authority
        Validity
            Not Before: May  9 00:00:00 2013 GMT
            Not After : May  8 23:59:59 2028 GMT
        Subject: C=GB, ST=Greater Manchester, L=Salford, O=COMODO CA Limited, CN=COMODO RSA Code Signing CA
        Subject Public Key Info:
            Public Key Algorithm: rsaEncryption
                Public-Key: (2048 bit)
                Modulus:
                    00:a6:98:90:63:77:91:34:7f:8a:d1:dd:e9:67:31:
                    11:eb:cc:1e:fd:31:1d:b3:b9:62:57:3f:93:bc:5b:
                    e3:9f:1e:24:32:11:27:6b:bc:51:91:a7:cf:9e:9e:
                    25:b3:5f:81:a8:18:0f:1d:1e:20:30:0e:fb:61:7b:
                    86:09:b3:e3:fd:a2:68:9d:1c:2c:9d:bf:72:e3:e4:
                    75:a0:e5:35:23:8e:c9:8a:ee:1a:0c:64:c7:d8:42:
                    a1:7b:b5:52:03:4b:3a:b0:8e:23:4b:4b:63:e0:22:
                    94:37:7b:d5:79:90:0a:14:18:51:2c:e6:fe:c1:12:
                    f0:1c:3f:61:61:0a:8c:a2:dc:f6:c3:30:aa:cd:28:
                    18:75:48:c1:79:5a:08:cd:bb:8c:55:8c:f7:d4:76:
                    90:3a:33:46:50:73:98:5c:f4:85:4a:6b:0f:80:dd:
                    5e:d6:bd:fd:a9:2f:c0:25:f5:f9:78:d7:8d:5f:10:
                    c2:44:55:3c:90:3c:31:46:cb:70:ae:07:a9:0a:e3:
                    af:c1:01:6f:90:1a:23:e2:5f:38:db:c6:08:5d:47:
                    b3:83:41:f0:2e:00:37:14:b9:12:aa:79:92:52:cd:
                    87:0f:7b:d8:62:29:a4:7e:30:bd:1b:b5:8c:72:b4:
                    48:f2:e3:e8:21:f9:5e:4c:62:79:8b:02:06:9f:7f:
                    d5:0b
                Exponent: 65537 (0x10001)
        X509v3 extensions:
            X509v3 Authority Key Identifier: 
                keyid:BB:AF:7E:02:3D:FA:A6:F1:3C:84:8E:AD:EE:38:98:EC:D9:32:32:D4

            X509v3 Subject Key Identifier: 
                29:91:60:FF:8A:4D:FA:EB:F9:A6:6A:B8:CF:F9:E6:4B:BD:49:CE:12
            X509v3 Key Usage: critical
                Digital Signature, Certificate Sign, CRL Sign
            X509v3 Basic Constraints: critical
                CA:TRUE, pathlen:0
            X509v3 Extended Key Usage: 
                Code Signing
            X509v3 Certificate Policies: 
                Policy: X509v3 Any Policy

            X509v3 CRL Distribution Points: 

                Full Name:
                  URI:http://crl.comodoca.com/COMODORSACertificationAuthority.crl

            Authority Information Access: 
                CA Issuers - URI:http://crt.comodoca.com/COMODORSAAddTrustCA.crt
                OCSP - URI:http://ocsp.comodoca.com

    Signature Algorithm: sha384WithRSAEncryption
         02:3f:02:39:c3:ee:f8:ca:3b:89:de:0c:6d:4d:b1:f1:4e:92:
         4f:af:c2:38:2c:04:cc:c5:63:11:ab:09:63:af:ab:a2:d7:02:
         3f:cc:6f:19:c3:3d:d6:1a:08:94:ff:25:d8:a9:88:a7:2b:10:
         1a:e0:9b:b1:07:22:1a:51:1c:3a:d4:e1:e9:09:bf:e6:24:74:
         af:1e:7b:16:31:6e:23:ef:54:51:2d:52:02:e2:75:08:05:4c:
         f1:b7:51:e1:51:00:c6:87:f6:6c:ee:10:44:76:57:6a:f1:df:
         58:6b:21:aa:49:d4:7c:37:4e:bd:ff:b6:75:54:40:18:36:57:
         67:11:cd:4f:02:e4:fe:f3:da:fc:75:17:db:ec:b7:f7:65:09:
         23:49:1f:43:57:83:ea:7e:20:77:61:c8:4d:f2:bb:65:4d:a8:
         f7:85:45:07:af:7a:69:27:65:90:29:40:8b:df:7b:3a:51:39:
         8c:a8:1f:70:79:ad:6d:42:20:a2:cf:0c:6c:03:8c:4c:cd:73:
         07:94:e7:5a:8e:3a:04:ba:a2:a1:7c:1f:cb:63:3a:15:a7:d4:
         15:1b:a7:52:47:32:a9:f4:bf:64:47:d1:aa:1f:53:4e:32:30:
         73:c2:6f:b7:78:82:9d:5c:ff:46:bb:6b:22:1d:88:0b:f8:1b:
         aa:34:a6:fc:8c:f5:dd:7f:65:8c:8c:31:57:31:d0:36:ec:47:
         a1:cf:cb:8b:a8:ef:1c:18:58:c5:06:77:ca:4b:9b:51:af:4c:
         08:4a:7a:8f:e2:a3:52:e2:8e:8e:cc:26:e4:b2:d8:e5:38:c2:
         a8:ed:c6:81:9c:35:6b:a9:58:61:4a:0a:97:b4:4b:42:b6:55:
         9d:be:99:e7:70:6d:59:f8:6d:2a:0c:7f:19:60:5f:0c:9a:88:
         6c:30:ac:52:09:90:16:1b:ff:2b:9d:db:d0:20:ca:89:ea:28:
         7e:32:8e:19:df:7b:48:33:1e:d7:65:f8:ae:c9:f8:83:14:93:
         76:7d:64:d0:8e:ce:be:35:7d:ff:72:31:4d:9f:9e:bd:1e:6c:
         2f:a8:8f:0c:06:50:fb:8c:27:b3:76:c9:f4:e6:d7:c3:34:e2:
         8c:87:21:86:61:fe:bf:55:74:e1:21:77:03:0a:68:6c:bb:e4:
         c9:a9:e6:cf:59:25:eb:7c:ec:45:0e:79:66:68:e8:22:cd:b8:
         ef:98:85:4d:96:11:3c:09:8a:d0:7f:bc:28:28:13:fb:6a:ca:
         54:8d:92:5c:cd:c2:65:98:06:9e:ce:48:5b:d4:b5:37:93:46:
         41:7c:07:dd:cf:fa:43:ef:ba:67:61:ff:7d:49:e0:bb:30:7d:
         5c:80:e3:e6:16:39:4b:a7
-----BEGIN CERTIFICATE-----
MIIF4DCCA8igAwIBAgIQLnyHzA6TSlL+lP0ct800rzANBgkqhkiG9w0BAQwFADCB
hTELMAkGA1UEBhMCR0IxGzAZBgNVBAgTEkdyZWF0ZXIgTWFuY2hlc3RlcjEQMA4G
A1UEBxMHU2FsZm9yZDEaMBgGA1UEChMRQ09NT0RPIENBIExpbWl0ZWQxKzApBgNV
BAMTIkNPTU9ETyBSU0EgQ2VydGlmaWNhdGlvbiBBdXRob3JpdHkwHhcNMTMwNTA5
MDAwMDAwWhcNMjgwNTA4MjM1OTU5WjB9MQswCQYDVQQGEwJHQjEbMBkGA1UECBMS
R3JlYXRlciBNYW5jaGVzdGVyMRAwDgYDVQQHEwdTYWxmb3JkMRowGAYDVQQKExFD
T01PRE8gQ0EgTGltaXRlZDEjMCEGA1UEAxMaQ09NT0RPIFJTQSBDb2RlIFNpZ25p
bmcgQ0EwggEiMA0GCSqGSIb3DQEBAQUAA4IBDwAwggEKAoIBAQCmmJBjd5E0f4rR
3elnMRHrzB79MR2zuWJXP5O8W+OfHiQyESdrvFGRp8+eniWzX4GoGA8dHiAwDvth
e4YJs+P9omidHCydv3Lj5HWg5TUjjsmK7hoMZMfYQqF7tVIDSzqwjiNLS2PgIpQ3
e9V5kAoUGFEs5v7BEvAcP2FhCoyi3PbDMKrNKBh1SMF5WgjNu4xVjPfUdpA6M0ZQ
c5hc9IVKaw+A3V7Wvf2pL8Al9fl4141fEMJEVTyQPDFGy3CuB6kK46/BAW+QGiPi
XzjbxghdR7ODQfAuADcUuRKqeZJSzYcPe9hiKaR+ML0btYxytEjy4+gh+V5MYnmL
Agaff9ULAgMBAAGjggFRMIIBTTAfBgNVHSMEGDAWgBS7r34CPfqm8TyEjq3uOJjs
2TIy1DAdBgNVHQ4EFgQUKZFg/4pN+uv5pmq4z/nmS71JzhIwDgYDVR0PAQH/BAQD
AgGGMBIGA1UdEwEB/wQIMAYBAf8CAQAwEwYDVR0lBAwwCgYIKwYBBQUHAwMwEQYD
VR0gBAowCDAGBgRVHSAAMEwGA1UdHwRFMEMwQaA/oD2GO2h0dHA6Ly9jcmwuY29t
b2RvY2EuY29tL0NPTU9ET1JTQUNlcnRpZmljYXRpb25BdXRob3JpdHkuY3JsMHEG
CCsGAQUFBwEBBGUwYzA7BggrBgEFBQcwAoYvaHR0cDovL2NydC5jb21vZG9jYS5j
b20vQ09NT0RPUlNBQWRkVHJ1c3RDQS5jcnQwJAYIKwYBBQUHMAGGGGh0dHA6Ly9v
Y3NwLmNvbW9kb2NhLmNvbTANBgkqhkiG9w0BAQwFAAOCAgEAAj8COcPu+Mo7id4M
bU2x8U6ST6/COCwEzMVjEasJY6+rotcCP8xvGcM91hoIlP8l2KmIpysQGuCbsQci
GlEcOtTh6Qm/5iR0rx57FjFuI+9UUS1SAuJ1CAVM8bdR4VEAxof2bO4QRHZXavHf
WGshqknUfDdOvf+2dVRAGDZXZxHNTwLk/vPa/HUX2+y392UJI0kfQ1eD6n4gd2HI
TfK7ZU2o94VFB696aSdlkClAi997OlE5jKgfcHmtbUIgos8MbAOMTM1zB5TnWo46
BLqioXwfy2M6FafUFRunUkcyqfS/ZEfRqh9TTjIwc8Jvt3iCnVz/RrtrIh2IC/gb
qjSm/Iz13X9ljIwxVzHQNuxHoc/Li6jvHBhYxQZ3ykubUa9MCEp6j+KjUuKOjswm
5LLY5TjCqO3GgZw1a6lYYUoKl7RLQrZVnb6Z53BtWfhtKgx/GWBfDJqIbDCsUgmQ
Fhv/K53b0CDKieoofjKOGd97SDMe12X4rsn4gxSTdn1k0I7OvjV9/3IxTZ+evR5s
L6iPDAZQ+4wns3bJ9ObXwzTijIchhmH+v1V04SF3AwpobLvkyanmz1kl63zsRQ55
ZmjoIs2475iFTZYRPAmK0H+8KCgT+2rKVI2SXM3CZZgGns5IW9S1N5NGQXwH3c/6
Q++6Z2H/fUnguzB9XIDj5hY5S6c=
-----END CERTIFICATE-----

