Certificate:
    Data:
        Version: 3 (0x2)
        Serial Number:
            4e:d5:d9:a2:f2:39:12:a9:3a:d2:93:7c:03:8b:77:f4
    Signature Algorithm: sha256WithRSAEncryption
        Issuer: C=US, O=VeriSign, Inc., OU=VeriSign Trust Network, OU=Terms of use at https://www.verisign.com/rpa (c)10, CN=VeriSign Class 3 Code Signing 2010 CA
        Validity
            Not Before: Jul 28 00:00:00 2014 GMT
            Not After : Jul 28 23:59:59 2015 GMT
        Subject: C=ES, ST=Santa Cruz de Tenerife, L=Guia de Isora, O=Digital Plugin SL, CN=Digital Plugin SL
        Subject Public Key Info:
            Public Key Algorithm: rsaEncryption
                Public-Key: (2048 bit)
                Modulus:
                    00:d6:7f:ee:5d:19:a3:0f:1f:49:88:f7:c4:92:96:
                    b2:2f:b5:e2:75:b3:28:39:e1:aa:9b:41:f2:fd:cc:
                    ee:f6:47:93:c2:41:09:aa:37:7e:9a:40:8a:59:5f:
                    47:9a:ab:9e:dd:41:f6:d3:cd:f5:8a:33:52:7d:1e:
                    ae:cb:b6:a8:ff:15:9b:bf:cb:30:22:8b:64:03:7e:
                    92:7f:ef:62:3d:3a:44:d7:df:69:d5:87:eb:b9:7c:
                    7f:5b:c6:ed:8c:d4:2f:70:d4:02:1b:2f:8a:ad:0d:
                    72:8f:32:90:ce:58:61:9c:b9:e3:31:ef:c6:a3:da:
                    6b:dd:aa:b3:9d:8d:84:ef:3c:08:94:9f:77:af:42:
                    2d:9f:aa:dc:d9:91:ad:a2:db:1d:b8:96:86:91:d4:
                    35:10:e3:3d:9b:32:20:5a:ef:61:eb:14:f5:9b:4d:
                    6a:de:02:84:a1:e5:7b:da:e8:3d:70:42:45:9c:4a:
                    4f:bf:c7:93:19:bb:40:92:88:22:02:f7:f8:a9:fb:
                    61:5e:14:6f:92:1b:8a:84:fd:f8:0a:f5:d3:97:2d:
                    38:e3:8c:ec:c1:35:e2:28:56:e8:e4:66:68:b4:88:
                    8d:36:a9:e6:f5:50:51:ef:88:6f:63:bf:ad:22:d9:
                    0b:c6:1c:2a:fa:e2:2b:3b:3e:f5:b6:97:70:e7:59:
                    6d:1d
                Exponent: 65537 (0x10001)
        X509v3 extensions:
            X509v3 Basic Constraints: 
                CA:FALSE
            X509v3 Key Usage: critical
                Digital Signature
            X509v3 CRL Distribution Points: 

                Full Name:
                  URI:http://sf.symcb.com/sf.crl

            X509v3 Certificate Policies: 
                Policy: 2.16.840.1.113733.1.7.23.3
                  CPS: https://d.symcb.com/cps
                  User Notice:
                    Explicit Text: https://d.symcb.com/rpa

            X509v3 Extended Key Usage: 
                Code Signing
            Authority Information Access: 
                OCSP - URI:http://sf.symcd.com
                CA Issuers - URI:http://sf.symcb.com/sf.crt

            X509v3 Authority Key Identifier: 
                keyid:CF:99:A9:EA:7B:26:F4:4B:C9:8E:8F:D7:F0:05:26:EF:E3:D2:A7:9D

            X509v3 Subject Key Identifier: 
                06:85:45:EB:AE:46:30:F7:9B:31:9A:9D:DF:A6:01:FC:35:0F:5D:7B
            Netscape Cert Type: 
                Object Signing
            1.3.6.1.4.1.311.2.1.27: 
                0.......
    Signature Algorithm: sha256WithRSAEncryption
         66:d3:b5:c9:5b:92:29:85:ea:b7:14:d0:b3:b8:e4:be:bc:c4:
         57:cb:4a:80:f6:5c:41:78:fe:f1:a0:a2:f0:24:4f:ec:12:65:
         a5:f2:57:35:ae:58:95:a6:a6:98:f0:db:88:1b:27:06:fd:36:
         81:50:f6:41:a0:ca:2d:fb:b8:52:61:3e:aa:74:02:a7:e9:da:
         73:3c:af:f1:82:60:fb:dd:0e:94:77:2f:9d:36:15:1b:55:b2:
         aa:61:39:22:19:f7:2c:f9:2a:df:81:45:0e:dd:d1:a3:c1:05:
         27:49:3e:c7:52:3d:35:8d:34:6e:19:25:df:e9:4e:39:a6:e9:
         ac:e1:e9:6b:d7:41:fb:86:77:bf:db:b3:6c:8b:3c:32:f7:44:
         c4:24:cf:7c:3d:81:64:eb:a9:bb:79:c6:e4:a6:61:bc:26:3d:
         f0:9b:16:ba:e6:f8:7d:9d:ac:2a:1e:ee:09:f1:0a:f1:18:87:
         f7:fc:19:dc:f2:05:3f:5e:d5:3f:f0:ee:b1:cc:b6:55:6e:71:
         3d:e6:6b:37:29:5d:3c:ec:49:df:46:17:e9:bc:82:c4:3e:fd:
         c8:5e:e3:b8:ce:37:ea:a3:bb:8f:31:c4:1a:0b:1a:05:56:41:
         d1:c7:66:65:0f:3b:df:2a:f9:a3:88:c7:09:9b:77:a6:8c:08:
         dc:0c:be:33
-----BEGIN CERTIFICATE-----
MIIFTDCCBDSgAwIBAgIQTtXZovI5Eqk60pN8A4t39DANBgkqhkiG9w0BAQsFADCB
tDELMAkGA1UEBhMCVVMxFzAVBgNVBAoTDlZlcmlTaWduLCBJbmMuMR8wHQYDVQQL
ExZWZXJpU2lnbiBUcnVzdCBOZXR3b3JrMTswOQYDVQQLEzJUZXJtcyBvZiB1c2Ug
YXQgaHR0cHM6Ly93d3cudmVyaXNpZ24uY29tL3JwYSAoYykxMDEuMCwGA1UEAxMl
VmVyaVNpZ24gQ2xhc3MgMyBDb2RlIFNpZ25pbmcgMjAxMCBDQTAeFw0xNDA3Mjgw
MDAwMDBaFw0xNTA3MjgyMzU5NTlaMH4xCzAJBgNVBAYTAkVTMR8wHQYDVQQIExZT
YW50YSBDcnV6IGRlIFRlbmVyaWZlMRYwFAYDVQQHEw1HdWlhIGRlIElzb3JhMRow
GAYDVQQKFBFEaWdpdGFsIFBsdWdpbiBTTDEaMBgGA1UEAxQRRGlnaXRhbCBQbHVn
aW4gU0wwggEiMA0GCSqGSIb3DQEBAQUAA4IBDwAwggEKAoIBAQDWf+5dGaMPH0mI
98SSlrIvteJ1syg54aqbQfL9zO72R5PCQQmqN36aQIpZX0eaq57dQfbTzfWKM1J9
Hq7Ltqj/FZu/yzAii2QDfpJ/72I9OkTX32nVh+u5fH9bxu2M1C9w1AIbL4qtDXKP
MpDOWGGcueMx78aj2mvdqrOdjYTvPAiUn3evQi2fqtzZka2i2x24loaR1DUQ4z2b
MiBa72HrFPWbTWreAoSh5Xva6D1wQkWcSk+/x5MZu0CSiCIC9/ip+2FeFG+SG4qE
/fgK9dOXLTjjjOzBNeIoVujkZmi0iI02qeb1UFHviG9jv60i2QvGHCr64is7PvW2
l3DnWW0dAgMBAAGjggGNMIIBiTAJBgNVHRMEAjAAMA4GA1UdDwEB/wQEAwIHgDAr
BgNVHR8EJDAiMCCgHqAchhpodHRwOi8vc2Yuc3ltY2IuY29tL3NmLmNybDBmBgNV
HSAEXzBdMFsGC2CGSAGG+EUBBxcDMEwwIwYIKwYBBQUHAgEWF2h0dHBzOi8vZC5z
eW1jYi5jb20vY3BzMCUGCCsGAQUFBwICMBkWF2h0dHBzOi8vZC5zeW1jYi5jb20v
cnBhMBMGA1UdJQQMMAoGCCsGAQUFBwMDMFcGCCsGAQUFBwEBBEswSTAfBggrBgEF
BQcwAYYTaHR0cDovL3NmLnN5bWNkLmNvbTAmBggrBgEFBQcwAoYaaHR0cDovL3Nm
LnN5bWNiLmNvbS9zZi5jcnQwHwYDVR0jBBgwFoAUz5mp6nsm9EvJjo/X8AUm7+PS
p50wHQYDVR0OBBYEFAaFReuuRjD3mzGand+mAfw1D117MBEGCWCGSAGG+EIBAQQE
AwIEEDAWBgorBgEEAYI3AgEbBAgwBgEBAAEB/zANBgkqhkiG9w0BAQsFAAOCAQEA
ZtO1yVuSKYXqtxTQs7jkvrzEV8tKgPZcQXj+8aCi8CRP7BJlpfJXNa5YlaammPDb
iBsnBv02gVD2QaDKLfu4UmE+qnQCp+naczyv8YJg+90OlHcvnTYVG1WyqmE5Ihn3
LPkq34FFDt3Ro8EFJ0k+x1I9NY00bhkl3+lOOabprOHpa9dB+4Z3v9uzbIs8MvdE
xCTPfD2BZOupu3nG5KZhvCY98JsWuub4fZ2sKh7uCfEK8RiH9/wZ3PIFP17VP/Du
scy2VW5xPeZrNyldPOxJ30YX6byCxD79yF7juM436qO7jzHEGgsaBVZB0cdmZQ87
3yr5o4jHCZt3powI3Ay+Mw==
-----END CERTIFICATE-----

Certificate:
    Data:
        Version: 3 (0x2)
        Serial Number:
            52:00:e5:aa:25:56:fc:1a:86:ed:96:c9:d4:4b:33:c7
    Signature Algorithm: sha1WithRSAEncryption
        Issuer: C=US, O=VeriSign, Inc., OU=VeriSign Trust Network, OU=(c) 2006 VeriSign, Inc. - For authorized use only, CN=VeriSign Class 3 Public Primary Certification Authority - G5
        Validity
            Not Before: Feb  8 00:00:00 2010 GMT
            Not After : Feb  7 23:59:59 2020 GMT
        Subject: C=US, O=VeriSign, Inc., OU=VeriSign Trust Network, OU=Terms of use at https://www.verisign.com/rpa (c)10, CN=VeriSign Class 3 Code Signing 2010 CA
        Subject Public Key Info:
            Public Key Algorithm: rsaEncryption
                Public-Key: (2048 bit)
                Modulus:
                    00:f5:23:4b:5e:a5:d7:8a:bb:32:e9:d4:57:f7:ef:
                    e4:c7:26:7e:ad:19:98:fe:a8:9d:7d:94:f6:36:6b:
                    10:d7:75:81:30:7f:04:68:7f:cb:2b:75:1e:cd:1d:
                    08:8c:df:69:94:a7:37:a3:9c:7b:80:e0:99:e1:ee:
                    37:4d:5f:ce:3b:14:ee:86:d4:d0:f5:27:35:bc:25:
                    0b:38:a7:8c:63:9d:17:a3:08:a5:ab:b0:fb:cd:6a:
                    62:82:4c:d5:21:da:1b:d9:f1:e3:84:3b:8a:2a:4f:
                    85:5b:90:01:4f:c9:a7:76:10:7f:27:03:7c:be:ae:
                    7e:7d:c1:dd:f9:05:bc:1b:48:9c:69:e7:c0:a4:3c:
                    3c:41:00:3e:df:96:e5:c5:e4:94:71:d6:55:01:c7:
                    00:26:4a:40:3c:b5:a1:26:a9:0c:a7:6d:80:8e:90:
                    25:7b:cf:bf:3f:1c:eb:2f:96:fa:e5:87:77:c6:b5:
                    56:b2:7a:3b:54:30:53:1b:df:62:34:ff:1e:d1:f4:
                    5a:93:28:85:e5:4c:17:4e:7e:5b:fd:a4:93:99:7f:
                    df:cd:ef:a4:75:ef:ef:15:f6:47:e7:f8:19:72:d8:
                    2e:34:1a:a6:b4:a7:4c:7e:bd:bb:4f:0c:3d:57:f1:
                    30:d6:a6:36:8e:d6:80:76:d7:19:2e:a5:cd:7e:34:
                    2d:89
                Exponent: 65537 (0x10001)
        X509v3 extensions:
            X509v3 Basic Constraints: critical
                CA:TRUE, pathlen:0
            X509v3 Certificate Policies: 
                Policy: 2.16.840.1.113733.1.7.23.3
                  CPS: https://www.verisign.com/cps
                  User Notice:
                    Explicit Text: https://www.verisign.com/rpa

            X509v3 Key Usage: critical
                Certificate Sign, CRL Sign
            1.3.6.1.5.5.7.1.12: 
                0_.].[0Y0W0U..image/gif0!0.0...+..............k...j.H.,{..0%.#http://logo.verisign.com/vslogo.gif
            X509v3 CRL Distribution Points: 

                Full Name:
                  URI:http://crl.verisign.com/pca3-g5.crl

            Authority Information Access: 
                OCSP - URI:http://ocsp.verisign.com

            X509v3 Extended Key Usage: 
                TLS Web Client Authentication, Code Signing
            X509v3 Subject Alternative Name: 
                DirName:/CN=VeriSignMPKI-2-8
            X509v3 Subject Key Identifier: 
                CF:99:A9:EA:7B:26:F4:4B:C9:8E:8F:D7:F0:05:26:EF:E3:D2:A7:9D
            X509v3 Authority Key Identifier: 
                keyid:7F:D3:65:A7:C2:DD:EC:BB:F0:30:09:F3:43:39:FA:02:AF:33:31:33

    Signature Algorithm: sha1WithRSAEncryption
         56:22:e6:34:a4:c4:61:cb:48:b9:01:ad:56:a8:64:0f:d9:8c:
         91:c4:bb:cc:0c:e5:ad:7a:a0:22:7f:df:47:38:4a:2d:6c:d1:
         7f:71:1a:7c:ec:70:a9:b1:f0:4f:e4:0f:0c:53:fa:15:5e:fe:
         74:98:49:24:85:81:26:1c:91:14:47:b0:4c:63:8c:bb:a1:34:
         d4:c6:45:e8:0d:85:26:73:03:d0:a9:8c:64:6d:dc:71:92:e6:
         45:05:60:15:59:51:39:fc:58:14:6b:fe:d4:a4:ed:79:6b:08:
         0c:41:72:e7:37:22:06:09:be:23:e9:3f:44:9a:1e:e9:61:9d:
         cc:b1:90:5c:fc:3d:d2:8d:ac:42:3d:65:36:d4:b4:3d:40:28:
         8f:9b:10:cf:23:26:cc:4b:20:cb:90:1f:5d:8c:4c:34:ca:3c:
         d8:e5:37:d6:6f:a5:20:bd:34:eb:26:d9:ae:0d:e7:c5:9a:f7:
         a1:b4:21:91:33:6f:86:e8:58:bb:25:7c:74:0e:58:fe:75:1b:
         63:3f:ce:31:7c:9b:8f:1b:96:9e:c5:53:76:84:5b:9c:ad:91:
         fa:ac:ed:93:ba:5d:c8:21:53:c2:82:53:63:af:12:0d:50:87:
         11:1b:3d:54:52:96:8a:2c:9c:3d:92:1a:08:9a:05:2e:c7:93:
         a5:48:91:d3
-----BEGIN CERTIFICATE-----
MIIGCjCCBPKgAwIBAgIQUgDlqiVW/BqG7ZbJ1EszxzANBgkqhkiG9w0BAQUFADCB
yjELMAkGA1UEBhMCVVMxFzAVBgNVBAoTDlZlcmlTaWduLCBJbmMuMR8wHQYDVQQL
ExZWZXJpU2lnbiBUcnVzdCBOZXR3b3JrMTowOAYDVQQLEzEoYykgMjAwNiBWZXJp
U2lnbiwgSW5jLiAtIEZvciBhdXRob3JpemVkIHVzZSBvbmx5MUUwQwYDVQQDEzxW
ZXJpU2lnbiBDbGFzcyAzIFB1YmxpYyBQcmltYXJ5IENlcnRpZmljYXRpb24gQXV0
aG9yaXR5IC0gRzUwHhcNMTAwMjA4MDAwMDAwWhcNMjAwMjA3MjM1OTU5WjCBtDEL
MAkGA1UEBhMCVVMxFzAVBgNVBAoTDlZlcmlTaWduLCBJbmMuMR8wHQYDVQQLExZW
ZXJpU2lnbiBUcnVzdCBOZXR3b3JrMTswOQYDVQQLEzJUZXJtcyBvZiB1c2UgYXQg
aHR0cHM6Ly93d3cudmVyaXNpZ24uY29tL3JwYSAoYykxMDEuMCwGA1UEAxMlVmVy
aVNpZ24gQ2xhc3MgMyBDb2RlIFNpZ25pbmcgMjAxMCBDQTCCASIwDQYJKoZIhvcN
AQEBBQADggEPADCCAQoCggEBAPUjS16l14q7MunUV/fv5Mcmfq0ZmP6onX2U9jZr
ENd1gTB/BGh/yyt1Hs0dCIzfaZSnN6Oce4DgmeHuN01fzjsU7obU0PUnNbwlCzin
jGOdF6MIpauw+81qYoJM1SHaG9nx44Q7iipPhVuQAU/Jp3YQfycDfL6ufn3B3fkF
vBtInGnnwKQ8PEEAPt+W5cXklHHWVQHHACZKQDy1oSapDKdtgI6QJXvPvz8c6y+W
+uWHd8a1VrJ6O1QwUxvfYjT/HtH0WpMoheVMF05+W/2kk5l/383vpHXv7xX2R+f4
GXLYLjQaprSnTH69u08MPVfxMNamNo7WgHbXGS6lzX40LYkCAwEAAaOCAf4wggH6
MBIGA1UdEwEB/wQIMAYBAf8CAQAwcAYDVR0gBGkwZzBlBgtghkgBhvhFAQcXAzBW
MCgGCCsGAQUFBwIBFhxodHRwczovL3d3dy52ZXJpc2lnbi5jb20vY3BzMCoGCCsG
AQUFBwICMB4aHGh0dHBzOi8vd3d3LnZlcmlzaWduLmNvbS9ycGEwDgYDVR0PAQH/
BAQDAgEGMG0GCCsGAQUFBwEMBGEwX6FdoFswWTBXMFUWCWltYWdlL2dpZjAhMB8w
BwYFKw4DAhoEFI/l0xqGrI2Oa8PPgGrUSBgsexkuMCUWI2h0dHA6Ly9sb2dvLnZl
cmlzaWduLmNvbS92c2xvZ28uZ2lmMDQGA1UdHwQtMCswKaAnoCWGI2h0dHA6Ly9j
cmwudmVyaXNpZ24uY29tL3BjYTMtZzUuY3JsMDQGCCsGAQUFBwEBBCgwJjAkBggr
BgEFBQcwAYYYaHR0cDovL29jc3AudmVyaXNpZ24uY29tMB0GA1UdJQQWMBQGCCsG
AQUFBwMCBggrBgEFBQcDAzAoBgNVHREEITAfpB0wGzEZMBcGA1UEAxMQVmVyaVNp
Z25NUEtJLTItODAdBgNVHQ4EFgQUz5mp6nsm9EvJjo/X8AUm7+PSp50wHwYDVR0j
BBgwFoAUf9Nlp8Ld7LvwMAnzQzn6Aq8zMTMwDQYJKoZIhvcNAQEFBQADggEBAFYi
5jSkxGHLSLkBrVaoZA/ZjJHEu8wM5a16oCJ/30c4Si1s0X9xGnzscKmx8E/kDwxT
+hVe/nSYSSSFgSYckRRHsExjjLuhNNTGRegNhSZzA9CpjGRt3HGS5kUFYBVZUTn8
WBRr/tSk7XlrCAxBcuc3IgYJviPpP0SaHulhncyxkFz8PdKNrEI9ZTbUtD1AKI+b
EM8jJsxLIMuQH12MTDTKPNjlN9ZvpSC9NOsm2a4N58Wa96G0IZEzb4boWLslfHQO
WP51G2M/zjF8m48blp7FU3aEW5ytkfqs7ZO6XcghU8KCU2OvEg1QhxEbPVRSloos
nD2SGgiaBS7Hk6VIkdM=
-----END CERTIFICATE-----

