Certificate:
    Data:
        Version: 3 (0x2)
        Serial Number:
            7e:93:eb:fb:7c:c6:4e:59:ea:4b:9a:77:d4:06:fc:3b
    Signature Algorithm: sha1WithRSAEncryption
        Issuer: C=ZA, ST=Western Cape, L=Durbanville, O=Thawte, OU=Thawte Certification, CN=Thawte Timestamping CA
        Validity
            Not Before: Dec 21 00:00:00 2012 GMT
            Not After : Dec 30 23:59:59 2020 GMT
        Subject: C=US, O=Symantec Corporation, CN=Symantec Time Stamping Services CA - G2
        Subject Public Key Info:
            Public Key Algorithm: rsaEncryption
                Public-Key: (2048 bit)
                Modulus:
                    00:b1:ac:b3:49:54:4b:97:1c:12:0a:d8:25:79:91:
                    22:57:2a:6f:dc:b8:26:c4:43:73:6b:c2:bf:2e:50:
                    5a:fb:14:c2:76:8e:43:01:25:43:b4:a1:e2:45:f4:
                    e8:b7:7b:c3:74:cc:22:d7:b4:94:00:02:f7:4d:ed:
                    bf:b4:b7:44:24:6b:cd:5f:45:3b:d1:44:ce:43:12:
                    73:17:82:8b:69:b4:2b:cb:99:1e:ac:72:1b:26:4d:
                    71:1f:b1:31:dd:fb:51:61:02:53:a6:aa:f5:49:2c:
                    05:78:45:a5:2f:89:ce:e7:99:e7:fe:8c:e2:57:3f:
                    3d:c6:92:dc:4a:f8:7b:33:e4:79:0a:fb:f0:75:88:
                    41:9c:ff:c5:03:51:99:aa:d7:6c:9f:93:69:87:65:
                    29:83:85:c2:60:14:c4:c8:c9:3b:14:da:c0:81:f0:
                    1f:0d:74:de:92:22:ab:ca:f7:fb:74:7c:27:e6:f7:
                    4a:1b:7f:a7:c3:9e:2d:ae:8a:ea:a6:e6:aa:27:16:
                    7d:61:f7:98:71:11:bc:e2:50:a1:4b:e5:5d:fa:e5:
                    0e:a7:2c:9f:aa:65:20:d3:d8:96:e8:c8:7c:a5:4e:
                    48:44:ff:19:e2:44:07:92:0b:d7:68:84:80:5d:6a:
                    78:64:45:cd:60:46:7e:54:c1:13:7c:c5:79:f1:c9:
                    c1:71
                Exponent: 65537 (0x10001)
        X509v3 extensions:
            X509v3 Subject Key Identifier: 
                5F:9A:F5:6E:5C:CC:CC:74:9A:D4:DD:7D:EF:3F:DB:EC:4C:80:2E:DD
            Authority Information Access: 
                OCSP - URI:http://ocsp.thawte.com

            X509v3 Basic Constraints: critical
                CA:TRUE, pathlen:0
            X509v3 CRL Distribution Points: 

                Full Name:
                  URI:http://crl.thawte.com/ThawteTimestampingCA.crl

            X509v3 Extended Key Usage: 
                Time Stamping
            X509v3 Key Usage: critical
                Certificate Sign, CRL Sign
            X509v3 Subject Alternative Name: 
                DirName:/CN=TimeStamp-2048-1
    Signature Algorithm: sha1WithRSAEncryption
         03:09:9b:8f:79:ef:7f:59:30:aa:ef:68:b5:fa:e3:09:1d:bb:
         4f:82:06:5d:37:5f:a6:52:9f:16:8d:ea:1c:92:09:44:6e:f5:
         6d:eb:58:7c:30:e8:f9:69:8d:23:73:0b:12:6f:47:a9:ae:39:
         11:f8:2a:b1:9b:b0:1a:c3:8e:eb:59:96:00:ad:ce:0c:4d:b2:
         d0:31:a6:08:5c:2a:7a:fc:e2:7a:1d:57:4c:a8:65:18:e9:79:
         40:62:25:96:6e:c7:c7:37:6a:83:21:08:8e:41:ea:dd:d9:57:
         3f:1d:77:49:87:2a:16:06:5e:a6:38:6a:22:12:a3:51:19:83:
         7e:b6
-----BEGIN CERTIFICATE-----
MIID7jCCA1egAwIBAgIQfpPr+3zGTlnqS5p31Ab8OzANBgkqhkiG9w0BAQUFADCB
izELMAkGA1UEBhMCWkExFTATBgNVBAgTDFdlc3Rlcm4gQ2FwZTEUMBIGA1UEBxML
RHVyYmFudmlsbGUxDzANBgNVBAoTBlRoYXd0ZTEdMBsGA1UECxMUVGhhd3RlIENl
cnRpZmljYXRpb24xHzAdBgNVBAMTFlRoYXd0ZSBUaW1lc3RhbXBpbmcgQ0EwHhcN
MTIxMjIxMDAwMDAwWhcNMjAxMjMwMjM1OTU5WjBeMQswCQYDVQQGEwJVUzEdMBsG
A1UEChMUU3ltYW50ZWMgQ29ycG9yYXRpb24xMDAuBgNVBAMTJ1N5bWFudGVjIFRp
bWUgU3RhbXBpbmcgU2VydmljZXMgQ0EgLSBHMjCCASIwDQYJKoZIhvcNAQEBBQAD
ggEPADCCAQoCggEBALGss0lUS5ccEgrYJXmRIlcqb9y4JsRDc2vCvy5QWvsUwnaO
QwElQ7Sh4kX06Ld7w3TMIte0lAAC903tv7S3RCRrzV9FO9FEzkMScxeCi2m0K8uZ
HqxyGyZNcR+xMd37UWECU6aq9UksBXhFpS+JzueZ5/6M4lc/PcaS3Er4ezPkeQr7
8HWIQZz/xQNRmarXbJ+TaYdlKYOFwmAUxMjJOxTawIHwHw103pIiq8r3+3R8J+b3
Sht/p8OeLa6K6qbmqicWfWH3mHERvOJQoUvlXfrlDqcsn6plINPYlujIfKVOSET/
GeJEB5IL12iEgF1qeGRFzWBGflTBE3zFefHJwXECAwEAAaOB+jCB9zAdBgNVHQ4E
FgQUX5r1blzMzHSa1N197z/b7EyALt0wMgYIKwYBBQUHAQEEJjAkMCIGCCsGAQUF
BzABhhZodHRwOi8vb2NzcC50aGF3dGUuY29tMBIGA1UdEwEB/wQIMAYBAf8CAQAw
PwYDVR0fBDgwNjA0oDKgMIYuaHR0cDovL2NybC50aGF3dGUuY29tL1RoYXd0ZVRp
bWVzdGFtcGluZ0NBLmNybDATBgNVHSUEDDAKBggrBgEFBQcDCDAOBgNVHQ8BAf8E
BAMCAQYwKAYDVR0RBCEwH6QdMBsxGTAXBgNVBAMTEFRpbWVTdGFtcC0yMDQ4LTEw
DQYJKoZIhvcNAQEFBQADgYEAAwmbj3nvf1kwqu9otfrjCR27T4IGXTdfplKfFo3q
HJIJRG71betYfDDo+WmNI3MLEm9Hqa45EfgqsZuwGsOO61mWAK3ODE2y0DGmCFwq
evzieh1XTKhlGOl5QGIllm7HxzdqgyEIjkHq3dlXPx13SYcqFgZepjhqIhKjURmD
frY=
-----END CERTIFICATE-----

Certificate:
    Data:
        Version: 3 (0x2)
        Serial Number:
            0e:cf:f4:38:c8:fe:bf:35:6e:04:d8:6a:98:1b:1a:50
    Signature Algorithm: sha1WithRSAEncryption
        Issuer: C=US, O=Symantec Corporation, CN=Symantec Time Stamping Services CA - G2
        Validity
            Not Before: Oct 18 00:00:00 2012 GMT
            Not After : Dec 29 23:59:59 2020 GMT
        Subject: C=US, O=Symantec Corporation, CN=Symantec Time Stamping Services Signer - G4
        Subject Public Key Info:
            Public Key Algorithm: rsaEncryption
                Public-Key: (2048 bit)
                Modulus:
                    00:a2:63:0b:39:44:b8:bb:23:a7:44:49:bb:0e:ff:
                    a1:f0:61:0a:53:93:b0:98:db:ad:2c:0f:4a:c5:6e:
                    ff:86:3c:53:55:0f:15:ce:04:3f:2b:fd:a9:96:96:
                    d9:be:61:79:0b:5b:c9:4c:86:76:e5:e0:43:4b:22:
                    95:ee:c2:2b:43:c1:9f:d8:68:b4:8e:40:4f:ee:85:
                    38:b9:11:c5:23:f2:64:58:f0:15:32:6f:4e:57:a1:
                    ae:88:a4:02:d7:2a:1e:cd:4b:e1:dd:63:d5:17:89:
                    32:5b:b0:5e:99:5a:a8:9d:28:50:0e:17:ee:96:db:
                    61:3b:45:51:1d:cf:12:56:0b:92:47:fc:ab:ae:f6:
                    66:3d:47:ac:70:72:e7:92:e7:5f:cd:10:b9:c4:83:
                    64:94:19:bd:25:80:e1:e8:d2:22:a5:d0:ba:02:7a:
                    a1:77:93:5b:65:c3:ee:17:74:bc:41:86:2a:dc:08:
                    4c:8c:92:8c:91:2d:9e:77:44:1f:68:d6:a8:74:77:
                    db:0e:5b:32:8b:56:8b:33:bd:d9:63:c8:49:9d:3a:
                    c5:c5:ea:33:0b:d2:f1:a3:1b:f4:8b:be:d9:b3:57:
                    8b:3b:de:04:a7:7a:22:b2:24:ae:2e:c7:70:c5:be:
                    4e:83:26:08:fb:0b:bd:a9:4f:99:08:e1:10:28:72:
                    aa:cd
                Exponent: 65537 (0x10001)
        X509v3 extensions:
            X509v3 Basic Constraints: critical
                CA:FALSE
            X509v3 Extended Key Usage: critical
                Time Stamping
            X509v3 Key Usage: critical
                Digital Signature
            Authority Information Access: 
                OCSP - URI:http://ts-ocsp.ws.symantec.com
                CA Issuers - URI:http://ts-aia.ws.symantec.com/tss-ca-g2.cer

            X509v3 CRL Distribution Points: 

                Full Name:
                  URI:http://ts-crl.ws.symantec.com/tss-ca-g2.crl

            X509v3 Subject Alternative Name: 
                DirName:/CN=TimeStamp-2048-2
            X509v3 Subject Key Identifier: 
                46:C6:69:A3:0E:4A:14:1E:D5:4C:DA:52:63:17:3F:5E:36:BC:0D:E6
            X509v3 Authority Key Identifier: 
                keyid:5F:9A:F5:6E:5C:CC:CC:74:9A:D4:DD:7D:EF:3F:DB:EC:4C:80:2E:DD

    Signature Algorithm: sha1WithRSAEncryption
         78:3b:b4:91:2a:00:4c:f0:8f:62:30:37:78:a3:84:27:07:6f:
         18:b2:de:25:dc:a0:d4:94:03:aa:86:4e:25:9f:9a:40:03:1c:
         dd:ce:e3:79:cb:21:68:06:da:b6:32:b4:6d:bf:f4:2c:26:63:
         33:e4:49:64:6d:0d:e6:c3:67:0e:f7:05:a4:35:6c:7c:89:16:
         c6:e9:b2:df:b2:e9:dd:20:c6:71:0f:cd:95:74:dc:b6:5c:de:
         bd:37:1f:43:78:e6:78:b5:cd:28:04:20:a3:aa:f1:4b:c4:88:
         29:91:0e:80:d1:11:fc:dd:5c:76:6e:4f:5e:0e:45:46:41:6e:
         0d:b0:ea:38:9a:b1:3a:da:09:71:10:fc:1c:79:b4:80:7b:ac:
         69:f4:fd:9c:b6:0c:16:2b:f1:7f:5b:09:3d:9b:5b:e2:16:ca:
         13:81:6d:00:2e:38:0d:a8:29:8f:2c:e1:b2:f4:5a:a9:01:af:
         15:9c:2c:2f:49:1b:db:22:bb:c3:fe:78:94:51:c3:86:b1:82:
         88:5d:f0:3d:b4:51:a1:79:33:2b:2e:7b:b9:dc:20:09:13:71:
         eb:6a:19:5b:cf:e8:a5:30:57:2c:89:49:3f:b9:cf:7f:c9:bf:
         3e:22:68:63:53:9a:bd:69:74:ac:c5:1d:3c:7f:92:e0:c3:bc:
         1c:d8:04:75
-----BEGIN CERTIFICATE-----
MIIEozCCA4ugAwIBAgIQDs/0OMj+vzVuBNhqmBsaUDANBgkqhkiG9w0BAQUFADBe
MQswCQYDVQQGEwJVUzEdMBsGA1UEChMUU3ltYW50ZWMgQ29ycG9yYXRpb24xMDAu
BgNVBAMTJ1N5bWFudGVjIFRpbWUgU3RhbXBpbmcgU2VydmljZXMgQ0EgLSBHMjAe
Fw0xMjEwMTgwMDAwMDBaFw0yMDEyMjkyMzU5NTlaMGIxCzAJBgNVBAYTAlVTMR0w
GwYDVQQKExRTeW1hbnRlYyBDb3Jwb3JhdGlvbjE0MDIGA1UEAxMrU3ltYW50ZWMg
VGltZSBTdGFtcGluZyBTZXJ2aWNlcyBTaWduZXIgLSBHNDCCASIwDQYJKoZIhvcN
AQEBBQADggEPADCCAQoCggEBAKJjCzlEuLsjp0RJuw7/ofBhClOTsJjbrSwPSsVu
/4Y8U1UPFc4EPyv9qZaW2b5heQtbyUyGduXgQ0sile7CK0PBn9hotI5AT+6FOLkR
xSPyZFjwFTJvTlehroikAtcqHs1L4d1j1ReJMluwXplaqJ0oUA4X7pbbYTtFUR3P
ElYLkkf8q672Zj1HrHBy55LnX80QucSDZJQZvSWA4ejSIqXQugJ6oXeTW2XD7hd0
vEGGKtwITIySjJEtnndEH2jWqHR32w5bMotWizO92WPISZ06xcXqMwvS8aMb9Iu+
2bNXizveBKd6IrIkri7HcMW+ToMmCPsLvalPmQjhEChyqs0CAwEAAaOCAVcwggFT
MAwGA1UdEwEB/wQCMAAwFgYDVR0lAQH/BAwwCgYIKwYBBQUHAwgwDgYDVR0PAQH/
BAQDAgeAMHMGCCsGAQUFBwEBBGcwZTAqBggrBgEFBQcwAYYeaHR0cDovL3RzLW9j
c3Aud3Muc3ltYW50ZWMuY29tMDcGCCsGAQUFBzAChitodHRwOi8vdHMtYWlhLndz
LnN5bWFudGVjLmNvbS90c3MtY2EtZzIuY2VyMDwGA1UdHwQ1MDMwMaAvoC2GK2h0
dHA6Ly90cy1jcmwud3Muc3ltYW50ZWMuY29tL3Rzcy1jYS1nMi5jcmwwKAYDVR0R
BCEwH6QdMBsxGTAXBgNVBAMTEFRpbWVTdGFtcC0yMDQ4LTIwHQYDVR0OBBYEFEbG
aaMOShQe1UzaUmMXP142vA3mMB8GA1UdIwQYMBaAFF+a9W5czMx0mtTdfe8/2+xM
gC7dMA0GCSqGSIb3DQEBBQUAA4IBAQB4O7SRKgBM8I9iMDd4o4QnB28Yst4l3KDU
lAOqhk4ln5pAAxzdzuN5yyFoBtq2MrRtv/QsJmMz5ElkbQ3mw2cO9wWkNWx8iRbG
6bLfsundIMZxD82VdNy2XN69Nx9DeOZ4tc0oBCCjqvFLxIgpkQ6A0RH83Vx2bk9e
DkVGQW4NsOo4mrE62glxEPwcebSAe6xp9P2ctgwWK/F/Wwk9m1viFsoTgW0ALjgN
qCmPLOGy9FqpAa8VnCwvSRvbIrvD/niUUcOGsYKIXfA9tFGheTMrLnu53CAJE3Hr
ahlbz+ilMFcsiUk/uc9/yb8+ImhjU5q9aXSsxR08f5Lgw7wc2AR1
-----END CERTIFICATE-----

Certificate:
    Data:
        Version: 3 (0x2)
        Serial Number:
            05:de:39:8f:4a:c5:d0:0e:25:4c:92:95:f3:36:cf:4f
    Signature Algorithm: sha1WithRSAEncryption
        Issuer: C=US, O=DigiCert Inc, OU=www.digicert.com, CN=DigiCert High Assurance Code Signing CA-1
        Validity
            Not Before: Mar 18 00:00:00 2015 GMT
            Not After : Apr 17 12:00:00 2018 GMT
        Subject: C=US, ST=Virginia, L=Fairfax, O=Invincea, Inc., CN=Invincea, Inc.
        Subject Public Key Info:
            Public Key Algorithm: rsaEncryption
                Public-Key: (2048 bit)
                Modulus:
                    00:ab:9f:ce:16:92:b5:d0:e4:9b:d8:f6:96:78:17:
                    b1:4c:af:d6:6a:da:31:69:c0:49:c7:0f:7e:3e:25:
                    fc:3f:8b:59:b2:77:ce:5e:d4:38:02:35:d4:5f:1a:
                    e7:d7:12:48:d3:32:7b:c2:99:c1:7c:88:82:98:a5:
                    8f:a2:cf:a1:d5:d6:cf:15:98:7e:ba:a9:7d:c2:c0:
                    e1:3a:03:15:68:9a:ca:df:b5:3d:bf:ad:e1:48:f7:
                    45:ae:a6:78:69:c6:79:b3:17:ae:ab:d4:7b:eb:17:
                    57:3d:a3:f3:da:ba:21:76:f6:a4:a0:7b:c8:00:21:
                    d2:e0:94:8c:63:39:73:21:48:ad:8b:f7:3f:6c:d6:
                    c0:37:22:6f:95:cb:45:2b:02:2e:b5:eb:3d:15:aa:
                    0f:4b:c2:3e:fc:59:18:4a:cd:c4:9e:0d:51:12:12:
                    b6:2d:d3:ae:0f:9b:c3:5c:fb:e5:07:19:e6:ae:8b:
                    ec:39:b6:af:75:da:a1:9f:c6:df:ef:3d:f0:d7:cc:
                    82:57:c4:d5:06:24:60:21:36:fb:4d:78:c5:51:01:
                    a4:3a:3e:bf:b3:ed:95:34:9e:82:5c:87:a0:eb:cd:
                    70:60:9d:d1:d8:4b:0b:81:b5:6d:7d:66:91:07:26:
                    7e:55:b0:40:22:14:00:d5:5d:1b:bd:2b:15:96:d9:
                    67:d7
                Exponent: 65537 (0x10001)
        X509v3 extensions:
            X509v3 Authority Key Identifier: 
                keyid:97:48:03:EB:15:08:6B:B9:B2:58:23:CC:94:2E:F1:C6:65:D2:64:8E

            X509v3 Subject Key Identifier: 
                95:3C:8B:F1:3E:DC:22:69:F9:AE:42:AF:E8:85:0C:00:43:51:C8:E6
            X509v3 Key Usage: critical
                Digital Signature
            X509v3 Extended Key Usage: 
                Code Signing
            X509v3 CRL Distribution Points: 

                Full Name:
                  URI:http://crl3.digicert.com/ha-cs-2011a.crl

                Full Name:
                  URI:http://crl4.digicert.com/ha-cs-2011a.crl

            X509v3 Certificate Policies: 
                Policy: 2.16.840.1.114412.3.1
                  CPS: https://www.digicert.com/CPS

            Authority Information Access: 
                OCSP - URI:http://ocsp.digicert.com
                CA Issuers - URI:http://cacerts.digicert.com/DigiCertHighAssuranceCodeSigningCA-1.crt

            X509v3 Basic Constraints: critical
                CA:FALSE
    Signature Algorithm: sha1WithRSAEncryption
         43:1c:9f:18:75:48:d1:2c:cb:b2:bd:67:c8:16:7b:c6:a4:ce:
         34:f8:aa:6e:4f:f1:6e:e9:72:9d:01:c7:81:94:f1:d7:1a:91:
         3b:14:c9:1c:03:65:87:c5:7a:4a:08:7b:69:a5:47:30:b0:f7:
         4d:44:58:3b:5e:04:0e:c1:d6:21:33:2a:71:e7:df:9f:87:e0:
         63:ae:12:fe:3a:23:af:74:7a:ab:b3:74:de:72:3e:3f:f8:b1:
         0c:b7:7b:63:37:7c:0b:aa:3e:00:40:00:e9:08:1c:56:10:a7:
         ee:57:0e:d0:be:0b:3d:3c:1e:25:f7:b3:95:3c:2f:9c:87:c2:
         af:5f:5d:94:a3:c6:0b:fe:fa:56:c5:56:9e:94:14:e4:d7:7b:
         10:7d:39:fa:00:e5:45:45:49:5a:89:cc:f1:6f:23:20:3f:2b:
         63:f8:a5:63:8c:a3:50:62:57:df:b0:a9:9a:f0:dd:7b:e7:00:
         e2:b9:8a:6f:87:9a:08:af:67:f1:71:df:b5:ab:8f:35:90:42:
         4f:71:6e:74:74:af:04:3d:5c:80:ef:8d:1a:58:d9:01:53:d3:
         67:6a:d9:a2:65:05:05:3e:f7:51:72:7b:bc:20:7c:70:19:f8:
         17:23:dc:6f:cb:c6:67:65:97:89:c7:a7:99:8f:e8:56:ec:43:
         cb:e0:1b:28
-----BEGIN CERTIFICATE-----
MIIFEjCCA/qgAwIBAgIQBd45j0rF0A4lTJKV8zbPTzANBgkqhkiG9w0BAQUFADBz
MQswCQYDVQQGEwJVUzEVMBMGA1UEChMMRGlnaUNlcnQgSW5jMRkwFwYDVQQLExB3
d3cuZGlnaWNlcnQuY29tMTIwMAYDVQQDEylEaWdpQ2VydCBIaWdoIEFzc3VyYW5j
ZSBDb2RlIFNpZ25pbmcgQ0EtMTAeFw0xNTAzMTgwMDAwMDBaFw0xODA0MTcxMjAw
MDBaMGQxCzAJBgNVBAYTAlVTMREwDwYDVQQIEwhWaXJnaW5pYTEQMA4GA1UEBxMH
RmFpcmZheDEXMBUGA1UEChMOSW52aW5jZWEsIEluYy4xFzAVBgNVBAMTDkludmlu
Y2VhLCBJbmMuMIIBIjANBgkqhkiG9w0BAQEFAAOCAQ8AMIIBCgKCAQEAq5/OFpK1
0OSb2PaWeBexTK/WatoxacBJxw9+PiX8P4tZsnfOXtQ4AjXUXxrn1xJI0zJ7wpnB
fIiCmKWPos+h1dbPFZh+uql9wsDhOgMVaJrK37U9v63hSPdFrqZ4acZ5sxeuq9R7
6xdXPaPz2rohdvakoHvIACHS4JSMYzlzIUiti/c/bNbANyJvlctFKwIutes9FaoP
S8I+/FkYSs3Eng1REhK2LdOuD5vDXPvlBxnmrovsObavddqhn8bf7z3w18yCV8TV
BiRgITb7TXjFUQGkOj6/s+2VNJ6CXIeg681wYJ3R2EsLgbVtfWaRByZ+VbBAIhQA
1V0bvSsVltln1wIDAQABo4IBrzCCAaswHwYDVR0jBBgwFoAUl0gD6xUIa7myWCPM
lC7xxmXSZI4wHQYDVR0OBBYEFJU8i/E+3CJp+a5Cr+iFDABDUcjmMA4GA1UdDwEB
/wQEAwIHgDATBgNVHSUEDDAKBggrBgEFBQcDAzBpBgNVHR8EYjBgMC6gLKAqhiho
dHRwOi8vY3JsMy5kaWdpY2VydC5jb20vaGEtY3MtMjAxMWEuY3JsMC6gLKAqhiho
dHRwOi8vY3JsNC5kaWdpY2VydC5jb20vaGEtY3MtMjAxMWEuY3JsMEIGA1UdIAQ7
MDkwNwYJYIZIAYb9bAMBMCowKAYIKwYBBQUHAgEWHGh0dHBzOi8vd3d3LmRpZ2lj
ZXJ0LmNvbS9DUFMwgYYGCCsGAQUFBwEBBHoweDAkBggrBgEFBQcwAYYYaHR0cDov
L29jc3AuZGlnaWNlcnQuY29tMFAGCCsGAQUFBzAChkRodHRwOi8vY2FjZXJ0cy5k
aWdpY2VydC5jb20vRGlnaUNlcnRIaWdoQXNzdXJhbmNlQ29kZVNpZ25pbmdDQS0x
LmNydDAMBgNVHRMBAf8EAjAAMA0GCSqGSIb3DQEBBQUAA4IBAQBDHJ8YdUjRLMuy
vWfIFnvGpM40+KpuT/Fu6XKdAceBlPHXGpE7FMkcA2WHxXpKCHtppUcwsPdNRFg7
XgQOwdYhMypx59+fh+BjrhL+OiOvdHqrs3Tecj4/+LEMt3tjN3wLqj4AQADpCBxW
EKfuVw7Qvgs9PB4l97OVPC+ch8KvX12Uo8YL/vpWxVaelBTk13sQfTn6AOVFRUla
iczxbyMgPytj+KVjjKNQYlffsKma8N175wDiuYpvh5oIr2fxcd+1q481kEJPcW50
dK8EPVyA740aWNkBU9NnatmiZQUFPvdRcnu8IHxwGfgXI9xvy8ZnZZeJx6eZj+hW
7EPL4Bso
-----END CERTIFICATE-----

Certificate:
    Data:
        Version: 3 (0x2)
        Serial Number:
            61:20:4d:b4:00:00:00:00:00:27
    Signature Algorithm: sha1WithRSAEncryption
        Issuer: C=US, ST=Washington, L=Redmond, O=Microsoft Corporation, CN=Microsoft Code Verification Root
        Validity
            Not Before: Apr 15 19:45:33 2011 GMT
            Not After : Apr 15 19:55:33 2021 GMT
        Subject: C=US, O=DigiCert Inc, OU=www.digicert.com, CN=DigiCert High Assurance EV Root CA
        Subject Public Key Info:
            Public Key Algorithm: rsaEncryption
                Public-Key: (2048 bit)
                Modulus:
                    00:c6:cc:e5:73:e6:fb:d4:bb:e5:2d:2d:32:a6:df:
                    e5:81:3f:c9:cd:25:49:b6:71:2a:c3:d5:94:34:67:
                    a2:0a:1c:b0:5f:69:a6:40:b1:c4:b7:b2:8f:d0:98:
                    a4:a9:41:59:3a:d3:dc:94:d6:3c:db:74:38:a4:4a:
                    cc:4d:25:82:f7:4a:a5:53:12:38:ee:f3:49:6d:71:
                    91:7e:63:b6:ab:a6:5f:c3:a4:84:f8:4f:62:51:be:
                    f8:c5:ec:db:38:92:e3:06:e5:08:91:0c:c4:28:41:
                    55:fb:cb:5a:89:15:7e:71:e8:35:bf:4d:72:09:3d:
                    be:3a:38:50:5b:77:31:1b:8d:b3:c7:24:45:9a:a7:
                    ac:6d:00:14:5a:04:b7:ba:13:eb:51:0a:98:41:41:
                    22:4e:65:61:87:81:41:50:a6:79:5c:89:de:19:4a:
                    57:d5:2e:e6:5d:1c:53:2c:7e:98:cd:1a:06:16:a4:
                    68:73:d0:34:04:13:5c:a1:71:d3:5a:7c:55:db:5e:
                    64:e1:37:87:30:56:04:e5:11:b4:29:80:12:f1:79:
                    39:88:a2:02:11:7c:27:66:b7:88:b7:78:f2:ca:0a:
                    a8:38:ab:0a:64:c2:bf:66:5d:95:84:c1:a1:25:1e:
                    87:5d:1a:50:0b:20:12:cc:41:bb:6e:0b:51:38:b8:
                    4b:cb
                Exponent: 65537 (0x10001)
        X509v3 extensions:
            X509v3 Certificate Policies: 
                Policy: X509v3 Any Policy

            X509v3 Key Usage: 
                Digital Signature, Certificate Sign, CRL Sign
            X509v3 Basic Constraints: critical
                CA:TRUE
            X509v3 Subject Key Identifier: 
                B1:3E:C3:69:03:F8:BF:47:01:D4:98:26:1A:08:02:EF:63:64:2B:C3
            X509v3 Authority Key Identifier: 
                keyid:62:FB:0A:21:5B:7F:43:6E:11:DA:09:54:50:6B:F5:D2:96:71:F1:9E

            X509v3 CRL Distribution Points: 

                Full Name:
                  URI:http://crl.microsoft.com/pki/crl/products/MicrosoftCodeVerifRoot.crl

    Signature Algorithm: sha1WithRSAEncryption
         20:8c:c1:59:ed:6f:9c:6b:2d:c1:4a:3e:75:1d:45:4c:41:50:
         1c:bd:80:ea:d9:b0:92:8b:06:2a:13:3f:53:16:9e:56:39:6a:
         8a:63:b6:78:24:79:f5:7d:b8:b9:47:a1:0a:96:c2:f6:cb:bd:
         a2:66:9f:06:e1:ac:d2:79:09:0e:fd:3c:dc:ac:02:0c:70:af:
         3f:1b:ec:78:7e:d4:eb:4b:05:60:26:d9:73:61:91:21:ed:b0:
         68:63:e0:97:12:ab:6f:a0:12:ed:d9:9f:d2:da:27:3c:b3:e4:
         56:f9:d1:d4:81:0f:71:bd:42:7c:a6:89:dc:cd:d5:bd:95:a2:
         ab:f1:93:11:7d:e8:ac:31:29:a8:5d:66:70:41:9d:fc:75:c9:
         d5:b3:1a:39:2a:d0:85:05:50:8b:ac:91:ca:c4:93:cb:71:a5:
         9d:a4:94:6f:58:0c:fa:6e:20:c4:08:31:b5:85:9d:7e:81:f9:
         d2:3d:ca:5b:18:85:6c:0a:86:ec:22:09:1b:a5:74:34:4f:7f:
         28:bc:95:4a:ab:1d:b6:98:b0:5d:09:a4:77:76:7e:ef:a7:8e:
         5d:84:f6:18:24:cb:d1:6d:a6:c3:a1:9c:c2:10:75:80:ff:9d:
         32:fd:e6:cf:43:3a:82:f7:ce:8f:e1:72:2a:9b:62:b7:5f:ed:
         95:1a:39:5c:2f:94:6d:48:b7:01:5f:33:2f:bb:dc:2d:73:34:
         89:04:42:0a:1c:8b:79:f9:a3:fa:17:ef:fa:a1:1a:10:df:e0:
         b2:c1:95:eb:5c:0c:05:97:3b:35:3e:18:88:4d:db:6c:bf:24:
         89:8d:c8:bd:d8:9f:7b:39:3a:24:a0:d5:df:d1:f3:4a:1a:97:
         f6:a6:6f:7a:1f:b0:90:a9:b3:ac:01:39:91:d3:61:b7:64:f1:
         3e:57:38:03:af:ce:7a:d2:b5:90:f5:ae:dc:39:99:d5:b6:3c:
         97:ed:a6:cb:16:c7:7d:6b:2a:4c:90:94:e6:4c:54:fd:1e:cd:
         20:ec:ce:68:9c:87:58:e9:61:60:be:eb:0e:c9:d5:19:7d:9f:
         e9:78:bd:0e:ac:21:75:07:8f:a9:6e:e0:8c:6a:2a:6b:9c:e3:
         e7:65:bc:bc:2d:3c:6d:dc:04:dc:67:45:36:32:af:04:81:bc:
         a8:00:6e:61:4c:95:c5:5c:d4:8e:8e:9f:2f:c1:32:74:bd:bd:
         11:65:03:07:cd:ef:b7:5e:02:57:da:86:d4:1a:28:34:af:88:
         49:b2:cf:a5:dd:82:56:6f:68:aa:14:e2:59:54:fe:ff:ea:ee:
         ef:ea:92:70:22:60:81:e3:25:23:c0:9f:cc:0f:49:b2:35:aa:
         58:c3:3a:c3:d9:16:94:10
-----BEGIN CERTIFICATE-----
MIIFOzCCAyOgAwIBAgIKYSBNtAAAAAAAJzANBgkqhkiG9w0BAQUFADB/MQswCQYD
VQQGEwJVUzETMBEGA1UECBMKV2FzaGluZ3RvbjEQMA4GA1UEBxMHUmVkbW9uZDEe
MBwGA1UEChMVTWljcm9zb2Z0IENvcnBvcmF0aW9uMSkwJwYDVQQDEyBNaWNyb3Nv
ZnQgQ29kZSBWZXJpZmljYXRpb24gUm9vdDAeFw0xMTA0MTUxOTQ1MzNaFw0yMTA0
MTUxOTU1MzNaMGwxCzAJBgNVBAYTAlVTMRUwEwYDVQQKEwxEaWdpQ2VydCBJbmMx
GTAXBgNVBAsTEHd3dy5kaWdpY2VydC5jb20xKzApBgNVBAMTIkRpZ2lDZXJ0IEhp
Z2ggQXNzdXJhbmNlIEVWIFJvb3QgQ0EwggEiMA0GCSqGSIb3DQEBAQUAA4IBDwAw
ggEKAoIBAQDGzOVz5vvUu+UtLTKm3+WBP8nNJUm2cSrD1ZQ0Z6IKHLBfaaZAscS3
so/QmKSpQVk609yU1jzbdDikSsxNJYL3SqVTEjju80ltcZF+Y7arpl/DpIT4T2JR
vvjF7Ns4kuMG5QiRDMQoQVX7y1qJFX5x6DW/TXIJPb46OFBbdzEbjbPHJEWap6xt
ABRaBLe6E+tRCphBQSJOZWGHgUFQpnlcid4ZSlfVLuZdHFMsfpjNGgYWpGhz0DQE
E1yhcdNafFXbXmThN4cwVgTlEbQpgBLxeTmIogIRfCdmt4i3ePLKCqg4qwpkwr9m
XZWEwaElHoddGlALIBLMQbtuC1E4uEvLAgMBAAGjgcswgcgwEQYDVR0gBAowCDAG
BgRVHSAAMAsGA1UdDwQEAwIBhjAPBgNVHRMBAf8EBTADAQH/MB0GA1UdDgQWBBSx
PsNpA/i/RwHUmCYaCALvY2QrwzAfBgNVHSMEGDAWgBRi+wohW39DbhHaCVRQa/XS
lnHxnjBVBgNVHR8ETjBMMEqgSKBGhkRodHRwOi8vY3JsLm1pY3Jvc29mdC5jb20v
cGtpL2NybC9wcm9kdWN0cy9NaWNyb3NvZnRDb2RlVmVyaWZSb290LmNybDANBgkq
hkiG9w0BAQUFAAOCAgEAIIzBWe1vnGstwUo+dR1FTEFQHL2A6tmwkosGKhM/Uxae
VjlqimO2eCR59X24uUehCpbC9su9omafBuGs0nkJDv083KwCDHCvPxvseH7U60sF
YCbZc2GRIe2waGPglxKrb6AS7dmf0tonPLPkVvnR1IEPcb1CfKaJ3M3VvZWiq/GT
EX3orDEpqF1mcEGd/HXJ1bMaOSrQhQVQi6yRysSTy3GlnaSUb1gM+m4gxAgxtYWd
foH50j3KWxiFbAqG7CIJG6V0NE9/KLyVSqsdtpiwXQmkd3Z+76eOXYT2GCTL0W2m
w6GcwhB1gP+dMv3mz0M6gvfOj+FyKptit1/tlRo5XC+UbUi3AV8zL7vcLXM0iQRC
ChyLefmj+hfv+qEaEN/gssGV61wMBZc7NT4YiE3bbL8kiY3Ivdifezk6JKDV39Hz
ShqX9qZveh+wkKmzrAE5kdNht2TxPlc4A6/OetK1kPWu3DmZ1bY8l+2myxbHfWsq
TJCU5kxU/R7NIOzOaJyHWOlhYL7rDsnVGX2f6Xi9DqwhdQePqW7gjGoqa5zj52W8
vC08bdwE3GdFNjKvBIG8qABuYUyVxVzUjo6fL8EydL29EWUDB83vt14CV9qG1Boo
NK+ISbLPpd2CVm9oqhTiWVT+/+ru7+qScCJggeMlI8CfzA9JsjWqWMM6w9kWlBA=
-----END CERTIFICATE-----

Certificate:
    Data:
        Version: 3 (0x2)
        Serial Number:
            02:c4:d1:e5:8a:4a:68:0c:56:8d:a3:04:7e:7e:4d:5f
    Signature Algorithm: sha1WithRSAEncryption
        Issuer: C=US, O=DigiCert Inc, OU=www.digicert.com, CN=DigiCert High Assurance EV Root CA
        Validity
            Not Before: Feb 11 12:00:00 2011 GMT
            Not After : Feb 10 12:00:00 2026 GMT
        Subject: C=US, O=DigiCert Inc, OU=www.digicert.com, CN=DigiCert High Assurance Code Signing CA-1
        Subject Public Key Info:
            Public Key Algorithm: rsaEncryption
                Public-Key: (2048 bit)
                Modulus:
                    00:c5:f9:23:e6:94:27:c4:80:14:a4:80:32:5f:40:
                    a3:8d:6f:70:c0:e5:36:71:71:3a:75:a4:aa:1a:92:
                    94:89:5e:ac:23:71:cb:4e:67:7d:41:3f:aa:e3:4b:
                    b7:7b:be:9d:c1:a8:38:8f:69:2f:3a:24:e9:77:59:
                    12:c7:66:04:43:c2:0d:26:82:89:40:19:f2:2c:ea:
                    e7:4c:e7:7c:05:1a:b8:ff:88:09:4f:26:37:ef:3a:
                    a4:fa:22:6c:88:c9:4a:1b:61:f2:ae:10:5e:6f:bc:
                    d1:79:9b:59:18:60:e5:ee:29:b5:03:2a:a4:ce:f1:
                    83:19:4f:69:05:73:28:09:fb:22:10:93:22:a0:90:
                    19:1a:4c:31:f2:d3:2b:d8:84:43:af:3c:63:ff:98:
                    db:20:d2:09:2b:54:c1:ea:fd:6a:83:e7:10:a3:12:
                    71:f5:d6:d7:e1:12:7a:d5:e0:56:5a:ce:ea:01:5b:
                    68:65:5b:c1:3f:58:52:33:a9:35:61:4e:22:cb:81:
                    ca:36:a3:12:cb:06:d6:cf:1b:4d:18:7e:b9:92:b9:
                    12:cf:40:26:d8:9a:36:85:b3:15:aa:47:93:84:6b:
                    07:bb:bc:d5:b3:de:25:00:11:89:00:68:c1:29:3c:
                    ea:3e:2d:ee:50:ab:d7:1c:30:06:78:3c:a5:10:23:
                    67:91
                Exponent: 65537 (0x10001)
        X509v3 extensions:
            X509v3 Key Usage: critical
                Digital Signature, Certificate Sign, CRL Sign
            X509v3 Extended Key Usage: 
                Code Signing
            X509v3 Certificate Policies: 
                Policy: 2.16.840.1.114412.3
                  CPS: http://www.digicert.com/ssl-cps-repository.htm
                  User Notice:
                    Explicit Text: 

            X509v3 Basic Constraints: critical
                CA:TRUE, pathlen:0
            Authority Information Access: 
                OCSP - URI:http://ocsp.digicert.com
                CA Issuers - URI:http://cacerts.digicert.com/DigiCertHighAssuranceEVRootCA.crt

            X509v3 CRL Distribution Points: 

                Full Name:
                  URI:http://crl3.digicert.com/DigiCertHighAssuranceEVRootCA.crl

                Full Name:
                  URI:http://crl4.digicert.com/DigiCertHighAssuranceEVRootCA.crl

            X509v3 Subject Key Identifier: 
                97:48:03:EB:15:08:6B:B9:B2:58:23:CC:94:2E:F1:C6:65:D2:64:8E
            X509v3 Authority Key Identifier: 
                keyid:B1:3E:C3:69:03:F8:BF:47:01:D4:98:26:1A:08:02:EF:63:64:2B:C3

    Signature Algorithm: sha1WithRSAEncryption
         49:eb:7c:60:be:ae:ef:c9:7c:b3:c5:ba:4b:64:df:16:69:e2:
         86:fa:29:d9:de:98:85:7d:40:66:26:33:2f:44:55:aa:aa:90:
         e9:35:70:0a:34:be:d3:ae:54:2e:8e:65:00:d6:7a:32:20:3e:
         6c:26:b8:98:a9:39:b1:bc:95:c7:aa:e9:f5:ee:46:66:c6:b3:
         e8:12:f8:b3:97:9d:ff:74:58:82:34:99:75:50:ac:44:8f:e8:
         92:ce:7d:8b:0f:31:96:c7:dc:d3:11:30:98:74:16:c6:e5:6b:
         45:76:a3:94:01:cd:33:00:7a:48:f6:6f:86:31:c9:56:2b:33:
         22:d5:f8:01:b6:44:ce:8c:b4:ca:88:d2:e4:16:e3:e7:f6:e2:
         3e:e1:09:c0:9d:79:43:43:7f:55:5c:05:ad:93:10:c6:2c:0d:
         6b:c0:9e:ea:78:e5:d2:77:d6:b8:da:9a:98:7f:ba:4c:92:2b:
         9d:bd:a4:88:b1:dd:af:c3:4c:d2:97:9b:03:c6:ae:5f:1b:44:
         0f:33:37:15:e3:cb:ff:2f:56:d3:16:a4:5b:55:67:9d:a2:ca:
         db:34:6c:0c:73:4a:b5:7b:a4:b6:b3:e9:35:02:78:70:ec:00:
         7a:cb:fc:4b:4f:22:36:bb:14:84:c9:8f:91:dd:0f:3c:75:8c:
         ca:0b:88:e7
-----BEGIN CERTIFICATE-----
MIIGwjCCBaqgAwIBAgIQAsTR5YpKaAxWjaMEfn5NXzANBgkqhkiG9w0BAQUFADBs
MQswCQYDVQQGEwJVUzEVMBMGA1UEChMMRGlnaUNlcnQgSW5jMRkwFwYDVQQLExB3
d3cuZGlnaWNlcnQuY29tMSswKQYDVQQDEyJEaWdpQ2VydCBIaWdoIEFzc3VyYW5j
ZSBFViBSb290IENBMB4XDTExMDIxMTEyMDAwMFoXDTI2MDIxMDEyMDAwMFowczEL
MAkGA1UEBhMCVVMxFTATBgNVBAoTDERpZ2lDZXJ0IEluYzEZMBcGA1UECxMQd3d3
LmRpZ2ljZXJ0LmNvbTEyMDAGA1UEAxMpRGlnaUNlcnQgSGlnaCBBc3N1cmFuY2Ug
Q29kZSBTaWduaW5nIENBLTEwggEiMA0GCSqGSIb3DQEBAQUAA4IBDwAwggEKAoIB
AQDF+SPmlCfEgBSkgDJfQKONb3DA5TZxcTp1pKoakpSJXqwjcctOZ31BP6rjS7d7
vp3BqDiPaS86JOl3WRLHZgRDwg0mgolAGfIs6udM53wFGrj/iAlPJjfvOqT6ImyI
yUobYfKuEF5vvNF5m1kYYOXuKbUDKqTO8YMZT2kFcygJ+yIQkyKgkBkaTDHy0yvY
hEOvPGP/mNsg0gkrVMHq/WqD5xCjEnH11tfhEnrV4FZazuoBW2hlW8E/WFIzqTVh
TiLLgco2oxLLBtbPG00YfrmSuRLPQCbYmjaFsxWqR5OEawe7vNWz3iUAEYkAaMEp
POo+Le5Qq9ccMAZ4PKUQI2eRAgMBAAGjggNXMIIDUzAOBgNVHQ8BAf8EBAMCAYYw
EwYDVR0lBAwwCgYIKwYBBQUHAwMwggHDBgNVHSAEggG6MIIBtjCCAbIGCGCGSAGG
/WwDMIIBpDA6BggrBgEFBQcCARYuaHR0cDovL3d3dy5kaWdpY2VydC5jb20vc3Ns
LWNwcy1yZXBvc2l0b3J5Lmh0bTCCAWQGCCsGAQUFBwICMIIBVh6CAVIAQQBuAHkA
IAB1AHMAZQAgAG8AZgAgAHQAaABpAHMAIABDAGUAcgB0AGkAZgBpAGMAYQB0AGUA
IABjAG8AbgBzAHQAaQB0AHUAdABlAHMAIABhAGMAYwBlAHAAdABhAG4AYwBlACAA
bwBmACAAdABoAGUAIABEAGkAZwBpAEMAZQByAHQAIABDAFAALwBDAFAAUwAgAGEA
bgBkACAAdABoAGUAIABSAGUAbAB5AGkAbgBnACAAUABhAHIAdAB5ACAAQQBnAHIA
ZQBlAG0AZQBuAHQAIAB3AGgAaQBjAGgAIABsAGkAbQBpAHQAIABsAGkAYQBiAGkA
bABpAHQAeQAgAGEAbgBkACAAYQByAGUAIABpAG4AYwBvAHIAcABvAHIAYQB0AGUA
ZAAgAGgAZQByAGUAaQBuACAAYgB5ACAAcgBlAGYAZQByAGUAbgBjAGUALjASBgNV
HRMBAf8ECDAGAQH/AgEAMH8GCCsGAQUFBwEBBHMwcTAkBggrBgEFBQcwAYYYaHR0
cDovL29jc3AuZGlnaWNlcnQuY29tMEkGCCsGAQUFBzAChj1odHRwOi8vY2FjZXJ0
cy5kaWdpY2VydC5jb20vRGlnaUNlcnRIaWdoQXNzdXJhbmNlRVZSb290Q0EuY3J0
MIGPBgNVHR8EgYcwgYQwQKA+oDyGOmh0dHA6Ly9jcmwzLmRpZ2ljZXJ0LmNvbS9E
aWdpQ2VydEhpZ2hBc3N1cmFuY2VFVlJvb3RDQS5jcmwwQKA+oDyGOmh0dHA6Ly9j
cmw0LmRpZ2ljZXJ0LmNvbS9EaWdpQ2VydEhpZ2hBc3N1cmFuY2VFVlJvb3RDQS5j
cmwwHQYDVR0OBBYEFJdIA+sVCGu5slgjzJQu8cZl0mSOMB8GA1UdIwQYMBaAFLE+
w2kD+L9HAdSYJhoIAu9jZCvDMA0GCSqGSIb3DQEBBQUAA4IBAQBJ63xgvq7vyXyz
xbpLZN8WaeKG+inZ3piFfUBmJjMvRFWqqpDpNXAKNL7TrlQujmUA1noyID5sJriY
qTmxvJXHqun17kZmxrPoEvizl53/dFiCNJl1UKxEj+iSzn2LDzGWx9zTETCYdBbG
5WtFdqOUAc0zAHpI9m+GMclWKzMi1fgBtkTOjLTKiNLkFuPn9uI+4QnAnXlDQ39V
XAWtkxDGLA1rwJ7qeOXSd9a42pqYf7pMkiudvaSIsd2vw0zSl5sDxq5fG0QPMzcV
48v/L1bTFqRbVWedosrbNGwMc0q1e6S2s+k1Anhw7AB6y/xLTyI2uxSEyY+R3Q88
dYzKC4jn
-----END CERTIFICATE-----

