Certificate:
    Data:
        Version: 3 (0x2)
        Serial Number:
             (Negative)27:37:89:89:dd:16:b0:5a:ee:2c:c4:48:c7:0c:ed:70
    Signature Algorithm: md5WithRSAEncryption
        Issuer: CN=Root SGC Authority
        Validity
            Not Before: Jul 16 19:47:05 1999 GMT
            Not After : Jul 16 19:47:04 2004 GMT
        Subject: C=ZA, ST=Western Cape, L=Cape Town, O=Thawte Consulting cc, OU=Certification Services Division, CN=Thawte Premium Server CA/emailAddress=premium-server@thawte.com
        Subject Public Key Info:
            Public Key Algorithm: rsaEncryption
                Public-Key: (1024 bit)
                Modulus:
                    00:d2:36:36:6a:8b:d7:c2:5b:9e:da:81:41:62:8f:
                    38:ee:49:04:55:d6:d0:ef:1c:1b:95:16:47:ef:18:
                    48:35:3a:52:f4:2b:6a:06:8f:3b:2f:ea:56:e3:af:
                    86:8d:9e:17:f7:9e:b4:65:75:02:4d:ef:cb:09:a2:
                    21:51:d8:9b:d0:67:d0:ba:0d:92:06:14:73:d4:93:
                    cb:97:2a:00:9c:5c:4e:0c:bc:fa:15:52:fc:f2:44:
                    6e:da:11:4a:6e:08:9f:2f:2d:e3:f9:aa:3a:86:73:
                    b6:46:53:58:c8:89:05:bd:83:11:b8:73:3f:aa:07:
                    8d:f4:42:4d:e7:40:9d:1c:37
                Exponent: 65537 (0x10001)
        X509v3 extensions:
            2.5.29.10: 
                0.....
            X509v3 Extended Key Usage: 
                Microsoft Server Gated Crypto, Netscape Server Gated Crypto
            2.5.29.1: 
                0?..')..*..wX5G.-....0.1.0...U....Root SGC Authority.
 .....{.t.
    Signature Algorithm: md5WithRSAEncryption
         b6:98:c6:2c:50:97:b8:ff:20:d5:5c:35:68:6e:e5:ce:73:6e:
         de:5f:e4:e4:82:c4:67:fd:26:16:f1:7a:c5:6c:d5:e1:af:fb:
         1c:05:10:90:fe:99:48:ca:dd:2a:8f:d6:a0:eb:2c:02:4b:f1:
         5f:86:ce:5b:fa:9c:38:f1:27:9c:01:a6:e5:6d:13:c0:56:0b:
         f0:f1:3c:4a:d0:29:c3:9f:d7:91:3f:19:60:4e:51:54:19:35:
         a6:af:63:3d:d7:8a:45:2e:ec:31:6f:46:57:3d:ce:35:f1:7f:
         66:ae:08:7e:a3:37:4b:c6:a6:dd:20:39:c0:e1:7f:fa:32:7f:
         d8:ea:1e:a1:b5:77:f1:a1:7b:9f:ab:f1:12:6a:c8:b9:64:8a:
         d2:1a:4b:49:45:ed:39:3b:dd:c7:53:ce:a3:69:6d:e7:e1:e3:
         d5:d9:c5:b5:d4:d1:61:30:db:a2:0d:b0:3b:89:d5:0e:da:c3:
         f7:85:7a:74:e7:c0:29:71:6d:d0:d5:f0:a3:ff:5d:ef:29:5e:
         9d:5d:5c:56:0d:f8:25:23:06:34:c9:56:02:92:f0:a6:c4:4f:
         08:ce:b1:da:96:d8:c5:c8:94:92:d6:ae:93:07:61:ac:13:b6:
         f2:c4:9b:45:ab:42:c1:7c:c6:6c:64:9a:49:82:02:d1:3d:bc:
         bc:40:39:2e
-----BEGIN CERTIFICATE-----
MIIDbzCCAlegAwIBAgIQ2Mh2diLpT6UR0zu3OPMSkDANBgkqhkiG9w0BAQQFADAd
MRswGQYDVQQDExJSb290IFNHQyBBdXRob3JpdHkwHhcNOTkwNzE2MTk0NzA1WhcN
MDQwNzE2MTk0NzA0WjCBzjELMAkGA1UEBhMCWkExFTATBgNVBAgTDFdlc3Rlcm4g
Q2FwZTESMBAGA1UEBxMJQ2FwZSBUb3duMR0wGwYDVQQKExRUaGF3dGUgQ29uc3Vs
dGluZyBjYzEoMCYGA1UECxMfQ2VydGlmaWNhdGlvbiBTZXJ2aWNlcyBEaXZpc2lv
bjEhMB8GA1UEAxMYVGhhd3RlIFByZW1pdW0gU2VydmVyIENBMSgwJgYJKoZIhvcN
AQkBFhlwcmVtaXVtLXNlcnZlckB0aGF3dGUuY29tMIGfMA0GCSqGSIb3DQEBAQUA
A4GNADCBiQKBgQDSNjZqi9fCW57agUFijzjuSQRV1tDvHBuVFkfvGEg1OlL0K2oG
jzsv6lbjr4aNnhf3nrRldQJN78sJoiFR2JvQZ9C6DZIGFHPUk8uXKgCcXE4MvPoV
UvzyRG7aEUpuCJ8vLeP5qjqGc7ZGU1jIiQW9gxG4cz+qB430Qk3nQJ0cNwIDAQAB
o30wezANBgNVHQoEBjAEAwIHgDAgBgNVHSUEGTAXBgorBgEEAYI3CgMDBglghkgB
hvhCBAEwSAYDVR0BBEEwP4AQDScp5AUql7R3WDVHky0GuKEfMB0xGzAZBgNVBAMT
ElJvb3QgU0dDIEF1dGhvcml0eYIKIJ0R0Q5/e4V0gDANBgkqhkiG9w0BAQQFAAOC
AQEAtpjGLFCXuP8g1Vw1aG7lznNu3l/k5ILEZ/0mFvF6xWzV4a/7HAUQkP6ZSMrd
Ko/WoOssAkvxX4bOW/qcOPEnnAGm5W0TwFYL8PE8StApw5/XkT8ZYE5RVBk1pq9j
PdeKRS7sMW9GVz3ONfF/Zq4IfqM3S8am3SA5wOF/+jJ/2OoeobV38aF7n6vxEmrI
uWSK0hpLSUXtOTvdx1POo2lt5+Hj1dnFtdTRYTDbog2wO4nVDtrD94V6dOfAKXFt
0NXwo/9d7ylenV1cVg34JSMGNMlWApLwpsRPCM6x2pbYxciUktaukwdhrBO28sSb
RatCwXzGbGSaSYIC0T28vEA5Lg==
-----END CERTIFICATE-----

Certificate:
    Data:
        Version: 3 (0x2)
        Serial Number:
            7e:93:eb:fb:7c:c6:4e:59:ea:4b:9a:77:d4:06:fc:3b
    Signature Algorithm: sha1WithRSAEncryption
        Issuer: C=ZA, ST=Western Cape, L=Durbanville, O=Thawte, OU=Thawte Certification, CN=Thawte Timestamping CA
        Validity
            Not Before: Dec 21 00:00:00 2012 GMT
            Not After : Dec 30 23:59:59 2020 GMT
        Subject: C=US, O=Symantec Corporation, CN=Symantec Time Stamping Services CA - G2
        Subject Public Key Info:
            Public Key Algorithm: rsaEncryption
                Public-Key: (2048 bit)
                Modulus:
                    00:b1:ac:b3:49:54:4b:97:1c:12:0a:d8:25:79:91:
                    22:57:2a:6f:dc:b8:26:c4:43:73:6b:c2:bf:2e:50:
                    5a:fb:14:c2:76:8e:43:01:25:43:b4:a1:e2:45:f4:
                    e8:b7:7b:c3:74:cc:22:d7:b4:94:00:02:f7:4d:ed:
                    bf:b4:b7:44:24:6b:cd:5f:45:3b:d1:44:ce:43:12:
                    73:17:82:8b:69:b4:2b:cb:99:1e:ac:72:1b:26:4d:
                    71:1f:b1:31:dd:fb:51:61:02:53:a6:aa:f5:49:2c:
                    05:78:45:a5:2f:89:ce:e7:99:e7:fe:8c:e2:57:3f:
                    3d:c6:92:dc:4a:f8:7b:33:e4:79:0a:fb:f0:75:88:
                    41:9c:ff:c5:03:51:99:aa:d7:6c:9f:93:69:87:65:
                    29:83:85:c2:60:14:c4:c8:c9:3b:14:da:c0:81:f0:
                    1f:0d:74:de:92:22:ab:ca:f7:fb:74:7c:27:e6:f7:
                    4a:1b:7f:a7:c3:9e:2d:ae:8a:ea:a6:e6:aa:27:16:
                    7d:61:f7:98:71:11:bc:e2:50:a1:4b:e5:5d:fa:e5:
                    0e:a7:2c:9f:aa:65:20:d3:d8:96:e8:c8:7c:a5:4e:
                    48:44:ff:19:e2:44:07:92:0b:d7:68:84:80:5d:6a:
                    78:64:45:cd:60:46:7e:54:c1:13:7c:c5:79:f1:c9:
                    c1:71
                Exponent: 65537 (0x10001)
        X509v3 extensions:
            X509v3 Subject Key Identifier: 
                5F:9A:F5:6E:5C:CC:CC:74:9A:D4:DD:7D:EF:3F:DB:EC:4C:80:2E:DD
            Authority Information Access: 
                OCSP - URI:http://ocsp.thawte.com

            X509v3 Basic Constraints: critical
                CA:TRUE, pathlen:0
            X509v3 CRL Distribution Points: 

                Full Name:
                  URI:http://crl.thawte.com/ThawteTimestampingCA.crl

            X509v3 Extended Key Usage: 
                Time Stamping
            X509v3 Key Usage: critical
                Certificate Sign, CRL Sign
            X509v3 Subject Alternative Name: 
                DirName:/CN=TimeStamp-2048-1
    Signature Algorithm: sha1WithRSAEncryption
         03:09:9b:8f:79:ef:7f:59:30:aa:ef:68:b5:fa:e3:09:1d:bb:
         4f:82:06:5d:37:5f:a6:52:9f:16:8d:ea:1c:92:09:44:6e:f5:
         6d:eb:58:7c:30:e8:f9:69:8d:23:73:0b:12:6f:47:a9:ae:39:
         11:f8:2a:b1:9b:b0:1a:c3:8e:eb:59:96:00:ad:ce:0c:4d:b2:
         d0:31:a6:08:5c:2a:7a:fc:e2:7a:1d:57:4c:a8:65:18:e9:79:
         40:62:25:96:6e:c7:c7:37:6a:83:21:08:8e:41:ea:dd:d9:57:
         3f:1d:77:49:87:2a:16:06:5e:a6:38:6a:22:12:a3:51:19:83:
         7e:b6
-----BEGIN CERTIFICATE-----
MIID7jCCA1egAwIBAgIQfpPr+3zGTlnqS5p31Ab8OzANBgkqhkiG9w0BAQUFADCB
izELMAkGA1UEBhMCWkExFTATBgNVBAgTDFdlc3Rlcm4gQ2FwZTEUMBIGA1UEBxML
RHVyYmFudmlsbGUxDzANBgNVBAoTBlRoYXd0ZTEdMBsGA1UECxMUVGhhd3RlIENl
cnRpZmljYXRpb24xHzAdBgNVBAMTFlRoYXd0ZSBUaW1lc3RhbXBpbmcgQ0EwHhcN
MTIxMjIxMDAwMDAwWhcNMjAxMjMwMjM1OTU5WjBeMQswCQYDVQQGEwJVUzEdMBsG
A1UEChMUU3ltYW50ZWMgQ29ycG9yYXRpb24xMDAuBgNVBAMTJ1N5bWFudGVjIFRp
bWUgU3RhbXBpbmcgU2VydmljZXMgQ0EgLSBHMjCCASIwDQYJKoZIhvcNAQEBBQAD
ggEPADCCAQoCggEBALGss0lUS5ccEgrYJXmRIlcqb9y4JsRDc2vCvy5QWvsUwnaO
QwElQ7Sh4kX06Ld7w3TMIte0lAAC903tv7S3RCRrzV9FO9FEzkMScxeCi2m0K8uZ
HqxyGyZNcR+xMd37UWECU6aq9UksBXhFpS+JzueZ5/6M4lc/PcaS3Er4ezPkeQr7
8HWIQZz/xQNRmarXbJ+TaYdlKYOFwmAUxMjJOxTawIHwHw103pIiq8r3+3R8J+b3
Sht/p8OeLa6K6qbmqicWfWH3mHERvOJQoUvlXfrlDqcsn6plINPYlujIfKVOSET/
GeJEB5IL12iEgF1qeGRFzWBGflTBE3zFefHJwXECAwEAAaOB+jCB9zAdBgNVHQ4E
FgQUX5r1blzMzHSa1N197z/b7EyALt0wMgYIKwYBBQUHAQEEJjAkMCIGCCsGAQUF
BzABhhZodHRwOi8vb2NzcC50aGF3dGUuY29tMBIGA1UdEwEB/wQIMAYBAf8CAQAw
PwYDVR0fBDgwNjA0oDKgMIYuaHR0cDovL2NybC50aGF3dGUuY29tL1RoYXd0ZVRp
bWVzdGFtcGluZ0NBLmNybDATBgNVHSUEDDAKBggrBgEFBQcDCDAOBgNVHQ8BAf8E
BAMCAQYwKAYDVR0RBCEwH6QdMBsxGTAXBgNVBAMTEFRpbWVTdGFtcC0yMDQ4LTEw
DQYJKoZIhvcNAQEFBQADgYEAAwmbj3nvf1kwqu9otfrjCR27T4IGXTdfplKfFo3q
HJIJRG71betYfDDo+WmNI3MLEm9Hqa45EfgqsZuwGsOO61mWAK3ODE2y0DGmCFwq
evzieh1XTKhlGOl5QGIllm7HxzdqgyEIjkHq3dlXPx13SYcqFgZepjhqIhKjURmD
frY=
-----END CERTIFICATE-----

Certificate:
    Data:
        Version: 3 (0x2)
        Serial Number:
            0d:d1:fa:9b:80:33:dd:67:5d:1e:91:3f:05:8b:f0:19
    Signature Algorithm: sha1WithRSAEncryption
        Issuer: C=US, O=Thawte, Inc., CN=Thawte Code Signing CA - G2
        Validity
            Not Before: Jul 24 00:00:00 2012 GMT
            Not After : Jul 24 23:59:59 2014 GMT
        Subject: C=CN, ST=\xE5\xB9\xBF\xE4\xB8\x9C\xE7\x9C\x81, L=\xE6\xB7\xB1\xE5\x9C\xB3\xE5\xB8\x82, O=Kvisoft Co., Ltd., CN=Kvisoft Co., Ltd.
        Subject Public Key Info:
            Public Key Algorithm: rsaEncryption
                Public-Key: (2048 bit)
                Modulus:
                    00:b9:09:18:04:bf:5a:92:7e:91:4c:17:ab:e4:c6:
                    f9:e4:86:4e:f9:94:fb:e0:59:0a:3c:eb:03:1c:4f:
                    3a:00:90:65:f9:bc:ca:c0:f0:6c:40:66:25:a6:9b:
                    66:f0:46:62:d7:18:c8:07:00:38:81:7c:d5:14:fc:
                    b0:21:37:a6:31:54:f4:7b:c9:97:73:dc:7a:3a:cc:
                    6d:71:5d:bd:71:e5:e0:4e:d5:80:1a:f0:de:b3:6b:
                    a4:f9:f7:dc:08:df:18:bc:e1:73:f1:47:89:9a:3c:
                    99:26:b2:8b:20:fa:90:15:ab:af:70:d5:62:a1:04:
                    46:05:cd:09:42:12:21:b6:0a:e8:57:72:c4:9e:a1:
                    6a:91:b8:54:5d:38:8d:49:19:3f:cf:73:a4:58:f2:
                    23:fd:8b:16:9f:c7:86:f0:f6:b8:b7:30:66:c2:bf:
                    97:e4:b5:79:d0:2a:fb:8f:e6:04:c7:64:34:36:d1:
                    89:ea:f1:c8:ce:c5:b3:04:95:c2:be:54:74:76:05:
                    05:dd:6f:80:1b:2d:68:1a:8d:19:e3:b8:95:d7:87:
                    30:a4:c4:ed:1c:b4:7b:39:9f:4a:f4:46:eb:04:34:
                    9b:df:9c:7b:fa:5f:8d:64:c4:d9:51:bd:c1:c9:08:
                    98:e7:1f:1b:5d:dc:a6:ab:df:3c:4f:69:b9:fb:3f:
                    05:f5
                Exponent: 65537 (0x10001)
        X509v3 extensions:
            X509v3 Basic Constraints: critical
                CA:FALSE
            X509v3 CRL Distribution Points: 

                Full Name:
                  URI:http://cs-g2-crl.thawte.com/ThawteCSG2.crl

            X509v3 Extended Key Usage: 
                Code Signing, Microsoft Commercial Code Signing
            2.5.29.4: 
                0.0.0..
+.....7.......
            Authority Information Access: 
                OCSP - URI:http://ocsp.thawte.com

            Netscape Cert Type: 
                Object Signing
    Signature Algorithm: sha1WithRSAEncryption
         23:70:21:bc:32:56:5c:ba:70:66:a9:0b:7a:ff:e8:be:a5:fd:
         32:83:d7:55:e0:cd:4a:58:74:c7:5f:67:93:db:63:67:50:a6:
         a3:e9:d4:94:f1:fc:53:2d:33:4b:93:01:05:ce:5d:f2:6e:62:
         fe:a3:16:83:7c:89:b6:fc:38:69:16:51:b8:30:f6:72:5f:8c:
         aa:02:4f:9d:05:3e:32:4d:c4:89:89:f4:8d:55:da:d5:50:d2:
         b1:81:82:e0:9e:9f:42:74:d5:2e:ac:28:ab:32:71:fb:ad:04:
         23:ad:b6:6b:a0:7e:58:15:ec:ab:72:6f:ff:58:41:6e:1b:e9:
         ac:c7:f8:d4:8f:00:0d:8f:93:70:ed:67:ab:38:a2:3a:b9:f6:
         af:b4:49:53:2e:d7:4b:64:e5:f9:af:a6:35:11:31:8c:aa:a5:
         cf:5d:a2:ac:8b:3e:cc:11:01:22:16:04:77:da:e0:ea:93:8c:
         a2:1b:18:fc:a9:cf:53:1b:15:81:ff:6c:d6:d1:51:f7:4a:f7:
         e4:6c:b8:37:8a:05:93:65:b8:88:e3:77:02:d9:55:7e:18:20:
         b8:77:ef:a8:34:a7:74:b2:06:4d:26:18:1c:e5:80:5e:19:43:
         ab:fd:27:ce:cf:48:e3:4d:74:8e:6f:91:cd:f2:a0:90:90:27:
         76:3c:12:ee
-----BEGIN CERTIFICATE-----
MIIEFzCCAv+gAwIBAgIQDdH6m4Az3WddHpE/BYvwGTANBgkqhkiG9w0BAQUFADBK
MQswCQYDVQQGEwJVUzEVMBMGA1UEChMMVGhhd3RlLCBJbmMuMSQwIgYDVQQDExtU
aGF3dGUgQ29kZSBTaWduaW5nIENBIC0gRzIwHhcNMTIwNzI0MDAwMDAwWhcNMTQw
NzI0MjM1OTU5WjBtMQswCQYDVQQGEwJDTjESMBAGA1UECAwJ5bm/5Lic55yBMRIw
EAYDVQQHDAnmt7HlnLPluIIxGjAYBgNVBAoMEUt2aXNvZnQgQ28uLCBMdGQuMRow
GAYDVQQDDBFLdmlzb2Z0IENvLiwgTHRkLjCCASIwDQYJKoZIhvcNAQEBBQADggEP
ADCCAQoCggEBALkJGAS/WpJ+kUwXq+TG+eSGTvmU++BZCjzrAxxPOgCQZfm8ysDw
bEBmJaabZvBGYtcYyAcAOIF81RT8sCE3pjFU9HvJl3PcejrMbXFdvXHl4E7VgBrw
3rNrpPn33AjfGLzhc/FHiZo8mSayiyD6kBWrr3DVYqEERgXNCUISIbYK6FdyxJ6h
apG4VF04jUkZP89zpFjyI/2LFp/HhvD2uLcwZsK/l+S1edAq+4/mBMdkNDbRierx
yM7FswSVwr5UdHYFBd1vgBstaBqNGeO4ldeHMKTE7Ry0ezmfSvRG6wQ0m9+ce/pf
jWTE2VG9wckImOcfG13cpqvfPE9pufs/BfUCAwEAAaOB1TCB0jAMBgNVHRMBAf8E
AjAAMDsGA1UdHwQ0MDIwMKAuoCyGKmh0dHA6Ly9jcy1nMi1jcmwudGhhd3RlLmNv
bS9UaGF3dGVDU0cyLmNybDAfBgNVHSUEGDAWBggrBgEFBQcDAwYKKwYBBAGCNwIB
FjAdBgNVHQQEFjAUMA4wDAYKKwYBBAGCNwIBFgMCB4AwMgYIKwYBBQUHAQEEJjAk
MCIGCCsGAQUFBzABhhZodHRwOi8vb2NzcC50aGF3dGUuY29tMBEGCWCGSAGG+EIB
AQQEAwIEEDANBgkqhkiG9w0BAQUFAAOCAQEAI3AhvDJWXLpwZqkLev/ovqX9MoPX
VeDNSlh0x19nk9tjZ1Cmo+nUlPH8Uy0zS5MBBc5d8m5i/qMWg3yJtvw4aRZRuDD2
cl+MqgJPnQU+Mk3EiYn0jVXa1VDSsYGC4J6fQnTVLqwoqzJx+60EI622a6B+WBXs
q3Jv/1hBbhvprMf41I8ADY+TcO1nqziiOrn2r7RJUy7XS2Tl+a+mNRExjKqlz12i
rIs+zBEBIhYEd9rg6pOMohsY/KnPUxsVgf9s1tFR90r35Gy4N4oFk2W4iON3AtlV
fhgguHfvqDSndLIGTSYYHOWAXhlDq/0nzs9I4010jm+RzfKgkJAndjwS7g==
-----END CERTIFICATE-----

Certificate:
    Data:
        Version: 3 (0x2)
        Serial Number:
            33:65:50:08:79:ad:73:e2:30:b9:e0:1d:0d:7f:ac:91
    Signature Algorithm: sha1WithRSAEncryption
        Issuer: C=ZA, ST=Western Cape, L=Cape Town, O=Thawte Consulting cc, OU=Certification Services Division, CN=Thawte Premium Server CA/emailAddress=premium-server@thawte.com
        Validity
            Not Before: Nov 17 00:00:00 2006 GMT
            Not After : Dec 30 23:59:59 2020 GMT
        Subject: C=US, O=thawte, Inc., OU=Certification Services Division, OU=(c) 2006 thawte, Inc. - For authorized use only, CN=thawte Primary Root CA
        Subject Public Key Info:
            Public Key Algorithm: rsaEncryption
                Public-Key: (2048 bit)
                Modulus:
                    00:ac:a0:f0:fb:80:59:d4:9c:c7:a4:cf:9d:a1:59:
                    73:09:10:45:0c:0d:2c:6e:68:f1:6c:5b:48:68:49:
                    59:37:fc:0b:33:19:c2:77:7f:cc:10:2d:95:34:1c:
                    e6:eb:4d:09:a7:1c:d2:b8:c9:97:36:02:b7:89:d4:
                    24:5f:06:c0:cc:44:94:94:8d:02:62:6f:eb:5a:dd:
                    11:8d:28:9a:5c:84:90:10:7a:0d:bd:74:66:2f:6a:
                    38:a0:e2:d5:54:44:eb:1d:07:9f:07:ba:6f:ee:e9:
                    fd:4e:0b:29:f5:3e:84:a0:01:f1:9c:ab:f8:1c:7e:
                    89:a4:e8:a1:d8:71:65:0d:a3:51:7b:ee:bc:d2:22:
                    60:0d:b9:5b:9d:df:ba:fc:51:5b:0b:af:98:b2:e9:
                    2e:e9:04:e8:62:87:de:2b:c8:d7:4e:c1:4c:64:1e:
                    dd:cf:87:58:ba:4a:4f:ca:68:07:1d:1c:9d:4a:c6:
                    d5:2f:91:cc:7c:71:72:1c:c5:c0:67:eb:32:fd:c9:
                    92:5c:94:da:85:c0:9b:bf:53:7d:2b:09:f4:8c:9d:
                    91:1f:97:6a:52:cb:de:09:36:a4:77:d8:7b:87:50:
                    44:d5:3e:6e:29:69:fb:39:49:26:1e:09:a5:80:7b:
                    40:2d:eb:e8:27:85:c9:fe:61:fd:7e:e6:7c:97:1d:
                    d5:9d
                Exponent: 65537 (0x10001)
        X509v3 extensions:
            X509v3 Basic Constraints: critical
                CA:TRUE
            X509v3 Certificate Policies: 
                Policy: X509v3 Any Policy
                  CPS: https://www.thawte.com/cps

            X509v3 Key Usage: critical
                Certificate Sign, CRL Sign
            X509v3 Subject Key Identifier: 
                7B:5B:45:CF:AF:CE:CB:7A:FD:31:92:1A:6A:B6:F3:46:EB:57:48:50
            X509v3 CRL Distribution Points: 

                Full Name:
                  URI:http://crl.thawte.com/ThawtePremiumServerCA.crl

    Signature Algorithm: sha1WithRSAEncryption
         84:a8:4c:c9:3e:2a:bc:9a:e2:cc:8f:0b:b2:25:77:c4:61:89:
         89:63:5a:d4:a3:15:40:d4:fb:5e:3f:b4:43:ea:63:17:2b:6b:
         99:74:9e:09:a8:dd:d4:56:15:2e:7a:79:31:5f:63:96:53:1b:
         34:d9:15:ea:4f:6d:70:ca:be:f6:82:a9:ed:da:85:77:cc:76:
         1c:6a:81:0a:21:d8:41:99:7f:5e:2e:82:c1:e8:aa:f7:93:81:
         05:aa:92:b4:1f:b7:9a:c0:07:17:f5:cb:c6:b4:4c:0e:d7:56:
         dc:71:20:74:38:d6:74:c6:d6:8f:6b:af:8b:8d:a0:6c:29:0b:
         61:e0
-----BEGIN CERTIFICATE-----
MIIERTCCA66gAwIBAgIQM2VQCHmtc+IwueAdDX+skTANBgkqhkiG9w0BAQUFADCB
zjELMAkGA1UEBhMCWkExFTATBgNVBAgTDFdlc3Rlcm4gQ2FwZTESMBAGA1UEBxMJ
Q2FwZSBUb3duMR0wGwYDVQQKExRUaGF3dGUgQ29uc3VsdGluZyBjYzEoMCYGA1UE
CxMfQ2VydGlmaWNhdGlvbiBTZXJ2aWNlcyBEaXZpc2lvbjEhMB8GA1UEAxMYVGhh
d3RlIFByZW1pdW0gU2VydmVyIENBMSgwJgYJKoZIhvcNAQkBFhlwcmVtaXVtLXNl
cnZlckB0aGF3dGUuY29tMB4XDTA2MTExNzAwMDAwMFoXDTIwMTIzMDIzNTk1OVow
gakxCzAJBgNVBAYTAlVTMRUwEwYDVQQKEwx0aGF3dGUsIEluYy4xKDAmBgNVBAsT
H0NlcnRpZmljYXRpb24gU2VydmljZXMgRGl2aXNpb24xODA2BgNVBAsTLyhjKSAy
MDA2IHRoYXd0ZSwgSW5jLiAtIEZvciBhdXRob3JpemVkIHVzZSBvbmx5MR8wHQYD
VQQDExZ0aGF3dGUgUHJpbWFyeSBSb290IENBMIIBIjANBgkqhkiG9w0BAQEFAAOC
AQ8AMIIBCgKCAQEArKDw+4BZ1JzHpM+doVlzCRBFDA0sbmjxbFtIaElZN/wLMxnC
d3/MEC2VNBzm600JpxzSuMmXNgK3idQkXwbAzESUlI0CYm/rWt0RjSiaXISQEHoN
vXRmL2o4oOLVVETrHQefB7pv7un9Tgsp9T6EoAHxnKv4HH6JpOih2HFlDaNRe+68
0iJgDblbnd+6/FFbC6+Ysuku6QToYofeK8jXTsFMZB7dz4dYukpPymgHHRydSsbV
L5HMfHFyHMXAZ+sy/cmSXJTahcCbv1N9Kwn0jJ2RH5dqUsveCTakd9h7h1BE1T5u
KWn7OUkmHgmlgHtALevoJ4XJ/mH9fuZ8lx3VnQIDAQABo4HCMIG/MA8GA1UdEwEB
/wQFMAMBAf8wOwYDVR0gBDQwMjAwBgRVHSAAMCgwJgYIKwYBBQUHAgEWGmh0dHBz
Oi8vd3d3LnRoYXd0ZS5jb20vY3BzMA4GA1UdDwEB/wQEAwIBBjAdBgNVHQ4EFgQU
e1tFz6/Oy3r9MZIaarbzRutXSFAwQAYDVR0fBDkwNzA1oDOgMYYvaHR0cDovL2Ny
bC50aGF3dGUuY29tL1RoYXd0ZVByZW1pdW1TZXJ2ZXJDQS5jcmwwDQYJKoZIhvcN
AQEFBQADgYEAhKhMyT4qvJrizI8LsiV3xGGJiWNa1KMVQNT7Xj+0Q+pjFytrmXSe
Cajd1FYVLnp5MV9jllMbNNkV6k9tcMq+9oKp7dqFd8x2HGqBCiHYQZl/Xi6Cweiq
95OBBaqStB+3msAHF/XLxrRMDtdW3HEgdDjWdMbWj2uvi42gbCkLYeA=
-----END CERTIFICATE-----

Certificate:
    Data:
        Version: 3 (0x2)
        Serial Number:
            47:97:4d:78:73:a5:bc:ab:0d:2f:b3:70:19:2f:ce:5e
    Signature Algorithm: sha1WithRSAEncryption
        Issuer: C=US, O=thawte, Inc., OU=Certification Services Division, OU=(c) 2006 thawte, Inc. - For authorized use only, CN=thawte Primary Root CA
        Validity
            Not Before: Feb  8 00:00:00 2010 GMT
            Not After : Feb  7 23:59:59 2020 GMT
        Subject: C=US, O=Thawte, Inc., CN=Thawte Code Signing CA - G2
        Subject Public Key Info:
            Public Key Algorithm: rsaEncryption
                Public-Key: (2048 bit)
                Modulus:
                    00:b7:8b:cf:75:5b:9f:25:da:7e:39:b0:93:db:38:
                    d3:a9:23:d0:82:fa:e9:24:7e:5c:0b:8e:83:f8:e6:
                    7a:59:e6:a3:c5:98:a7:99:d2:44:ff:00:a6:a5:39:
                    04:8a:da:29:88:ea:db:a2:f3:1c:99:15:26:c2:b1:
                    f4:fc:e1:0c:47:a9:09:11:06:0a:20:92:b9:c7:a0:
                    04:8c:5c:94:19:ab:5b:25:2c:1d:62:7e:70:0d:ce:
                    61:6c:dd:2b:82:c9:ce:5d:48:5f:f7:c2:be:bc:41:
                    23:1e:4f:29:5d:d7:4f:bc:f4:c5:2a:fc:63:e6:7c:
                    26:4e:99:a7:79:41:9e:10:4a:7a:79:c9:c6:86:f7:
                    86:95:d2:26:ce:3c:18:2a:d6:7c:ce:af:cd:ad:bb:
                    f7:82:2c:70:26:37:45:e5:0f:47:22:c6:01:28:bd:
                    2e:83:5c:6a:a4:47:c1:e7:d0:d8:6b:81:46:3f:21:
                    17:f5:07:c5:43:5a:a6:67:2c:b8:7b:60:11:b5:83:
                    ee:f5:74:0a:72:71:44:3d:58:fe:e8:1a:ab:38:c3:
                    59:db:7f:6e:38:7d:76:c7:72:69:98:36:96:57:d3:
                    66:1c:d2:54:91:04:2e:54:19:b0:dc:3d:b5:22:5e:
                    86:d5:2a:7e:20:df:5d:e6:7a:b1:65:fe:c5:02:4e:
                    31:2d
                Exponent: 65537 (0x10001)
        X509v3 extensions:
            X509v3 Basic Constraints: critical
                CA:TRUE, pathlen:0
            X509v3 CRL Distribution Points: 

                Full Name:
                  URI:http://crl.thawte.com/ThawtePCA.crl

            X509v3 Key Usage: critical
                Certificate Sign, CRL Sign
            Authority Information Access: 
                OCSP - URI:http://ocsp.thawte.com

            X509v3 Extended Key Usage: 
                TLS Web Client Authentication, Code Signing
            X509v3 Subject Alternative Name: 
                DirName:/CN=VeriSignMPKI-2-10
            X509v3 Subject Key Identifier: 
                D4:0D:65:3F:7A:BD:34:C6:FE:47:E7:4C:0D:C0:BD:F2:DE:15:AB:71
            X509v3 Authority Key Identifier: 
                keyid:7B:5B:45:CF:AF:CE:CB:7A:FD:31:92:1A:6A:B6:F3:46:EB:57:48:50

    Signature Algorithm: sha1WithRSAEncryption
         56:fe:53:5c:e1:c7:9e:bc:a7:ed:7e:53:6d:6a:14:4b:51:8c:
         40:5e:80:5f:aa:a4:e8:2f:ef:38:c8:04:c9:ca:3e:cf:df:3a:
         58:4e:b0:d4:b6:63:c5:29:57:fa:02:05:9a:45:4d:68:db:2a:
         1b:d4:34:3d:9f:00:c3:5a:cb:95:49:a5:6e:e1:b0:c5:fc:41:
         4d:41:4a:6f:d3:77:c8:d7:38:8d:e4:19:de:18:f3:1f:15:65:
         83:6d:45:0c:53:f9:0a:9a:2e:a5:5d:bf:6f:32:81:18:92:19:
         6a:55:00:ad:63:1c:52:06:7e:55:d9:29:68:ae:4a:7c:18:9a:
         79:88:6b:23:23:d8:27:38:2a:29:87:76:ca:fb:c7:b6:62:23:
         1f:ed:7a:56:4c:dd:9c:32:5b:f5:3d:0c:46:18:95:3b:2a:23:
         68:83:64:41:d9:00:6d:0f:19:24:15:68:72:bd:c5:71:67:6e:
         ac:4c:db:90:eb:51:a5:1a:62:07:d0:be:6a:00:47:3c:72:2f:
         ec:4f:61:3e:73:85:ce:5a:0a:b7:ba:c0:1c:13:75:e3:22:39:
         28:dd:6d:1d:09:46:9d:4f:ba:e8:40:81:91:c6:a4:ce:94:72:
         1b:01:cf:2a:6e:15:67:95:89:ae:7d:b7:b7:cd:f9:0a:3d:75:
         b6:6b:3c:25
-----BEGIN CERTIFICATE-----
MIIEnDCCA4SgAwIBAgIQR5dNeHOlvKsNL7NwGS/OXjANBgkqhkiG9w0BAQUFADCB
qTELMAkGA1UEBhMCVVMxFTATBgNVBAoTDHRoYXd0ZSwgSW5jLjEoMCYGA1UECxMf
Q2VydGlmaWNhdGlvbiBTZXJ2aWNlcyBEaXZpc2lvbjE4MDYGA1UECxMvKGMpIDIw
MDYgdGhhd3RlLCBJbmMuIC0gRm9yIGF1dGhvcml6ZWQgdXNlIG9ubHkxHzAdBgNV
BAMTFnRoYXd0ZSBQcmltYXJ5IFJvb3QgQ0EwHhcNMTAwMjA4MDAwMDAwWhcNMjAw
MjA3MjM1OTU5WjBKMQswCQYDVQQGEwJVUzEVMBMGA1UEChMMVGhhd3RlLCBJbmMu
MSQwIgYDVQQDExtUaGF3dGUgQ29kZSBTaWduaW5nIENBIC0gRzIwggEiMA0GCSqG
SIb3DQEBAQUAA4IBDwAwggEKAoIBAQC3i891W58l2n45sJPbONOpI9CC+ukkflwL
joP45npZ5qPFmKeZ0kT/AKalOQSK2imI6tui8xyZFSbCsfT84QxHqQkRBgogkrnH
oASMXJQZq1slLB1ifnANzmFs3SuCyc5dSF/3wr68QSMeTyld10+89MUq/GPmfCZO
mad5QZ4QSnp5ycaG94aV0ibOPBgq1nzOr82tu/eCLHAmN0XlD0cixgEovS6DXGqk
R8Hn0NhrgUY/IRf1B8VDWqZnLLh7YBG1g+71dApycUQ9WP7oGqs4w1nbf244fXbH
cmmYNpZX02Yc0lSRBC5UGbDcPbUiXobVKn4g313merFl/sUCTjEtAgMBAAGjggEc
MIIBGDASBgNVHRMBAf8ECDAGAQH/AgEAMDQGA1UdHwQtMCswKaAnoCWGI2h0dHA6
Ly9jcmwudGhhd3RlLmNvbS9UaGF3dGVQQ0EuY3JsMA4GA1UdDwEB/wQEAwIBBjAy
BggrBgEFBQcBAQQmMCQwIgYIKwYBBQUHMAGGFmh0dHA6Ly9vY3NwLnRoYXd0ZS5j
b20wHQYDVR0lBBYwFAYIKwYBBQUHAwIGCCsGAQUFBwMDMCkGA1UdEQQiMCCkHjAc
MRowGAYDVQQDExFWZXJpU2lnbk1QS0ktMi0xMDAdBgNVHQ4EFgQU1A1lP3q9NMb+
R+dMDcC98t4Vq3EwHwYDVR0jBBgwFoAUe1tFz6/Oy3r9MZIaarbzRutXSFAwDQYJ
KoZIhvcNAQEFBQADggEBAFb+U1zhx568p+1+U21qFEtRjEBegF+qpOgv7zjIBMnK
Ps/fOlhOsNS2Y8UpV/oCBZpFTWjbKhvUND2fAMNay5VJpW7hsMX8QU1BSm/Td8jX
OI3kGd4Y8x8VZYNtRQxT+QqaLqVdv28ygRiSGWpVAK1jHFIGflXZKWiuSnwYmnmI
ayMj2Cc4KimHdsr7x7ZiIx/telZM3ZwyW/U9DEYYlTsqI2iDZEHZAG0PGSQVaHK9
xXFnbqxM25DrUaUaYgfQvmoARzxyL+xPYT5zhc5aCre6wBwTdeMiOSjdbR0JRp1P
uuhAgZHGpM6UchsBzypuFWeVia59t7fN+Qo9dbZrPCU=
-----END CERTIFICATE-----

Certificate:
    Data:
        Version: 3 (0x2)
        Serial Number:
            0e:cf:f4:38:c8:fe:bf:35:6e:04:d8:6a:98:1b:1a:50
    Signature Algorithm: sha1WithRSAEncryption
        Issuer: C=US, O=Symantec Corporation, CN=Symantec Time Stamping Services CA - G2
        Validity
            Not Before: Oct 18 00:00:00 2012 GMT
            Not After : Dec 29 23:59:59 2020 GMT
        Subject: C=US, O=Symantec Corporation, CN=Symantec Time Stamping Services Signer - G4
        Subject Public Key Info:
            Public Key Algorithm: rsaEncryption
                Public-Key: (2048 bit)
                Modulus:
                    00:a2:63:0b:39:44:b8:bb:23:a7:44:49:bb:0e:ff:
                    a1:f0:61:0a:53:93:b0:98:db:ad:2c:0f:4a:c5:6e:
                    ff:86:3c:53:55:0f:15:ce:04:3f:2b:fd:a9:96:96:
                    d9:be:61:79:0b:5b:c9:4c:86:76:e5:e0:43:4b:22:
                    95:ee:c2:2b:43:c1:9f:d8:68:b4:8e:40:4f:ee:85:
                    38:b9:11:c5:23:f2:64:58:f0:15:32:6f:4e:57:a1:
                    ae:88:a4:02:d7:2a:1e:cd:4b:e1:dd:63:d5:17:89:
                    32:5b:b0:5e:99:5a:a8:9d:28:50:0e:17:ee:96:db:
                    61:3b:45:51:1d:cf:12:56:0b:92:47:fc:ab:ae:f6:
                    66:3d:47:ac:70:72:e7:92:e7:5f:cd:10:b9:c4:83:
                    64:94:19:bd:25:80:e1:e8:d2:22:a5:d0:ba:02:7a:
                    a1:77:93:5b:65:c3:ee:17:74:bc:41:86:2a:dc:08:
                    4c:8c:92:8c:91:2d:9e:77:44:1f:68:d6:a8:74:77:
                    db:0e:5b:32:8b:56:8b:33:bd:d9:63:c8:49:9d:3a:
                    c5:c5:ea:33:0b:d2:f1:a3:1b:f4:8b:be:d9:b3:57:
                    8b:3b:de:04:a7:7a:22:b2:24:ae:2e:c7:70:c5:be:
                    4e:83:26:08:fb:0b:bd:a9:4f:99:08:e1:10:28:72:
                    aa:cd
                Exponent: 65537 (0x10001)
        X509v3 extensions:
            X509v3 Basic Constraints: critical
                CA:FALSE
            X509v3 Extended Key Usage: critical
                Time Stamping
            X509v3 Key Usage: critical
                Digital Signature
            Authority Information Access: 
                OCSP - URI:http://ts-ocsp.ws.symantec.com
                CA Issuers - URI:http://ts-aia.ws.symantec.com/tss-ca-g2.cer

            X509v3 CRL Distribution Points: 

                Full Name:
                  URI:http://ts-crl.ws.symantec.com/tss-ca-g2.crl

            X509v3 Subject Alternative Name: 
                DirName:/CN=TimeStamp-2048-2
            X509v3 Subject Key Identifier: 
                46:C6:69:A3:0E:4A:14:1E:D5:4C:DA:52:63:17:3F:5E:36:BC:0D:E6
            X509v3 Authority Key Identifier: 
                keyid:5F:9A:F5:6E:5C:CC:CC:74:9A:D4:DD:7D:EF:3F:DB:EC:4C:80:2E:DD

    Signature Algorithm: sha1WithRSAEncryption
         78:3b:b4:91:2a:00:4c:f0:8f:62:30:37:78:a3:84:27:07:6f:
         18:b2:de:25:dc:a0:d4:94:03:aa:86:4e:25:9f:9a:40:03:1c:
         dd:ce:e3:79:cb:21:68:06:da:b6:32:b4:6d:bf:f4:2c:26:63:
         33:e4:49:64:6d:0d:e6:c3:67:0e:f7:05:a4:35:6c:7c:89:16:
         c6:e9:b2:df:b2:e9:dd:20:c6:71:0f:cd:95:74:dc:b6:5c:de:
         bd:37:1f:43:78:e6:78:b5:cd:28:04:20:a3:aa:f1:4b:c4:88:
         29:91:0e:80:d1:11:fc:dd:5c:76:6e:4f:5e:0e:45:46:41:6e:
         0d:b0:ea:38:9a:b1:3a:da:09:71:10:fc:1c:79:b4:80:7b:ac:
         69:f4:fd:9c:b6:0c:16:2b:f1:7f:5b:09:3d:9b:5b:e2:16:ca:
         13:81:6d:00:2e:38:0d:a8:29:8f:2c:e1:b2:f4:5a:a9:01:af:
         15:9c:2c:2f:49:1b:db:22:bb:c3:fe:78:94:51:c3:86:b1:82:
         88:5d:f0:3d:b4:51:a1:79:33:2b:2e:7b:b9:dc:20:09:13:71:
         eb:6a:19:5b:cf:e8:a5:30:57:2c:89:49:3f:b9:cf:7f:c9:bf:
         3e:22:68:63:53:9a:bd:69:74:ac:c5:1d:3c:7f:92:e0:c3:bc:
         1c:d8:04:75
-----BEGIN CERTIFICATE-----
MIIEozCCA4ugAwIBAgIQDs/0OMj+vzVuBNhqmBsaUDANBgkqhkiG9w0BAQUFADBe
MQswCQYDVQQGEwJVUzEdMBsGA1UEChMUU3ltYW50ZWMgQ29ycG9yYXRpb24xMDAu
BgNVBAMTJ1N5bWFudGVjIFRpbWUgU3RhbXBpbmcgU2VydmljZXMgQ0EgLSBHMjAe
Fw0xMjEwMTgwMDAwMDBaFw0yMDEyMjkyMzU5NTlaMGIxCzAJBgNVBAYTAlVTMR0w
GwYDVQQKExRTeW1hbnRlYyBDb3Jwb3JhdGlvbjE0MDIGA1UEAxMrU3ltYW50ZWMg
VGltZSBTdGFtcGluZyBTZXJ2aWNlcyBTaWduZXIgLSBHNDCCASIwDQYJKoZIhvcN
AQEBBQADggEPADCCAQoCggEBAKJjCzlEuLsjp0RJuw7/ofBhClOTsJjbrSwPSsVu
/4Y8U1UPFc4EPyv9qZaW2b5heQtbyUyGduXgQ0sile7CK0PBn9hotI5AT+6FOLkR
xSPyZFjwFTJvTlehroikAtcqHs1L4d1j1ReJMluwXplaqJ0oUA4X7pbbYTtFUR3P
ElYLkkf8q672Zj1HrHBy55LnX80QucSDZJQZvSWA4ejSIqXQugJ6oXeTW2XD7hd0
vEGGKtwITIySjJEtnndEH2jWqHR32w5bMotWizO92WPISZ06xcXqMwvS8aMb9Iu+
2bNXizveBKd6IrIkri7HcMW+ToMmCPsLvalPmQjhEChyqs0CAwEAAaOCAVcwggFT
MAwGA1UdEwEB/wQCMAAwFgYDVR0lAQH/BAwwCgYIKwYBBQUHAwgwDgYDVR0PAQH/
BAQDAgeAMHMGCCsGAQUFBwEBBGcwZTAqBggrBgEFBQcwAYYeaHR0cDovL3RzLW9j
c3Aud3Muc3ltYW50ZWMuY29tMDcGCCsGAQUFBzAChitodHRwOi8vdHMtYWlhLndz
LnN5bWFudGVjLmNvbS90c3MtY2EtZzIuY2VyMDwGA1UdHwQ1MDMwMaAvoC2GK2h0
dHA6Ly90cy1jcmwud3Muc3ltYW50ZWMuY29tL3Rzcy1jYS1nMi5jcmwwKAYDVR0R
BCEwH6QdMBsxGTAXBgNVBAMTEFRpbWVTdGFtcC0yMDQ4LTIwHQYDVR0OBBYEFEbG
aaMOShQe1UzaUmMXP142vA3mMB8GA1UdIwQYMBaAFF+a9W5czMx0mtTdfe8/2+xM
gC7dMA0GCSqGSIb3DQEBBQUAA4IBAQB4O7SRKgBM8I9iMDd4o4QnB28Yst4l3KDU
lAOqhk4ln5pAAxzdzuN5yyFoBtq2MrRtv/QsJmMz5ElkbQ3mw2cO9wWkNWx8iRbG
6bLfsundIMZxD82VdNy2XN69Nx9DeOZ4tc0oBCCjqvFLxIgpkQ6A0RH83Vx2bk9e
DkVGQW4NsOo4mrE62glxEPwcebSAe6xp9P2ctgwWK/F/Wwk9m1viFsoTgW0ALjgN
qCmPLOGy9FqpAa8VnCwvSRvbIrvD/niUUcOGsYKIXfA9tFGheTMrLnu53CAJE3Hr
ahlbz+ilMFcsiUk/uc9/yb8+ImhjU5q9aXSsxR08f5Lgw7wc2AR1
-----END CERTIFICATE-----

