Certificate:
    Data:
        Version: 3 (0x2)
        Serial Number:
            22:d8:78:bd:5f:56:04:31:89:22:60:a2:e8:8c:d3:50
    Signature Algorithm: sha1WithRSAEncryption
        Issuer: C=US, O=VeriSign, Inc., CN=VeriSign Time Stamping Services CA
        Validity
            Not Before: May  1 00:00:00 2012 GMT
            Not After : Dec  2 23:59:59 2013 GMT
        Subject: C=US, O=Symantec Corporation, CN=Symantec Time Stamping Services Signer - G3
        Subject Public Key Info:
            Public Key Algorithm: rsaEncryption
                Public-Key: (1024 bit)
                Modulus:
                    00:a9:59:66:74:da:3d:8a:7d:7a:d8:fc:f5:80:44:
                    7b:fe:47:6a:14:55:4e:50:47:0b:ec:d3:ed:ce:f6:
                    38:f7:4f:69:b9:b1:f0:b6:78:82:0a:8c:76:16:67:
                    e2:02:ad:b7:0d:a5:8a:f6:03:fc:66:d3:fc:08:2d:
                    cc:b5:73:59:7b:89:dc:33:6e:66:5a:5e:52:37:b4:
                    62:d1:92:59:35:14:8b:45:ac:59:b2:4d:24:a2:98:
                    94:68:42:72:9f:3a:68:e2:6b:8b:9e:22:2d:f4:98:
                    4e:9a:c6:af:b3:e4:a0:ab:3c:28:bf:23:e1:d7:72:
                    a4:f2:10:53:67:ae:77:af:51
                Exponent: 65537 (0x10001)
        X509v3 extensions:
            X509v3 Basic Constraints: critical
                CA:FALSE
            X509v3 CRL Distribution Points: 

                Full Name:
                  URI:http://crl.verisign.com/tss-ca.crl

            X509v3 Extended Key Usage: critical
                Time Stamping
            X509v3 Subject Alternative Name: 
                DirName:/CN=TSA1-3
            X509v3 Subject Key Identifier: 
                B4:B7:F1:89:49:26:60:E7:65:EA:73:AE:DC:D3:38:CD:BF:57:92:6F
            Authority Information Access: 
                OCSP - URI:http://ocsp.verisign.com

            X509v3 Key Usage: critical
                Digital Signature
    Signature Algorithm: sha1WithRSAEncryption
         21:df:af:6d:e6:07:79:bd:9f:f2:8f:52:02:14:15:97:1f:be:
         ae:55:d0:61:1f:39:15:ef:50:b9:c0:93:e2:84:70:d7:5a:1a:
         66:2a:fa:e2:81:51:e2:a4:b4:d2:6e:06:e0:1b:7a:16:7e:8b:
         ef:f4:ce:9b:66:34:c2:c6:3b:6a:62:07:26:db:8c:88:ae:05:
         cd:7a:fc:46:59:aa:fd:a8:46:42:c6:ca:5f:1e:2e:0f:fc:d2:
         eb:88:1e:18:3c:a5:66:09:86:87:12:ed:0c:ca:f6:76:c5:ba:
         83:f8:7c:26:59:54:ee:8e:69:01:50:c0:12:01:b5:2e:7f:23:
         59:e0:80:c0:75:78:a6:48:cc:7d:89:39:77:d0:d1:62:78:1e:
         75:1d:3e:6a:4e:4c:7b:a9:ee:1d:4f:cf:59:26:2e:22:17:9a:
         62:43:e9:e4:0c:98:40:d8:19:5f:72:b7:85:82:22:6f:c5:41:
         3b:31:2a:8e:fe:2d:de:74:a3:b6:76:f1:45:1f:e9:b3:2e:f0:
         d8:3f:51:ed:b3:bd:0a:ff:56:b6:cf:87:49:12:79:5c:a0:ac:
         98:a3:1c:86:a0:04:3a:d9:f8:4c:74:3e:b4:96:65:b6:ad:a8:
         20:12:ef:de:e6:65:62:ea:f1:47:2e:bb:76:8a:20:d2:20:42:
         a9:43:0f:03
-----BEGIN CERTIFICATE-----
MIIDnzCCAoegAwIBAgIQIth4vV9WBDGJImCi6IzTUDANBgkqhkiG9w0BAQUFADBT
MQswCQYDVQQGEwJVUzEXMBUGA1UEChMOVmVyaVNpZ24sIEluYy4xKzApBgNVBAMT
IlZlcmlTaWduIFRpbWUgU3RhbXBpbmcgU2VydmljZXMgQ0EwHhcNMTIwNTAxMDAw
MDAwWhcNMTMxMjAyMjM1OTU5WjBiMQswCQYDVQQGEwJVUzEdMBsGA1UEChMUU3lt
YW50ZWMgQ29ycG9yYXRpb24xNDAyBgNVBAMTK1N5bWFudGVjIFRpbWUgU3RhbXBp
bmcgU2VydmljZXMgU2lnbmVyIC0gRzMwgZ8wDQYJKoZIhvcNAQEBBQADgY0AMIGJ
AoGBAKlZZnTaPYp9etj89YBEe/5HahRVTlBHC+zT7c72OPdPabmx8LZ4ggqMdhZn
4gKttw2livYD/GbT/AgtzLVzWXuJ3DNuZlpeUje0YtGSWTUUi0WsWbJNJKKYlGhC
cp86aOJri54iLfSYTprGr7PkoKs8KL8j4ddypPIQU2eud69RAgMBAAGjgeMwgeAw
DAYDVR0TAQH/BAIwADAzBgNVHR8ELDAqMCigJqAkhiJodHRwOi8vY3JsLnZlcmlz
aWduLmNvbS90c3MtY2EuY3JsMBYGA1UdJQEB/wQMMAoGCCsGAQUFBwMIMB4GA1Ud
EQQXMBWkEzARMQ8wDQYDVQQDEwZUU0ExLTMwHQYDVR0OBBYEFLS38YlJJmDnZepz
rtzTOM2/V5JvMDQGCCsGAQUFBwEBBCgwJjAkBggrBgEFBQcwAYYYaHR0cDovL29j
c3AudmVyaXNpZ24uY29tMA4GA1UdDwEB/wQEAwIHgDANBgkqhkiG9w0BAQUFAAOC
AQEAId+vbeYHeb2f8o9SAhQVlx++rlXQYR85Fe9QucCT4oRw11oaZir64oFR4qS0
0m4G4Bt6Fn6L7/TOm2Y0wsY7amIHJtuMiK4FzXr8Rlmq/ahGQsbKXx4uD/zS64ge
GDylZgmGhxLtDMr2dsW6g/h8JllU7o5pAVDAEgG1Ln8jWeCAwHV4pkjMfYk5d9DR
YngedR0+ak5Me6nuHU/PWSYuIheaYkPp5AyYQNgZX3K3hYIib8VBOzEqjv4t3nSj
tnbxRR/psy7w2D9R7bO9Cv9Wts+HSRJ5XKCsmKMchqAEOtn4THQ+tJZltq2oIBLv
3uZlYurxRy67doog0iBCqUMPAw==
-----END CERTIFICATE-----

Certificate:
    Data:
        Version: 3 (0x2)
        Serial Number:
            47:bf:19:95:df:8d:52:46:43:f7:db:6d:48:0d:31:a4
    Signature Algorithm: sha1WithRSAEncryption
        Issuer: C=ZA, ST=Western Cape, L=Durbanville, O=Thawte, OU=Thawte Certification, CN=Thawte Timestamping CA
        Validity
            Not Before: Dec  4 00:00:00 2003 GMT
            Not After : Dec  3 23:59:59 2013 GMT
        Subject: C=US, O=VeriSign, Inc., CN=VeriSign Time Stamping Services CA
        Subject Public Key Info:
            Public Key Algorithm: rsaEncryption
                Public-Key: (2048 bit)
                Modulus:
                    00:a9:ca:b2:a4:cc:cd:20:af:0a:7d:89:ac:87:75:
                    f0:b4:4e:f1:df:c1:0f:bf:67:61:bd:a3:64:1c:da:
                    bb:f9:ca:33:ab:84:30:89:58:7e:8c:db:6b:dd:36:
                    9e:0f:bf:d1:ec:78:f2:77:a6:7e:6f:3c:bf:93:af:
                    0d:ba:68:f4:6c:94:ca:bd:52:2d:ab:48:3d:f5:b6:
                    d5:5d:5f:1b:02:9f:fa:2f:6b:1e:a4:f7:a3:9a:a6:
                    1a:c8:02:e1:7f:4c:52:e3:0e:60:ec:40:1c:7e:b9:
                    0d:de:3f:c7:b4:df:87:bd:5f:7a:6a:31:2e:03:99:
                    81:13:a8:47:20:ce:31:73:0d:57:2d:cd:78:34:33:
                    95:12:99:12:b9:de:68:2f:aa:e6:e3:c2:8a:8c:2a:
                    c3:8b:21:87:66:bd:83:58:57:6f:75:bf:3c:aa:26:
                    87:5d:ca:10:15:3c:9f:84:ea:54:c1:0a:6e:c4:fe:
                    c5:4a:dd:b9:07:11:97:22:7c:db:3e:27:d1:1e:78:
                    ec:9f:31:c9:f1:e6:22:19:db:c4:b3:47:43:9a:1a:
                    5f:a0:1e:90:e4:5e:f5:ee:7c:f1:7d:ab:62:01:8f:
                    f5:4d:0b:de:d0:22:56:a8:95:cd:ae:88:76:ae:ee:
                    ba:0d:f3:e4:4d:d9:a0:fb:68:a0:ae:14:3b:b3:87:
                    c1:bb
                Exponent: 65537 (0x10001)
        X509v3 extensions:
            Authority Information Access: 
                OCSP - URI:http://ocsp.verisign.com

            X509v3 Basic Constraints: critical
                CA:TRUE, pathlen:0
            X509v3 CRL Distribution Points: 

                Full Name:
                  URI:http://crl.verisign.com/ThawteTimestampingCA.crl

            X509v3 Extended Key Usage: 
                Time Stamping
            X509v3 Key Usage: critical
                Certificate Sign, CRL Sign
            X509v3 Subject Alternative Name: 
                DirName:/CN=TSA2048-1-53
    Signature Algorithm: sha1WithRSAEncryption
         4a:6b:f9:ea:58:c2:44:1c:31:89:79:99:2b:96:bf:82:ac:01:
         d6:1c:4c:cd:b0:8a:58:6e:df:08:29:a3:5e:c8:ca:93:13:e7:
         04:52:0d:ef:47:27:2f:00:38:b0:e4:c9:93:4e:9a:d4:22:62:
         15:f7:3f:37:21:4f:70:31:80:f1:8b:38:87:b3:e8:e8:97:00:
         fe:cf:55:96:4e:24:d2:a9:27:4e:7a:ae:b7:61:41:f3:2a:ce:
         e7:c9:d9:5e:dd:bb:2b:85:3e:b5:9d:b5:d9:e1:57:ff:be:b4:
         c5:7e:f5:cf:0c:9e:f0:97:fe:2b:d3:3b:52:1b:1b:38:27:f7:
         3f:4a
-----BEGIN CERTIFICATE-----
MIIDxDCCAy2gAwIBAgIQR78Zld+NUkZD99ttSA0xpDANBgkqhkiG9w0BAQUFADCB
izELMAkGA1UEBhMCWkExFTATBgNVBAgTDFdlc3Rlcm4gQ2FwZTEUMBIGA1UEBxML
RHVyYmFudmlsbGUxDzANBgNVBAoTBlRoYXd0ZTEdMBsGA1UECxMUVGhhd3RlIENl
cnRpZmljYXRpb24xHzAdBgNVBAMTFlRoYXd0ZSBUaW1lc3RhbXBpbmcgQ0EwHhcN
MDMxMjA0MDAwMDAwWhcNMTMxMjAzMjM1OTU5WjBTMQswCQYDVQQGEwJVUzEXMBUG
A1UEChMOVmVyaVNpZ24sIEluYy4xKzApBgNVBAMTIlZlcmlTaWduIFRpbWUgU3Rh
bXBpbmcgU2VydmljZXMgQ0EwggEiMA0GCSqGSIb3DQEBAQUAA4IBDwAwggEKAoIB
AQCpyrKkzM0grwp9iayHdfC0TvHfwQ+/Z2G9o2Qc2rv5yjOrhDCJWH6M22vdNp4P
v9HsePJ3pn5vPL+Trw26aPRslMq9Ui2rSD31ttVdXxsCn/ovax6k96OaphrIAuF/
TFLjDmDsQBx+uQ3eP8e034e9X3pqMS4DmYETqEcgzjFzDVctzXg0M5USmRK53mgv
qubjwoqMKsOLIYdmvYNYV291vzyqJoddyhAVPJ+E6lTBCm7E/sVK3bkHEZcifNs+
J9EeeOyfMcnx5iIZ28SzR0OaGl+gHpDkXvXufPF9q2IBj/VNC97QIlaolc2uiHau
7roN8+RN2aD7aKCuFDuzh8G7AgMBAAGjgdswgdgwNAYIKwYBBQUHAQEEKDAmMCQG
CCsGAQUFBzABhhhodHRwOi8vb2NzcC52ZXJpc2lnbi5jb20wEgYDVR0TAQH/BAgw
BgEB/wIBADBBBgNVHR8EOjA4MDagNKAyhjBodHRwOi8vY3JsLnZlcmlzaWduLmNv
bS9UaGF3dGVUaW1lc3RhbXBpbmdDQS5jcmwwEwYDVR0lBAwwCgYIKwYBBQUHAwgw
DgYDVR0PAQH/BAQDAgEGMCQGA1UdEQQdMBukGTAXMRUwEwYDVQQDEwxUU0EyMDQ4
LTEtNTMwDQYJKoZIhvcNAQEFBQADgYEASmv56ljCRBwxiXmZK5a/gqwB1hxMzbCK
WG7fCCmjXsjKkxPnBFIN70cnLwA4sOTJk06a1CJiFfc/NyFPcDGA8Ys4h7Po6JcA
/s9Vlk4k0qknTnqut2FB8yrO58nZXt27K4U+tZ212eFX/760xX71zwye8Jf+K9M7
UhsbOCf3P0o=
-----END CERTIFICATE-----

Certificate:
    Data:
        Version: 3 (0x2)
        Serial Number:
            5c:46:2c:cb:37:03:ec:81:e4:f7:98:8b:39:d6:e7:92
    Signature Algorithm: sha1WithRSAEncryption
        Issuer: C=US, O=VeriSign, Inc., OU=VeriSign Trust Network, OU=Terms of use at https://www.verisign.com/rpa (c)10, CN=VeriSign Class 3 Code Signing 2010 CA
        Validity
            Not Before: Oct 24 00:00:00 2011 GMT
            Not After : Nov 23 23:59:59 2014 GMT
        Subject: C=DE, ST=Berlin, O=Magix AG, OU=Digital ID Class 3 - Microsoft Software Validation v2, CN=Magix AG
        Subject Public Key Info:
            Public Key Algorithm: rsaEncryption
                Public-Key: (2048 bit)
                Modulus:
                    00:ae:c7:98:68:09:ee:6e:03:40:5f:98:c1:a4:da:
                    a9:4b:2d:b2:ad:11:b1:83:35:57:c2:b1:3d:39:43:
                    a7:29:81:e6:ec:36:a4:7f:75:91:a6:d5:5c:e0:4a:
                    7a:d4:09:37:50:4b:ba:8a:7a:a5:21:05:10:5f:8a:
                    ae:9f:81:44:8a:44:4a:76:22:e8:1d:b6:ca:8f:03:
                    b6:15:b2:df:da:bf:73:09:67:e5:1b:1b:39:5f:8d:
                    19:56:0e:03:dd:58:d0:91:bc:a9:94:21:4e:9d:a0:
                    1e:43:59:a2:44:19:e2:36:b9:7a:aa:f5:e4:e7:3a:
                    a9:ef:54:7b:f8:9c:42:a8:68:0c:73:5f:ac:11:29:
                    21:87:ea:99:20:1f:1c:c0:fc:1d:a2:f3:1a:51:1c:
                    f8:dd:21:c8:79:90:f5:eb:c6:9d:2d:a2:e1:1f:41:
                    5c:99:43:22:2e:c6:4f:1c:d6:9a:c4:9f:65:29:30:
                    b1:c6:6d:19:7c:94:2e:2e:00:ce:b8:27:70:2c:29:
                    ac:e7:ba:a1:82:d8:6e:a8:3f:8a:6e:74:5e:44:c9:
                    61:16:2c:62:68:06:9f:d7:d3:b0:6c:f5:e9:92:d8:
                    77:5c:42:23:a4:93:f1:c2:a2:4f:88:59:ec:a1:78:
                    68:05:92:9b:7f:de:42:40:43:ca:50:fb:ca:76:c0:
                    ef:cf
                Exponent: 65537 (0x10001)
        X509v3 extensions:
            X509v3 Basic Constraints: 
                CA:FALSE
            X509v3 Key Usage: critical
                Digital Signature
            X509v3 CRL Distribution Points: 

                Full Name:
                  URI:http://csc3-2010-crl.verisign.com/CSC3-2010.crl

            X509v3 Certificate Policies: 
                Policy: 2.16.840.1.113733.1.7.23.3
                  CPS: https://www.verisign.com/rpa

            X509v3 Extended Key Usage: 
                Code Signing
            Authority Information Access: 
                OCSP - URI:http://ocsp.verisign.com
                CA Issuers - URI:http://csc3-2010-aia.verisign.com/CSC3-2010.cer

            X509v3 Authority Key Identifier: 
                keyid:CF:99:A9:EA:7B:26:F4:4B:C9:8E:8F:D7:F0:05:26:EF:E3:D2:A7:9D

            Netscape Cert Type: 
                Object Signing
            1.3.6.1.4.1.311.2.1.27: 
                0.......
    Signature Algorithm: sha1WithRSAEncryption
         b8:06:25:15:8b:da:68:66:c4:27:85:17:4f:9c:7f:5b:eb:89:
         86:e8:f0:57:01:27:35:de:ba:3f:66:e7:66:ca:85:69:8d:b8:
         d5:a4:5a:5c:ed:23:a4:d3:f6:25:da:38:9b:58:fe:49:e7:3a:
         0f:bb:12:45:5e:a3:42:01:17:5d:99:6b:2e:9c:a0:12:30:2e:
         b0:27:99:de:5e:e4:5f:7d:4f:8b:d2:e2:8d:8b:0b:5b:55:ce:
         e7:35:de:9b:1e:47:73:37:1e:f1:91:6a:cc:9b:2d:0a:35:db:
         62:e4:1c:27:fb:9f:9e:09:6c:4d:c1:d2:c6:8c:6f:7c:47:f1:
         4d:e7:dd:2a:05:4c:bf:5c:4f:7e:a0:db:f6:18:f7:c0:77:27:
         8d:35:ea:c4:e1:18:d3:2c:86:6e:fe:54:b1:5f:d5:f9:5a:da:
         be:4b:18:bb:70:ea:bc:62:99:b3:dd:f5:b5:08:12:e6:32:74:
         e2:36:cd:9a:7b:3e:74:db:58:ed:42:10:d0:2b:c2:36:f6:71:
         04:ce:b7:27:a6:05:d1:1f:e4:03:05:e3:74:8c:44:5c:88:f9:
         d4:78:14:c4:08:75:81:ee:86:68:87:56:a4:b5:6a:bd:90:5c:
         80:15:b9:58:b0:57:0b:3e:cb:c4:84:32:25:e4:cb:02:b0:9d:
         7a:b5:f7:11
-----BEGIN CERTIFICATE-----
MIIFQTCCBCmgAwIBAgIQXEYsyzcD7IHk95iLOdbnkjANBgkqhkiG9w0BAQUFADCB
tDELMAkGA1UEBhMCVVMxFzAVBgNVBAoTDlZlcmlTaWduLCBJbmMuMR8wHQYDVQQL
ExZWZXJpU2lnbiBUcnVzdCBOZXR3b3JrMTswOQYDVQQLEzJUZXJtcyBvZiB1c2Ug
YXQgaHR0cHM6Ly93d3cudmVyaXNpZ24uY29tL3JwYSAoYykxMDEuMCwGA1UEAxMl
VmVyaVNpZ24gQ2xhc3MgMyBDb2RlIFNpZ25pbmcgMjAxMCBDQTAeFw0xMTEwMjQw
MDAwMDBaFw0xNDExMjMyMzU5NTlaMIGEMQswCQYDVQQGEwJERTEPMA0GA1UECBMG
QmVybGluMREwDwYDVQQKFAhNYWdpeCBBRzE+MDwGA1UECxM1RGlnaXRhbCBJRCBD
bGFzcyAzIC0gTWljcm9zb2Z0IFNvZnR3YXJlIFZhbGlkYXRpb24gdjIxETAPBgNV
BAMUCE1hZ2l4IEFHMIIBIjANBgkqhkiG9w0BAQEFAAOCAQ8AMIIBCgKCAQEArseY
aAnubgNAX5jBpNqpSy2yrRGxgzVXwrE9OUOnKYHm7Dakf3WRptVc4Ep61Ak3UEu6
inqlIQUQX4qun4FEikRKdiLoHbbKjwO2FbLf2r9zCWflGxs5X40ZVg4D3VjQkbyp
lCFOnaAeQ1miRBniNrl6qvXk5zqp71R7+JxCqGgMc1+sESkhh+qZIB8cwPwdovMa
URz43SHIeZD168adLaLhH0FcmUMiLsZPHNaaxJ9lKTCxxm0ZfJQuLgDOuCdwLCms
57qhgthuqD+KbnReRMlhFixiaAaf19OwbPXpkth3XEIjpJPxwqJPiFnsoXhoBZKb
f95CQEPKUPvKdsDvzwIDAQABo4IBezCCAXcwCQYDVR0TBAIwADAOBgNVHQ8BAf8E
BAMCB4AwQAYDVR0fBDkwNzA1oDOgMYYvaHR0cDovL2NzYzMtMjAxMC1jcmwudmVy
aXNpZ24uY29tL0NTQzMtMjAxMC5jcmwwRAYDVR0gBD0wOzA5BgtghkgBhvhFAQcX
AzAqMCgGCCsGAQUFBwIBFhxodHRwczovL3d3dy52ZXJpc2lnbi5jb20vcnBhMBMG
A1UdJQQMMAoGCCsGAQUFBwMDMHEGCCsGAQUFBwEBBGUwYzAkBggrBgEFBQcwAYYY
aHR0cDovL29jc3AudmVyaXNpZ24uY29tMDsGCCsGAQUFBzAChi9odHRwOi8vY3Nj
My0yMDEwLWFpYS52ZXJpc2lnbi5jb20vQ1NDMy0yMDEwLmNlcjAfBgNVHSMEGDAW
gBTPmanqeyb0S8mOj9fwBSbv49KnnTARBglghkgBhvhCAQEEBAMCBBAwFgYKKwYB
BAGCNwIBGwQIMAYBAQABAf8wDQYJKoZIhvcNAQEFBQADggEBALgGJRWL2mhmxCeF
F0+cf1vriYbo8FcBJzXeuj9m52bKhWmNuNWkWlztI6TT9iXaOJtY/knnOg+7EkVe
o0IBF12Zay6coBIwLrAnmd5e5F99T4vS4o2LC1tVzuc13pseR3M3HvGRasybLQo1
22LkHCf7n54JbE3B0saMb3xH8U3n3SoFTL9cT36g2/YY98B3J4016sThGNMshm7+
VLFf1fla2r5LGLtw6rximbPd9bUIEuYydOI2zZp7PnTbWO1CENArwjb2cQTOtyem
BdEf5AMF43SMRFyI+dR4FMQIdYHuhmiHVqS1ar2QXIAVuViwVws+y8SEMiXkywKw
nXq19xE=
-----END CERTIFICATE-----

Certificate:
    Data:
        Version: 3 (0x2)
        Serial Number:
            52:00:e5:aa:25:56:fc:1a:86:ed:96:c9:d4:4b:33:c7
    Signature Algorithm: sha1WithRSAEncryption
        Issuer: C=US, O=VeriSign, Inc., OU=VeriSign Trust Network, OU=(c) 2006 VeriSign, Inc. - For authorized use only, CN=VeriSign Class 3 Public Primary Certification Authority - G5
        Validity
            Not Before: Feb  8 00:00:00 2010 GMT
            Not After : Feb  7 23:59:59 2020 GMT
        Subject: C=US, O=VeriSign, Inc., OU=VeriSign Trust Network, OU=Terms of use at https://www.verisign.com/rpa (c)10, CN=VeriSign Class 3 Code Signing 2010 CA
        Subject Public Key Info:
            Public Key Algorithm: rsaEncryption
                Public-Key: (2048 bit)
                Modulus:
                    00:f5:23:4b:5e:a5:d7:8a:bb:32:e9:d4:57:f7:ef:
                    e4:c7:26:7e:ad:19:98:fe:a8:9d:7d:94:f6:36:6b:
                    10:d7:75:81:30:7f:04:68:7f:cb:2b:75:1e:cd:1d:
                    08:8c:df:69:94:a7:37:a3:9c:7b:80:e0:99:e1:ee:
                    37:4d:5f:ce:3b:14:ee:86:d4:d0:f5:27:35:bc:25:
                    0b:38:a7:8c:63:9d:17:a3:08:a5:ab:b0:fb:cd:6a:
                    62:82:4c:d5:21:da:1b:d9:f1:e3:84:3b:8a:2a:4f:
                    85:5b:90:01:4f:c9:a7:76:10:7f:27:03:7c:be:ae:
                    7e:7d:c1:dd:f9:05:bc:1b:48:9c:69:e7:c0:a4:3c:
                    3c:41:00:3e:df:96:e5:c5:e4:94:71:d6:55:01:c7:
                    00:26:4a:40:3c:b5:a1:26:a9:0c:a7:6d:80:8e:90:
                    25:7b:cf:bf:3f:1c:eb:2f:96:fa:e5:87:77:c6:b5:
                    56:b2:7a:3b:54:30:53:1b:df:62:34:ff:1e:d1:f4:
                    5a:93:28:85:e5:4c:17:4e:7e:5b:fd:a4:93:99:7f:
                    df:cd:ef:a4:75:ef:ef:15:f6:47:e7:f8:19:72:d8:
                    2e:34:1a:a6:b4:a7:4c:7e:bd:bb:4f:0c:3d:57:f1:
                    30:d6:a6:36:8e:d6:80:76:d7:19:2e:a5:cd:7e:34:
                    2d:89
                Exponent: 65537 (0x10001)
        X509v3 extensions:
            X509v3 Basic Constraints: critical
                CA:TRUE, pathlen:0
            X509v3 Certificate Policies: 
                Policy: 2.16.840.1.113733.1.7.23.3
                  CPS: https://www.verisign.com/cps
                  User Notice:
                    Explicit Text: https://www.verisign.com/rpa

            X509v3 Key Usage: critical
                Certificate Sign, CRL Sign
            1.3.6.1.5.5.7.1.12: 
                0_.].[0Y0W0U..image/gif0!0.0...+..............k...j.H.,{..0%.#http://logo.verisign.com/vslogo.gif
            X509v3 CRL Distribution Points: 

                Full Name:
                  URI:http://crl.verisign.com/pca3-g5.crl

            Authority Information Access: 
                OCSP - URI:http://ocsp.verisign.com

            X509v3 Extended Key Usage: 
                TLS Web Client Authentication, Code Signing
            X509v3 Subject Alternative Name: 
                DirName:/CN=VeriSignMPKI-2-8
            X509v3 Subject Key Identifier: 
                CF:99:A9:EA:7B:26:F4:4B:C9:8E:8F:D7:F0:05:26:EF:E3:D2:A7:9D
            X509v3 Authority Key Identifier: 
                keyid:7F:D3:65:A7:C2:DD:EC:BB:F0:30:09:F3:43:39:FA:02:AF:33:31:33

    Signature Algorithm: sha1WithRSAEncryption
         56:22:e6:34:a4:c4:61:cb:48:b9:01:ad:56:a8:64:0f:d9:8c:
         91:c4:bb:cc:0c:e5:ad:7a:a0:22:7f:df:47:38:4a:2d:6c:d1:
         7f:71:1a:7c:ec:70:a9:b1:f0:4f:e4:0f:0c:53:fa:15:5e:fe:
         74:98:49:24:85:81:26:1c:91:14:47:b0:4c:63:8c:bb:a1:34:
         d4:c6:45:e8:0d:85:26:73:03:d0:a9:8c:64:6d:dc:71:92:e6:
         45:05:60:15:59:51:39:fc:58:14:6b:fe:d4:a4:ed:79:6b:08:
         0c:41:72:e7:37:22:06:09:be:23:e9:3f:44:9a:1e:e9:61:9d:
         cc:b1:90:5c:fc:3d:d2:8d:ac:42:3d:65:36:d4:b4:3d:40:28:
         8f:9b:10:cf:23:26:cc:4b:20:cb:90:1f:5d:8c:4c:34:ca:3c:
         d8:e5:37:d6:6f:a5:20:bd:34:eb:26:d9:ae:0d:e7:c5:9a:f7:
         a1:b4:21:91:33:6f:86:e8:58:bb:25:7c:74:0e:58:fe:75:1b:
         63:3f:ce:31:7c:9b:8f:1b:96:9e:c5:53:76:84:5b:9c:ad:91:
         fa:ac:ed:93:ba:5d:c8:21:53:c2:82:53:63:af:12:0d:50:87:
         11:1b:3d:54:52:96:8a:2c:9c:3d:92:1a:08:9a:05:2e:c7:93:
         a5:48:91:d3
-----BEGIN CERTIFICATE-----
MIIGCjCCBPKgAwIBAgIQUgDlqiVW/BqG7ZbJ1EszxzANBgkqhkiG9w0BAQUFADCB
yjELMAkGA1UEBhMCVVMxFzAVBgNVBAoTDlZlcmlTaWduLCBJbmMuMR8wHQYDVQQL
ExZWZXJpU2lnbiBUcnVzdCBOZXR3b3JrMTowOAYDVQQLEzEoYykgMjAwNiBWZXJp
U2lnbiwgSW5jLiAtIEZvciBhdXRob3JpemVkIHVzZSBvbmx5MUUwQwYDVQQDEzxW
ZXJpU2lnbiBDbGFzcyAzIFB1YmxpYyBQcmltYXJ5IENlcnRpZmljYXRpb24gQXV0
aG9yaXR5IC0gRzUwHhcNMTAwMjA4MDAwMDAwWhcNMjAwMjA3MjM1OTU5WjCBtDEL
MAkGA1UEBhMCVVMxFzAVBgNVBAoTDlZlcmlTaWduLCBJbmMuMR8wHQYDVQQLExZW
ZXJpU2lnbiBUcnVzdCBOZXR3b3JrMTswOQYDVQQLEzJUZXJtcyBvZiB1c2UgYXQg
aHR0cHM6Ly93d3cudmVyaXNpZ24uY29tL3JwYSAoYykxMDEuMCwGA1UEAxMlVmVy
aVNpZ24gQ2xhc3MgMyBDb2RlIFNpZ25pbmcgMjAxMCBDQTCCASIwDQYJKoZIhvcN
AQEBBQADggEPADCCAQoCggEBAPUjS16l14q7MunUV/fv5Mcmfq0ZmP6onX2U9jZr
ENd1gTB/BGh/yyt1Hs0dCIzfaZSnN6Oce4DgmeHuN01fzjsU7obU0PUnNbwlCzin
jGOdF6MIpauw+81qYoJM1SHaG9nx44Q7iipPhVuQAU/Jp3YQfycDfL6ufn3B3fkF
vBtInGnnwKQ8PEEAPt+W5cXklHHWVQHHACZKQDy1oSapDKdtgI6QJXvPvz8c6y+W
+uWHd8a1VrJ6O1QwUxvfYjT/HtH0WpMoheVMF05+W/2kk5l/383vpHXv7xX2R+f4
GXLYLjQaprSnTH69u08MPVfxMNamNo7WgHbXGS6lzX40LYkCAwEAAaOCAf4wggH6
MBIGA1UdEwEB/wQIMAYBAf8CAQAwcAYDVR0gBGkwZzBlBgtghkgBhvhFAQcXAzBW
MCgGCCsGAQUFBwIBFhxodHRwczovL3d3dy52ZXJpc2lnbi5jb20vY3BzMCoGCCsG
AQUFBwICMB4aHGh0dHBzOi8vd3d3LnZlcmlzaWduLmNvbS9ycGEwDgYDVR0PAQH/
BAQDAgEGMG0GCCsGAQUFBwEMBGEwX6FdoFswWTBXMFUWCWltYWdlL2dpZjAhMB8w
BwYFKw4DAhoEFI/l0xqGrI2Oa8PPgGrUSBgsexkuMCUWI2h0dHA6Ly9sb2dvLnZl
cmlzaWduLmNvbS92c2xvZ28uZ2lmMDQGA1UdHwQtMCswKaAnoCWGI2h0dHA6Ly9j
cmwudmVyaXNpZ24uY29tL3BjYTMtZzUuY3JsMDQGCCsGAQUFBwEBBCgwJjAkBggr
BgEFBQcwAYYYaHR0cDovL29jc3AudmVyaXNpZ24uY29tMB0GA1UdJQQWMBQGCCsG
AQUFBwMCBggrBgEFBQcDAzAoBgNVHREEITAfpB0wGzEZMBcGA1UEAxMQVmVyaVNp
Z25NUEtJLTItODAdBgNVHQ4EFgQUz5mp6nsm9EvJjo/X8AUm7+PSp50wHwYDVR0j
BBgwFoAUf9Nlp8Ld7LvwMAnzQzn6Aq8zMTMwDQYJKoZIhvcNAQEFBQADggEBAFYi
5jSkxGHLSLkBrVaoZA/ZjJHEu8wM5a16oCJ/30c4Si1s0X9xGnzscKmx8E/kDwxT
+hVe/nSYSSSFgSYckRRHsExjjLuhNNTGRegNhSZzA9CpjGRt3HGS5kUFYBVZUTn8
WBRr/tSk7XlrCAxBcuc3IgYJviPpP0SaHulhncyxkFz8PdKNrEI9ZTbUtD1AKI+b
EM8jJsxLIMuQH12MTDTKPNjlN9ZvpSC9NOsm2a4N58Wa96G0IZEzb4boWLslfHQO
WP51G2M/zjF8m48blp7FU3aEW5ytkfqs7ZO6XcghU8KCU2OvEg1QhxEbPVRSloos
nD2SGgiaBS7Hk6VIkdM=
-----END CERTIFICATE-----

