Certificate:
    Data:
        Version: 3 (0x2)
        Serial Number: 1 (0x1)
    Signature Algorithm: md5WithRSAEncryption
        Issuer: C=ZA, ST=Western Cape, L=Cape Town, O=Thawte Consulting cc, OU=Certification Services Division, CN=Thawte Premium Server CA/emailAddress=premium-server@thawte.com
        Validity
            Not Before: Aug  1 00:00:00 1996 GMT
            Not After : Dec 31 23:59:59 2020 GMT
        Subject: C=ZA, ST=Western Cape, L=Cape Town, O=Thawte Consulting cc, OU=Certification Services Division, CN=Thawte Premium Server CA/emailAddress=premium-server@thawte.com
        Subject Public Key Info:
            Public Key Algorithm: rsaEncryption
                Public-Key: (1024 bit)
                Modulus:
                    00:d2:36:36:6a:8b:d7:c2:5b:9e:da:81:41:62:8f:
                    38:ee:49:04:55:d6:d0:ef:1c:1b:95:16:47:ef:18:
                    48:35:3a:52:f4:2b:6a:06:8f:3b:2f:ea:56:e3:af:
                    86:8d:9e:17:f7:9e:b4:65:75:02:4d:ef:cb:09:a2:
                    21:51:d8:9b:d0:67:d0:ba:0d:92:06:14:73:d4:93:
                    cb:97:2a:00:9c:5c:4e:0c:bc:fa:15:52:fc:f2:44:
                    6e:da:11:4a:6e:08:9f:2f:2d:e3:f9:aa:3a:86:73:
                    b6:46:53:58:c8:89:05:bd:83:11:b8:73:3f:aa:07:
                    8d:f4:42:4d:e7:40:9d:1c:37
                Exponent: 65537 (0x10001)
        X509v3 extensions:
            X509v3 Basic Constraints: critical
                CA:TRUE
    Signature Algorithm: md5WithRSAEncryption
         26:48:2c:16:c2:58:fa:e8:16:74:0c:aa:aa:5f:54:3f:f2:d7:
         c9:78:60:5e:5e:6e:37:63:22:77:36:7e:b2:17:c4:34:b9:f5:
         08:85:fc:c9:01:38:ff:4d:be:f2:16:42:43:e7:bb:5a:46:fb:
         c1:c6:11:1f:f1:4a:b0:28:46:c9:c3:c4:42:7d:bc:fa:ab:59:
         6e:d5:b7:51:88:11:e3:a4:85:19:6b:82:4c:a4:0c:12:ad:e9:
         a4:ae:3f:f1:c3:49:65:9a:8c:c5:c8:3e:25:b7:94:99:bb:92:
         32:71:07:f0:86:5e:ed:50:27:a6:0d:a6:23:f9:bb:cb:a6:07:
         14:42
-----BEGIN CERTIFICATE-----
MIIDJzCCApCgAwIBAgIBATANBgkqhkiG9w0BAQQFADCBzjELMAkGA1UEBhMCWkEx
FTATBgNVBAgTDFdlc3Rlcm4gQ2FwZTESMBAGA1UEBxMJQ2FwZSBUb3duMR0wGwYD
VQQKExRUaGF3dGUgQ29uc3VsdGluZyBjYzEoMCYGA1UECxMfQ2VydGlmaWNhdGlv
biBTZXJ2aWNlcyBEaXZpc2lvbjEhMB8GA1UEAxMYVGhhd3RlIFByZW1pdW0gU2Vy
dmVyIENBMSgwJgYJKoZIhvcNAQkBFhlwcmVtaXVtLXNlcnZlckB0aGF3dGUuY29t
MB4XDTk2MDgwMTAwMDAwMFoXDTIwMTIzMTIzNTk1OVowgc4xCzAJBgNVBAYTAlpB
MRUwEwYDVQQIEwxXZXN0ZXJuIENhcGUxEjAQBgNVBAcTCUNhcGUgVG93bjEdMBsG
A1UEChMUVGhhd3RlIENvbnN1bHRpbmcgY2MxKDAmBgNVBAsTH0NlcnRpZmljYXRp
b24gU2VydmljZXMgRGl2aXNpb24xITAfBgNVBAMTGFRoYXd0ZSBQcmVtaXVtIFNl
cnZlciBDQTEoMCYGCSqGSIb3DQEJARYZcHJlbWl1bS1zZXJ2ZXJAdGhhd3RlLmNv
bTCBnzANBgkqhkiG9w0BAQEFAAOBjQAwgYkCgYEA0jY2aovXwlue2oFBYo847kkE
VdbQ7xwblRZH7xhINTpS9CtqBo87L+pW46+GjZ4X9560ZXUCTe/LCaIhUdib0GfQ
ug2SBhRz1JPLlyoAnFxODLz6FVL88kRu2hFKbgifLy3j+ao6hnO2RlNYyIkFvYMR
uHM/qgeN9EJN50CdHDcCAwEAAaMTMBEwDwYDVR0TAQH/BAUwAwEB/zANBgkqhkiG
9w0BAQQFAAOBgQAmSCwWwlj66BZ0DKqqX1Q/8tfJeGBeXm43YyJ3Nn6yF8Q0ufUI
hfzJATj/Tb7yFkJD57taRvvBxhEf8UqwKEbJw8RCfbz6q1lu1bdRiBHjpIUZa4JM
pAwSremkrj/xw0llmozFyD4lt5SZu5IycQfwhl7tUCemDaYj+bvLpgcUQg==
-----END CERTIFICATE-----

Certificate:
    Data:
        Version: 3 (0x2)
        Serial Number: 10 (0xa)
    Signature Algorithm: sha1WithRSAEncryption
        Issuer: C=ZA, ST=Western Cape, L=Cape Town, O=Thawte Consulting cc, OU=Certification Services Division, CN=Thawte Premium Server CA/emailAddress=premium-server@thawte.com
        Validity
            Not Before: Aug  6 00:00:00 2003 GMT
            Not After : Aug  5 23:59:59 2013 GMT
        Subject: C=ZA, O=Thawte Consulting (Pty) Ltd., CN=Thawte Code Signing CA
        Subject Public Key Info:
            Public Key Algorithm: rsaEncryption
                Public-Key: (1024 bit)
                Modulus:
                    00:c6:b8:b9:27:60:af:0b:e3:91:69:65:db:7e:8d:
                    ed:91:e6:aa:f1:be:d5:ed:fe:6d:d4:2c:7f:d1:70:
                    77:fb:26:99:57:b4:dd:3f:30:b8:dc:21:ea:68:8d:
                    81:92:fc:2e:4b:91:35:84:20:f2:da:4a:ba:b4:fc:
                    e6:da:88:f2:20:c5:21:92:09:47:95:a0:09:1c:a6:
                    79:be:b1:4c:1d:fc:f1:8a:6e:54:d2:69:a1:f1:4c:
                    93:3a:41:fe:7d:d4:64:7b:63:45:f7:60:60:1d:31:
                    1d:a4:e9:d3:0f:8b:fb:6e:26:24:b3:a8:ff:e5:e5:
                    90:d4:b4:c2:dc:50:60:ae:59
                Exponent: 65537 (0x10001)
        X509v3 extensions:
            X509v3 Basic Constraints: critical
                CA:TRUE, pathlen:0
            X509v3 CRL Distribution Points: 

                Full Name:
                  URI:http://crl.thawte.com/ThawtePremiumServerCA.crl

            X509v3 Extended Key Usage: 
                TLS Web Client Authentication, Code Signing
            X509v3 Key Usage: critical
                Certificate Sign, CRL Sign
            X509v3 Subject Alternative Name: 
                DirName:/CN=PrivateLabel2-144
    Signature Algorithm: sha1WithRSAEncryption
         76:b2:9c:ee:13:9f:1b:f6:2d:34:92:94:45:73:34:dc:8e:6b:
         2e:5c:fc:4c:7d:89:eb:c3:68:f1:d7:99:0f:2e:1d:17:c8:b5:
         16:8b:be:cd:8a:05:06:f2:19:49:3a:03:5b:05:c9:20:8e:6d:
         52:e1:76:81:a0:c3:65:8a:22:67:e4:1c:53:53:37:46:bf:bc:
         d7:2f:eb:7b:9e:d0:14:45:6c:40:21:08:e2:5d:75:76:66:30:
         1e:f4:df:82:8a:2f:bd:f3:a2:0c:bf:1d:db:9f:14:a2:9a:72:
         37:4d:b0:77:48:e8:4a:3f:09:ce:55:19:2c:ef:e6:07:24:e1:
         af:ec
-----BEGIN CERTIFICATE-----
MIIDTjCCAregAwIBAgIBCjANBgkqhkiG9w0BAQUFADCBzjELMAkGA1UEBhMCWkEx
FTATBgNVBAgTDFdlc3Rlcm4gQ2FwZTESMBAGA1UEBxMJQ2FwZSBUb3duMR0wGwYD
VQQKExRUaGF3dGUgQ29uc3VsdGluZyBjYzEoMCYGA1UECxMfQ2VydGlmaWNhdGlv
biBTZXJ2aWNlcyBEaXZpc2lvbjEhMB8GA1UEAxMYVGhhd3RlIFByZW1pdW0gU2Vy
dmVyIENBMSgwJgYJKoZIhvcNAQkBFhlwcmVtaXVtLXNlcnZlckB0aGF3dGUuY29t
MB4XDTAzMDgwNjAwMDAwMFoXDTEzMDgwNTIzNTk1OVowVTELMAkGA1UEBhMCWkEx
JTAjBgNVBAoTHFRoYXd0ZSBDb25zdWx0aW5nIChQdHkpIEx0ZC4xHzAdBgNVBAMT
FlRoYXd0ZSBDb2RlIFNpZ25pbmcgQ0EwgZ8wDQYJKoZIhvcNAQEBBQADgY0AMIGJ
AoGBAMa4uSdgrwvjkWll236N7ZHmqvG+1e3+bdQsf9Fwd/smmVe03T8wuNwh6miN
gZL8LkuRNYQg8tpKurT85tqI8iDFIZIJR5WgCRymeb6xTB388YpuVNJpofFMkzpB
/n3UZHtjRfdgYB0xHaTp0w+L+24mJLOo/+XlkNS0wtxQYK5ZAgMBAAGjgbMwgbAw
EgYDVR0TAQH/BAgwBgEB/wIBADBABgNVHR8EOTA3MDWgM6Axhi9odHRwOi8vY3Js
LnRoYXd0ZS5jb20vVGhhd3RlUHJlbWl1bVNlcnZlckNBLmNybDAdBgNVHSUEFjAU
BggrBgEFBQcDAgYIKwYBBQUHAwMwDgYDVR0PAQH/BAQDAgEGMCkGA1UdEQQiMCCk
HjAcMRowGAYDVQQDExFQcml2YXRlTGFiZWwyLTE0NDANBgkqhkiG9w0BAQUFAAOB
gQB2spzuE58b9i00kpRFczTcjmsuXPxMfYnrw2jx15kPLh0XyLUWi77NigUG8hlJ
OgNbBckgjm1S4XaBoMNliiJn5BxTUzdGv7zXL+t7ntAURWxAIQjiXXV2ZjAe9N+C
ii+986IMvx3bnxSimnI3TbB3SOhKPwnOVRks7+YHJOGv7A==
-----END CERTIFICATE-----

Certificate:
    Data:
        Version: 3 (0x2)
        Serial Number:
            47:bf:19:95:df:8d:52:46:43:f7:db:6d:48:0d:31:a4
    Signature Algorithm: sha1WithRSAEncryption
        Issuer: C=ZA, ST=Western Cape, L=Durbanville, O=Thawte, OU=Thawte Certification, CN=Thawte Timestamping CA
        Validity
            Not Before: Dec  4 00:00:00 2003 GMT
            Not After : Dec  3 23:59:59 2013 GMT
        Subject: C=US, O=VeriSign, Inc., CN=VeriSign Time Stamping Services CA
        Subject Public Key Info:
            Public Key Algorithm: rsaEncryption
                Public-Key: (2048 bit)
                Modulus:
                    00:a9:ca:b2:a4:cc:cd:20:af:0a:7d:89:ac:87:75:
                    f0:b4:4e:f1:df:c1:0f:bf:67:61:bd:a3:64:1c:da:
                    bb:f9:ca:33:ab:84:30:89:58:7e:8c:db:6b:dd:36:
                    9e:0f:bf:d1:ec:78:f2:77:a6:7e:6f:3c:bf:93:af:
                    0d:ba:68:f4:6c:94:ca:bd:52:2d:ab:48:3d:f5:b6:
                    d5:5d:5f:1b:02:9f:fa:2f:6b:1e:a4:f7:a3:9a:a6:
                    1a:c8:02:e1:7f:4c:52:e3:0e:60:ec:40:1c:7e:b9:
                    0d:de:3f:c7:b4:df:87:bd:5f:7a:6a:31:2e:03:99:
                    81:13:a8:47:20:ce:31:73:0d:57:2d:cd:78:34:33:
                    95:12:99:12:b9:de:68:2f:aa:e6:e3:c2:8a:8c:2a:
                    c3:8b:21:87:66:bd:83:58:57:6f:75:bf:3c:aa:26:
                    87:5d:ca:10:15:3c:9f:84:ea:54:c1:0a:6e:c4:fe:
                    c5:4a:dd:b9:07:11:97:22:7c:db:3e:27:d1:1e:78:
                    ec:9f:31:c9:f1:e6:22:19:db:c4:b3:47:43:9a:1a:
                    5f:a0:1e:90:e4:5e:f5:ee:7c:f1:7d:ab:62:01:8f:
                    f5:4d:0b:de:d0:22:56:a8:95:cd:ae:88:76:ae:ee:
                    ba:0d:f3:e4:4d:d9:a0:fb:68:a0:ae:14:3b:b3:87:
                    c1:bb
                Exponent: 65537 (0x10001)
        X509v3 extensions:
            Authority Information Access: 
                OCSP - URI:http://ocsp.verisign.com

            X509v3 Basic Constraints: critical
                CA:TRUE, pathlen:0
            X509v3 CRL Distribution Points: 

                Full Name:
                  URI:http://crl.verisign.com/ThawteTimestampingCA.crl

            X509v3 Extended Key Usage: 
                Time Stamping
            X509v3 Key Usage: critical
                Certificate Sign, CRL Sign
            X509v3 Subject Alternative Name: 
                DirName:/CN=TSA2048-1-53
    Signature Algorithm: sha1WithRSAEncryption
         4a:6b:f9:ea:58:c2:44:1c:31:89:79:99:2b:96:bf:82:ac:01:
         d6:1c:4c:cd:b0:8a:58:6e:df:08:29:a3:5e:c8:ca:93:13:e7:
         04:52:0d:ef:47:27:2f:00:38:b0:e4:c9:93:4e:9a:d4:22:62:
         15:f7:3f:37:21:4f:70:31:80:f1:8b:38:87:b3:e8:e8:97:00:
         fe:cf:55:96:4e:24:d2:a9:27:4e:7a:ae:b7:61:41:f3:2a:ce:
         e7:c9:d9:5e:dd:bb:2b:85:3e:b5:9d:b5:d9:e1:57:ff:be:b4:
         c5:7e:f5:cf:0c:9e:f0:97:fe:2b:d3:3b:52:1b:1b:38:27:f7:
         3f:4a
-----BEGIN CERTIFICATE-----
MIIDxDCCAy2gAwIBAgIQR78Zld+NUkZD99ttSA0xpDANBgkqhkiG9w0BAQUFADCB
izELMAkGA1UEBhMCWkExFTATBgNVBAgTDFdlc3Rlcm4gQ2FwZTEUMBIGA1UEBxML
RHVyYmFudmlsbGUxDzANBgNVBAoTBlRoYXd0ZTEdMBsGA1UECxMUVGhhd3RlIENl
cnRpZmljYXRpb24xHzAdBgNVBAMTFlRoYXd0ZSBUaW1lc3RhbXBpbmcgQ0EwHhcN
MDMxMjA0MDAwMDAwWhcNMTMxMjAzMjM1OTU5WjBTMQswCQYDVQQGEwJVUzEXMBUG
A1UEChMOVmVyaVNpZ24sIEluYy4xKzApBgNVBAMTIlZlcmlTaWduIFRpbWUgU3Rh
bXBpbmcgU2VydmljZXMgQ0EwggEiMA0GCSqGSIb3DQEBAQUAA4IBDwAwggEKAoIB
AQCpyrKkzM0grwp9iayHdfC0TvHfwQ+/Z2G9o2Qc2rv5yjOrhDCJWH6M22vdNp4P
v9HsePJ3pn5vPL+Trw26aPRslMq9Ui2rSD31ttVdXxsCn/ovax6k96OaphrIAuF/
TFLjDmDsQBx+uQ3eP8e034e9X3pqMS4DmYETqEcgzjFzDVctzXg0M5USmRK53mgv
qubjwoqMKsOLIYdmvYNYV291vzyqJoddyhAVPJ+E6lTBCm7E/sVK3bkHEZcifNs+
J9EeeOyfMcnx5iIZ28SzR0OaGl+gHpDkXvXufPF9q2IBj/VNC97QIlaolc2uiHau
7roN8+RN2aD7aKCuFDuzh8G7AgMBAAGjgdswgdgwNAYIKwYBBQUHAQEEKDAmMCQG
CCsGAQUFBzABhhhodHRwOi8vb2NzcC52ZXJpc2lnbi5jb20wEgYDVR0TAQH/BAgw
BgEB/wIBADBBBgNVHR8EOjA4MDagNKAyhjBodHRwOi8vY3JsLnZlcmlzaWduLmNv
bS9UaGF3dGVUaW1lc3RhbXBpbmdDQS5jcmwwEwYDVR0lBAwwCgYIKwYBBQUHAwgw
DgYDVR0PAQH/BAQDAgEGMCQGA1UdEQQdMBukGTAXMRUwEwYDVQQDEwxUU0EyMDQ4
LTEtNTMwDQYJKoZIhvcNAQEFBQADgYEASmv56ljCRBwxiXmZK5a/gqwB1hxMzbCK
WG7fCCmjXsjKkxPnBFIN70cnLwA4sOTJk06a1CJiFfc/NyFPcDGA8Ys4h7Po6JcA
/s9Vlk4k0qknTnqut2FB8yrO58nZXt27K4U+tZ212eFX/760xX71zwye8Jf+K9M7
UhsbOCf3P0o=
-----END CERTIFICATE-----

Certificate:
    Data:
        Version: 3 (0x2)
        Serial Number:
            35:19:8a:09:f8:df:1a:89:a8:00:16:d1:4d:27:25:99
    Signature Algorithm: sha1WithRSAEncryption
        Issuer: C=ZA, O=Thawte Consulting (Pty) Ltd., CN=Thawte Code Signing CA
        Validity
            Not Before: Dec 14 09:28:33 2006 GMT
            Not After : Dec 14 09:28:33 2007 GMT
        Subject: C=KR, ST=Gwangmyeong-si , L=KyoungGi-do, O=PopFolder, OU=Software Development Department, CN=PopFolder
        Subject Public Key Info:
            Public Key Algorithm: rsaEncryption
                Public-Key: (2048 bit)
                Modulus:
                    00:ac:a0:b1:a9:2a:c4:15:36:42:ae:b3:6e:70:b8:
                    71:12:17:a8:04:37:2c:42:4c:5a:0d:6a:cb:a4:3b:
                    ab:fa:77:d3:13:d3:eb:49:5a:45:fc:99:74:5e:cd:
                    b0:88:3a:93:a1:84:38:09:6f:c9:6d:17:d7:ee:fb:
                    40:6e:c5:53:fc:4a:db:e3:29:ce:f7:4b:a2:26:39:
                    ef:fc:ee:dd:41:05:76:34:e0:a0:db:a5:c5:a1:d3:
                    71:87:94:4e:a0:0e:8f:f0:95:27:d1:3b:e3:18:41:
                    a9:54:20:76:10:e4:7f:16:1b:4e:9f:75:ed:8b:a1:
                    9e:4d:f4:74:cb:1c:3a:c1:89:83:82:c8:08:9d:a1:
                    10:1c:b2:1b:5f:fe:e0:8d:f2:06:44:72:71:fe:99:
                    fa:c6:ae:ec:7b:c2:55:44:13:5c:7c:ce:f4:b0:a8:
                    94:4c:0e:17:56:0e:7b:2a:f0:07:97:09:73:61:ea:
                    86:d9:02:3e:75:2f:0e:52:ee:24:72:a9:71:03:e1:
                    fa:d6:fc:9f:f2:59:b5:4c:da:35:f3:09:40:d2:df:
                    7c:9b:08:1f:3d:de:5e:2d:ca:93:8c:ac:c9:89:cd:
                    b0:f0:88:70:a3:29:ff:d0:f0:0b:87:56:98:77:0c:
                    2d:50:f7:82:60:39:33:2a:4f:ad:42:83:e3:12:70:
                    aa:3d
                Exponent: 65537 (0x10001)
        X509v3 extensions:
            X509v3 Extended Key Usage: 
                Code Signing, Microsoft Commercial Code Signing
            Netscape Cert Type: 
                Object Signing
            2.5.29.4: 
                0.0.0..
+.....7.......
            X509v3 Subject Alternative Name: 
                DNS:www.seenfeel.com
            X509v3 CRL Distribution Points: 

                Full Name:
                  URI:http://crl.thawte.com/ThawteCodeSigningCA.crl

            Authority Information Access: 
                OCSP - URI:http://ocsp.thawte.com

            X509v3 Basic Constraints: critical
                CA:FALSE
    Signature Algorithm: sha1WithRSAEncryption
         1d:43:97:f9:99:b9:0e:47:06:98:0e:f6:24:64:20:41:8a:6d:
         9a:11:76:39:11:16:38:6b:c9:07:4a:83:0a:2a:63:84:bf:94:
         69:a0:de:5b:90:5a:ab:65:86:26:b6:9b:40:ad:a7:d1:20:66:
         37:0c:c5:e6:95:86:06:cd:61:58:66:81:e7:e6:5b:31:ac:d2:
         b6:28:55:21:52:0d:36:89:79:8a:2e:80:ca:b5:bc:89:32:03:
         bb:19:b9:80:6f:d6:8e:1d:d3:78:58:15:2c:24:8e:34:84:ed:
         fd:e9:b2:f7:55:dd:8f:e2:74:09:2a:7c:46:ee:68:37:47:e3:
         1b:9f
-----BEGIN CERTIFICATE-----
MIID5DCCA02gAwIBAgIQNRmKCfjfGomoABbRTSclmTANBgkqhkiG9w0BAQUFADBV
MQswCQYDVQQGEwJaQTElMCMGA1UEChMcVGhhd3RlIENvbnN1bHRpbmcgKFB0eSkg
THRkLjEfMB0GA1UEAxMWVGhhd3RlIENvZGUgU2lnbmluZyBDQTAeFw0wNjEyMTQw
OTI4MzNaFw0wNzEyMTQwOTI4MzNaMIGPMQswCQYDVQQGEwJLUjEYMBYGA1UECBMP
R3dhbmdteWVvbmctc2kgMRQwEgYDVQQHEwtLeW91bmdHaS1kbzESMBAGA1UEChMJ
UG9wRm9sZGVyMSgwJgYDVQQLEx9Tb2Z0d2FyZSBEZXZlbG9wbWVudCBEZXBhcnRt
ZW50MRIwEAYDVQQDEwlQb3BGb2xkZXIwggEiMA0GCSqGSIb3DQEBAQUAA4IBDwAw
ggEKAoIBAQCsoLGpKsQVNkKus25wuHESF6gENyxCTFoNasukO6v6d9MT0+tJWkX8
mXRezbCIOpOhhDgJb8ltF9fu+0BuxVP8StvjKc73S6ImOe/87t1BBXY04KDbpcWh
03GHlE6gDo/wlSfRO+MYQalUIHYQ5H8WG06fde2LoZ5N9HTLHDrBiYOCyAidoRAc
shtf/uCN8gZEcnH+mfrGrux7wlVEE1x8zvSwqJRMDhdWDnsq8AeXCXNh6obZAj51
Lw5S7iRyqXED4frW/J/yWbVM2jXzCUDS33ybCB893l4typOMrMmJzbDwiHCjKf/Q
8AuHVph3DC1Q94JgOTMqT61Cg+MScKo9AgMBAAGjgfUwgfIwHwYDVR0lBBgwFgYI
KwYBBQUHAwMGCisGAQQBgjcCARYwEQYJYIZIAYb4QgEBBAQDAgQQMB0GA1UdBAQW
MBQwDjAMBgorBgEEAYI3AgEWAwIHgDAbBgNVHREEFDASghB3d3cuc2VlbmZlZWwu
Y29tMD4GA1UdHwQ3MDUwM6AxoC+GLWh0dHA6Ly9jcmwudGhhd3RlLmNvbS9UaGF3
dGVDb2RlU2lnbmluZ0NBLmNybDAyBggrBgEFBQcBAQQmMCQwIgYIKwYBBQUHMAGG
Fmh0dHA6Ly9vY3NwLnRoYXd0ZS5jb20wDAYDVR0TAQH/BAIwADANBgkqhkiG9w0B
AQUFAAOBgQAdQ5f5mbkORwaYDvYkZCBBim2aEXY5ERY4a8kHSoMKKmOEv5RpoN5b
kFqrZYYmtptArafRIGY3DMXmlYYGzWFYZoHn5lsxrNK2KFUhUg02iXmKLoDKtbyJ
MgO7GbmAb9aOHdN4WBUsJI40hO396bL3Vd2P4nQJKnxG7mg3R+Mbnw==
-----END CERTIFICATE-----

Certificate:
    Data:
        Version: 3 (0x2)
        Serial Number:
            0d:e9:2b:f0:d4:d8:29:88:18:32:05:09:5e:9a:76:88
    Signature Algorithm: sha1WithRSAEncryption
        Issuer: C=US, O=VeriSign, Inc., CN=VeriSign Time Stamping Services CA
        Validity
            Not Before: Dec  4 00:00:00 2003 GMT
            Not After : Dec  3 23:59:59 2008 GMT
        Subject: C=US, O=VeriSign, Inc., CN=VeriSign Time Stamping Services Signer
        Subject Public Key Info:
            Public Key Algorithm: rsaEncryption
                Public-Key: (2048 bit)
                Modulus:
                    00:b2:50:28:48:dd:d3:68:7a:84:18:44:66:75:5d:
                    7e:c4:b8:9f:63:26:ff:3d:43:9c:7c:11:38:10:25:
                    55:73:d9:75:27:69:fd:4e:b9:20:5c:d3:0a:f9:a0:
                    1b:2a:ed:55:56:21:61:d8:1e:db:e4:bc:33:6b:c7:
                    ef:dd:a3:37:65:8e:1b:93:0c:b6:53:1e:5c:7c:66:
                    35:5f:05:8a:45:fe:76:4e:df:53:80:a2:81:20:9d:
                    ae:88:5c:a2:08:f7:e5:30:f9:ee:22:37:4c:42:0a:
                    ce:df:c6:1f:c4:d6:55:e9:81:3f:b5:52:a3:2c:aa:
                    01:7a:f2:a2:aa:8d:35:fe:9f:e6:5d:6a:05:9f:3d:
                    6b:e3:bf:96:c0:fe:cc:60:f9:40:e7:07:a0:44:eb:
                    81:51:6e:a5:2a:f2:b6:8a:10:28:ed:8f:dc:06:a0:
                    86:50:9a:7b:4a:08:0d:30:1d:ca:10:9e:6b:f7:e9:
                    58:ae:04:a9:40:99:b2:28:e8:8f:16:ac:3c:e3:53:
                    6f:4b:d3:35:9d:b5:6f:64:1d:b3:96:2c:bb:3d:e7:
                    79:eb:6d:7a:f9:16:e6:26:ad:af:ef:99:53:b7:40:
                    2c:95:b8:79:aa:fe:d4:52:ab:29:74:7e:42:ec:39:
                    1e:a2:6a:16:e6:59:bb:24:68:d8:00:80:43:10:87:
                    80:6b
                Exponent: 65537 (0x10001)
        X509v3 extensions:
            Authority Information Access: 
                OCSP - URI:http://ocsp.verisign.com

            X509v3 Basic Constraints: critical
                CA:FALSE
            X509v3 CRL Distribution Points: 

                Full Name:
                  URI:http://crl.verisign.com/tss-ca.crl

            X509v3 Extended Key Usage: critical
                Time Stamping
            X509v3 Key Usage: critical
                Digital Signature, Non Repudiation
            X509v3 Subject Alternative Name: 
                DirName:/CN=TSA2048-1-54
    Signature Algorithm: sha1WithRSAEncryption
         87:78:70:da:4e:52:01:20:5b:e0:79:c9:82:30:c4:fd:b9:19:
         96:bd:91:00:c3:bd:cd:cd:c6:f4:0e:d8:ff:f9:4d:c0:33:62:
         30:11:c5:f5:74:1b:d4:92:de:5f:9c:20:13:b1:7c:45:be:50:
         cd:83:e7:80:17:83:a7:27:93:67:13:46:fb:ca:b8:98:41:03:
         cc:9b:51:5b:05:8b:7f:a8:6f:f3:1b:50:1b:24:2e:f2:69:8d:
         6c:22:f7:bb:ca:16:95:ed:0c:74:c0:68:77:d9:eb:99:62:87:
         c1:73:90:f8:89:74:7a:23:ab:a3:98:7b:97:b1:f7:8f:29:71:
         4d:2e:75:1b:48:41:da:f0:b5:0d:20:54:d6:77:a0:97:82:63:
         69:fd:09:cf:8a:f0:75:bb:09:9b:d9:f9:11:55:26:9a:61:32:
         be:7a:02:b0:7b:86:be:a2:c3:8b:22:2c:78:d1:35:76:bc:92:
         73:5c:f9:b9:e6:4c:15:0a:23:cc:e4:d2:d4:34:2e:49:40:15:
         3c:0f:60:7a:24:c6:a5:66:ef:96:cf:70:eb:3e:e7:f4:0d:7e:
         dc:d1:7c:a3:76:71:69:c1:9c:4f:47:30:35:21:b1:a2:af:1a:
         62:3c:2b:d9:8e:aa:2a:07:7b:d8:18:b3:5c:7b:e2:9d:a5:6f:
         fe:3c:89:ad
-----BEGIN CERTIFICATE-----
MIID/zCCAuegAwIBAgIQDekr8NTYKYgYMgUJXpp2iDANBgkqhkiG9w0BAQUFADBT
MQswCQYDVQQGEwJVUzEXMBUGA1UEChMOVmVyaVNpZ24sIEluYy4xKzApBgNVBAMT
IlZlcmlTaWduIFRpbWUgU3RhbXBpbmcgU2VydmljZXMgQ0EwHhcNMDMxMjA0MDAw
MDAwWhcNMDgxMjAzMjM1OTU5WjBXMQswCQYDVQQGEwJVUzEXMBUGA1UEChMOVmVy
aVNpZ24sIEluYy4xLzAtBgNVBAMTJlZlcmlTaWduIFRpbWUgU3RhbXBpbmcgU2Vy
dmljZXMgU2lnbmVyMIIBIjANBgkqhkiG9w0BAQEFAAOCAQ8AMIIBCgKCAQEAslAo
SN3TaHqEGERmdV1+xLifYyb/PUOcfBE4ECVVc9l1J2n9TrkgXNMK+aAbKu1VViFh
2B7b5Lwza8fv3aM3ZY4bkwy2Ux5cfGY1XwWKRf52Tt9TgKKBIJ2uiFyiCPflMPnu
IjdMQgrO38YfxNZV6YE/tVKjLKoBevKiqo01/p/mXWoFnz1r47+WwP7MYPlA5weg
ROuBUW6lKvK2ihAo7Y/cBqCGUJp7SggNMB3KEJ5r9+lYrgSpQJmyKOiPFqw841Nv
S9M1nbVvZB2zliy7Ped56216+RbmJq2v75lTt0Aslbh5qv7UUqspdH5C7DkeomoW
5lm7JGjYAIBDEIeAawIDAQABo4HKMIHHMDQGCCsGAQUFBwEBBCgwJjAkBggrBgEF
BQcwAYYYaHR0cDovL29jc3AudmVyaXNpZ24uY29tMAwGA1UdEwEB/wQCMAAwMwYD
VR0fBCwwKjAooCagJIYiaHR0cDovL2NybC52ZXJpc2lnbi5jb20vdHNzLWNhLmNy
bDAWBgNVHSUBAf8EDDAKBggrBgEFBQcDCDAOBgNVHQ8BAf8EBAMCBsAwJAYDVR0R
BB0wG6QZMBcxFTATBgNVBAMTDFRTQTIwNDgtMS01NDANBgkqhkiG9w0BAQUFAAOC
AQEAh3hw2k5SASBb4HnJgjDE/bkZlr2RAMO9zc3G9A7Y//lNwDNiMBHF9XQb1JLe
X5wgE7F8Rb5QzYPngBeDpyeTZxNG+8q4mEEDzJtRWwWLf6hv8xtQGyQu8mmNbCL3
u8oWle0MdMBod9nrmWKHwXOQ+Il0eiOro5h7l7H3jylxTS51G0hB2vC1DSBU1neg
l4Jjaf0Jz4rwdbsJm9n5EVUmmmEyvnoCsHuGvqLDiyIseNE1drySc1z5ueZMFQoj
zOTS1DQuSUAVPA9geiTGpWbvls9w6z7n9A1+3NF8o3ZxacGcT0cwNSGxoq8aYjwr
2Y6qKgd72BizXHvinaVv/jyJrQ==
-----END CERTIFICATE-----

