Certificate:
    Data:
        Version: 3 (0x2)
        Serial Number:
            bd:76:c4:27:2c:d0:93:8a:ab:40:96:87:8c:9a:7b:c0
    Signature Algorithm: sha256WithRSAEncryption
        Issuer: C=GB, ST=Greater Manchester, L=Salford, O=COMODO CA Limited, CN=COMODO RSA Code Signing CA
        Validity
            Not Before: Jan 31 00:00:00 2018 GMT
            Not After : Jan 31 23:59:59 2019 GMT
        Subject: C=GB/postalCode=CV2 4FG, ST=WEST MIDLANDS, L=COVENTRY/street=33 Hamilton Road, O=DBA MOTORS LTD, CN=DBA MOTORS LTD
        Subject Public Key Info:
            Public Key Algorithm: rsaEncryption
                Public-Key: (2048 bit)
                Modulus:
                    00:df:42:b3:52:9a:1e:c5:65:c2:1a:58:dd:68:23:
                    eb:92:9f:31:fa:24:8c:49:e7:dc:93:ff:ec:5e:9b:
                    c7:19:a6:b7:85:73:76:a8:3d:7f:e2:cf:bb:27:9b:
                    64:c3:cf:25:25:c9:9a:8a:16:50:f9:0c:a2:84:49:
                    ee:e2:a3:7a:14:89:37:57:23:65:c1:0b:c3:9b:86:
                    30:37:b6:4d:7c:bf:2a:58:bd:98:e9:f3:29:ae:c4:
                    0b:5d:85:ff:e9:f0:8c:af:8c:b3:bc:9d:79:d0:53:
                    d9:cf:b8:21:54:97:35:8b:7d:bc:c8:59:01:8d:70:
                    4a:a2:1d:af:06:ab:35:b5:bf:d1:c2:4b:f5:6d:98:
                    de:9e:6a:38:a1:4b:a6:a9:7f:1b:48:de:84:7c:a3:
                    58:8f:86:e2:50:ac:d5:a4:af:7e:aa:cd:2e:5e:ea:
                    ec:89:32:88:03:68:83:e1:9b:65:16:1e:a6:ef:00:
                    35:d8:d4:5b:3a:79:a5:21:c5:15:7c:6c:62:e5:4e:
                    b9:c2:19:2e:e2:b3:85:f9:27:8b:13:34:70:c5:d0:
                    a5:06:aa:17:9b:4e:91:09:dc:16:be:fb:29:cf:8b:
                    db:1f:be:f1:d1:b3:b9:09:f4:a9:0a:41:39:20:17:
                    b4:5b:26:dc:b9:76:c9:16:cc:8f:0b:72:76:e5:8c:
                    44:b7
                Exponent: 65537 (0x10001)
        X509v3 extensions:
            X509v3 Authority Key Identifier: 
                keyid:29:91:60:FF:8A:4D:FA:EB:F9:A6:6A:B8:CF:F9:E6:4B:BD:49:CE:12

            X509v3 Subject Key Identifier: 
                83:58:A5:4A:57:08:68:2A:67:80:21:3F:5F:04:50:8B:98:95:8A:B3
            X509v3 Key Usage: critical
                Digital Signature
            X509v3 Basic Constraints: critical
                CA:FALSE
            X509v3 Extended Key Usage: 
                Code Signing
            Netscape Cert Type: 
                Object Signing
            X509v3 Certificate Policies: 
                Policy: 1.3.6.1.4.1.6449.1.2.1.3.2
                  CPS: https://secure.comodo.net/CPS

            X509v3 CRL Distribution Points: 

                Full Name:
                  URI:http://crl.comodoca.com/COMODORSACodeSigningCA.crl

            Authority Information Access: 
                CA Issuers - URI:http://crt.comodoca.com/COMODORSACodeSigningCA.crt
                OCSP - URI:http://ocsp.comodoca.com

            X509v3 Subject Alternative Name: 
                email:admin@dbamotorsltd.xyz
    Signature Algorithm: sha256WithRSAEncryption
         9a:df:e1:d5:18:2d:22:7e:70:7a:29:94:9f:cc:36:25:fb:68:
         4b:83:50:bc:09:dc:8d:d3:20:07:33:7c:02:8b:1b:8a:fb:43:
         df:65:35:42:57:20:c4:f7:d5:0e:45:48:a1:4d:9c:d8:34:ae:
         6d:bf:05:4f:14:56:52:f6:93:53:e2:68:03:23:a4:96:7a:49:
         dd:e5:18:1d:db:82:ef:21:32:04:96:86:e4:bb:3a:59:f4:82:
         c5:07:bd:87:b0:37:a3:d4:09:2a:c0:63:32:0c:2e:09:aa:ea:
         03:c7:9d:35:b5:17:6d:77:9f:10:98:70:82:91:24:80:be:57:
         2c:2f:1d:f2:13:1a:bc:58:19:e8:73:b3:80:cc:9f:d4:67:0d:
         dd:66:19:06:30:c2:cd:1b:19:8f:51:ec:ed:fd:ec:46:7c:de:
         19:ce:35:50:d1:61:c5:2e:36:a8:7b:e9:1d:d6:1e:a8:cd:a3:
         1f:6f:4b:65:bd:5f:d3:c7:33:e7:3b:59:26:01:82:5d:c0:79:
         0e:a6:01:70:d6:62:f7:75:1d:23:ad:78:3b:aa:3d:47:44:e8:
         d3:8a:c2:f0:e3:bc:f9:8a:8c:8b:88:72:31:6f:bd:03:a0:89:
         2b:7a:66:b7:c1:3e:4e:40:7a:7b:5d:99:1d:99:42:6d:a2:e4:
         fa:b2:f7:6d
-----BEGIN CERTIFICATE-----
MIIFUjCCBDqgAwIBAgIRAL12xCcs0JOKq0CWh4yae8AwDQYJKoZIhvcNAQELBQAw
fTELMAkGA1UEBhMCR0IxGzAZBgNVBAgTEkdyZWF0ZXIgTWFuY2hlc3RlcjEQMA4G
A1UEBxMHU2FsZm9yZDEaMBgGA1UEChMRQ09NT0RPIENBIExpbWl0ZWQxIzAhBgNV
BAMTGkNPTU9ETyBSU0EgQ29kZSBTaWduaW5nIENBMB4XDTE4MDEzMTAwMDAwMFoX
DTE5MDEzMTIzNTk1OVowgZcxCzAJBgNVBAYTAkdCMRAwDgYDVQQRDAdDVjIgNEZH
MRYwFAYDVQQIDA1XRVNUIE1JRExBTkRTMREwDwYDVQQHDAhDT1ZFTlRSWTEZMBcG
A1UECQwQMzMgSGFtaWx0b24gUm9hZDEXMBUGA1UECgwOREJBIE1PVE9SUyBMVEQx
FzAVBgNVBAMMDkRCQSBNT1RPUlMgTFREMIIBIjANBgkqhkiG9w0BAQEFAAOCAQ8A
MIIBCgKCAQEA30KzUpoexWXCGljdaCPrkp8x+iSMSefck//sXpvHGaa3hXN2qD1/
4s+7J5tkw88lJcmaihZQ+QyihEnu4qN6FIk3VyNlwQvDm4YwN7ZNfL8qWL2Y6fMp
rsQLXYX/6fCMr4yzvJ150FPZz7ghVJc1i328yFkBjXBKoh2vBqs1tb/Rwkv1bZje
nmo4oUumqX8bSN6EfKNYj4biUKzVpK9+qs0uXursiTKIA2iD4ZtlFh6m7wA12NRb
OnmlIcUVfGxi5U65whku4rOF+SeLEzRwxdClBqoXm06RCdwWvvspz4vbH77x0bO5
CfSpCkE5IBe0WybcuXbJFsyPC3J25YxEtwIDAQABo4IBsDCCAawwHwYDVR0jBBgw
FoAUKZFg/4pN+uv5pmq4z/nmS71JzhIwHQYDVR0OBBYEFINYpUpXCGgqZ4AhP18E
UIuYlYqzMA4GA1UdDwEB/wQEAwIHgDAMBgNVHRMBAf8EAjAAMBMGA1UdJQQMMAoG
CCsGAQUFBwMDMBEGCWCGSAGG+EIBAQQEAwIEEDBGBgNVHSAEPzA9MDsGDCsGAQQB
sjEBAgEDAjArMCkGCCsGAQUFBwIBFh1odHRwczovL3NlY3VyZS5jb21vZG8ubmV0
L0NQUzBDBgNVHR8EPDA6MDigNqA0hjJodHRwOi8vY3JsLmNvbW9kb2NhLmNvbS9D
T01PRE9SU0FDb2RlU2lnbmluZ0NBLmNybDB0BggrBgEFBQcBAQRoMGYwPgYIKwYB
BQUHMAKGMmh0dHA6Ly9jcnQuY29tb2RvY2EuY29tL0NPTU9ET1JTQUNvZGVTaWdu
aW5nQ0EuY3J0MCQGCCsGAQUFBzABhhhodHRwOi8vb2NzcC5jb21vZG9jYS5jb20w
IQYDVR0RBBowGIEWYWRtaW5AZGJhbW90b3JzbHRkLnh5ejANBgkqhkiG9w0BAQsF
AAOCAQEAmt/h1RgtIn5weimUn8w2JftoS4NQvAncjdMgBzN8AosbivtD32U1Qlcg
xPfVDkVIoU2c2DSubb8FTxRWUvaTU+JoAyOklnpJ3eUYHduC7yEyBJaG5Ls6WfSC
xQe9h7A3o9QJKsBjMgwuCarqA8edNbUXbXefEJhwgpEkgL5XLC8d8hMavFgZ6HOz
gMyf1GcN3WYZBjDCzRsZj1Hs7f3sRnzeGc41UNFhxS42qHvpHdYeqM2jH29LZb1f
08cz5ztZJgGCXcB5DqYBcNZi93UdI614O6o9R0To04rC8OO8+YqMi4hyMW+9A6CJ
K3pmt8E+TkB6e12ZHZlCbaLk+rL3bQ==
-----END CERTIFICATE-----

Certificate:
    Data:
        Version: 3 (0x2)
        Serial Number:
            4c:aa:f9:ca:db:63:6f:e0:1f:f7:4e:d8:5b:03:86:9d
    Signature Algorithm: sha384WithRSAEncryption
        Issuer: C=GB, ST=Greater Manchester, L=Salford, O=COMODO CA Limited, CN=COMODO RSA Certification Authority
        Validity
            Not Before: Jan 19 00:00:00 2010 GMT
            Not After : Jan 18 23:59:59 2038 GMT
        Subject: C=GB, ST=Greater Manchester, L=Salford, O=COMODO CA Limited, CN=COMODO RSA Certification Authority
        Subject Public Key Info:
            Public Key Algorithm: rsaEncryption
                Public-Key: (4096 bit)
                Modulus:
                    00:91:e8:54:92:d2:0a:56:b1:ac:0d:24:dd:c5:cf:
                    44:67:74:99:2b:37:a3:7d:23:70:00:71:bc:53:df:
                    c4:fa:2a:12:8f:4b:7f:10:56:bd:9f:70:72:b7:61:
                    7f:c9:4b:0f:17:a7:3d:e3:b0:04:61:ee:ff:11:97:
                    c7:f4:86:3e:0a:fa:3e:5c:f9:93:e6:34:7a:d9:14:
                    6b:e7:9c:b3:85:a0:82:7a:76:af:71:90:d7:ec:fd:
                    0d:fa:9c:6c:fa:df:b0:82:f4:14:7e:f9:be:c4:a6:
                    2f:4f:7f:99:7f:b5:fc:67:43:72:bd:0c:00:d6:89:
                    eb:6b:2c:d3:ed:8f:98:1c:14:ab:7e:e5:e3:6e:fc:
                    d8:a8:e4:92:24:da:43:6b:62:b8:55:fd:ea:c1:bc:
                    6c:b6:8b:f3:0e:8d:9a:e4:9b:6c:69:99:f8:78:48:
                    30:45:d5:ad:e1:0d:3c:45:60:fc:32:96:51:27:bc:
                    67:c3:ca:2e:b6:6b:ea:46:c7:c7:20:a0:b1:1f:65:
                    de:48:08:ba:a4:4e:a9:f2:83:46:37:84:eb:e8:cc:
                    81:48:43:67:4e:72:2a:9b:5c:bd:4c:1b:28:8a:5c:
                    22:7b:b4:ab:98:d9:ee:e0:51:83:c3:09:46:4e:6d:
                    3e:99:fa:95:17:da:7c:33:57:41:3c:8d:51:ed:0b:
                    b6:5c:af:2c:63:1a:df:57:c8:3f:bc:e9:5d:c4:9b:
                    af:45:99:e2:a3:5a:24:b4:ba:a9:56:3d:cf:6f:aa:
                    ff:49:58:be:f0:a8:ff:f4:b8:ad:e9:37:fb:ba:b8:
                    f4:0b:3a:f9:e8:43:42:1e:89:d8:84:cb:13:f1:d9:
                    bb:e1:89:60:b8:8c:28:56:ac:14:1d:9c:0a:e7:71:
                    eb:cf:0e:dd:3d:a9:96:a1:48:bd:3c:f7:af:b5:0d:
                    22:4c:c0:11:81:ec:56:3b:f6:d3:a2:e2:5b:b7:b2:
                    04:22:52:95:80:93:69:e8:8e:4c:65:f1:91:03:2d:
                    70:74:02:ea:8b:67:15:29:69:52:02:bb:d7:df:50:
                    6a:55:46:bf:a0:a3:28:61:7f:70:d0:c3:a2:aa:2c:
                    21:aa:47:ce:28:9c:06:45:76:bf:82:18:27:b4:d5:
                    ae:b4:cb:50:e6:6b:f4:4c:86:71:30:e9:a6:df:16:
                    86:e0:d8:ff:40:dd:fb:d0:42:88:7f:a3:33:3a:2e:
                    5c:1e:41:11:81:63:ce:18:71:6b:2b:ec:a6:8a:b7:
                    31:5c:3a:6a:47:e0:c3:79:59:d6:20:1a:af:f2:6a:
                    98:aa:72:bc:57:4a:d2:4b:9d:bb:10:fc:b0:4c:41:
                    e5:ed:1d:3d:5e:28:9d:9c:cc:bf:b3:51:da:a7:47:
                    e5:84:53
                Exponent: 65537 (0x10001)
        X509v3 extensions:
            X509v3 Subject Key Identifier: 
                BB:AF:7E:02:3D:FA:A6:F1:3C:84:8E:AD:EE:38:98:EC:D9:32:32:D4
            X509v3 Key Usage: critical
                Certificate Sign, CRL Sign
            X509v3 Basic Constraints: critical
                CA:TRUE
    Signature Algorithm: sha384WithRSAEncryption
         0a:f1:d5:46:84:b7:ae:51:bb:6c:b2:4d:41:14:00:93:4c:9c:
         cb:e5:c0:54:cf:a0:25:8e:02:f9:fd:b0:a2:0d:f5:20:98:3c:
         13:2d:ac:56:a2:b0:d6:7e:11:92:e9:2e:ba:9e:2e:9a:72:b1:
         bd:19:44:6c:61:35:a2:9a:b4:16:12:69:5a:8c:e1:d7:3e:a4:
         1a:e8:2f:03:f4:ae:61:1d:10:1b:2a:a4:8b:7a:c5:fe:05:a6:
         e1:c0:d6:c8:fe:9e:ae:8f:2b:ba:3d:99:f8:d8:73:09:58:46:
         6e:a6:9c:f4:d7:27:d3:95:da:37:83:72:1c:d3:73:e0:a2:47:
         99:03:38:5d:d5:49:79:00:29:1c:c7:ec:9b:20:1c:07:24:69:
         57:78:b2:39:fc:3a:84:a0:b5:9c:7c:8d:bf:2e:93:62:27:b7:
         39:da:17:18:ae:bd:3c:09:68:ff:84:9b:3c:d5:d6:0b:03:e3:
         57:9e:14:f7:d1:eb:4f:c8:bd:87:23:b7:b6:49:43:79:85:5c:
         ba:eb:92:0b:a1:c6:e8:68:a8:4c:16:b1:1a:99:0a:e8:53:2c:
         92:bb:a1:09:18:75:0c:65:a8:7b:cb:23:b7:1a:c2:28:85:c3:
         1b:ff:d0:2b:62:ef:a4:7b:09:91:98:67:8c:14:01:cd:68:06:
         6a:63:21:75:03:80:88:8a:6e:81:c6:85:f2:a9:a4:2d:e7:f4:
         a5:24:10:47:83:ca:cd:f4:8d:79:58:b1:06:9b:e7:1a:2a:d9:
         9d:01:d7:94:7d:ed:03:4a:ca:f0:db:e8:a9:01:3e:f5:56:99:
         c9:1e:8e:49:3d:bb:e5:09:b9:e0:4f:49:92:3d:16:82:40:cc:
         cc:59:c6:e6:3a:ed:12:2e:69:3c:6c:95:b1:fd:aa:1d:7b:7f:
         86:be:1e:0e:32:46:fb:fb:13:8f:75:7f:4c:8b:4b:46:63:fe:
         00:34:40:70:c1:c3:b9:a1:dd:a6:70:e2:04:b3:41:bc:e9:80:
         91:ea:64:9c:7a:e1:22:03:a9:9c:6e:6f:0e:65:4f:6c:87:87:
         5e:f3:6e:a0:f9:75:a5:9b:40:e8:53:b2:27:9d:4a:b9:c0:77:
         21:8d:ff:87:f2:de:bc:8c:ef:17:df:b7:49:0b:d1:f2:6e:30:
         0b:1a:0e:4e:76:ed:11:fc:f5:e9:56:b2:7d:bf:c7:6d:0a:93:
         8c:a5:d0:c0:b6:1d:be:3a:4e:94:a2:d7:6e:6c:0b:c2:8a:7c:
         fa:20:f3:c4:e4:e5:cd:0d:a8:cb:91:92:b1:7c:85:ec:b5:14:
         69:66:0e:82:e7:cd:ce:c8:2d:a6:51:7f:21:c1:35:53:85:06:
         4a:5d:9f:ad:bb:1b:5f:74
-----BEGIN CERTIFICATE-----
MIIF2DCCA8CgAwIBAgIQTKr5yttjb+Af907YWwOGnTANBgkqhkiG9w0BAQwFADCB
hTELMAkGA1UEBhMCR0IxGzAZBgNVBAgTEkdyZWF0ZXIgTWFuY2hlc3RlcjEQMA4G
A1UEBxMHU2FsZm9yZDEaMBgGA1UEChMRQ09NT0RPIENBIExpbWl0ZWQxKzApBgNV
BAMTIkNPTU9ETyBSU0EgQ2VydGlmaWNhdGlvbiBBdXRob3JpdHkwHhcNMTAwMTE5
MDAwMDAwWhcNMzgwMTE4MjM1OTU5WjCBhTELMAkGA1UEBhMCR0IxGzAZBgNVBAgT
EkdyZWF0ZXIgTWFuY2hlc3RlcjEQMA4GA1UEBxMHU2FsZm9yZDEaMBgGA1UEChMR
Q09NT0RPIENBIExpbWl0ZWQxKzApBgNVBAMTIkNPTU9ETyBSU0EgQ2VydGlmaWNh
dGlvbiBBdXRob3JpdHkwggIiMA0GCSqGSIb3DQEBAQUAA4ICDwAwggIKAoICAQCR
6FSS0gpWsawNJN3Fz0RndJkrN6N9I3AAcbxT38T6KhKPS38QVr2fcHK3YX/JSw8X
pz3jsARh7v8Rl8f0hj4K+j5c+ZPmNHrZFGvnnLOFoIJ6dq9xkNfs/Q36nGz637CC
9BR++b7Epi9Pf5l/tfxnQ3K9DADWietrLNPtj5gcFKt+5eNu/Nio5JIk2kNrYrhV
/erBvGy2i/MOjZrkm2xpmfh4SDBF1a3hDTxFYPwyllEnvGfDyi62a+pGx8cgoLEf
Zd5ICLqkTqnyg0Y3hOvozIFIQ2dOciqbXL1MGyiKXCJ7tKuY2e7gUYPDCUZObT6Z
+pUX2nwzV0E8jVHtC7ZcryxjGt9XyD+86V3Em69FmeKjWiS0uqlWPc9vqv9JWL7w
qP/0uK3pN/u6uPQLOvnoQ0IeidiEyxPx2bvhiWC4jChWrBQdnArncevPDt09qZah
SL0896+1DSJMwBGB7FY79tOi4lu3sgQiUpWAk2nojkxl8ZEDLXB0AuqLZxUpaVIC
u9ffUGpVRr+goyhhf3DQw6KqLCGqR84onAZFdr+CGCe01a60y1Dma/RMhnEw6abf
Fobg2P9A3fvQQoh/ozM6LlweQRGBY84YcWsr7KaKtzFcOmpH4MN5WdYgGq/yapiq
crxXStJLnbsQ/LBMQeXtHT1eKJ2czL+zUdqnR+WEUwIDAQABo0IwQDAdBgNVHQ4E
FgQUu69+Aj36pvE8hI6t7jiY7NkyMtQwDgYDVR0PAQH/BAQDAgEGMA8GA1UdEwEB
/wQFMAMBAf8wDQYJKoZIhvcNAQEMBQADggIBAArx1UaEt65Ru2yyTUEUAJNMnMvl
wFTPoCWOAvn9sKIN9SCYPBMtrFaisNZ+EZLpLrqeLppysb0ZRGxhNaKatBYSaVqM
4dc+pBroLwP0rmEdEBsqpIt6xf4FpuHA1sj+nq6PK7o9mfjYcwlYRm6mnPTXJ9OV
2jeDchzTc+CiR5kDOF3VSXkAKRzH7JsgHAckaVd4sjn8OoSgtZx8jb8uk2Intzna
FxiuvTwJaP+EmzzV1gsD41eeFPfR60/IvYcjt7ZJQ3mFXLrrkguhxuhoqEwWsRqZ
CuhTLJK7oQkYdQxlqHvLI7cawiiFwxv/0Cti76R7CZGYZ4wUAc1oBmpjIXUDgIiK
boHGhfKppC3n9KUkEEeDys30jXlYsQab5xoq2Z0B15R97QNKyvDb6KkBPvVWmcke
jkk9u+UJueBPSZI9FoJAzMxZxuY67RIuaTxslbH9qh17f4a+Hg4yRvv7E491f0yL
S0Zj/gA0QHDBw7mh3aZw4gSzQbzpgJHqZJx64SIDqZxubw5lT2yHh17zbqD5daWb
QOhTsiedSrnAdyGN/4fy3ryM7xfft0kL0fJuMAsaDk527RH89elWsn2/x20Kk4yl
0MC2Hb46TpSi125sC8KKfPog88Tk5c0NqMuRkrF8hey1FGlmDoLnzc7ILaZRfyHB
NVOFBkpdn627G190
-----END CERTIFICATE-----

Certificate:
    Data:
        Version: 3 (0x2)
        Serial Number:
            2e:7c:87:cc:0e:93:4a:52:fe:94:fd:1c:b7:cd:34:af
    Signature Algorithm: sha384WithRSAEncryption
        Issuer: C=GB, ST=Greater Manchester, L=Salford, O=COMODO CA Limited, CN=COMODO RSA Certification Authority
        Validity
            Not Before: May  9 00:00:00 2013 GMT
            Not After : May  8 23:59:59 2028 GMT
        Subject: C=GB, ST=Greater Manchester, L=Salford, O=COMODO CA Limited, CN=COMODO RSA Code Signing CA
        Subject Public Key Info:
            Public Key Algorithm: rsaEncryption
                Public-Key: (2048 bit)
                Modulus:
                    00:a6:98:90:63:77:91:34:7f:8a:d1:dd:e9:67:31:
                    11:eb:cc:1e:fd:31:1d:b3:b9:62:57:3f:93:bc:5b:
                    e3:9f:1e:24:32:11:27:6b:bc:51:91:a7:cf:9e:9e:
                    25:b3:5f:81:a8:18:0f:1d:1e:20:30:0e:fb:61:7b:
                    86:09:b3:e3:fd:a2:68:9d:1c:2c:9d:bf:72:e3:e4:
                    75:a0:e5:35:23:8e:c9:8a:ee:1a:0c:64:c7:d8:42:
                    a1:7b:b5:52:03:4b:3a:b0:8e:23:4b:4b:63:e0:22:
                    94:37:7b:d5:79:90:0a:14:18:51:2c:e6:fe:c1:12:
                    f0:1c:3f:61:61:0a:8c:a2:dc:f6:c3:30:aa:cd:28:
                    18:75:48:c1:79:5a:08:cd:bb:8c:55:8c:f7:d4:76:
                    90:3a:33:46:50:73:98:5c:f4:85:4a:6b:0f:80:dd:
                    5e:d6:bd:fd:a9:2f:c0:25:f5:f9:78:d7:8d:5f:10:
                    c2:44:55:3c:90:3c:31:46:cb:70:ae:07:a9:0a:e3:
                    af:c1:01:6f:90:1a:23:e2:5f:38:db:c6:08:5d:47:
                    b3:83:41:f0:2e:00:37:14:b9:12:aa:79:92:52:cd:
                    87:0f:7b:d8:62:29:a4:7e:30:bd:1b:b5:8c:72:b4:
                    48:f2:e3:e8:21:f9:5e:4c:62:79:8b:02:06:9f:7f:
                    d5:0b
                Exponent: 65537 (0x10001)
        X509v3 extensions:
            X509v3 Authority Key Identifier: 
                keyid:BB:AF:7E:02:3D:FA:A6:F1:3C:84:8E:AD:EE:38:98:EC:D9:32:32:D4

            X509v3 Subject Key Identifier: 
                29:91:60:FF:8A:4D:FA:EB:F9:A6:6A:B8:CF:F9:E6:4B:BD:49:CE:12
            X509v3 Key Usage: critical
                Digital Signature, Certificate Sign, CRL Sign
            X509v3 Basic Constraints: critical
                CA:TRUE, pathlen:0
            X509v3 Extended Key Usage: 
                Code Signing
            X509v3 Certificate Policies: 
                Policy: X509v3 Any Policy

            X509v3 CRL Distribution Points: 

                Full Name:
                  URI:http://crl.comodoca.com/COMODORSACertificationAuthority.crl

            Authority Information Access: 
                CA Issuers - URI:http://crt.comodoca.com/COMODORSAAddTrustCA.crt
                OCSP - URI:http://ocsp.comodoca.com

    Signature Algorithm: sha384WithRSAEncryption
         02:3f:02:39:c3:ee:f8:ca:3b:89:de:0c:6d:4d:b1:f1:4e:92:
         4f:af:c2:38:2c:04:cc:c5:63:11:ab:09:63:af:ab:a2:d7:02:
         3f:cc:6f:19:c3:3d:d6:1a:08:94:ff:25:d8:a9:88:a7:2b:10:
         1a:e0:9b:b1:07:22:1a:51:1c:3a:d4:e1:e9:09:bf:e6:24:74:
         af:1e:7b:16:31:6e:23:ef:54:51:2d:52:02:e2:75:08:05:4c:
         f1:b7:51:e1:51:00:c6:87:f6:6c:ee:10:44:76:57:6a:f1:df:
         58:6b:21:aa:49:d4:7c:37:4e:bd:ff:b6:75:54:40:18:36:57:
         67:11:cd:4f:02:e4:fe:f3:da:fc:75:17:db:ec:b7:f7:65:09:
         23:49:1f:43:57:83:ea:7e:20:77:61:c8:4d:f2:bb:65:4d:a8:
         f7:85:45:07:af:7a:69:27:65:90:29:40:8b:df:7b:3a:51:39:
         8c:a8:1f:70:79:ad:6d:42:20:a2:cf:0c:6c:03:8c:4c:cd:73:
         07:94:e7:5a:8e:3a:04:ba:a2:a1:7c:1f:cb:63:3a:15:a7:d4:
         15:1b:a7:52:47:32:a9:f4:bf:64:47:d1:aa:1f:53:4e:32:30:
         73:c2:6f:b7:78:82:9d:5c:ff:46:bb:6b:22:1d:88:0b:f8:1b:
         aa:34:a6:fc:8c:f5:dd:7f:65:8c:8c:31:57:31:d0:36:ec:47:
         a1:cf:cb:8b:a8:ef:1c:18:58:c5:06:77:ca:4b:9b:51:af:4c:
         08:4a:7a:8f:e2:a3:52:e2:8e:8e:cc:26:e4:b2:d8:e5:38:c2:
         a8:ed:c6:81:9c:35:6b:a9:58:61:4a:0a:97:b4:4b:42:b6:55:
         9d:be:99:e7:70:6d:59:f8:6d:2a:0c:7f:19:60:5f:0c:9a:88:
         6c:30:ac:52:09:90:16:1b:ff:2b:9d:db:d0:20:ca:89:ea:28:
         7e:32:8e:19:df:7b:48:33:1e:d7:65:f8:ae:c9:f8:83:14:93:
         76:7d:64:d0:8e:ce:be:35:7d:ff:72:31:4d:9f:9e:bd:1e:6c:
         2f:a8:8f:0c:06:50:fb:8c:27:b3:76:c9:f4:e6:d7:c3:34:e2:
         8c:87:21:86:61:fe:bf:55:74:e1:21:77:03:0a:68:6c:bb:e4:
         c9:a9:e6:cf:59:25:eb:7c:ec:45:0e:79:66:68:e8:22:cd:b8:
         ef:98:85:4d:96:11:3c:09:8a:d0:7f:bc:28:28:13:fb:6a:ca:
         54:8d:92:5c:cd:c2:65:98:06:9e:ce:48:5b:d4:b5:37:93:46:
         41:7c:07:dd:cf:fa:43:ef:ba:67:61:ff:7d:49:e0:bb:30:7d:
         5c:80:e3:e6:16:39:4b:a7
-----BEGIN CERTIFICATE-----
MIIF4DCCA8igAwIBAgIQLnyHzA6TSlL+lP0ct800rzANBgkqhkiG9w0BAQwFADCB
hTELMAkGA1UEBhMCR0IxGzAZBgNVBAgTEkdyZWF0ZXIgTWFuY2hlc3RlcjEQMA4G
A1UEBxMHU2FsZm9yZDEaMBgGA1UEChMRQ09NT0RPIENBIExpbWl0ZWQxKzApBgNV
BAMTIkNPTU9ETyBSU0EgQ2VydGlmaWNhdGlvbiBBdXRob3JpdHkwHhcNMTMwNTA5
MDAwMDAwWhcNMjgwNTA4MjM1OTU5WjB9MQswCQYDVQQGEwJHQjEbMBkGA1UECBMS
R3JlYXRlciBNYW5jaGVzdGVyMRAwDgYDVQQHEwdTYWxmb3JkMRowGAYDVQQKExFD
T01PRE8gQ0EgTGltaXRlZDEjMCEGA1UEAxMaQ09NT0RPIFJTQSBDb2RlIFNpZ25p
bmcgQ0EwggEiMA0GCSqGSIb3DQEBAQUAA4IBDwAwggEKAoIBAQCmmJBjd5E0f4rR
3elnMRHrzB79MR2zuWJXP5O8W+OfHiQyESdrvFGRp8+eniWzX4GoGA8dHiAwDvth
e4YJs+P9omidHCydv3Lj5HWg5TUjjsmK7hoMZMfYQqF7tVIDSzqwjiNLS2PgIpQ3
e9V5kAoUGFEs5v7BEvAcP2FhCoyi3PbDMKrNKBh1SMF5WgjNu4xVjPfUdpA6M0ZQ
c5hc9IVKaw+A3V7Wvf2pL8Al9fl4141fEMJEVTyQPDFGy3CuB6kK46/BAW+QGiPi
XzjbxghdR7ODQfAuADcUuRKqeZJSzYcPe9hiKaR+ML0btYxytEjy4+gh+V5MYnmL
Agaff9ULAgMBAAGjggFRMIIBTTAfBgNVHSMEGDAWgBS7r34CPfqm8TyEjq3uOJjs
2TIy1DAdBgNVHQ4EFgQUKZFg/4pN+uv5pmq4z/nmS71JzhIwDgYDVR0PAQH/BAQD
AgGGMBIGA1UdEwEB/wQIMAYBAf8CAQAwEwYDVR0lBAwwCgYIKwYBBQUHAwMwEQYD
VR0gBAowCDAGBgRVHSAAMEwGA1UdHwRFMEMwQaA/oD2GO2h0dHA6Ly9jcmwuY29t
b2RvY2EuY29tL0NPTU9ET1JTQUNlcnRpZmljYXRpb25BdXRob3JpdHkuY3JsMHEG
CCsGAQUFBwEBBGUwYzA7BggrBgEFBQcwAoYvaHR0cDovL2NydC5jb21vZG9jYS5j
b20vQ09NT0RPUlNBQWRkVHJ1c3RDQS5jcnQwJAYIKwYBBQUHMAGGGGh0dHA6Ly9v
Y3NwLmNvbW9kb2NhLmNvbTANBgkqhkiG9w0BAQwFAAOCAgEAAj8COcPu+Mo7id4M
bU2x8U6ST6/COCwEzMVjEasJY6+rotcCP8xvGcM91hoIlP8l2KmIpysQGuCbsQci
GlEcOtTh6Qm/5iR0rx57FjFuI+9UUS1SAuJ1CAVM8bdR4VEAxof2bO4QRHZXavHf
WGshqknUfDdOvf+2dVRAGDZXZxHNTwLk/vPa/HUX2+y392UJI0kfQ1eD6n4gd2HI
TfK7ZU2o94VFB696aSdlkClAi997OlE5jKgfcHmtbUIgos8MbAOMTM1zB5TnWo46
BLqioXwfy2M6FafUFRunUkcyqfS/ZEfRqh9TTjIwc8Jvt3iCnVz/RrtrIh2IC/gb
qjSm/Iz13X9ljIwxVzHQNuxHoc/Li6jvHBhYxQZ3ykubUa9MCEp6j+KjUuKOjswm
5LLY5TjCqO3GgZw1a6lYYUoKl7RLQrZVnb6Z53BtWfhtKgx/GWBfDJqIbDCsUgmQ
Fhv/K53b0CDKieoofjKOGd97SDMe12X4rsn4gxSTdn1k0I7OvjV9/3IxTZ+evR5s
L6iPDAZQ+4wns3bJ9ObXwzTijIchhmH+v1V04SF3AwpobLvkyanmz1kl63zsRQ55
ZmjoIs2475iFTZYRPAmK0H+8KCgT+2rKVI2SXM3CZZgGns5IW9S1N5NGQXwH3c/6
Q++6Z2H/fUnguzB9XIDj5hY5S6c=
-----END CERTIFICATE-----

