Certificate:
    Data:
        Version: 3 (0x2)
        Serial Number:
            0a:19:d2:37:df:d0:63:41:31:d5:99:79:b8:f1:1c:77
    Signature Algorithm: sha256WithRSAEncryption
        Issuer: C=GB, ST=Greater Manchester, L=Salford, O=COMODO CA Limited, CN=COMODO RSA Code Signing CA
        Validity
            Not Before: Mar 24 00:00:00 2016 GMT
            Not After : Mar 24 23:59:59 2019 GMT
        Subject: C=RU/postalCode=602252, ST=Vladimirskaya oblast, L=Murom/street=5-64 Kooperativnaya ul, O=Vladimir Sergeevich Sukhov IP, CN=Vladimir Sergeevich Sukhov IP
        Subject Public Key Info:
            Public Key Algorithm: rsaEncryption
                Public-Key: (2048 bit)
                Modulus:
                    00:bc:4e:81:b6:00:f6:47:c6:c3:15:ae:4d:01:80:
                    4f:19:21:f4:52:c0:d3:d2:c8:37:36:18:e3:0f:41:
                    12:29:11:55:f0:dd:f8:91:df:ff:34:a2:c7:ef:93:
                    00:14:ac:23:c7:42:d4:5f:c1:a4:31:e9:63:57:ee:
                    f0:a7:7f:b7:12:18:65:ad:a2:f5:df:99:76:a5:7b:
                    b5:5d:bb:8f:a5:77:b6:bc:d9:5e:48:44:bd:ca:34:
                    23:70:1f:70:cd:d7:db:a4:88:14:14:c1:db:20:ec:
                    e7:0c:47:d8:fb:1e:70:c4:79:1b:ed:f2:a0:a9:73:
                    ff:ea:0e:e7:21:d0:bb:19:9e:28:a4:fd:52:cc:2f:
                    ed:a6:87:fb:8f:f9:ea:24:ee:b1:d4:4c:62:aa:f6:
                    c3:52:e3:8d:d4:f0:d5:f4:ee:49:0f:30:69:2d:d8:
                    9b:f7:78:08:c9:57:b8:c0:9d:0f:88:bc:01:e6:55:
                    60:1a:e1:dc:97:a9:82:9a:fa:2b:bb:0f:82:7e:7d:
                    10:fb:46:a2:63:18:3d:84:9a:ad:d8:bb:ee:97:ff:
                    5a:1a:54:08:66:43:b7:1a:65:1b:6b:60:c7:1f:7c:
                    7d:0e:ca:de:e3:f2:f1:31:d1:ec:9a:c1:ef:ca:48:
                    38:ac:9f:22:0d:d8:52:d9:18:7c:63:08:fc:58:82:
                    b7:fb
                Exponent: 65537 (0x10001)
        X509v3 extensions:
            X509v3 Authority Key Identifier: 
                keyid:29:91:60:FF:8A:4D:FA:EB:F9:A6:6A:B8:CF:F9:E6:4B:BD:49:CE:12

            X509v3 Subject Key Identifier: 
                29:D7:A8:AC:EE:3A:28:06:2B:DD:68:A2:AA:19:C1:79:D1:E0:16:A1
            X509v3 Key Usage: critical
                Digital Signature
            X509v3 Basic Constraints: critical
                CA:FALSE
            X509v3 Extended Key Usage: 
                Code Signing
            Netscape Cert Type: 
                Object Signing
            X509v3 Certificate Policies: 
                Policy: 1.3.6.1.4.1.6449.1.2.1.3.2
                  CPS: https://secure.comodo.net/CPS

            X509v3 CRL Distribution Points: 

                Full Name:
                  URI:http://crl.comodoca.com/COMODORSACodeSigningCA.crl

            Authority Information Access: 
                CA Issuers - URI:http://crt.comodoca.com/COMODORSACodeSigningCA.crt
                OCSP - URI:http://ocsp.comodoca.com

            X509v3 Subject Alternative Name: 
                email:support@enigmaprotector.com
    Signature Algorithm: sha256WithRSAEncryption
         72:32:84:0d:cc:ca:d4:a4:7c:36:17:01:ac:de:dc:ef:64:7e:
         8e:d9:a8:d8:dd:d4:f1:e0:8a:90:80:37:d0:cd:4d:89:b0:39:
         51:88:0f:50:97:2e:fe:23:74:57:52:3d:21:03:d5:8d:37:2c:
         ab:fc:ec:30:86:2d:e5:1a:87:11:2b:6b:f4:f9:2a:54:7c:67:
         96:18:7f:c4:8d:22:47:35:34:3a:6a:a4:af:c3:10:6f:bb:ff:
         00:bb:7e:a1:3c:ca:66:aa:3a:6f:1f:6f:07:86:dc:4e:f9:0c:
         87:bf:88:28:6d:c0:b2:8b:d1:1e:4b:8a:92:cd:01:da:59:40:
         cf:87:9b:16:8a:fc:a9:aa:a3:1e:1c:54:15:15:cf:a3:c9:32:
         8d:44:67:8e:17:1c:d9:8f:98:34:5c:32:75:3b:ff:8c:d2:e3:
         a3:8a:be:bd:5f:4a:bb:73:63:a5:fd:69:4d:7b:2f:fd:aa:4e:
         e7:5e:c0:5f:46:7a:a0:dc:aa:97:3d:54:9b:b8:54:ef:80:73:
         f8:30:fc:7e:6d:af:40:a0:17:7a:c8:95:d1:d3:38:60:6d:1e:
         46:7e:57:de:5e:7a:84:eb:91:01:9b:5c:dc:ef:a6:d4:2d:90:
         08:6c:c5:9b:63:6c:f8:a6:4a:45:03:f3:f2:e1:f7:70:91:1a:
         ca:f3:b5:fb
-----BEGIN CERTIFICATE-----
MIIFfTCCBGWgAwIBAgIQChnSN9/QY0Ex1Zl5uPEcdzANBgkqhkiG9w0BAQsFADB9
MQswCQYDVQQGEwJHQjEbMBkGA1UECBMSR3JlYXRlciBNYW5jaGVzdGVyMRAwDgYD
VQQHEwdTYWxmb3JkMRowGAYDVQQKExFDT01PRE8gQ0EgTGltaXRlZDEjMCEGA1UE
AxMaQ09NT0RPIFJTQSBDb2RlIFNpZ25pbmcgQ0EwHhcNMTYwMzI0MDAwMDAwWhcN
MTkwMzI0MjM1OTU5WjCBvjELMAkGA1UEBhMCUlUxDzANBgNVBBEMBjYwMjI1MjEd
MBsGA1UECAwUVmxhZGltaXJza2F5YSBvYmxhc3QxDjAMBgNVBAcMBU11cm9tMR8w
HQYDVQQJDBY1LTY0IEtvb3BlcmF0aXZuYXlhIHVsMSYwJAYDVQQKDB1WbGFkaW1p
ciBTZXJnZWV2aWNoIFN1a2hvdiBJUDEmMCQGA1UEAwwdVmxhZGltaXIgU2VyZ2Vl
dmljaCBTdWtob3YgSVAwggEiMA0GCSqGSIb3DQEBAQUAA4IBDwAwggEKAoIBAQC8
ToG2APZHxsMVrk0BgE8ZIfRSwNPSyDc2GOMPQRIpEVXw3fiR3/80osfvkwAUrCPH
QtRfwaQx6WNX7vCnf7cSGGWtovXfmXale7Vdu4+ld7a82V5IRL3KNCNwH3DN19uk
iBQUwdsg7OcMR9j7HnDEeRvt8qCpc//qDuch0LsZniik/VLML+2mh/uP+eok7rHU
TGKq9sNS443U8NX07kkPMGkt2Jv3eAjJV7jAnQ+IvAHmVWAa4dyXqYKa+iu7D4J+
fRD7RqJjGD2Emq3Yu+6X/1oaVAhmQ7caZRtrYMcffH0Oyt7j8vEx0eyawe/KSDis
nyIN2FLZGHxjCPxYgrf7AgMBAAGjggG1MIIBsTAfBgNVHSMEGDAWgBQpkWD/ik36
6/mmarjP+eZLvUnOEjAdBgNVHQ4EFgQUKdeorO46KAYr3WiiqhnBedHgFqEwDgYD
VR0PAQH/BAQDAgeAMAwGA1UdEwEB/wQCMAAwEwYDVR0lBAwwCgYIKwYBBQUHAwMw
EQYJYIZIAYb4QgEBBAQDAgQQMEYGA1UdIAQ/MD0wOwYMKwYBBAGyMQECAQMCMCsw
KQYIKwYBBQUHAgEWHWh0dHBzOi8vc2VjdXJlLmNvbW9kby5uZXQvQ1BTMEMGA1Ud
HwQ8MDowOKA2oDSGMmh0dHA6Ly9jcmwuY29tb2RvY2EuY29tL0NPTU9ET1JTQUNv
ZGVTaWduaW5nQ0EuY3JsMHQGCCsGAQUFBwEBBGgwZjA+BggrBgEFBQcwAoYyaHR0
cDovL2NydC5jb21vZG9jYS5jb20vQ09NT0RPUlNBQ29kZVNpZ25pbmdDQS5jcnQw
JAYIKwYBBQUHMAGGGGh0dHA6Ly9vY3NwLmNvbW9kb2NhLmNvbTAmBgNVHREEHzAd
gRtzdXBwb3J0QGVuaWdtYXByb3RlY3Rvci5jb20wDQYJKoZIhvcNAQELBQADggEB
AHIyhA3MytSkfDYXAaze3O9kfo7ZqNjd1PHgipCAN9DNTYmwOVGID1CXLv4jdFdS
PSED1Y03LKv87DCGLeUahxEra/T5KlR8Z5YYf8SNIkc1NDpqpK/DEG+7/wC7fqE8
ymaqOm8fbweG3E75DIe/iChtwLKL0R5LipLNAdpZQM+HmxaK/Kmqox4cVBUVz6PJ
Mo1EZ44XHNmPmDRcMnU7/4zS46OKvr1fSrtzY6X9aU17L/2qTudewF9GeqDcqpc9
VJu4VO+Ac/gw/H5tr0CgF3rIldHTOGBtHkZ+V95eeoTrkQGbXNzvptQtkAhsxZtj
bPimSkUD8/Lh93CRGsrztfs=
-----END CERTIFICATE-----

Certificate:
    Data:
        Version: 3 (0x2)
        Serial Number:
            2e:7c:87:cc:0e:93:4a:52:fe:94:fd:1c:b7:cd:34:af
    Signature Algorithm: sha384WithRSAEncryption
        Issuer: C=GB, ST=Greater Manchester, L=Salford, O=COMODO CA Limited, CN=COMODO RSA Certification Authority
        Validity
            Not Before: May  9 00:00:00 2013 GMT
            Not After : May  8 23:59:59 2028 GMT
        Subject: C=GB, ST=Greater Manchester, L=Salford, O=COMODO CA Limited, CN=COMODO RSA Code Signing CA
        Subject Public Key Info:
            Public Key Algorithm: rsaEncryption
                Public-Key: (2048 bit)
                Modulus:
                    00:a6:98:90:63:77:91:34:7f:8a:d1:dd:e9:67:31:
                    11:eb:cc:1e:fd:31:1d:b3:b9:62:57:3f:93:bc:5b:
                    e3:9f:1e:24:32:11:27:6b:bc:51:91:a7:cf:9e:9e:
                    25:b3:5f:81:a8:18:0f:1d:1e:20:30:0e:fb:61:7b:
                    86:09:b3:e3:fd:a2:68:9d:1c:2c:9d:bf:72:e3:e4:
                    75:a0:e5:35:23:8e:c9:8a:ee:1a:0c:64:c7:d8:42:
                    a1:7b:b5:52:03:4b:3a:b0:8e:23:4b:4b:63:e0:22:
                    94:37:7b:d5:79:90:0a:14:18:51:2c:e6:fe:c1:12:
                    f0:1c:3f:61:61:0a:8c:a2:dc:f6:c3:30:aa:cd:28:
                    18:75:48:c1:79:5a:08:cd:bb:8c:55:8c:f7:d4:76:
                    90:3a:33:46:50:73:98:5c:f4:85:4a:6b:0f:80:dd:
                    5e:d6:bd:fd:a9:2f:c0:25:f5:f9:78:d7:8d:5f:10:
                    c2:44:55:3c:90:3c:31:46:cb:70:ae:07:a9:0a:e3:
                    af:c1:01:6f:90:1a:23:e2:5f:38:db:c6:08:5d:47:
                    b3:83:41:f0:2e:00:37:14:b9:12:aa:79:92:52:cd:
                    87:0f:7b:d8:62:29:a4:7e:30:bd:1b:b5:8c:72:b4:
                    48:f2:e3:e8:21:f9:5e:4c:62:79:8b:02:06:9f:7f:
                    d5:0b
                Exponent: 65537 (0x10001)
        X509v3 extensions:
            X509v3 Authority Key Identifier: 
                keyid:BB:AF:7E:02:3D:FA:A6:F1:3C:84:8E:AD:EE:38:98:EC:D9:32:32:D4

            X509v3 Subject Key Identifier: 
                29:91:60:FF:8A:4D:FA:EB:F9:A6:6A:B8:CF:F9:E6:4B:BD:49:CE:12
            X509v3 Key Usage: critical
                Digital Signature, Certificate Sign, CRL Sign
            X509v3 Basic Constraints: critical
                CA:TRUE, pathlen:0
            X509v3 Extended Key Usage: 
                Code Signing
            X509v3 Certificate Policies: 
                Policy: X509v3 Any Policy

            X509v3 CRL Distribution Points: 

                Full Name:
                  URI:http://crl.comodoca.com/COMODORSACertificationAuthority.crl

            Authority Information Access: 
                CA Issuers - URI:http://crt.comodoca.com/COMODORSAAddTrustCA.crt
                OCSP - URI:http://ocsp.comodoca.com

    Signature Algorithm: sha384WithRSAEncryption
         02:3f:02:39:c3:ee:f8:ca:3b:89:de:0c:6d:4d:b1:f1:4e:92:
         4f:af:c2:38:2c:04:cc:c5:63:11:ab:09:63:af:ab:a2:d7:02:
         3f:cc:6f:19:c3:3d:d6:1a:08:94:ff:25:d8:a9:88:a7:2b:10:
         1a:e0:9b:b1:07:22:1a:51:1c:3a:d4:e1:e9:09:bf:e6:24:74:
         af:1e:7b:16:31:6e:23:ef:54:51:2d:52:02:e2:75:08:05:4c:
         f1:b7:51:e1:51:00:c6:87:f6:6c:ee:10:44:76:57:6a:f1:df:
         58:6b:21:aa:49:d4:7c:37:4e:bd:ff:b6:75:54:40:18:36:57:
         67:11:cd:4f:02:e4:fe:f3:da:fc:75:17:db:ec:b7:f7:65:09:
         23:49:1f:43:57:83:ea:7e:20:77:61:c8:4d:f2:bb:65:4d:a8:
         f7:85:45:07:af:7a:69:27:65:90:29:40:8b:df:7b:3a:51:39:
         8c:a8:1f:70:79:ad:6d:42:20:a2:cf:0c:6c:03:8c:4c:cd:73:
         07:94:e7:5a:8e:3a:04:ba:a2:a1:7c:1f:cb:63:3a:15:a7:d4:
         15:1b:a7:52:47:32:a9:f4:bf:64:47:d1:aa:1f:53:4e:32:30:
         73:c2:6f:b7:78:82:9d:5c:ff:46:bb:6b:22:1d:88:0b:f8:1b:
         aa:34:a6:fc:8c:f5:dd:7f:65:8c:8c:31:57:31:d0:36:ec:47:
         a1:cf:cb:8b:a8:ef:1c:18:58:c5:06:77:ca:4b:9b:51:af:4c:
         08:4a:7a:8f:e2:a3:52:e2:8e:8e:cc:26:e4:b2:d8:e5:38:c2:
         a8:ed:c6:81:9c:35:6b:a9:58:61:4a:0a:97:b4:4b:42:b6:55:
         9d:be:99:e7:70:6d:59:f8:6d:2a:0c:7f:19:60:5f:0c:9a:88:
         6c:30:ac:52:09:90:16:1b:ff:2b:9d:db:d0:20:ca:89:ea:28:
         7e:32:8e:19:df:7b:48:33:1e:d7:65:f8:ae:c9:f8:83:14:93:
         76:7d:64:d0:8e:ce:be:35:7d:ff:72:31:4d:9f:9e:bd:1e:6c:
         2f:a8:8f:0c:06:50:fb:8c:27:b3:76:c9:f4:e6:d7:c3:34:e2:
         8c:87:21:86:61:fe:bf:55:74:e1:21:77:03:0a:68:6c:bb:e4:
         c9:a9:e6:cf:59:25:eb:7c:ec:45:0e:79:66:68:e8:22:cd:b8:
         ef:98:85:4d:96:11:3c:09:8a:d0:7f:bc:28:28:13:fb:6a:ca:
         54:8d:92:5c:cd:c2:65:98:06:9e:ce:48:5b:d4:b5:37:93:46:
         41:7c:07:dd:cf:fa:43:ef:ba:67:61:ff:7d:49:e0:bb:30:7d:
         5c:80:e3:e6:16:39:4b:a7
-----BEGIN CERTIFICATE-----
MIIF4DCCA8igAwIBAgIQLnyHzA6TSlL+lP0ct800rzANBgkqhkiG9w0BAQwFADCB
hTELMAkGA1UEBhMCR0IxGzAZBgNVBAgTEkdyZWF0ZXIgTWFuY2hlc3RlcjEQMA4G
A1UEBxMHU2FsZm9yZDEaMBgGA1UEChMRQ09NT0RPIENBIExpbWl0ZWQxKzApBgNV
BAMTIkNPTU9ETyBSU0EgQ2VydGlmaWNhdGlvbiBBdXRob3JpdHkwHhcNMTMwNTA5
MDAwMDAwWhcNMjgwNTA4MjM1OTU5WjB9MQswCQYDVQQGEwJHQjEbMBkGA1UECBMS
R3JlYXRlciBNYW5jaGVzdGVyMRAwDgYDVQQHEwdTYWxmb3JkMRowGAYDVQQKExFD
T01PRE8gQ0EgTGltaXRlZDEjMCEGA1UEAxMaQ09NT0RPIFJTQSBDb2RlIFNpZ25p
bmcgQ0EwggEiMA0GCSqGSIb3DQEBAQUAA4IBDwAwggEKAoIBAQCmmJBjd5E0f4rR
3elnMRHrzB79MR2zuWJXP5O8W+OfHiQyESdrvFGRp8+eniWzX4GoGA8dHiAwDvth
e4YJs+P9omidHCydv3Lj5HWg5TUjjsmK7hoMZMfYQqF7tVIDSzqwjiNLS2PgIpQ3
e9V5kAoUGFEs5v7BEvAcP2FhCoyi3PbDMKrNKBh1SMF5WgjNu4xVjPfUdpA6M0ZQ
c5hc9IVKaw+A3V7Wvf2pL8Al9fl4141fEMJEVTyQPDFGy3CuB6kK46/BAW+QGiPi
XzjbxghdR7ODQfAuADcUuRKqeZJSzYcPe9hiKaR+ML0btYxytEjy4+gh+V5MYnmL
Agaff9ULAgMBAAGjggFRMIIBTTAfBgNVHSMEGDAWgBS7r34CPfqm8TyEjq3uOJjs
2TIy1DAdBgNVHQ4EFgQUKZFg/4pN+uv5pmq4z/nmS71JzhIwDgYDVR0PAQH/BAQD
AgGGMBIGA1UdEwEB/wQIMAYBAf8CAQAwEwYDVR0lBAwwCgYIKwYBBQUHAwMwEQYD
VR0gBAowCDAGBgRVHSAAMEwGA1UdHwRFMEMwQaA/oD2GO2h0dHA6Ly9jcmwuY29t
b2RvY2EuY29tL0NPTU9ET1JTQUNlcnRpZmljYXRpb25BdXRob3JpdHkuY3JsMHEG
CCsGAQUFBwEBBGUwYzA7BggrBgEFBQcwAoYvaHR0cDovL2NydC5jb21vZG9jYS5j
b20vQ09NT0RPUlNBQWRkVHJ1c3RDQS5jcnQwJAYIKwYBBQUHMAGGGGh0dHA6Ly9v
Y3NwLmNvbW9kb2NhLmNvbTANBgkqhkiG9w0BAQwFAAOCAgEAAj8COcPu+Mo7id4M
bU2x8U6ST6/COCwEzMVjEasJY6+rotcCP8xvGcM91hoIlP8l2KmIpysQGuCbsQci
GlEcOtTh6Qm/5iR0rx57FjFuI+9UUS1SAuJ1CAVM8bdR4VEAxof2bO4QRHZXavHf
WGshqknUfDdOvf+2dVRAGDZXZxHNTwLk/vPa/HUX2+y392UJI0kfQ1eD6n4gd2HI
TfK7ZU2o94VFB696aSdlkClAi997OlE5jKgfcHmtbUIgos8MbAOMTM1zB5TnWo46
BLqioXwfy2M6FafUFRunUkcyqfS/ZEfRqh9TTjIwc8Jvt3iCnVz/RrtrIh2IC/gb
qjSm/Iz13X9ljIwxVzHQNuxHoc/Li6jvHBhYxQZ3ykubUa9MCEp6j+KjUuKOjswm
5LLY5TjCqO3GgZw1a6lYYUoKl7RLQrZVnb6Z53BtWfhtKgx/GWBfDJqIbDCsUgmQ
Fhv/K53b0CDKieoofjKOGd97SDMe12X4rsn4gxSTdn1k0I7OvjV9/3IxTZ+evR5s
L6iPDAZQ+4wns3bJ9ObXwzTijIchhmH+v1V04SF3AwpobLvkyanmz1kl63zsRQ55
ZmjoIs2475iFTZYRPAmK0H+8KCgT+2rKVI2SXM3CZZgGns5IW9S1N5NGQXwH3c/6
Q++6Z2H/fUnguzB9XIDj5hY5S6c=
-----END CERTIFICATE-----

