Certificate:
    Data:
        Version: 3 (0x2)
        Serial Number:
            47:bf:19:95:df:8d:52:46:43:f7:db:6d:48:0d:31:a4
    Signature Algorithm: sha1WithRSAEncryption
        Issuer: C=ZA, ST=Western Cape, L=Durbanville, O=Thawte, OU=Thawte Certification, CN=Thawte Timestamping CA
        Validity
            Not Before: Dec  4 00:00:00 2003 GMT
            Not After : Dec  3 23:59:59 2013 GMT
        Subject: C=US, O=VeriSign, Inc., CN=VeriSign Time Stamping Services CA
        Subject Public Key Info:
            Public Key Algorithm: rsaEncryption
                Public-Key: (2048 bit)
                Modulus:
                    00:a9:ca:b2:a4:cc:cd:20:af:0a:7d:89:ac:87:75:
                    f0:b4:4e:f1:df:c1:0f:bf:67:61:bd:a3:64:1c:da:
                    bb:f9:ca:33:ab:84:30:89:58:7e:8c:db:6b:dd:36:
                    9e:0f:bf:d1:ec:78:f2:77:a6:7e:6f:3c:bf:93:af:
                    0d:ba:68:f4:6c:94:ca:bd:52:2d:ab:48:3d:f5:b6:
                    d5:5d:5f:1b:02:9f:fa:2f:6b:1e:a4:f7:a3:9a:a6:
                    1a:c8:02:e1:7f:4c:52:e3:0e:60:ec:40:1c:7e:b9:
                    0d:de:3f:c7:b4:df:87:bd:5f:7a:6a:31:2e:03:99:
                    81:13:a8:47:20:ce:31:73:0d:57:2d:cd:78:34:33:
                    95:12:99:12:b9:de:68:2f:aa:e6:e3:c2:8a:8c:2a:
                    c3:8b:21:87:66:bd:83:58:57:6f:75:bf:3c:aa:26:
                    87:5d:ca:10:15:3c:9f:84:ea:54:c1:0a:6e:c4:fe:
                    c5:4a:dd:b9:07:11:97:22:7c:db:3e:27:d1:1e:78:
                    ec:9f:31:c9:f1:e6:22:19:db:c4:b3:47:43:9a:1a:
                    5f:a0:1e:90:e4:5e:f5:ee:7c:f1:7d:ab:62:01:8f:
                    f5:4d:0b:de:d0:22:56:a8:95:cd:ae:88:76:ae:ee:
                    ba:0d:f3:e4:4d:d9:a0:fb:68:a0:ae:14:3b:b3:87:
                    c1:bb
                Exponent: 65537 (0x10001)
        X509v3 extensions:
            Authority Information Access: 
                OCSP - URI:http://ocsp.verisign.com

            X509v3 Basic Constraints: critical
                CA:TRUE, pathlen:0
            X509v3 CRL Distribution Points: 

                Full Name:
                  URI:http://crl.verisign.com/ThawteTimestampingCA.crl

            X509v3 Extended Key Usage: 
                Time Stamping
            X509v3 Key Usage: critical
                Certificate Sign, CRL Sign
            X509v3 Subject Alternative Name: 
                DirName:/CN=TSA2048-1-53
    Signature Algorithm: sha1WithRSAEncryption
         4a:6b:f9:ea:58:c2:44:1c:31:89:79:99:2b:96:bf:82:ac:01:
         d6:1c:4c:cd:b0:8a:58:6e:df:08:29:a3:5e:c8:ca:93:13:e7:
         04:52:0d:ef:47:27:2f:00:38:b0:e4:c9:93:4e:9a:d4:22:62:
         15:f7:3f:37:21:4f:70:31:80:f1:8b:38:87:b3:e8:e8:97:00:
         fe:cf:55:96:4e:24:d2:a9:27:4e:7a:ae:b7:61:41:f3:2a:ce:
         e7:c9:d9:5e:dd:bb:2b:85:3e:b5:9d:b5:d9:e1:57:ff:be:b4:
         c5:7e:f5:cf:0c:9e:f0:97:fe:2b:d3:3b:52:1b:1b:38:27:f7:
         3f:4a
-----BEGIN CERTIFICATE-----
MIIDxDCCAy2gAwIBAgIQR78Zld+NUkZD99ttSA0xpDANBgkqhkiG9w0BAQUFADCB
izELMAkGA1UEBhMCWkExFTATBgNVBAgTDFdlc3Rlcm4gQ2FwZTEUMBIGA1UEBxML
RHVyYmFudmlsbGUxDzANBgNVBAoTBlRoYXd0ZTEdMBsGA1UECxMUVGhhd3RlIENl
cnRpZmljYXRpb24xHzAdBgNVBAMTFlRoYXd0ZSBUaW1lc3RhbXBpbmcgQ0EwHhcN
MDMxMjA0MDAwMDAwWhcNMTMxMjAzMjM1OTU5WjBTMQswCQYDVQQGEwJVUzEXMBUG
A1UEChMOVmVyaVNpZ24sIEluYy4xKzApBgNVBAMTIlZlcmlTaWduIFRpbWUgU3Rh
bXBpbmcgU2VydmljZXMgQ0EwggEiMA0GCSqGSIb3DQEBAQUAA4IBDwAwggEKAoIB
AQCpyrKkzM0grwp9iayHdfC0TvHfwQ+/Z2G9o2Qc2rv5yjOrhDCJWH6M22vdNp4P
v9HsePJ3pn5vPL+Trw26aPRslMq9Ui2rSD31ttVdXxsCn/ovax6k96OaphrIAuF/
TFLjDmDsQBx+uQ3eP8e034e9X3pqMS4DmYETqEcgzjFzDVctzXg0M5USmRK53mgv
qubjwoqMKsOLIYdmvYNYV291vzyqJoddyhAVPJ+E6lTBCm7E/sVK3bkHEZcifNs+
J9EeeOyfMcnx5iIZ28SzR0OaGl+gHpDkXvXufPF9q2IBj/VNC97QIlaolc2uiHau
7roN8+RN2aD7aKCuFDuzh8G7AgMBAAGjgdswgdgwNAYIKwYBBQUHAQEEKDAmMCQG
CCsGAQUFBzABhhhodHRwOi8vb2NzcC52ZXJpc2lnbi5jb20wEgYDVR0TAQH/BAgw
BgEB/wIBADBBBgNVHR8EOjA4MDagNKAyhjBodHRwOi8vY3JsLnZlcmlzaWduLmNv
bS9UaGF3dGVUaW1lc3RhbXBpbmdDQS5jcmwwEwYDVR0lBAwwCgYIKwYBBQUHAwgw
DgYDVR0PAQH/BAQDAgEGMCQGA1UdEQQdMBukGTAXMRUwEwYDVQQDEwxUU0EyMDQ4
LTEtNTMwDQYJKoZIhvcNAQEFBQADgYEASmv56ljCRBwxiXmZK5a/gqwB1hxMzbCK
WG7fCCmjXsjKkxPnBFIN70cnLwA4sOTJk06a1CJiFfc/NyFPcDGA8Ys4h7Po6JcA
/s9Vlk4k0qknTnqut2FB8yrO58nZXt27K4U+tZ212eFX/760xX71zwye8Jf+K9M7
UhsbOCf3P0o=
-----END CERTIFICATE-----

Certificate:
    Data:
        Version: 3 (0x2)
        Serial Number:
            0d:e9:2b:f0:d4:d8:29:88:18:32:05:09:5e:9a:76:88
    Signature Algorithm: sha1WithRSAEncryption
        Issuer: C=US, O=VeriSign, Inc., CN=VeriSign Time Stamping Services CA
        Validity
            Not Before: Dec  4 00:00:00 2003 GMT
            Not After : Dec  3 23:59:59 2008 GMT
        Subject: C=US, O=VeriSign, Inc., CN=VeriSign Time Stamping Services Signer
        Subject Public Key Info:
            Public Key Algorithm: rsaEncryption
                Public-Key: (2048 bit)
                Modulus:
                    00:b2:50:28:48:dd:d3:68:7a:84:18:44:66:75:5d:
                    7e:c4:b8:9f:63:26:ff:3d:43:9c:7c:11:38:10:25:
                    55:73:d9:75:27:69:fd:4e:b9:20:5c:d3:0a:f9:a0:
                    1b:2a:ed:55:56:21:61:d8:1e:db:e4:bc:33:6b:c7:
                    ef:dd:a3:37:65:8e:1b:93:0c:b6:53:1e:5c:7c:66:
                    35:5f:05:8a:45:fe:76:4e:df:53:80:a2:81:20:9d:
                    ae:88:5c:a2:08:f7:e5:30:f9:ee:22:37:4c:42:0a:
                    ce:df:c6:1f:c4:d6:55:e9:81:3f:b5:52:a3:2c:aa:
                    01:7a:f2:a2:aa:8d:35:fe:9f:e6:5d:6a:05:9f:3d:
                    6b:e3:bf:96:c0:fe:cc:60:f9:40:e7:07:a0:44:eb:
                    81:51:6e:a5:2a:f2:b6:8a:10:28:ed:8f:dc:06:a0:
                    86:50:9a:7b:4a:08:0d:30:1d:ca:10:9e:6b:f7:e9:
                    58:ae:04:a9:40:99:b2:28:e8:8f:16:ac:3c:e3:53:
                    6f:4b:d3:35:9d:b5:6f:64:1d:b3:96:2c:bb:3d:e7:
                    79:eb:6d:7a:f9:16:e6:26:ad:af:ef:99:53:b7:40:
                    2c:95:b8:79:aa:fe:d4:52:ab:29:74:7e:42:ec:39:
                    1e:a2:6a:16:e6:59:bb:24:68:d8:00:80:43:10:87:
                    80:6b
                Exponent: 65537 (0x10001)
        X509v3 extensions:
            Authority Information Access: 
                OCSP - URI:http://ocsp.verisign.com

            X509v3 Basic Constraints: critical
                CA:FALSE
            X509v3 CRL Distribution Points: 

                Full Name:
                  URI:http://crl.verisign.com/tss-ca.crl

            X509v3 Extended Key Usage: critical
                Time Stamping
            X509v3 Key Usage: critical
                Digital Signature, Non Repudiation
            X509v3 Subject Alternative Name: 
                DirName:/CN=TSA2048-1-54
    Signature Algorithm: sha1WithRSAEncryption
         87:78:70:da:4e:52:01:20:5b:e0:79:c9:82:30:c4:fd:b9:19:
         96:bd:91:00:c3:bd:cd:cd:c6:f4:0e:d8:ff:f9:4d:c0:33:62:
         30:11:c5:f5:74:1b:d4:92:de:5f:9c:20:13:b1:7c:45:be:50:
         cd:83:e7:80:17:83:a7:27:93:67:13:46:fb:ca:b8:98:41:03:
         cc:9b:51:5b:05:8b:7f:a8:6f:f3:1b:50:1b:24:2e:f2:69:8d:
         6c:22:f7:bb:ca:16:95:ed:0c:74:c0:68:77:d9:eb:99:62:87:
         c1:73:90:f8:89:74:7a:23:ab:a3:98:7b:97:b1:f7:8f:29:71:
         4d:2e:75:1b:48:41:da:f0:b5:0d:20:54:d6:77:a0:97:82:63:
         69:fd:09:cf:8a:f0:75:bb:09:9b:d9:f9:11:55:26:9a:61:32:
         be:7a:02:b0:7b:86:be:a2:c3:8b:22:2c:78:d1:35:76:bc:92:
         73:5c:f9:b9:e6:4c:15:0a:23:cc:e4:d2:d4:34:2e:49:40:15:
         3c:0f:60:7a:24:c6:a5:66:ef:96:cf:70:eb:3e:e7:f4:0d:7e:
         dc:d1:7c:a3:76:71:69:c1:9c:4f:47:30:35:21:b1:a2:af:1a:
         62:3c:2b:d9:8e:aa:2a:07:7b:d8:18:b3:5c:7b:e2:9d:a5:6f:
         fe:3c:89:ad
-----BEGIN CERTIFICATE-----
MIID/zCCAuegAwIBAgIQDekr8NTYKYgYMgUJXpp2iDANBgkqhkiG9w0BAQUFADBT
MQswCQYDVQQGEwJVUzEXMBUGA1UEChMOVmVyaVNpZ24sIEluYy4xKzApBgNVBAMT
IlZlcmlTaWduIFRpbWUgU3RhbXBpbmcgU2VydmljZXMgQ0EwHhcNMDMxMjA0MDAw
MDAwWhcNMDgxMjAzMjM1OTU5WjBXMQswCQYDVQQGEwJVUzEXMBUGA1UEChMOVmVy
aVNpZ24sIEluYy4xLzAtBgNVBAMTJlZlcmlTaWduIFRpbWUgU3RhbXBpbmcgU2Vy
dmljZXMgU2lnbmVyMIIBIjANBgkqhkiG9w0BAQEFAAOCAQ8AMIIBCgKCAQEAslAo
SN3TaHqEGERmdV1+xLifYyb/PUOcfBE4ECVVc9l1J2n9TrkgXNMK+aAbKu1VViFh
2B7b5Lwza8fv3aM3ZY4bkwy2Ux5cfGY1XwWKRf52Tt9TgKKBIJ2uiFyiCPflMPnu
IjdMQgrO38YfxNZV6YE/tVKjLKoBevKiqo01/p/mXWoFnz1r47+WwP7MYPlA5weg
ROuBUW6lKvK2ihAo7Y/cBqCGUJp7SggNMB3KEJ5r9+lYrgSpQJmyKOiPFqw841Nv
S9M1nbVvZB2zliy7Ped56216+RbmJq2v75lTt0Aslbh5qv7UUqspdH5C7DkeomoW
5lm7JGjYAIBDEIeAawIDAQABo4HKMIHHMDQGCCsGAQUFBwEBBCgwJjAkBggrBgEF
BQcwAYYYaHR0cDovL29jc3AudmVyaXNpZ24uY29tMAwGA1UdEwEB/wQCMAAwMwYD
VR0fBCwwKjAooCagJIYiaHR0cDovL2NybC52ZXJpc2lnbi5jb20vdHNzLWNhLmNy
bDAWBgNVHSUBAf8EDDAKBggrBgEFBQcDCDAOBgNVHQ8BAf8EBAMCBsAwJAYDVR0R
BB0wG6QZMBcxFTATBgNVBAMTDFRTQTIwNDgtMS01NDANBgkqhkiG9w0BAQUFAAOC
AQEAh3hw2k5SASBb4HnJgjDE/bkZlr2RAMO9zc3G9A7Y//lNwDNiMBHF9XQb1JLe
X5wgE7F8Rb5QzYPngBeDpyeTZxNG+8q4mEEDzJtRWwWLf6hv8xtQGyQu8mmNbCL3
u8oWle0MdMBod9nrmWKHwXOQ+Il0eiOro5h7l7H3jylxTS51G0hB2vC1DSBU1neg
l4Jjaf0Jz4rwdbsJm9n5EVUmmmEyvnoCsHuGvqLDiyIseNE1drySc1z5ueZMFQoj
zOTS1DQuSUAVPA9geiTGpWbvls9w6z7n9A1+3NF8o3ZxacGcT0cwNSGxoq8aYjwr
2Y6qKgd72BizXHvinaVv/jyJrQ==
-----END CERTIFICATE-----

Certificate:
    Data:
        Version: 3 (0x2)
        Serial Number:
            41:91:a1:5a:39:78:df:cf:49:65:66:38:1d:4c:75:c2
    Signature Algorithm: sha1WithRSAEncryption
        Issuer: C=US, O=VeriSign, Inc., OU=Class 3 Public Primary Certification Authority
        Validity
            Not Before: Jul 16 00:00:00 2004 GMT
            Not After : Jul 15 23:59:59 2014 GMT
        Subject: C=US, O=VeriSign, Inc., OU=VeriSign Trust Network, OU=Terms of use at https://www.verisign.com/rpa (c)04, CN=VeriSign Class 3 Code Signing 2004 CA
        Subject Public Key Info:
            Public Key Algorithm: rsaEncryption
                Public-Key: (2048 bit)
                Modulus:
                    00:be:bc:ee:bc:7e:ef:83:eb:e0:37:4f:fb:03:10:
                    38:be:08:d2:8c:7d:9d:fa:92:7f:19:0c:c2:6b:ee:
                    42:52:8c:de:d3:1c:48:13:25:ea:c1:63:7a:f9:51:
                    65:ee:d3:aa:3b:f5:f0:94:9c:2b:fb:f2:66:d4:24:
                    da:f7:f5:9f:6e:19:39:36:bc:d0:a3:76:08:1e:22:
                    27:24:6c:38:91:27:e2:84:49:ae:1b:8a:a1:fd:25:
                    82:2c:10:30:e8:71:ab:28:e8:77:4a:51:f1:ec:cd:
                    f8:f0:54:d4:6f:c0:e3:6d:0a:8f:d9:d8:64:8d:63:
                    b2:2d:4e:27:f6:85:0e:fe:6d:e3:29:99:e2:85:47:
                    7c:2d:86:7f:e8:57:8f:ad:67:c2:33:32:91:13:20:
                    fc:a9:23:14:9a:6d:c2:84:4b:76:68:04:d5:71:2c:
                    5d:21:fa:88:0d:26:fd:1f:2d:91:2b:e7:01:55:4d:
                    f2:6d:35:28:82:df:d9:6b:5c:b6:d6:d9:aa:81:fd:
                    5f:cd:83:ba:63:9d:d0:22:fc:a9:3b:42:69:b2:8e:
                    3a:b5:bc:b4:9e:0f:5e:c4:ea:2c:82:8b:28:fd:53:
                    08:96:dd:b5:01:20:d1:f9:a5:18:e7:c0:ee:51:70:
                    37:e1:b6:05:48:52:48:6f:38:ea:c3:e8:6c:7b:44:
                    84:bb
                Exponent: 65537 (0x10001)
        X509v3 extensions:
            X509v3 Basic Constraints: critical
                CA:TRUE, pathlen:0
            X509v3 Certificate Policies: 
                Policy: 2.16.840.1.113733.1.7.23.3
                  CPS: https://www.verisign.com/rpa

            X509v3 CRL Distribution Points: 

                Full Name:
                  URI:http://crl.verisign.com/pca3.crl

            X509v3 Extended Key Usage: 
                TLS Web Client Authentication, Code Signing
            X509v3 Key Usage: critical
                Certificate Sign, CRL Sign
            Netscape Cert Type: 
                Object Signing CA
            X509v3 Subject Alternative Name: 
                DirName:/CN=Class3CA2048-1-43
            X509v3 Subject Key Identifier: 
                08:F5:51:E8:FB:FE:3D:3D:64:36:7C:68:CF:5B:78:A8:DF:B9:C5:37
            X509v3 Authority Key Identifier: 
                DirName:/C=US/O=VeriSign, Inc./OU=Class 3 Public Primary Certification Authority
                serial:70:BA:E4:1D:10:D9:29:34:B6:38:CA:7B:03:CC:BA:BF

    Signature Algorithm: sha1WithRSAEncryption
         ae:3a:17:b8:4a:7b:55:fa:64:55:ec:40:a4:ed:49:41:90:99:
         9c:89:bc:af:2e:1d:ca:78:23:f9:1c:19:0f:7f:eb:68:bc:32:
         d9:88:38:de:dc:3f:d3:89:b4:3f:b1:82:96:f1:a4:5a:ba:ed:
         2e:26:d3:de:7c:01:6e:00:0a:00:a4:06:92:11:48:09:40:f9:
         1c:18:79:67:23:24:e0:bb:d5:e1:50:ae:1b:f5:0e:dd:e0:2e:
         81:cd:80:a3:6c:52:4f:91:75:55:8a:ba:22:f2:d2:ea:41:75:
         88:2f:63:55:7d:1e:54:5a:95:59:ca:d9:34:81:c0:5f:5e:f6:
         7a:b5
-----BEGIN CERTIFICATE-----
MIIEvzCCBCigAwIBAgIQQZGhWjl4389JZWY4HUx1wjANBgkqhkiG9w0BAQUFADBf
MQswCQYDVQQGEwJVUzEXMBUGA1UEChMOVmVyaVNpZ24sIEluYy4xNzA1BgNVBAsT
LkNsYXNzIDMgUHVibGljIFByaW1hcnkgQ2VydGlmaWNhdGlvbiBBdXRob3JpdHkw
HhcNMDQwNzE2MDAwMDAwWhcNMTQwNzE1MjM1OTU5WjCBtDELMAkGA1UEBhMCVVMx
FzAVBgNVBAoTDlZlcmlTaWduLCBJbmMuMR8wHQYDVQQLExZWZXJpU2lnbiBUcnVz
dCBOZXR3b3JrMTswOQYDVQQLEzJUZXJtcyBvZiB1c2UgYXQgaHR0cHM6Ly93d3cu
dmVyaXNpZ24uY29tL3JwYSAoYykwNDEuMCwGA1UEAxMlVmVyaVNpZ24gQ2xhc3Mg
MyBDb2RlIFNpZ25pbmcgMjAwNCBDQTCCASIwDQYJKoZIhvcNAQEBBQADggEPADCC
AQoCggEBAL687rx+74Pr4DdP+wMQOL4I0ox9nfqSfxkMwmvuQlKM3tMcSBMl6sFj
evlRZe7Tqjv18JScK/vyZtQk2vf1n24ZOTa80KN2CB4iJyRsOJEn4oRJrhuKof0l
giwQMOhxqyjod0pR8ezN+PBU1G/A420Kj9nYZI1jsi1OJ/aFDv5t4ymZ4oVHfC2G
f+hXj61nwjMykRMg/KkjFJptwoRLdmgE1XEsXSH6iA0m/R8tkSvnAVVN8m01KILf
2WtcttbZqoH9X82DumOd0CL8qTtCabKOOrW8tJ4PXsTqLIKLKP1TCJbdtQEg0fml
GOfA7lFwN+G2BUhSSG846sPobHtEhLsCAwEAAaOCAaAwggGcMBIGA1UdEwEB/wQI
MAYBAf8CAQAwRAYDVR0gBD0wOzA5BgtghkgBhvhFAQcXAzAqMCgGCCsGAQUFBwIB
FhxodHRwczovL3d3dy52ZXJpc2lnbi5jb20vcnBhMDEGA1UdHwQqMCgwJqAkoCKG
IGh0dHA6Ly9jcmwudmVyaXNpZ24uY29tL3BjYTMuY3JsMB0GA1UdJQQWMBQGCCsG
AQUFBwMCBggrBgEFBQcDAzAOBgNVHQ8BAf8EBAMCAQYwEQYJYIZIAYb4QgEBBAQD
AgABMCkGA1UdEQQiMCCkHjAcMRowGAYDVQQDExFDbGFzczNDQTIwNDgtMS00MzAd
BgNVHQ4EFgQUCPVR6Pv+PT1kNnxoz1t4qN+5xTcwgYAGA1UdIwR5MHehY6RhMF8x
CzAJBgNVBAYTAlVTMRcwFQYDVQQKEw5WZXJpU2lnbiwgSW5jLjE3MDUGA1UECxMu
Q2xhc3MgMyBQdWJsaWMgUHJpbWFyeSBDZXJ0aWZpY2F0aW9uIEF1dGhvcml0eYIQ
cLrkHRDZKTS2OMp7A8y6vzANBgkqhkiG9w0BAQUFAAOBgQCuOhe4SntV+mRV7ECk
7UlBkJmcibyvLh3KeCP5HBkPf+tovDLZiDje3D/TibQ/sYKW8aRauu0uJtPefAFu
AAoApAaSEUgJQPkcGHlnIyTgu9XhUK4b9Q7d4C6BzYCjbFJPkXVViroi8tLqQXWI
L2NVfR5UWpVZytk0gcBfXvZ6tQ==
-----END CERTIFICATE-----

Certificate:
    Data:
        Version: 3 (0x2)
        Serial Number:
            28:d2:02:39:8d:a9:29:fc:de:fa:15:a5:3c:d0:d7:80
    Signature Algorithm: sha1WithRSAEncryption
        Issuer: C=US, O=VeriSign, Inc., OU=VeriSign Trust Network, OU=Terms of use at https://www.verisign.com/rpa (c)04, CN=VeriSign Class 3 Code Signing 2004 CA
        Validity
            Not Before: Aug  3 00:00:00 2006 GMT
            Not After : Sep  5 23:59:59 2007 GMT
        Subject: C=US, ST=California, L=San Diego, O=Hewlett Packard, OU=Digital ID Class 3 - Microsoft Software Validation v2, OU=Desktop Consumer Solutions, CN=Hewlett Packard
        Subject Public Key Info:
            Public Key Algorithm: rsaEncryption
                Public-Key: (1024 bit)
                Modulus:
                    00:be:67:b2:ab:13:99:29:66:8c:05:98:e7:61:96:
                    ba:6a:ed:c6:d9:08:0b:73:ae:c6:a2:d8:6f:14:65:
                    0b:6c:3a:84:f7:45:57:53:17:11:f6:fe:c8:46:17:
                    89:ba:45:07:1e:ce:0c:7b:eb:77:ab:8b:ab:e9:ee:
                    6b:1f:0c:c6:52:a9:e7:92:8e:49:80:c6:65:f5:c4:
                    2c:96:e5:31:97:f7:d6:e2:d8:a9:19:0d:75:38:78:
                    87:2b:1a:8f:7e:56:0a:d5:54:cd:73:0f:ea:5d:c5:
                    d3:f4:9c:43:0f:e1:42:a4:b4:1d:0f:99:9f:a1:15:
                    0a:f0:8b:18:a6:ff:0d:03:6b
                Exponent: 65537 (0x10001)
        X509v3 extensions:
            X509v3 Basic Constraints: 
                CA:FALSE
            X509v3 Key Usage: critical
                Digital Signature
            X509v3 CRL Distribution Points: 

                Full Name:
                  URI:http://CSC3-2004-crl.verisign.com/CSC3-2004.crl

            X509v3 Certificate Policies: 
                Policy: 2.16.840.1.113733.1.7.23.3
                  CPS: https://www.verisign.com/rpa

            X509v3 Extended Key Usage: 
                Code Signing
            Authority Information Access: 
                OCSP - URI:http://ocsp.verisign.com
                CA Issuers - URI:http://CSC3-2004-aia.verisign.com/CSC3-2004-aia.cer

            X509v3 Authority Key Identifier: 
                keyid:08:F5:51:E8:FB:FE:3D:3D:64:36:7C:68:CF:5B:78:A8:DF:B9:C5:37

            Netscape Cert Type: 
                Object Signing
            1.3.6.1.4.1.311.2.1.27: 
                0.......
    Signature Algorithm: sha1WithRSAEncryption
         3f:d7:1e:4e:22:92:02:85:f6:ec:2c:a0:fc:68:18:df:f7:f5:
         53:7a:fd:3c:64:36:0d:cc:2a:81:59:6e:60:ea:fb:a3:ef:1d:
         ef:16:a8:80:89:fd:6e:84:4e:4d:8a:e3:17:9f:57:f4:29:43:
         7d:30:2a:03:88:ee:c5:fd:67:82:ae:f4:91:3b:a4:02:6a:cf:
         be:46:76:1e:c9:59:e2:55:c1:41:65:cf:0b:4e:e5:a1:72:ff:
         60:1d:b7:ed:7c:51:3b:63:87:1a:3e:f8:51:96:de:ce:9e:9e:
         a2:5b:2f:d2:6e:02:79:eb:c2:ec:30:5c:f4:f2:76:88:19:0b:
         30:ac:3b:fe:02:f7:72:15:49:0a:4e:9a:7a:ec:20:81:eb:5d:
         7b:46:fb:da:8a:be:17:9a:b9:75:3d:98:76:e0:36:43:8a:35:
         2f:ad:42:40:af:ba:ad:07:46:17:6f:55:26:fa:0f:55:b4:fc:
         0d:1f:46:22:a5:2b:2f:f6:3f:65:ce:62:f9:5d:a9:f6:ca:a8:
         b6:a7:72:5e:27:22:98:5c:3d:46:0f:c1:eb:19:df:5d:bd:a5:
         53:97:c3:55:09:58:6b:97:cd:95:84:ae:cd:d8:49:23:62:9c:
         1c:e6:51:8a:10:57:d0:88:0b:c4:b3:42:4d:25:3d:fa:c2:30:
         78:ea:ed:3f
-----BEGIN CERTIFICATE-----
MIIFDDCCA/SgAwIBAgIQKNICOY2pKfze+hWlPNDXgDANBgkqhkiG9w0BAQUFADCB
tDELMAkGA1UEBhMCVVMxFzAVBgNVBAoTDlZlcmlTaWduLCBJbmMuMR8wHQYDVQQL
ExZWZXJpU2lnbiBUcnVzdCBOZXR3b3JrMTswOQYDVQQLEzJUZXJtcyBvZiB1c2Ug
YXQgaHR0cHM6Ly93d3cudmVyaXNpZ24uY29tL3JwYSAoYykwNDEuMCwGA1UEAxMl
VmVyaVNpZ24gQ2xhc3MgMyBDb2RlIFNpZ25pbmcgMjAwNCBDQTAeFw0wNjA4MDMw
MDAwMDBaFw0wNzA5MDUyMzU5NTlaMIHPMQswCQYDVQQGEwJVUzETMBEGA1UECBMK
Q2FsaWZvcm5pYTESMBAGA1UEBxMJU2FuIERpZWdvMRgwFgYDVQQKFA9IZXdsZXR0
IFBhY2thcmQxPjA8BgNVBAsTNURpZ2l0YWwgSUQgQ2xhc3MgMyAtIE1pY3Jvc29m
dCBTb2Z0d2FyZSBWYWxpZGF0aW9uIHYyMSMwIQYDVQQLFBpEZXNrdG9wIENvbnN1
bWVyIFNvbHV0aW9uczEYMBYGA1UEAxQPSGV3bGV0dCBQYWNrYXJkMIGfMA0GCSqG
SIb3DQEBAQUAA4GNADCBiQKBgQC+Z7KrE5kpZowFmOdhlrpq7cbZCAtzrsai2G8U
ZQtsOoT3RVdTFxH2/shGF4m6RQcezgx763eri6vp7msfDMZSqeeSjkmAxmX1xCyW
5TGX99bi2KkZDXU4eIcrGo9+VgrVVM1zD+pdxdP0nEMP4UKktB0PmZ+hFQrwixim
/w0DawIDAQABo4IBfzCCAXswCQYDVR0TBAIwADAOBgNVHQ8BAf8EBAMCB4AwQAYD
VR0fBDkwNzA1oDOgMYYvaHR0cDovL0NTQzMtMjAwNC1jcmwudmVyaXNpZ24uY29t
L0NTQzMtMjAwNC5jcmwwRAYDVR0gBD0wOzA5BgtghkgBhvhFAQcXAzAqMCgGCCsG
AQUFBwIBFhxodHRwczovL3d3dy52ZXJpc2lnbi5jb20vcnBhMBMGA1UdJQQMMAoG
CCsGAQUFBwMDMHUGCCsGAQUFBwEBBGkwZzAkBggrBgEFBQcwAYYYaHR0cDovL29j
c3AudmVyaXNpZ24uY29tMD8GCCsGAQUFBzAChjNodHRwOi8vQ1NDMy0yMDA0LWFp
YS52ZXJpc2lnbi5jb20vQ1NDMy0yMDA0LWFpYS5jZXIwHwYDVR0jBBgwFoAUCPVR
6Pv+PT1kNnxoz1t4qN+5xTcwEQYJYIZIAYb4QgEBBAQDAgQQMBYGCisGAQQBgjcC
ARsECDAGAQEAAQH/MA0GCSqGSIb3DQEBBQUAA4IBAQA/1x5OIpIChfbsLKD8aBjf
9/VTev08ZDYNzCqBWW5g6vuj7x3vFqiAif1uhE5NiuMXn1f0KUN9MCoDiO7F/WeC
rvSRO6QCas++RnYeyVniVcFBZc8LTuWhcv9gHbftfFE7Y4caPvhRlt7Onp6iWy/S
bgJ568LsMFz08naIGQswrDv+AvdyFUkKTpp67CCB6117Rvvair4Xmrl1PZh24DZD
ijUvrUJAr7qtB0YXb1Um+g9VtPwNH0YipSsv9j9lzmL5Xan2yqi2p3JeJyKYXD1G
D8HrGd9dvaVTl8NVCVhrl82VhK7N2EkjYpwc5lGKEFfQiAvEs0JNJT36wjB46u0/
-----END CERTIFICATE-----

