Certificate:
    Data:
        Version: 3 (0x2)
        Serial Number:
            7e:93:eb:fb:7c:c6:4e:59:ea:4b:9a:77:d4:06:fc:3b
    Signature Algorithm: sha1WithRSAEncryption
        Issuer: C=ZA, ST=Western Cape, L=Durbanville, O=Thawte, OU=Thawte Certification, CN=Thawte Timestamping CA
        Validity
            Not Before: Dec 21 00:00:00 2012 GMT
            Not After : Dec 30 23:59:59 2020 GMT
        Subject: C=US, O=Symantec Corporation, CN=Symantec Time Stamping Services CA - G2
        Subject Public Key Info:
            Public Key Algorithm: rsaEncryption
                Public-Key: (2048 bit)
                Modulus:
                    00:b1:ac:b3:49:54:4b:97:1c:12:0a:d8:25:79:91:
                    22:57:2a:6f:dc:b8:26:c4:43:73:6b:c2:bf:2e:50:
                    5a:fb:14:c2:76:8e:43:01:25:43:b4:a1:e2:45:f4:
                    e8:b7:7b:c3:74:cc:22:d7:b4:94:00:02:f7:4d:ed:
                    bf:b4:b7:44:24:6b:cd:5f:45:3b:d1:44:ce:43:12:
                    73:17:82:8b:69:b4:2b:cb:99:1e:ac:72:1b:26:4d:
                    71:1f:b1:31:dd:fb:51:61:02:53:a6:aa:f5:49:2c:
                    05:78:45:a5:2f:89:ce:e7:99:e7:fe:8c:e2:57:3f:
                    3d:c6:92:dc:4a:f8:7b:33:e4:79:0a:fb:f0:75:88:
                    41:9c:ff:c5:03:51:99:aa:d7:6c:9f:93:69:87:65:
                    29:83:85:c2:60:14:c4:c8:c9:3b:14:da:c0:81:f0:
                    1f:0d:74:de:92:22:ab:ca:f7:fb:74:7c:27:e6:f7:
                    4a:1b:7f:a7:c3:9e:2d:ae:8a:ea:a6:e6:aa:27:16:
                    7d:61:f7:98:71:11:bc:e2:50:a1:4b:e5:5d:fa:e5:
                    0e:a7:2c:9f:aa:65:20:d3:d8:96:e8:c8:7c:a5:4e:
                    48:44:ff:19:e2:44:07:92:0b:d7:68:84:80:5d:6a:
                    78:64:45:cd:60:46:7e:54:c1:13:7c:c5:79:f1:c9:
                    c1:71
                Exponent: 65537 (0x10001)
        X509v3 extensions:
            X509v3 Subject Key Identifier: 
                5F:9A:F5:6E:5C:CC:CC:74:9A:D4:DD:7D:EF:3F:DB:EC:4C:80:2E:DD
            Authority Information Access: 
                OCSP - URI:http://ocsp.thawte.com

            X509v3 Basic Constraints: critical
                CA:TRUE, pathlen:0
            X509v3 CRL Distribution Points: 

                Full Name:
                  URI:http://crl.thawte.com/ThawteTimestampingCA.crl

            X509v3 Extended Key Usage: 
                Time Stamping
            X509v3 Key Usage: critical
                Certificate Sign, CRL Sign
            X509v3 Subject Alternative Name: 
                DirName:/CN=TimeStamp-2048-1
    Signature Algorithm: sha1WithRSAEncryption
         03:09:9b:8f:79:ef:7f:59:30:aa:ef:68:b5:fa:e3:09:1d:bb:
         4f:82:06:5d:37:5f:a6:52:9f:16:8d:ea:1c:92:09:44:6e:f5:
         6d:eb:58:7c:30:e8:f9:69:8d:23:73:0b:12:6f:47:a9:ae:39:
         11:f8:2a:b1:9b:b0:1a:c3:8e:eb:59:96:00:ad:ce:0c:4d:b2:
         d0:31:a6:08:5c:2a:7a:fc:e2:7a:1d:57:4c:a8:65:18:e9:79:
         40:62:25:96:6e:c7:c7:37:6a:83:21:08:8e:41:ea:dd:d9:57:
         3f:1d:77:49:87:2a:16:06:5e:a6:38:6a:22:12:a3:51:19:83:
         7e:b6
-----BEGIN CERTIFICATE-----
MIID7jCCA1egAwIBAgIQfpPr+3zGTlnqS5p31Ab8OzANBgkqhkiG9w0BAQUFADCB
izELMAkGA1UEBhMCWkExFTATBgNVBAgTDFdlc3Rlcm4gQ2FwZTEUMBIGA1UEBxML
RHVyYmFudmlsbGUxDzANBgNVBAoTBlRoYXd0ZTEdMBsGA1UECxMUVGhhd3RlIENl
cnRpZmljYXRpb24xHzAdBgNVBAMTFlRoYXd0ZSBUaW1lc3RhbXBpbmcgQ0EwHhcN
MTIxMjIxMDAwMDAwWhcNMjAxMjMwMjM1OTU5WjBeMQswCQYDVQQGEwJVUzEdMBsG
A1UEChMUU3ltYW50ZWMgQ29ycG9yYXRpb24xMDAuBgNVBAMTJ1N5bWFudGVjIFRp
bWUgU3RhbXBpbmcgU2VydmljZXMgQ0EgLSBHMjCCASIwDQYJKoZIhvcNAQEBBQAD
ggEPADCCAQoCggEBALGss0lUS5ccEgrYJXmRIlcqb9y4JsRDc2vCvy5QWvsUwnaO
QwElQ7Sh4kX06Ld7w3TMIte0lAAC903tv7S3RCRrzV9FO9FEzkMScxeCi2m0K8uZ
HqxyGyZNcR+xMd37UWECU6aq9UksBXhFpS+JzueZ5/6M4lc/PcaS3Er4ezPkeQr7
8HWIQZz/xQNRmarXbJ+TaYdlKYOFwmAUxMjJOxTawIHwHw103pIiq8r3+3R8J+b3
Sht/p8OeLa6K6qbmqicWfWH3mHERvOJQoUvlXfrlDqcsn6plINPYlujIfKVOSET/
GeJEB5IL12iEgF1qeGRFzWBGflTBE3zFefHJwXECAwEAAaOB+jCB9zAdBgNVHQ4E
FgQUX5r1blzMzHSa1N197z/b7EyALt0wMgYIKwYBBQUHAQEEJjAkMCIGCCsGAQUF
BzABhhZodHRwOi8vb2NzcC50aGF3dGUuY29tMBIGA1UdEwEB/wQIMAYBAf8CAQAw
PwYDVR0fBDgwNjA0oDKgMIYuaHR0cDovL2NybC50aGF3dGUuY29tL1RoYXd0ZVRp
bWVzdGFtcGluZ0NBLmNybDATBgNVHSUEDDAKBggrBgEFBQcDCDAOBgNVHQ8BAf8E
BAMCAQYwKAYDVR0RBCEwH6QdMBsxGTAXBgNVBAMTEFRpbWVTdGFtcC0yMDQ4LTEw
DQYJKoZIhvcNAQEFBQADgYEAAwmbj3nvf1kwqu9otfrjCR27T4IGXTdfplKfFo3q
HJIJRG71betYfDDo+WmNI3MLEm9Hqa45EfgqsZuwGsOO61mWAK3ODE2y0DGmCFwq
evzieh1XTKhlGOl5QGIllm7HxzdqgyEIjkHq3dlXPx13SYcqFgZepjhqIhKjURmD
frY=
-----END CERTIFICATE-----

Certificate:
    Data:
        Version: 3 (0x2)
        Serial Number:
            04:00:00:00:00:01:2f:4e:e1:35:5c
    Signature Algorithm: sha1WithRSAEncryption
        Issuer: C=BE, O=GlobalSign nv-sa, OU=Root CA, CN=GlobalSign Root CA
        Validity
            Not Before: Apr 13 10:00:00 2011 GMT
            Not After : Apr 13 10:00:00 2019 GMT
        Subject: C=BE, O=GlobalSign nv-sa, CN=GlobalSign CodeSigning CA - G2
        Subject Public Key Info:
            Public Key Algorithm: rsaEncryption
                Public-Key: (2048 bit)
                Modulus:
                    00:b2:4f:14:e7:10:be:d7:26:72:ab:36:97:ef:53:
                    bf:42:84:5e:58:d1:8a:28:fc:43:46:6f:7e:28:44:
                    50:0b:75:5d:00:d7:3c:0a:44:9e:20:6a:a4:f7:45:
                    4a:37:60:a3:6e:3f:12:fa:6d:fa:b6:46:c3:6a:a3:
                    b8:0c:27:28:02:57:28:d1:50:f7:61:39:55:b8:c3:
                    e1:25:86:52:3c:bf:05:1d:d7:b3:9a:f8:9a:24:31:
                    49:d5:a2:a9:e2:d3:91:ab:3e:3c:73:ef:f6:29:f1:
                    c8:35:d0:30:7b:7f:4e:92:a5:06:8f:87:e2:ce:f5:
                    c1:63:66:ac:18:69:2a:c1:5e:bb:5a:e8:6e:95:ff:
                    3b:80:62:9d:99:c7:c7:2f:66:d5:fd:62:1a:82:55:
                    5a:c6:fa:40:77:8e:c9:30:3c:1b:f0:f2:35:b8:6c:
                    59:9c:fd:e9:d6:ca:b4:40:1e:f7:04:ca:d1:67:a9:
                    74:e3:a5:08:54:d9:83:35:3b:8e:8c:23:0c:75:b6:
                    de:86:4a:9e:1a:3e:0a:50:49:38:9c:d2:a8:90:bf:
                    98:fa:c8:8c:2b:27:11:7e:2a:fb:ce:de:a9:ae:38:
                    93:22:fa:a6:ec:fb:5c:61:76:c3:44:d6:cc:0c:7e:
                    2f:6d:06:80:a2:74:40:bb:b7:1f:f4:3b:d7:73:54:
                    1f:f3
                Exponent: 65537 (0x10001)
        X509v3 extensions:
            X509v3 Key Usage: critical
                Certificate Sign, CRL Sign
            X509v3 Basic Constraints: critical
                CA:TRUE, pathlen:0
            X509v3 Subject Key Identifier: 
                08:6E:D8:B6:9C:8A:BF:ED:3E:D7:C3:74:5D:CC:80:1F:A8:2F:50:7A
            X509v3 Certificate Policies: 
                Policy: X509v3 Any Policy
                  CPS: https://www.globalsign.com/repository/

            X509v3 CRL Distribution Points: 

                Full Name:
                  URI:http://crl.globalsign.net/root.crl

            X509v3 Extended Key Usage: 
                Code Signing
            X509v3 Authority Key Identifier: 
                keyid:60:7B:66:1A:45:0D:97:CA:89:50:2F:7D:04:CD:34:A8:FF:FC:FD:4B

    Signature Algorithm: sha1WithRSAEncryption
         22:5c:c5:dd:3d:f4:0b:70:d8:e3:f5:e7:c5:8e:09:01:bb:b1:
         96:36:5c:5a:07:ad:c7:a8:44:49:51:25:7a:ae:0d:a4:19:3b:
         92:9c:cf:b9:42:26:bb:3b:6c:97:e7:c7:ce:11:6d:68:91:da:
         8d:6d:f1:53:4d:54:38:8c:61:f3:c8:82:76:69:be:81:32:0b:
         31:c3:6c:c9:9e:20:0a:58:2f:f0:48:fe:7e:48:07:aa:d7:43:
         58:94:73:54:04:31:a9:78:0d:3b:8c:b0:70:c1:3d:7e:d7:bd:
         2f:2a:c3:e2:f5:8f:0c:90:dc:6b:a5:c8:be:68:5e:5d:6d:f8:
         78:d2:be:49:95:1e:15:78:08:91:fb:34:c8:be:84:ad:bc:e0:
         c6:dd:18:db:f3:ca:f0:7b:c2:14:3c:18:b8:03:ba:95:3e:21:
         1e:3f:60:69:7a:7f:6a:03:9e:8d:4a:f9:f0:28:2c:30:84:5e:
         ec:26:72:42:b1:6d:cb:64:c3:12:8c:d6:84:4b:67:41:7c:b1:
         03:17:78:09:e3:ad:a8:b6:96:2d:a4:7e:80:03:4f:88:f7:c1:
         6b:5a:46:15:cd:2c:19:8b:d8:70:9c:e5:2d:49:88:60:72:a8:
         a4:19:52:70:43:5e:da:d6:46:03:b0:68:0e:24:ef:4a:f6:0b:
         25:24:ef:24
-----BEGIN CERTIFICATE-----
MIIEKDCCAxCgAwIBAgILBAAAAAABL07hNVwwDQYJKoZIhvcNAQEFBQAwVzELMAkG
A1UEBhMCQkUxGTAXBgNVBAoTEEdsb2JhbFNpZ24gbnYtc2ExEDAOBgNVBAsTB1Jv
b3QgQ0ExGzAZBgNVBAMTEkdsb2JhbFNpZ24gUm9vdCBDQTAeFw0xMTA0MTMxMDAw
MDBaFw0xOTA0MTMxMDAwMDBaMFExCzAJBgNVBAYTAkJFMRkwFwYDVQQKExBHbG9i
YWxTaWduIG52LXNhMScwJQYDVQQDEx5HbG9iYWxTaWduIENvZGVTaWduaW5nIENB
IC0gRzIwggEiMA0GCSqGSIb3DQEBAQUAA4IBDwAwggEKAoIBAQCyTxTnEL7XJnKr
NpfvU79ChF5Y0Yoo/ENGb34oRFALdV0A1zwKRJ4gaqT3RUo3YKNuPxL6bfq2RsNq
o7gMJygCVyjRUPdhOVW4w+ElhlI8vwUd17Oa+JokMUnVoqni05GrPjxz7/Yp8cg1
0DB7f06SpQaPh+LO9cFjZqwYaSrBXrta6G6V/zuAYp2Zx8cvZtX9YhqCVVrG+kB3
jskwPBvw8jW4bFmc/enWyrRAHvcEytFnqXTjpQhU2YM1O46MIwx1tt6GSp4aPgpQ
STic0qiQv5j6yIwrJxF+KvvO3qmuOJMi+qbs+1xhdsNE1swMfi9tBoCidEC7tx/0
O9dzVB/zAgMBAAGjgfowgfcwDgYDVR0PAQH/BAQDAgEGMBIGA1UdEwEB/wQIMAYB
Af8CAQAwHQYDVR0OBBYEFAhu2Lacir/tPtfDdF3MgB+oL1B6MEcGA1UdIARAMD4w
PAYEVR0gADA0MDIGCCsGAQUFBwIBFiZodHRwczovL3d3dy5nbG9iYWxzaWduLmNv
bS9yZXBvc2l0b3J5LzAzBgNVHR8ELDAqMCigJqAkhiJodHRwOi8vY3JsLmdsb2Jh
bHNpZ24ubmV0L3Jvb3QuY3JsMBMGA1UdJQQMMAoGCCsGAQUFBwMDMB8GA1UdIwQY
MBaAFGB7ZhpFDZfKiVAvfQTNNKj//P1LMA0GCSqGSIb3DQEBBQUAA4IBAQAiXMXd
PfQLcNjj9efFjgkBu7GWNlxaB63HqERJUSV6rg2kGTuSnM+5Qia7O2yX58fOEW1o
kdqNbfFTTVQ4jGHzyIJ2ab6BMgsxw2zJniAKWC/wSP5+SAeq10NYlHNUBDGpeA07
jLBwwT1+170vKsPi9Y8MkNxrpci+aF5dbfh40r5JlR4VeAiR+zTIvoStvODG3Rjb
88rwe8IUPBi4A7qVPiEeP2Bpen9qA56NSvnwKCwwhF7sJnJCsW3LZMMSjNaES2dB
fLEDF3gJ462otpYtpH6AA0+I98FrWkYVzSwZi9hwnOUtSYhgcqikGVJwQ17a1kYD
sGgOJO9K9gslJO8k
-----END CERTIFICATE-----

Certificate:
    Data:
        Version: 3 (0x2)
        Serial Number:
            0e:cf:f4:38:c8:fe:bf:35:6e:04:d8:6a:98:1b:1a:50
    Signature Algorithm: sha1WithRSAEncryption
        Issuer: C=US, O=Symantec Corporation, CN=Symantec Time Stamping Services CA - G2
        Validity
            Not Before: Oct 18 00:00:00 2012 GMT
            Not After : Dec 29 23:59:59 2020 GMT
        Subject: C=US, O=Symantec Corporation, CN=Symantec Time Stamping Services Signer - G4
        Subject Public Key Info:
            Public Key Algorithm: rsaEncryption
                Public-Key: (2048 bit)
                Modulus:
                    00:a2:63:0b:39:44:b8:bb:23:a7:44:49:bb:0e:ff:
                    a1:f0:61:0a:53:93:b0:98:db:ad:2c:0f:4a:c5:6e:
                    ff:86:3c:53:55:0f:15:ce:04:3f:2b:fd:a9:96:96:
                    d9:be:61:79:0b:5b:c9:4c:86:76:e5:e0:43:4b:22:
                    95:ee:c2:2b:43:c1:9f:d8:68:b4:8e:40:4f:ee:85:
                    38:b9:11:c5:23:f2:64:58:f0:15:32:6f:4e:57:a1:
                    ae:88:a4:02:d7:2a:1e:cd:4b:e1:dd:63:d5:17:89:
                    32:5b:b0:5e:99:5a:a8:9d:28:50:0e:17:ee:96:db:
                    61:3b:45:51:1d:cf:12:56:0b:92:47:fc:ab:ae:f6:
                    66:3d:47:ac:70:72:e7:92:e7:5f:cd:10:b9:c4:83:
                    64:94:19:bd:25:80:e1:e8:d2:22:a5:d0:ba:02:7a:
                    a1:77:93:5b:65:c3:ee:17:74:bc:41:86:2a:dc:08:
                    4c:8c:92:8c:91:2d:9e:77:44:1f:68:d6:a8:74:77:
                    db:0e:5b:32:8b:56:8b:33:bd:d9:63:c8:49:9d:3a:
                    c5:c5:ea:33:0b:d2:f1:a3:1b:f4:8b:be:d9:b3:57:
                    8b:3b:de:04:a7:7a:22:b2:24:ae:2e:c7:70:c5:be:
                    4e:83:26:08:fb:0b:bd:a9:4f:99:08:e1:10:28:72:
                    aa:cd
                Exponent: 65537 (0x10001)
        X509v3 extensions:
            X509v3 Basic Constraints: critical
                CA:FALSE
            X509v3 Extended Key Usage: critical
                Time Stamping
            X509v3 Key Usage: critical
                Digital Signature
            Authority Information Access: 
                OCSP - URI:http://ts-ocsp.ws.symantec.com
                CA Issuers - URI:http://ts-aia.ws.symantec.com/tss-ca-g2.cer

            X509v3 CRL Distribution Points: 

                Full Name:
                  URI:http://ts-crl.ws.symantec.com/tss-ca-g2.crl

            X509v3 Subject Alternative Name: 
                DirName:/CN=TimeStamp-2048-2
            X509v3 Subject Key Identifier: 
                46:C6:69:A3:0E:4A:14:1E:D5:4C:DA:52:63:17:3F:5E:36:BC:0D:E6
            X509v3 Authority Key Identifier: 
                keyid:5F:9A:F5:6E:5C:CC:CC:74:9A:D4:DD:7D:EF:3F:DB:EC:4C:80:2E:DD

    Signature Algorithm: sha1WithRSAEncryption
         78:3b:b4:91:2a:00:4c:f0:8f:62:30:37:78:a3:84:27:07:6f:
         18:b2:de:25:dc:a0:d4:94:03:aa:86:4e:25:9f:9a:40:03:1c:
         dd:ce:e3:79:cb:21:68:06:da:b6:32:b4:6d:bf:f4:2c:26:63:
         33:e4:49:64:6d:0d:e6:c3:67:0e:f7:05:a4:35:6c:7c:89:16:
         c6:e9:b2:df:b2:e9:dd:20:c6:71:0f:cd:95:74:dc:b6:5c:de:
         bd:37:1f:43:78:e6:78:b5:cd:28:04:20:a3:aa:f1:4b:c4:88:
         29:91:0e:80:d1:11:fc:dd:5c:76:6e:4f:5e:0e:45:46:41:6e:
         0d:b0:ea:38:9a:b1:3a:da:09:71:10:fc:1c:79:b4:80:7b:ac:
         69:f4:fd:9c:b6:0c:16:2b:f1:7f:5b:09:3d:9b:5b:e2:16:ca:
         13:81:6d:00:2e:38:0d:a8:29:8f:2c:e1:b2:f4:5a:a9:01:af:
         15:9c:2c:2f:49:1b:db:22:bb:c3:fe:78:94:51:c3:86:b1:82:
         88:5d:f0:3d:b4:51:a1:79:33:2b:2e:7b:b9:dc:20:09:13:71:
         eb:6a:19:5b:cf:e8:a5:30:57:2c:89:49:3f:b9:cf:7f:c9:bf:
         3e:22:68:63:53:9a:bd:69:74:ac:c5:1d:3c:7f:92:e0:c3:bc:
         1c:d8:04:75
-----BEGIN CERTIFICATE-----
MIIEozCCA4ugAwIBAgIQDs/0OMj+vzVuBNhqmBsaUDANBgkqhkiG9w0BAQUFADBe
MQswCQYDVQQGEwJVUzEdMBsGA1UEChMUU3ltYW50ZWMgQ29ycG9yYXRpb24xMDAu
BgNVBAMTJ1N5bWFudGVjIFRpbWUgU3RhbXBpbmcgU2VydmljZXMgQ0EgLSBHMjAe
Fw0xMjEwMTgwMDAwMDBaFw0yMDEyMjkyMzU5NTlaMGIxCzAJBgNVBAYTAlVTMR0w
GwYDVQQKExRTeW1hbnRlYyBDb3Jwb3JhdGlvbjE0MDIGA1UEAxMrU3ltYW50ZWMg
VGltZSBTdGFtcGluZyBTZXJ2aWNlcyBTaWduZXIgLSBHNDCCASIwDQYJKoZIhvcN
AQEBBQADggEPADCCAQoCggEBAKJjCzlEuLsjp0RJuw7/ofBhClOTsJjbrSwPSsVu
/4Y8U1UPFc4EPyv9qZaW2b5heQtbyUyGduXgQ0sile7CK0PBn9hotI5AT+6FOLkR
xSPyZFjwFTJvTlehroikAtcqHs1L4d1j1ReJMluwXplaqJ0oUA4X7pbbYTtFUR3P
ElYLkkf8q672Zj1HrHBy55LnX80QucSDZJQZvSWA4ejSIqXQugJ6oXeTW2XD7hd0
vEGGKtwITIySjJEtnndEH2jWqHR32w5bMotWizO92WPISZ06xcXqMwvS8aMb9Iu+
2bNXizveBKd6IrIkri7HcMW+ToMmCPsLvalPmQjhEChyqs0CAwEAAaOCAVcwggFT
MAwGA1UdEwEB/wQCMAAwFgYDVR0lAQH/BAwwCgYIKwYBBQUHAwgwDgYDVR0PAQH/
BAQDAgeAMHMGCCsGAQUFBwEBBGcwZTAqBggrBgEFBQcwAYYeaHR0cDovL3RzLW9j
c3Aud3Muc3ltYW50ZWMuY29tMDcGCCsGAQUFBzAChitodHRwOi8vdHMtYWlhLndz
LnN5bWFudGVjLmNvbS90c3MtY2EtZzIuY2VyMDwGA1UdHwQ1MDMwMaAvoC2GK2h0
dHA6Ly90cy1jcmwud3Muc3ltYW50ZWMuY29tL3Rzcy1jYS1nMi5jcmwwKAYDVR0R
BCEwH6QdMBsxGTAXBgNVBAMTEFRpbWVTdGFtcC0yMDQ4LTIwHQYDVR0OBBYEFEbG
aaMOShQe1UzaUmMXP142vA3mMB8GA1UdIwQYMBaAFF+a9W5czMx0mtTdfe8/2+xM
gC7dMA0GCSqGSIb3DQEBBQUAA4IBAQB4O7SRKgBM8I9iMDd4o4QnB28Yst4l3KDU
lAOqhk4ln5pAAxzdzuN5yyFoBtq2MrRtv/QsJmMz5ElkbQ3mw2cO9wWkNWx8iRbG
6bLfsundIMZxD82VdNy2XN69Nx9DeOZ4tc0oBCCjqvFLxIgpkQ6A0RH83Vx2bk9e
DkVGQW4NsOo4mrE62glxEPwcebSAe6xp9P2ctgwWK/F/Wwk9m1viFsoTgW0ALjgN
qCmPLOGy9FqpAa8VnCwvSRvbIrvD/niUUcOGsYKIXfA9tFGheTMrLnu53CAJE3Hr
ahlbz+ilMFcsiUk/uc9/yb8+ImhjU5q9aXSsxR08f5Lgw7wc2AR1
-----END CERTIFICATE-----

Certificate:
    Data:
        Version: 3 (0x2)
        Serial Number:
            11:21:ad:1a:e3:f6:01:b1:67:f7:83:4f:b7:55:28:c9:c9:76
    Signature Algorithm: sha1WithRSAEncryption
        Issuer: C=BE, O=GlobalSign nv-sa, CN=GlobalSign CodeSigning CA - G2
        Validity
            Not Before: Dec 16 09:12:59 2013 GMT
            Not After : Dec 17 09:12:59 2015 GMT
        Subject: C=CN, ST=\xE6\xB5\x99\xE6\xB1\x9F, L=\xE6\x9D\xAD\xE5\xB7\x9E, O=\xE6\x9D\xAD\xE5\xB7\x9E\xE8\xB7\x83\xE5\x85\x94\xE7\xBD\x91\xE7\xBB\x9C\xE7\xA7\x91\xE6\x8A\x80\xE6\x9C\x89\xE9\x99\x90\xE5\x85\xAC\xE5\x8F\xB8, CN=\xE6\x9D\xAD\xE5\xB7\x9E\xE8\xB7\x83\xE5\x85\x94\xE7\xBD\x91\xE7\xBB\x9C\xE7\xA7\x91\xE6\x8A\x80\xE6\x9C\x89\xE9\x99\x90\xE5\x85\xAC\xE5\x8F\xB8
        Subject Public Key Info:
            Public Key Algorithm: rsaEncryption
                Public-Key: (2048 bit)
                Modulus:
                    00:ed:df:f7:02:e2:98:04:45:7f:11:d1:7a:e2:3e:
                    ae:6a:e1:fa:c1:aa:3b:49:de:1a:26:2d:7a:70:cc:
                    ab:1b:03:ce:19:96:f4:7d:1d:9d:6b:40:3e:f4:b3:
                    a9:4d:bc:aa:b6:ef:cd:0f:54:00:28:ec:a3:e6:97:
                    8f:9e:a1:19:d8:46:6e:7f:89:ad:4d:db:51:1b:6f:
                    44:93:3f:1f:47:2a:47:8e:3a:e2:8e:ec:47:b4:00:
                    13:58:a2:5e:05:f8:08:2e:49:e3:5f:72:e8:eb:7f:
                    cb:4a:f3:5d:39:69:83:67:23:7e:10:a9:8a:35:11:
                    0e:a4:e3:18:97:32:82:80:80:f1:1a:b4:9d:41:58:
                    b5:59:ed:e5:15:fb:24:80:c9:c2:34:56:bb:47:78:
                    03:aa:99:04:02:68:57:fa:a6:39:40:09:07:cf:b9:
                    23:c1:d1:76:d9:da:52:27:bb:12:a9:e8:30:76:f4:
                    e9:0b:a8:12:05:f7:85:cf:65:eb:91:7a:81:92:a6:
                    90:31:bf:e7:25:70:a9:6b:7b:e8:b3:1b:d9:62:54:
                    f6:bc:1f:be:bb:4e:36:d6:c6:ed:68:fb:5d:a3:3b:
                    1b:98:3b:31:ea:69:fb:14:ce:f3:40:a5:7e:b3:2a:
                    f6:df:ba:1e:ab:d3:9d:a8:7c:6e:ae:2d:55:d4:7a:
                    ef:13
                Exponent: 65537 (0x10001)
        X509v3 extensions:
            X509v3 Key Usage: critical
                Digital Signature
            X509v3 Certificate Policies: 
                Policy: 1.3.6.1.4.1.4146.1.50
                  CPS: https://www.globalsign.com/repository/

            X509v3 Basic Constraints: 
                CA:FALSE
            X509v3 Extended Key Usage: 
                Code Signing
            X509v3 CRL Distribution Points: 

                Full Name:
                  URI:http://crl.globalsign.com/gs/gscodesigng2.crl

            Authority Information Access: 
                CA Issuers - URI:http://secure.globalsign.com/cacert/gscodesigng2.crt
                OCSP - URI:http://ocsp2.globalsign.com/gscodesigng2

            X509v3 Subject Key Identifier: 
                E2:84:C3:1A:DF:21:0A:12:1A:BB:69:FA:AF:EC:22:94:E0:D9:8B:36
            X509v3 Authority Key Identifier: 
                keyid:08:6E:D8:B6:9C:8A:BF:ED:3E:D7:C3:74:5D:CC:80:1F:A8:2F:50:7A

    Signature Algorithm: sha1WithRSAEncryption
         33:a8:4a:41:47:ef:b1:7e:67:00:99:3b:34:1e:67:89:7e:0f:
         79:09:5b:ae:cc:cc:b0:61:87:1e:b0:3f:fa:48:21:f5:f7:24:
         79:6a:f2:c9:ef:60:c6:be:46:04:32:84:30:93:89:9b:79:1b:
         53:90:91:6b:0f:5d:97:75:5c:9a:0e:4b:a4:e5:9d:91:ad:1d:
         1b:aa:3b:49:7b:3b:30:d8:5c:77:28:2e:61:59:67:f2:19:50:
         3b:15:a4:3f:55:cd:2e:fb:67:66:89:fc:ef:ef:e3:52:bb:d4:
         a1:64:83:10:34:93:10:58:12:87:c4:3f:65:a9:de:e3:4b:b6:
         e2:9d:78:e3:7d:35:df:6a:4a:01:0f:63:a7:74:16:89:79:ad:
         fc:b5:28:39:38:23:8c:5f:a2:c7:ef:b3:33:34:57:85:a3:ae:
         01:a1:1d:86:e9:63:21:a5:a2:d4:b5:d1:29:9a:73:d6:e4:5d:
         2a:60:1b:53:2c:f0:30:6c:6b:22:40:4b:f8:3a:5e:6e:6e:32:
         6d:a5:da:ab:a9:1c:1e:94:f9:96:d3:df:2d:a2:94:53:4a:93:
         0e:77:6e:fa:94:1f:f9:c2:df:55:ae:06:52:d0:c5:55:4f:dd:
         12:76:93:49:4a:f0:f9:b8:fb:25:c0:9a:ea:15:09:5e:17:c0:
         a1:b6:ec:fa
-----BEGIN CERTIFICATE-----
MIIE+DCCA+CgAwIBAgISESGtGuP2AbFn94NPt1Uoycl2MA0GCSqGSIb3DQEBBQUA
MFExCzAJBgNVBAYTAkJFMRkwFwYDVQQKExBHbG9iYWxTaWduIG52LXNhMScwJQYD
VQQDEx5HbG9iYWxTaWduIENvZGVTaWduaW5nIENBIC0gRzIwHhcNMTMxMjE2MDkx
MjU5WhcNMTUxMjE3MDkxMjU5WjCBjTELMAkGA1UEBhMCQ04xDzANBgNVBAgMBua1
meaxnzEPMA0GA1UEBwwG5p2t5beeMS0wKwYDVQQKDCTmna3lt57ot4PlhZTnvZHn
u5znp5HmioDmnInpmZDlhazlj7gxLTArBgNVBAMMJOadreW3nui3g+WFlOe9kee7
nOenkeaKgOaciemZkOWFrOWPuDCCASIwDQYJKoZIhvcNAQEBBQADggEPADCCAQoC
ggEBAO3f9wLimARFfxHReuI+rmrh+sGqO0neGiYtenDMqxsDzhmW9H0dnWtAPvSz
qU28qrbvzQ9UACjso+aXj56hGdhGbn+JrU3bURtvRJM/H0cqR4464o7sR7QAE1ii
XgX4CC5J419y6Ot/y0rzXTlpg2cjfhCpijURDqTjGJcygoCA8Rq0nUFYtVnt5RX7
JIDJwjRWu0d4A6qZBAJoV/qmOUAJB8+5I8HRdtnaUie7EqnoMHb06QuoEgX3hc9l
65F6gZKmkDG/5yVwqWt76LMb2WJU9rwfvrtONtbG7Wj7XaM7G5g7Mepp+xTO80Cl
frMq9t+6HqvTnah8bq4tVdR67xMCAwEAAaOCAYswggGHMA4GA1UdDwEB/wQEAwIH
gDBMBgNVHSAERTBDMEEGCSsGAQQBoDIBMjA0MDIGCCsGAQUFBwIBFiZodHRwczov
L3d3dy5nbG9iYWxzaWduLmNvbS9yZXBvc2l0b3J5LzAJBgNVHRMEAjAAMBMGA1Ud
JQQMMAoGCCsGAQUFBwMDMD4GA1UdHwQ3MDUwM6AxoC+GLWh0dHA6Ly9jcmwuZ2xv
YmFsc2lnbi5jb20vZ3MvZ3Njb2Rlc2lnbmcyLmNybDCBhgYIKwYBBQUHAQEEejB4
MEAGCCsGAQUFBzAChjRodHRwOi8vc2VjdXJlLmdsb2JhbHNpZ24uY29tL2NhY2Vy
dC9nc2NvZGVzaWduZzIuY3J0MDQGCCsGAQUFBzABhihodHRwOi8vb2NzcDIuZ2xv
YmFsc2lnbi5jb20vZ3Njb2Rlc2lnbmcyMB0GA1UdDgQWBBTihMMa3yEKEhq7afqv
7CKU4NmLNjAfBgNVHSMEGDAWgBQIbti2nIq/7T7Xw3RdzIAfqC9QejANBgkqhkiG
9w0BAQUFAAOCAQEAM6hKQUfvsX5nAJk7NB5niX4PeQlbrszMsGGHHrA/+kgh9fck
eWryye9gxr5GBDKEMJOJm3kbU5CRaw9dl3Vcmg5LpOWdka0dG6o7SXs7MNhcdygu
YVln8hlQOxWkP1XNLvtnZon87+/jUrvUoWSDEDSTEFgSh8Q/Zane40u24p144301
32pKAQ9jp3QWiXmt/LUoOTgjjF+ix++zMzRXhaOuAaEdhuljIaWi1LXRKZpz1uRd
KmAbUyzwMGxrIkBL+Dpebm4ybaXaq6kcHpT5ltPfLaKUU0qTDndu+pQf+cLfVa4G
UtDFVU/dEnaTSUrw+bj7JcCa6hUJXhfAobbs+g==
-----END CERTIFICATE-----

