Certificate:
    Data:
        Version: 3 (0x2)
        Serial Number:
            7e:93:eb:fb:7c:c6:4e:59:ea:4b:9a:77:d4:06:fc:3b
    Signature Algorithm: sha1WithRSAEncryption
        Issuer: C=ZA, ST=Western Cape, L=Durbanville, O=Thawte, OU=Thawte Certification, CN=Thawte Timestamping CA
        Validity
            Not Before: Dec 21 00:00:00 2012 GMT
            Not After : Dec 30 23:59:59 2020 GMT
        Subject: C=US, O=Symantec Corporation, CN=Symantec Time Stamping Services CA - G2
        Subject Public Key Info:
            Public Key Algorithm: rsaEncryption
                Public-Key: (2048 bit)
                Modulus:
                    00:b1:ac:b3:49:54:4b:97:1c:12:0a:d8:25:79:91:
                    22:57:2a:6f:dc:b8:26:c4:43:73:6b:c2:bf:2e:50:
                    5a:fb:14:c2:76:8e:43:01:25:43:b4:a1:e2:45:f4:
                    e8:b7:7b:c3:74:cc:22:d7:b4:94:00:02:f7:4d:ed:
                    bf:b4:b7:44:24:6b:cd:5f:45:3b:d1:44:ce:43:12:
                    73:17:82:8b:69:b4:2b:cb:99:1e:ac:72:1b:26:4d:
                    71:1f:b1:31:dd:fb:51:61:02:53:a6:aa:f5:49:2c:
                    05:78:45:a5:2f:89:ce:e7:99:e7:fe:8c:e2:57:3f:
                    3d:c6:92:dc:4a:f8:7b:33:e4:79:0a:fb:f0:75:88:
                    41:9c:ff:c5:03:51:99:aa:d7:6c:9f:93:69:87:65:
                    29:83:85:c2:60:14:c4:c8:c9:3b:14:da:c0:81:f0:
                    1f:0d:74:de:92:22:ab:ca:f7:fb:74:7c:27:e6:f7:
                    4a:1b:7f:a7:c3:9e:2d:ae:8a:ea:a6:e6:aa:27:16:
                    7d:61:f7:98:71:11:bc:e2:50:a1:4b:e5:5d:fa:e5:
                    0e:a7:2c:9f:aa:65:20:d3:d8:96:e8:c8:7c:a5:4e:
                    48:44:ff:19:e2:44:07:92:0b:d7:68:84:80:5d:6a:
                    78:64:45:cd:60:46:7e:54:c1:13:7c:c5:79:f1:c9:
                    c1:71
                Exponent: 65537 (0x10001)
        X509v3 extensions:
            X509v3 Subject Key Identifier: 
                5F:9A:F5:6E:5C:CC:CC:74:9A:D4:DD:7D:EF:3F:DB:EC:4C:80:2E:DD
            Authority Information Access: 
                OCSP - URI:http://ocsp.thawte.com

            X509v3 Basic Constraints: critical
                CA:TRUE, pathlen:0
            X509v3 CRL Distribution Points: 

                Full Name:
                  URI:http://crl.thawte.com/ThawteTimestampingCA.crl

            X509v3 Extended Key Usage: 
                Time Stamping
            X509v3 Key Usage: critical
                Certificate Sign, CRL Sign
            X509v3 Subject Alternative Name: 
                DirName:/CN=TimeStamp-2048-1
    Signature Algorithm: sha1WithRSAEncryption
         03:09:9b:8f:79:ef:7f:59:30:aa:ef:68:b5:fa:e3:09:1d:bb:
         4f:82:06:5d:37:5f:a6:52:9f:16:8d:ea:1c:92:09:44:6e:f5:
         6d:eb:58:7c:30:e8:f9:69:8d:23:73:0b:12:6f:47:a9:ae:39:
         11:f8:2a:b1:9b:b0:1a:c3:8e:eb:59:96:00:ad:ce:0c:4d:b2:
         d0:31:a6:08:5c:2a:7a:fc:e2:7a:1d:57:4c:a8:65:18:e9:79:
         40:62:25:96:6e:c7:c7:37:6a:83:21:08:8e:41:ea:dd:d9:57:
         3f:1d:77:49:87:2a:16:06:5e:a6:38:6a:22:12:a3:51:19:83:
         7e:b6
-----BEGIN CERTIFICATE-----
MIID7jCCA1egAwIBAgIQfpPr+3zGTlnqS5p31Ab8OzANBgkqhkiG9w0BAQUFADCB
izELMAkGA1UEBhMCWkExFTATBgNVBAgTDFdlc3Rlcm4gQ2FwZTEUMBIGA1UEBxML
RHVyYmFudmlsbGUxDzANBgNVBAoTBlRoYXd0ZTEdMBsGA1UECxMUVGhhd3RlIENl
cnRpZmljYXRpb24xHzAdBgNVBAMTFlRoYXd0ZSBUaW1lc3RhbXBpbmcgQ0EwHhcN
MTIxMjIxMDAwMDAwWhcNMjAxMjMwMjM1OTU5WjBeMQswCQYDVQQGEwJVUzEdMBsG
A1UEChMUU3ltYW50ZWMgQ29ycG9yYXRpb24xMDAuBgNVBAMTJ1N5bWFudGVjIFRp
bWUgU3RhbXBpbmcgU2VydmljZXMgQ0EgLSBHMjCCASIwDQYJKoZIhvcNAQEBBQAD
ggEPADCCAQoCggEBALGss0lUS5ccEgrYJXmRIlcqb9y4JsRDc2vCvy5QWvsUwnaO
QwElQ7Sh4kX06Ld7w3TMIte0lAAC903tv7S3RCRrzV9FO9FEzkMScxeCi2m0K8uZ
HqxyGyZNcR+xMd37UWECU6aq9UksBXhFpS+JzueZ5/6M4lc/PcaS3Er4ezPkeQr7
8HWIQZz/xQNRmarXbJ+TaYdlKYOFwmAUxMjJOxTawIHwHw103pIiq8r3+3R8J+b3
Sht/p8OeLa6K6qbmqicWfWH3mHERvOJQoUvlXfrlDqcsn6plINPYlujIfKVOSET/
GeJEB5IL12iEgF1qeGRFzWBGflTBE3zFefHJwXECAwEAAaOB+jCB9zAdBgNVHQ4E
FgQUX5r1blzMzHSa1N197z/b7EyALt0wMgYIKwYBBQUHAQEEJjAkMCIGCCsGAQUF
BzABhhZodHRwOi8vb2NzcC50aGF3dGUuY29tMBIGA1UdEwEB/wQIMAYBAf8CAQAw
PwYDVR0fBDgwNjA0oDKgMIYuaHR0cDovL2NybC50aGF3dGUuY29tL1RoYXd0ZVRp
bWVzdGFtcGluZ0NBLmNybDATBgNVHSUEDDAKBggrBgEFBQcDCDAOBgNVHQ8BAf8E
BAMCAQYwKAYDVR0RBCEwH6QdMBsxGTAXBgNVBAMTEFRpbWVTdGFtcC0yMDQ4LTEw
DQYJKoZIhvcNAQEFBQADgYEAAwmbj3nvf1kwqu9otfrjCR27T4IGXTdfplKfFo3q
HJIJRG71betYfDDo+WmNI3MLEm9Hqa45EfgqsZuwGsOO61mWAK3ODE2y0DGmCFwq
evzieh1XTKhlGOl5QGIllm7HxzdqgyEIjkHq3dlXPx13SYcqFgZepjhqIhKjURmD
frY=
-----END CERTIFICATE-----

Certificate:
    Data:
        Version: 3 (0x2)
        Serial Number:
            47:97:4d:78:73:a5:bc:ab:0d:2f:b3:70:19:2f:ce:5e
    Signature Algorithm: sha1WithRSAEncryption
        Issuer: C=US, O=thawte, Inc., OU=Certification Services Division, OU=(c) 2006 thawte, Inc. - For authorized use only, CN=thawte Primary Root CA
        Validity
            Not Before: Feb  8 00:00:00 2010 GMT
            Not After : Feb  7 23:59:59 2020 GMT
        Subject: C=US, O=Thawte, Inc., CN=Thawte Code Signing CA - G2
        Subject Public Key Info:
            Public Key Algorithm: rsaEncryption
                Public-Key: (2048 bit)
                Modulus:
                    00:b7:8b:cf:75:5b:9f:25:da:7e:39:b0:93:db:38:
                    d3:a9:23:d0:82:fa:e9:24:7e:5c:0b:8e:83:f8:e6:
                    7a:59:e6:a3:c5:98:a7:99:d2:44:ff:00:a6:a5:39:
                    04:8a:da:29:88:ea:db:a2:f3:1c:99:15:26:c2:b1:
                    f4:fc:e1:0c:47:a9:09:11:06:0a:20:92:b9:c7:a0:
                    04:8c:5c:94:19:ab:5b:25:2c:1d:62:7e:70:0d:ce:
                    61:6c:dd:2b:82:c9:ce:5d:48:5f:f7:c2:be:bc:41:
                    23:1e:4f:29:5d:d7:4f:bc:f4:c5:2a:fc:63:e6:7c:
                    26:4e:99:a7:79:41:9e:10:4a:7a:79:c9:c6:86:f7:
                    86:95:d2:26:ce:3c:18:2a:d6:7c:ce:af:cd:ad:bb:
                    f7:82:2c:70:26:37:45:e5:0f:47:22:c6:01:28:bd:
                    2e:83:5c:6a:a4:47:c1:e7:d0:d8:6b:81:46:3f:21:
                    17:f5:07:c5:43:5a:a6:67:2c:b8:7b:60:11:b5:83:
                    ee:f5:74:0a:72:71:44:3d:58:fe:e8:1a:ab:38:c3:
                    59:db:7f:6e:38:7d:76:c7:72:69:98:36:96:57:d3:
                    66:1c:d2:54:91:04:2e:54:19:b0:dc:3d:b5:22:5e:
                    86:d5:2a:7e:20:df:5d:e6:7a:b1:65:fe:c5:02:4e:
                    31:2d
                Exponent: 65537 (0x10001)
        X509v3 extensions:
            X509v3 Basic Constraints: critical
                CA:TRUE, pathlen:0
            X509v3 CRL Distribution Points: 

                Full Name:
                  URI:http://crl.thawte.com/ThawtePCA.crl

            X509v3 Key Usage: critical
                Certificate Sign, CRL Sign
            Authority Information Access: 
                OCSP - URI:http://ocsp.thawte.com

            X509v3 Extended Key Usage: 
                TLS Web Client Authentication, Code Signing
            X509v3 Subject Alternative Name: 
                DirName:/CN=VeriSignMPKI-2-10
            X509v3 Subject Key Identifier: 
                D4:0D:65:3F:7A:BD:34:C6:FE:47:E7:4C:0D:C0:BD:F2:DE:15:AB:71
            X509v3 Authority Key Identifier: 
                keyid:7B:5B:45:CF:AF:CE:CB:7A:FD:31:92:1A:6A:B6:F3:46:EB:57:48:50

    Signature Algorithm: sha1WithRSAEncryption
         56:fe:53:5c:e1:c7:9e:bc:a7:ed:7e:53:6d:6a:14:4b:51:8c:
         40:5e:80:5f:aa:a4:e8:2f:ef:38:c8:04:c9:ca:3e:cf:df:3a:
         58:4e:b0:d4:b6:63:c5:29:57:fa:02:05:9a:45:4d:68:db:2a:
         1b:d4:34:3d:9f:00:c3:5a:cb:95:49:a5:6e:e1:b0:c5:fc:41:
         4d:41:4a:6f:d3:77:c8:d7:38:8d:e4:19:de:18:f3:1f:15:65:
         83:6d:45:0c:53:f9:0a:9a:2e:a5:5d:bf:6f:32:81:18:92:19:
         6a:55:00:ad:63:1c:52:06:7e:55:d9:29:68:ae:4a:7c:18:9a:
         79:88:6b:23:23:d8:27:38:2a:29:87:76:ca:fb:c7:b6:62:23:
         1f:ed:7a:56:4c:dd:9c:32:5b:f5:3d:0c:46:18:95:3b:2a:23:
         68:83:64:41:d9:00:6d:0f:19:24:15:68:72:bd:c5:71:67:6e:
         ac:4c:db:90:eb:51:a5:1a:62:07:d0:be:6a:00:47:3c:72:2f:
         ec:4f:61:3e:73:85:ce:5a:0a:b7:ba:c0:1c:13:75:e3:22:39:
         28:dd:6d:1d:09:46:9d:4f:ba:e8:40:81:91:c6:a4:ce:94:72:
         1b:01:cf:2a:6e:15:67:95:89:ae:7d:b7:b7:cd:f9:0a:3d:75:
         b6:6b:3c:25
-----BEGIN CERTIFICATE-----
MIIEnDCCA4SgAwIBAgIQR5dNeHOlvKsNL7NwGS/OXjANBgkqhkiG9w0BAQUFADCB
qTELMAkGA1UEBhMCVVMxFTATBgNVBAoTDHRoYXd0ZSwgSW5jLjEoMCYGA1UECxMf
Q2VydGlmaWNhdGlvbiBTZXJ2aWNlcyBEaXZpc2lvbjE4MDYGA1UECxMvKGMpIDIw
MDYgdGhhd3RlLCBJbmMuIC0gRm9yIGF1dGhvcml6ZWQgdXNlIG9ubHkxHzAdBgNV
BAMTFnRoYXd0ZSBQcmltYXJ5IFJvb3QgQ0EwHhcNMTAwMjA4MDAwMDAwWhcNMjAw
MjA3MjM1OTU5WjBKMQswCQYDVQQGEwJVUzEVMBMGA1UEChMMVGhhd3RlLCBJbmMu
MSQwIgYDVQQDExtUaGF3dGUgQ29kZSBTaWduaW5nIENBIC0gRzIwggEiMA0GCSqG
SIb3DQEBAQUAA4IBDwAwggEKAoIBAQC3i891W58l2n45sJPbONOpI9CC+ukkflwL
joP45npZ5qPFmKeZ0kT/AKalOQSK2imI6tui8xyZFSbCsfT84QxHqQkRBgogkrnH
oASMXJQZq1slLB1ifnANzmFs3SuCyc5dSF/3wr68QSMeTyld10+89MUq/GPmfCZO
mad5QZ4QSnp5ycaG94aV0ibOPBgq1nzOr82tu/eCLHAmN0XlD0cixgEovS6DXGqk
R8Hn0NhrgUY/IRf1B8VDWqZnLLh7YBG1g+71dApycUQ9WP7oGqs4w1nbf244fXbH
cmmYNpZX02Yc0lSRBC5UGbDcPbUiXobVKn4g313merFl/sUCTjEtAgMBAAGjggEc
MIIBGDASBgNVHRMBAf8ECDAGAQH/AgEAMDQGA1UdHwQtMCswKaAnoCWGI2h0dHA6
Ly9jcmwudGhhd3RlLmNvbS9UaGF3dGVQQ0EuY3JsMA4GA1UdDwEB/wQEAwIBBjAy
BggrBgEFBQcBAQQmMCQwIgYIKwYBBQUHMAGGFmh0dHA6Ly9vY3NwLnRoYXd0ZS5j
b20wHQYDVR0lBBYwFAYIKwYBBQUHAwIGCCsGAQUFBwMDMCkGA1UdEQQiMCCkHjAc
MRowGAYDVQQDExFWZXJpU2lnbk1QS0ktMi0xMDAdBgNVHQ4EFgQU1A1lP3q9NMb+
R+dMDcC98t4Vq3EwHwYDVR0jBBgwFoAUe1tFz6/Oy3r9MZIaarbzRutXSFAwDQYJ
KoZIhvcNAQEFBQADggEBAFb+U1zhx568p+1+U21qFEtRjEBegF+qpOgv7zjIBMnK
Ps/fOlhOsNS2Y8UpV/oCBZpFTWjbKhvUND2fAMNay5VJpW7hsMX8QU1BSm/Td8jX
OI3kGd4Y8x8VZYNtRQxT+QqaLqVdv28ygRiSGWpVAK1jHFIGflXZKWiuSnwYmnmI
ayMj2Cc4KimHdsr7x7ZiIx/telZM3ZwyW/U9DEYYlTsqI2iDZEHZAG0PGSQVaHK9
xXFnbqxM25DrUaUaYgfQvmoARzxyL+xPYT5zhc5aCre6wBwTdeMiOSjdbR0JRp1P
uuhAgZHGpM6UchsBzypuFWeVia59t7fN+Qo9dbZrPCU=
-----END CERTIFICATE-----

Certificate:
    Data:
        Version: 3 (0x2)
        Serial Number:
            0e:cf:f4:38:c8:fe:bf:35:6e:04:d8:6a:98:1b:1a:50
    Signature Algorithm: sha1WithRSAEncryption
        Issuer: C=US, O=Symantec Corporation, CN=Symantec Time Stamping Services CA - G2
        Validity
            Not Before: Oct 18 00:00:00 2012 GMT
            Not After : Dec 29 23:59:59 2020 GMT
        Subject: C=US, O=Symantec Corporation, CN=Symantec Time Stamping Services Signer - G4
        Subject Public Key Info:
            Public Key Algorithm: rsaEncryption
                Public-Key: (2048 bit)
                Modulus:
                    00:a2:63:0b:39:44:b8:bb:23:a7:44:49:bb:0e:ff:
                    a1:f0:61:0a:53:93:b0:98:db:ad:2c:0f:4a:c5:6e:
                    ff:86:3c:53:55:0f:15:ce:04:3f:2b:fd:a9:96:96:
                    d9:be:61:79:0b:5b:c9:4c:86:76:e5:e0:43:4b:22:
                    95:ee:c2:2b:43:c1:9f:d8:68:b4:8e:40:4f:ee:85:
                    38:b9:11:c5:23:f2:64:58:f0:15:32:6f:4e:57:a1:
                    ae:88:a4:02:d7:2a:1e:cd:4b:e1:dd:63:d5:17:89:
                    32:5b:b0:5e:99:5a:a8:9d:28:50:0e:17:ee:96:db:
                    61:3b:45:51:1d:cf:12:56:0b:92:47:fc:ab:ae:f6:
                    66:3d:47:ac:70:72:e7:92:e7:5f:cd:10:b9:c4:83:
                    64:94:19:bd:25:80:e1:e8:d2:22:a5:d0:ba:02:7a:
                    a1:77:93:5b:65:c3:ee:17:74:bc:41:86:2a:dc:08:
                    4c:8c:92:8c:91:2d:9e:77:44:1f:68:d6:a8:74:77:
                    db:0e:5b:32:8b:56:8b:33:bd:d9:63:c8:49:9d:3a:
                    c5:c5:ea:33:0b:d2:f1:a3:1b:f4:8b:be:d9:b3:57:
                    8b:3b:de:04:a7:7a:22:b2:24:ae:2e:c7:70:c5:be:
                    4e:83:26:08:fb:0b:bd:a9:4f:99:08:e1:10:28:72:
                    aa:cd
                Exponent: 65537 (0x10001)
        X509v3 extensions:
            X509v3 Basic Constraints: critical
                CA:FALSE
            X509v3 Extended Key Usage: critical
                Time Stamping
            X509v3 Key Usage: critical
                Digital Signature
            Authority Information Access: 
                OCSP - URI:http://ts-ocsp.ws.symantec.com
                CA Issuers - URI:http://ts-aia.ws.symantec.com/tss-ca-g2.cer

            X509v3 CRL Distribution Points: 

                Full Name:
                  URI:http://ts-crl.ws.symantec.com/tss-ca-g2.crl

            X509v3 Subject Alternative Name: 
                DirName:/CN=TimeStamp-2048-2
            X509v3 Subject Key Identifier: 
                46:C6:69:A3:0E:4A:14:1E:D5:4C:DA:52:63:17:3F:5E:36:BC:0D:E6
            X509v3 Authority Key Identifier: 
                keyid:5F:9A:F5:6E:5C:CC:CC:74:9A:D4:DD:7D:EF:3F:DB:EC:4C:80:2E:DD

    Signature Algorithm: sha1WithRSAEncryption
         78:3b:b4:91:2a:00:4c:f0:8f:62:30:37:78:a3:84:27:07:6f:
         18:b2:de:25:dc:a0:d4:94:03:aa:86:4e:25:9f:9a:40:03:1c:
         dd:ce:e3:79:cb:21:68:06:da:b6:32:b4:6d:bf:f4:2c:26:63:
         33:e4:49:64:6d:0d:e6:c3:67:0e:f7:05:a4:35:6c:7c:89:16:
         c6:e9:b2:df:b2:e9:dd:20:c6:71:0f:cd:95:74:dc:b6:5c:de:
         bd:37:1f:43:78:e6:78:b5:cd:28:04:20:a3:aa:f1:4b:c4:88:
         29:91:0e:80:d1:11:fc:dd:5c:76:6e:4f:5e:0e:45:46:41:6e:
         0d:b0:ea:38:9a:b1:3a:da:09:71:10:fc:1c:79:b4:80:7b:ac:
         69:f4:fd:9c:b6:0c:16:2b:f1:7f:5b:09:3d:9b:5b:e2:16:ca:
         13:81:6d:00:2e:38:0d:a8:29:8f:2c:e1:b2:f4:5a:a9:01:af:
         15:9c:2c:2f:49:1b:db:22:bb:c3:fe:78:94:51:c3:86:b1:82:
         88:5d:f0:3d:b4:51:a1:79:33:2b:2e:7b:b9:dc:20:09:13:71:
         eb:6a:19:5b:cf:e8:a5:30:57:2c:89:49:3f:b9:cf:7f:c9:bf:
         3e:22:68:63:53:9a:bd:69:74:ac:c5:1d:3c:7f:92:e0:c3:bc:
         1c:d8:04:75
-----BEGIN CERTIFICATE-----
MIIEozCCA4ugAwIBAgIQDs/0OMj+vzVuBNhqmBsaUDANBgkqhkiG9w0BAQUFADBe
MQswCQYDVQQGEwJVUzEdMBsGA1UEChMUU3ltYW50ZWMgQ29ycG9yYXRpb24xMDAu
BgNVBAMTJ1N5bWFudGVjIFRpbWUgU3RhbXBpbmcgU2VydmljZXMgQ0EgLSBHMjAe
Fw0xMjEwMTgwMDAwMDBaFw0yMDEyMjkyMzU5NTlaMGIxCzAJBgNVBAYTAlVTMR0w
GwYDVQQKExRTeW1hbnRlYyBDb3Jwb3JhdGlvbjE0MDIGA1UEAxMrU3ltYW50ZWMg
VGltZSBTdGFtcGluZyBTZXJ2aWNlcyBTaWduZXIgLSBHNDCCASIwDQYJKoZIhvcN
AQEBBQADggEPADCCAQoCggEBAKJjCzlEuLsjp0RJuw7/ofBhClOTsJjbrSwPSsVu
/4Y8U1UPFc4EPyv9qZaW2b5heQtbyUyGduXgQ0sile7CK0PBn9hotI5AT+6FOLkR
xSPyZFjwFTJvTlehroikAtcqHs1L4d1j1ReJMluwXplaqJ0oUA4X7pbbYTtFUR3P
ElYLkkf8q672Zj1HrHBy55LnX80QucSDZJQZvSWA4ejSIqXQugJ6oXeTW2XD7hd0
vEGGKtwITIySjJEtnndEH2jWqHR32w5bMotWizO92WPISZ06xcXqMwvS8aMb9Iu+
2bNXizveBKd6IrIkri7HcMW+ToMmCPsLvalPmQjhEChyqs0CAwEAAaOCAVcwggFT
MAwGA1UdEwEB/wQCMAAwFgYDVR0lAQH/BAwwCgYIKwYBBQUHAwgwDgYDVR0PAQH/
BAQDAgeAMHMGCCsGAQUFBwEBBGcwZTAqBggrBgEFBQcwAYYeaHR0cDovL3RzLW9j
c3Aud3Muc3ltYW50ZWMuY29tMDcGCCsGAQUFBzAChitodHRwOi8vdHMtYWlhLndz
LnN5bWFudGVjLmNvbS90c3MtY2EtZzIuY2VyMDwGA1UdHwQ1MDMwMaAvoC2GK2h0
dHA6Ly90cy1jcmwud3Muc3ltYW50ZWMuY29tL3Rzcy1jYS1nMi5jcmwwKAYDVR0R
BCEwH6QdMBsxGTAXBgNVBAMTEFRpbWVTdGFtcC0yMDQ4LTIwHQYDVR0OBBYEFEbG
aaMOShQe1UzaUmMXP142vA3mMB8GA1UdIwQYMBaAFF+a9W5czMx0mtTdfe8/2+xM
gC7dMA0GCSqGSIb3DQEBBQUAA4IBAQB4O7SRKgBM8I9iMDd4o4QnB28Yst4l3KDU
lAOqhk4ln5pAAxzdzuN5yyFoBtq2MrRtv/QsJmMz5ElkbQ3mw2cO9wWkNWx8iRbG
6bLfsundIMZxD82VdNy2XN69Nx9DeOZ4tc0oBCCjqvFLxIgpkQ6A0RH83Vx2bk9e
DkVGQW4NsOo4mrE62glxEPwcebSAe6xp9P2ctgwWK/F/Wwk9m1viFsoTgW0ALjgN
qCmPLOGy9FqpAa8VnCwvSRvbIrvD/niUUcOGsYKIXfA9tFGheTMrLnu53CAJE3Hr
ahlbz+ilMFcsiUk/uc9/yb8+ImhjU5q9aXSsxR08f5Lgw7wc2AR1
-----END CERTIFICATE-----

Certificate:
    Data:
        Version: 3 (0x2)
        Serial Number:
            40:aa:34:e5:5b:1b:c6:ee:54:59:8a:0c:83:c8:13:04
    Signature Algorithm: sha1WithRSAEncryption
        Issuer: C=US, O=Thawte, Inc., CN=Thawte Code Signing CA - G2
        Validity
            Not Before: Dec 17 00:00:00 2014 GMT
            Not After : Dec 16 23:59:59 2016 GMT
        Subject: C=ES, ST=Barcelona, L=Badalona, O=Investena Concept, s.l., CN=Investena Concept, s.l.
        Subject Public Key Info:
            Public Key Algorithm: rsaEncryption
                Public-Key: (2048 bit)
                Modulus:
                    00:b7:57:54:45:08:2d:19:72:69:0e:89:61:52:59:
                    ef:bf:c5:58:39:8a:2f:3d:bb:f9:19:71:9b:15:ae:
                    8d:f5:c1:d7:d0:10:da:f6:d9:38:8e:a1:9e:63:1f:
                    79:85:1a:f7:c2:a7:97:77:e8:af:bd:bf:ad:b3:76:
                    9a:76:57:6d:0a:88:50:76:9f:74:b6:c2:ba:68:d9:
                    61:da:c0:ca:06:f2:72:9b:80:38:3e:1f:92:50:2e:
                    ae:37:88:e2:58:75:13:5f:71:3e:16:12:ff:01:3d:
                    1b:04:fd:5c:40:56:5c:bd:f0:12:74:3d:71:e6:a9:
                    dc:17:e5:7a:f1:36:58:10:06:9e:33:1c:89:50:d5:
                    b1:13:13:58:82:16:71:c9:74:cd:45:a0:d5:b8:95:
                    db:a4:c5:90:1e:2c:b9:0b:a1:b4:3d:60:8c:c2:b8:
                    f5:cb:fe:ec:c0:60:c4:8f:78:6f:72:f8:b5:0e:41:
                    2d:73:78:eb:1d:98:dd:04:d8:43:fe:73:b9:d6:61:
                    98:50:6b:0e:a9:8d:79:c2:d9:53:e9:86:ab:e1:8a:
                    f9:a3:42:48:2d:c9:e5:8c:a1:2e:8b:e0:dd:12:4b:
                    16:c4:57:10:c9:9c:47:e6:55:c8:4c:29:0e:bc:7a:
                    32:e1:c2:d3:f9:db:27:e4:c0:5b:2c:79:87:99:c8:
                    a2:a7
                Exponent: 65537 (0x10001)
        X509v3 extensions:
            X509v3 Basic Constraints: 
                CA:FALSE
            X509v3 Authority Key Identifier: 
                keyid:D4:0D:65:3F:7A:BD:34:C6:FE:47:E7:4C:0D:C0:BD:F2:DE:15:AB:71

            X509v3 Subject Key Identifier: 
                65:DB:BF:E2:13:7D:7D:CD:2B:BA:B2:76:22:42:24:56:13:95:07:C3
            X509v3 CRL Distribution Points: 

                Full Name:
                  URI:http://th.symcb.com/th.crl

            X509v3 Key Usage: critical
                Digital Signature
            X509v3 Extended Key Usage: 
                Code Signing
            X509v3 Certificate Policies: 
                Policy: 2.16.840.1.113733.1.7.48.2
                  CPS: https://www.thawte.com/cps
                  User Notice:
                    Explicit Text: https://www.thawte.com/repository

            2.5.29.4: 
                0.0.0..
+.....7.......
            Authority Information Access: 
                OCSP - URI:http://th.symcd.com
                CA Issuers - URI:http://th.symcb.com/th.crt

            Netscape Cert Type: 
                Object Signing
    Signature Algorithm: sha1WithRSAEncryption
         64:d2:59:39:0d:07:bb:cf:d4:f4:da:cf:d9:b9:c4:0c:45:33:
         83:c1:b5:84:1e:af:77:15:59:cd:35:d4:75:37:03:73:ec:c6:
         42:42:2f:a9:33:1a:e5:fa:cc:2b:28:db:12:65:b3:ca:e0:3f:
         ff:8c:84:a3:8b:bb:2c:80:3c:bd:ec:f2:2e:be:60:ef:c6:52:
         e8:20:fe:02:38:03:d7:09:5b:63:c4:16:4d:03:ac:7e:c3:dc:
         41:42:cf:0f:b8:dd:b0:50:33:00:9a:bb:67:5f:77:2e:ef:67:
         b5:5a:34:b9:ba:5d:2b:d7:c1:77:8d:c3:60:fa:5e:4d:e8:e4:
         d1:4e:6f:50:11:ca:a9:eb:90:21:e6:87:cf:4a:6a:50:d0:dc:
         43:c9:d2:5d:fe:ca:f9:8d:4b:4e:88:85:c3:32:76:07:96:85:
         87:67:1b:ea:ac:d2:8c:09:2a:4b:b3:bd:31:e7:4e:27:4d:b6:
         19:15:75:61:27:4b:55:da:15:96:44:9a:24:7d:76:3e:38:8a:
         8c:76:1b:08:d3:dc:73:e4:76:b6:1e:2a:41:68:7e:a2:89:09:
         de:de:cd:96:33:fc:1c:c1:45:9a:cb:a1:f4:5c:64:08:1f:eb:
         19:a3:e5:db:8e:da:cd:8f:1d:39:d1:3e:c4:c3:92:6d:8b:f2:
         91:54:cf:28
-----BEGIN CERTIFICATE-----
MIIE7zCCA9egAwIBAgIQQKo05Vsbxu5UWYoMg8gTBDANBgkqhkiG9w0BAQUFADBK
MQswCQYDVQQGEwJVUzEVMBMGA1UEChMMVGhhd3RlLCBJbmMuMSQwIgYDVQQDExtU
aGF3dGUgQ29kZSBTaWduaW5nIENBIC0gRzIwHhcNMTQxMjE3MDAwMDAwWhcNMTYx
MjE2MjM1OTU5WjB4MQswCQYDVQQGEwJFUzESMBAGA1UECBMJQmFyY2Vsb25hMREw
DwYDVQQHEwhCYWRhbG9uYTEgMB4GA1UEChQXSW52ZXN0ZW5hIENvbmNlcHQsIHMu
bC4xIDAeBgNVBAMUF0ludmVzdGVuYSBDb25jZXB0LCBzLmwuMIIBIjANBgkqhkiG
9w0BAQEFAAOCAQ8AMIIBCgKCAQEAt1dURQgtGXJpDolhUlnvv8VYOYovPbv5GXGb
Fa6N9cHX0BDa9tk4jqGeYx95hRr3wqeXd+ivvb+ts3aadldtCohQdp90tsK6aNlh
2sDKBvJym4A4Ph+SUC6uN4jiWHUTX3E+FhL/AT0bBP1cQFZcvfASdD1x5qncF+V6
8TZYEAaeMxyJUNWxExNYghZxyXTNRaDVuJXbpMWQHiy5C6G0PWCMwrj1y/7swGDE
j3hvcvi1DkEtc3jrHZjdBNhD/nO51mGYUGsOqY15wtlT6Yar4Yr5o0JILcnljKEu
i+DdEksWxFcQyZxH5lXITCkOvHoy4cLT+dsn5MBbLHmHmciipwIDAQABo4IBoTCC
AZ0wCQYDVR0TBAIwADAfBgNVHSMEGDAWgBTUDWU/er00xv5H50wNwL3y3hWrcTAd
BgNVHQ4EFgQUZdu/4hN9fc0rurJ2IkIkVhOVB8MwKwYDVR0fBCQwIjAgoB6gHIYa
aHR0cDovL3RoLnN5bWNiLmNvbS90aC5jcmwwDgYDVR0PAQH/BAQDAgeAMBMGA1Ud
JQQMMAoGCCsGAQUFBwMDMHMGA1UdIARsMGowaAYLYIZIAYb4RQEHMAIwWTAmBggr
BgEFBQcCARYaaHR0cHM6Ly93d3cudGhhd3RlLmNvbS9jcHMwLwYIKwYBBQUHAgIw
IwwhaHR0cHM6Ly93d3cudGhhd3RlLmNvbS9yZXBvc2l0b3J5MB0GA1UdBAQWMBQw
DjAMBgorBgEEAYI3AgEWAwIHgDBXBggrBgEFBQcBAQRLMEkwHwYIKwYBBQUHMAGG
E2h0dHA6Ly90aC5zeW1jZC5jb20wJgYIKwYBBQUHMAKGGmh0dHA6Ly90aC5zeW1j
Yi5jb20vdGguY3J0MBEGCWCGSAGG+EIBAQQEAwIEEDANBgkqhkiG9w0BAQUFAAOC
AQEAZNJZOQ0Hu8/U9NrP2bnEDEUzg8G1hB6vdxVZzTXUdTcDc+zGQkIvqTMa5frM
KyjbEmWzyuA//4yEo4u7LIA8vezyLr5g78ZS6CD+AjgD1wlbY8QWTQOsfsPcQULP
D7jdsFAzAJq7Z193Lu9ntVo0ubpdK9fBd43DYPpeTejk0U5vUBHKqeuQIeaHz0pq
UNDcQ8nSXf7K+Y1LToiFwzJ2B5aFh2cb6qzSjAkqS7O9MedOJ022GRV1YSdLVdoV
lkSaJH12PjiKjHYbCNPcc+R2th4qQWh+ookJ3t7NljP8HMFFmsuh9FxkCB/rGaPl
247azY8dOdE+xMOSbYvykVTPKA==
-----END CERTIFICATE-----

