Certificate:
    Data:
        Version: 3 (0x2)
        Serial Number:
            06:89:83:64:2c:95:3e:46:f7:bd:ce:41:43:f1:33:c1
    Signature Algorithm: sha256WithRSAEncryption
        Issuer: C=US, O=DigiCert Inc, OU=www.digicert.com, CN=DigiCert EV Code Signing CA (SHA2)
        Validity
            Not Before: Mar 10 00:00:00 2017 GMT
            Not After : Mar 15 12:00:00 2019 GMT
        Subject: businessCategory=Private Organization/jurisdictionC=US/jurisdictionST=Delaware/serialNumber=2748129/street=345 Park Ave/postalCode=95110, C=US, ST=California, L=San Jose, O=Adobe Systems, Incorporated, OU=Acrobat DC, CN=Adobe Systems, Incorporated
        Subject Public Key Info:
            Public Key Algorithm: rsaEncryption
                Public-Key: (2048 bit)
                Modulus:
                    00:c0:4b:7b:90:e1:7e:9d:84:8c:64:1f:79:ad:b4:
                    61:59:92:8f:dc:bc:04:2a:fb:47:34:fe:f4:0b:18:
                    ae:51:52:65:1e:9f:f9:5a:0e:e0:42:6f:21:b2:40:
                    31:a3:fa:e4:aa:20:16:e7:1e:4d:b2:ae:00:91:5f:
                    7c:59:b7:30:73:5f:00:21:f9:58:47:bd:a2:4c:d8:
                    85:ee:1a:bd:71:3c:a9:f1:5c:30:f6:e7:10:b3:2c:
                    37:77:3d:ea:49:9c:33:b0:c4:44:0b:b9:25:0e:5a:
                    13:14:e7:31:1a:c0:32:9c:8e:3f:48:82:bb:f1:d4:
                    7b:71:93:de:0c:9c:04:9f:3b:a6:e4:50:c4:22:02:
                    f1:49:6c:00:de:fa:e1:bd:73:ed:1c:f7:e5:90:cc:
                    c9:75:db:fc:42:4e:de:10:6f:55:12:84:89:fd:b5:
                    86:8e:72:23:e5:09:e9:d9:22:e7:c1:f8:06:17:b3:
                    a3:aa:f3:b9:9c:3b:7f:e3:ab:ef:34:64:42:9a:a7:
                    e0:10:b6:fa:1d:a4:c4:3c:91:c4:ad:4b:18:ab:37:
                    35:09:c1:50:e2:73:c9:9c:5b:b7:89:44:23:38:9d:
                    b4:02:23:f2:08:c6:32:02:7a:7b:d5:bc:ba:23:02:
                    08:0d:f2:2e:e3:25:c4:45:77:a0:61:2a:a0:d7:d7:
                    cf:ef
                Exponent: 65537 (0x10001)
        X509v3 extensions:
            X509v3 Authority Key Identifier: 
                keyid:8F:E8:7E:F0:6D:32:6A:00:05:23:C7:70:97:6A:3A:90:FF:6B:EA:D4

            X509v3 Subject Key Identifier: 
                B4:B9:FC:E2:8D:05:B0:00:3E:80:2D:C5:64:CB:E3:4D:29:6D:DA:96
            X509v3 Subject Alternative Name: 
                othername:<unsupported>
            X509v3 Key Usage: critical
                Digital Signature
            X509v3 Extended Key Usage: 
                Code Signing
            X509v3 CRL Distribution Points: 

                Full Name:
                  URI:http://crl3.digicert.com/EVCodeSigningSHA2-g1.crl

                Full Name:
                  URI:http://crl4.digicert.com/EVCodeSigningSHA2-g1.crl

            X509v3 Certificate Policies: 
                Policy: 2.16.840.1.114412.3.2
                  CPS: https://www.digicert.com/CPS
                Policy: 2.23.140.1.3

            Authority Information Access: 
                OCSP - URI:http://ocsp.digicert.com
                CA Issuers - URI:http://cacerts.digicert.com/DigiCertEVCodeSigningCA-SHA2.crt

            X509v3 Basic Constraints: critical
                CA:FALSE
    Signature Algorithm: sha256WithRSAEncryption
         74:73:6f:3a:83:e5:9b:9b:9b:80:dd:ad:87:e5:1c:22:bf:2a:
         0a:8a:59:69:f5:e4:1b:45:d8:19:1e:bb:39:42:fd:e1:78:a9:
         a2:b6:c8:ca:c9:fe:6f:64:18:f0:02:dd:ae:4a:26:2e:d8:67:
         ea:30:dd:fb:63:2c:5f:75:6d:1a:b8:35:8b:4e:d3:3d:e5:4c:
         5e:17:fa:19:9c:6c:8f:5d:c0:95:a6:39:cf:bc:79:2c:17:07:
         7f:40:3a:53:62:be:62:6c:63:c8:63:0f:34:56:e5:11:eb:8d:
         f5:ca:2d:a9:2c:d1:f5:32:94:a8:f2:4a:f4:01:96:a1:a6:a7:
         d0:22:5a:a6:0a:5d:aa:ef:e6:4e:6e:bf:ad:36:cc:10:c0:02:
         ea:77:17:49:bc:a5:7e:c9:4d:38:3c:61:16:c2:4e:a5:21:61:
         81:cf:92:d9:2a:39:26:66:3c:32:af:7a:40:f4:c5:0d:0a:0d:
         89:74:2b:09:60:0d:b8:9b:85:90:51:ee:44:45:57:cb:2b:f0:
         6d:3c:30:45:5e:11:d1:d1:c0:91:c5:c6:69:55:7b:a0:22:4e:
         51:62:4b:2e:10:93:e2:b6:09:17:4a:4c:12:9b:2d:31:50:61:
         41:56:89:80:d7:8a:35:d0:7b:ce:f7:b5:bd:d7:8f:fe:82:f4:
         95:b2:16:40
-----BEGIN CERTIFICATE-----
MIIGCTCCBPGgAwIBAgIQBomDZCyVPkb3vc5BQ/EzwTANBgkqhkiG9w0BAQsFADBs
MQswCQYDVQQGEwJVUzEVMBMGA1UEChMMRGlnaUNlcnQgSW5jMRkwFwYDVQQLExB3
d3cuZGlnaWNlcnQuY29tMSswKQYDVQQDEyJEaWdpQ2VydCBFViBDb2RlIFNpZ25p
bmcgQ0EgKFNIQTIpMB4XDTE3MDMxMDAwMDAwMFoXDTE5MDMxNTEyMDAwMFowggEe
MR0wGwYDVQQPDBRQcml2YXRlIE9yZ2FuaXphdGlvbjETMBEGCysGAQQBgjc8AgED
EwJVUzEZMBcGCysGAQQBgjc8AgECEwhEZWxhd2FyZTEQMA4GA1UEBRMHMjc0ODEy
OTEVMBMGA1UECRMMMzQ1IFBhcmsgQXZlMQ4wDAYDVQQREwU5NTExMDELMAkGA1UE
BhMCVVMxEzARBgNVBAgTCkNhbGlmb3JuaWExETAPBgNVBAcTCFNhbiBKb3NlMSQw
IgYDVQQKExtBZG9iZSBTeXN0ZW1zLCBJbmNvcnBvcmF0ZWQxEzARBgNVBAsTCkFj
cm9iYXQgREMxJDAiBgNVBAMTG0Fkb2JlIFN5c3RlbXMsIEluY29ycG9yYXRlZDCC
ASIwDQYJKoZIhvcNAQEBBQADggEPADCCAQoCggEBAMBLe5Dhfp2EjGQfea20YVmS
j9y8BCr7RzT+9AsYrlFSZR6f+VoO4EJvIbJAMaP65KogFuceTbKuAJFffFm3MHNf
ACH5WEe9okzYhe4avXE8qfFcMPbnELMsN3c96kmcM7DERAu5JQ5aExTnMRrAMpyO
P0iCu/HUe3GT3gycBJ87puRQxCIC8UlsAN764b1z7Rz35ZDMyXXb/EJO3hBvVRKE
if21ho5yI+UJ6dki58H4Bhezo6rzuZw7f+Or7zRkQpqn4BC2+h2kxDyRxK1LGKs3
NQnBUOJzyZxbt4lEIzidtAIj8gjGMgJ6e9W8uiMCCA3yLuMlxEV3oGEqoNfXz+8C
AwEAAaOCAfEwggHtMB8GA1UdIwQYMBaAFI/ofvBtMmoABSPHcJdqOpD/a+rUMB0G
A1UdDgQWBBS0ufzijQWwAD6ALcVky+NNKW3aljAuBgNVHREEJzAloCMGCCsGAQUF
BwgDoBcwFQwTVVMtREVMQVdBUkUtMjc0ODEyOTAOBgNVHQ8BAf8EBAMCB4AwEwYD
VR0lBAwwCgYIKwYBBQUHAwMwewYDVR0fBHQwcjA3oDWgM4YxaHR0cDovL2NybDMu
ZGlnaWNlcnQuY29tL0VWQ29kZVNpZ25pbmdTSEEyLWcxLmNybDA3oDWgM4YxaHR0
cDovL2NybDQuZGlnaWNlcnQuY29tL0VWQ29kZVNpZ25pbmdTSEEyLWcxLmNybDBL
BgNVHSAERDBCMDcGCWCGSAGG/WwDAjAqMCgGCCsGAQUFBwIBFhxodHRwczovL3d3
dy5kaWdpY2VydC5jb20vQ1BTMAcGBWeBDAEDMH4GCCsGAQUFBwEBBHIwcDAkBggr
BgEFBQcwAYYYaHR0cDovL29jc3AuZGlnaWNlcnQuY29tMEgGCCsGAQUFBzAChjxo
dHRwOi8vY2FjZXJ0cy5kaWdpY2VydC5jb20vRGlnaUNlcnRFVkNvZGVTaWduaW5n
Q0EtU0hBMi5jcnQwDAYDVR0TAQH/BAIwADANBgkqhkiG9w0BAQsFAAOCAQEAdHNv
OoPlm5ubgN2th+UcIr8qCopZafXkG0XYGR67OUL94XiporbIysn+b2QY8ALdrkom
Lthn6jDd+2MsX3VtGrg1i07TPeVMXhf6GZxsj13AlaY5z7x5LBcHf0A6U2K+Ymxj
yGMPNFblEeuN9cotqSzR9TKUqPJK9AGWoaan0CJapgpdqu/mTm6/rTbMEMAC6ncX
SbylfslNODxhFsJOpSFhgc+S2So5JmY8Mq96QPTFDQoNiXQrCWANuJuFkFHuREVX
yyvwbTwwRV4R0dHAkcXGaVV7oCJOUWJLLhCT4rYJF0pMEpstMVBhQVaJgNeKNdB7
zve1vdeP/oL0lbIWQA==
-----END CERTIFICATE-----

Certificate:
    Data:
        Version: 3 (0x2)
        Serial Number:
            03:f1:b4:e1:5f:3a:82:f1:14:96:78:b3:d7:d8:47:5c
    Signature Algorithm: sha256WithRSAEncryption
        Issuer: C=US, O=DigiCert Inc, OU=www.digicert.com, CN=DigiCert High Assurance EV Root CA
        Validity
            Not Before: Apr 18 12:00:00 2012 GMT
            Not After : Apr 18 12:00:00 2027 GMT
        Subject: C=US, O=DigiCert Inc, OU=www.digicert.com, CN=DigiCert EV Code Signing CA (SHA2)
        Subject Public Key Info:
            Public Key Algorithm: rsaEncryption
                Public-Key: (2048 bit)
                Modulus:
                    00:a7:53:fa:0f:b2:b5:13:f1:64:cf:84:80:fc:ae:
                    80:35:d1:b6:d7:c7:a3:2c:ac:1a:2c:ac:f1:84:ac:
                    3a:35:12:3a:92:91:ba:57:e4:c4:c9:f3:2f:a8:48:
                    3c:b7:d6:6e:dc:97:22:ba:51:79:61:af:43:2f:0d:
                    b7:9b:b4:49:31:ae:44:58:3e:a4:a1:96:a7:87:4f:
                    23:7e:c3:6c:65:24:90:55:3e:a1:ca:23:7c:c5:42:
                    e9:c4:7a:62:45:9b:7d:de:63:74:cb:9e:63:25:f8:
                    84:9a:9a:ad:45:4f:ae:7d:1f:c8:13:cb:75:9b:c9:
                    e1:e1:8a:f8:0b:0c:98:f4:ca:3e:d0:45:aa:7a:1e:
                    a5:58:93:36:34:be:2b:2e:2b:31:58:66:b4:32:10:
                    9f:9d:f0:52:a1:ef:e8:3e:d3:76:f2:40:5a:dc:fa:
                    6a:3d:1b:4b:ad:76:b0:8c:5c:ee:36:ba:83:ea:30:
                    a8:4c:de:f1:0b:2a:58:41:88:ae:00:89:ab:03:d1:
                    16:82:20:22:76:eb:5e:54:38:12:62:e1:d2:70:24:
                    db:ed:1f:70:d2:64:09:80:2d:e2:b6:9d:ce:1f:f2:
                    bb:21:f3:6c:db:d8:b3:19:7b:8a:50:9f:ef:ec:36:
                    0a:5c:9a:b7:4a:d3:08:a0:39:79:fd:dd:bf:3d:3a:
                    09:25
                Exponent: 65537 (0x10001)
        X509v3 extensions:
            X509v3 Basic Constraints: critical
                CA:TRUE, pathlen:0
            X509v3 Key Usage: critical
                Digital Signature, Certificate Sign, CRL Sign
            X509v3 Extended Key Usage: 
                Code Signing
            Authority Information Access: 
                OCSP - URI:http://ocsp.digicert.com
                CA Issuers - URI:http://cacerts.digicert.com/DigiCertHighAssuranceEVRootCA.crt

            X509v3 CRL Distribution Points: 

                Full Name:
                  URI:http://crl3.digicert.com/DigiCertHighAssuranceEVRootCA.crl

                Full Name:
                  URI:http://crl4.digicert.com/DigiCertHighAssuranceEVRootCA.crl

            X509v3 Certificate Policies: 
                Policy: 2.16.840.1.114412.3.2
                  CPS: http://www.digicert.com/ssl-cps-repository.htm
                  User Notice:
                    Explicit Text: 

            X509v3 Subject Key Identifier: 
                8F:E8:7E:F0:6D:32:6A:00:05:23:C7:70:97:6A:3A:90:FF:6B:EA:D4
            X509v3 Authority Key Identifier: 
                keyid:B1:3E:C3:69:03:F8:BF:47:01:D4:98:26:1A:08:02:EF:63:64:2B:C3

    Signature Algorithm: sha256WithRSAEncryption
         19:33:4a:0c:81:33:37:db:ad:36:c9:e4:c9:3a:bb:b5:1b:2e:
         7a:a2:e2:f4:43:42:17:9e:bf:4e:a1:4d:e1:b1:db:e9:81:dd:
         9f:01:f2:e4:88:d5:e9:fe:09:fd:21:c1:ec:5d:80:d2:f0:d6:
         c1:43:c2:fe:77:2b:db:f9:d7:91:33:ce:6c:d5:b2:19:3b:e6:
         2e:d6:c9:93:4f:88:40:8e:cd:e1:f5:7e:f1:0f:c6:59:56:72:
         e8:eb:6a:41:bd:1c:d5:46:d5:7c:49:ca:66:38:15:c1:bf:e0:
         91:70:77:87:dc:c9:8d:31:c9:0c:29:a2:33:ed:8d:e2:87:cd:
         89:8d:3f:1b:ff:d5:e0:1a:97:8b:7c:da:6d:fb:a8:c6:b2:3a:
         66:6b:7b:01:b3:cd:d8:a6:34:ec:12:01:ab:95:58:a5:c4:53:
         57:a8:60:e6:e7:02:12:a0:b9:23:64:a2:4d:bb:7c:81:25:64:
         21:be:cf:ee:42:18:43:97:bb:a5:37:06:af:4d:ff:26:a5:4d:
         61:4b:ec:46:41:b8:65:ce:b8:79:9e:08:96:0b:81:8c:8a:3b:
         8f:c7:99:8c:a3:2a:6e:98:6d:5e:61:c6:96:b7:8a:b9:61:2d:
         93:b8:eb:0e:04:43:d7:f5:fe:a6:f0:62:d4:99:6a:a5:c1:c1:
         f0:64:94:80
-----BEGIN CERTIFICATE-----
MIIGvDCCBaSgAwIBAgIQA/G04V86gvEUlniz19hHXDANBgkqhkiG9w0BAQsFADBs
MQswCQYDVQQGEwJVUzEVMBMGA1UEChMMRGlnaUNlcnQgSW5jMRkwFwYDVQQLExB3
d3cuZGlnaWNlcnQuY29tMSswKQYDVQQDEyJEaWdpQ2VydCBIaWdoIEFzc3VyYW5j
ZSBFViBSb290IENBMB4XDTEyMDQxODEyMDAwMFoXDTI3MDQxODEyMDAwMFowbDEL
MAkGA1UEBhMCVVMxFTATBgNVBAoTDERpZ2lDZXJ0IEluYzEZMBcGA1UECxMQd3d3
LmRpZ2ljZXJ0LmNvbTErMCkGA1UEAxMiRGlnaUNlcnQgRVYgQ29kZSBTaWduaW5n
IENBIChTSEEyKTCCASIwDQYJKoZIhvcNAQEBBQADggEPADCCAQoCggEBAKdT+g+y
tRPxZM+EgPyugDXRttfHoyysGiys8YSsOjUSOpKRulfkxMnzL6hIPLfWbtyXIrpR
eWGvQy8Nt5u0STGuRFg+pKGWp4dPI37DbGUkkFU+ocojfMVC6cR6YkWbfd5jdMue
YyX4hJqarUVPrn0fyBPLdZvJ4eGK+AsMmPTKPtBFqnoepViTNjS+Ky4rMVhmtDIQ
n53wUqHv6D7TdvJAWtz6aj0bS612sIxc7ja6g+owqEze8QsqWEGIrgCJqwPRFoIg
InbrXlQ4EmLh0nAk2+0fcNJkCYAt4radzh/yuyHzbNvYsxl7ilCf7+w2Clyat0rT
CKA5ef3dvz06CSUCAwEAAaOCA1gwggNUMBIGA1UdEwEB/wQIMAYBAf8CAQAwDgYD
VR0PAQH/BAQDAgGGMBMGA1UdJQQMMAoGCCsGAQUFBwMDMH8GCCsGAQUFBwEBBHMw
cTAkBggrBgEFBQcwAYYYaHR0cDovL29jc3AuZGlnaWNlcnQuY29tMEkGCCsGAQUF
BzAChj1odHRwOi8vY2FjZXJ0cy5kaWdpY2VydC5jb20vRGlnaUNlcnRIaWdoQXNz
dXJhbmNlRVZSb290Q0EuY3J0MIGPBgNVHR8EgYcwgYQwQKA+oDyGOmh0dHA6Ly9j
cmwzLmRpZ2ljZXJ0LmNvbS9EaWdpQ2VydEhpZ2hBc3N1cmFuY2VFVlJvb3RDQS5j
cmwwQKA+oDyGOmh0dHA6Ly9jcmw0LmRpZ2ljZXJ0LmNvbS9EaWdpQ2VydEhpZ2hB
c3N1cmFuY2VFVlJvb3RDQS5jcmwwggHEBgNVHSAEggG7MIIBtzCCAbMGCWCGSAGG
/WwDAjCCAaQwOgYIKwYBBQUHAgEWLmh0dHA6Ly93d3cuZGlnaWNlcnQuY29tL3Nz
bC1jcHMtcmVwb3NpdG9yeS5odG0wggFkBggrBgEFBQcCAjCCAVYeggFSAEEAbgB5
ACAAdQBzAGUAIABvAGYAIAB0AGgAaQBzACAAQwBlAHIAdABpAGYAaQBjAGEAdABl
ACAAYwBvAG4AcwB0AGkAdAB1AHQAZQBzACAAYQBjAGMAZQBwAHQAYQBuAGMAZQAg
AG8AZgAgAHQAaABlACAARABpAGcAaQBDAGUAcgB0ACAAQwBQAC8AQwBQAFMAIABh
AG4AZAAgAHQAaABlACAAUgBlAGwAeQBpAG4AZwAgAFAAYQByAHQAeQAgAEEAZwBy
AGUAZQBtAGUAbgB0ACAAdwBoAGkAYwBoACAAbABpAG0AaQB0ACAAbABpAGEAYgBp
AGwAaQB0AHkAIABhAG4AZAAgAGEAcgBlACAAaQBuAGMAbwByAHAAbwByAGEAdABl
AGQAIABoAGUAcgBlAGkAbgAgAGIAeQAgAHIAZQBmAGUAcgBlAG4AYwBlAC4wHQYD
VR0OBBYEFI/ofvBtMmoABSPHcJdqOpD/a+rUMB8GA1UdIwQYMBaAFLE+w2kD+L9H
AdSYJhoIAu9jZCvDMA0GCSqGSIb3DQEBCwUAA4IBAQAZM0oMgTM32602yeTJOru1
Gy56ouL0Q0IXnr9OoU3hsdvpgd2fAfLkiNXp/gn9IcHsXYDS8NbBQ8L+dyvb+deR
M85s1bIZO+Yu1smTT4hAjs3h9X7xD8ZZVnLo62pBvRzVRtV8ScpmOBXBv+CRcHeH
3MmNMckMKaIz7Y3ih82JjT8b/9XgGpeLfNpt+6jGsjpma3sBs83YpjTsEgGrlVil
xFNXqGDm5wISoLkjZKJNu3yBJWQhvs/uQhhDl7ulNwavTf8mpU1hS+xGQbhlzrh5
ngiWC4GMijuPx5mMoypumG1eYcaWt4q5YS2TuOsOBEPX9f6m8GLUmWqlwcHwZJSA
-----END CERTIFICATE-----

