Certificate:
    Data:
        Version: 3 (0x2)
        Serial Number:
            04:00:00:00:00:01:31:89:c6:37:e8
    Signature Algorithm: sha256WithRSAEncryption
        Issuer: OU=GlobalSign Root CA - R3, O=GlobalSign, CN=GlobalSign
        Validity
            Not Before: Aug  2 10:00:00 2011 GMT
            Not After : Aug  2 10:00:00 2019 GMT
        Subject: C=BE, O=GlobalSign nv-sa, CN=GlobalSign CodeSigning CA - SHA256 - G2
        Subject Public Key Info:
            Public Key Algorithm: rsaEncryption
                Public-Key: (2048 bit)
                Modulus:
                    00:a3:ef:d1:9f:29:e9:d8:d3:82:76:3c:62:a0:d2:
                    49:d6:16:1e:f1:cf:f0:d0:ba:48:43:03:2d:a7:1d:
                    f2:01:34:49:a4:10:e9:62:13:f4:13:f4:16:83:b5:
                    d5:57:42:48:86:2b:95:58:87:ea:28:04:74:cb:72:
                    11:0f:61:26:e1:fa:1c:61:15:c7:28:9b:4d:0b:82:
                    0f:26:2b:90:3a:96:ed:a4:d0:6b:29:9c:f5:61:88:
                    e6:a4:57:6f:ee:f4:70:d0:8d:17:de:e6:66:76:5f:
                    74:1e:5e:0c:53:38:5d:90:f4:df:30:2d:1b:13:d1:
                    79:98:54:1a:4b:38:04:f4:07:c4:23:03:d3:92:cb:
                    f7:80:5d:aa:9c:56:06:44:2d:41:4c:48:b4:2d:ec:
                    35:92:9a:c6:95:d7:f5:ce:90:31:e2:76:b3:61:b8:
                    f1:75:57:42:ac:3b:ce:2b:c8:90:49:e8:b7:26:cf:
                    bb:0c:89:cb:d0:c3:a3:6a:a1:c9:d5:e3:9c:53:2b:
                    57:26:fe:56:9a:76:fd:61:46:a2:60:ec:29:46:47:
                    f2:cd:e0:82:62:c6:04:5a:e7:ed:4e:40:5c:48:06:
                    7d:9d:5f:e7:74:c9:9e:84:65:0d:5b:de:dc:d3:24:
                    1c:b4:14:11:eb:ab:bf:c4:1f:a4:ba:99:d0:17:58:
                    35:cd
                Exponent: 65537 (0x10001)
        X509v3 extensions:
            X509v3 Key Usage: critical
                Certificate Sign, CRL Sign
            X509v3 Basic Constraints: critical
                CA:TRUE, pathlen:0
            X509v3 Subject Key Identifier: 
                19:4A:B8:5A:E4:4D:31:A5:14:E5:5E:EC:2F:A3:1C:FA:80:8C:32:6B
            X509v3 Certificate Policies: 
                Policy: X509v3 Any Policy
                  CPS: https://www.globalsign.com/repository/

            X509v3 CRL Distribution Points: 

                Full Name:
                  URI:http://crl.globalsign.net/root-r3.crl

            X509v3 Extended Key Usage: 
                Code Signing
            X509v3 Authority Key Identifier: 
                keyid:8F:F0:4B:7F:A8:2E:45:24:AE:4D:50:FA:63:9A:8B:DE:E2:DD:1B:BC

    Signature Algorithm: sha256WithRSAEncryption
         79:b0:69:34:e2:05:87:f6:fe:d4:60:2c:2f:86:79:34:03:e0:
         b1:07:93:0c:84:5c:f9:e4:dc:6c:cf:6e:b5:ec:0a:5c:ba:0b:
         d0:68:31:2e:3f:64:bd:0f:82:6b:66:77:81:7f:c6:29:a5:17:
         d8:f0:89:4d:83:24:11:f6:6e:fe:9d:e1:48:0a:28:a0:e2:7b:
         24:80:a4:ec:c2:9a:00:d7:b0:6d:6c:cd:88:d5:15:78:cf:13:
         f9:88:a5:73:4d:c1:36:2b:dc:cb:ce:db:7e:7c:d2:8b:ef:2f:
         bd:b3:4f:4d:3a:ad:bb:62:6e:28:93:c4:0c:cb:d9:e6:ca:e0:
         11:02:94:03:b0:bd:3f:94:28:56:90:1e:53:c2:27:d5:c9:3c:
         cd:1a:63:1e:82:59:15:b6:40:ca:a7:81:aa:c3:55:af:33:d1:
         b5:75:e8:09:ea:47:08:48:22:fb:5d:1b:f3:2c:7a:69:7e:c5:
         d7:5a:5e:56:33:3c:ad:57:e8:93:25:42:c3:d2:5e:71:3b:4a:
         1c:54:ed:a9:55:ac:28:05:c7:c4:6c:5d:dc:3c:93:f6:69:3c:
         82:51:ce:1a:15:3d:5e:01:73:ff:40:a2:ea:b4:ae:d3:8e:fa:
         ee:5d:6c:47:c7:41:f5:d4:56:57:f2:18:37:32:d6:d4:cc:4b:
         f6:71:e0:76
-----BEGIN CERTIFICATE-----
MIIEKTCCAxGgAwIBAgILBAAAAAABMYnGN+gwDQYJKoZIhvcNAQELBQAwTDEgMB4G
A1UECxMXR2xvYmFsU2lnbiBSb290IENBIC0gUjMxEzARBgNVBAoTCkdsb2JhbFNp
Z24xEzARBgNVBAMTCkdsb2JhbFNpZ24wHhcNMTEwODAyMTAwMDAwWhcNMTkwODAy
MTAwMDAwWjBaMQswCQYDVQQGEwJCRTEZMBcGA1UEChMQR2xvYmFsU2lnbiBudi1z
YTEwMC4GA1UEAxMnR2xvYmFsU2lnbiBDb2RlU2lnbmluZyBDQSAtIFNIQTI1NiAt
IEcyMIIBIjANBgkqhkiG9w0BAQEFAAOCAQ8AMIIBCgKCAQEAo+/Rnynp2NOCdjxi
oNJJ1hYe8c/w0LpIQwMtpx3yATRJpBDpYhP0E/QWg7XVV0JIhiuVWIfqKAR0y3IR
D2Em4focYRXHKJtNC4IPJiuQOpbtpNBrKZz1YYjmpFdv7vRw0I0X3uZmdl90Hl4M
UzhdkPTfMC0bE9F5mFQaSzgE9AfEIwPTksv3gF2qnFYGRC1BTEi0Lew1kprGldf1
zpAx4nazYbjxdVdCrDvOK8iQSei3Js+7DInL0MOjaqHJ1eOcUytXJv5Wmnb9YUai
YOwpRkfyzeCCYsYEWuftTkBcSAZ9nV/ndMmehGUNW97c0yQctBQR66u/xB+kupnQ
F1g1zQIDAQABo4H9MIH6MA4GA1UdDwEB/wQEAwIBBjASBgNVHRMBAf8ECDAGAQH/
AgEAMB0GA1UdDgQWBBQZSrha5E0xpRTlXuwvoxz6gIwyazBHBgNVHSAEQDA+MDwG
BFUdIAAwNDAyBggrBgEFBQcCARYmaHR0cHM6Ly93d3cuZ2xvYmFsc2lnbi5jb20v
cmVwb3NpdG9yeS8wNgYDVR0fBC8wLTAroCmgJ4YlaHR0cDovL2NybC5nbG9iYWxz
aWduLm5ldC9yb290LXIzLmNybDATBgNVHSUEDDAKBggrBgEFBQcDAzAfBgNVHSME
GDAWgBSP8Et/qC5FJK5NUPpjmove4t0bvDANBgkqhkiG9w0BAQsFAAOCAQEAebBp
NOIFh/b+1GAsL4Z5NAPgsQeTDIRc+eTcbM9utewKXLoL0GgxLj9kvQ+Ca2Z3gX/G
KaUX2PCJTYMkEfZu/p3hSAoooOJ7JICk7MKaANewbWzNiNUVeM8T+Yilc03BNivc
y87bfnzSi+8vvbNPTTqtu2JuKJPEDMvZ5srgEQKUA7C9P5QoVpAeU8In1ck8zRpj
HoJZFbZAyqeBqsNVrzPRtXXoCepHCEgi+10b8yx6aX7F11peVjM8rVfokyVCw9Je
cTtKHFTtqVWsKAXHxGxd3DyT9mk8glHOGhU9XgFz/0Ci6rSu04767l1sR8dB9dRW
V/IYNzLW1MxL9nHgdg==
-----END CERTIFICATE-----

Certificate:
    Data:
        Version: 3 (0x2)
        Serial Number:
            04:00:00:00:00:01:25:07:1d:f9:af
    Signature Algorithm: sha256WithRSAEncryption
        Issuer: C=BE, O=GlobalSign nv-sa, OU=Root CA, CN=GlobalSign Root CA
        Validity
            Not Before: Nov 18 10:00:00 2009 GMT
            Not After : Mar 18 10:00:00 2019 GMT
        Subject: OU=GlobalSign Root CA - R3, O=GlobalSign, CN=GlobalSign
        Subject Public Key Info:
            Public Key Algorithm: rsaEncryption
                Public-Key: (2048 bit)
                Modulus:
                    00:cc:25:76:90:79:06:78:22:16:f5:c0:83:b6:84:
                    ca:28:9e:fd:05:76:11:c5:ad:88:72:fc:46:02:43:
                    c7:b2:8a:9d:04:5f:24:cb:2e:4b:e1:60:82:46:e1:
                    52:ab:0c:81:47:70:6c:dd:64:d1:eb:f5:2c:a3:0f:
                    82:3d:0c:2b:ae:97:d7:b6:14:86:10:79:bb:3b:13:
                    80:77:8c:08:e1:49:d2:6a:62:2f:1f:5e:fa:96:68:
                    df:89:27:95:38:9f:06:d7:3e:c9:cb:26:59:0d:73:
                    de:b0:c8:e9:26:0e:83:15:c6:ef:5b:8b:d2:04:60:
                    ca:49:a6:28:f6:69:3b:f6:cb:c8:28:91:e5:9d:8a:
                    61:57:37:ac:74:14:dc:74:e0:3a:ee:72:2f:2e:9c:
                    fb:d0:bb:bf:f5:3d:00:e1:06:33:e8:82:2b:ae:53:
                    a6:3a:16:73:8c:dd:41:0e:20:3a:c0:b4:a7:a1:e9:
                    b2:4f:90:2e:32:60:e9:57:cb:b9:04:92:68:68:e5:
                    38:26:60:75:b2:9f:77:ff:91:14:ef:ae:20:49:fc:
                    ad:40:15:48:d1:02:31:61:19:5e:b8:97:ef:ad:77:
                    b7:64:9a:7a:bf:5f:c1:13:ef:9b:62:fb:0d:6c:e0:
                    54:69:16:a9:03:da:6e:e9:83:93:71:76:c6:69:85:
                    82:17
                Exponent: 65537 (0x10001)
        X509v3 extensions:
            X509v3 Key Usage: critical
                Certificate Sign, CRL Sign
            X509v3 Basic Constraints: critical
                CA:TRUE
            X509v3 Subject Key Identifier: 
                8F:F0:4B:7F:A8:2E:45:24:AE:4D:50:FA:63:9A:8B:DE:E2:DD:1B:BC
            X509v3 Certificate Policies: 
                Policy: X509v3 Any Policy
                  CPS: http://www.globalsign.net/repository/

            X509v3 CRL Distribution Points: 

                Full Name:
                  URI:http://crl.globalsign.net/root.crl

            Authority Information Access: 
                OCSP - URI:http://ocsp.globalsign.com/ExtendedSSLSHA256CACross

            X509v3 Authority Key Identifier: 
                keyid:60:7B:66:1A:45:0D:97:CA:89:50:2F:7D:04:CD:34:A8:FF:FC:FD:4B

    Signature Algorithm: sha256WithRSAEncryption
         42:52:a9:7e:a2:cf:5b:3b:cb:4b:dd:ba:f8:57:59:d3:24:a4:
         77:72:ef:62:44:37:82:ed:06:ee:04:d5:16:5f:24:a3:14:dc:
         6c:54:05:6a:b0:9b:3d:da:81:39:da:ad:28:db:95:6f:81:83:
         f5:cd:62:b1:45:24:b1:dd:29:e5:08:54:95:95:8c:f0:1d:06:
         5f:1a:d6:46:3f:13:40:17:48:11:16:9b:47:4d:d1:3a:b5:0f:
         57:1c:92:30:d0:f8:b2:25:3b:0a:cd:f6:87:f9:c7:b2:57:d3:
         3f:7d:a5:8c:14:ce:9c:a8:c7:9f:46:93:da:59:fa:79:5d:65:
         20:35:44:5a:4f:c1:90:9d:c1:54:92:56:dc:34:c8:f5:c1:03:
         d0:5d:c0:59:48:9c:00:fc:95:a0:f1:d1:76:f7:16:36:c8:13:
         92:7f:2d:2b:c0:b8:80:f1:26:26:1f:41:4d:52:bf:1e:97:bb:
         01:82:08:e7:15:f6:c1:d5:34:2a:cc:f5:e4:c3:87:7a:57:81:
         e1:d6:d7:42:86:62:01:77:e2:a9:c4:7a:86:f4:04:38:7a:07:
         6a:7d:00:ec:73:f7:a8:0b:34:78:c5:9e:b3:ef:b8:38:40:0e:
         8c:33:53:c8:75:ec:5f:3e:ea:75:5e:ff:82:0e:74:15:dc:19:
         05:f3:ba:31
-----BEGIN CERTIFICATE-----
MIIEXTCCA0WgAwIBAgILBAAAAAABJQcd+a8wDQYJKoZIhvcNAQELBQAwVzELMAkG
A1UEBhMCQkUxGTAXBgNVBAoTEEdsb2JhbFNpZ24gbnYtc2ExEDAOBgNVBAsTB1Jv
b3QgQ0ExGzAZBgNVBAMTEkdsb2JhbFNpZ24gUm9vdCBDQTAeFw0wOTExMTgxMDAw
MDBaFw0xOTAzMTgxMDAwMDBaMEwxIDAeBgNVBAsTF0dsb2JhbFNpZ24gUm9vdCBD
QSAtIFIzMRMwEQYDVQQKEwpHbG9iYWxTaWduMRMwEQYDVQQDEwpHbG9iYWxTaWdu
MIIBIjANBgkqhkiG9w0BAQEFAAOCAQ8AMIIBCgKCAQEAzCV2kHkGeCIW9cCDtoTK
KJ79BXYRxa2IcvxGAkPHsoqdBF8kyy5L4WCCRuFSqwyBR3Bs3WTR6/Usow+CPQwr
rpfXthSGEHm7OxOAd4wI4UnSamIvH176lmjfiSeVOJ8G1z7JyyZZDXPesMjpJg6D
FcbvW4vSBGDKSaYo9mk79svIKJHlnYphVzesdBTcdOA67nIvLpz70Lu/9T0A4QYz
6IIrrlOmOhZzjN1BDiA6wLSnoemyT5AuMmDpV8u5BJJoaOU4JmB1sp93/5EU764g
SfytQBVI0QIxYRleuJfvrXe3ZJp6v1/BE++bYvsNbOBUaRapA9pu6YOTcXbGaYWC
FwIDAQABo4IBMzCCAS8wDgYDVR0PAQH/BAQDAgEGMA8GA1UdEwEB/wQFMAMBAf8w
HQYDVR0OBBYEFI/wS3+oLkUkrk1Q+mOai97i3Ru8MEYGA1UdIAQ/MD0wOwYEVR0g
ADAzMDEGCCsGAQUFBwIBFiVodHRwOi8vd3d3Lmdsb2JhbHNpZ24ubmV0L3JlcG9z
aXRvcnkvMDMGA1UdHwQsMCowKKAmoCSGImh0dHA6Ly9jcmwuZ2xvYmFsc2lnbi5u
ZXQvcm9vdC5jcmwwTwYIKwYBBQUHAQEEQzBBMD8GCCsGAQUFBzABhjNodHRwOi8v
b2NzcC5nbG9iYWxzaWduLmNvbS9FeHRlbmRlZFNTTFNIQTI1NkNBQ3Jvc3MwHwYD
VR0jBBgwFoAUYHtmGkUNl8qJUC99BM00qP/8/UswDQYJKoZIhvcNAQELBQADggEB
AEJSqX6iz1s7y0vduvhXWdMkpHdy72JEN4LtBu4E1RZfJKMU3GxUBWqwmz3agTna
rSjblW+Bg/XNYrFFJLHdKeUIVJWVjPAdBl8a1kY/E0AXSBEWm0dN0Tq1D1cckjDQ
+LIlOwrN9of5x7JX0z99pYwUzpyox59Gk9pZ+nldZSA1RFpPwZCdwVSSVtw0yPXB
A9BdwFlInAD8laDx0Xb3FjbIE5J/LSvAuIDxJiYfQU1Svx6XuwGCCOcV9sHVNCrM
9eTDh3pXgeHW10KGYgF34qnEeob0BDh6B2p9AOxz96gLNHjFnrPvuDhADowzU8h1
7F8+6nVe/4IOdBXcGQXzujE=
-----END CERTIFICATE-----

Certificate:
    Data:
        Version: 3 (0x2)
        Serial Number:
            47:2c:cb:a9:49:bb:94:24:e9:8f:41:6f:ad:41
    Signature Algorithm: sha256WithRSAEncryption
        Issuer: OU=GlobalSign Root CA - R3, O=GlobalSign, CN=GlobalSign
        Validity
            Not Before: Aug  2 10:00:00 2011 GMT
            Not After : Aug  2 10:00:00 2019 GMT
        Subject: C=BE, O=GlobalSign nv-sa, CN=GlobalSign CodeSigning CA - SHA256 - G2
        Subject Public Key Info:
            Public Key Algorithm: rsaEncryption
                Public-Key: (2048 bit)
                Modulus:
                    00:a3:ef:d1:9f:29:e9:d8:d3:82:76:3c:62:a0:d2:
                    49:d6:16:1e:f1:cf:f0:d0:ba:48:43:03:2d:a7:1d:
                    f2:01:34:49:a4:10:e9:62:13:f4:13:f4:16:83:b5:
                    d5:57:42:48:86:2b:95:58:87:ea:28:04:74:cb:72:
                    11:0f:61:26:e1:fa:1c:61:15:c7:28:9b:4d:0b:82:
                    0f:26:2b:90:3a:96:ed:a4:d0:6b:29:9c:f5:61:88:
                    e6:a4:57:6f:ee:f4:70:d0:8d:17:de:e6:66:76:5f:
                    74:1e:5e:0c:53:38:5d:90:f4:df:30:2d:1b:13:d1:
                    79:98:54:1a:4b:38:04:f4:07:c4:23:03:d3:92:cb:
                    f7:80:5d:aa:9c:56:06:44:2d:41:4c:48:b4:2d:ec:
                    35:92:9a:c6:95:d7:f5:ce:90:31:e2:76:b3:61:b8:
                    f1:75:57:42:ac:3b:ce:2b:c8:90:49:e8:b7:26:cf:
                    bb:0c:89:cb:d0:c3:a3:6a:a1:c9:d5:e3:9c:53:2b:
                    57:26:fe:56:9a:76:fd:61:46:a2:60:ec:29:46:47:
                    f2:cd:e0:82:62:c6:04:5a:e7:ed:4e:40:5c:48:06:
                    7d:9d:5f:e7:74:c9:9e:84:65:0d:5b:de:dc:d3:24:
                    1c:b4:14:11:eb:ab:bf:c4:1f:a4:ba:99:d0:17:58:
                    35:cd
                Exponent: 65537 (0x10001)
        X509v3 extensions:
            X509v3 Key Usage: critical
                Certificate Sign, CRL Sign
            X509v3 Extended Key Usage: 
                Code Signing
            X509v3 Basic Constraints: critical
                CA:TRUE, pathlen:0
            X509v3 Subject Key Identifier: 
                19:4A:B8:5A:E4:4D:31:A5:14:E5:5E:EC:2F:A3:1C:FA:80:8C:32:6B
            X509v3 Authority Key Identifier: 
                keyid:8F:F0:4B:7F:A8:2E:45:24:AE:4D:50:FA:63:9A:8B:DE:E2:DD:1B:BC

            Authority Information Access: 
                OCSP - URI:http://ocsp2.globalsign.com/rootr3

            X509v3 CRL Distribution Points: 

                Full Name:
                  URI:http://crl.globalsign.net/root-r3.crl

            X509v3 Certificate Policies: 
                Policy: X509v3 Any Policy
                  CPS: https://www.globalsign.com/repository/

    Signature Algorithm: sha256WithRSAEncryption
         6b:aa:4d:96:b3:eb:f2:b3:c2:ca:4a:ee:c8:66:f2:ed:56:4a:
         a8:f1:69:e4:25:88:2e:d0:30:45:e7:56:a0:41:91:0d:28:77:
         fb:84:9c:f1:79:52:f8:fd:e7:ae:fe:04:7a:54:ef:e1:8e:c5:
         c9:ed:4b:cc:45:4e:d1:b8:93:45:62:c9:4b:d4:5a:44:05:11:
         65:a9:e4:4e:0e:27:2e:fe:2d:ca:27:36:1e:91:98:5b:70:1a:
         83:06:60:e6:6f:4a:c1:76:62:00:f5:33:77:1d:ba:e8:51:51:
         f6:a2:9e:22:3b:c2:e0:52:1a:fc:fe:2a:b3:62:24:2b:c9:6d:
         c0:4d:8c:00:84:2e:9b:10:97:d6:d2:ea:02:51:25:92:99:2b:
         1f:17:9f:8a:dd:3b:fe:b7:0a:89:c5:06:b0:87:f6:d1:da:5f:
         65:09:41:09:6a:c3:e7:74:94:68:2a:da:03:b8:50:7a:ea:0c:
         e6:18:27:6a:77:fa:a5:90:48:e8:02:41:85:2b:a9:de:9f:55:
         6e:cc:36:0c:a7:16:c6:30:a0:e3:c4:df:55:f4:96:1f:36:af:
         5f:6b:87:0d:68:b2:72:ed:7b:48:20:8e:d0:61:fc:8e:95:5e:
         3e:fc:fc:3f:69:f1:48:1b:57:93:8d:2e:90:bc:4f:ab:54:22:
         84:d7:10:87
-----BEGIN CERTIFICATE-----
MIIEbjCCA1agAwIBAgIORyzLqUm7lCTpj0FvrUEwDQYJKoZIhvcNAQELBQAwTDEg
MB4GA1UECxMXR2xvYmFsU2lnbiBSb290IENBIC0gUjMxEzARBgNVBAoTCkdsb2Jh
bFNpZ24xEzARBgNVBAMTCkdsb2JhbFNpZ24wHhcNMTEwODAyMTAwMDAwWhcNMTkw
ODAyMTAwMDAwWjBaMQswCQYDVQQGEwJCRTEZMBcGA1UEChMQR2xvYmFsU2lnbiBu
di1zYTEwMC4GA1UEAxMnR2xvYmFsU2lnbiBDb2RlU2lnbmluZyBDQSAtIFNIQTI1
NiAtIEcyMIIBIjANBgkqhkiG9w0BAQEFAAOCAQ8AMIIBCgKCAQEAo+/Rnynp2NOC
djxioNJJ1hYe8c/w0LpIQwMtpx3yATRJpBDpYhP0E/QWg7XVV0JIhiuVWIfqKAR0
y3IRD2Em4focYRXHKJtNC4IPJiuQOpbtpNBrKZz1YYjmpFdv7vRw0I0X3uZmdl90
Hl4MUzhdkPTfMC0bE9F5mFQaSzgE9AfEIwPTksv3gF2qnFYGRC1BTEi0Lew1kprG
ldf1zpAx4nazYbjxdVdCrDvOK8iQSei3Js+7DInL0MOjaqHJ1eOcUytXJv5Wmnb9
YUaiYOwpRkfyzeCCYsYEWuftTkBcSAZ9nV/ndMmehGUNW97c0yQctBQR66u/xB+k
upnQF1g1zQIDAQABo4IBPjCCATowDgYDVR0PAQH/BAQDAgEGMBMGA1UdJQQMMAoG
CCsGAQUFBwMDMBIGA1UdEwEB/wQIMAYBAf8CAQAwHQYDVR0OBBYEFBlKuFrkTTGl
FOVe7C+jHPqAjDJrMB8GA1UdIwQYMBaAFI/wS3+oLkUkrk1Q+mOai97i3Ru8MD4G
CCsGAQUFBwEBBDIwMDAuBggrBgEFBQcwAYYiaHR0cDovL29jc3AyLmdsb2JhbHNp
Z24uY29tL3Jvb3RyMzA2BgNVHR8ELzAtMCugKaAnhiVodHRwOi8vY3JsLmdsb2Jh
bHNpZ24ubmV0L3Jvb3QtcjMuY3JsMEcGA1UdIARAMD4wPAYEVR0gADA0MDIGCCsG
AQUFBwIBFiZodHRwczovL3d3dy5nbG9iYWxzaWduLmNvbS9yZXBvc2l0b3J5LzAN
BgkqhkiG9w0BAQsFAAOCAQEAa6pNlrPr8rPCykruyGby7VZKqPFp5CWILtAwRedW
oEGRDSh3+4Sc8XlS+P3nrv4EelTv4Y7Fye1LzEVO0biTRWLJS9RaRAURZankTg4n
Lv4tyic2HpGYW3AagwZg5m9KwXZiAPUzdx266FFR9qKeIjvC4FIa/P4qs2IkK8lt
wE2MAIQumxCX1tLqAlElkpkrHxefit07/rcKicUGsIf20dpfZQlBCWrD53SUaCra
A7hQeuoM5hgnanf6pZBI6AJBhSup3p9Vbsw2DKcWxjCg48TfVfSWHzavX2uHDWiy
cu17SCCO0GH8jpVePvz8P2nxSBtXk40ukLxPq1QihNcQhw==
-----END CERTIFICATE-----

Certificate:
    Data:
        Version: 3 (0x2)
        Serial Number:
            11:21:4e:62:df:3c:5c:8a:02:48:92:33:8d:70:da:b8:97:82
    Signature Algorithm: sha256WithRSAEncryption
        Issuer: C=BE, O=GlobalSign nv-sa, CN=GlobalSign CodeSigning CA - SHA256 - G2
        Validity
            Not Before: Dec 31 12:33:37 2015 GMT
            Not After : Apr 23 10:56:49 2017 GMT
        Subject: C=ES, L=Bilbao, O=Panda Security S.L, CN=Panda Security S.L
        Subject Public Key Info:
            Public Key Algorithm: rsaEncryption
                Public-Key: (2048 bit)
                Modulus:
                    00:cf:55:f5:87:0e:22:c6:43:d8:42:90:3d:29:4a:
                    4f:6c:02:7e:e1:e2:67:09:16:e9:0a:13:4d:ee:a7:
                    d4:b5:f2:ba:f5:42:50:34:31:52:c1:1d:88:5b:10:
                    10:50:65:9f:9c:60:a7:ab:e1:28:60:e9:c8:d4:b4:
                    22:a6:3f:10:61:3b:c3:d6:21:f1:79:a5:9f:46:8b:
                    b3:dd:5a:ed:4b:c7:7d:36:5e:f1:c1:ee:b5:0b:5e:
                    45:54:cf:04:14:ee:b4:6c:20:46:3c:73:88:56:ff:
                    e0:b0:e4:83:e1:f0:7f:24:9a:97:3b:7c:cd:ef:26:
                    a4:6b:87:e2:7a:00:c0:f3:01:e6:86:3e:61:dd:eb:
                    6a:1d:97:ee:f8:48:b2:be:05:b5:28:62:25:89:fc:
                    99:c7:e0:b8:a4:7d:f8:df:7f:34:55:b5:45:c0:46:
                    30:c0:32:42:d5:f6:4c:d3:8b:3d:e5:2b:11:30:0b:
                    0c:75:22:1d:58:0f:fa:a3:27:ec:b3:5f:3f:8f:4e:
                    6d:6b:8e:3b:92:45:97:bb:3a:04:27:05:8b:6f:45:
                    29:90:bc:fa:35:bb:ab:71:41:e3:dd:e5:b3:3b:8b:
                    04:d8:a6:da:15:e6:fb:7d:da:9a:fa:ae:9d:28:c6:
                    f0:30:1a:3f:f0:0c:1b:6a:61:dd:91:46:69:1f:60:
                    88:0f
                Exponent: 65537 (0x10001)
        X509v3 extensions:
            X509v3 Key Usage: critical
                Digital Signature
            X509v3 Certificate Policies: 
                Policy: 1.3.6.1.4.1.4146.1.50
                  CPS: https://www.globalsign.com/repository/

            X509v3 Basic Constraints: 
                CA:FALSE
            X509v3 Extended Key Usage: 
                Code Signing
            X509v3 CRL Distribution Points: 

                Full Name:
                  URI:http://crl.globalsign.com/gs/gscodesignsha2g2.crl

            Authority Information Access: 
                CA Issuers - URI:http://secure.globalsign.com/cacert/gscodesignsha2g2.crt
                OCSP - URI:http://ocsp2.globalsign.com/gscodesignsha2g2

            X509v3 Subject Key Identifier: 
                DD:E9:32:2C:6C:51:C1:0F:57:F4:90:2B:B9:A4:D8:47:47:6E:8A:6E
            X509v3 Authority Key Identifier: 
                keyid:19:4A:B8:5A:E4:4D:31:A5:14:E5:5E:EC:2F:A3:1C:FA:80:8C:32:6B

    Signature Algorithm: sha256WithRSAEncryption
         76:ce:96:9c:4f:c0:4e:4e:5d:07:a0:4f:e7:b1:35:9a:43:06:
         e2:ae:f7:30:a9:ad:0b:97:d9:32:ba:b8:1c:8a:67:cc:11:0f:
         38:65:50:6b:9a:c1:8b:31:db:19:7a:3f:6b:e3:e0:41:0b:f2:
         9b:76:0b:3f:a1:48:5e:1d:e0:ab:ac:93:b1:d4:72:90:0e:91:
         44:2c:c6:cd:d7:8c:78:43:55:36:85:3f:cc:78:04:ee:18:c6:
         94:4f:52:73:62:c1:18:05:48:9e:4a:74:26:84:c8:47:44:6d:
         7d:c3:12:0b:89:14:ba:8d:25:8a:d3:a2:25:ba:3c:1b:1d:27:
         55:57:89:fc:0e:d6:89:2a:b8:36:28:0e:e0:f8:eb:02:ac:e4:
         cd:e1:0f:45:b4:7f:07:ee:eb:52:f4:84:18:59:cb:17:c9:1c:
         60:1b:a7:ad:b3:df:4f:a8:b2:5d:c8:b6:24:20:70:db:c4:b8:
         28:e7:f6:1a:94:09:d1:18:ae:89:f2:90:18:32:1c:6a:58:73:
         9a:6a:3d:e0:4e:98:7e:9d:8f:08:1c:09:9d:22:a2:08:48:56:
         5c:c6:64:c5:98:9e:b4:fd:fc:69:b6:37:c0:bd:ee:62:a8:43:
         77:7d:7b:1f:fb:ed:e9:7b:7b:61:e6:6f:50:9b:91:ef:04:e9:
         0b:da:a1:70
-----BEGIN CERTIFICATE-----
MIIE2TCCA8GgAwIBAgISESFOYt88XIoCSJIzjXDauJeCMA0GCSqGSIb3DQEBCwUA
MFoxCzAJBgNVBAYTAkJFMRkwFwYDVQQKExBHbG9iYWxTaWduIG52LXNhMTAwLgYD
VQQDEydHbG9iYWxTaWduIENvZGVTaWduaW5nIENBIC0gU0hBMjU2IC0gRzIwHhcN
MTUxMjMxMTIzMzM3WhcNMTcwNDIzMTA1NjQ5WjBYMQswCQYDVQQGEwJFUzEPMA0G
A1UEBxMGQmlsYmFvMRswGQYDVQQKExJQYW5kYSBTZWN1cml0eSBTLkwxGzAZBgNV
BAMTElBhbmRhIFNlY3VyaXR5IFMuTDCCASIwDQYJKoZIhvcNAQEBBQADggEPADCC
AQoCggEBAM9V9YcOIsZD2EKQPSlKT2wCfuHiZwkW6QoTTe6n1LXyuvVCUDQxUsEd
iFsQEFBln5xgp6vhKGDpyNS0IqY/EGE7w9Yh8Xmln0aLs91a7UvHfTZe8cHutQte
RVTPBBTutGwgRjxziFb/4LDkg+HwfySalzt8ze8mpGuH4noAwPMB5oY+Yd3rah2X
7vhIsr4FtShiJYn8mcfguKR9+N9/NFW1RcBGMMAyQtX2TNOLPeUrETALDHUiHVgP
+qMn7LNfP49ObWuOO5JFl7s6BCcFi29FKZC8+jW7q3FB493lszuLBNim2hXm+33a
mvqunSjG8DAaP/AMG2ph3ZFGaR9giA8CAwEAAaOCAZkwggGVMA4GA1UdDwEB/wQE
AwIHgDBMBgNVHSAERTBDMEEGCSsGAQQBoDIBMjA0MDIGCCsGAQUFBwIBFiZodHRw
czovL3d3dy5nbG9iYWxzaWduLmNvbS9yZXBvc2l0b3J5LzAJBgNVHRMEAjAAMBMG
A1UdJQQMMAoGCCsGAQUFBwMDMEIGA1UdHwQ7MDkwN6A1oDOGMWh0dHA6Ly9jcmwu
Z2xvYmFsc2lnbi5jb20vZ3MvZ3Njb2Rlc2lnbnNoYTJnMi5jcmwwgZAGCCsGAQUF
BwEBBIGDMIGAMEQGCCsGAQUFBzAChjhodHRwOi8vc2VjdXJlLmdsb2JhbHNpZ24u
Y29tL2NhY2VydC9nc2NvZGVzaWduc2hhMmcyLmNydDA4BggrBgEFBQcwAYYsaHR0
cDovL29jc3AyLmdsb2JhbHNpZ24uY29tL2dzY29kZXNpZ25zaGEyZzIwHQYDVR0O
BBYEFN3pMixsUcEPV/SQK7mk2EdHbopuMB8GA1UdIwQYMBaAFBlKuFrkTTGlFOVe
7C+jHPqAjDJrMA0GCSqGSIb3DQEBCwUAA4IBAQB2zpacT8BOTl0HoE/nsTWaQwbi
rvcwqa0Ll9kyurgcimfMEQ84ZVBrmsGLMdsZej9r4+BBC/Kbdgs/oUheHeCrrJOx
1HKQDpFELMbN14x4Q1U2hT/MeATuGMaUT1JzYsEYBUieSnQmhMhHRG19wxILiRS6
jSWK06IlujwbHSdVV4n8DtaJKrg2KA7g+OsCrOTN4Q9FtH8H7utS9IQYWcsXyRxg
G6ets99PqLJdyLYkIHDbxLgo5/YalAnRGK6J8pAYMhxqWHOaaj3gTph+nY8IHAmd
IqIISFZcxmTFmJ60/fxptjfAve5iqEN3fXsf++3pe3th5m9Qm5HvBOkL2qFw
-----END CERTIFICATE-----

