Certificate:
    Data:
        Version: 3 (0x2)
        Serial Number:
            67:20:eb:95:3f:b3:b3:dd:53:51:ff:98:7a:4d:7c:d7
    Signature Algorithm: sha256WithRSAEncryption
        Issuer: C=US, O=Symantec Corporation, OU=Symantec Trust Network, CN=Symantec Class 3 SHA256 Code Signing CA
        Validity
            Not Before: Feb 13 00:00:00 2015 GMT
            Not After : Mar  6 23:59:59 2017 GMT
        Subject: C=FR, ST=Ile de France, L=Paris, O=AVANQUEST SOFTWARE, CN=AVANQUEST SOFTWARE
        Subject Public Key Info:
            Public Key Algorithm: rsaEncryption
                Public-Key: (2048 bit)
                Modulus:
                    00:bc:88:db:fd:12:d5:2e:52:3c:7b:02:36:34:bd:
                    f7:e6:b9:99:94:f4:93:07:bb:5f:86:39:c5:75:b7:
                    ed:60:40:14:6f:a2:a8:09:15:d2:47:fd:b5:bd:9a:
                    8e:d4:60:ac:30:85:03:18:cd:17:15:59:44:b5:8f:
                    25:5a:ec:66:81:be:a9:67:74:5b:27:bd:b4:2a:74:
                    e1:a4:64:e8:49:a1:ab:c2:89:3d:e6:23:13:1f:4b:
                    85:d5:96:98:ac:83:b3:8c:5e:d4:4f:f0:70:96:7e:
                    a3:99:ae:0b:21:78:d4:6f:5e:35:ff:2e:75:3e:75:
                    d7:df:4b:75:3c:4b:23:ef:08:7d:1e:2a:73:ec:cf:
                    dc:33:d7:b5:a2:9e:55:bd:8e:1a:ba:83:e3:93:00:
                    56:1f:b8:88:18:6d:c9:9c:8b:01:9f:b0:0f:c1:71:
                    db:a4:70:d3:93:46:4f:16:cb:1a:75:76:7c:f6:90:
                    77:2c:f9:3a:4d:67:59:b1:bd:c1:d0:d3:0b:d2:ec:
                    89:50:af:8a:f7:18:95:32:6b:e1:84:15:df:0d:53:
                    6f:59:00:d3:e2:67:fc:93:a3:54:fa:59:35:87:f2:
                    1f:11:35:f8:29:66:b8:c6:6a:7d:24:53:be:de:03:
                    05:90:47:f2:e4:a0:71:14:c6:bc:40:41:b2:18:18:
                    ad:55
                Exponent: 65537 (0x10001)
        X509v3 extensions:
            X509v3 Basic Constraints: 
                CA:FALSE
            X509v3 Key Usage: critical
                Digital Signature
            X509v3 CRL Distribution Points: 

                Full Name:
                  URI:http://sv.symcb.com/sv.crl

            X509v3 Certificate Policies: 
                Policy: 2.16.840.1.113733.1.7.23.3
                  CPS: https://d.symcb.com/cps
                  User Notice:
                    Explicit Text: https://d.symcb.com/rpa

            X509v3 Extended Key Usage: 
                Code Signing
            Authority Information Access: 
                OCSP - URI:http://sv.symcd.com
                CA Issuers - URI:http://sv.symcb.com/sv.crt

            X509v3 Authority Key Identifier: 
                keyid:96:3B:53:F0:79:33:97:AF:7D:83:EF:2E:2B:CC:CA:B7:86:1E:72:66

            X509v3 Subject Key Identifier: 
                C8:9A:51:DB:62:02:52:38:5B:9E:86:C7:1A:A1:5B:2C:8A:BF:82:2C
            Netscape Cert Type: 
                Object Signing
            1.3.6.1.4.1.311.2.1.27: 
                0.......
    Signature Algorithm: sha256WithRSAEncryption
         3c:b9:b6:7e:ae:5d:be:69:20:25:ce:ea:ba:3d:f3:71:36:44:
         4b:61:59:f1:df:05:6c:3a:f6:30:ac:c2:84:8a:cc:62:7f:9a:
         ad:d2:c9:37:a4:da:3a:73:f8:d3:45:12:a5:e0:35:5f:73:4a:
         77:bc:b7:79:56:bb:a6:a4:21:86:7e:7d:c4:cb:11:d2:a8:6d:
         7e:ee:e1:37:a4:91:3a:2d:f2:77:28:28:5e:b2:db:45:51:ae:
         6e:79:3e:92:26:a0:8e:b0:76:01:ba:23:21:35:b9:58:7c:66:
         34:dc:38:ba:0f:41:5f:07:c7:29:f5:6c:00:f1:48:39:3b:41:
         cd:b3:39:14:ec:1f:5e:e6:e5:8a:e8:d9:5e:90:eb:52:5f:42:
         93:f5:fe:30:46:50:12:64:ce:e3:74:f9:4f:42:07:c9:45:16:
         f0:70:ab:46:42:3f:92:7f:60:0d:14:cb:94:95:18:bf:38:66:
         1d:06:5b:34:5b:43:d2:d3:65:ee:dd:3a:52:1b:bd:23:c8:1a:
         97:6d:06:99:b8:d6:ad:cb:e9:eb:fb:d3:59:04:ec:07:57:d1:
         25:6f:f9:93:8a:0b:fb:c4:89:ef:38:4f:67:8c:73:5e:f5:b4:
         c2:3c:4c:f6:0f:7e:f9:91:04:61:2d:99:f7:d4:79:71:68:bd:
         30:83:6f:a0
-----BEGIN CERTIFICATE-----
MIIFBzCCA++gAwIBAgIQZyDrlT+zs91TUf+Yek181zANBgkqhkiG9w0BAQsFADB/
MQswCQYDVQQGEwJVUzEdMBsGA1UEChMUU3ltYW50ZWMgQ29ycG9yYXRpb24xHzAd
BgNVBAsTFlN5bWFudGVjIFRydXN0IE5ldHdvcmsxMDAuBgNVBAMTJ1N5bWFudGVj
IENsYXNzIDMgU0hBMjU2IENvZGUgU2lnbmluZyBDQTAeFw0xNTAyMTMwMDAwMDBa
Fw0xNzAzMDYyMzU5NTlaMG8xCzAJBgNVBAYTAkZSMRYwFAYDVQQIEw1JbGUgZGUg
RnJhbmNlMQ4wDAYDVQQHEwVQYXJpczEbMBkGA1UEChQSQVZBTlFVRVNUIFNPRlRX
QVJFMRswGQYDVQQDFBJBVkFOUVVFU1QgU09GVFdBUkUwggEiMA0GCSqGSIb3DQEB
AQUAA4IBDwAwggEKAoIBAQC8iNv9EtUuUjx7AjY0vffmuZmU9JMHu1+GOcV1t+1g
QBRvoqgJFdJH/bW9mo7UYKwwhQMYzRcVWUS1jyVa7GaBvqlndFsnvbQqdOGkZOhJ
oavCiT3mIxMfS4XVlpisg7OMXtRP8HCWfqOZrgsheNRvXjX/LnU+ddffS3U8SyPv
CH0eKnPsz9wz17WinlW9jhq6g+OTAFYfuIgYbcmciwGfsA/BcdukcNOTRk8Wyxp1
dnz2kHcs+TpNZ1mxvcHQ0wvS7IlQr4r3GJUya+GEFd8NU29ZANPiZ/yTo1T6WTWH
8h8RNfgpZrjGan0kU77eAwWQR/LkoHEUxrxAQbIYGK1VAgMBAAGjggGNMIIBiTAJ
BgNVHRMEAjAAMA4GA1UdDwEB/wQEAwIHgDArBgNVHR8EJDAiMCCgHqAchhpodHRw
Oi8vc3Yuc3ltY2IuY29tL3N2LmNybDBmBgNVHSAEXzBdMFsGC2CGSAGG+EUBBxcD
MEwwIwYIKwYBBQUHAgEWF2h0dHBzOi8vZC5zeW1jYi5jb20vY3BzMCUGCCsGAQUF
BwICMBkMF2h0dHBzOi8vZC5zeW1jYi5jb20vcnBhMBMGA1UdJQQMMAoGCCsGAQUF
BwMDMFcGCCsGAQUFBwEBBEswSTAfBggrBgEFBQcwAYYTaHR0cDovL3N2LnN5bWNk
LmNvbTAmBggrBgEFBQcwAoYaaHR0cDovL3N2LnN5bWNiLmNvbS9zdi5jcnQwHwYD
VR0jBBgwFoAUljtT8Hkzl699g+8uK8zKt4YecmYwHQYDVR0OBBYEFMiaUdtiAlI4
W56GxxqhWyyKv4IsMBEGCWCGSAGG+EIBAQQEAwIEEDAWBgorBgEEAYI3AgEbBAgw
BgEBAAEB/zANBgkqhkiG9w0BAQsFAAOCAQEAPLm2fq5dvmkgJc7quj3zcTZES2FZ
8d8FbDr2MKzChIrMYn+ardLJN6TaOnP400USpeA1X3NKd7y3eVa7pqQhhn59xMsR
0qhtfu7hN6SROi3ydygoXrLbRVGubnk+kiagjrB2AbojITW5WHxmNNw4ug9BXwfH
KfVsAPFIOTtBzbM5FOwfXubliujZXpDrUl9Ck/X+MEZQEmTO43T5T0IHyUUW8HCr
RkI/kn9gDRTLlJUYvzhmHQZbNFtD0tNl7t06Uhu9I8gal20GmbjWrcvp6/vTWQTs
B1fRJW/5k4oL+8SJ7zhPZ4xzXvW0wjxM9g9++ZEEYS2Z99R5cWi9MINvoA==
-----END CERTIFICATE-----

Certificate:
    Data:
        Version: 3 (0x2)
        Serial Number:
            3d:78:d7:f9:76:49:60:b2:61:7d:f4:f0:1e:ca:86:2a
    Signature Algorithm: sha256WithRSAEncryption
        Issuer: C=US, O=VeriSign, Inc., OU=VeriSign Trust Network, OU=(c) 2006 VeriSign, Inc. - For authorized use only, CN=VeriSign Class 3 Public Primary Certification Authority - G5
        Validity
            Not Before: Dec 10 00:00:00 2013 GMT
            Not After : Dec  9 23:59:59 2023 GMT
        Subject: C=US, O=Symantec Corporation, OU=Symantec Trust Network, CN=Symantec Class 3 SHA256 Code Signing CA
        Subject Public Key Info:
            Public Key Algorithm: rsaEncryption
                Public-Key: (2048 bit)
                Modulus:
                    00:97:83:1e:00:16:af:2c:b1:d2:08:c4:d7:68:93:
                    51:60:1e:71:f6:e2:47:b4:db:58:4d:23:62:6a:b4:
                    bf:5a:1b:51:f7:a3:0d:18:77:68:bb:d8:36:ab:2f:
                    21:50:da:9e:f3:e7:5f:27:4e:0b:c2:97:c8:09:70:
                    93:a9:da:5c:0d:4e:a4:0d:91:a0:b4:ec:14:ce:91:
                    72:54:2e:ce:a3:db:44:e9:52:1b:3f:41:3c:ca:4a:
                    e4:aa:c0:e8:39:ab:53:cc:21:d0:cc:cf:7f:9b:e6:
                    c2:cc:58:6a:82:15:ee:3d:36:cf:1c:c5:97:07:24:
                    8e:f1:7b:be:31:2d:3d:6e:dc:b5:99:42:9f:4b:61:
                    95:5f:1c:70:ee:17:7d:db:8b:e5:61:89:78:c7:68:
                    1b:af:11:78:1a:98:ae:c4:55:47:53:d9:b3:32:d6:
                    a1:0e:46:40:c5:97:92:8a:d1:53:a7:99:5b:85:35:
                    57:d3:ea:93:62:61:20:0a:c7:30:77:24:11:4d:62:
                    83:b6:ba:7b:68:82:31:ee:65:ca:df:f9:d5:8d:b2:
                    35:dc:8c:2b:6f:6a:72:5c:60:84:9c:f2:0c:94:5e:
                    c0:56:52:00:48:cc:d3:f8:a5:7d:de:2f:d7:13:e4:
                    38:a8:84:d5:46:b8:13:86:c2:1b:9d:ea:5a:38:dd:
                    9b:db
                Exponent: 65537 (0x10001)
        X509v3 extensions:
            Authority Information Access: 
                OCSP - URI:http://s2.symcb.com

            X509v3 Basic Constraints: critical
                CA:TRUE, pathlen:0
            X509v3 Certificate Policies: 
                Policy: 2.16.840.1.113733.1.7.23.3
                  CPS: http://www.symauth.com/cps
                  User Notice:
                    Explicit Text: http://www.symauth.com/rpa

            X509v3 CRL Distribution Points: 

                Full Name:
                  URI:http://s1.symcb.com/pca3-g5.crl

            X509v3 Extended Key Usage: 
                TLS Web Client Authentication, Code Signing
            X509v3 Key Usage: critical
                Certificate Sign, CRL Sign
            X509v3 Subject Alternative Name: 
                DirName:/CN=SymantecPKI-1-567
            X509v3 Subject Key Identifier: 
                96:3B:53:F0:79:33:97:AF:7D:83:EF:2E:2B:CC:CA:B7:86:1E:72:66
            X509v3 Authority Key Identifier: 
                keyid:7F:D3:65:A7:C2:DD:EC:BB:F0:30:09:F3:43:39:FA:02:AF:33:31:33

    Signature Algorithm: sha256WithRSAEncryption
         13:85:1a:1e:69:a9:37:f7:a0:bd:a4:af:7e:1d:61:53:fe:9d:
         8c:5e:0c:a6:75:1e:78:17:23:dd:fd:ec:1a:03:55:39:fb:71:
         95:c7:65:5a:a7:8e:30:d2:44:5a:61:db:70:6f:da:21:05:c2:
         2e:73:ba:49:f1:d1:93:fe:5d:c9:cd:5e:03:e0:89:9e:3f:74:
         1e:d7:f7:38:8b:a9:d6:cf:bb:35:2f:33:58:a8:92:56:d1:c8:
         4d:3b:82:e6:79:84:16:fc:28:b0:b1:47:f3:1d:a2:3e:ee:87:
         d9:a6:7f:a4:56:a5:3f:ad:84:2e:29:de:7c:bc:a8:aa:a3:3d:
         04:01:ea:ba:93:a2:0e:50:22:29:17:4c:87:e4:3a:11:5f:d6:
         a4:25:89:9b:05:6b:2f:b4:c9:01:4c:27:7b:0b:ac:19:05:22:
         a0:60:15:3f:da:c9:fb:4d:4c:8f:fb:72:67:77:fd:27:94:c7:
         ba:35:0e:88:49:fe:8d:fd:28:af:4a:12:bd:0d:b3:97:05:de:
         44:0c:15:fa:36:2b:03:dc:c1:50:01:f1:a1:11:5d:14:e5:e2:
         bd:27:4b:54:be:2b:84:5e:0f:a6:c3:74:05:0a:ef:97:c3:89:
         22:b1:1f:77:f3:bd:cd:43:d4:f1:4c:a9:3f:b5:8b:84:af:64:
         f2:d0:14:21
-----BEGIN CERTIFICATE-----
MIIFWTCCBEGgAwIBAgIQPXjX+XZJYLJhffTwHsqGKjANBgkqhkiG9w0BAQsFADCB
yjELMAkGA1UEBhMCVVMxFzAVBgNVBAoTDlZlcmlTaWduLCBJbmMuMR8wHQYDVQQL
ExZWZXJpU2lnbiBUcnVzdCBOZXR3b3JrMTowOAYDVQQLEzEoYykgMjAwNiBWZXJp
U2lnbiwgSW5jLiAtIEZvciBhdXRob3JpemVkIHVzZSBvbmx5MUUwQwYDVQQDEzxW
ZXJpU2lnbiBDbGFzcyAzIFB1YmxpYyBQcmltYXJ5IENlcnRpZmljYXRpb24gQXV0
aG9yaXR5IC0gRzUwHhcNMTMxMjEwMDAwMDAwWhcNMjMxMjA5MjM1OTU5WjB/MQsw
CQYDVQQGEwJVUzEdMBsGA1UEChMUU3ltYW50ZWMgQ29ycG9yYXRpb24xHzAdBgNV
BAsTFlN5bWFudGVjIFRydXN0IE5ldHdvcmsxMDAuBgNVBAMTJ1N5bWFudGVjIENs
YXNzIDMgU0hBMjU2IENvZGUgU2lnbmluZyBDQTCCASIwDQYJKoZIhvcNAQEBBQAD
ggEPADCCAQoCggEBAJeDHgAWryyx0gjE12iTUWAecfbiR7TbWE0jYmq0v1obUfej
DRh3aLvYNqsvIVDanvPnXydOC8KXyAlwk6naXA1OpA2RoLTsFM6RclQuzqPbROlS
Gz9BPMpK5KrA6DmrU8wh0MzPf5vmwsxYaoIV7j02zxzFlwckjvF7vjEtPW7ctZlC
n0thlV8ccO4XfduL5WGJeMdoG68ReBqYrsRVR1PZszLWoQ5GQMWXkorRU6eZW4U1
V9Pqk2JhIArHMHckEU1ig7a6e2iCMe5lyt/51Y2yNdyMK29qclxghJzyDJRewFZS
AEjM0/ilfd4v1xPkOKiE1Ua4E4bCG53qWjjdm9sCAwEAAaOCAYMwggF/MC8GCCsG
AQUFBwEBBCMwITAfBggrBgEFBQcwAYYTaHR0cDovL3MyLnN5bWNiLmNvbTASBgNV
HRMBAf8ECDAGAQH/AgEAMGwGA1UdIARlMGMwYQYLYIZIAYb4RQEHFwMwUjAmBggr
BgEFBQcCARYaaHR0cDovL3d3dy5zeW1hdXRoLmNvbS9jcHMwKAYIKwYBBQUHAgIw
HBoaaHR0cDovL3d3dy5zeW1hdXRoLmNvbS9ycGEwMAYDVR0fBCkwJzAloCOgIYYf
aHR0cDovL3MxLnN5bWNiLmNvbS9wY2EzLWc1LmNybDAdBgNVHSUEFjAUBggrBgEF
BQcDAgYIKwYBBQUHAwMwDgYDVR0PAQH/BAQDAgEGMCkGA1UdEQQiMCCkHjAcMRow
GAYDVQQDExFTeW1hbnRlY1BLSS0xLTU2NzAdBgNVHQ4EFgQUljtT8Hkzl699g+8u
K8zKt4YecmYwHwYDVR0jBBgwFoAUf9Nlp8Ld7LvwMAnzQzn6Aq8zMTMwDQYJKoZI
hvcNAQELBQADggEBABOFGh5pqTf3oL2kr34dYVP+nYxeDKZ1HngXI9397BoDVTn7
cZXHZVqnjjDSRFph23Bv2iEFwi5zuknx0ZP+XcnNXgPgiZ4/dB7X9ziLqdbPuzUv
M1ioklbRyE07guZ5hBb8KLCxR/Mdoj7uh9mmf6RWpT+thC4p3ny8qKqjPQQB6rqT
og5QIikXTIfkOhFf1qQliZsFay+0yQFMJ3sLrBkFIqBgFT/ayftNTI/7cmd3/SeU
x7o1DohJ/o39KK9KEr0Ns5cF3kQMFfo2KwPcwVAB8aERXRTl4r0nS1S+K4ReD6bD
dAUK75fDiSKxH3fzvc1D1PFMqT+1i4SvZPLQFCE=
-----END CERTIFICATE-----

