Certificate:
    Data:
        Version: 3 (0x2)
        Serial Number:
            a4:33:81:74:3d:7c:9d:3e:d1:88:c9:95:21:4b:2f:05
    Signature Algorithm: sha256WithRSAEncryption
        Issuer: C=GB, ST=Greater Manchester, L=Salford, O=COMODO CA Limited, CN=COMODO RSA Code Signing CA
        Validity
            Not Before: Sep 28 00:00:00 2017 GMT
            Not After : Sep 28 23:59:59 2018 GMT
        Subject: C=CY/postalCode=2012, ST=Strovolos, L=Nicosia/street=8 Lefkou Anastasiadi, O=Advister Media Ltd, CN=Advister Media Ltd
        Subject Public Key Info:
            Public Key Algorithm: rsaEncryption
                Public-Key: (2048 bit)
                Modulus:
                    00:a8:54:03:0a:1c:5c:9d:f2:af:66:78:31:9f:98:
                    f3:31:39:bc:d6:23:ce:0d:6b:86:41:ac:06:ef:85:
                    35:27:19:d5:37:21:e2:2e:5f:0d:0b:8c:53:4b:82:
                    f1:90:e7:b4:fb:bd:04:97:0c:33:a3:c6:f0:d8:01:
                    e5:eb:8b:56:a4:d9:47:50:2f:51:9b:90:04:bd:fd:
                    e3:af:72:8f:2f:8a:0b:c4:7a:4d:3b:9f:df:95:b1:
                    e2:e5:76:bb:34:07:5b:96:07:f8:30:a7:19:36:86:
                    29:f5:21:c4:1e:0b:ac:34:35:04:75:ce:6a:8d:14:
                    c8:4a:70:bf:9e:56:87:07:d5:47:ae:cf:de:87:02:
                    45:f4:16:63:8c:07:96:4d:73:ce:5c:58:52:db:dc:
                    23:0a:cd:d4:bf:f0:76:99:eb:4a:ee:fe:b4:39:3a:
                    db:fa:d9:f9:6c:50:1f:8f:86:ac:23:71:84:75:8b:
                    57:8c:10:00:48:3f:7f:13:f0:24:8d:5c:90:11:02:
                    d8:4c:c8:31:d4:13:a6:d3:f2:da:a3:e9:21:a5:08:
                    94:2e:14:ae:9a:97:9e:ea:79:8c:53:b2:7e:96:ad:
                    96:a7:8d:b8:7d:3f:31:22:e7:a6:e8:73:a5:fe:64:
                    09:97:94:72:e5:ee:b7:53:74:74:e5:69:0d:3a:b0:
                    b3:c7
                Exponent: 65537 (0x10001)
        X509v3 extensions:
            X509v3 Authority Key Identifier: 
                keyid:29:91:60:FF:8A:4D:FA:EB:F9:A6:6A:B8:CF:F9:E6:4B:BD:49:CE:12

            X509v3 Subject Key Identifier: 
                7A:89:35:0C:D7:3E:E3:E0:27:F5:19:80:BE:D0:99:C9:6F:42:90:4A
            X509v3 Key Usage: critical
                Digital Signature
            X509v3 Basic Constraints: critical
                CA:FALSE
            X509v3 Extended Key Usage: 
                Code Signing
            Netscape Cert Type: 
                Object Signing
            X509v3 Certificate Policies: 
                Policy: 1.3.6.1.4.1.6449.1.2.1.3.2
                  CPS: https://secure.comodo.net/CPS

            X509v3 CRL Distribution Points: 

                Full Name:
                  URI:http://crl.comodoca.com/COMODORSACodeSigningCA.crl

            Authority Information Access: 
                CA Issuers - URI:http://crt.comodoca.com/COMODORSACodeSigningCA.crt
                OCSP - URI:http://ocsp.comodoca.com

            X509v3 Subject Alternative Name: 
                email:info@advistermedia.com
    Signature Algorithm: sha256WithRSAEncryption
         a0:26:32:7e:73:ad:7b:5e:44:ec:b3:80:cf:f1:2b:9a:c1:80:
         6a:4e:3d:dc:32:b3:e5:9d:ad:e6:f2:a4:8e:6e:cf:a0:b3:9b:
         1f:cf:b2:a2:d1:68:7d:22:51:b2:2d:c6:4b:5c:20:ef:9d:1f:
         30:7a:7d:d8:63:09:bc:c7:1f:8d:28:78:d5:f8:c8:dd:ff:ba:
         ea:9d:ab:38:f9:a2:5f:8c:ae:58:61:2e:db:90:1e:93:8c:6c:
         04:f5:dd:41:df:26:70:f2:c6:1f:a1:39:04:0d:5d:47:68:ed:
         2c:db:8b:3a:ae:20:b4:ad:52:14:2f:30:c2:7a:35:d6:87:1c:
         9a:1f:20:ff:93:2f:38:e6:c4:d1:a2:86:b3:c0:c1:a0:19:56:
         10:92:26:f3:cb:93:4d:38:32:21:04:9d:33:f1:98:1a:cb:16:
         8b:45:9c:7a:c6:8d:ab:bb:5e:d5:00:61:a7:09:7b:a0:98:10:
         05:38:14:21:10:81:9d:11:77:81:38:23:80:68:40:98:e3:6d:
         c4:cd:80:f5:e8:66:d9:d2:f1:bb:63:61:8b:41:2b:cf:0b:ba:
         45:b5:5a:cc:7f:f9:48:09:ee:4a:f5:72:3e:f5:6c:96:a1:67:
         38:a1:13:88:8a:fa:63:f3:12:21:ad:8e:86:bf:4e:bd:a5:5d:
         47:6b:d9:e0
-----BEGIN CERTIFICATE-----
MIIFVjCCBD6gAwIBAgIRAKQzgXQ9fJ0+0YjJlSFLLwUwDQYJKoZIhvcNAQELBQAw
fTELMAkGA1UEBhMCR0IxGzAZBgNVBAgTEkdyZWF0ZXIgTWFuY2hlc3RlcjEQMA4G
A1UEBxMHU2FsZm9yZDEaMBgGA1UEChMRQ09NT0RPIENBIExpbWl0ZWQxIzAhBgNV
BAMTGkNPTU9ETyBSU0EgQ29kZSBTaWduaW5nIENBMB4XDTE3MDkyODAwMDAwMFoX
DTE4MDkyODIzNTk1OVowgZsxCzAJBgNVBAYTAkNZMQ0wCwYDVQQRDAQyMDEyMRIw
EAYDVQQIDAlTdHJvdm9sb3MxEDAOBgNVBAcMB05pY29zaWExHTAbBgNVBAkMFDgg
TGVma291IEFuYXN0YXNpYWRpMRswGQYDVQQKDBJBZHZpc3RlciBNZWRpYSBMdGQx
GzAZBgNVBAMMEkFkdmlzdGVyIE1lZGlhIEx0ZDCCASIwDQYJKoZIhvcNAQEBBQAD
ggEPADCCAQoCggEBAKhUAwocXJ3yr2Z4MZ+Y8zE5vNYjzg1rhkGsBu+FNScZ1Tch
4i5fDQuMU0uC8ZDntPu9BJcMM6PG8NgB5euLVqTZR1AvUZuQBL39469yjy+KC8R6
TTuf35Wx4uV2uzQHW5YH+DCnGTaGKfUhxB4LrDQ1BHXOao0UyEpwv55WhwfVR67P
3ocCRfQWY4wHlk1zzlxYUtvcIwrN1L/wdpnrSu7+tDk62/rZ+WxQH4+GrCNxhHWL
V4wQAEg/fxPwJI1ckBEC2EzIMdQTptPy2qPpIaUIlC4UrpqXnup5jFOyfpatlqeN
uH0/MSLnpuhzpf5kCZeUcuXut1N0dOVpDTqws8cCAwEAAaOCAbAwggGsMB8GA1Ud
IwQYMBaAFCmRYP+KTfrr+aZquM/55ku9Sc4SMB0GA1UdDgQWBBR6iTUM1z7j4Cf1
GYC+0JnJb0KQSjAOBgNVHQ8BAf8EBAMCB4AwDAYDVR0TAQH/BAIwADATBgNVHSUE
DDAKBggrBgEFBQcDAzARBglghkgBhvhCAQEEBAMCBBAwRgYDVR0gBD8wPTA7Bgwr
BgEEAbIxAQIBAwIwKzApBggrBgEFBQcCARYdaHR0cHM6Ly9zZWN1cmUuY29tb2Rv
Lm5ldC9DUFMwQwYDVR0fBDwwOjA4oDagNIYyaHR0cDovL2NybC5jb21vZG9jYS5j
b20vQ09NT0RPUlNBQ29kZVNpZ25pbmdDQS5jcmwwdAYIKwYBBQUHAQEEaDBmMD4G
CCsGAQUFBzAChjJodHRwOi8vY3J0LmNvbW9kb2NhLmNvbS9DT01PRE9SU0FDb2Rl
U2lnbmluZ0NBLmNydDAkBggrBgEFBQcwAYYYaHR0cDovL29jc3AuY29tb2RvY2Eu
Y29tMCEGA1UdEQQaMBiBFmluZm9AYWR2aXN0ZXJtZWRpYS5jb20wDQYJKoZIhvcN
AQELBQADggEBAKAmMn5zrXteROyzgM/xK5rBgGpOPdwys+WdrebypI5uz6Czmx/P
sqLRaH0iUbItxktcIO+dHzB6fdhjCbzHH40oeNX4yN3/uuqdqzj5ol+MrlhhLtuQ
HpOMbAT13UHfJnDyxh+hOQQNXUdo7SzbizquILStUhQvMMJ6NdaHHJofIP+TLzjm
xNGihrPAwaAZVhCSJvPLk004MiEEnTPxmBrLFotFnHrGjau7XtUAYacJe6CYEAU4
FCEQgZ0Rd4E4I4BoQJjjbcTNgPXoZtnS8btjYYtBK88LukW1Wsx/+UgJ7kr1cj71
bJahZzihE4iK+mPzEiGtjoa/Tr2lXUdr2eA=
-----END CERTIFICATE-----

Certificate:
    Data:
        Version: 3 (0x2)
        Serial Number:
            2e:7c:87:cc:0e:93:4a:52:fe:94:fd:1c:b7:cd:34:af
    Signature Algorithm: sha384WithRSAEncryption
        Issuer: C=GB, ST=Greater Manchester, L=Salford, O=COMODO CA Limited, CN=COMODO RSA Certification Authority
        Validity
            Not Before: May  9 00:00:00 2013 GMT
            Not After : May  8 23:59:59 2028 GMT
        Subject: C=GB, ST=Greater Manchester, L=Salford, O=COMODO CA Limited, CN=COMODO RSA Code Signing CA
        Subject Public Key Info:
            Public Key Algorithm: rsaEncryption
                Public-Key: (2048 bit)
                Modulus:
                    00:a6:98:90:63:77:91:34:7f:8a:d1:dd:e9:67:31:
                    11:eb:cc:1e:fd:31:1d:b3:b9:62:57:3f:93:bc:5b:
                    e3:9f:1e:24:32:11:27:6b:bc:51:91:a7:cf:9e:9e:
                    25:b3:5f:81:a8:18:0f:1d:1e:20:30:0e:fb:61:7b:
                    86:09:b3:e3:fd:a2:68:9d:1c:2c:9d:bf:72:e3:e4:
                    75:a0:e5:35:23:8e:c9:8a:ee:1a:0c:64:c7:d8:42:
                    a1:7b:b5:52:03:4b:3a:b0:8e:23:4b:4b:63:e0:22:
                    94:37:7b:d5:79:90:0a:14:18:51:2c:e6:fe:c1:12:
                    f0:1c:3f:61:61:0a:8c:a2:dc:f6:c3:30:aa:cd:28:
                    18:75:48:c1:79:5a:08:cd:bb:8c:55:8c:f7:d4:76:
                    90:3a:33:46:50:73:98:5c:f4:85:4a:6b:0f:80:dd:
                    5e:d6:bd:fd:a9:2f:c0:25:f5:f9:78:d7:8d:5f:10:
                    c2:44:55:3c:90:3c:31:46:cb:70:ae:07:a9:0a:e3:
                    af:c1:01:6f:90:1a:23:e2:5f:38:db:c6:08:5d:47:
                    b3:83:41:f0:2e:00:37:14:b9:12:aa:79:92:52:cd:
                    87:0f:7b:d8:62:29:a4:7e:30:bd:1b:b5:8c:72:b4:
                    48:f2:e3:e8:21:f9:5e:4c:62:79:8b:02:06:9f:7f:
                    d5:0b
                Exponent: 65537 (0x10001)
        X509v3 extensions:
            X509v3 Authority Key Identifier: 
                keyid:BB:AF:7E:02:3D:FA:A6:F1:3C:84:8E:AD:EE:38:98:EC:D9:32:32:D4

            X509v3 Subject Key Identifier: 
                29:91:60:FF:8A:4D:FA:EB:F9:A6:6A:B8:CF:F9:E6:4B:BD:49:CE:12
            X509v3 Key Usage: critical
                Digital Signature, Certificate Sign, CRL Sign
            X509v3 Basic Constraints: critical
                CA:TRUE, pathlen:0
            X509v3 Extended Key Usage: 
                Code Signing
            X509v3 Certificate Policies: 
                Policy: X509v3 Any Policy

            X509v3 CRL Distribution Points: 

                Full Name:
                  URI:http://crl.comodoca.com/COMODORSACertificationAuthority.crl

            Authority Information Access: 
                CA Issuers - URI:http://crt.comodoca.com/COMODORSAAddTrustCA.crt
                OCSP - URI:http://ocsp.comodoca.com

    Signature Algorithm: sha384WithRSAEncryption
         02:3f:02:39:c3:ee:f8:ca:3b:89:de:0c:6d:4d:b1:f1:4e:92:
         4f:af:c2:38:2c:04:cc:c5:63:11:ab:09:63:af:ab:a2:d7:02:
         3f:cc:6f:19:c3:3d:d6:1a:08:94:ff:25:d8:a9:88:a7:2b:10:
         1a:e0:9b:b1:07:22:1a:51:1c:3a:d4:e1:e9:09:bf:e6:24:74:
         af:1e:7b:16:31:6e:23:ef:54:51:2d:52:02:e2:75:08:05:4c:
         f1:b7:51:e1:51:00:c6:87:f6:6c:ee:10:44:76:57:6a:f1:df:
         58:6b:21:aa:49:d4:7c:37:4e:bd:ff:b6:75:54:40:18:36:57:
         67:11:cd:4f:02:e4:fe:f3:da:fc:75:17:db:ec:b7:f7:65:09:
         23:49:1f:43:57:83:ea:7e:20:77:61:c8:4d:f2:bb:65:4d:a8:
         f7:85:45:07:af:7a:69:27:65:90:29:40:8b:df:7b:3a:51:39:
         8c:a8:1f:70:79:ad:6d:42:20:a2:cf:0c:6c:03:8c:4c:cd:73:
         07:94:e7:5a:8e:3a:04:ba:a2:a1:7c:1f:cb:63:3a:15:a7:d4:
         15:1b:a7:52:47:32:a9:f4:bf:64:47:d1:aa:1f:53:4e:32:30:
         73:c2:6f:b7:78:82:9d:5c:ff:46:bb:6b:22:1d:88:0b:f8:1b:
         aa:34:a6:fc:8c:f5:dd:7f:65:8c:8c:31:57:31:d0:36:ec:47:
         a1:cf:cb:8b:a8:ef:1c:18:58:c5:06:77:ca:4b:9b:51:af:4c:
         08:4a:7a:8f:e2:a3:52:e2:8e:8e:cc:26:e4:b2:d8:e5:38:c2:
         a8:ed:c6:81:9c:35:6b:a9:58:61:4a:0a:97:b4:4b:42:b6:55:
         9d:be:99:e7:70:6d:59:f8:6d:2a:0c:7f:19:60:5f:0c:9a:88:
         6c:30:ac:52:09:90:16:1b:ff:2b:9d:db:d0:20:ca:89:ea:28:
         7e:32:8e:19:df:7b:48:33:1e:d7:65:f8:ae:c9:f8:83:14:93:
         76:7d:64:d0:8e:ce:be:35:7d:ff:72:31:4d:9f:9e:bd:1e:6c:
         2f:a8:8f:0c:06:50:fb:8c:27:b3:76:c9:f4:e6:d7:c3:34:e2:
         8c:87:21:86:61:fe:bf:55:74:e1:21:77:03:0a:68:6c:bb:e4:
         c9:a9:e6:cf:59:25:eb:7c:ec:45:0e:79:66:68:e8:22:cd:b8:
         ef:98:85:4d:96:11:3c:09:8a:d0:7f:bc:28:28:13:fb:6a:ca:
         54:8d:92:5c:cd:c2:65:98:06:9e:ce:48:5b:d4:b5:37:93:46:
         41:7c:07:dd:cf:fa:43:ef:ba:67:61:ff:7d:49:e0:bb:30:7d:
         5c:80:e3:e6:16:39:4b:a7
-----BEGIN CERTIFICATE-----
MIIF4DCCA8igAwIBAgIQLnyHzA6TSlL+lP0ct800rzANBgkqhkiG9w0BAQwFADCB
hTELMAkGA1UEBhMCR0IxGzAZBgNVBAgTEkdyZWF0ZXIgTWFuY2hlc3RlcjEQMA4G
A1UEBxMHU2FsZm9yZDEaMBgGA1UEChMRQ09NT0RPIENBIExpbWl0ZWQxKzApBgNV
BAMTIkNPTU9ETyBSU0EgQ2VydGlmaWNhdGlvbiBBdXRob3JpdHkwHhcNMTMwNTA5
MDAwMDAwWhcNMjgwNTA4MjM1OTU5WjB9MQswCQYDVQQGEwJHQjEbMBkGA1UECBMS
R3JlYXRlciBNYW5jaGVzdGVyMRAwDgYDVQQHEwdTYWxmb3JkMRowGAYDVQQKExFD
T01PRE8gQ0EgTGltaXRlZDEjMCEGA1UEAxMaQ09NT0RPIFJTQSBDb2RlIFNpZ25p
bmcgQ0EwggEiMA0GCSqGSIb3DQEBAQUAA4IBDwAwggEKAoIBAQCmmJBjd5E0f4rR
3elnMRHrzB79MR2zuWJXP5O8W+OfHiQyESdrvFGRp8+eniWzX4GoGA8dHiAwDvth
e4YJs+P9omidHCydv3Lj5HWg5TUjjsmK7hoMZMfYQqF7tVIDSzqwjiNLS2PgIpQ3
e9V5kAoUGFEs5v7BEvAcP2FhCoyi3PbDMKrNKBh1SMF5WgjNu4xVjPfUdpA6M0ZQ
c5hc9IVKaw+A3V7Wvf2pL8Al9fl4141fEMJEVTyQPDFGy3CuB6kK46/BAW+QGiPi
XzjbxghdR7ODQfAuADcUuRKqeZJSzYcPe9hiKaR+ML0btYxytEjy4+gh+V5MYnmL
Agaff9ULAgMBAAGjggFRMIIBTTAfBgNVHSMEGDAWgBS7r34CPfqm8TyEjq3uOJjs
2TIy1DAdBgNVHQ4EFgQUKZFg/4pN+uv5pmq4z/nmS71JzhIwDgYDVR0PAQH/BAQD
AgGGMBIGA1UdEwEB/wQIMAYBAf8CAQAwEwYDVR0lBAwwCgYIKwYBBQUHAwMwEQYD
VR0gBAowCDAGBgRVHSAAMEwGA1UdHwRFMEMwQaA/oD2GO2h0dHA6Ly9jcmwuY29t
b2RvY2EuY29tL0NPTU9ET1JTQUNlcnRpZmljYXRpb25BdXRob3JpdHkuY3JsMHEG
CCsGAQUFBwEBBGUwYzA7BggrBgEFBQcwAoYvaHR0cDovL2NydC5jb21vZG9jYS5j
b20vQ09NT0RPUlNBQWRkVHJ1c3RDQS5jcnQwJAYIKwYBBQUHMAGGGGh0dHA6Ly9v
Y3NwLmNvbW9kb2NhLmNvbTANBgkqhkiG9w0BAQwFAAOCAgEAAj8COcPu+Mo7id4M
bU2x8U6ST6/COCwEzMVjEasJY6+rotcCP8xvGcM91hoIlP8l2KmIpysQGuCbsQci
GlEcOtTh6Qm/5iR0rx57FjFuI+9UUS1SAuJ1CAVM8bdR4VEAxof2bO4QRHZXavHf
WGshqknUfDdOvf+2dVRAGDZXZxHNTwLk/vPa/HUX2+y392UJI0kfQ1eD6n4gd2HI
TfK7ZU2o94VFB696aSdlkClAi997OlE5jKgfcHmtbUIgos8MbAOMTM1zB5TnWo46
BLqioXwfy2M6FafUFRunUkcyqfS/ZEfRqh9TTjIwc8Jvt3iCnVz/RrtrIh2IC/gb
qjSm/Iz13X9ljIwxVzHQNuxHoc/Li6jvHBhYxQZ3ykubUa9MCEp6j+KjUuKOjswm
5LLY5TjCqO3GgZw1a6lYYUoKl7RLQrZVnb6Z53BtWfhtKgx/GWBfDJqIbDCsUgmQ
Fhv/K53b0CDKieoofjKOGd97SDMe12X4rsn4gxSTdn1k0I7OvjV9/3IxTZ+evR5s
L6iPDAZQ+4wns3bJ9ObXwzTijIchhmH+v1V04SF3AwpobLvkyanmz1kl63zsRQ55
ZmjoIs2475iFTZYRPAmK0H+8KCgT+2rKVI2SXM3CZZgGns5IW9S1N5NGQXwH3c/6
Q++6Z2H/fUnguzB9XIDj5hY5S6c=
-----END CERTIFICATE-----

