Certificate:
    Data:
        Version: 3 (0x2)
        Serial Number:
            04:00:00:00:00:01:31:89:c6:37:e8
    Signature Algorithm: sha256WithRSAEncryption
        Issuer: OU=GlobalSign Root CA - R3, O=GlobalSign, CN=GlobalSign
        Validity
            Not Before: Aug  2 10:00:00 2011 GMT
            Not After : Aug  2 10:00:00 2019 GMT
        Subject: C=BE, O=GlobalSign nv-sa, CN=GlobalSign CodeSigning CA - SHA256 - G2
        Subject Public Key Info:
            Public Key Algorithm: rsaEncryption
                Public-Key: (2048 bit)
                Modulus:
                    00:a3:ef:d1:9f:29:e9:d8:d3:82:76:3c:62:a0:d2:
                    49:d6:16:1e:f1:cf:f0:d0:ba:48:43:03:2d:a7:1d:
                    f2:01:34:49:a4:10:e9:62:13:f4:13:f4:16:83:b5:
                    d5:57:42:48:86:2b:95:58:87:ea:28:04:74:cb:72:
                    11:0f:61:26:e1:fa:1c:61:15:c7:28:9b:4d:0b:82:
                    0f:26:2b:90:3a:96:ed:a4:d0:6b:29:9c:f5:61:88:
                    e6:a4:57:6f:ee:f4:70:d0:8d:17:de:e6:66:76:5f:
                    74:1e:5e:0c:53:38:5d:90:f4:df:30:2d:1b:13:d1:
                    79:98:54:1a:4b:38:04:f4:07:c4:23:03:d3:92:cb:
                    f7:80:5d:aa:9c:56:06:44:2d:41:4c:48:b4:2d:ec:
                    35:92:9a:c6:95:d7:f5:ce:90:31:e2:76:b3:61:b8:
                    f1:75:57:42:ac:3b:ce:2b:c8:90:49:e8:b7:26:cf:
                    bb:0c:89:cb:d0:c3:a3:6a:a1:c9:d5:e3:9c:53:2b:
                    57:26:fe:56:9a:76:fd:61:46:a2:60:ec:29:46:47:
                    f2:cd:e0:82:62:c6:04:5a:e7:ed:4e:40:5c:48:06:
                    7d:9d:5f:e7:74:c9:9e:84:65:0d:5b:de:dc:d3:24:
                    1c:b4:14:11:eb:ab:bf:c4:1f:a4:ba:99:d0:17:58:
                    35:cd
                Exponent: 65537 (0x10001)
        X509v3 extensions:
            X509v3 Key Usage: critical
                Certificate Sign, CRL Sign
            X509v3 Basic Constraints: critical
                CA:TRUE, pathlen:0
            X509v3 Subject Key Identifier: 
                19:4A:B8:5A:E4:4D:31:A5:14:E5:5E:EC:2F:A3:1C:FA:80:8C:32:6B
            X509v3 Certificate Policies: 
                Policy: X509v3 Any Policy
                  CPS: https://www.globalsign.com/repository/

            X509v3 CRL Distribution Points: 

                Full Name:
                  URI:http://crl.globalsign.net/root-r3.crl

            X509v3 Extended Key Usage: 
                Code Signing
            X509v3 Authority Key Identifier: 
                keyid:8F:F0:4B:7F:A8:2E:45:24:AE:4D:50:FA:63:9A:8B:DE:E2:DD:1B:BC

    Signature Algorithm: sha256WithRSAEncryption
         79:b0:69:34:e2:05:87:f6:fe:d4:60:2c:2f:86:79:34:03:e0:
         b1:07:93:0c:84:5c:f9:e4:dc:6c:cf:6e:b5:ec:0a:5c:ba:0b:
         d0:68:31:2e:3f:64:bd:0f:82:6b:66:77:81:7f:c6:29:a5:17:
         d8:f0:89:4d:83:24:11:f6:6e:fe:9d:e1:48:0a:28:a0:e2:7b:
         24:80:a4:ec:c2:9a:00:d7:b0:6d:6c:cd:88:d5:15:78:cf:13:
         f9:88:a5:73:4d:c1:36:2b:dc:cb:ce:db:7e:7c:d2:8b:ef:2f:
         bd:b3:4f:4d:3a:ad:bb:62:6e:28:93:c4:0c:cb:d9:e6:ca:e0:
         11:02:94:03:b0:bd:3f:94:28:56:90:1e:53:c2:27:d5:c9:3c:
         cd:1a:63:1e:82:59:15:b6:40:ca:a7:81:aa:c3:55:af:33:d1:
         b5:75:e8:09:ea:47:08:48:22:fb:5d:1b:f3:2c:7a:69:7e:c5:
         d7:5a:5e:56:33:3c:ad:57:e8:93:25:42:c3:d2:5e:71:3b:4a:
         1c:54:ed:a9:55:ac:28:05:c7:c4:6c:5d:dc:3c:93:f6:69:3c:
         82:51:ce:1a:15:3d:5e:01:73:ff:40:a2:ea:b4:ae:d3:8e:fa:
         ee:5d:6c:47:c7:41:f5:d4:56:57:f2:18:37:32:d6:d4:cc:4b:
         f6:71:e0:76
-----BEGIN CERTIFICATE-----
MIIEKTCCAxGgAwIBAgILBAAAAAABMYnGN+gwDQYJKoZIhvcNAQELBQAwTDEgMB4G
A1UECxMXR2xvYmFsU2lnbiBSb290IENBIC0gUjMxEzARBgNVBAoTCkdsb2JhbFNp
Z24xEzARBgNVBAMTCkdsb2JhbFNpZ24wHhcNMTEwODAyMTAwMDAwWhcNMTkwODAy
MTAwMDAwWjBaMQswCQYDVQQGEwJCRTEZMBcGA1UEChMQR2xvYmFsU2lnbiBudi1z
YTEwMC4GA1UEAxMnR2xvYmFsU2lnbiBDb2RlU2lnbmluZyBDQSAtIFNIQTI1NiAt
IEcyMIIBIjANBgkqhkiG9w0BAQEFAAOCAQ8AMIIBCgKCAQEAo+/Rnynp2NOCdjxi
oNJJ1hYe8c/w0LpIQwMtpx3yATRJpBDpYhP0E/QWg7XVV0JIhiuVWIfqKAR0y3IR
D2Em4focYRXHKJtNC4IPJiuQOpbtpNBrKZz1YYjmpFdv7vRw0I0X3uZmdl90Hl4M
UzhdkPTfMC0bE9F5mFQaSzgE9AfEIwPTksv3gF2qnFYGRC1BTEi0Lew1kprGldf1
zpAx4nazYbjxdVdCrDvOK8iQSei3Js+7DInL0MOjaqHJ1eOcUytXJv5Wmnb9YUai
YOwpRkfyzeCCYsYEWuftTkBcSAZ9nV/ndMmehGUNW97c0yQctBQR66u/xB+kupnQ
F1g1zQIDAQABo4H9MIH6MA4GA1UdDwEB/wQEAwIBBjASBgNVHRMBAf8ECDAGAQH/
AgEAMB0GA1UdDgQWBBQZSrha5E0xpRTlXuwvoxz6gIwyazBHBgNVHSAEQDA+MDwG
BFUdIAAwNDAyBggrBgEFBQcCARYmaHR0cHM6Ly93d3cuZ2xvYmFsc2lnbi5jb20v
cmVwb3NpdG9yeS8wNgYDVR0fBC8wLTAroCmgJ4YlaHR0cDovL2NybC5nbG9iYWxz
aWduLm5ldC9yb290LXIzLmNybDATBgNVHSUEDDAKBggrBgEFBQcDAzAfBgNVHSME
GDAWgBSP8Et/qC5FJK5NUPpjmove4t0bvDANBgkqhkiG9w0BAQsFAAOCAQEAebBp
NOIFh/b+1GAsL4Z5NAPgsQeTDIRc+eTcbM9utewKXLoL0GgxLj9kvQ+Ca2Z3gX/G
KaUX2PCJTYMkEfZu/p3hSAoooOJ7JICk7MKaANewbWzNiNUVeM8T+Yilc03BNivc
y87bfnzSi+8vvbNPTTqtu2JuKJPEDMvZ5srgEQKUA7C9P5QoVpAeU8In1ck8zRpj
HoJZFbZAyqeBqsNVrzPRtXXoCepHCEgi+10b8yx6aX7F11peVjM8rVfokyVCw9Je
cTtKHFTtqVWsKAXHxGxd3DyT9mk8glHOGhU9XgFz/0Ci6rSu04767l1sR8dB9dRW
V/IYNzLW1MxL9nHgdg==
-----END CERTIFICATE-----

Certificate:
    Data:
        Version: 3 (0x2)
        Serial Number:
            11:21:25:c5:8a:41:e8:27:f1:3c:76:ad:2a:1d:64:8b:88:08
    Signature Algorithm: sha256WithRSAEncryption
        Issuer: C=BE, O=GlobalSign nv-sa, CN=GlobalSign CodeSigning CA - SHA256 - G2
        Validity
            Not Before: Dec 17 13:11:09 2015 GMT
            Not After : Jun  8 15:06:58 2016 GMT
        Subject: C=IL, L=Tel Aviv, O=MaxSpeedy (Fried Cookie Ltd.), CN=MaxSpeedy (Fried Cookie Ltd.)
        Subject Public Key Info:
            Public Key Algorithm: rsaEncryption
                Public-Key: (2048 bit)
                Modulus:
                    00:ce:93:24:30:dd:d8:5e:61:88:51:6d:ac:0a:39:
                    af:97:ef:ca:0a:84:5e:72:40:67:42:31:46:30:a3:
                    f0:95:89:ce:12:32:0a:4f:38:81:e5:46:db:f2:dc:
                    26:5f:66:92:e2:15:b4:3e:cd:dc:ac:67:0a:95:8c:
                    db:d1:02:60:aa:be:43:13:95:5d:d2:bb:3d:21:dc:
                    7b:ab:72:3d:a2:12:68:b6:9f:32:25:bc:c1:09:86:
                    c4:cd:a6:54:e6:d6:27:56:b3:c6:f2:08:3c:78:5e:
                    2c:90:4b:21:02:a9:c1:f3:27:37:83:e3:82:11:8d:
                    38:59:8c:f3:cc:05:06:dc:1c:04:32:16:e0:90:97:
                    4f:e7:4d:61:01:5f:0e:1b:c7:dc:db:2b:81:56:2f:
                    2b:79:e9:6c:e6:bf:40:43:c0:f0:91:11:32:4f:53:
                    b8:90:ba:7f:0c:5b:07:dd:13:65:97:43:e3:68:2c:
                    a8:45:c0:91:8b:57:d2:f7:c5:a8:43:be:1c:77:36:
                    62:ae:0a:36:3b:75:f1:5f:01:5c:4f:f5:29:28:fd:
                    43:85:74:5a:c1:57:26:9d:22:ca:20:fc:05:8a:46:
                    66:90:5a:a7:f2:11:df:27:cf:f2:27:f4:9e:2d:14:
                    0f:73:96:24:01:25:84:61:d0:95:88:c4:06:41:db:
                    aa:7d
                Exponent: 65537 (0x10001)
        X509v3 extensions:
            X509v3 Key Usage: critical
                Digital Signature
            X509v3 Certificate Policies: 
                Policy: 1.3.6.1.4.1.4146.1.50
                  CPS: https://www.globalsign.com/repository/

            X509v3 Basic Constraints: 
                CA:FALSE
            X509v3 Extended Key Usage: 
                Code Signing
            X509v3 CRL Distribution Points: 

                Full Name:
                  URI:http://crl.globalsign.com/gs/gscodesignsha2g2.crl

            Authority Information Access: 
                CA Issuers - URI:http://secure.globalsign.com/cacert/gscodesignsha2g2.crt
                OCSP - URI:http://ocsp2.globalsign.com/gscodesignsha2g2

            X509v3 Subject Key Identifier: 
                CB:C9:1B:E6:02:3A:BE:D6:C4:F3:D5:0A:CF:9F:CF:3C:83:7B:6C:67
            X509v3 Authority Key Identifier: 
                keyid:19:4A:B8:5A:E4:4D:31:A5:14:E5:5E:EC:2F:A3:1C:FA:80:8C:32:6B

    Signature Algorithm: sha256WithRSAEncryption
         96:89:4f:b8:06:b0:89:ae:87:7b:4d:8a:d0:91:0a:ce:bd:e5:
         7b:14:b2:b3:27:fa:af:3e:1e:d4:b1:be:42:82:14:5b:f4:67:
         72:96:45:9d:67:7f:3e:95:47:e3:a4:bb:54:55:f3:4d:60:0d:
         52:83:2e:50:6c:79:e4:17:39:a3:a8:ae:01:dd:2b:34:34:81:
         19:5a:d2:aa:66:44:3a:7f:37:71:21:29:b4:24:71:31:09:eb:
         ff:0c:92:23:5f:7f:d7:19:86:19:f5:32:f2:6b:31:b4:63:b2:
         9f:5c:54:5f:ec:a7:d1:11:15:da:19:6c:e2:b6:b8:0f:93:75:
         e3:12:15:04:a3:17:ae:17:4e:b6:ce:70:dc:fa:51:ed:cd:97:
         db:b5:46:40:7a:cf:1e:57:bc:7d:19:b1:6f:71:dc:5c:8a:e1:
         de:05:de:a8:6f:2d:56:e9:b1:4b:4c:4a:e7:c7:a1:5c:b4:22:
         52:d9:14:0d:e1:b0:9c:6f:ad:57:e8:8b:1f:d1:95:be:5b:b0:
         d9:43:fd:0c:73:2b:73:2b:62:71:55:31:49:78:63:ba:1d:d7:
         fd:18:86:e6:70:e5:a5:9a:d6:80:44:0c:09:b8:48:d9:3e:21:
         e2:e3:29:f0:5e:53:7f:9e:ca:a8:b4:61:4e:05:65:b4:b3:38:
         36:77:84:03
-----BEGIN CERTIFICATE-----
MIIE8TCCA9mgAwIBAgISESElxYpB6CfxPHatKh1ki4gIMA0GCSqGSIb3DQEBCwUA
MFoxCzAJBgNVBAYTAkJFMRkwFwYDVQQKExBHbG9iYWxTaWduIG52LXNhMTAwLgYD
VQQDEydHbG9iYWxTaWduIENvZGVTaWduaW5nIENBIC0gU0hBMjU2IC0gRzIwHhcN
MTUxMjE3MTMxMTA5WhcNMTYwNjA4MTUwNjU4WjBwMQswCQYDVQQGEwJJTDERMA8G
A1UEBxMIVGVsIEF2aXYxJjAkBgNVBAoTHU1heFNwZWVkeSAoRnJpZWQgQ29va2ll
IEx0ZC4pMSYwJAYDVQQDEx1NYXhTcGVlZHkgKEZyaWVkIENvb2tpZSBMdGQuKTCC
ASIwDQYJKoZIhvcNAQEBBQADggEPADCCAQoCggEBAM6TJDDd2F5hiFFtrAo5r5fv
ygqEXnJAZ0IxRjCj8JWJzhIyCk84geVG2/LcJl9mkuIVtD7N3KxnCpWM29ECYKq+
QxOVXdK7PSHce6tyPaISaLafMiW8wQmGxM2mVObWJ1azxvIIPHheLJBLIQKpwfMn
N4PjghGNOFmM88wFBtwcBDIW4JCXT+dNYQFfDhvH3NsrgVYvK3npbOa/QEPA8JER
Mk9TuJC6fwxbB90TZZdD42gsqEXAkYtX0vfFqEO+HHc2Yq4KNjt18V8BXE/1KSj9
Q4V0WsFXJp0iyiD8BYpGZpBap/IR3yfP8if0ni0UD3OWJAElhGHQlYjEBkHbqn0C
AwEAAaOCAZkwggGVMA4GA1UdDwEB/wQEAwIHgDBMBgNVHSAERTBDMEEGCSsGAQQB
oDIBMjA0MDIGCCsGAQUFBwIBFiZodHRwczovL3d3dy5nbG9iYWxzaWduLmNvbS9y
ZXBvc2l0b3J5LzAJBgNVHRMEAjAAMBMGA1UdJQQMMAoGCCsGAQUFBwMDMEIGA1Ud
HwQ7MDkwN6A1oDOGMWh0dHA6Ly9jcmwuZ2xvYmFsc2lnbi5jb20vZ3MvZ3Njb2Rl
c2lnbnNoYTJnMi5jcmwwgZAGCCsGAQUFBwEBBIGDMIGAMEQGCCsGAQUFBzAChjho
dHRwOi8vc2VjdXJlLmdsb2JhbHNpZ24uY29tL2NhY2VydC9nc2NvZGVzaWduc2hh
MmcyLmNydDA4BggrBgEFBQcwAYYsaHR0cDovL29jc3AyLmdsb2JhbHNpZ24uY29t
L2dzY29kZXNpZ25zaGEyZzIwHQYDVR0OBBYEFMvJG+YCOr7WxPPVCs+fzzyDe2xn
MB8GA1UdIwQYMBaAFBlKuFrkTTGlFOVe7C+jHPqAjDJrMA0GCSqGSIb3DQEBCwUA
A4IBAQCWiU+4BrCJrod7TYrQkQrOveV7FLKzJ/qvPh7Usb5CghRb9GdylkWdZ38+
lUfjpLtUVfNNYA1Sgy5QbHnkFzmjqK4B3Ss0NIEZWtKqZkQ6fzdxISm0JHExCev/
DJIjX3/XGYYZ9TLyazG0Y7KfXFRf7KfRERXaGWzitrgPk3XjEhUEoxeuF062znDc
+lHtzZfbtUZAes8eV7x9GbFvcdxciuHeBd6oby1W6bFLTErnx6FctCJS2RQN4bCc
b61X6Isf0ZW+W7DZQ/0McytzK2JxVTFJeGO6Hdf9GIbmcOWlmtaARAwJuEjZPiHi
4ynwXlN/nsqotGFOBWW0szg2d4QD
-----END CERTIFICATE-----

Certificate:
    Data:
        Version: 3 (0x2)
        Serial Number: 1 (0x1)
    Signature Algorithm: sha1WithRSAEncryption
        Issuer: CN=Unknown issuer
        Validity
            Not Before: Jan  1 10:00:00 2013 GMT
            Not After : Apr  1 10:00:00 2013 GMT
        Subject: CN=Dummy certificate
        Subject Public Key Info:
            Public Key Algorithm: rsaEncryption
                Public-Key: (2048 bit)
                Modulus:
                    00:d5:5b:90:06:66:c7:70:a8:71:8d:18:f9:67:4e:
                    27:54:07:ee:9d:c5:f6:a8:26:4c:bb:ac:61:b3:61:
                    5f:55:4b:6b:16:1b:e9:0e:55:6c:99:93:89:28:f2:
                    3a:67:15:2f:3a:2c:c8:60:78:c4:c7:03:43:91:31:
                    3d:66:c0:04:e2:80:00:52:45:b5:13:7e:d3:01:de:
                    d0:fe:10:a1:f9:a5:32:42:d9:90:48:23:41:4a:86:
                    ec:d8:db:e9:de:36:d6:9d:8b:f5:97:e0:aa:25:da:
                    62:5a:fb:fc:89:a2:9a:8e:2c:34:fa:74:b4:21:19:
                    ae:2d:4b:14:2c:36:6c:1a:06:68:72:f1:65:61:6f:
                    93:c1:3c:99:b9:5a:75:b0:ed:ec:56:52:88:98:c9:
                    de:2f:04:86:8c:fc:2a:4b:ac:84:b2:96:6c:76:14:
                    d7:cc:19:06:36:5f:c7:af:84:f2:a1:60:0a:dc:7c:
                    ee:37:1a:4f:fa:bf:f2:e7:20:54:94:a3:54:e5:0f:
                    a5:3c:97:02:06:9e:76:51:63:40:78:a9:7d:f3:7a:
                    45:40:eb:9d:a9:0e:ae:58:fe:16:95:f2:c5:f4:83:
                    ab:64:5d:31:dc:08:73:b3:85:de:b6:91:63:bc:99:
                    e6:d4:b3:3b:43:ad:b3:bd:62:dc:f1:75:a4:b5:f0:
                    5f:87
                Exponent: 65537 (0x10001)
        X509v3 extensions:
            X509v3 Key Usage: critical
                Certificate Sign
            X509v3 Extended Key Usage: 
                Any Extended Key Usage
            X509v3 Basic Constraints: critical
                CA:FALSE
            1.3.6.1.4.1.11129.2.1.9999: 
                MmA~G=j......@HH.Y.\..s...!6.C.[O.['.......vO4.r..=]S`."...S....."2..s(y\I.}..l...?.0T.^@.......q:y...C....0.H.
j...T".w)L....`|.; .....}.M.P.'.I.&.y.C.G.5.7.${.R..,.j.yR.P.J..
.....n$.8u.I....qm.mp..Oq.6]5 B.D..3?z..^i....."M.......uX.V.............
..F..._'..|f.......=b..<h:.9B.$....$r!..L..V...b}i..C.......h.....L......E}.O.;v]9...d.b...OZ...Z....F..5.C............^.7.r.b.]..I.$..F..2@.w^"......D.....s....8...i!.(..t.j.t.El....JT.]j<..".=.`..R....RF....
.6.kb(<|...,.rZH_.4.{Q;q...\.c.w....:Kv....q..Y+M=w^7.F".e...i:..d..>.W.l..9......O.6.8...m..3.l.4"]?ut...=Q4............w,A.vD..b..W...e..../.A..S.[%o....*.M..d.{....B...@7..
..."......4)83^.....S...d...PO9*.....d...).gG..&...............h8.......S.._.%.Iz..L.....u....../(..Db..,......~...}6.7.`....yM..qB.]..f....7A....5..A...D/.8.<...q........r..0..oi..:.:)#x.@....#M,UU6........817.V.....F..7^.]...(..F.9U.&.......n....T..[1../.E.cT../Zu4.T
|X..v^...Xq..7....5m......;..R..\....rQ...K..H.....Oh.N.{)....0.8...!..B.>..d....(~.G.$.....1...
....b...A...u(.6...p.y.g...O.|3.-.{...(...&..........p.....U.z...<..8
a...g..KN...B..Mv...E..x8O......Px.l.U.O.e.....wZ..*1m....>..R.Jz....._..].4\..}@T...N..c...j.H..8.
y..A.w.,..M.z...........n......"M|!.A....}.....o)E].j[#d..Z...b'.....i.....K....Z..{....YR..z.y.../3..hC-....B1iXP?.@9">.0..;.y.k.Y.v.........x..J.<.........p.q.......?.4i.<ae^.S.....S!..d...H....l..&...L..XB_SH..!..K_...Fp....!...b3#..o0I..rS.p....OB/t_}......5.:...|q....".00..9cpv.OE..A..{E.g\...;].._#.+..KIsMu........^R..)...F)..M.D:.................?u...5.....[...d3...B......C.D...6.ck........_......_aN>...`Z.n.....JM....G@D.rQ.....K........`..?.0.....+.....<
........Y^..O..q.....k.A.].Y...`..&G..`..@.7c..L.z.._f...... ...}P..IB..]...j.
.ZTR.l[o.?..1.....,~H.[k.. ....B.B....w...%...9...5G..!...BDIh$.....D*.Ne.G.....l.%^$r;..o.+...!c
..;..P.:}vG....../..'.....k..../.I....z~.....}.m....7..Um....}.`%.........s$.......m.K...=......4..K%...G..`.c.F..O*.9b.|...e...]...)'.....~..$j..z.d..D m<....1N.&.l..0.>...N{...0......j.%.W..Z.P.Q?....T'...`=....2.......y[.B..#...."@........Uar..p.zJ/g.D..!..!.+..3..Lbl.. Z....td..H....|..R....,......v....U.yp.....]E..r$.G)....+8....M[B..*...A.KE.....E.X.W.~.w.sA...w.....bw.@/'.R..nHE...........R....Q..5......\.9...g.J}..jB.KxX.[..c...Tk...<...n."z._V..4...j.d.."i.4.Z.{:..8...z.&...W<E...f|......$.r......&S..V$*^.Dd.z80.6.7.....K>.1NSH.r.#....PU.r.NK>M%=...4.1....C1l..U6.....kV...c\...%.g.0..6.R.5....^...9,.Gd..O....RC..9..."...m.$.zi.....^...HF..z..i..E......&..C......{I.........z..F...*.?......HX....Z@..?H..}...F...?CJK.{....Lz. ....9.........E*L..a...W.9.....$..g.n....,...!.4.Q.......V.b.~`...;*P.<,~.......r.....H1......Q..E...C-vq..hs:..S'.|"%..x.........O...A4.U.B.|q@M..|1.C.H.v.....nM.'.|..kR>.+\d.a.Q.+......Y...G%..I.w9L.j....V..w......2.C
....`9<+I..>.n.U.Q......=...9P.\.HXKa....k........'H.Y:...qk..P{i`g.\......T5xJ... .`.2..p...?...YhD "p.e......P.~.$...e]..y....lD7..y..^,s....c.Z....f\C`.........5'....=.pEY.._.a...9c.......?-.....l...e}..k...a.5.P4].5..:!.a.%..".`}r..w.7...U1.........9t.....A.-.....Qa.(...%.A....Y....#Wqy.D..ue:;9....K...Z....,.J....mh..@9.K..........].)..1....ms.L^..l:J..3...................h5........5....8?....>.g..
.....%R.Y$....s..9}....!.@. ...M5...G;..
.).2.di.1....aG(x........1I.....].l..m....~...B)..k...p....w.-Y..C....K)4...+....p.......D.7m%W.Zo...w......p.....Y.Y..v.Y..8..5N.@jN.........o.H.&...B>.
&.1s.;H....z..d..<...=.u....Qy....=c=9q.X,.F.}nW.......4.CE._h.V}..V.....P:..z..1..?...bxf.R<.Cr.9.Wv..u<.T.A|..../...y.(z-T...*........,..........'........[u7-C..D~!.MP....I..0._wY....1.......5..cp
^.Z....{z=G.'.o..............t...4...!a......r.Z.o`lj.G...3-6o07.. ...c......!........'.W n"........CN.......I..0.A......Z-:fNT..E..wA0..Qx...n2/...#.{.D.E.Y.d}.6.,W.......<
.._.K6....a..Mh..D7.X..0.*U......]....WY..*_ 2..vu...N.....)7..$.l..8}.(......p..r./.C(5.;...........vO.;....v.....OO..K&..M.C.C.#i..j...fd1.W..k[v....V....M..9........@...%...0...\z.p.......V..1l...%....-U...F%[`........$G...8..,o./..?.....TT.i....*o...U....qG..A....8h_.c..v1y]B....rt@.1...../nt..9.#.p..b.ah.t.k...jbP.a...l..m.6.B5v.u....%.X5.0..PhGKLY....z. s..^......j.....N_U.VQ..jY.....k....P%...?].-!.8..}..|.ty...`U._5q>@...H...x.Xq[F5K1.}.G..HS.Li......E.da......TM.Z....X,.%...K.G"J.r.....RaD>..........M.,z@"..$b.V.CO.mh.%#._....."..h6....*THC_H..`P..J.`J2......N.p....S.R....2..i+..}i....O.9..m..d....S?..-?.z.....4c.N..GC.e.P.c.9..tG.9.b...x......u|...\.M\...h...?v..|.Y0O.J.r.r.v..@.[........X...\[...(...}...c..u....G....H..=......vxxe.....*.N.a.4.....~........Q..c.
2,..E...#=+...e......CN.....MUt....<..`w..N.g...V2[&..4.Q....[..}...i7.s....`....!0}...~xmG..f.........i..e.....2....L.MVK...^..sya.k$...U.G.....Mz..N&]X...4...Y!;.M..Q.....4.L.yQ...~a....A*..s..WmR.+K.3...W....y.`...=...*vW...G....Z...~..==.o.`.U.....^2.YZ..#..}.|.............G.9k.R!.J../9.3(...~..{.Y.q.)...QbM."..`..r......;..X....<Yl..j{.v.Z<. ...\yvO.A..(N...&..a.......>....,'..t.St...k.E;$..!...N...Q.h.........|.,]...8*.D.......$..e........%,... ....i.P.9../.....1/.[[...k.F.R.'...yI........e}... .^. O(..2B..w.C.,H.,S.l_H%..Q.....a.Y....._....C.....E.{F=q.u!.H.............w./g.Wn.....x...u....b..f.I.H;(c...u.....^
......IQ..Y.!..C=...r.......2.....e<.....s?m..vEe...l..._.........N...;...M)AUX../.i>........A$...+@.*...D........G...7....E.Fz3oH.Y~...v......6../.mU.........*].Y..8s..V.f.L.......65c.,...b...H2..,.|...
.\.~.-...B....#..R.._4J76[..^..t.M.........,.f......R(z..e(.2..J......s...._..Wo. 0.9k.9...B........#!t....X%6...3.{.-.0/.q,ou>..8......4.....E~..y1K|...e.....)h5WUV.F^.
.a1M22.....P./,..."..\...Z."...z._+....VK.2.j.....Se...(&.y...*.............tC;..,1.@F......'.E.5?.}.O.*R...=... s...8W..[.SK..5.'.Z4<kU#...?M..... %@.`......9(........{.>.i...>m.y....'$...n..\...F#8y:XF..r.:..<}Dv&+.xa...c..4...5.0....2.;.K....."..E.....s.9.......-.N....E.FO.T...S.....$.9. .-M&cS.......].9t#.....@...R.....JL_dk..........J.2..G{.....(.....qv..y{w..T....I..ZSr:k3.V-.+px..o..1....I..........|........1.j..g.t..9..t..w......!.u..}t.....x..
...C.x..l.......].!+WPK.....%..(0...1...,,..Y.......9>...W...i.>
$...*............C.
~........qd...c._..^....c.4A......FR...@IXlzx>{{naf3[qXk2j
    Signature Algorithm: sha1WithRSAEncryption
         68:fd:a7:9e:42:03:bd:aa:82:6e:5d:96:67:f0:49:00:f5:2e:
         08:56:92:38:3c:cf:a9:e3:37:0d:50:55:d7:8c:3b:55:31:8f:
         8d:a4:d4:b3:46:db:a4:18:91:a1:49:82:cc:60:67:1f:9e:12:
         bd:25:75:0a:42:49:f6:1e:e7:2f:e2:9f:72:0c:0f:aa:47:3b:
         e9:3b:51:b2:7d:76:53:57:c7:68:3c:08:2f:1e:01:e8:0d:c9:
         a1:9a:6c:e7:1b:4d:ae:1b:4a:d5:8f:2e:30:2e:da:3b:f3:ed:
         73:1a:f7:5c:97:f9:f6:30:f3:e5:41:45:77:2c:67:7a:50:aa:
         90:5c:53:a0:ce:3f:fb:22:41:1e:43:6c:cb:9e:2e:12:3e:b1:
         db:d6:30:53:de:2e:ee:5f:70:b3:eb:3c:f4:e9:52:ba:03:0a:
         e9:20:1c:2b:5f:45:bc:d9:85:2c:34:8d:6b:f6:98:3c:24:eb:
         b5:b1:87:ce:50:77:a4:a0:ce:51:03:55:ff:0e:d7:68:a6:17:
         55:6e:29:c4:b4:ce:ea:a1:76:a9:4f:00:1d:13:32:7f:ef:f9:
         8e:ae:8c:39:bf:2b:ef:69:59:59:1b:11:13:9e:23:c6:9b:c7:
         19:21:bc:22:e8:0c:df:72:f1:4b:99:73:e4:d5:47:97:83:55:
         83:5f:9a:29
-----BEGIN CERTIFICATE-----
MIIbDTCCGfegAwIBAgIBATALBgkqhkiG9w0BAQUwGTEXMBUGA1UEAxMOVW5rbm93
biBpc3N1ZXIwHhcNMTMwMTAxMTAwMDAwWhcNMTMwNDAxMTAwMDAwWjAcMRowGAYD
VQQDExFEdW1teSBjZXJ0aWZpY2F0ZTCCASIwDQYJKoZIhvcNAQEBBQADggEPADCC
AQoCggEBANVbkAZmx3CocY0Y+WdOJ1QH7p3F9qgmTLusYbNhX1VLaxYb6Q5VbJmT
iSjyOmcVLzosyGB4xMcDQ5ExPWbABOKAAFJFtRN+0wHe0P4QofmlMkLZkEgjQUqG
7Njb6d421p2L9ZfgqiXaYlr7/Imimo4sNPp0tCEZri1LFCw2bBoGaHLxZWFvk8E8
mbladbDt7FZSiJjJ3i8Ehoz8KkushLKWbHYU18wZBjZfx6+E8qFgCtx87jcaT/q/
8ucgVJSjVOUPpTyXAgaedlFjQHipffN6RUDrnakOrlj+FpXyxfSDq2RdMdwIc7OF
3raRY7yZ5tSzO0Ots71i3PF1pLXwX4cCAwEAAaOCGF8wghhbMA4GA1UdDwEB/wQE
AwIABDAPBgNVHSUECDAGBgRVHSUAMAwGA1UdEwEB/wQCMAAwghgoBgsrBgEEAdZ5
AgHODwSCGBdNbUF+Rz1qfwAAAAAuQEhIBlnjXLnLc+gTASE2n0PKW0+JWyf7wrv3
fwYcdk80tXK9AT1dU2CfIvDUy1OXGp7iFiIy9fRzKHlcSbN90Qlslwz7P7wwVAZe
QOCJtI4WBoFxOnm8ndBD7s+u5zC9SAQKahOvtVQi8XcpTAIR5oVgfJY7IIcU1+Dk
fcJN0lCCJ39J0SalecpDLkeDNb03tiR7r1LphiwLast5UstQ+EqUEwqGEREO0W4k
rDh1tkkB2IvXcW0PbXDf+U9xnzZdNSBCBkSxnTM/euDaXmmdHrwcGyJNGJkUkdGo
/HVYtVbfr++H4x0Vvp8D0MsuCrPlRp4AkV8nww98ZvTz99uk7ug9YswBPGg6AzlC
6iSl4Qj+JHIh5a5MAsNW3xvZYn1p8tlDCfjNqeL732gYAuC0H0yHDrzhlhpFffBP
yzt2XTmkpqBk8WIOqqNPWqfJr1r5lbPRRhmYNeJDGAvUhPkGB6na7fjRXvA3lnIT
YsVdpppJqiSRFEbInDJAwXdeItywsMEA1UT80uHyynOCgYcTONiBzGkhASjj7HQE
arh07EVsuhEAuEpUuF1qPLrOIrk9t2D2ilIBxeGZUkbWxM/hCpQ2wGtiKDx8/vkX
LMByWkhfgzSke1E7ceIL4lz5Yw93470PBjpLdqOCtY1xrxJZK009d1430UYi9GUX
DROzaToZ6mSs+T4RVxlsD5U58L3tAvAZT+I2xTiDugRtDZmLM/VsijQiXT91dIPv
GT1RNMoDGdUGnwS/qsP3rXcsQbF2RAWuYvTZV47O8WXu38cLL9dBzQNTmFslb6H+
m/Uqvk3MjGTye7nT6eNCjICKQDe+DwqFu6ci5wfEysO5NCk4M17sn5WA1FN/8pZk
qej3UE85KuSYCaPTZIUerSn1Z0fZzSa97JLamf2/oc6564KR7OpoOPap9bUE99pT
s45fuiXvSXqOB0yLxpKrlHXHxdrUvaIvKH/CRGLm0CyWk+MDLqF++AjzfTbuN49g
FfT7r3lNyN5xQopdr55mlYXfFzdBwAC/1jWYxkH9vcBEL7I4gjzgvgtxoAHN8ZbR
pZFyEN4wHbdvaZqPOro6KSN4zUDJLgSrI00sVVU27QWQC8Hqu9c4MTf1VgkLxZ3w
RhSCN17MXeXZ2yihkUaPOVXyJsrAocjciQFuy5r6ElS0i1sxg8UvEEXlY1SCgC9a
dTQUVAp8WNC2dl6YgblYceupN+StyM01bfmC+9vEGTvm/FLQ51yHiAIFclEO5sRL
2oBIroiLob5PaPxOBHspkBS+/jDfOAjgoCHM+0LoPsnlZBSP88Uoft1HHCQYjNLz
2zGIAqoKoB2+AWLD0a1BuOXsdSgANvGo+3ACeeVnG+COT7V8M9At4nuh+/coo9zF
Jvaaw/WcpNSDgJ9w8v2buvNVnHqbkJs86cE4CmG+tYRnogdLTr73/kLYvU12xYLE
RceqeDhP7pcR5IaSUHgDbNxVj0+4ZbiI+KD2d1q3kSoxbaCYkRg+x+tSLkp6y5HZ
LrZfBRddyDRcvrt9QFQf9thOkaBj+rMCahZIEhk4vwp5s/NBgXccLBbiTQ56mhQc
0rrm+J8Jj+Fu/sDqGcKDIk18IYJBiLv6wn3EABIT7m8pRV2xalsjZM+gWvod8mIn
roUM5tRpxJDyxA5LwMXBqlrDBHscC9XqWVKpj3rUeQYUhy8z7vdoQy2w5Qz2QjFp
WFA/q0A5Ij7JMBgVO/d5jmt/Wc12FerI6ADhgtiYeC6JSsg8mQaYhtQZ4x8ccKNx
FKysw4akpD+VNGkVPGFlXsZTqsocmtlTIbEdZI7W0Ujhk57DbJADJpGRtUyvtFhC
X1NImO4hnZVLX6m/uEZwjB39+iGsxYdiMyPY028wSQcVclOMcMiuo99PQi90X32e
gvbf1fs1xTrDtLN8cfa/vx0i1TAwxOw5Y3B21U9FjcFBz757RdJnXIDZADtdrtpf
IxIrsPJLSXNNdaT6iaDIHf0dXlKnmCnWmeVGKYyBTb9EOgTfsZfM0wfXBAkanem6
z7bZP3WD2x818+iCERxbnhPTZDOZ6I9C8dCdjqrrQ4pEuJ3HNpRjDWvfGaitst6c
lF+lwwmCwghfYU4+mL+1YFqFbhmiz7rdSk3eH9j4R0BEnXJRlqqo0pdLx+30z7ry
h75gA6o/7DDSnxWPvyuU8BCVzDwKrJe11BiPmoVZXt2xT9/3ce4bCfgBa8ZBBV38
WZEIimDW+iZHEv1gxB1AnzdjqRFM8HrPpl9mtPDJy5X1IMzlyX1Q/hBJQoTeXZOb
5mrQCsVaVFK5bFtvFj+dzzEVGJur9ix+SJBba7bhIBoFGbtCnEIEvwKcdy6sriWj
x4Q5nZ2dNUf5gCGg4PdCREloJLzEx/usRCq4TmXnR/DtydSCbNAlXiRyO9Onb+kr
4JMZIWMKvxE7EfJQoTp9dkeE44IZ88svuogn1gibm8FrHfu80y/pSZIVzdl6ftba
7pWxfdhtDIajozegtFVt3vvHhH2jYCUV7LrDsrsM9KZzJN7xEqnbl7ttj0sS9gw9
HJ28+JbJNJjdSyXH48INR9WaYAljFUb4z08qFjlit3zG6AJlopzpXe7TFCknA+gO
jad+iZ0kaqOketRk+flEIG08B57xDjFOnSaJDWyz5zCDPtTjw0579vDhMLvTphmO
8mrSJeRXBrxa11DKUT/5xxeSVCcPDb+0YD2wxv3TMhWvjb4bDLR5W4pCB98jk6XP
GCJAC+vgkgOQB6FVYXIf33AAekovZ69Eh4Mh7OUhBSvPqTPo+kxibBV/IFqa9QQF
dGQHHki04fGefOa1Ut7FnvUsF7wS1bLedqkc6vtVmXlwnrukhuRdRRDRciTSRynT
uO4uKzgIGawuTVtCjA4qGovVQZJLRYGCEe6zRYhYB1e7fgx3qnNBi6v1d78DH5Wk
YneYQC8nxVLLAG5IRZLGmhOnmIzZqeqWUvPd5c8NUb0GNRKo+t+wv1z1OYOR/Wfy
Sn0Q92pC5kt4WNBbE95j6/gBVGuuxt8804eAbqgieplfVgTqNNcdjGr8ZOqhImma
NBVay3s6BJs4LoKleg8mq8PMVzxFCYigZnyBgwfkkRgk7XKzyJvhFoEmU+qpViQq
Xr5EZN16ODCgNuY3f7ygmadLPqwxTlNInHLYI48NwvqIUFWBctBOSz5NJT38we40
FDGz5oO7QzFs1tBVNs3i5hHla1aquAFjXKmh7yWOZ+Qw6R82wVK0NcPdyK9etvqb
OSy6R2TgnU8I9pXNUkOJiTkAHRMigbsebdQkgnppFam3D8tervuASEakD3qQhGnl
30WglxC9gBcmzRtDswzNhbXCe0nPwR7sDuTtu6F6r6BGzO+FKoE/r56cuIjjSFiK
0r34WkDr+z9Isel9/NCYRgbwpT9DSkvde9vbEZtMevMgucmFqjm2pdbDic3Jt/FF
Kkyvy2GWCPdX6Tm8HsmM5CS0xWfxbvrqipws3ubhIe80wFHYvuzsu73mVpFi9n5g
2PIaOypQjTwsfgMH5ogefxdyH7TK1olIMbeOtRaO0FGr+UXjmqxDLXZxEsINaHMN
OsgFUyfffCIlBxN4ls2ZhH+THObATwmyF0E0r1W/Qpl8cUBNq5l8MQRD5Uj3doOq
qc7Ibk0N3CezfBaQa1I+BytcZNxhmVHCK5veuwPNyln1/sVHJbzQSeB3OUyxaq0d
C75W4oh31obpBqiKMp9DCqC44+JgOQ08K0nx7T7RbodVEFHiktEAkIY9w5G1OVAa
XNhIWEthy4MRzGuj2Njv1LQN4wQnSM9ZOr2C0nFr7clQe2lgZxhcDAaiob8CVDV4
SrXvEyCBYLwyyQxw+o6oPxQEFlloRCAicC5lueib1smpUKx+iyTe+Y5lXbWgeaOD
uBlsRDfQj3mslV4sc4sABNpjolqs3oq3ZlxDDWCMk4K9peHH8K01JwjFBNU9gnBF
WbyxX/phuPu/OWMJ7anCEBvXPy3lzK6lx2yjmZBlfZIXawznH2HSNZpQNF2wNQ/e
OiGfYZklsNMi/mB9cpwN0XfEN/T4mFUx5bQB48Qa6Yn4OXT2xbEB8kG0LayVFJzO
UWEOKJvC0SWIQeiX+cZZjKkagCNXcXmpRIfUdWU6OznxHr7LS6HrqVqT35rTLPdK
EgLewG1oCwNAOfRL/gWMohkay8qF+V26KQysMYnB8QZtc/hMXpu3bDpK/cQz6siE
+rsMs/aU8bi10OrDB38L6mg1keexGJW3LgU1nInnuzg/qKi6gz6MZ7XKCt/q5JcG
JVK6WSTr0BsLc7SwOX3E/QPQIbhAxyDu0KhNNYrygkc7GN4KpimnMrRkaQQxrtj3
1WFHKHgHtdul2suY6zFJhLIZuAhd6Gz5AW0UvhMDfi660EIpq9RrHsOXcATLp/x3
DC1ZBaBDhdS640spNIfSjCvWin+LDXALsdf7kpjkRLs3bSVX/VpviKLkd7SeyoTg
E3Dvk/2RC1nnWQGFdvtZ1Js41PY1TrhAak7W8Q/h19/R3ZRvH0iSJtOc5kI+gQom
EjFzgztIA4q6xXqX9mSkHzyj7cQ9GHXx1efoUXmPtvnpPWM9OXEGWCyvRoJ9blca
morH5NnuNJ9DRRZfaMRWfeSIVguK+YwAUDr1rnqf7jGnnT/Jq71ieGaBUjz+Q3LB
OYBXdsAVdTyoVBVBfB3+p5Qvxw6eeakoei1U3OSwKrqQ18Crn/ezLK2wBX/EjLCi
BtEn8dAbx7+xn6hbdTctQwmFRH4h301QyMb71EkcvzATX3dZk6CMsjHwrPLAg8IY
NcLkY3AKXo9a0gTOs3t6PUf0J8pvCdzYEv6WBInIw9oaD/t07boUNLXT9yFh3MWd
pPD4ch1asW9gbGoVR72fEDMtNm8wN7LsII2LomP5Ggmd+QMhjJ4YFh+cBs0nmlcg
biKStf3MkMrWh0NOfw6BGxr1rknf4DDRQbkY+gcef1otOmZOVMcZRQcMd0Ew2Z1R
eBS7A24yLwmwsSONe4pE7kUCWeBkfck21SxXv6KgoRCGwzwKwKhfiUs2f5rLpWHy
Ak1ovJFEN9pYueIwtypVn4i4lr6XXRuD4bxXWfK4Kl8gMuPSdnUH1ppO7x0GwhQp
N+uEJORs1Io4fasooZKDEtILcLjdcvMvnEMoNdU7zry/mRXgzvYRlwl2T4Y7hefL
v3YFqMiczU9PuQhLJuUITb9DqUOvI2kGAWrnGdZmZDEBV+6Aa1t2BJuT4Vaom9iz
Taz4ORcYiJbA3PKqQI+bzSXSzsAwGeSAXHrZcMG37Kjv3Q5WxgMxbNwZvyX338MM
LVWYkbFGJVtg1urYixuCzKMkR9O2FjgS4Cxvmy+3pT+Qi5S5wFRUjWna4PDSKm+j
2A9Viw+FhXFH5ftBz/6fmjhoX6lju6Z2MXldQhvKG5NydED+MYoW24HdL250HaI5
giPpcND1YtZhaNZ0mGuA58lqYlCtYfoF9WyooW0DNhhCNXbFdYLh1pgllVg1+TDQ
qlBoR0tMWQb8rtt6vSBzF7xenwPz5JUAau62347rTl9VxFZRBo9qWeOHEL4cawj8
q59QJR6i/T9dxy0h9TiRjX2sgnwLdHnh6ptgVfVfNXE+QMjO/kiz5+14u1hxW0Y1
SzGVfb1H5+FIU7xMafnRAxbKnkXRZGGwioz94rpUTRVavI+rtFgsASXd6NNLu0ci
Sg25cgeJxLOWUmFEPqgZ0LwCwgO5/sxNnSx6QCKrkyRiGlbiQ0+ybWjdJSMfX7Lv
8/TUIsySaDbC890LKlRIQ19IBMlgUBDBSgdgSjIFtNz5zb9OHnCukJqtU9FSwoya
sDKo+2kr2PZ9afunAahP5zkI0m0X+GSTHpfrUz+JGC0/tXrzn4IbtjRjtE7I3kdD
k2WvDVCRY9o5s5F0R70532L1CM94/vkPlRkddXy/8wdc6U1cmaOYaM7F/T92+dN8
6VkwT5pKrHK7cph2wOZALlve9S70mwSfsljA341cW64YiijZ5BN9t7cbY9Huda2Y
zc9H+5nqukiuuT2m/obZCKF2eHhlDcsYioCHKhQNTgdhjDTe8AXkj375qgnxnu79
sVH72GPuCjIs2OhF89fKIz0rA5mZZcAF1O4Vn0NOyurlkeNNVXS/CIgZPA0CgGB3
9gNOjWeHnp1WMlsmgcM0C1HwtcvoW4YAff4Lkmk323ObsATDYOvir5shMH3vsIR+
eG1H6/1mDuPeCLAHBrCkaasWZea/GQf5Mt0cq4dMqU1WS8ftqV4a4nN5YcBrJK+R
G1ULR/KVlpqbTXrY804mXVgPtLI0DX+P9VkhO91NiQZR193YnPA0F0wYeVGS9g5+
YYTkvhtBKt0Wc8gVV21SxytLHTOTu5RXrK0dhXkHDWDHuH89Ds0ZKnZXBhKFR763
+J5akeOIfqYbPT0Lb8RgmVUAAfvxil4yr1laFsgjFp99BnzTyfLQtue+g5ru+dmh
R+45a95SIRdKjxsvOcwzKPH7vH65l3ubWehxECn03tdRYk2iIgOdYMbVcomelIbi
AjuquFgWhMumPFlsAYdqe5d2tVo8gSD3mMxceXZPFUHNxChOghUDJv32YdQOBwmy
tY4+8OGyDiwn1qp08lN0m+jca61FOyTngSGHkZtO3Ia4UQdo+oLbrssbAxb5fNIs
XQ3+7OM4KrdEgpgPqrqc4ySohWWk3xaV1oXeHSUs7ROkIMHB1LppnFCqOd/sL5Gc
7MOAMS+9W1uLxYprwEYbUrAn5InCeUkEoujgtcoQmGV9FBW7IBNe3iBPKAjPMkLS
5HfuQ4ssSLwsU9psX0gl17NRs5Qu2uRhv1mtHwfa3V8aqLuRQ5D1+tLDRf57Rj1x
4XUh8kgUy4qK3uL8z7H+pZqWd70vZ/hXbtYVjaH7eJLNvnWvjMAAYpOgZhZJqkg7
KGOmssl1CM7N7hFeCt0HgLGvHElR6YVZ4CGpAEM98pT2ch4AwoTwwa8y09ig56hl
PA/W3x+Zcz9tqPB2RWXKEK1sCNr7X5XxyojNigOWtU6O5rg7sd3yTSlBVViGoy/p
aT7jGYzZ6IrIn0Ekh+wWK0CGKsP5ykQb9rvFp/b6E0e6F4M3vcb0FkXpRnozb0jS
WX7ohx12uqeuqgOKNvP+L6RtDVUQANWF0ZzIhcMqXfxZpwQ4c/y6VhpmokyamhCL
n/f6NjVjvSzyr4dip6j8SDIb4CyIfMLr9woMXC5+8y2XsxtCE8/vwiPiFVIC/l80
Sjc2Wx4XXpP8dH9NrrTvxezgkYXFLMVmzrbYuKvCUih6nxJlKPUy2s9KDNSM09vu
cwXRrplfrJVXbxAgMAw5axI50ovPQvOzC/GYze73IyF056kSFFglNhEYxzPNewkt
0TAvsnEsb3U+l904rcHEvKqVNKfpCMOPRX7kxHkxS3zx8C5lneWD2OspaDVXVVYG
Rl7lCgZhMU0yMh7H2dMdUBovLNAZpiL9ilyaDC5a/iLq14R6hl8rgQeK/lZLjTKA
auHZxtyoU2WHp6koJvt5HrLaKtu+/YKe6p/mq9wMz8t0Qzu9FCwx9UBGnhjp6hfn
J4FFtjU/Gn30TwgqUoDO0T3QqM0gc+n5CDhXjdZbu1NLLpg1pCfsWjQ8a1Ujop0Y
P03NtpbFwSAlQIRg/gXdGJCEOSj7vQjVp8nr1XurPglpv6zYPm0PedTmq4onJIrQ
326SA1wSivJGIzh5OlhG8B5ymToVujx9RHYmK8h4YfuVFmPdHTSpG/c11DDy6+AB
MvM7hEv+yAWX/iKFE0WV/YLtvXPJOa8amrEYDu0tyU7vF44GRZJGT+VUn/7lU+4e
6KgHJB859yD9DS1NJmNT0hbw46+bzl3+OQ10I9fuyoaCQPnzEVLzweiBFEpMX2Rr
1dzgFxsVxxmRhUqfMuYYR3vwpYrGpSj2FA2fhMFxdtjWeXt3w8VUCOHbnUnxkFpT
cjprM5hWLRwrcHihoG+WwTGpAqzLSeWaEfTAFcnCqYF84QPdF4+x8NAxGGqytGes
dJIUOZkLdAL5d9keHtmxjSHvdR0FfXSZmZjOy3geHwqhn6ZDy3gJ1WzP36MJtbIX
Xa8hK1dQS54PtL/VJQ6GKDB/AZMxBsMQLCyhCFm6f6Cgs7jhOT4e7K1X4r2gafs+
CiS/mM8q1g7tgcDQjtCBkM7OQ8EKfurT5RQD24WccWSLw9Nj31+Jkl6FsarfY7M0
QRoa9BcAAEZS2N8CQElYbHp4Pnt7bmFmM1txWGsyajALBgkqhkiG9w0BAQUDggEB
AGj9p55CA72qgm5dlmfwSQD1LghWkjg8z6njNw1QVdeMO1Uxj42k1LNG26QYkaFJ
gsxgZx+eEr0ldQpCSfYe5y/in3IMD6pHO+k7UbJ9dlNXx2g8CC8eAegNyaGabOcb
Ta4bStWPLjAu2jvz7XMa91yX+fYw8+VBRXcsZ3pQqpBcU6DOP/siQR5DbMueLhI+
sdvWMFPeLu5fcLPrPPTpUroDCukgHCtfRbzZhSw0jWv2mDwk67Wxh85Qd6SgzlED
Vf8O12imF1VuKcS0zuqhdqlPAB0TMn/v+Y6ujDm/K+9pWVkbEROeI8abxxkhvCLo
DN9y8UuZc+TVR5eDVYNfmik=
-----END CERTIFICATE-----

