Certificate:
    Data:
        Version: 3 (0x2)
        Serial Number:
            05:e5:f8:48:e1:f0:aa:7d:fc:f1:f6:08:77:14:29:be
    Signature Algorithm: sha256WithRSAEncryption
        Issuer: C=GB, ST=Greater Manchester, L=Salford, O=COMODO CA Limited, CN=COMODO RSA Code Signing CA
        Validity
            Not Before: Mar 23 00:00:00 2018 GMT
            Not After : Dec  4 23:59:59 2018 GMT
        Subject: C=UA/postalCode=61045, ST=Kharkivskaya, L=Kharkiv/street=Bud. 18-A Vul. Otakara Yarosha, O=OOO. Sportkort, CN=OOO. Sportkort
        Subject Public Key Info:
            Public Key Algorithm: rsaEncryption
                Public-Key: (2048 bit)
                Modulus:
                    00:be:87:a5:02:66:26:31:ce:cc:51:f7:80:ed:d0:
                    56:3c:6f:1a:dd:2f:5c:81:1c:88:c3:91:8b:13:28:
                    e5:42:58:f6:d8:2d:11:24:99:68:62:fa:05:b5:7e:
                    e4:a5:02:94:60:5c:7c:1e:64:99:47:e9:4b:78:9c:
                    db:09:c3:bd:30:fb:0a:bf:be:e1:84:59:8f:43:f6:
                    da:79:9d:fe:a9:4f:ec:76:a3:59:a0:9f:9b:81:e8:
                    b3:c1:7d:d0:9f:1c:83:80:ac:9e:da:5a:f2:95:6e:
                    4d:68:57:b2:df:6a:71:92:41:f8:f6:cd:5f:42:7b:
                    30:65:7b:1f:f6:f0:12:a1:64:c2:58:37:b9:11:51:
                    27:fe:57:4a:b8:88:4e:9b:b4:04:da:c1:c3:a6:b2:
                    42:e0:90:7d:f1:0e:e5:23:d9:fe:6f:cf:a3:0b:55:
                    7d:2e:8e:a0:49:f6:1b:8c:db:3d:75:79:ba:62:7f:
                    2e:23:00:bf:b7:87:2c:d9:10:bd:05:93:34:b5:3a:
                    9d:d5:b9:b8:0d:62:9a:db:bc:cb:b6:ba:e1:c3:d4:
                    fa:6a:b5:0e:d6:54:d0:4f:a0:ad:ed:2a:a1:8b:79:
                    54:8b:2c:19:b7:d5:6a:8e:e9:0a:8c:5e:6c:a1:37:
                    96:76:8a:06:71:34:65:45:a2:0b:09:4c:6e:73:72:
                    29:d7
                Exponent: 65537 (0x10001)
        X509v3 extensions:
            X509v3 Authority Key Identifier: 
                keyid:29:91:60:FF:8A:4D:FA:EB:F9:A6:6A:B8:CF:F9:E6:4B:BD:49:CE:12

            X509v3 Subject Key Identifier: 
                4A:C8:F8:44:96:49:79:4D:B9:9B:8D:0F:F3:5A:F8:39:D3:23:65:72
            X509v3 Key Usage: critical
                Digital Signature
            X509v3 Basic Constraints: critical
                CA:FALSE
            X509v3 Extended Key Usage: 
                Code Signing
            Netscape Cert Type: 
                Object Signing
            X509v3 Certificate Policies: 
                Policy: 1.3.6.1.4.1.6449.1.2.1.3.2
                  CPS: https://secure.comodo.net/CPS

            X509v3 CRL Distribution Points: 

                Full Name:
                  URI:http://crl.comodoca.com/COMODORSACodeSigningCA.crl

            Authority Information Access: 
                CA Issuers - URI:http://crt.comodoca.com/COMODORSACodeSigningCA.crt
                OCSP - URI:http://ocsp.comodoca.com

    Signature Algorithm: sha256WithRSAEncryption
         07:a0:74:c7:05:c3:c3:06:0e:45:81:6e:33:09:53:d3:e5:31:
         29:a4:d7:53:af:07:15:17:7c:b4:8d:08:00:66:ed:c7:dd:66:
         63:7c:b5:0c:50:95:7e:9e:fb:30:d0:b3:cb:c1:36:4e:6f:54:
         8f:36:9d:79:0a:e9:37:1a:08:9a:ea:61:79:a9:7e:75:b1:e7:
         f6:ed:42:2a:6f:2e:52:35:53:56:7f:c0:db:42:44:18:cd:54:
         2f:fe:b4:74:6f:5f:2b:cf:f5:49:fe:42:9b:d6:a4:76:75:96:
         af:eb:10:8d:bc:4e:54:12:ae:55:4f:a4:d6:c1:6f:a1:91:de:
         53:ac:4a:72:09:01:3d:f5:2b:8a:b0:9d:06:c7:0a:35:19:c0:
         0d:46:b6:9a:dd:f2:24:0e:70:4a:87:f0:3c:b5:8e:ff:93:80:
         6e:b0:9c:90:06:0d:45:80:ec:4b:05:d6:13:23:84:e3:8d:76:
         30:39:1d:50:44:40:6d:33:ab:f4:b7:ad:52:0b:53:53:b4:51:
         a1:07:71:2b:07:70:89:f6:d8:13:2e:32:60:1c:91:3e:01:7e:
         f0:22:ac:24:83:c8:d6:4d:f0:71:6f:f8:34:f2:25:ff:a9:c4:
         7d:38:81:24:11:ad:0b:f0:de:ff:83:57:3b:ad:e1:8e:d6:c0:
         60:71:29:45
-----BEGIN CERTIFICATE-----
MIIFODCCBCCgAwIBAgIQBeX4SOHwqn388fYIdxQpvjANBgkqhkiG9w0BAQsFADB9
MQswCQYDVQQGEwJHQjEbMBkGA1UECBMSR3JlYXRlciBNYW5jaGVzdGVyMRAwDgYD
VQQHEwdTYWxmb3JkMRowGAYDVQQKExFDT01PRE8gQ0EgTGltaXRlZDEjMCEGA1UE
AxMaQ09NT0RPIFJTQSBDb2RlIFNpZ25pbmcgQ0EwHhcNMTgwMzIzMDAwMDAwWhcN
MTgxMjA0MjM1OTU5WjCBoTELMAkGA1UEBhMCVUExDjAMBgNVBBEMBTYxMDQ1MRUw
EwYDVQQIDAxLaGFya2l2c2theWExEDAOBgNVBAcMB0toYXJraXYxJzAlBgNVBAkM
HkJ1ZC4gMTgtQSBWdWwuIE90YWthcmEgWWFyb3NoYTEXMBUGA1UECgwOT09PLiBT
cG9ydGtvcnQxFzAVBgNVBAMMDk9PTy4gU3BvcnRrb3J0MIIBIjANBgkqhkiG9w0B
AQEFAAOCAQ8AMIIBCgKCAQEAvoelAmYmMc7MUfeA7dBWPG8a3S9cgRyIw5GLEyjl
Qlj22C0RJJloYvoFtX7kpQKUYFx8HmSZR+lLeJzbCcO9MPsKv77hhFmPQ/baeZ3+
qU/sdqNZoJ+bgeizwX3QnxyDgKye2lrylW5NaFey32pxkkH49s1fQnswZXsf9vAS
oWTCWDe5EVEn/ldKuIhOm7QE2sHDprJC4JB98Q7lI9n+b8+jC1V9Lo6gSfYbjNs9
dXm6Yn8uIwC/t4cs2RC9BZM0tTqd1bm4DWKa27zLtrrhw9T6arUO1lTQT6Ct7Sqh
i3lUiywZt9VqjukKjF5soTeWdooGcTRlRaILCUxuc3Ip1wIDAQABo4IBjTCCAYkw
HwYDVR0jBBgwFoAUKZFg/4pN+uv5pmq4z/nmS71JzhIwHQYDVR0OBBYEFErI+ESW
SXlNuZuND/Na+DnTI2VyMA4GA1UdDwEB/wQEAwIHgDAMBgNVHRMBAf8EAjAAMBMG
A1UdJQQMMAoGCCsGAQUFBwMDMBEGCWCGSAGG+EIBAQQEAwIEEDBGBgNVHSAEPzA9
MDsGDCsGAQQBsjEBAgEDAjArMCkGCCsGAQUFBwIBFh1odHRwczovL3NlY3VyZS5j
b21vZG8ubmV0L0NQUzBDBgNVHR8EPDA6MDigNqA0hjJodHRwOi8vY3JsLmNvbW9k
b2NhLmNvbS9DT01PRE9SU0FDb2RlU2lnbmluZ0NBLmNybDB0BggrBgEFBQcBAQRo
MGYwPgYIKwYBBQUHMAKGMmh0dHA6Ly9jcnQuY29tb2RvY2EuY29tL0NPTU9ET1JT
QUNvZGVTaWduaW5nQ0EuY3J0MCQGCCsGAQUFBzABhhhodHRwOi8vb2NzcC5jb21v
ZG9jYS5jb20wDQYJKoZIhvcNAQELBQADggEBAAegdMcFw8MGDkWBbjMJU9PlMSmk
11OvBxUXfLSNCABm7cfdZmN8tQxQlX6e+zDQs8vBNk5vVI82nXkK6TcaCJrqYXmp
fnWx5/btQipvLlI1U1Z/wNtCRBjNVC/+tHRvXyvP9Un+QpvWpHZ1lq/rEI28TlQS
rlVPpNbBb6GR3lOsSnIJAT31K4qwnQbHCjUZwA1Gtprd8iQOcEqH8Dy1jv+TgG6w
nJAGDUWA7EsF1hMjhOONdjA5HVBEQG0zq/S3rVILU1O0UaEHcSsHcIn22BMuMmAc
kT4BfvAirCSDyNZN8HFv+DTyJf+pxH04gSQRrQvw3v+DVzut4Y7WwGBxKUU=
-----END CERTIFICATE-----

Certificate:
    Data:
        Version: 3 (0x2)
        Serial Number:
            2e:7c:87:cc:0e:93:4a:52:fe:94:fd:1c:b7:cd:34:af
    Signature Algorithm: sha384WithRSAEncryption
        Issuer: C=GB, ST=Greater Manchester, L=Salford, O=COMODO CA Limited, CN=COMODO RSA Certification Authority
        Validity
            Not Before: May  9 00:00:00 2013 GMT
            Not After : May  8 23:59:59 2028 GMT
        Subject: C=GB, ST=Greater Manchester, L=Salford, O=COMODO CA Limited, CN=COMODO RSA Code Signing CA
        Subject Public Key Info:
            Public Key Algorithm: rsaEncryption
                Public-Key: (2048 bit)
                Modulus:
                    00:a6:98:90:63:77:91:34:7f:8a:d1:dd:e9:67:31:
                    11:eb:cc:1e:fd:31:1d:b3:b9:62:57:3f:93:bc:5b:
                    e3:9f:1e:24:32:11:27:6b:bc:51:91:a7:cf:9e:9e:
                    25:b3:5f:81:a8:18:0f:1d:1e:20:30:0e:fb:61:7b:
                    86:09:b3:e3:fd:a2:68:9d:1c:2c:9d:bf:72:e3:e4:
                    75:a0:e5:35:23:8e:c9:8a:ee:1a:0c:64:c7:d8:42:
                    a1:7b:b5:52:03:4b:3a:b0:8e:23:4b:4b:63:e0:22:
                    94:37:7b:d5:79:90:0a:14:18:51:2c:e6:fe:c1:12:
                    f0:1c:3f:61:61:0a:8c:a2:dc:f6:c3:30:aa:cd:28:
                    18:75:48:c1:79:5a:08:cd:bb:8c:55:8c:f7:d4:76:
                    90:3a:33:46:50:73:98:5c:f4:85:4a:6b:0f:80:dd:
                    5e:d6:bd:fd:a9:2f:c0:25:f5:f9:78:d7:8d:5f:10:
                    c2:44:55:3c:90:3c:31:46:cb:70:ae:07:a9:0a:e3:
                    af:c1:01:6f:90:1a:23:e2:5f:38:db:c6:08:5d:47:
                    b3:83:41:f0:2e:00:37:14:b9:12:aa:79:92:52:cd:
                    87:0f:7b:d8:62:29:a4:7e:30:bd:1b:b5:8c:72:b4:
                    48:f2:e3:e8:21:f9:5e:4c:62:79:8b:02:06:9f:7f:
                    d5:0b
                Exponent: 65537 (0x10001)
        X509v3 extensions:
            X509v3 Authority Key Identifier: 
                keyid:BB:AF:7E:02:3D:FA:A6:F1:3C:84:8E:AD:EE:38:98:EC:D9:32:32:D4

            X509v3 Subject Key Identifier: 
                29:91:60:FF:8A:4D:FA:EB:F9:A6:6A:B8:CF:F9:E6:4B:BD:49:CE:12
            X509v3 Key Usage: critical
                Digital Signature, Certificate Sign, CRL Sign
            X509v3 Basic Constraints: critical
                CA:TRUE, pathlen:0
            X509v3 Extended Key Usage: 
                Code Signing
            X509v3 Certificate Policies: 
                Policy: X509v3 Any Policy

            X509v3 CRL Distribution Points: 

                Full Name:
                  URI:http://crl.comodoca.com/COMODORSACertificationAuthority.crl

            Authority Information Access: 
                CA Issuers - URI:http://crt.comodoca.com/COMODORSAAddTrustCA.crt
                OCSP - URI:http://ocsp.comodoca.com

    Signature Algorithm: sha384WithRSAEncryption
         02:3f:02:39:c3:ee:f8:ca:3b:89:de:0c:6d:4d:b1:f1:4e:92:
         4f:af:c2:38:2c:04:cc:c5:63:11:ab:09:63:af:ab:a2:d7:02:
         3f:cc:6f:19:c3:3d:d6:1a:08:94:ff:25:d8:a9:88:a7:2b:10:
         1a:e0:9b:b1:07:22:1a:51:1c:3a:d4:e1:e9:09:bf:e6:24:74:
         af:1e:7b:16:31:6e:23:ef:54:51:2d:52:02:e2:75:08:05:4c:
         f1:b7:51:e1:51:00:c6:87:f6:6c:ee:10:44:76:57:6a:f1:df:
         58:6b:21:aa:49:d4:7c:37:4e:bd:ff:b6:75:54:40:18:36:57:
         67:11:cd:4f:02:e4:fe:f3:da:fc:75:17:db:ec:b7:f7:65:09:
         23:49:1f:43:57:83:ea:7e:20:77:61:c8:4d:f2:bb:65:4d:a8:
         f7:85:45:07:af:7a:69:27:65:90:29:40:8b:df:7b:3a:51:39:
         8c:a8:1f:70:79:ad:6d:42:20:a2:cf:0c:6c:03:8c:4c:cd:73:
         07:94:e7:5a:8e:3a:04:ba:a2:a1:7c:1f:cb:63:3a:15:a7:d4:
         15:1b:a7:52:47:32:a9:f4:bf:64:47:d1:aa:1f:53:4e:32:30:
         73:c2:6f:b7:78:82:9d:5c:ff:46:bb:6b:22:1d:88:0b:f8:1b:
         aa:34:a6:fc:8c:f5:dd:7f:65:8c:8c:31:57:31:d0:36:ec:47:
         a1:cf:cb:8b:a8:ef:1c:18:58:c5:06:77:ca:4b:9b:51:af:4c:
         08:4a:7a:8f:e2:a3:52:e2:8e:8e:cc:26:e4:b2:d8:e5:38:c2:
         a8:ed:c6:81:9c:35:6b:a9:58:61:4a:0a:97:b4:4b:42:b6:55:
         9d:be:99:e7:70:6d:59:f8:6d:2a:0c:7f:19:60:5f:0c:9a:88:
         6c:30:ac:52:09:90:16:1b:ff:2b:9d:db:d0:20:ca:89:ea:28:
         7e:32:8e:19:df:7b:48:33:1e:d7:65:f8:ae:c9:f8:83:14:93:
         76:7d:64:d0:8e:ce:be:35:7d:ff:72:31:4d:9f:9e:bd:1e:6c:
         2f:a8:8f:0c:06:50:fb:8c:27:b3:76:c9:f4:e6:d7:c3:34:e2:
         8c:87:21:86:61:fe:bf:55:74:e1:21:77:03:0a:68:6c:bb:e4:
         c9:a9:e6:cf:59:25:eb:7c:ec:45:0e:79:66:68:e8:22:cd:b8:
         ef:98:85:4d:96:11:3c:09:8a:d0:7f:bc:28:28:13:fb:6a:ca:
         54:8d:92:5c:cd:c2:65:98:06:9e:ce:48:5b:d4:b5:37:93:46:
         41:7c:07:dd:cf:fa:43:ef:ba:67:61:ff:7d:49:e0:bb:30:7d:
         5c:80:e3:e6:16:39:4b:a7
-----BEGIN CERTIFICATE-----
MIIF4DCCA8igAwIBAgIQLnyHzA6TSlL+lP0ct800rzANBgkqhkiG9w0BAQwFADCB
hTELMAkGA1UEBhMCR0IxGzAZBgNVBAgTEkdyZWF0ZXIgTWFuY2hlc3RlcjEQMA4G
A1UEBxMHU2FsZm9yZDEaMBgGA1UEChMRQ09NT0RPIENBIExpbWl0ZWQxKzApBgNV
BAMTIkNPTU9ETyBSU0EgQ2VydGlmaWNhdGlvbiBBdXRob3JpdHkwHhcNMTMwNTA5
MDAwMDAwWhcNMjgwNTA4MjM1OTU5WjB9MQswCQYDVQQGEwJHQjEbMBkGA1UECBMS
R3JlYXRlciBNYW5jaGVzdGVyMRAwDgYDVQQHEwdTYWxmb3JkMRowGAYDVQQKExFD
T01PRE8gQ0EgTGltaXRlZDEjMCEGA1UEAxMaQ09NT0RPIFJTQSBDb2RlIFNpZ25p
bmcgQ0EwggEiMA0GCSqGSIb3DQEBAQUAA4IBDwAwggEKAoIBAQCmmJBjd5E0f4rR
3elnMRHrzB79MR2zuWJXP5O8W+OfHiQyESdrvFGRp8+eniWzX4GoGA8dHiAwDvth
e4YJs+P9omidHCydv3Lj5HWg5TUjjsmK7hoMZMfYQqF7tVIDSzqwjiNLS2PgIpQ3
e9V5kAoUGFEs5v7BEvAcP2FhCoyi3PbDMKrNKBh1SMF5WgjNu4xVjPfUdpA6M0ZQ
c5hc9IVKaw+A3V7Wvf2pL8Al9fl4141fEMJEVTyQPDFGy3CuB6kK46/BAW+QGiPi
XzjbxghdR7ODQfAuADcUuRKqeZJSzYcPe9hiKaR+ML0btYxytEjy4+gh+V5MYnmL
Agaff9ULAgMBAAGjggFRMIIBTTAfBgNVHSMEGDAWgBS7r34CPfqm8TyEjq3uOJjs
2TIy1DAdBgNVHQ4EFgQUKZFg/4pN+uv5pmq4z/nmS71JzhIwDgYDVR0PAQH/BAQD
AgGGMBIGA1UdEwEB/wQIMAYBAf8CAQAwEwYDVR0lBAwwCgYIKwYBBQUHAwMwEQYD
VR0gBAowCDAGBgRVHSAAMEwGA1UdHwRFMEMwQaA/oD2GO2h0dHA6Ly9jcmwuY29t
b2RvY2EuY29tL0NPTU9ET1JTQUNlcnRpZmljYXRpb25BdXRob3JpdHkuY3JsMHEG
CCsGAQUFBwEBBGUwYzA7BggrBgEFBQcwAoYvaHR0cDovL2NydC5jb21vZG9jYS5j
b20vQ09NT0RPUlNBQWRkVHJ1c3RDQS5jcnQwJAYIKwYBBQUHMAGGGGh0dHA6Ly9v
Y3NwLmNvbW9kb2NhLmNvbTANBgkqhkiG9w0BAQwFAAOCAgEAAj8COcPu+Mo7id4M
bU2x8U6ST6/COCwEzMVjEasJY6+rotcCP8xvGcM91hoIlP8l2KmIpysQGuCbsQci
GlEcOtTh6Qm/5iR0rx57FjFuI+9UUS1SAuJ1CAVM8bdR4VEAxof2bO4QRHZXavHf
WGshqknUfDdOvf+2dVRAGDZXZxHNTwLk/vPa/HUX2+y392UJI0kfQ1eD6n4gd2HI
TfK7ZU2o94VFB696aSdlkClAi997OlE5jKgfcHmtbUIgos8MbAOMTM1zB5TnWo46
BLqioXwfy2M6FafUFRunUkcyqfS/ZEfRqh9TTjIwc8Jvt3iCnVz/RrtrIh2IC/gb
qjSm/Iz13X9ljIwxVzHQNuxHoc/Li6jvHBhYxQZ3ykubUa9MCEp6j+KjUuKOjswm
5LLY5TjCqO3GgZw1a6lYYUoKl7RLQrZVnb6Z53BtWfhtKgx/GWBfDJqIbDCsUgmQ
Fhv/K53b0CDKieoofjKOGd97SDMe12X4rsn4gxSTdn1k0I7OvjV9/3IxTZ+evR5s
L6iPDAZQ+4wns3bJ9ObXwzTijIchhmH+v1V04SF3AwpobLvkyanmz1kl63zsRQ55
ZmjoIs2475iFTZYRPAmK0H+8KCgT+2rKVI2SXM3CZZgGns5IW9S1N5NGQXwH3c/6
Q++6Z2H/fUnguzB9XIDj5hY5S6c=
-----END CERTIFICATE-----

