Certificate:
    Data:
        Version: 3 (0x2)
        Serial Number:
            04:00:00:00:00:01:20:19:c1:90:66
    Signature Algorithm: sha1WithRSAEncryption
        Issuer: C=BE, O=GlobalSign nv-sa, OU=Root CA, CN=GlobalSign Root CA
        Validity
            Not Before: Mar 18 11:00:00 2009 GMT
            Not After : Jan 28 12:00:00 2028 GMT
        Subject: OU=Timestamping CA, O=GlobalSign, CN=GlobalSign Timestamping CA
        Subject Public Key Info:
            Public Key Algorithm: rsaEncryption
                Public-Key: (2048 bit)
                Modulus:
                    00:c3:0c:b7:12:0d:4d:68:8a:33:de:36:05:f0:3c:
                    ba:f5:da:cd:0e:53:7b:46:9f:82:f2:62:13:d7:c1:
                    77:ad:bb:81:37:7e:4f:1e:93:81:c1:06:22:da:1d:
                    50:84:c6:97:95:92:a9:93:b6:3d:ab:86:79:19:54:
                    7d:0e:16:04:4c:c4:88:97:2c:c6:a1:a8:5f:15:3a:
                    d2:64:2b:cc:3e:0c:7a:e8:a4:56:b1:1e:bb:cf:84:
                    ce:8d:35:3a:34:9c:6c:2d:c0:77:b5:30:a9:1f:67:
                    e6:3a:09:44:3a:43:72:41:a2:91:c3:46:9a:1f:b6:
                    b9:a7:0f:af:1c:75:1b:64:25:e7:08:6c:14:47:f5:
                    47:1a:de:8e:ea:a2:63:95:7d:f5:a8:ad:55:a2:64:
                    9b:72:6f:b9:02:73:3f:39:8a:39:5c:c4:fe:8f:fb:
                    11:9c:bd:10:19:49:63:d0:43:22:8b:d6:ab:92:99:
                    74:14:cf:30:07:be:4f:bd:fd:8a:8f:9e:5a:df:6d:
                    3c:cc:5a:99:50:90:b9:ad:c2:97:43:c2:5f:ed:cd:
                    33:3d:87:cc:c1:a0:5b:a9:62:3b:78:7d:64:a3:ac:
                    4d:1f:2b:d7:03:11:6c:71:54:8a:b0:ab:b1:1c:d6:
                    7d:23:db:40:07:37:26:db:50:af:38:3d:a6:07:75:
                    6f:97
                Exponent: 65537 (0x10001)
        X509v3 extensions:
            X509v3 Key Usage: critical
                Certificate Sign, CRL Sign
            X509v3 Basic Constraints: critical
                CA:TRUE, pathlen:0
            X509v3 Subject Key Identifier: 
                E8:C2:F1:C4:32:DC:33:35:37:BC:65:76:F5:9C:17:2E:17:45:2C:FE
            X509v3 Certificate Policies: 
                Policy: 1.3.6.1.4.1.4146.1.30
                  CPS: http://www.globalsign.net/repository/

            X509v3 CRL Distribution Points: 

                Full Name:
                  URI:http://crl.globalsign.net/root.crl

            X509v3 Authority Key Identifier: 
                keyid:60:7B:66:1A:45:0D:97:CA:89:50:2F:7D:04:CD:34:A8:FF:FC:FD:4B

    Signature Algorithm: sha1WithRSAEncryption
         5d:f6:cb:2b:0d:01:40:84:9f:85:7a:43:70:6a:e0:c5:e7:aa:
         06:00:d7:67:13:c9:08:91:31:65:4f:14:a8:a9:05:dc:38:9e:
         6a:a0:30:0a:bd:8d:c7:80:28:ee:42:45:ca:94:f3:de:58:45:
         a9:80:32:04:f5:59:5c:6a:70:00:39:27:94:4d:f5:b4:46:34:
         e8:1c:53:31:b2:b3:54:16:e9:cc:42:ab:d5:d9:59:30:1c:fb:
         46:27:25:b8:87:23:b1:e8:75:88:24:83:1e:c8:76:37:7b:01:
         49:45:48:a4:ed:e2:5d:d2:7c:9c:a2:dc:2d:ba:10:5a:12:62:
         65:ab:ae:00:c7:10:34:3b:cb:72:bd:14:24:0c:dc:c3:76:27:
         b4:a7:fe:e1:58:29:f2:0e:16:9f:91:39:1d:89:a6:e6:0f:1c:
         87:8c:e2:58:ac:92:7e:24:3e:aa:ec:14:e7:3a:33:34:8b:c6:
         3b:ac:83:ab:0f:14:62:7a:ba:1a:2d:4d:4b:1b:c5:30:f0:0b:
         92:79:7d:3c:78:e0:f8:e6:d2:15:96:59:99:39:2b:30:61:e8:
         b8:f8:c0:a1:e9:22:14:11:78:7d:c4:dc:89:be:c0:bb:94:e1:
         72:ae:eb:b5:40:40:4f:ef:17:1e:58:5e:d0:a8:89:96:ac:92:
         28:e9:ba:bf
-----BEGIN CERTIFICATE-----
MIIEGjCCAwKgAwIBAgILBAAAAAABIBnBkGYwDQYJKoZIhvcNAQEFBQAwVzELMAkG
A1UEBhMCQkUxGTAXBgNVBAoTEEdsb2JhbFNpZ24gbnYtc2ExEDAOBgNVBAsTB1Jv
b3QgQ0ExGzAZBgNVBAMTEkdsb2JhbFNpZ24gUm9vdCBDQTAeFw0wOTAzMTgxMTAw
MDBaFw0yODAxMjgxMjAwMDBaMFQxGDAWBgNVBAsTD1RpbWVzdGFtcGluZyBDQTET
MBEGA1UEChMKR2xvYmFsU2lnbjEjMCEGA1UEAxMaR2xvYmFsU2lnbiBUaW1lc3Rh
bXBpbmcgQ0EwggEiMA0GCSqGSIb3DQEBAQUAA4IBDwAwggEKAoIBAQDDDLcSDU1o
ijPeNgXwPLr12s0OU3tGn4LyYhPXwXetu4E3fk8ek4HBBiLaHVCExpeVkqmTtj2r
hnkZVH0OFgRMxIiXLMahqF8VOtJkK8w+DHropFaxHrvPhM6NNTo0nGwtwHe1MKkf
Z+Y6CUQ6Q3JBopHDRpoftrmnD68cdRtkJecIbBRH9Uca3o7qomOVffWorVWiZJty
b7kCcz85ijlcxP6P+xGcvRAZSWPQQyKL1quSmXQUzzAHvk+9/YqPnlrfbTzMWplQ
kLmtwpdDwl/tzTM9h8zBoFupYjt4fWSjrE0fK9cDEWxxVIqwq7Ec1n0j20AHNybb
UK84PaYHdW+XAgMBAAGjgekwgeYwDgYDVR0PAQH/BAQDAgEGMBIGA1UdEwEB/wQI
MAYBAf8CAQAwHQYDVR0OBBYEFOjC8cQy3DM1N7xldvWcFy4XRSz+MEsGA1UdIARE
MEIwQAYJKwYBBAGgMgEeMDMwMQYIKwYBBQUHAgEWJWh0dHA6Ly93d3cuZ2xvYmFs
c2lnbi5uZXQvcmVwb3NpdG9yeS8wMwYDVR0fBCwwKjAooCagJIYiaHR0cDovL2Ny
bC5nbG9iYWxzaWduLm5ldC9yb290LmNybDAfBgNVHSMEGDAWgBRge2YaRQ2XyolQ
L30EzTSo//z9SzANBgkqhkiG9w0BAQUFAAOCAQEAXfbLKw0BQISfhXpDcGrgxeeq
BgDXZxPJCJExZU8UqKkF3DieaqAwCr2Nx4Ao7kJFypTz3lhFqYAyBPVZXGpwADkn
lE31tEY06BxTMbKzVBbpzEKr1dlZMBz7RicluIcjseh1iCSDHsh2N3sBSUVIpO3i
XdJ8nKLcLboQWhJiZauuAMcQNDvLcr0UJAzcw3YntKf+4Vgp8g4Wn5E5HYmm5g8c
h4ziWKySfiQ+quwU5zozNIvGO6yDqw8UYnq6Gi1NSxvFMPALknl9PHjg+ObSFZZZ
mTkrMGHouPjAoekiFBF4fcTcib7Au5Thcq7rtUBAT+8XHlhe0KiJlqySKOm6vw==
-----END CERTIFICATE-----

Certificate:
    Data:
        Version: 3 (0x2)
        Serial Number:
            04:00:00:00:00:01:2f:4e:e1:35:5c
    Signature Algorithm: sha1WithRSAEncryption
        Issuer: C=BE, O=GlobalSign nv-sa, OU=Root CA, CN=GlobalSign Root CA
        Validity
            Not Before: Apr 13 10:00:00 2011 GMT
            Not After : Apr 13 10:00:00 2019 GMT
        Subject: C=BE, O=GlobalSign nv-sa, CN=GlobalSign CodeSigning CA - G2
        Subject Public Key Info:
            Public Key Algorithm: rsaEncryption
                Public-Key: (2048 bit)
                Modulus:
                    00:b2:4f:14:e7:10:be:d7:26:72:ab:36:97:ef:53:
                    bf:42:84:5e:58:d1:8a:28:fc:43:46:6f:7e:28:44:
                    50:0b:75:5d:00:d7:3c:0a:44:9e:20:6a:a4:f7:45:
                    4a:37:60:a3:6e:3f:12:fa:6d:fa:b6:46:c3:6a:a3:
                    b8:0c:27:28:02:57:28:d1:50:f7:61:39:55:b8:c3:
                    e1:25:86:52:3c:bf:05:1d:d7:b3:9a:f8:9a:24:31:
                    49:d5:a2:a9:e2:d3:91:ab:3e:3c:73:ef:f6:29:f1:
                    c8:35:d0:30:7b:7f:4e:92:a5:06:8f:87:e2:ce:f5:
                    c1:63:66:ac:18:69:2a:c1:5e:bb:5a:e8:6e:95:ff:
                    3b:80:62:9d:99:c7:c7:2f:66:d5:fd:62:1a:82:55:
                    5a:c6:fa:40:77:8e:c9:30:3c:1b:f0:f2:35:b8:6c:
                    59:9c:fd:e9:d6:ca:b4:40:1e:f7:04:ca:d1:67:a9:
                    74:e3:a5:08:54:d9:83:35:3b:8e:8c:23:0c:75:b6:
                    de:86:4a:9e:1a:3e:0a:50:49:38:9c:d2:a8:90:bf:
                    98:fa:c8:8c:2b:27:11:7e:2a:fb:ce:de:a9:ae:38:
                    93:22:fa:a6:ec:fb:5c:61:76:c3:44:d6:cc:0c:7e:
                    2f:6d:06:80:a2:74:40:bb:b7:1f:f4:3b:d7:73:54:
                    1f:f3
                Exponent: 65537 (0x10001)
        X509v3 extensions:
            X509v3 Key Usage: critical
                Certificate Sign, CRL Sign
            X509v3 Basic Constraints: critical
                CA:TRUE, pathlen:0
            X509v3 Subject Key Identifier: 
                08:6E:D8:B6:9C:8A:BF:ED:3E:D7:C3:74:5D:CC:80:1F:A8:2F:50:7A
            X509v3 Certificate Policies: 
                Policy: X509v3 Any Policy
                  CPS: https://www.globalsign.com/repository/

            X509v3 CRL Distribution Points: 

                Full Name:
                  URI:http://crl.globalsign.net/root.crl

            X509v3 Extended Key Usage: 
                Code Signing
            X509v3 Authority Key Identifier: 
                keyid:60:7B:66:1A:45:0D:97:CA:89:50:2F:7D:04:CD:34:A8:FF:FC:FD:4B

    Signature Algorithm: sha1WithRSAEncryption
         22:5c:c5:dd:3d:f4:0b:70:d8:e3:f5:e7:c5:8e:09:01:bb:b1:
         96:36:5c:5a:07:ad:c7:a8:44:49:51:25:7a:ae:0d:a4:19:3b:
         92:9c:cf:b9:42:26:bb:3b:6c:97:e7:c7:ce:11:6d:68:91:da:
         8d:6d:f1:53:4d:54:38:8c:61:f3:c8:82:76:69:be:81:32:0b:
         31:c3:6c:c9:9e:20:0a:58:2f:f0:48:fe:7e:48:07:aa:d7:43:
         58:94:73:54:04:31:a9:78:0d:3b:8c:b0:70:c1:3d:7e:d7:bd:
         2f:2a:c3:e2:f5:8f:0c:90:dc:6b:a5:c8:be:68:5e:5d:6d:f8:
         78:d2:be:49:95:1e:15:78:08:91:fb:34:c8:be:84:ad:bc:e0:
         c6:dd:18:db:f3:ca:f0:7b:c2:14:3c:18:b8:03:ba:95:3e:21:
         1e:3f:60:69:7a:7f:6a:03:9e:8d:4a:f9:f0:28:2c:30:84:5e:
         ec:26:72:42:b1:6d:cb:64:c3:12:8c:d6:84:4b:67:41:7c:b1:
         03:17:78:09:e3:ad:a8:b6:96:2d:a4:7e:80:03:4f:88:f7:c1:
         6b:5a:46:15:cd:2c:19:8b:d8:70:9c:e5:2d:49:88:60:72:a8:
         a4:19:52:70:43:5e:da:d6:46:03:b0:68:0e:24:ef:4a:f6:0b:
         25:24:ef:24
-----BEGIN CERTIFICATE-----
MIIEKDCCAxCgAwIBAgILBAAAAAABL07hNVwwDQYJKoZIhvcNAQEFBQAwVzELMAkG
A1UEBhMCQkUxGTAXBgNVBAoTEEdsb2JhbFNpZ24gbnYtc2ExEDAOBgNVBAsTB1Jv
b3QgQ0ExGzAZBgNVBAMTEkdsb2JhbFNpZ24gUm9vdCBDQTAeFw0xMTA0MTMxMDAw
MDBaFw0xOTA0MTMxMDAwMDBaMFExCzAJBgNVBAYTAkJFMRkwFwYDVQQKExBHbG9i
YWxTaWduIG52LXNhMScwJQYDVQQDEx5HbG9iYWxTaWduIENvZGVTaWduaW5nIENB
IC0gRzIwggEiMA0GCSqGSIb3DQEBAQUAA4IBDwAwggEKAoIBAQCyTxTnEL7XJnKr
NpfvU79ChF5Y0Yoo/ENGb34oRFALdV0A1zwKRJ4gaqT3RUo3YKNuPxL6bfq2RsNq
o7gMJygCVyjRUPdhOVW4w+ElhlI8vwUd17Oa+JokMUnVoqni05GrPjxz7/Yp8cg1
0DB7f06SpQaPh+LO9cFjZqwYaSrBXrta6G6V/zuAYp2Zx8cvZtX9YhqCVVrG+kB3
jskwPBvw8jW4bFmc/enWyrRAHvcEytFnqXTjpQhU2YM1O46MIwx1tt6GSp4aPgpQ
STic0qiQv5j6yIwrJxF+KvvO3qmuOJMi+qbs+1xhdsNE1swMfi9tBoCidEC7tx/0
O9dzVB/zAgMBAAGjgfowgfcwDgYDVR0PAQH/BAQDAgEGMBIGA1UdEwEB/wQIMAYB
Af8CAQAwHQYDVR0OBBYEFAhu2Lacir/tPtfDdF3MgB+oL1B6MEcGA1UdIARAMD4w
PAYEVR0gADA0MDIGCCsGAQUFBwIBFiZodHRwczovL3d3dy5nbG9iYWxzaWduLmNv
bS9yZXBvc2l0b3J5LzAzBgNVHR8ELDAqMCigJqAkhiJodHRwOi8vY3JsLmdsb2Jh
bHNpZ24ubmV0L3Jvb3QuY3JsMBMGA1UdJQQMMAoGCCsGAQUFBwMDMB8GA1UdIwQY
MBaAFGB7ZhpFDZfKiVAvfQTNNKj//P1LMA0GCSqGSIb3DQEBBQUAA4IBAQAiXMXd
PfQLcNjj9efFjgkBu7GWNlxaB63HqERJUSV6rg2kGTuSnM+5Qia7O2yX58fOEW1o
kdqNbfFTTVQ4jGHzyIJ2ab6BMgsxw2zJniAKWC/wSP5+SAeq10NYlHNUBDGpeA07
jLBwwT1+170vKsPi9Y8MkNxrpci+aF5dbfh40r5JlR4VeAiR+zTIvoStvODG3Rjb
88rwe8IUPBi4A7qVPiEeP2Bpen9qA56NSvnwKCwwhF7sJnJCsW3LZMMSjNaES2dB
fLEDF3gJ462otpYtpH6AA0+I98FrWkYVzSwZi9hwnOUtSYhgcqikGVJwQ17a1kYD
sGgOJO9K9gslJO8k
-----END CERTIFICATE-----

Certificate:
    Data:
        Version: 3 (0x2)
        Serial Number:
            01:00:00:00:00:01:25:b0:b4:cc:01
    Signature Algorithm: sha1WithRSAEncryption
        Issuer: OU=Timestamping CA, O=GlobalSign, CN=GlobalSign Timestamping CA
        Validity
            Not Before: Dec 21 09:32:56 2009 GMT
            Not After : Dec 22 09:32:56 2020 GMT
        Subject: C=BE, O=GlobalSign NV, CN=GlobalSign Time Stamping Authority
        Subject Public Key Info:
            Public Key Algorithm: rsaEncryption
                Public-Key: (2048 bit)
                Modulus:
                    00:cd:c2:3d:5d:77:22:d0:c2:7d:38:32:c3:15:83:
                    1f:42:6a:3b:53:66:dd:6a:36:44:0d:69:cf:68:8d:
                    89:45:9f:7e:2f:ee:42:3a:33:7c:3e:00:d3:97:6a:
                    d8:5a:d5:c3:4d:92:0a:5f:06:50:fd:bf:6c:c4:03:
                    a2:82:60:d8:ed:52:2e:13:74:de:97:c6:45:21:7b:
                    55:f6:ea:b1:64:03:fc:74:6b:b2:5f:c7:6c:6c:43:
                    14:8a:24:10:37:49:95:81:d2:48:12:a5:a2:76:49:
                    50:21:7f:ca:85:73:0a:3c:5d:b5:2e:ad:90:aa:5e:
                    4d:32:cb:17:93:d9:7f:96:c0:c0:89:65:56:d9:c5:
                    b1:3f:98:1b:27:fa:49:ee:1d:1b:cb:06:8c:30:1c:
                    3b:c5:a7:70:5b:a8:ab:18:5a:fe:c8:f6:8e:bf:01:
                    5d:8f:61:98:34:0f:58:51:ff:df:32:ea:54:65:1c:
                    14:2b:6c:fc:0c:90:19:67:ed:9b:d9:da:63:9b:d6:
                    5a:24:a3:74:8e:08:23:00:a1:92:b5:1e:0b:d1:08:
                    a0:66:7f:92:1b:a3:ed:80:64:02:49:8f:b6:84:ef:
                    d1:55:8e:5e:a9:97:5a:c5:08:02:88:94:56:bf:92:
                    eb:2a:2d:06:35:92:b5:37:36:31:ec:c3:fe:7a:3b:
                    c2:85
                Exponent: 65537 (0x10001)
        X509v3 extensions:
            X509v3 Authority Key Identifier: 
                keyid:E8:C2:F1:C4:32:DC:33:35:37:BC:65:76:F5:9C:17:2E:17:45:2C:FE

            X509v3 CRL Distribution Points: 

                Full Name:
                  URI:http://crl.globalsign.net/Timestamping1.crl

            X509v3 Subject Key Identifier: 
                AA:AA:A6:8A:EF:A4:64:73:D6:95:E2:79:C8:8F:EA:CF:A5:60:29:CA
            X509v3 Basic Constraints: 
                CA:FALSE
            X509v3 Key Usage: critical
                Digital Signature
            X509v3 Extended Key Usage: critical
                Time Stamping
            X509v3 Certificate Policies: 
                Policy: 1.3.6.1.4.1.4146.1.30
                  CPS: http://www.globalsign.net/repository/

    Signature Algorithm: sha1WithRSAEncryption
         bc:89:ec:fe:e6:36:55:93:5c:79:d4:11:7a:86:80:8f:17:b6:
         93:b2:6d:9b:91:a1:56:18:11:c6:55:ea:f6:08:ed:ad:9b:9e:
         f5:2b:81:c8:bb:dd:60:7b:1b:47:99:1e:6d:40:3e:1d:80:c2:
         13:d5:8e:04:05:2f:db:e7:ae:52:9e:68:84:72:a1:e5:4a:60:
         3c:f8:9b:d5:2f:46:d8:c3:b2:b7:93:53:ac:9b:6c:43:24:24:
         d1:f1:fc:e9:56:2e:34:11:58:18:43:ea:ef:ff:34:74:6c:a0:
         c0:6c:7f:ad:03:19:69:88:1e:95:60:ca:bb:bd:0c:bb:76:ef:
         c7:24:b0:81:c6:38:31:cf:36:ad:0c:38:b8:90:20:84:9b:2e:
         8f:28:b9:9f:f6:ca:94:27:cd:ac:39:61:57:e0:e3:95:5a:9c:
         76:92:30:f5:de:a6:97:3d:72:1c:2a:60:32:a8:33:4d:86:35:
         33:8a:5c:f3:a4:fd:f7:06:2c:e1:6b:4b:30:f5:cb:d3:43:62:
         f8:41:b9:de:7d:20:cb:05:8c:8e:2c:f6:5f:35:fd:33:8d:42:
         89:65:08:36:2c:a3:89:f4:5a:85:8b:b0:b9:7b:db:6c:cb:a1:
         f8:d2:0e:1b:bb:97:7c:d1:27:79:be:9d:7c:3b:e6:a7:56:34:
         d8:c9:91:a9
-----BEGIN CERTIFICATE-----
MIIELjCCAxagAwIBAgILAQAAAAABJbC0zAEwDQYJKoZIhvcNAQEFBQAwVDEYMBYG
A1UECxMPVGltZXN0YW1waW5nIENBMRMwEQYDVQQKEwpHbG9iYWxTaWduMSMwIQYD
VQQDExpHbG9iYWxTaWduIFRpbWVzdGFtcGluZyBDQTAeFw0wOTEyMjEwOTMyNTZa
Fw0yMDEyMjIwOTMyNTZaMFIxCzAJBgNVBAYTAkJFMRYwFAYDVQQKEw1HbG9iYWxT
aWduIE5WMSswKQYDVQQDEyJHbG9iYWxTaWduIFRpbWUgU3RhbXBpbmcgQXV0aG9y
aXR5MIIBIjANBgkqhkiG9w0BAQEFAAOCAQ8AMIIBCgKCAQEAzcI9XXci0MJ9ODLD
FYMfQmo7U2bdajZEDWnPaI2JRZ9+L+5COjN8PgDTl2rYWtXDTZIKXwZQ/b9sxAOi
gmDY7VIuE3Tel8ZFIXtV9uqxZAP8dGuyX8dsbEMUiiQQN0mVgdJIEqWidklQIX/K
hXMKPF21Lq2Qql5NMssXk9l/lsDAiWVW2cWxP5gbJ/pJ7h0bywaMMBw7xadwW6ir
GFr+yPaOvwFdj2GYNA9YUf/fMupUZRwUK2z8DJAZZ+2b2dpjm9ZaJKN0jggjAKGS
tR4L0QigZn+SG6PtgGQCSY+2hO/RVY5eqZdaxQgCiJRWv5LrKi0GNZK1NzYx7MP+
ejvChQIDAQABo4IBATCB/jAfBgNVHSMEGDAWgBTowvHEMtwzNTe8ZXb1nBcuF0Us
/jA8BgNVHR8ENTAzMDGgL6AthitodHRwOi8vY3JsLmdsb2JhbHNpZ24ubmV0L1Rp
bWVzdGFtcGluZzEuY3JsMB0GA1UdDgQWBBSqqqaK76Rkc9aV4nnIj+rPpWApyjAJ
BgNVHRMEAjAAMA4GA1UdDwEB/wQEAwIHgDAWBgNVHSUBAf8EDDAKBggrBgEFBQcD
CDBLBgNVHSAERDBCMEAGCSsGAQQBoDIBHjAzMDEGCCsGAQUFBwIBFiVodHRwOi8v
d3d3Lmdsb2JhbHNpZ24ubmV0L3JlcG9zaXRvcnkvMA0GCSqGSIb3DQEBBQUAA4IB
AQC8iez+5jZVk1x51BF6hoCPF7aTsm2bkaFWGBHGVer2CO2tm571K4HIu91gextH
mR5tQD4dgMIT1Y4EBS/b565SnmiEcqHlSmA8+JvVL0bYw7K3k1Osm2xDJCTR8fzp
Vi40EVgYQ+rv/zR0bKDAbH+tAxlpiB6VYMq7vQy7du/HJLCBxjgxzzatDDi4kCCE
my6PKLmf9sqUJ82sOWFX4OOVWpx2kjD13qaXPXIcKmAyqDNNhjUzilzzpP33Bizh
a0sw9cvTQ2L4QbnefSDLBYyOLPZfNf0zjUKJZQg2LKOJ9FqFi7C5e9tsy6H40g4b
u5d80Sd5vp18O+anVjTYyZGp
-----END CERTIFICATE-----

Certificate:
    Data:
        Version: 3 (0x2)
        Serial Number:
            11:21:b3:c7:52:a6:62:8a:0b:ae:90:ed:1b:c5:71:44:79:f6
    Signature Algorithm: sha1WithRSAEncryption
        Issuer: C=BE, O=GlobalSign nv-sa, CN=GlobalSign CodeSigning CA - G2
        Validity
            Not Before: Aug 29 13:26:57 2012 GMT
            Not After : Aug 30 13:26:57 2014 GMT
        Subject: C=CN, O=LongEasy Co., Ltd, CN=LongEasy Co., Ltd
        Subject Public Key Info:
            Public Key Algorithm: rsaEncryption
                Public-Key: (2048 bit)
                Modulus:
                    00:ad:bc:91:b2:ef:41:31:de:aa:74:04:a7:06:a8:
                    d5:82:e2:18:5d:d4:10:5f:64:96:26:ca:c4:4e:52:
                    db:fb:e2:c6:d4:fa:98:59:1a:e0:5d:8c:3e:40:71:
                    22:d2:03:fe:99:f3:60:31:ba:7b:be:d4:6d:85:b3:
                    6a:b0:9d:88:9f:9e:10:00:ac:28:6b:b6:e0:70:6a:
                    31:e3:e6:3a:9c:3f:e0:dc:16:85:c2:3c:7c:99:90:
                    f6:5a:a8:d6:c5:e4:5e:57:bf:dd:f1:ad:98:af:04:
                    23:df:2e:67:27:d4:e8:70:d2:14:38:d2:28:8b:4b:
                    7f:1c:77:97:88:f2:25:b9:0f:a3:45:5f:6a:ba:7a:
                    0a:fe:5d:9f:7d:08:78:e5:a6:ab:69:7e:29:23:bc:
                    bd:bd:6d:d1:41:ca:a0:ab:f6:4e:48:64:2e:25:75:
                    41:16:2b:19:45:ba:e4:81:a3:48:bb:ec:be:e0:12:
                    56:21:d2:cf:03:e7:56:83:bf:3c:e1:2c:5a:9b:f8:
                    68:ba:53:80:fb:df:c3:7f:97:48:36:38:9b:2a:cb:
                    d1:0b:b3:3b:c0:5b:59:3f:be:26:ca:b6:94:d6:8f:
                    42:4d:a3:75:45:48:64:ab:e1:a4:97:33:09:9f:2f:
                    45:b2:9a:c4:a9:dd:ce:40:58:3d:86:4f:79:71:85:
                    84:35
                Exponent: 65537 (0x10001)
        X509v3 extensions:
            X509v3 Key Usage: critical
                Digital Signature
            X509v3 Certificate Policies: 
                Policy: 1.3.6.1.4.1.4146.1.50
                  CPS: https://www.globalsign.com/repository/

            X509v3 Basic Constraints: 
                CA:FALSE
            X509v3 Extended Key Usage: 
                Code Signing
            X509v3 CRL Distribution Points: 

                Full Name:
                  URI:http://crl.globalsign.com/gs/gscodesigng2.crl

            Authority Information Access: 
                CA Issuers - URI:http://secure.globalsign.com/cacert/gscodesigng2.crt

            X509v3 Subject Key Identifier: 
                97:D3:56:BD:68:3F:F0:D4:EC:37:C5:52:71:55:7B:F7:D3:15:34:39
            X509v3 Authority Key Identifier: 
                keyid:08:6E:D8:B6:9C:8A:BF:ED:3E:D7:C3:74:5D:CC:80:1F:A8:2F:50:7A

    Signature Algorithm: sha1WithRSAEncryption
         39:f7:08:06:c3:ed:9e:eb:d0:c7:df:38:63:cb:bc:91:f6:d6:
         ea:b2:be:af:2a:4a:61:21:1a:8c:19:ec:94:72:da:bd:7f:71:
         f3:d0:4b:c7:7c:de:49:19:9c:36:83:8c:3c:d4:90:f7:68:b9:
         96:49:2e:9f:5b:08:26:6d:72:32:6e:d7:04:72:2e:25:a3:f2:
         f1:3a:9d:de:0e:7b:00:39:72:ca:69:dc:43:cd:61:4b:93:d6:
         69:ac:c2:b0:c9:79:0e:47:47:6a:10:83:cb:6f:df:68:ca:c5:
         d5:06:e3:60:af:c6:ce:66:6d:e0:c6:bc:17:1d:bf:59:23:0a:
         50:32:13:c5:4a:0d:04:7b:25:b1:6b:8f:1e:38:44:1c:6a:e4:
         9a:68:49:f6:b5:fd:d7:a1:2f:80:96:fc:7d:17:3d:4c:a3:d4:
         c3:c2:75:d1:d3:db:14:c2:f6:7f:4f:90:b2:8d:c7:e3:42:70:
         ac:f2:91:30:eb:0c:29:34:74:20:47:64:e2:6d:db:6c:50:3a:
         d9:8a:7b:92:f7:c4:1b:c9:51:92:66:1d:3c:c7:65:18:f9:69:
         59:7f:66:73:32:d4:32:cb:2c:08:e6:b3:49:2e:d7:36:81:ef:
         3b:3d:0d:71:72:54:8c:18:cd:55:f3:25:b2:80:5f:5a:e8:e8:
         cb:db:f2:89
-----BEGIN CERTIFICATE-----
MIIEeDCCA2CgAwIBAgISESGzx1KmYooLrpDtG8VxRHn2MA0GCSqGSIb3DQEBBQUA
MFExCzAJBgNVBAYTAkJFMRkwFwYDVQQKExBHbG9iYWxTaWduIG52LXNhMScwJQYD
VQQDEx5HbG9iYWxTaWduIENvZGVTaWduaW5nIENBIC0gRzIwHhcNMTIwODI5MTMy
NjU3WhcNMTQwODMwMTMyNjU3WjBFMQswCQYDVQQGEwJDTjEaMBgGA1UEChMRTG9u
Z0Vhc3kgQ28uLCBMdGQxGjAYBgNVBAMTEUxvbmdFYXN5IENvLiwgTHRkMIIBIjAN
BgkqhkiG9w0BAQEFAAOCAQ8AMIIBCgKCAQEArbyRsu9BMd6qdASnBqjVguIYXdQQ
X2SWJsrETlLb++LG1PqYWRrgXYw+QHEi0gP+mfNgMbp7vtRthbNqsJ2In54QAKwo
a7bgcGox4+Y6nD/g3BaFwjx8mZD2WqjWxeReV7/d8a2YrwQj3y5nJ9TocNIUONIo
i0t/HHeXiPIluQ+jRV9qunoK/l2ffQh45aaraX4pI7y9vW3RQcqgq/ZOSGQuJXVB
FisZRbrkgaNIu+y+4BJWIdLPA+dWg7884Sxam/houlOA+9/Df5dINjibKsvRC7M7
wFtZP74myraU1o9CTaN1RUhkq+GklzMJny9FsprEqd3OQFg9hk95cYWENQIDAQAB
o4IBVDCCAVAwDgYDVR0PAQH/BAQDAgeAMEwGA1UdIARFMEMwQQYJKwYBBAGgMgEy
MDQwMgYIKwYBBQUHAgEWJmh0dHBzOi8vd3d3Lmdsb2JhbHNpZ24uY29tL3JlcG9z
aXRvcnkvMAkGA1UdEwQCMAAwEwYDVR0lBAwwCgYIKwYBBQUHAwMwPgYDVR0fBDcw
NTAzoDGgL4YtaHR0cDovL2NybC5nbG9iYWxzaWduLmNvbS9ncy9nc2NvZGVzaWdu
ZzIuY3JsMFAGCCsGAQUFBwEBBEQwQjBABggrBgEFBQcwAoY0aHR0cDovL3NlY3Vy
ZS5nbG9iYWxzaWduLmNvbS9jYWNlcnQvZ3Njb2Rlc2lnbmcyLmNydDAdBgNVHQ4E
FgQUl9NWvWg/8NTsN8VScVV799MVNDkwHwYDVR0jBBgwFoAUCG7YtpyKv+0+18N0
XcyAH6gvUHowDQYJKoZIhvcNAQEFBQADggEBADn3CAbD7Z7r0MffOGPLvJH21uqy
vq8qSmEhGowZ7JRy2r1/cfPQS8d83kkZnDaDjDzUkPdouZZJLp9bCCZtcjJu1wRy
LiWj8vE6nd4OewA5cspp3EPNYUuT1mmswrDJeQ5HR2oQg8tv32jKxdUG42Cvxs5m
beDGvBcdv1kjClAyE8VKDQR7JbFrjx44RBxq5JpoSfa1/dehL4CW/H0XPUyj1MPC
ddHT2xTC9n9PkLKNx+NCcKzykTDrDCk0dCBHZOJt22xQOtmKe5L3xBvJUZJmHTzH
ZRj5aVl/ZnMy1DLLLAjms0ku1zaB7zs9DXFyVIwYzVXzJbKAX1ro6Mvb8ok=
-----END CERTIFICATE-----

