Certificate:
    Data:
        Version: 3 (0x2)
        Serial Number:
            03:9f:ed:ed:cb:79:5b:8d:ed:32:0c:89:19:f0:36:89
    Signature Algorithm: sha1WithRSAEncryption
        Issuer: C=US, O=DigiCert Inc, OU=www.digicert.com, CN=DigiCert Assured ID CA-1
        Validity
            Not Before: May 21 00:00:00 2013 GMT
            Not After : Jun  4 00:00:00 2014 GMT
        Subject: C=US, O=DigiCert, CN=DigiCert Timestamp Responder
        Subject Public Key Info:
            Public Key Algorithm: rsaEncryption
                Public-Key: (2048 bit)
                Modulus:
                    00:ba:69:4a:81:4d:6f:a5:14:16:aa:8a:cd:67:be:
                    4b:bf:c6:69:8f:58:1c:e0:79:e8:1e:9d:58:26:98:
                    da:5c:d4:7c:a3:f9:db:2b:8c:12:36:c3:fc:f9:64:
                    06:b1:bb:c2:a8:98:0a:17:0d:e1:95:eb:40:b4:eb:
                    96:6d:98:bf:a6:8f:79:cf:bc:8a:92:7b:6d:9c:18:
                    06:51:d8:a5:18:53:32:01:27:19:61:e8:84:41:df:
                    c6:f0:e8:ca:fe:77:ad:5f:d8:9e:7b:8c:60:6f:85:
                    5c:46:bd:6b:e7:0f:80:ce:e7:03:c3:7c:31:cf:b7:
                    65:55:c6:fb:e0:99:08:e4:73:5a:fb:97:da:d0:4c:
                    be:b4:b6:c6:0f:7f:26:92:a9:b8:fc:38:ee:b4:e4:
                    3a:a4:48:d0:4c:ea:a9:46:27:5b:cf:92:11:93:9c:
                    16:a7:fe:d2:ad:1f:22:c5:1e:ac:c1:71:ef:bc:4a:
                    db:01:09:44:df:98:1c:2d:67:ba:a8:8a:03:33:c9:
                    51:b5:f7:02:4d:09:a4:4d:fe:80:5e:c5:d7:45:c3:
                    7d:08:aa:01:33:cc:33:d8:4f:30:16:e4:ff:22:32:
                    2e:eb:7e:3b:f0:f9:1e:32:eb:95:25:d2:f2:fe:6d:
                    54:84:ba:d5:e5:d4:d1:dd:1b:af:bd:59:7b:94:85:
                    30:01
                Exponent: 65537 (0x10001)
        X509v3 extensions:
            X509v3 Key Usage: critical
                Digital Signature
            X509v3 Basic Constraints: critical
                CA:FALSE
            X509v3 Extended Key Usage: critical
                Time Stamping
            X509v3 Certificate Policies: 
                Policy: 2.16.840.1.114412.7.1
                  CPS: https://www.digicert.com/CPS
                  User Notice:
                    Explicit Text: 
                Policy: 2.16.840.1.114412.3.21

            X509v3 Authority Key Identifier: 
                keyid:15:00:12:2B:13:98:B2:99:07:ED:1E:DF:A2:BE:57:0D:2B:67:02:CD

            X509v3 Subject Key Identifier: 
                63:2F:C9:DF:79:92:7B:B5:23:CA:BB:E1:A4:EE:33:7E:E3:E2:9D:FA
            X509v3 CRL Distribution Points: 

                Full Name:
                  URI:http://crl3.digicert.com/DigiCertAssuredIDCA-1.crl

                Full Name:
                  URI:http://crl4.digicert.com/DigiCertAssuredIDCA-1.crl

            Authority Information Access: 
                OCSP - URI:http://ocsp.digicert.com
                CA Issuers - URI:http://cacerts.digicert.com/DigiCertAssuredIDCA-1.crt

    Signature Algorithm: sha1WithRSAEncryption
         ab:74:bd:40:00:4c:76:15:25:57:3d:d3:1c:03:ff:7d:45:c8:
         45:12:66:e7:28:65:60:d8:df:3b:b3:fa:0d:c1:ac:33:8f:f4:
         81:b9:61:f1:9d:fb:98:55:d7:de:47:43:ba:80:3d:f1:48:cc:
         3f:67:30:56:1f:ce:f4:d0:4c:84:bd:87:a4:9e:c5:e1:0f:a8:
         06:5d:d0:2f:6e:5e:dc:19:e8:f0:87:ea:e0:4e:af:3d:6c:20:
         8e:73:6f:7e:d6:87:18:e0:86:d3:9a:fc:9e:ea:8c:72:e9:41:
         0f:b8:71:b5:38:2c:f8:29:b2:d5:1c:a2:9d:1b:ec:5f:2a:b8:
         dc:37:20:e1:cb:bb:f0:d0:6c:6c:a5:b3:cb:9f:4a:f6:54:e3:
         26:34:3d:2e:b8:c1:2b:1c:b7:f6:c3:3d:fe:d1:2d:1e:50:f4:
         94:c8:f8:fd:ee:73:db:49:b5:1b:f4:f5:ff:a5:90:c1:39:14:
         1b:d8:ed:71:1b:6a:98:fb:fa:40:9a:44:a9:29:0e:55:5e:78:
         b8:b7:a4:83:c3:70:01:f0:66:40:e5:ae:79:34:e1:2b:4d:03:
         a1:2d:e6:db:54:62:18:ed:d5:09:8b:a2:aa:d6:0c:c8:4f:1a:
         be:99:25:78:69:99:89:d4:59:89:de:df:88:f0:d3:67:5e:74:
         a5:9d:a6:44
-----BEGIN CERTIFICATE-----
MIIGajCCBVKgAwIBAgIQA5/t7ct5W43tMgyJGfA2iTANBgkqhkiG9w0BAQUFADBi
MQswCQYDVQQGEwJVUzEVMBMGA1UEChMMRGlnaUNlcnQgSW5jMRkwFwYDVQQLExB3
d3cuZGlnaWNlcnQuY29tMSEwHwYDVQQDExhEaWdpQ2VydCBBc3N1cmVkIElEIENB
LTEwHhcNMTMwNTIxMDAwMDAwWhcNMTQwNjA0MDAwMDAwWjBHMQswCQYDVQQGEwJV
UzERMA8GA1UEChMIRGlnaUNlcnQxJTAjBgNVBAMTHERpZ2lDZXJ0IFRpbWVzdGFt
cCBSZXNwb25kZXIwggEiMA0GCSqGSIb3DQEBAQUAA4IBDwAwggEKAoIBAQC6aUqB
TW+lFBaqis1nvku/xmmPWBzgeegenVgmmNpc1Hyj+dsrjBI2w/z5ZAaxu8KomAoX
DeGV60C065ZtmL+mj3nPvIqSe22cGAZR2KUYUzIBJxlh6IRB38bw6Mr+d61f2J57
jGBvhVxGvWvnD4DO5wPDfDHPt2VVxvvgmQjkc1r7l9rQTL60tsYPfyaSqbj8OO60
5DqkSNBM6qlGJ1vPkhGTnBan/tKtHyLFHqzBce+8StsBCUTfmBwtZ7qoigMzyVG1
9wJNCaRN/oBexddFw30IqgEzzDPYTzAW5P8iMi7rfjvw+R4y65Ul0vL+bVSEutXl
1NHdG6+9WXuUhTABAgMBAAGjggM1MIIDMTAOBgNVHQ8BAf8EBAMCB4AwDAYDVR0T
AQH/BAIwADAWBgNVHSUBAf8EDDAKBggrBgEFBQcDCDCCAb8GA1UdIASCAbYwggGy
MIIBoQYJYIZIAYb9bAcBMIIBkjAoBggrBgEFBQcCARYcaHR0cHM6Ly93d3cuZGln
aWNlcnQuY29tL0NQUzCCAWQGCCsGAQUFBwICMIIBVh6CAVIAQQBuAHkAIAB1AHMA
ZQAgAG8AZgAgAHQAaABpAHMAIABDAGUAcgB0AGkAZgBpAGMAYQB0AGUAIABjAG8A
bgBzAHQAaQB0AHUAdABlAHMAIABhAGMAYwBlAHAAdABhAG4AYwBlACAAbwBmACAA
dABoAGUAIABEAGkAZwBpAEMAZQByAHQAIABDAFAALwBDAFAAUwAgAGEAbgBkACAA
dABoAGUAIABSAGUAbAB5AGkAbgBnACAAUABhAHIAdAB5ACAAQQBnAHIAZQBlAG0A
ZQBuAHQAIAB3AGgAaQBjAGgAIABsAGkAbQBpAHQAIABsAGkAYQBiAGkAbABpAHQA
eQAgAGEAbgBkACAAYQByAGUAIABpAG4AYwBvAHIAcABvAHIAYQB0AGUAZAAgAGgA
ZQByAGUAaQBuACAAYgB5ACAAcgBlAGYAZQByAGUAbgBjAGUALjALBglghkgBhv1s
AxUwHwYDVR0jBBgwFoAUFQASKxOYspkH7R7for5XDStnAs0wHQYDVR0OBBYEFGMv
yd95knu1I8q74aTuM37j4p36MH0GA1UdHwR2MHQwOKA2oDSGMmh0dHA6Ly9jcmwz
LmRpZ2ljZXJ0LmNvbS9EaWdpQ2VydEFzc3VyZWRJRENBLTEuY3JsMDigNqA0hjJo
dHRwOi8vY3JsNC5kaWdpY2VydC5jb20vRGlnaUNlcnRBc3N1cmVkSURDQS0xLmNy
bDB3BggrBgEFBQcBAQRrMGkwJAYIKwYBBQUHMAGGGGh0dHA6Ly9vY3NwLmRpZ2lj
ZXJ0LmNvbTBBBggrBgEFBQcwAoY1aHR0cDovL2NhY2VydHMuZGlnaWNlcnQuY29t
L0RpZ2lDZXJ0QXNzdXJlZElEQ0EtMS5jcnQwDQYJKoZIhvcNAQEFBQADggEBAKt0
vUAATHYVJVc90xwD/31FyEUSZucoZWDY3zuz+g3BrDOP9IG5YfGd+5hV195HQ7qA
PfFIzD9nMFYfzvTQTIS9h6SexeEPqAZd0C9uXtwZ6PCH6uBOrz1sII5zb37Whxjg
htOa/J7qjHLpQQ+4cbU4LPgpstUcop0b7F8quNw3IOHLu/DQbGyls8ufSvZU4yY0
PS64wSsct/bDPf7RLR5Q9JTI+P3uc9tJtRv09f+lkME5FBvY7XEbapj7+kCaRKkp
DlVeeLi3pIPDcAHwZkDlrnk04StNA6Et5ttUYhjt1QmLoqrWDMhPGr6ZJXhpmYnU
WYne34jw02dedKWdpkQ=
-----END CERTIFICATE-----

Certificate:
    Data:
        Version: 3 (0x2)
        Serial Number:
            0d:d0:e3:37:4a:c9:5b:db:fa:6b:43:4b:2a:48:ec:06
    Signature Algorithm: sha1WithRSAEncryption
        Issuer: C=US, O=DigiCert Inc, OU=www.digicert.com, CN=DigiCert High Assurance EV Root CA
        Validity
            Not Before: Apr 18 12:00:00 2012 GMT
            Not After : Apr 18 12:00:00 2027 GMT
        Subject: C=US, O=DigiCert Inc, OU=www.digicert.com, CN=DigiCert EV Code Signing CA
        Subject Public Key Info:
            Public Key Algorithm: rsaEncryption
                Public-Key: (2048 bit)
                Modulus:
                    00:b9:06:74:1c:5d:b4:20:aa:a9:21:a8:2a:42:46:
                    ab:25:20:17:25:cb:22:8f:90:a2:a0:31:6b:83:05:
                    75:af:b2:0e:7c:12:49:7b:6a:86:64:84:0f:83:dc:
                    64:b9:b1:6e:16:05:3e:1c:95:b9:e7:e7:88:6d:b8:
                    62:81:90:79:d4:dd:f5:e2:96:f9:c3:b5:88:23:57:
                    4a:1a:cf:71:29:e9:08:00:8f:b5:98:e3:a7:32:fd:
                    ac:2e:b8:f4:93:53:f4:0a:39:43:91:af:d5:6b:e8:
                    d4:9f:46:bd:8e:3d:ab:e2:f9:2b:d4:ea:00:40:66:
                    24:b7:e8:7f:b4:44:75:8d:78:9a:ae:31:c1:37:cf:
                    4e:1f:5b:f8:45:4a:d7:3f:c2:c9:92:06:64:be:de:
                    06:8a:af:d0:e8:8a:b1:f0:2c:88:00:6f:0b:dc:85:
                    a7:4c:cb:06:bf:d6:2e:2a:32:6e:29:71:af:8e:22:
                    f3:0f:d0:d8:98:48:2d:a8:08:cb:b6:8b:23:c2:63:
                    e0:b6:73:eb:6f:7d:26:4f:8b:f7:34:3d:37:86:0c:
                    b7:78:27:f4:c2:86:db:43:6b:5a:f8:3d:3d:f4:e8:
                    b0:62:56:c6:e7:ed:78:a1:fb:fd:7a:72:4f:32:65:
                    c4:7c:c3:c4:77:a0:04:32:32:ed:8f:3f:af:86:dd:
                    7e:d1
                Exponent: 65537 (0x10001)
        X509v3 extensions:
            X509v3 Basic Constraints: critical
                CA:TRUE, pathlen:0
            X509v3 Key Usage: critical
                Digital Signature, Certificate Sign, CRL Sign
            X509v3 Extended Key Usage: 
                Code Signing
            Authority Information Access: 
                OCSP - URI:http://ocsp.digicert.com
                CA Issuers - URI:http://cacerts.digicert.com/DigiCertHighAssuranceEVRootCA.crt

            X509v3 CRL Distribution Points: 

                Full Name:
                  URI:http://crl3.digicert.com/DigiCertHighAssuranceEVRootCA.crl

                Full Name:
                  URI:http://crl4.digicert.com/DigiCertHighAssuranceEVRootCA.crl

            X509v3 Certificate Policies: 
                Policy: 2.16.840.1.114412.3.2
                  CPS: http://www.digicert.com/ssl-cps-repository.htm
                  User Notice:
                    Explicit Text: 

            X509v3 Subject Key Identifier: 
                AD:69:06:70:FC:80:1B:16:B3:A9:18:94:6B:94:02:86:5E:F7:27:8C
            X509v3 Authority Key Identifier: 
                keyid:B1:3E:C3:69:03:F8:BF:47:01:D4:98:26:1A:08:02:EF:63:64:2B:C3

    Signature Algorithm: sha1WithRSAEncryption
         9e:5b:96:3a:2e:12:88:ac:ab:01:6d:a4:9f:75:e4:01:87:a3:
         a5:32:d7:bc:ba:a9:7e:a3:d6:14:17:f7:c2:13:6b:7c:73:8f:
         2b:6a:e5:0f:26:59:68:b0:8e:25:9b:6c:ef:fa:6c:93:92:08:
         c1:4d:cf:45:9e:9c:46:d6:1e:74:a1:9b:14:a3:fa:01:2f:4a:
         b1:01:e1:72:40:48:11:13:68:b9:36:9d:91:4b:d7:c2:39:12:
         10:c1:c4:dc:bb:62:14:14:2a:61:5d:4f:38:7c:66:1f:c6:1b:
         ff:ad:be:4f:7f:94:5b:73:43:00:0f:4d:73:b7:51:cf:0e:f6:
         77:c0:5b:cd:34:8c:d9:63:13:aa:0e:61:11:d6:f2:8e:27:fc:
         b4:7b:b8:b9:11:20:91:86:78:ea:0e:d4:28:ff:2a:d5:24:38:
         e8:37:b2:ec:96:bb:9f:bc:4a:16:50:e1:5e:bf:51:7d:23:a0:
         32:c7:c1:94:9e:7a:c9:c0:26:a2:cc:25:87:a0:12:7e:74:9f:
         2d:8d:b1:c8:e7:84:be:b9:d1:e9:de:bb:6a:4e:88:73:71:e1:
         22:38:cb:24:87:e9:73:7e:51:b2:ff:98:eb:4e:7e:2f:e0:ca:
         0e:fa:b3:5e:d1:ba:05:42:a8:48:9f:83:f6:3f:c4:ca:a8:df:
         68:a0:50:61
-----BEGIN CERTIFICATE-----
MIIGtTCCBZ2gAwIBAgIQDdDjN0rJW9v6a0NLKkjsBjANBgkqhkiG9w0BAQUFADBs
MQswCQYDVQQGEwJVUzEVMBMGA1UEChMMRGlnaUNlcnQgSW5jMRkwFwYDVQQLExB3
d3cuZGlnaWNlcnQuY29tMSswKQYDVQQDEyJEaWdpQ2VydCBIaWdoIEFzc3VyYW5j
ZSBFViBSb290IENBMB4XDTEyMDQxODEyMDAwMFoXDTI3MDQxODEyMDAwMFowZTEL
MAkGA1UEBhMCVVMxFTATBgNVBAoTDERpZ2lDZXJ0IEluYzEZMBcGA1UECxMQd3d3
LmRpZ2ljZXJ0LmNvbTEkMCIGA1UEAxMbRGlnaUNlcnQgRVYgQ29kZSBTaWduaW5n
IENBMIIBIjANBgkqhkiG9w0BAQEFAAOCAQ8AMIIBCgKCAQEAuQZ0HF20IKqpIagq
QkarJSAXJcsij5CioDFrgwV1r7IOfBJJe2qGZIQPg9xkubFuFgU+HJW55+eIbbhi
gZB51N314pb5w7WII1dKGs9xKekIAI+1mOOnMv2sLrj0k1P0CjlDka/Va+jUn0a9
jj2r4vkr1OoAQGYkt+h/tER1jXiarjHBN89OH1v4RUrXP8LJkgZkvt4Giq/Q6Iqx
8CyIAG8L3IWnTMsGv9YuKjJuKXGvjiLzD9DYmEgtqAjLtosjwmPgtnPrb30mT4v3
ND03hgy3eCf0wobbQ2ta+D099OiwYlbG5+14ofv9enJPMmXEfMPEd6AEMjLtjz+v
ht1+0QIDAQABo4IDWDCCA1QwEgYDVR0TAQH/BAgwBgEB/wIBADAOBgNVHQ8BAf8E
BAMCAYYwEwYDVR0lBAwwCgYIKwYBBQUHAwMwfwYIKwYBBQUHAQEEczBxMCQGCCsG
AQUFBzABhhhodHRwOi8vb2NzcC5kaWdpY2VydC5jb20wSQYIKwYBBQUHMAKGPWh0
dHA6Ly9jYWNlcnRzLmRpZ2ljZXJ0LmNvbS9EaWdpQ2VydEhpZ2hBc3N1cmFuY2VF
VlJvb3RDQS5jcnQwgY8GA1UdHwSBhzCBhDBAoD6gPIY6aHR0cDovL2NybDMuZGln
aWNlcnQuY29tL0RpZ2lDZXJ0SGlnaEFzc3VyYW5jZUVWUm9vdENBLmNybDBAoD6g
PIY6aHR0cDovL2NybDQuZGlnaWNlcnQuY29tL0RpZ2lDZXJ0SGlnaEFzc3VyYW5j
ZUVWUm9vdENBLmNybDCCAcQGA1UdIASCAbswggG3MIIBswYJYIZIAYb9bAMCMIIB
pDA6BggrBgEFBQcCARYuaHR0cDovL3d3dy5kaWdpY2VydC5jb20vc3NsLWNwcy1y
ZXBvc2l0b3J5Lmh0bTCCAWQGCCsGAQUFBwICMIIBVh6CAVIAQQBuAHkAIAB1AHMA
ZQAgAG8AZgAgAHQAaABpAHMAIABDAGUAcgB0AGkAZgBpAGMAYQB0AGUAIABjAG8A
bgBzAHQAaQB0AHUAdABlAHMAIABhAGMAYwBlAHAAdABhAG4AYwBlACAAbwBmACAA
dABoAGUAIABEAGkAZwBpAEMAZQByAHQAIABDAFAALwBDAFAAUwAgAGEAbgBkACAA
dABoAGUAIABSAGUAbAB5AGkAbgBnACAAUABhAHIAdAB5ACAAQQBnAHIAZQBlAG0A
ZQBuAHQAIAB3AGgAaQBjAGgAIABsAGkAbQBpAHQAIABsAGkAYQBiAGkAbABpAHQA
eQAgAGEAbgBkACAAYQByAGUAIABpAG4AYwBvAHIAcABvAHIAYQB0AGUAZAAgAGgA
ZQByAGUAaQBuACAAYgB5ACAAcgBlAGYAZQByAGUAbgBjAGUALjAdBgNVHQ4EFgQU
rWkGcPyAGxazqRiUa5QChl73J4wwHwYDVR0jBBgwFoAUsT7DaQP4v0cB1JgmGggC
72NkK8MwDQYJKoZIhvcNAQEFBQADggEBAJ5bljouEoisqwFtpJ915AGHo6Uy17y6
qX6j1hQX98ITa3xzjytq5Q8mWWiwjiWbbO/6bJOSCMFNz0WenEbWHnShmxSj+gEv
SrEB4XJASBETaLk2nZFL18I5EhDBxNy7YhQUKmFdTzh8Zh/GG/+tvk9/lFtzQwAP
TXO3Uc8O9nfAW800jNljE6oOYRHW8o4n/LR7uLkRIJGGeOoO1Cj/KtUkOOg3suyW
u5+8ShZQ4V6/UX0joDLHwZSeesnAJqLMJYegEn50ny2NscjnhL650eneu2pOiHNx
4SI4yySH6XN+UbL/mOtOfi/gyg76s17RugVCqEifg/Y/xMqo32igUGE=
-----END CERTIFICATE-----

Certificate:
    Data:
        Version: 3 (0x2)
        Serial Number:
            06:fd:f9:03:96:03:ad:ea:00:0a:eb:3f:27:bb:ba:1b
    Signature Algorithm: sha1WithRSAEncryption
        Issuer: C=US, O=DigiCert Inc, OU=www.digicert.com, CN=DigiCert Assured ID Root CA
        Validity
            Not Before: Nov 10 00:00:00 2006 GMT
            Not After : Nov 10 00:00:00 2021 GMT
        Subject: C=US, O=DigiCert Inc, OU=www.digicert.com, CN=DigiCert Assured ID CA-1
        Subject Public Key Info:
            Public Key Algorithm: rsaEncryption
                Public-Key: (2048 bit)
                Modulus:
                    00:e8:82:2d:99:f9:ca:c2:42:95:a5:80:73:40:70:
                    d2:9e:56:54:5c:a9:c4:d2:41:06:8f:c9:33:fc:4d:
                    45:91:5c:81:9f:ed:2c:9c:f8:16:59:df:9e:b5:24:
                    15:c2:98:b9:b4:77:49:dc:89:c4:0a:da:af:cb:5e:
                    6b:ed:ad:b0:71:31:eb:cf:3a:40:0c:46:4d:93:ec:
                    8b:7a:36:08:03:ab:0c:34:fe:18:49:82:fe:c7:c7:
                    31:48:80:7c:1e:a2:0f:92:0e:50:c9:c6:87:eb:36:
                    3f:d8:30:c3:ff:a6:f7:fb:a2:cd:6f:73:23:fe:ac:
                    56:05:90:f0:32:21:16:89:c6:70:88:f9:05:97:7d:
                    a3:c7:43:dd:02:e8:3b:3d:ed:b1:41:a3:ed:3f:be:
                    db:95:48:c4:ee:1e:b3:f2:bc:0c:2b:99:d0:c6:5d:
                    12:42:81:e1:83:6e:82:73:3f:26:4b:14:90:ae:59:
                    66:0a:c4:8d:be:d2:ce:06:ae:ad:84:6f:48:84:9b:
                    4f:40:b9:f1:4c:f2:af:98:fb:f6:ce:40:5d:5c:f6:
                    a8:f1:2f:af:ec:89:22:f2:6b:18:65:b1:c1:73:ad:
                    d7:f1:d8:cf:1e:0a:74:5c:42:b8:68:7e:b7:d5:77:
                    0a:27:56:7c:0f:62:a4:3f:32:14:60:95:fd:07:04:
                    a2:09
                Exponent: 65537 (0x10001)
        X509v3 extensions:
            X509v3 Key Usage: critical
                Digital Signature, Certificate Sign, CRL Sign
            X509v3 Extended Key Usage: 
                TLS Web Server Authentication, TLS Web Client Authentication, Code Signing, E-mail Protection, Time Stamping
            X509v3 Certificate Policies: 
                Policy: 2.16.840.1.114412.0.1.4
                  CPS: http://www.digicert.com/ssl-cps-repository.htm
                  User Notice:
                    Explicit Text: 
                Policy: 2.16.840.1.114412.3.21

            X509v3 Basic Constraints: critical
                CA:TRUE, pathlen:0
            Authority Information Access: 
                OCSP - URI:http://ocsp.digicert.com
                CA Issuers - URI:http://cacerts.digicert.com/DigiCertAssuredIDRootCA.crt

            X509v3 CRL Distribution Points: 

                Full Name:
                  URI:http://crl3.digicert.com/DigiCertAssuredIDRootCA.crl

                Full Name:
                  URI:http://crl4.digicert.com/DigiCertAssuredIDRootCA.crl

            X509v3 Subject Key Identifier: 
                15:00:12:2B:13:98:B2:99:07:ED:1E:DF:A2:BE:57:0D:2B:67:02:CD
            X509v3 Authority Key Identifier: 
                keyid:45:EB:A2:AF:F4:92:CB:82:31:2D:51:8B:A7:A7:21:9D:F3:6D:C8:0F

    Signature Algorithm: sha1WithRSAEncryption
         46:50:3e:c9:b7:28:24:a7:38:1d:b6:5b:29:af:52:cf:52:e9:
         31:47:ab:56:5c:7b:d5:0d:0b:41:b3:ef:ec:75:1f:74:38:f2:
         b2:5c:61:a2:9c:95:c3:50:e4:82:b9:23:d1:ba:3a:86:72:ad:
         38:78:ac:75:5d:17:17:34:72:47:85:94:56:d1:eb:bb:36:84:
         77:cc:24:a5:f3:04:19:55:a9:e7:e3:e7:ab:62:cd:fb:8b:2d:
         90:c2:c0:d2:b5:94:bd:5e:4f:b1:05:d2:0e:3d:1a:a9:14:5b:
         a6:86:31:62:a8:a8:33:e4:9b:39:a7:c4:f5:ce:1d:78:76:94:
         25:73:e4:2a:ab:cf:9c:76:4b:ed:5f:c2:4b:16:e4:4b:70:4c:
         00:89:1e:fc:c5:79:bc:4c:12:57:fe:5f:e1:1e:bc:02:5d:a8:
         fe:fb:07:38:4f:0d:c6:5d:91:b9:0f:67:45:cd:d6:83:ed:e7:
         92:0d:8d:b1:69:8c:4f:fb:59:e0:23:0f:d2:aa:ae:00:7c:ee:
         9c:42:0e:cf:91:d7:27:b7:16:ee:0f:c3:bd:7c:0a:a0:ee:2c:
         08:55:85:22:b8:eb:18:1a:4d:fc:2a:21:ad:49:31:83:47:95:
         77:71:dc:b1:1b:4b:4b:1c:10:9c:77:14:c1:9d:4f:2f:5a:95:
         08:29:10:26
-----BEGIN CERTIFICATE-----
MIIGzTCCBbWgAwIBAgIQBv35A5YDreoACus/J7u6GzANBgkqhkiG9w0BAQUFADBl
MQswCQYDVQQGEwJVUzEVMBMGA1UEChMMRGlnaUNlcnQgSW5jMRkwFwYDVQQLExB3
d3cuZGlnaWNlcnQuY29tMSQwIgYDVQQDExtEaWdpQ2VydCBBc3N1cmVkIElEIFJv
b3QgQ0EwHhcNMDYxMTEwMDAwMDAwWhcNMjExMTEwMDAwMDAwWjBiMQswCQYDVQQG
EwJVUzEVMBMGA1UEChMMRGlnaUNlcnQgSW5jMRkwFwYDVQQLExB3d3cuZGlnaWNl
cnQuY29tMSEwHwYDVQQDExhEaWdpQ2VydCBBc3N1cmVkIElEIENBLTEwggEiMA0G
CSqGSIb3DQEBAQUAA4IBDwAwggEKAoIBAQDogi2Z+crCQpWlgHNAcNKeVlRcqcTS
QQaPyTP8TUWRXIGf7Syc+BZZ3561JBXCmLm0d0ncicQK2q/LXmvtrbBxMevPOkAM
Rk2T7It6NggDqww0/hhJgv7HxzFIgHweog+SDlDJxofrNj/YMMP/pvf7os1vcyP+
rFYFkPAyIRaJxnCI+QWXfaPHQ90C6Ds97bFBo+0/vtuVSMTuHrPyvAwrmdDGXRJC
geGDboJzPyZLFJCuWWYKxI2+0s4Grq2Eb0iEm09AufFM8q+Y+/bOQF1c9qjxL6/s
iSLyaxhlscFzrdfx2M8eCnRcQrhofrfVdwonVnwPYqQ/MhRglf0HBKIJAgMBAAGj
ggN6MIIDdjAOBgNVHQ8BAf8EBAMCAYYwOwYDVR0lBDQwMgYIKwYBBQUHAwEGCCsG
AQUFBwMCBggrBgEFBQcDAwYIKwYBBQUHAwQGCCsGAQUFBwMIMIIB0gYDVR0gBIIB
yTCCAcUwggG0BgpghkgBhv1sAAEEMIIBpDA6BggrBgEFBQcCARYuaHR0cDovL3d3
dy5kaWdpY2VydC5jb20vc3NsLWNwcy1yZXBvc2l0b3J5Lmh0bTCCAWQGCCsGAQUF
BwICMIIBVh6CAVIAQQBuAHkAIAB1AHMAZQAgAG8AZgAgAHQAaABpAHMAIABDAGUA
cgB0AGkAZgBpAGMAYQB0AGUAIABjAG8AbgBzAHQAaQB0AHUAdABlAHMAIABhAGMA
YwBlAHAAdABhAG4AYwBlACAAbwBmACAAdABoAGUAIABEAGkAZwBpAEMAZQByAHQA
IABDAFAALwBDAFAAUwAgAGEAbgBkACAAdABoAGUAIABSAGUAbAB5AGkAbgBnACAA
UABhAHIAdAB5ACAAQQBnAHIAZQBlAG0AZQBuAHQAIAB3AGgAaQBjAGgAIABsAGkA
bQBpAHQAIABsAGkAYQBiAGkAbABpAHQAeQAgAGEAbgBkACAAYQByAGUAIABpAG4A
YwBvAHIAcABvAHIAYQB0AGUAZAAgAGgAZQByAGUAaQBuACAAYgB5ACAAcgBlAGYA
ZQByAGUAbgBjAGUALjALBglghkgBhv1sAxUwEgYDVR0TAQH/BAgwBgEB/wIBADB5
BggrBgEFBQcBAQRtMGswJAYIKwYBBQUHMAGGGGh0dHA6Ly9vY3NwLmRpZ2ljZXJ0
LmNvbTBDBggrBgEFBQcwAoY3aHR0cDovL2NhY2VydHMuZGlnaWNlcnQuY29tL0Rp
Z2lDZXJ0QXNzdXJlZElEUm9vdENBLmNydDCBgQYDVR0fBHoweDA6oDigNoY0aHR0
cDovL2NybDMuZGlnaWNlcnQuY29tL0RpZ2lDZXJ0QXNzdXJlZElEUm9vdENBLmNy
bDA6oDigNoY0aHR0cDovL2NybDQuZGlnaWNlcnQuY29tL0RpZ2lDZXJ0QXNzdXJl
ZElEUm9vdENBLmNybDAdBgNVHQ4EFgQUFQASKxOYspkH7R7for5XDStnAs0wHwYD
VR0jBBgwFoAUReuir/SSy4IxLVGLp6chnfNtyA8wDQYJKoZIhvcNAQEFBQADggEB
AEZQPsm3KCSnOB22WymvUs9S6TFHq1Zce9UNC0Gz7+x1H3Q48rJcYaKclcNQ5IK5
I9G6OoZyrTh4rHVdFxc0ckeFlFbR67s2hHfMJKXzBBlVqefj56tizfuLLZDCwNK1
lL1eT7EF0g49GqkUW6aGMWKoqDPkmzmnxPXOHXh2lCVz5Cqrz5x2S+1fwksW5Etw
TACJHvzFebxMElf+X+EevAJdqP77BzhPDcZdkbkPZ0XN1oPt55INjbFpjE/7WeAj
D9KqrgB87pxCDs+R1ye3Fu4Pw718CqDuLAhVhSK46xgaTfwqIa1JMYNHlXdx3LEb
S0scEJx3FMGdTy9alQgpECY=
-----END CERTIFICATE-----

Certificate:
    Data:
        Version: 3 (0x2)
        Serial Number:
            05:e9:5a:0e:72:28:c1:02:d0:ce:c0:b7:c5:79:75:e6
    Signature Algorithm: sha1WithRSAEncryption
        Issuer: C=US, O=DigiCert Inc, OU=www.digicert.com, CN=DigiCert EV Code Signing CA
        Validity
            Not Before: Oct 17 00:00:00 2013 GMT
            Not After : Dec 21 12:00:00 2016 GMT
        Subject: businessCategory=Private Organization/jurisdictionC=HK/serialNumber=1567954/street=308 Des Voeux Road Central/street=Suite 1301, 13/F, FWD Financial Centre/postalCode=HK, C=HK, L=Hong Kong, O=Software Marketing Limited, CN=Software Marketing Limited
        Subject Public Key Info:
            Public Key Algorithm: rsaEncryption
                Public-Key: (2048 bit)
                Modulus:
                    00:af:bc:dc:ba:6a:07:d2:fd:ad:bc:bf:a1:33:ba:
                    59:8a:ee:b0:8f:e9:21:f9:04:bf:5f:3a:d5:97:d7:
                    ca:55:9d:d0:06:70:25:cd:32:f5:33:06:46:1a:54:
                    b6:6c:25:da:9d:5a:5c:65:6c:7f:08:0f:75:ad:11:
                    ef:2b:68:e1:3e:d2:58:30:07:78:3f:db:ca:8b:ec:
                    98:e9:d9:e8:61:8e:81:25:1d:19:e8:9a:c3:f5:7a:
                    1d:78:5c:d1:6d:79:ee:ec:0e:9b:45:5e:10:44:1a:
                    56:5d:a2:06:92:17:53:3a:03:34:d4:11:7d:01:8a:
                    0b:22:72:51:4d:03:1f:74:aa:ed:5e:e8:e5:46:25:
                    ee:60:10:2f:76:6e:ad:bc:e0:6f:d2:ae:24:e3:e9:
                    40:ef:d7:3c:7d:d9:54:26:0b:4c:b1:d8:ed:d6:9a:
                    71:4c:83:12:57:ff:79:af:07:21:20:f9:c1:f0:ec:
                    89:ed:d0:12:08:44:36:8e:7a:74:68:1b:cb:98:ca:
                    0e:83:ec:9c:cf:b6:2f:49:81:6d:63:44:15:0b:39:
                    c8:e0:bb:5f:fb:40:05:02:a5:aa:57:d9:24:6a:7d:
                    8f:98:6d:0e:15:62:e1:6d:46:da:7b:50:3b:7a:5a:
                    36:00:e2:ae:d2:f0:db:53:0f:5b:94:cc:de:ab:24:
                    9c:4d
                Exponent: 65537 (0x10001)
        X509v3 extensions:
            X509v3 Authority Key Identifier: 
                keyid:AD:69:06:70:FC:80:1B:16:B3:A9:18:94:6B:94:02:86:5E:F7:27:8C

            X509v3 Subject Key Identifier: 
                4C:0F:76:34:10:1A:41:D1:26:23:2A:E7:5A:51:C2:54:17:88:CE:BF
            X509v3 Subject Alternative Name: 
                othername:<unsupported>
            X509v3 Key Usage: critical
                Digital Signature
            X509v3 Extended Key Usage: 
                Code Signing
            X509v3 CRL Distribution Points: 

                Full Name:
                  URI:http://crl3.digicert.com/EVCodeSigning-g1.crl

                Full Name:
                  URI:http://crl4.digicert.com/EVCodeSigning-g1.crl

            X509v3 Certificate Policies: 
                Policy: 2.16.840.1.114412.3.2
                  CPS: http://www.digicert.com/ssl-cps-repository.htm
                  User Notice:
                    Explicit Text: 

            Authority Information Access: 
                OCSP - URI:http://ocsp.digicert.com
                CA Issuers - URI:http://cacerts.digicert.com/DigiCertEVCodeSigningCA.crt

            X509v3 Basic Constraints: critical
                CA:FALSE
    Signature Algorithm: sha1WithRSAEncryption
         b0:c9:f8:36:5d:79:03:81:29:ec:be:72:ea:c2:36:d5:14:9a:
         df:4e:e7:19:53:4f:ec:6b:a9:a3:b9:b9:d3:82:ec:7c:70:de:
         f4:e6:ac:60:7f:55:e9:97:e4:00:e7:fe:1e:9e:42:20:b6:e7:
         c3:3e:64:aa:e3:b4:ef:35:a0:47:db:19:20:5d:9b:ce:8a:b5:
         17:ef:2f:ac:3f:29:aa:21:d0:4c:21:a7:51:5c:08:2f:1e:81:
         61:e6:4c:b4:f4:1c:e7:93:d0:52:57:a7:51:d0:3c:ca:bd:fe:
         b9:c5:2c:a5:aa:4d:27:07:67:4e:c0:31:51:77:11:7b:91:a6:
         00:5d:ae:36:2f:38:5d:ac:21:f1:e2:3b:91:b4:66:01:f5:a0:
         96:41:bd:70:78:0b:23:c0:76:b1:94:49:53:8d:3a:8a:f6:6a:
         b6:64:f0:cd:0e:91:77:b2:4b:06:19:23:d1:5d:b1:26:9b:be:
         85:1b:47:6c:fb:34:cc:f5:55:a0:86:ea:e0:59:ab:aa:96:52:
         24:46:ab:bc:b4:df:96:50:bb:8c:ab:1c:f5:54:f2:29:cd:72:
         20:30:b9:6e:ba:c6:39:21:da:3a:90:3b:70:d1:8f:1e:05:26:
         8a:1b:1a:30:14:b9:74:d5:98:32:d6:00:94:31:f8:84:5d:b1:
         97:cd:02:1a
-----BEGIN CERTIFICATE-----
MIIHXTCCBkWgAwIBAgIQBelaDnIowQLQzsC3xXl15jANBgkqhkiG9w0BAQUFADBl
MQswCQYDVQQGEwJVUzEVMBMGA1UEChMMRGlnaUNlcnQgSW5jMRkwFwYDVQQLExB3
d3cuZGlnaWNlcnQuY29tMSQwIgYDVQQDExtEaWdpQ2VydCBFViBDb2RlIFNpZ25p
bmcgQ0EwHhcNMTMxMDE3MDAwMDAwWhcNMTYxMjIxMTIwMDAwWjCCARQxHTAbBgNV
BA8MFFByaXZhdGUgT3JnYW5pemF0aW9uMRMwEQYLKwYBBAGCNzwCAQMTAkhLMRAw
DgYDVQQFEwcxNTY3OTU0MSMwIQYDVQQJExozMDggRGVzIFZvZXV4IFJvYWQgQ2Vu
dHJhbDEvMC0GA1UECRMmU3VpdGUgMTMwMSwgMTMvRiwgRldEIEZpbmFuY2lhbCBD
ZW50cmUxCzAJBgNVBBETAkhLMQswCQYDVQQGEwJISzESMBAGA1UEBxMJSG9uZyBL
b25nMSMwIQYDVQQKExpTb2Z0d2FyZSBNYXJrZXRpbmcgTGltaXRlZDEjMCEGA1UE
AxMaU29mdHdhcmUgTWFya2V0aW5nIExpbWl0ZWQwggEiMA0GCSqGSIb3DQEBAQUA
A4IBDwAwggEKAoIBAQCvvNy6agfS/a28v6EzulmK7rCP6SH5BL9fOtWX18pVndAG
cCXNMvUzBkYaVLZsJdqdWlxlbH8ID3WtEe8raOE+0lgwB3g/28qL7Jjp2ehhjoEl
HRnomsP1eh14XNFtee7sDptFXhBEGlZdogaSF1M6AzTUEX0BigsiclFNAx90qu1e
6OVGJe5gEC92bq284G/SriTj6UDv1zx92VQmC0yx2O3WmnFMgxJX/3mvByEg+cHw
7Int0BIIRDaOenRoG8uYyg6D7JzPti9JgW1jRBULOcjgu1/7QAUCpapX2SRqfY+Y
bQ4VYuFtRtp7UDt6WjYA4q7S8NtTD1uUzN6rJJxNAgMBAAGjggNWMIIDUjAfBgNV
HSMEGDAWgBStaQZw/IAbFrOpGJRrlAKGXvcnjDAdBgNVHQ4EFgQUTA92NBAaQdEm
IyrnWlHCVBeIzr8wJQYDVR0RBB4wHKAaBggrBgEFBQcIA6AOMAwMCkhLLTE1Njc5
NTQwDgYDVR0PAQH/BAQDAgeAMBMGA1UdJQQMMAoGCCsGAQUFBwMDMHMGA1UdHwRs
MGowM6AxoC+GLWh0dHA6Ly9jcmwzLmRpZ2ljZXJ0LmNvbS9FVkNvZGVTaWduaW5n
LWcxLmNybDAzoDGgL4YtaHR0cDovL2NybDQuZGlnaWNlcnQuY29tL0VWQ29kZVNp
Z25pbmctZzEuY3JsMIIBxAYDVR0gBIIBuzCCAbcwggGzBglghkgBhv1sAwIwggGk
MDoGCCsGAQUFBwIBFi5odHRwOi8vd3d3LmRpZ2ljZXJ0LmNvbS9zc2wtY3BzLXJl
cG9zaXRvcnkuaHRtMIIBZAYIKwYBBQUHAgIwggFWHoIBUgBBAG4AeQAgAHUAcwBl
ACAAbwBmACAAdABoAGkAcwAgAEMAZQByAHQAaQBmAGkAYwBhAHQAZQAgAGMAbwBu
AHMAdABpAHQAdQB0AGUAcwAgAGEAYwBjAGUAcAB0AGEAbgBjAGUAIABvAGYAIAB0
AGgAZQAgAEQAaQBnAGkAQwBlAHIAdAAgAEMAUAAvAEMAUABTACAAYQBuAGQAIAB0
AGgAZQAgAFIAZQBsAHkAaQBuAGcAIABQAGEAcgB0AHkAIABBAGcAcgBlAGUAbQBl
AG4AdAAgAHcAaABpAGMAaAAgAGwAaQBtAGkAdAAgAGwAaQBhAGIAaQBsAGkAdAB5
ACAAYQBuAGQAIABhAHIAZQAgAGkAbgBjAG8AcgBwAG8AcgBhAHQAZQBkACAAaABl
AHIAZQBpAG4AIABiAHkAIAByAGUAZgBlAHIAZQBuAGMAZQAuMHkGCCsGAQUFBwEB
BG0wazAkBggrBgEFBQcwAYYYaHR0cDovL29jc3AuZGlnaWNlcnQuY29tMEMGCCsG
AQUFBzAChjdodHRwOi8vY2FjZXJ0cy5kaWdpY2VydC5jb20vRGlnaUNlcnRFVkNv
ZGVTaWduaW5nQ0EuY3J0MAwGA1UdEwEB/wQCMAAwDQYJKoZIhvcNAQEFBQADggEB
ALDJ+DZdeQOBKey+curCNtUUmt9O5xlTT+xrqaO5udOC7Hxw3vTmrGB/VemX5ADn
/h6eQiC258M+ZKrjtO81oEfbGSBdm86KtRfvL6w/Kaoh0Ewhp1FcCC8egWHmTLT0
HOeT0FJXp1HQPMq9/rnFLKWqTScHZ07AMVF3EXuRpgBdrjYvOF2sIfHiO5G0ZgH1
oJZBvXB4CyPAdrGUSVONOor2arZk8M0OkXeySwYZI9FdsSabvoUbR2z7NMz1VaCG
6uBZq6qWUiRGq7y035ZQu4yrHPVU8inNciAwuW66xjkh2jqQO3DRjx4FJoobGjAU
uXTVmDLWAJQx+IRdsZfNAho=
-----END CERTIFICATE-----

