Certificate:
    Data:
        Version: 3 (0x2)
        Serial Number:
            0d:28:65:db:3e:f2:bd:bd:e0:3c:fa:1c:81:ce:b1:92
    Signature Algorithm: sha256WithRSAEncryption
        Issuer: C=GB, ST=Greater Manchester, L=Salford, O=COMODO CA Limited, CN=COMODO RSA Code Signing CA
        Validity
            Not Before: May 29 00:00:00 2016 GMT
            Not After : May 29 23:59:59 2017 GMT
        Subject: C=RU/postalCode=117556, ST=Russia, L=Moscow/street=Fructovaya St, 5-1, O=Intelligent Converters, CN=Intelligent Converters
        Subject Public Key Info:
            Public Key Algorithm: rsaEncryption
                Public-Key: (2048 bit)
                Modulus:
                    00:be:3b:9f:a6:f6:d2:af:79:81:92:3e:73:70:51:
                    7b:48:6c:cd:89:75:4d:60:58:4c:63:c1:8f:39:43:
                    a2:43:a7:fc:ce:91:d4:42:3d:06:7b:cc:ed:41:24:
                    be:5a:7f:ec:2d:3e:54:0f:d1:f4:e0:fb:e3:50:d1:
                    5c:10:31:26:a1:9f:05:34:78:82:06:24:f1:e3:bb:
                    cc:bc:e1:65:cb:20:7e:e9:ed:9c:c0:8e:5f:4d:20:
                    17:77:cb:b9:70:52:f6:fd:1c:c1:bf:50:c0:11:68:
                    aa:64:fc:60:57:8e:cb:bc:bf:36:17:23:6b:e1:77:
                    28:4d:b9:79:0f:c1:07:2c:6d:75:87:1e:4c:87:bd:
                    cd:d3:9e:e6:b3:19:73:71:db:58:40:6e:20:49:67:
                    ce:05:bf:74:f3:c5:51:db:36:a2:6f:0e:95:55:0a:
                    82:52:5b:db:33:6f:59:dd:ab:b1:91:d8:07:a4:e9:
                    f7:fd:23:40:72:83:e2:a3:06:e7:84:4d:5b:cd:02:
                    7c:ea:02:30:a4:c4:17:60:f1:90:4f:77:4d:a6:60:
                    c6:93:e8:85:6e:a1:3e:06:36:a4:d1:ae:ad:a5:66:
                    34:35:87:40:87:6e:04:ec:03:d1:f8:c6:3e:86:82:
                    77:3c:11:37:5c:c0:fe:d1:5a:40:5e:c3:7a:6b:8c:
                    76:3f
                Exponent: 65537 (0x10001)
        X509v3 extensions:
            X509v3 Authority Key Identifier: 
                keyid:29:91:60:FF:8A:4D:FA:EB:F9:A6:6A:B8:CF:F9:E6:4B:BD:49:CE:12

            X509v3 Subject Key Identifier: 
                C2:73:AC:DB:58:70:AC:AC:9D:53:73:27:AC:79:57:28:24:95:B7:95
            X509v3 Key Usage: critical
                Digital Signature
            X509v3 Basic Constraints: critical
                CA:FALSE
            X509v3 Extended Key Usage: 
                Code Signing
            Netscape Cert Type: 
                Object Signing
            X509v3 Certificate Policies: 
                Policy: 1.3.6.1.4.1.6449.1.2.1.3.2
                  CPS: https://secure.comodo.net/CPS

            X509v3 CRL Distribution Points: 

                Full Name:
                  URI:http://crl.comodoca.com/COMODORSACodeSigningCA.crl

            Authority Information Access: 
                CA Issuers - URI:http://crt.comodoca.com/COMODORSACodeSigningCA.crt
                OCSP - URI:http://ocsp.comodoca.com

    Signature Algorithm: sha256WithRSAEncryption
         57:08:2f:db:e5:63:5f:22:f5:f8:ee:34:ab:ca:b7:b4:67:18:
         ec:5c:22:6d:23:6c:d3:02:02:a2:31:9e:f3:6b:e3:7b:70:e6:
         19:92:68:ba:8b:5f:47:73:1a:d8:44:18:90:8c:ce:51:ac:33:
         5f:51:47:d6:48:79:28:80:05:1e:9f:af:52:a8:e0:72:db:61:
         c2:61:1c:b9:75:cf:7f:d0:2f:7e:82:88:d4:f4:86:2c:ca:87:
         d6:e1:46:75:f8:b6:8c:20:92:9e:26:84:ef:c6:3b:2b:d2:45:
         65:1e:9a:c9:d4:89:48:41:f2:9f:3a:c7:a7:84:b7:1e:31:0d:
         6f:9c:35:01:d2:20:f3:57:7f:17:04:8f:a0:55:df:16:be:82:
         b5:12:f0:5a:8d:b1:b0:06:84:cf:a3:ab:15:11:49:b2:c4:e1:
         07:c7:65:cb:54:0f:86:e9:eb:63:97:54:a9:8e:18:99:bf:4c:
         fa:13:f7:67:87:76:83:be:89:b3:22:43:52:2e:87:2a:10:0a:
         ae:0b:1c:3a:52:0a:a3:63:0a:19:72:5e:03:c0:4b:cb:db:7b:
         a5:f4:8f:b6:29:93:8c:21:ec:ec:59:51:31:90:7a:5b:e8:f7:
         e6:66:5c:46:6f:04:a5:d1:d2:34:80:8f:95:e3:84:19:b3:c8:
         78:5f:da:9d
-----BEGIN CERTIFICATE-----
MIIFNjCCBB6gAwIBAgIQDShl2z7yvb3gPPocgc6xkjANBgkqhkiG9w0BAQsFADB9
MQswCQYDVQQGEwJHQjEbMBkGA1UECBMSR3JlYXRlciBNYW5jaGVzdGVyMRAwDgYD
VQQHEwdTYWxmb3JkMRowGAYDVQQKExFDT01PRE8gQ0EgTGltaXRlZDEjMCEGA1UE
AxMaQ09NT0RPIFJTQSBDb2RlIFNpZ25pbmcgQ0EwHhcNMTYwNTI5MDAwMDAwWhcN
MTcwNTI5MjM1OTU5WjCBnzELMAkGA1UEBhMCUlUxDzANBgNVBBEMBjExNzU1NjEP
MA0GA1UECAwGUnVzc2lhMQ8wDQYDVQQHDAZNb3Njb3cxGzAZBgNVBAkMEkZydWN0
b3ZheWEgU3QsIDUtMTEfMB0GA1UECgwWSW50ZWxsaWdlbnQgQ29udmVydGVyczEf
MB0GA1UEAwwWSW50ZWxsaWdlbnQgQ29udmVydGVyczCCASIwDQYJKoZIhvcNAQEB
BQADggEPADCCAQoCggEBAL47n6b20q95gZI+c3BRe0hszYl1TWBYTGPBjzlDokOn
/M6R1EI9BnvM7UEkvlp/7C0+VA/R9OD741DRXBAxJqGfBTR4ggYk8eO7zLzhZcsg
funtnMCOX00gF3fLuXBS9v0cwb9QwBFoqmT8YFeOy7y/Nhcja+F3KE25eQ/BByxt
dYceTIe9zdOe5rMZc3HbWEBuIElnzgW/dPPFUds2om8OlVUKglJb2zNvWd2rsZHY
B6Tp9/0jQHKD4qMG54RNW80CfOoCMKTEF2DxkE93TaZgxpPohW6hPgY2pNGuraVm
NDWHQIduBOwD0fjGPoaCdzwRN1zA/tFaQF7DemuMdj8CAwEAAaOCAY0wggGJMB8G
A1UdIwQYMBaAFCmRYP+KTfrr+aZquM/55ku9Sc4SMB0GA1UdDgQWBBTCc6zbWHCs
rJ1TcyeseVcoJJW3lTAOBgNVHQ8BAf8EBAMCB4AwDAYDVR0TAQH/BAIwADATBgNV
HSUEDDAKBggrBgEFBQcDAzARBglghkgBhvhCAQEEBAMCBBAwRgYDVR0gBD8wPTA7
BgwrBgEEAbIxAQIBAwIwKzApBggrBgEFBQcCARYdaHR0cHM6Ly9zZWN1cmUuY29t
b2RvLm5ldC9DUFMwQwYDVR0fBDwwOjA4oDagNIYyaHR0cDovL2NybC5jb21vZG9j
YS5jb20vQ09NT0RPUlNBQ29kZVNpZ25pbmdDQS5jcmwwdAYIKwYBBQUHAQEEaDBm
MD4GCCsGAQUFBzAChjJodHRwOi8vY3J0LmNvbW9kb2NhLmNvbS9DT01PRE9SU0FD
b2RlU2lnbmluZ0NBLmNydDAkBggrBgEFBQcwAYYYaHR0cDovL29jc3AuY29tb2Rv
Y2EuY29tMA0GCSqGSIb3DQEBCwUAA4IBAQBXCC/b5WNfIvX47jSryre0ZxjsXCJt
I2zTAgKiMZ7za+N7cOYZkmi6i19HcxrYRBiQjM5RrDNfUUfWSHkogAUen69SqOBy
22HCYRy5dc9/0C9+gojU9IYsyofW4UZ1+LaMIJKeJoTvxjsr0kVlHprJ1IlIQfKf
OsenhLceMQ1vnDUB0iDzV38XBI+gVd8WvoK1EvBajbGwBoTPo6sVEUmyxOEHx2XL
VA+G6etjl1SpjhiZv0z6E/dnh3aDvomzIkNSLocqEAquCxw6UgqjYwoZcl4DwEvL
23ul9I+2KZOMIezsWVExkHpb6PfmZlxGbwSl0dI0gI+V44QZs8h4X9qd
-----END CERTIFICATE-----

Certificate:
    Data:
        Version: 3 (0x2)
        Serial Number:
            2e:7c:87:cc:0e:93:4a:52:fe:94:fd:1c:b7:cd:34:af
    Signature Algorithm: sha384WithRSAEncryption
        Issuer: C=GB, ST=Greater Manchester, L=Salford, O=COMODO CA Limited, CN=COMODO RSA Certification Authority
        Validity
            Not Before: May  9 00:00:00 2013 GMT
            Not After : May  8 23:59:59 2028 GMT
        Subject: C=GB, ST=Greater Manchester, L=Salford, O=COMODO CA Limited, CN=COMODO RSA Code Signing CA
        Subject Public Key Info:
            Public Key Algorithm: rsaEncryption
                Public-Key: (2048 bit)
                Modulus:
                    00:a6:98:90:63:77:91:34:7f:8a:d1:dd:e9:67:31:
                    11:eb:cc:1e:fd:31:1d:b3:b9:62:57:3f:93:bc:5b:
                    e3:9f:1e:24:32:11:27:6b:bc:51:91:a7:cf:9e:9e:
                    25:b3:5f:81:a8:18:0f:1d:1e:20:30:0e:fb:61:7b:
                    86:09:b3:e3:fd:a2:68:9d:1c:2c:9d:bf:72:e3:e4:
                    75:a0:e5:35:23:8e:c9:8a:ee:1a:0c:64:c7:d8:42:
                    a1:7b:b5:52:03:4b:3a:b0:8e:23:4b:4b:63:e0:22:
                    94:37:7b:d5:79:90:0a:14:18:51:2c:e6:fe:c1:12:
                    f0:1c:3f:61:61:0a:8c:a2:dc:f6:c3:30:aa:cd:28:
                    18:75:48:c1:79:5a:08:cd:bb:8c:55:8c:f7:d4:76:
                    90:3a:33:46:50:73:98:5c:f4:85:4a:6b:0f:80:dd:
                    5e:d6:bd:fd:a9:2f:c0:25:f5:f9:78:d7:8d:5f:10:
                    c2:44:55:3c:90:3c:31:46:cb:70:ae:07:a9:0a:e3:
                    af:c1:01:6f:90:1a:23:e2:5f:38:db:c6:08:5d:47:
                    b3:83:41:f0:2e:00:37:14:b9:12:aa:79:92:52:cd:
                    87:0f:7b:d8:62:29:a4:7e:30:bd:1b:b5:8c:72:b4:
                    48:f2:e3:e8:21:f9:5e:4c:62:79:8b:02:06:9f:7f:
                    d5:0b
                Exponent: 65537 (0x10001)
        X509v3 extensions:
            X509v3 Authority Key Identifier: 
                keyid:BB:AF:7E:02:3D:FA:A6:F1:3C:84:8E:AD:EE:38:98:EC:D9:32:32:D4

            X509v3 Subject Key Identifier: 
                29:91:60:FF:8A:4D:FA:EB:F9:A6:6A:B8:CF:F9:E6:4B:BD:49:CE:12
            X509v3 Key Usage: critical
                Digital Signature, Certificate Sign, CRL Sign
            X509v3 Basic Constraints: critical
                CA:TRUE, pathlen:0
            X509v3 Extended Key Usage: 
                Code Signing
            X509v3 Certificate Policies: 
                Policy: X509v3 Any Policy

            X509v3 CRL Distribution Points: 

                Full Name:
                  URI:http://crl.comodoca.com/COMODORSACertificationAuthority.crl

            Authority Information Access: 
                CA Issuers - URI:http://crt.comodoca.com/COMODORSAAddTrustCA.crt
                OCSP - URI:http://ocsp.comodoca.com

    Signature Algorithm: sha384WithRSAEncryption
         02:3f:02:39:c3:ee:f8:ca:3b:89:de:0c:6d:4d:b1:f1:4e:92:
         4f:af:c2:38:2c:04:cc:c5:63:11:ab:09:63:af:ab:a2:d7:02:
         3f:cc:6f:19:c3:3d:d6:1a:08:94:ff:25:d8:a9:88:a7:2b:10:
         1a:e0:9b:b1:07:22:1a:51:1c:3a:d4:e1:e9:09:bf:e6:24:74:
         af:1e:7b:16:31:6e:23:ef:54:51:2d:52:02:e2:75:08:05:4c:
         f1:b7:51:e1:51:00:c6:87:f6:6c:ee:10:44:76:57:6a:f1:df:
         58:6b:21:aa:49:d4:7c:37:4e:bd:ff:b6:75:54:40:18:36:57:
         67:11:cd:4f:02:e4:fe:f3:da:fc:75:17:db:ec:b7:f7:65:09:
         23:49:1f:43:57:83:ea:7e:20:77:61:c8:4d:f2:bb:65:4d:a8:
         f7:85:45:07:af:7a:69:27:65:90:29:40:8b:df:7b:3a:51:39:
         8c:a8:1f:70:79:ad:6d:42:20:a2:cf:0c:6c:03:8c:4c:cd:73:
         07:94:e7:5a:8e:3a:04:ba:a2:a1:7c:1f:cb:63:3a:15:a7:d4:
         15:1b:a7:52:47:32:a9:f4:bf:64:47:d1:aa:1f:53:4e:32:30:
         73:c2:6f:b7:78:82:9d:5c:ff:46:bb:6b:22:1d:88:0b:f8:1b:
         aa:34:a6:fc:8c:f5:dd:7f:65:8c:8c:31:57:31:d0:36:ec:47:
         a1:cf:cb:8b:a8:ef:1c:18:58:c5:06:77:ca:4b:9b:51:af:4c:
         08:4a:7a:8f:e2:a3:52:e2:8e:8e:cc:26:e4:b2:d8:e5:38:c2:
         a8:ed:c6:81:9c:35:6b:a9:58:61:4a:0a:97:b4:4b:42:b6:55:
         9d:be:99:e7:70:6d:59:f8:6d:2a:0c:7f:19:60:5f:0c:9a:88:
         6c:30:ac:52:09:90:16:1b:ff:2b:9d:db:d0:20:ca:89:ea:28:
         7e:32:8e:19:df:7b:48:33:1e:d7:65:f8:ae:c9:f8:83:14:93:
         76:7d:64:d0:8e:ce:be:35:7d:ff:72:31:4d:9f:9e:bd:1e:6c:
         2f:a8:8f:0c:06:50:fb:8c:27:b3:76:c9:f4:e6:d7:c3:34:e2:
         8c:87:21:86:61:fe:bf:55:74:e1:21:77:03:0a:68:6c:bb:e4:
         c9:a9:e6:cf:59:25:eb:7c:ec:45:0e:79:66:68:e8:22:cd:b8:
         ef:98:85:4d:96:11:3c:09:8a:d0:7f:bc:28:28:13:fb:6a:ca:
         54:8d:92:5c:cd:c2:65:98:06:9e:ce:48:5b:d4:b5:37:93:46:
         41:7c:07:dd:cf:fa:43:ef:ba:67:61:ff:7d:49:e0:bb:30:7d:
         5c:80:e3:e6:16:39:4b:a7
-----BEGIN CERTIFICATE-----
MIIF4DCCA8igAwIBAgIQLnyHzA6TSlL+lP0ct800rzANBgkqhkiG9w0BAQwFADCB
hTELMAkGA1UEBhMCR0IxGzAZBgNVBAgTEkdyZWF0ZXIgTWFuY2hlc3RlcjEQMA4G
A1UEBxMHU2FsZm9yZDEaMBgGA1UEChMRQ09NT0RPIENBIExpbWl0ZWQxKzApBgNV
BAMTIkNPTU9ETyBSU0EgQ2VydGlmaWNhdGlvbiBBdXRob3JpdHkwHhcNMTMwNTA5
MDAwMDAwWhcNMjgwNTA4MjM1OTU5WjB9MQswCQYDVQQGEwJHQjEbMBkGA1UECBMS
R3JlYXRlciBNYW5jaGVzdGVyMRAwDgYDVQQHEwdTYWxmb3JkMRowGAYDVQQKExFD
T01PRE8gQ0EgTGltaXRlZDEjMCEGA1UEAxMaQ09NT0RPIFJTQSBDb2RlIFNpZ25p
bmcgQ0EwggEiMA0GCSqGSIb3DQEBAQUAA4IBDwAwggEKAoIBAQCmmJBjd5E0f4rR
3elnMRHrzB79MR2zuWJXP5O8W+OfHiQyESdrvFGRp8+eniWzX4GoGA8dHiAwDvth
e4YJs+P9omidHCydv3Lj5HWg5TUjjsmK7hoMZMfYQqF7tVIDSzqwjiNLS2PgIpQ3
e9V5kAoUGFEs5v7BEvAcP2FhCoyi3PbDMKrNKBh1SMF5WgjNu4xVjPfUdpA6M0ZQ
c5hc9IVKaw+A3V7Wvf2pL8Al9fl4141fEMJEVTyQPDFGy3CuB6kK46/BAW+QGiPi
XzjbxghdR7ODQfAuADcUuRKqeZJSzYcPe9hiKaR+ML0btYxytEjy4+gh+V5MYnmL
Agaff9ULAgMBAAGjggFRMIIBTTAfBgNVHSMEGDAWgBS7r34CPfqm8TyEjq3uOJjs
2TIy1DAdBgNVHQ4EFgQUKZFg/4pN+uv5pmq4z/nmS71JzhIwDgYDVR0PAQH/BAQD
AgGGMBIGA1UdEwEB/wQIMAYBAf8CAQAwEwYDVR0lBAwwCgYIKwYBBQUHAwMwEQYD
VR0gBAowCDAGBgRVHSAAMEwGA1UdHwRFMEMwQaA/oD2GO2h0dHA6Ly9jcmwuY29t
b2RvY2EuY29tL0NPTU9ET1JTQUNlcnRpZmljYXRpb25BdXRob3JpdHkuY3JsMHEG
CCsGAQUFBwEBBGUwYzA7BggrBgEFBQcwAoYvaHR0cDovL2NydC5jb21vZG9jYS5j
b20vQ09NT0RPUlNBQWRkVHJ1c3RDQS5jcnQwJAYIKwYBBQUHMAGGGGh0dHA6Ly9v
Y3NwLmNvbW9kb2NhLmNvbTANBgkqhkiG9w0BAQwFAAOCAgEAAj8COcPu+Mo7id4M
bU2x8U6ST6/COCwEzMVjEasJY6+rotcCP8xvGcM91hoIlP8l2KmIpysQGuCbsQci
GlEcOtTh6Qm/5iR0rx57FjFuI+9UUS1SAuJ1CAVM8bdR4VEAxof2bO4QRHZXavHf
WGshqknUfDdOvf+2dVRAGDZXZxHNTwLk/vPa/HUX2+y392UJI0kfQ1eD6n4gd2HI
TfK7ZU2o94VFB696aSdlkClAi997OlE5jKgfcHmtbUIgos8MbAOMTM1zB5TnWo46
BLqioXwfy2M6FafUFRunUkcyqfS/ZEfRqh9TTjIwc8Jvt3iCnVz/RrtrIh2IC/gb
qjSm/Iz13X9ljIwxVzHQNuxHoc/Li6jvHBhYxQZ3ykubUa9MCEp6j+KjUuKOjswm
5LLY5TjCqO3GgZw1a6lYYUoKl7RLQrZVnb6Z53BtWfhtKgx/GWBfDJqIbDCsUgmQ
Fhv/K53b0CDKieoofjKOGd97SDMe12X4rsn4gxSTdn1k0I7OvjV9/3IxTZ+evR5s
L6iPDAZQ+4wns3bJ9ObXwzTijIchhmH+v1V04SF3AwpobLvkyanmz1kl63zsRQ55
ZmjoIs2475iFTZYRPAmK0H+8KCgT+2rKVI2SXM3CZZgGns5IW9S1N5NGQXwH3c/6
Q++6Z2H/fUnguzB9XIDj5hY5S6c=
-----END CERTIFICATE-----

