Certificate:
    Data:
        Version: 3 (0x2)
        Serial Number:
            7e:93:eb:fb:7c:c6:4e:59:ea:4b:9a:77:d4:06:fc:3b
    Signature Algorithm: sha1WithRSAEncryption
        Issuer: C=ZA, ST=Western Cape, L=Durbanville, O=Thawte, OU=Thawte Certification, CN=Thawte Timestamping CA
        Validity
            Not Before: Dec 21 00:00:00 2012 GMT
            Not After : Dec 30 23:59:59 2020 GMT
        Subject: C=US, O=Symantec Corporation, CN=Symantec Time Stamping Services CA - G2
        Subject Public Key Info:
            Public Key Algorithm: rsaEncryption
                Public-Key: (2048 bit)
                Modulus:
                    00:b1:ac:b3:49:54:4b:97:1c:12:0a:d8:25:79:91:
                    22:57:2a:6f:dc:b8:26:c4:43:73:6b:c2:bf:2e:50:
                    5a:fb:14:c2:76:8e:43:01:25:43:b4:a1:e2:45:f4:
                    e8:b7:7b:c3:74:cc:22:d7:b4:94:00:02:f7:4d:ed:
                    bf:b4:b7:44:24:6b:cd:5f:45:3b:d1:44:ce:43:12:
                    73:17:82:8b:69:b4:2b:cb:99:1e:ac:72:1b:26:4d:
                    71:1f:b1:31:dd:fb:51:61:02:53:a6:aa:f5:49:2c:
                    05:78:45:a5:2f:89:ce:e7:99:e7:fe:8c:e2:57:3f:
                    3d:c6:92:dc:4a:f8:7b:33:e4:79:0a:fb:f0:75:88:
                    41:9c:ff:c5:03:51:99:aa:d7:6c:9f:93:69:87:65:
                    29:83:85:c2:60:14:c4:c8:c9:3b:14:da:c0:81:f0:
                    1f:0d:74:de:92:22:ab:ca:f7:fb:74:7c:27:e6:f7:
                    4a:1b:7f:a7:c3:9e:2d:ae:8a:ea:a6:e6:aa:27:16:
                    7d:61:f7:98:71:11:bc:e2:50:a1:4b:e5:5d:fa:e5:
                    0e:a7:2c:9f:aa:65:20:d3:d8:96:e8:c8:7c:a5:4e:
                    48:44:ff:19:e2:44:07:92:0b:d7:68:84:80:5d:6a:
                    78:64:45:cd:60:46:7e:54:c1:13:7c:c5:79:f1:c9:
                    c1:71
                Exponent: 65537 (0x10001)
        X509v3 extensions:
            X509v3 Subject Key Identifier: 
                5F:9A:F5:6E:5C:CC:CC:74:9A:D4:DD:7D:EF:3F:DB:EC:4C:80:2E:DD
            Authority Information Access: 
                OCSP - URI:http://ocsp.thawte.com

            X509v3 Basic Constraints: critical
                CA:TRUE, pathlen:0
            X509v3 CRL Distribution Points: 

                Full Name:
                  URI:http://crl.thawte.com/ThawteTimestampingCA.crl

            X509v3 Extended Key Usage: 
                Time Stamping
            X509v3 Key Usage: critical
                Certificate Sign, CRL Sign
            X509v3 Subject Alternative Name: 
                DirName:/CN=TimeStamp-2048-1
    Signature Algorithm: sha1WithRSAEncryption
         03:09:9b:8f:79:ef:7f:59:30:aa:ef:68:b5:fa:e3:09:1d:bb:
         4f:82:06:5d:37:5f:a6:52:9f:16:8d:ea:1c:92:09:44:6e:f5:
         6d:eb:58:7c:30:e8:f9:69:8d:23:73:0b:12:6f:47:a9:ae:39:
         11:f8:2a:b1:9b:b0:1a:c3:8e:eb:59:96:00:ad:ce:0c:4d:b2:
         d0:31:a6:08:5c:2a:7a:fc:e2:7a:1d:57:4c:a8:65:18:e9:79:
         40:62:25:96:6e:c7:c7:37:6a:83:21:08:8e:41:ea:dd:d9:57:
         3f:1d:77:49:87:2a:16:06:5e:a6:38:6a:22:12:a3:51:19:83:
         7e:b6
-----BEGIN CERTIFICATE-----
MIID7jCCA1egAwIBAgIQfpPr+3zGTlnqS5p31Ab8OzANBgkqhkiG9w0BAQUFADCB
izELMAkGA1UEBhMCWkExFTATBgNVBAgTDFdlc3Rlcm4gQ2FwZTEUMBIGA1UEBxML
RHVyYmFudmlsbGUxDzANBgNVBAoTBlRoYXd0ZTEdMBsGA1UECxMUVGhhd3RlIENl
cnRpZmljYXRpb24xHzAdBgNVBAMTFlRoYXd0ZSBUaW1lc3RhbXBpbmcgQ0EwHhcN
MTIxMjIxMDAwMDAwWhcNMjAxMjMwMjM1OTU5WjBeMQswCQYDVQQGEwJVUzEdMBsG
A1UEChMUU3ltYW50ZWMgQ29ycG9yYXRpb24xMDAuBgNVBAMTJ1N5bWFudGVjIFRp
bWUgU3RhbXBpbmcgU2VydmljZXMgQ0EgLSBHMjCCASIwDQYJKoZIhvcNAQEBBQAD
ggEPADCCAQoCggEBALGss0lUS5ccEgrYJXmRIlcqb9y4JsRDc2vCvy5QWvsUwnaO
QwElQ7Sh4kX06Ld7w3TMIte0lAAC903tv7S3RCRrzV9FO9FEzkMScxeCi2m0K8uZ
HqxyGyZNcR+xMd37UWECU6aq9UksBXhFpS+JzueZ5/6M4lc/PcaS3Er4ezPkeQr7
8HWIQZz/xQNRmarXbJ+TaYdlKYOFwmAUxMjJOxTawIHwHw103pIiq8r3+3R8J+b3
Sht/p8OeLa6K6qbmqicWfWH3mHERvOJQoUvlXfrlDqcsn6plINPYlujIfKVOSET/
GeJEB5IL12iEgF1qeGRFzWBGflTBE3zFefHJwXECAwEAAaOB+jCB9zAdBgNVHQ4E
FgQUX5r1blzMzHSa1N197z/b7EyALt0wMgYIKwYBBQUHAQEEJjAkMCIGCCsGAQUF
BzABhhZodHRwOi8vb2NzcC50aGF3dGUuY29tMBIGA1UdEwEB/wQIMAYBAf8CAQAw
PwYDVR0fBDgwNjA0oDKgMIYuaHR0cDovL2NybC50aGF3dGUuY29tL1RoYXd0ZVRp
bWVzdGFtcGluZ0NBLmNybDATBgNVHSUEDDAKBggrBgEFBQcDCDAOBgNVHQ8BAf8E
BAMCAQYwKAYDVR0RBCEwH6QdMBsxGTAXBgNVBAMTEFRpbWVTdGFtcC0yMDQ4LTEw
DQYJKoZIhvcNAQEFBQADgYEAAwmbj3nvf1kwqu9otfrjCR27T4IGXTdfplKfFo3q
HJIJRG71betYfDDo+WmNI3MLEm9Hqa45EfgqsZuwGsOO61mWAK3ODE2y0DGmCFwq
evzieh1XTKhlGOl5QGIllm7HxzdqgyEIjkHq3dlXPx13SYcqFgZepjhqIhKjURmD
frY=
-----END CERTIFICATE-----

Certificate:
    Data:
        Version: 3 (0x2)
        Serial Number:
            0e:cf:f4:38:c8:fe:bf:35:6e:04:d8:6a:98:1b:1a:50
    Signature Algorithm: sha1WithRSAEncryption
        Issuer: C=US, O=Symantec Corporation, CN=Symantec Time Stamping Services CA - G2
        Validity
            Not Before: Oct 18 00:00:00 2012 GMT
            Not After : Dec 29 23:59:59 2020 GMT
        Subject: C=US, O=Symantec Corporation, CN=Symantec Time Stamping Services Signer - G4
        Subject Public Key Info:
            Public Key Algorithm: rsaEncryption
                Public-Key: (2048 bit)
                Modulus:
                    00:a2:63:0b:39:44:b8:bb:23:a7:44:49:bb:0e:ff:
                    a1:f0:61:0a:53:93:b0:98:db:ad:2c:0f:4a:c5:6e:
                    ff:86:3c:53:55:0f:15:ce:04:3f:2b:fd:a9:96:96:
                    d9:be:61:79:0b:5b:c9:4c:86:76:e5:e0:43:4b:22:
                    95:ee:c2:2b:43:c1:9f:d8:68:b4:8e:40:4f:ee:85:
                    38:b9:11:c5:23:f2:64:58:f0:15:32:6f:4e:57:a1:
                    ae:88:a4:02:d7:2a:1e:cd:4b:e1:dd:63:d5:17:89:
                    32:5b:b0:5e:99:5a:a8:9d:28:50:0e:17:ee:96:db:
                    61:3b:45:51:1d:cf:12:56:0b:92:47:fc:ab:ae:f6:
                    66:3d:47:ac:70:72:e7:92:e7:5f:cd:10:b9:c4:83:
                    64:94:19:bd:25:80:e1:e8:d2:22:a5:d0:ba:02:7a:
                    a1:77:93:5b:65:c3:ee:17:74:bc:41:86:2a:dc:08:
                    4c:8c:92:8c:91:2d:9e:77:44:1f:68:d6:a8:74:77:
                    db:0e:5b:32:8b:56:8b:33:bd:d9:63:c8:49:9d:3a:
                    c5:c5:ea:33:0b:d2:f1:a3:1b:f4:8b:be:d9:b3:57:
                    8b:3b:de:04:a7:7a:22:b2:24:ae:2e:c7:70:c5:be:
                    4e:83:26:08:fb:0b:bd:a9:4f:99:08:e1:10:28:72:
                    aa:cd
                Exponent: 65537 (0x10001)
        X509v3 extensions:
            X509v3 Basic Constraints: critical
                CA:FALSE
            X509v3 Extended Key Usage: critical
                Time Stamping
            X509v3 Key Usage: critical
                Digital Signature
            Authority Information Access: 
                OCSP - URI:http://ts-ocsp.ws.symantec.com
                CA Issuers - URI:http://ts-aia.ws.symantec.com/tss-ca-g2.cer

            X509v3 CRL Distribution Points: 

                Full Name:
                  URI:http://ts-crl.ws.symantec.com/tss-ca-g2.crl

            X509v3 Subject Alternative Name: 
                DirName:/CN=TimeStamp-2048-2
            X509v3 Subject Key Identifier: 
                46:C6:69:A3:0E:4A:14:1E:D5:4C:DA:52:63:17:3F:5E:36:BC:0D:E6
            X509v3 Authority Key Identifier: 
                keyid:5F:9A:F5:6E:5C:CC:CC:74:9A:D4:DD:7D:EF:3F:DB:EC:4C:80:2E:DD

    Signature Algorithm: sha1WithRSAEncryption
         78:3b:b4:91:2a:00:4c:f0:8f:62:30:37:78:a3:84:27:07:6f:
         18:b2:de:25:dc:a0:d4:94:03:aa:86:4e:25:9f:9a:40:03:1c:
         dd:ce:e3:79:cb:21:68:06:da:b6:32:b4:6d:bf:f4:2c:26:63:
         33:e4:49:64:6d:0d:e6:c3:67:0e:f7:05:a4:35:6c:7c:89:16:
         c6:e9:b2:df:b2:e9:dd:20:c6:71:0f:cd:95:74:dc:b6:5c:de:
         bd:37:1f:43:78:e6:78:b5:cd:28:04:20:a3:aa:f1:4b:c4:88:
         29:91:0e:80:d1:11:fc:dd:5c:76:6e:4f:5e:0e:45:46:41:6e:
         0d:b0:ea:38:9a:b1:3a:da:09:71:10:fc:1c:79:b4:80:7b:ac:
         69:f4:fd:9c:b6:0c:16:2b:f1:7f:5b:09:3d:9b:5b:e2:16:ca:
         13:81:6d:00:2e:38:0d:a8:29:8f:2c:e1:b2:f4:5a:a9:01:af:
         15:9c:2c:2f:49:1b:db:22:bb:c3:fe:78:94:51:c3:86:b1:82:
         88:5d:f0:3d:b4:51:a1:79:33:2b:2e:7b:b9:dc:20:09:13:71:
         eb:6a:19:5b:cf:e8:a5:30:57:2c:89:49:3f:b9:cf:7f:c9:bf:
         3e:22:68:63:53:9a:bd:69:74:ac:c5:1d:3c:7f:92:e0:c3:bc:
         1c:d8:04:75
-----BEGIN CERTIFICATE-----
MIIEozCCA4ugAwIBAgIQDs/0OMj+vzVuBNhqmBsaUDANBgkqhkiG9w0BAQUFADBe
MQswCQYDVQQGEwJVUzEdMBsGA1UEChMUU3ltYW50ZWMgQ29ycG9yYXRpb24xMDAu
BgNVBAMTJ1N5bWFudGVjIFRpbWUgU3RhbXBpbmcgU2VydmljZXMgQ0EgLSBHMjAe
Fw0xMjEwMTgwMDAwMDBaFw0yMDEyMjkyMzU5NTlaMGIxCzAJBgNVBAYTAlVTMR0w
GwYDVQQKExRTeW1hbnRlYyBDb3Jwb3JhdGlvbjE0MDIGA1UEAxMrU3ltYW50ZWMg
VGltZSBTdGFtcGluZyBTZXJ2aWNlcyBTaWduZXIgLSBHNDCCASIwDQYJKoZIhvcN
AQEBBQADggEPADCCAQoCggEBAKJjCzlEuLsjp0RJuw7/ofBhClOTsJjbrSwPSsVu
/4Y8U1UPFc4EPyv9qZaW2b5heQtbyUyGduXgQ0sile7CK0PBn9hotI5AT+6FOLkR
xSPyZFjwFTJvTlehroikAtcqHs1L4d1j1ReJMluwXplaqJ0oUA4X7pbbYTtFUR3P
ElYLkkf8q672Zj1HrHBy55LnX80QucSDZJQZvSWA4ejSIqXQugJ6oXeTW2XD7hd0
vEGGKtwITIySjJEtnndEH2jWqHR32w5bMotWizO92WPISZ06xcXqMwvS8aMb9Iu+
2bNXizveBKd6IrIkri7HcMW+ToMmCPsLvalPmQjhEChyqs0CAwEAAaOCAVcwggFT
MAwGA1UdEwEB/wQCMAAwFgYDVR0lAQH/BAwwCgYIKwYBBQUHAwgwDgYDVR0PAQH/
BAQDAgeAMHMGCCsGAQUFBwEBBGcwZTAqBggrBgEFBQcwAYYeaHR0cDovL3RzLW9j
c3Aud3Muc3ltYW50ZWMuY29tMDcGCCsGAQUFBzAChitodHRwOi8vdHMtYWlhLndz
LnN5bWFudGVjLmNvbS90c3MtY2EtZzIuY2VyMDwGA1UdHwQ1MDMwMaAvoC2GK2h0
dHA6Ly90cy1jcmwud3Muc3ltYW50ZWMuY29tL3Rzcy1jYS1nMi5jcmwwKAYDVR0R
BCEwH6QdMBsxGTAXBgNVBAMTEFRpbWVTdGFtcC0yMDQ4LTIwHQYDVR0OBBYEFEbG
aaMOShQe1UzaUmMXP142vA3mMB8GA1UdIwQYMBaAFF+a9W5czMx0mtTdfe8/2+xM
gC7dMA0GCSqGSIb3DQEBBQUAA4IBAQB4O7SRKgBM8I9iMDd4o4QnB28Yst4l3KDU
lAOqhk4ln5pAAxzdzuN5yyFoBtq2MrRtv/QsJmMz5ElkbQ3mw2cO9wWkNWx8iRbG
6bLfsundIMZxD82VdNy2XN69Nx9DeOZ4tc0oBCCjqvFLxIgpkQ6A0RH83Vx2bk9e
DkVGQW4NsOo4mrE62glxEPwcebSAe6xp9P2ctgwWK/F/Wwk9m1viFsoTgW0ALjgN
qCmPLOGy9FqpAa8VnCwvSRvbIrvD/niUUcOGsYKIXfA9tFGheTMrLnu53CAJE3Hr
ahlbz+ilMFcsiUk/uc9/yb8+ImhjU5q9aXSsxR08f5Lgw7wc2AR1
-----END CERTIFICATE-----

Certificate:
    Data:
        Version: 3 (0x2)
        Serial Number: 7747237974827421 (0x1b8612677ae19d)
    Signature Algorithm: sha256WithRSAEncryption
        Issuer: C=IL, O=StartCom Ltd., OU=Secure Digital Certificate Signing, CN=StartCom Certification Authority
        Validity
            Not Before: Oct 14 22:03:55 2007 GMT
            Not After : Oct 14 22:03:55 2022 GMT
        Subject: C=IL, O=StartCom Ltd., OU=Secure Digital Certificate Signing, CN=StartCom Class 3 Primary Intermediate Object CA
        Subject Public Key Info:
            Public Key Algorithm: rsaEncryption
                Public-Key: (2048 bit)
                Modulus:
                    00:d8:3a:d5:4f:9d:5c:f3:c2:0d:22:0a:95:08:ac:
                    39:13:9f:53:18:62:f9:a6:2b:69:8e:9f:19:37:a2:
                    b7:bc:c0:6f:9a:8e:a3:09:72:3b:7b:0a:98:13:5b:
                    19:50:d7:e2:9c:78:c0:c2:17:e2:ec:7a:e9:04:f9:
                    62:ff:11:b6:d5:5b:71:6c:46:19:e0:02:38:c2:dc:
                    ba:72:76:d1:10:18:98:8a:68:e2:98:6e:48:ca:4a:
                    a6:dc:2b:1c:03:06:db:e8:7c:4d:12:3f:62:60:8b:
                    92:70:f6:f1:13:a2:c4:65:1c:bf:69:65:d5:c0:10:
                    d0:9c:09:d4:fe:4c:92:2a:ad:3e:ac:d0:d6:91:a4:
                    38:ec:6b:98:6b:e7:80:8e:ea:6a:bd:d3:c3:26:d0:
                    80:ee:6a:37:b7:6f:34:37:b9:41:da:06:e8:d1:d1:
                    37:ec:72:21:a7:36:b2:a5:e1:db:cb:09:ea:4a:26:
                    24:39:29:04:3a:8a:ed:fe:4a:74:5b:36:b7:cd:4d:
                    72:6b:95:9d:90:1d:d3:0d:ad:0c:2c:e3:fc:67:e7:
                    b1:01:ac:4c:32:fb:5b:3a:32:83:d0:67:55:0b:a5:
                    fc:c9:98:30:03:77:fc:a3:3c:aa:c0:0d:e0:f3:50:
                    59:bf:79:61:84:7d:70:0d:94:35:43:aa:6c:ad:3a:
                    56:bf
                Exponent: 65537 (0x10001)
        X509v3 extensions:
            X509v3 Basic Constraints: critical
                CA:TRUE, pathlen:0
            X509v3 Key Usage: critical
                Certificate Sign, CRL Sign
            X509v3 Subject Key Identifier: 
                97:CA:73:53:A5:2E:B3:89:1A:A6:42:7D:A9:0F:93:FB:87:8C:01:18
            X509v3 Authority Key Identifier: 
                keyid:4E:0B:EF:1A:A4:40:5B:A5:17:69:87:30:CA:34:68:43:D0:41:AE:F2

            Authority Information Access: 
                OCSP - URI:http://ocsp.startssl.com/ca
                CA Issuers - URI:http://aia.startssl.com/certs/ca.crt

            X509v3 CRL Distribution Points: 

                Full Name:
                  URI:http://crl.startssl.com/sfsca.crl

            X509v3 Certificate Policies: 
                Policy: X509v3 Any Policy
                  CPS: http://www.startssl.com/policy.pdf

    Signature Algorithm: sha256WithRSAEncryption
         0e:8a:20:eb:22:4c:46:97:ea:64:1d:9c:b7:b7:e1:0f:3c:6c:
         08:9a:76:8d:d9:cd:87:26:fa:dd:77:df:d5:d9:32:f1:25:2b:
         fc:47:b9:4a:24:92:ea:13:4e:5a:d3:61:fd:d2:42:6c:0c:54:
         7b:cc:7b:13:96:b5:10:4f:2f:ff:57:36:85:5c:45:98:93:36:
         8c:99:9a:ec:38:bc:80:50:76:a2:27:75:c9:1f:ea:e1:af:d5:
         32:6c:4f:85:6d:6a:7f:fb:13:cd:14:31:5e:5f:4a:0f:97:73:
         dd:08:9f:09:55:39:88:ca:42:5c:16:a0:ce:39:e6:32:14:35:
         17:42:7a:ce:2b:85:0b:4f:08:1c:23:42:0e:a4:7d:fe:0c:9b:
         7a:8f:91:cd:70:ff:fb:ed:b8:c0:55:53:47:75:a3:7a:fe:9e:
         38:b6:cb:12:a8:aa:e1:9d:df:a4:70:8e:58:b8:2c:94:51:56:
         13:0d:30:26:7e:44:03:38:53:38:3b:0f:60:3d:09:59:ff:67:
         09:e5:fb:d1:28:63:85:c1:be:b1:92:0c:78:b9:34:25:6b:13:
         a5:6f:3a:5b:1d:df:79:b3:68:9f:f0:a1:76:8f:d3:b9:d7:d6:
         c4:27:2e:ac:98:1b:18:c1:a6:72:09:bc:cc:0d:ea:46:cc:94:
         76:81:e2:58:29:16:97:12:b7:aa:0d:ab:8f:d1:54:1a:ba:4f:
         69:94:05:14:6b:fa:67:d7:bd:00:8c:e2:95:e3:54:7b:61:cc:
         4f:da:6f:d4:46:d5:39:9d:ea:8a:d6:08:09:89:2f:f9:da:b4:
         34:54:43:4c:5d:f8:cd:2a:75:76:52:ce:87:6f:db:15:08:df:
         d7:08:5c:f3:e3:f7:ad:96:68:1a:25:44:b8:a9:1c:91:fd:f2:
         76:e3:73:88:bf:eb:08:62:a6:38:31:a9:91:dc:6f:dc:d8:c4:
         ee:00:1c:b8:67:5d:61:76:46:ef:d7:7f:98:c7:46:35:73:28:
         46:e2:f2:3e:fc:11:97:23:77:eb:4b:15:80:56:44:70:3e:97:
         6d:41:e3:ec:aa:da:e3:a0:c3:fe:dc:a5:79:43:14:94:00:5f:
         5f:d2:75:17:99:33:36:9c:f4:00:ed:02:a8:69:f1:7e:13:b5:
         ff:fa:98:cf:33:0d:61:38:45:88:92:fc:8a:29:89:1e:8d:29:
         a6:21:b9:0a:c6:04:e3:3b:e5:39:a4:9e:da:45:5d:5a:7a:26:
         8a:b5:47:3d:7d:3b:63:85:90:90:df:ba:ef:2c:3e:1e:3c:65:
         11:7b:5d:35:e0:d1:58:d1:e6:85:b1:57:69:ee:97:8e:51:1a:
         66:12:81:eb:56:44:29:d8
-----BEGIN CERTIFICATE-----
MIIF2TCCA8GgAwIBAgIHG4YSZ3rhnTANBgkqhkiG9w0BAQsFADB9MQswCQYDVQQG
EwJJTDEWMBQGA1UEChMNU3RhcnRDb20gTHRkLjErMCkGA1UECxMiU2VjdXJlIERp
Z2l0YWwgQ2VydGlmaWNhdGUgU2lnbmluZzEpMCcGA1UEAxMgU3RhcnRDb20gQ2Vy
dGlmaWNhdGlvbiBBdXRob3JpdHkwHhcNMDcxMDE0MjIwMzU1WhcNMjIxMDE0MjIw
MzU1WjCBjDELMAkGA1UEBhMCSUwxFjAUBgNVBAoTDVN0YXJ0Q29tIEx0ZC4xKzAp
BgNVBAsTIlNlY3VyZSBEaWdpdGFsIENlcnRpZmljYXRlIFNpZ25pbmcxODA2BgNV
BAMTL1N0YXJ0Q29tIENsYXNzIDMgUHJpbWFyeSBJbnRlcm1lZGlhdGUgT2JqZWN0
IENBMIIBIjANBgkqhkiG9w0BAQEFAAOCAQ8AMIIBCgKCAQEA2DrVT51c88INIgqV
CKw5E59TGGL5pitpjp8ZN6K3vMBvmo6jCXI7ewqYE1sZUNfinHjAwhfi7HrpBPli
/xG21VtxbEYZ4AI4wty6cnbREBiYimjimG5Iykqm3CscAwbb6HxNEj9iYIuScPbx
E6LEZRy/aWXVwBDQnAnU/kySKq0+rNDWkaQ47GuYa+eAjupqvdPDJtCA7mo3t280
N7lB2gbo0dE37HIhpzaypeHbywnqSiYkOSkEOort/kp0Wza3zU1ya5WdkB3TDa0M
LOP8Z+exAaxMMvtbOjKD0GdVC6X8yZgwA3f8ozyqwA3g81BZv3lhhH1wDZQ1Q6ps
rTpWvwIDAQABo4IBTDCCAUgwEgYDVR0TAQH/BAgwBgEB/wIBADAOBgNVHQ8BAf8E
BAMCAQYwHQYDVR0OBBYEFJfKc1OlLrOJGqZCfakPk/uHjAEYMB8GA1UdIwQYMBaA
FE4L7xqkQFulF2mHMMo0aEPQQa7yMGkGCCsGAQUFBwEBBF0wWzAnBggrBgEFBQcw
AYYbaHR0cDovL29jc3Auc3RhcnRzc2wuY29tL2NhMDAGCCsGAQUFBzAChiRodHRw
Oi8vYWlhLnN0YXJ0c3NsLmNvbS9jZXJ0cy9jYS5jcnQwMgYDVR0fBCswKTAnoCWg
I4YhaHR0cDovL2NybC5zdGFydHNzbC5jb20vc2ZzY2EuY3JsMEMGA1UdIAQ8MDow
OAYEVR0gADAwMC4GCCsGAQUFBwIBFiJodHRwOi8vd3d3LnN0YXJ0c3NsLmNvbS9w
b2xpY3kucGRmMA0GCSqGSIb3DQEBCwUAA4ICAQAOiiDrIkxGl+pkHZy3t+EPPGwI
mnaN2c2HJvrdd9/V2TLxJSv8R7lKJJLqE05a02H90kJsDFR7zHsTlrUQTy//VzaF
XEWYkzaMmZrsOLyAUHaiJ3XJH+rhr9UybE+FbWp/+xPNFDFeX0oPl3PdCJ8JVTmI
ykJcFqDOOeYyFDUXQnrOK4ULTwgcI0IOpH3+DJt6j5HNcP/77bjAVVNHdaN6/p44
tssSqKrhnd+kcI5YuCyUUVYTDTAmfkQDOFM4Ow9gPQlZ/2cJ5fvRKGOFwb6xkgx4
uTQlaxOlbzpbHd95s2if8KF2j9O519bEJy6smBsYwaZyCbzMDepGzJR2geJYKRaX
EreqDauP0VQauk9plAUUa/pn170AjOKV41R7YcxP2m/URtU5neqK1ggJiS/52rQ0
VENMXfjNKnV2Us6Hb9sVCN/XCFzz4/etlmgaJUS4qRyR/fJ243OIv+sIYqY4MamR
3G/c2MTuABy4Z11hdkbv13+Yx0Y1cyhG4vI+/BGXI3frSxWAVkRwPpdtQePsqtrj
oMP+3KV5QxSUAF9f0nUXmTM2nPQA7QKoafF+E7X/+pjPMw1hOEWIkvyKKYkejSmm
IbkKxgTjO+U5pJ7aRV1aeiaKtUc9fTtjhZCQ37rvLD4ePGURe1014NFY0eaFsVdp
7peOURpmEoHrVkQp2A==
-----END CERTIFICATE-----

Certificate:
    Data:
        Version: 3 (0x2)
        Serial Number: 4793571676383579 (0x1107ba60f9e95b)
    Signature Algorithm: sha256WithRSAEncryption
        Issuer: C=IL, O=StartCom Ltd., OU=Secure Digital Certificate Signing, CN=StartCom Class 3 Primary Intermediate Object CA
        Validity
            Not Before: Mar 30 03:54:07 2015 GMT
            Not After : Mar 29 18:02:17 2018 GMT
        Subject: C=FR, ST=Midi-Pyrenees, L=Toulouse, O=VSO Software SARL, CN=VSO Software SARL/emailAddress=info@vsosoftware.fr
        Subject Public Key Info:
            Public Key Algorithm: rsaEncryption
                Public-Key: (2048 bit)
                Modulus:
                    00:bf:4e:fb:1a:07:28:47:86:6d:45:df:7d:45:81:
                    0b:a8:24:9d:bc:46:78:9c:8e:3c:a4:53:15:98:b6:
                    f4:2d:aa:bc:d3:79:d8:fc:53:8a:f9:45:c9:b0:b8:
                    f6:24:29:3d:e7:e8:43:b8:66:5e:bb:4f:cf:aa:5d:
                    48:0c:4c:38:86:00:b6:33:21:10:89:56:01:00:d2:
                    c6:c7:59:af:27:a8:36:5a:f2:18:bd:ce:11:5a:db:
                    f6:cc:bc:b6:cd:22:54:ab:f1:07:26:f6:60:2d:2d:
                    9f:93:26:3e:83:55:e9:1e:a4:a9:b5:30:73:17:72:
                    49:d9:8a:9c:4b:02:dd:e8:c6:04:af:2e:07:28:9e:
                    53:85:57:74:4f:f2:84:c9:c6:2f:9a:9b:86:29:fe:
                    cf:b5:8b:a8:5f:e0:fc:d1:d5:7b:87:8a:b2:0d:ab:
                    e4:6c:16:93:fb:34:e8:99:8d:d5:9c:fb:d3:5f:8f:
                    bd:91:47:42:99:d1:1e:63:cf:71:69:76:47:e9:e6:
                    bb:67:2f:6b:2a:01:4f:e8:78:47:15:02:b1:b8:f2:
                    f1:ae:e3:db:12:97:62:38:4b:c4:78:97:02:46:2d:
                    6b:2c:6d:4a:3e:22:13:6a:e6:b7:5f:96:7a:ae:33:
                    8b:f2:e8:c5:79:a1:62:d7:35:f2:5e:d1:41:71:d7:
                    01:5b
                Exponent: 65537 (0x10001)
        X509v3 extensions:
            X509v3 Basic Constraints: 
                CA:FALSE
            X509v3 Key Usage: critical
                Digital Signature
            X509v3 Extended Key Usage: critical
                Code Signing, 1.3.6.1.4.1.311.61.1.1
            X509v3 Subject Key Identifier: 
                3F:CE:BD:CC:3A:A1:B3:4B:89:F8:73:18:FA:32:E9:73:83:4E:24:1D
            X509v3 Authority Key Identifier: 
                keyid:97:CA:73:53:A5:2E:B3:89:1A:A6:42:7D:A9:0F:93:FB:87:8C:01:18

            X509v3 Certificate Policies: 
                Policy: 1.3.6.1.4.1.23223.1.2.3
                  CPS: http://www.startssl.com/policy.pdf
                  User Notice:
                    Organization: StartCom Certification Authority
                    Number: 1
                    Explicit Text: This certificate was issued according to the Class 3 Validation requirements of the StartCom CA policy, reliance only for the intended purpose in compliance of the relying party obligations.

            X509v3 CRL Distribution Points: 

                Full Name:
                  URI:http://crl.startssl.com/crtc3-crl.crl

            Authority Information Access: 
                OCSP - URI:http://ocsp.startssl.com/sub/class3/code/ca
                CA Issuers - URI:http://aia.startssl.com/certs/sub.class3.code.ca.crt

            X509v3 Issuer Alternative Name: 
                URI:http://www.startssl.com/
    Signature Algorithm: sha256WithRSAEncryption
         46:5f:b6:e8:4d:a4:a9:09:32:67:fd:93:f8:e7:8b:db:f4:a1:
         48:41:d6:cc:1e:95:c1:35:35:71:99:c8:6f:77:0b:f9:3f:df:
         9b:51:cc:b2:a6:ed:88:9a:32:e8:0a:3d:1f:6a:ff:cc:57:15:
         63:e2:e8:e0:37:94:7b:21:3b:72:f8:88:6d:30:c4:65:c3:13:
         a2:f0:f7:9f:57:f8:52:31:77:7c:92:ec:a4:73:61:c0:4b:05:
         a5:71:80:04:41:30:97:fc:77:dc:52:1a:dd:e5:ea:cc:99:de:
         b5:56:aa:c7:db:99:ef:fb:d2:58:d6:53:13:75:00:0c:d1:88:
         66:b6:06:50:d7:24:bc:b2:5e:20:89:69:63:18:02:e3:97:9d:
         15:f0:f4:8a:55:a7:6d:ed:98:67:ef:38:7b:6b:6e:b1:bd:8c:
         d5:e0:40:46:18:30:7e:ce:ee:da:d4:00:e1:3a:70:8f:3d:30:
         87:67:52:84:fa:af:ba:d3:a0:b3:23:1b:d7:59:4f:e3:31:81:
         78:9e:e3:a0:f2:a6:6b:f4:f1:91:ac:fa:12:1e:13:d3:bb:d4:
         a4:3f:1b:9c:03:6f:af:33:4c:2f:f6:2a:72:4e:51:cb:9d:3f:
         a9:4d:b9:26:1a:28:7a:7b:5a:8b:f2:72:06:c6:12:3b:0a:3d:
         c9:8b:bf:2f
-----BEGIN CERTIFICATE-----
MIIGYTCCBUmgAwIBAgIHEQe6YPnpWzANBgkqhkiG9w0BAQsFADCBjDELMAkGA1UE
BhMCSUwxFjAUBgNVBAoTDVN0YXJ0Q29tIEx0ZC4xKzApBgNVBAsTIlNlY3VyZSBE
aWdpdGFsIENlcnRpZmljYXRlIFNpZ25pbmcxODA2BgNVBAMTL1N0YXJ0Q29tIENs
YXNzIDMgUHJpbWFyeSBJbnRlcm1lZGlhdGUgT2JqZWN0IENBMB4XDTE1MDMzMDAz
NTQwN1oXDTE4MDMyOTE4MDIxN1owgZQxCzAJBgNVBAYTAkZSMRYwFAYDVQQIEw1N
aWRpLVB5cmVuZWVzMREwDwYDVQQHEwhUb3Vsb3VzZTEaMBgGA1UEChMRVlNPIFNv
ZnR3YXJlIFNBUkwxGjAYBgNVBAMTEVZTTyBTb2Z0d2FyZSBTQVJMMSIwIAYJKoZI
hvcNAQkBFhNpbmZvQHZzb3NvZnR3YXJlLmZyMIIBIjANBgkqhkiG9w0BAQEFAAOC
AQ8AMIIBCgKCAQEAv077GgcoR4ZtRd99RYELqCSdvEZ4nI48pFMVmLb0Laq803nY
/FOK+UXJsLj2JCk95+hDuGZeu0/Pql1IDEw4hgC2MyEQiVYBANLGx1mvJ6g2WvIY
vc4RWtv2zLy2zSJUq/EHJvZgLS2fkyY+g1XpHqSptTBzF3JJ2YqcSwLd6MYEry4H
KJ5ThVd0T/KEycYvmpuGKf7PtYuoX+D80dV7h4qyDavkbBaT+zTomY3VnPvTX4+9
kUdCmdEeY89xaXZH6ea7Zy9rKgFP6HhHFQKxuPLxruPbEpdiOEvEeJcCRi1rLG1K
PiITaua3X5Z6rjOL8ujFeaFi1zXyXtFBcdcBWwIDAQABo4ICvDCCArgwCQYDVR0T
BAIwADAOBgNVHQ8BAf8EBAMCB4AwIgYDVR0lAQH/BBgwFgYIKwYBBQUHAwMGCisG
AQQBgjc9AQEwHQYDVR0OBBYEFD/Ovcw6obNLifhzGPoy6XODTiQdMB8GA1UdIwQY
MBaAFJfKc1OlLrOJGqZCfakPk/uHjAEYMIIBTAYDVR0gBIIBQzCCAT8wggE7Bgsr
BgEEAYG1NwECAzCCASowLgYIKwYBBQUHAgEWImh0dHA6Ly93d3cuc3RhcnRzc2wu
Y29tL3BvbGljeS5wZGYwgfcGCCsGAQUFBwICMIHqMCcWIFN0YXJ0Q29tIENlcnRp
ZmljYXRpb24gQXV0aG9yaXR5MAMCAQEagb5UaGlzIGNlcnRpZmljYXRlIHdhcyBp
c3N1ZWQgYWNjb3JkaW5nIHRvIHRoZSBDbGFzcyAzIFZhbGlkYXRpb24gcmVxdWly
ZW1lbnRzIG9mIHRoZSBTdGFydENvbSBDQSBwb2xpY3ksIHJlbGlhbmNlIG9ubHkg
Zm9yIHRoZSBpbnRlbmRlZCBwdXJwb3NlIGluIGNvbXBsaWFuY2Ugb2YgdGhlIHJl
bHlpbmcgcGFydHkgb2JsaWdhdGlvbnMuMDYGA1UdHwQvMC0wK6ApoCeGJWh0dHA6
Ly9jcmwuc3RhcnRzc2wuY29tL2NydGMzLWNybC5jcmwwgYkGCCsGAQUFBwEBBH0w
ezA3BggrBgEFBQcwAYYraHR0cDovL29jc3Auc3RhcnRzc2wuY29tL3N1Yi9jbGFz
czMvY29kZS9jYTBABggrBgEFBQcwAoY0aHR0cDovL2FpYS5zdGFydHNzbC5jb20v
Y2VydHMvc3ViLmNsYXNzMy5jb2RlLmNhLmNydDAjBgNVHRIEHDAahhhodHRwOi8v
d3d3LnN0YXJ0c3NsLmNvbS8wDQYJKoZIhvcNAQELBQADggEBAEZftuhNpKkJMmf9
k/jni9v0oUhB1swelcE1NXGZyG93C/k/35tRzLKm7YiaMugKPR9q/8xXFWPi6OA3
lHshO3L4iG0wxGXDE6Lw959X+FIxd3yS7KRzYcBLBaVxgARBMJf8d9xSGt3l6syZ
3rVWqsfbme/70ljWUxN1AAzRiGa2BlDXJLyyXiCJaWMYAuOXnRXw9IpVp23tmGfv
OHtrbrG9jNXgQEYYMH7O7trUAOE6cI89MIdnUoT6r7rToLMjG9dZT+MxgXie46Dy
pmv08ZGs+hIeE9O71KQ/G5wDb68zTC/2KnJOUcudP6lNuSYaKHp7WovycgbGEjsK
PcmLvy8=
-----END CERTIFICATE-----

