Certificate:
    Data:
        Version: 3 (0x2)
        Serial Number:
            9f:ea:c8:11:b0:f1:62:47:a5:fc:20:d8:05:23:ac:e6
    Signature Algorithm: sha1WithRSAEncryption
        Issuer: C=US, ST=UT, L=Salt Lake City, O=The USERTRUST Network, OU=http://www.usertrust.com, CN=UTN-USERFirst-Object
        Validity
            Not Before: May  5 00:00:00 2015 GMT
            Not After : Dec 31 23:59:59 2015 GMT
        Subject: C=GB, ST=Greater Manchester, L=Salford, O=COMODO CA Limited, CN=COMODO Time Stamping Signer
        Subject Public Key Info:
            Public Key Algorithm: rsaEncryption
                Public-Key: (2048 bit)
                Modulus:
                    00:bc:35:a0:36:70:22:81:11:c3:b2:83:b9:d3:28:
                    c6:36:cd:25:6b:a9:7b:b2:1c:f6:9b:51:9c:ef:35:
                    f4:ed:08:8e:5e:38:08:f8:77:3c:0a:42:e0:f3:70:
                    dc:a3:d7:ca:f5:4c:0b:cf:ff:22:9c:0a:7e:68:d6:
                    09:a2:2a:84:7b:a6:9d:b4:a9:c1:33:e2:ef:1f:17:
                    48:ca:3a:cd:46:e6:c5:aa:77:bd:e3:77:9a:fa:47:
                    53:40:28:59:43:93:f1:a4:81:ea:ef:80:b5:4f:a7:
                    08:ce:ba:6e:bc:ca:76:0c:97:64:59:86:24:bb:3d:
                    82:90:a8:55:b1:92:d3:a0:a7:05:ac:9f:53:25:08:
                    10:47:99:cd:98:de:68:e5:b4:50:78:a3:af:01:cc:
                    59:43:58:e4:76:6e:7e:ac:c7:e2:9e:1f:4f:b0:47:
                    2d:c8:0c:a3:49:27:80:75:8c:bb:06:91:65:0f:90:
                    9b:f4:ba:d1:81:c8:5c:6a:ec:14:e9:25:09:bf:23:
                    16:f4:95:46:40:40:21:bb:83:96:fd:86:1f:7a:c8:
                    0d:10:8e:a2:f8:19:07:58:7f:9f:bd:37:02:60:f2:
                    a4:e9:9d:44:3f:30:05:e4:a7:70:99:51:9a:e8:17:
                    f1:55:ca:b2:61:89:65:46:a7:6a:f2:58:46:7e:aa:
                    a0:07
                Exponent: 65537 (0x10001)
        X509v3 extensions:
            X509v3 Authority Key Identifier: 
                keyid:DA:ED:64:74:14:9C:14:3C:AB:DD:99:A9:BD:5B:28:4D:8B:3C:C9:D8

            X509v3 Subject Key Identifier: 
                2E:2D:B0:0A:44:4A:D3:87:C0:02:07:CE:97:7D:50:62:20:FD:0F:83
            X509v3 Key Usage: critical
                Digital Signature, Non Repudiation
            X509v3 Basic Constraints: critical
                CA:FALSE
            X509v3 Extended Key Usage: critical
                Time Stamping
            X509v3 CRL Distribution Points: 

                Full Name:
                  URI:http://crl.usertrust.com/UTN-USERFirst-Object.crl

            Authority Information Access: 
                OCSP - URI:http://ocsp.usertrust.com

    Signature Algorithm: sha1WithRSAEncryption
         0d:bb:ad:60:11:1b:b5:f0:0d:cc:e6:48:3a:7a:3e:0e:33:dc:
         1c:b9:ea:d6:20:fe:a3:4d:d0:cc:76:4e:e8:18:d8:79:df:d3:
         4f:9a:42:64:23:8a:29:72:8a:3a:6c:66:a6:3c:3a:17:a8:70:
         45:65:c6:73:c3:d0:ce:89:54:fb:ac:69:0f:58:b0:19:cb:86:
         9f:7e:b9:7e:eb:51:92:bf:9b:dd:eb:d1:65:f0:25:7b:88:7c:
         de:bd:a5:c8:b5:14:51:bc:c0:81:30:8a:85:38:7b:e6:79:fe:
         67:55:93:87:fe:4f:e8:8d:0e:ed:f3:72:92:b5:c2:89:80:6d:
         d1:59:e3:1d:0d:ea:b1:38:ee:03:9d:00:19:a5:ab:21:9b:79:
         c3:cc:c2:3e:68:7e:bd:c9:4d:69:4d:b4:64:51:fb:b2:28:74:
         e2:53:89:ce:9d:fa:ad:e2:db:ce:ab:7b:7e:06:44:74:fd:0a:
         a3:c9:b7:a7:30:cd:49:d2:92:64:f1:22:a6:b8:28:45:74:79:
         e9:a7:ce:3b:33:f9:83:50:94:7d:68:c0:1d:49:c7:60:78:7a:
         3c:64:26:d5:be:fa:0a:6d:e4:1e:e1:09:53:8f:a9:c5:23:ac:
         c7:9d:61:42:21:f0:2c:16:71:49:3b:10:af:2c:6f:1a:e6:31:
         f1:14:fd:6c
-----BEGIN CERTIFICATE-----
MIIElDCCA3ygAwIBAgIRAJ/qyBGw8WJHpfwg2AUjrOYwDQYJKoZIhvcNAQEFBQAw
gZUxCzAJBgNVBAYTAlVTMQswCQYDVQQIEwJVVDEXMBUGA1UEBxMOU2FsdCBMYWtl
IENpdHkxHjAcBgNVBAoTFVRoZSBVU0VSVFJVU1QgTmV0d29yazEhMB8GA1UECxMY
aHR0cDovL3d3dy51c2VydHJ1c3QuY29tMR0wGwYDVQQDExRVVE4tVVNFUkZpcnN0
LU9iamVjdDAeFw0xNTA1MDUwMDAwMDBaFw0xNTEyMzEyMzU5NTlaMH4xCzAJBgNV
BAYTAkdCMRswGQYDVQQIExJHcmVhdGVyIE1hbmNoZXN0ZXIxEDAOBgNVBAcTB1Nh
bGZvcmQxGjAYBgNVBAoTEUNPTU9ETyBDQSBMaW1pdGVkMSQwIgYDVQQDExtDT01P
RE8gVGltZSBTdGFtcGluZyBTaWduZXIwggEiMA0GCSqGSIb3DQEBAQUAA4IBDwAw
ggEKAoIBAQC8NaA2cCKBEcOyg7nTKMY2zSVrqXuyHPabUZzvNfTtCI5eOAj4dzwK
QuDzcNyj18r1TAvP/yKcCn5o1gmiKoR7pp20qcEz4u8fF0jKOs1G5sWqd73jd5r6
R1NAKFlDk/GkgervgLVPpwjOum68ynYMl2RZhiS7PYKQqFWxktOgpwWsn1MlCBBH
mc2Y3mjltFB4o68BzFlDWOR2bn6sx+KeH0+wRy3IDKNJJ4B1jLsGkWUPkJv0utGB
yFxq7BTpJQm/Ixb0lUZAQCG7g5b9hh96yA0QjqL4GQdYf5+9NwJg8qTpnUQ/MAXk
p3CZUZroF/FVyrJhiWVGp2ryWEZ+qqAHAgMBAAGjgfQwgfEwHwYDVR0jBBgwFoAU
2u1kdBScFDyr3ZmpvVsoTYs8ydgwHQYDVR0OBBYEFC4tsApEStOHwAIHzpd9UGIg
/Q+DMA4GA1UdDwEB/wQEAwIGwDAMBgNVHRMBAf8EAjAAMBYGA1UdJQEB/wQMMAoG
CCsGAQUFBwMIMEIGA1UdHwQ7MDkwN6A1oDOGMWh0dHA6Ly9jcmwudXNlcnRydXN0
LmNvbS9VVE4tVVNFUkZpcnN0LU9iamVjdC5jcmwwNQYIKwYBBQUHAQEEKTAnMCUG
CCsGAQUFBzABhhlodHRwOi8vb2NzcC51c2VydHJ1c3QuY29tMA0GCSqGSIb3DQEB
BQUAA4IBAQANu61gERu18A3M5kg6ej4OM9wcuerWIP6jTdDMdk7oGNh539NPmkJk
I4opcoo6bGamPDoXqHBFZcZzw9DOiVT7rGkPWLAZy4affrl+61GSv5vd69Fl8CV7
iHzevaXItRRRvMCBMIqFOHvmef5nVZOH/k/ojQ7t83KStcKJgG3RWeMdDeqxOO4D
nQAZpashm3nDzMI+aH69yU1pTbRkUfuyKHTiU4nOnfqt4tvOq3t+BkR0/Qqjyben
MM1J0pJk8SKmuChFdHnpp847M/mDUJR9aMAdScdgeHo8ZCbVvvoKbeQe4QlTj6nF
I6zHnWFCIfAsFnFJOxCvLG8a5jHxFP1s
-----END CERTIFICATE-----

Certificate:
    Data:
        Version: 3 (0x2)
        Serial Number:
            75:72:f2:81:dc:ff:c4:6f:36:e7:39:cd:73:cb:b5:49
    Signature Algorithm: sha256WithRSAEncryption
        Issuer: C=GB, ST=Greater Manchester, L=Salford, O=COMODO CA Limited, CN=COMODO RSA Code Signing CA
        Validity
            Not Before: Jun 17 00:00:00 2015 GMT
            Not After : Jun 16 23:59:59 2018 GMT
        Subject: C=CN/postalCode=100082, ST=China, L=Beijing/street=ShangDi 10 street Jia 10 Number, Haidian, O=MyIE, CN=MyIE
        Subject Public Key Info:
            Public Key Algorithm: rsaEncryption
                Public-Key: (2048 bit)
                Modulus:
                    00:97:67:4a:97:d6:58:eb:26:e7:5a:e8:b1:23:18:
                    41:58:55:a2:79:62:e4:c2:a2:46:02:46:28:9f:17:
                    b2:1c:a6:16:7b:30:54:0e:22:4c:d5:ba:b6:5a:d8:
                    43:ba:0c:c7:a6:af:01:0f:7f:32:91:c6:24:65:2e:
                    44:8a:21:6f:a3:f2:e8:8a:88:8f:1a:6e:e8:0e:0c:
                    3b:34:69:02:c0:b4:7e:19:05:97:34:a0:27:3c:c5:
                    db:d9:b4:c7:fe:d5:ac:48:ac:97:fd:0f:52:27:08:
                    c5:81:f7:ec:61:1b:3b:46:b6:c2:3d:62:b9:13:b8:
                    2c:e1:68:56:ce:30:87:ad:82:2b:ea:9e:80:0e:80:
                    d2:e2:ee:30:ca:72:da:3e:48:b5:e4:87:84:22:db:
                    92:2a:02:82:22:25:95:15:f7:5b:97:1c:32:95:6c:
                    4d:c8:5c:a8:a8:e0:39:aa:99:f2:29:01:20:55:41:
                    14:ef:80:24:70:b8:56:f9:11:b2:8e:90:3c:a9:a8:
                    9c:ab:32:89:df:48:d7:fd:38:1f:bc:f7:82:ee:28:
                    70:3a:84:21:50:5d:d2:c4:35:cc:d3:d7:bc:65:43:
                    f5:48:20:fa:00:54:b7:4a:1b:ea:49:6a:9d:28:57:
                    85:a0:06:b9:56:71:e6:4b:b0:4c:3b:1f:9a:c1:42:
                    3f:4f
                Exponent: 65537 (0x10001)
        X509v3 extensions:
            X509v3 Authority Key Identifier: 
                keyid:29:91:60:FF:8A:4D:FA:EB:F9:A6:6A:B8:CF:F9:E6:4B:BD:49:CE:12

            X509v3 Subject Key Identifier: 
                E5:CA:61:0A:87:C7:BE:9A:0E:54:09:F9:D0:2C:A8:E6:27:B1:C7:C8
            X509v3 Key Usage: critical
                Digital Signature
            X509v3 Basic Constraints: critical
                CA:FALSE
            X509v3 Extended Key Usage: 
                Code Signing
            Netscape Cert Type: 
                Object Signing
            X509v3 Certificate Policies: 
                Policy: 1.3.6.1.4.1.6449.1.2.1.3.2
                  CPS: https://secure.comodo.net/CPS

            X509v3 CRL Distribution Points: 

                Full Name:
                  URI:http://crl.comodoca.com/COMODORSACodeSigningCA.crl

            Authority Information Access: 
                CA Issuers - URI:http://crt.comodoca.com/COMODORSACodeSigningCA.crt
                OCSP - URI:http://ocsp.comodoca.com

            X509v3 Subject Alternative Name: 
                email:myie9b@gmail.com
    Signature Algorithm: sha256WithRSAEncryption
         2f:fc:e9:fd:5b:38:51:09:7d:17:af:8d:40:17:0e:17:54:99:
         b0:1f:e8:23:94:09:92:1f:58:cf:11:8b:06:67:1f:7b:1c:42:
         49:e9:a3:75:5a:c6:8b:fb:0a:1b:8d:82:61:61:01:a4:4d:31:
         88:c2:82:d3:97:29:d6:cc:fe:4f:c9:48:92:fa:70:88:b4:02:
         dc:2f:a3:f5:55:38:20:80:86:36:16:35:8e:c8:7a:f6:df:3a:
         6e:74:6e:cf:db:ee:19:dd:a3:3b:af:d0:44:3c:e7:4e:ef:93:
         6a:ea:50:9e:e6:7d:b3:0a:da:b1:91:44:0c:35:21:9d:fb:ea:
         b0:94:54:51:da:d0:53:9d:f8:57:71:05:d2:fb:86:6f:a6:08:
         10:49:77:e1:a1:59:b2:6f:bc:cc:35:5b:de:c1:2c:31:48:09:
         8e:6c:68:0b:d0:bc:1f:c5:b6:44:1e:aa:fc:2f:2f:01:27:f9:
         0f:34:a2:09:e4:a2:fe:5e:26:f5:70:b2:11:be:d9:eb:d4:e6:
         65:48:1c:61:f5:a0:62:a1:2f:05:d6:d9:ca:9d:bd:b3:a5:5c:
         c9:e3:66:41:81:33:f7:0f:5d:ae:9a:1c:65:5d:3a:8d:14:ea:
         91:f0:73:af:c4:b1:5c:f9:f7:7b:30:76:ad:a9:a1:a6:fe:b2:
         bf:e1:06:74
-----BEGIN CERTIFICATE-----
MIIFRTCCBC2gAwIBAgIQdXLygdz/xG825znNc8u1STANBgkqhkiG9w0BAQsFADB9
MQswCQYDVQQGEwJHQjEbMBkGA1UECBMSR3JlYXRlciBNYW5jaGVzdGVyMRAwDgYD
VQQHEwdTYWxmb3JkMRowGAYDVQQKExFDT01PRE8gQ0EgTGltaXRlZDEjMCEGA1UE
AxMaQ09NT0RPIFJTQSBDb2RlIFNpZ25pbmcgQ0EwHhcNMTUwNjE3MDAwMDAwWhcN
MTgwNjE2MjM1OTU5WjCBkTELMAkGA1UEBhMCQ04xDzANBgNVBBEMBjEwMDA4MjEO
MAwGA1UECAwFQ2hpbmExEDAOBgNVBAcMB0JlaWppbmcxMTAvBgNVBAkMKFNoYW5n
RGkgMTAgc3RyZWV0IEppYSAxMCBOdW1iZXIsIEhhaWRpYW4xDTALBgNVBAoMBE15
SUUxDTALBgNVBAMMBE15SUUwggEiMA0GCSqGSIb3DQEBAQUAA4IBDwAwggEKAoIB
AQCXZ0qX1ljrJuda6LEjGEFYVaJ5YuTCokYCRiifF7IcphZ7MFQOIkzVurZa2EO6
DMemrwEPfzKRxiRlLkSKIW+j8uiKiI8abugODDs0aQLAtH4ZBZc0oCc8xdvZtMf+
1axIrJf9D1InCMWB9+xhGztGtsI9YrkTuCzhaFbOMIetgivqnoAOgNLi7jDKcto+
SLXkh4Qi25IqAoIiJZUV91uXHDKVbE3IXKio4DmqmfIpASBVQRTvgCRwuFb5EbKO
kDypqJyrMonfSNf9OB+894LuKHA6hCFQXdLENczT17xlQ/VIIPoAVLdKG+pJap0o
V4WgBrlWceZLsEw7H5rBQj9PAgMBAAGjggGqMIIBpjAfBgNVHSMEGDAWgBQpkWD/
ik366/mmarjP+eZLvUnOEjAdBgNVHQ4EFgQU5cphCofHvpoOVAn50Cyo5iexx8gw
DgYDVR0PAQH/BAQDAgeAMAwGA1UdEwEB/wQCMAAwEwYDVR0lBAwwCgYIKwYBBQUH
AwMwEQYJYIZIAYb4QgEBBAQDAgQQMEYGA1UdIAQ/MD0wOwYMKwYBBAGyMQECAQMC
MCswKQYIKwYBBQUHAgEWHWh0dHBzOi8vc2VjdXJlLmNvbW9kby5uZXQvQ1BTMEMG
A1UdHwQ8MDowOKA2oDSGMmh0dHA6Ly9jcmwuY29tb2RvY2EuY29tL0NPTU9ET1JT
QUNvZGVTaWduaW5nQ0EuY3JsMHQGCCsGAQUFBwEBBGgwZjA+BggrBgEFBQcwAoYy
aHR0cDovL2NydC5jb21vZG9jYS5jb20vQ09NT0RPUlNBQ29kZVNpZ25pbmdDQS5j
cnQwJAYIKwYBBQUHMAGGGGh0dHA6Ly9vY3NwLmNvbW9kb2NhLmNvbTAbBgNVHREE
FDASgRBteWllOWJAZ21haWwuY29tMA0GCSqGSIb3DQEBCwUAA4IBAQAv/On9WzhR
CX0Xr41AFw4XVJmwH+gjlAmSH1jPEYsGZx97HEJJ6aN1WsaL+wobjYJhYQGkTTGI
woLTlynWzP5PyUiS+nCItALcL6P1VTgggIY2FjWOyHr23zpudG7P2+4Z3aM7r9BE
POdO75Nq6lCe5n2zCtqxkUQMNSGd++qwlFRR2tBTnfhXcQXS+4ZvpggQSXfhoVmy
b7zMNVvewSwxSAmObGgL0LwfxbZEHqr8Ly8BJ/kPNKIJ5KL+Xib1cLIRvtnr1OZl
SBxh9aBioS8F1tnKnb2zpVzJ42ZBgTP3D12umhxlXTqNFOqR8HOvxLFc+fd7MHat
qaGm/rK/4QZ0
-----END CERTIFICATE-----

Certificate:
    Data:
        Version: 3 (0x2)
        Serial Number:
            27:66:ee:56:eb:49:f3:8e:ab:d7:70:a2:fc:84:de:22
    Signature Algorithm: sha384WithRSAEncryption
        Issuer: C=SE, O=AddTrust AB, OU=AddTrust External TTP Network, CN=AddTrust External CA Root
        Validity
            Not Before: May 30 10:48:38 2000 GMT
            Not After : May 30 10:48:38 2020 GMT
        Subject: C=GB, ST=Greater Manchester, L=Salford, O=COMODO CA Limited, CN=COMODO RSA Certification Authority
        Subject Public Key Info:
            Public Key Algorithm: rsaEncryption
                Public-Key: (4096 bit)
                Modulus:
                    00:91:e8:54:92:d2:0a:56:b1:ac:0d:24:dd:c5:cf:
                    44:67:74:99:2b:37:a3:7d:23:70:00:71:bc:53:df:
                    c4:fa:2a:12:8f:4b:7f:10:56:bd:9f:70:72:b7:61:
                    7f:c9:4b:0f:17:a7:3d:e3:b0:04:61:ee:ff:11:97:
                    c7:f4:86:3e:0a:fa:3e:5c:f9:93:e6:34:7a:d9:14:
                    6b:e7:9c:b3:85:a0:82:7a:76:af:71:90:d7:ec:fd:
                    0d:fa:9c:6c:fa:df:b0:82:f4:14:7e:f9:be:c4:a6:
                    2f:4f:7f:99:7f:b5:fc:67:43:72:bd:0c:00:d6:89:
                    eb:6b:2c:d3:ed:8f:98:1c:14:ab:7e:e5:e3:6e:fc:
                    d8:a8:e4:92:24:da:43:6b:62:b8:55:fd:ea:c1:bc:
                    6c:b6:8b:f3:0e:8d:9a:e4:9b:6c:69:99:f8:78:48:
                    30:45:d5:ad:e1:0d:3c:45:60:fc:32:96:51:27:bc:
                    67:c3:ca:2e:b6:6b:ea:46:c7:c7:20:a0:b1:1f:65:
                    de:48:08:ba:a4:4e:a9:f2:83:46:37:84:eb:e8:cc:
                    81:48:43:67:4e:72:2a:9b:5c:bd:4c:1b:28:8a:5c:
                    22:7b:b4:ab:98:d9:ee:e0:51:83:c3:09:46:4e:6d:
                    3e:99:fa:95:17:da:7c:33:57:41:3c:8d:51:ed:0b:
                    b6:5c:af:2c:63:1a:df:57:c8:3f:bc:e9:5d:c4:9b:
                    af:45:99:e2:a3:5a:24:b4:ba:a9:56:3d:cf:6f:aa:
                    ff:49:58:be:f0:a8:ff:f4:b8:ad:e9:37:fb:ba:b8:
                    f4:0b:3a:f9:e8:43:42:1e:89:d8:84:cb:13:f1:d9:
                    bb:e1:89:60:b8:8c:28:56:ac:14:1d:9c:0a:e7:71:
                    eb:cf:0e:dd:3d:a9:96:a1:48:bd:3c:f7:af:b5:0d:
                    22:4c:c0:11:81:ec:56:3b:f6:d3:a2:e2:5b:b7:b2:
                    04:22:52:95:80:93:69:e8:8e:4c:65:f1:91:03:2d:
                    70:74:02:ea:8b:67:15:29:69:52:02:bb:d7:df:50:
                    6a:55:46:bf:a0:a3:28:61:7f:70:d0:c3:a2:aa:2c:
                    21:aa:47:ce:28:9c:06:45:76:bf:82:18:27:b4:d5:
                    ae:b4:cb:50:e6:6b:f4:4c:86:71:30:e9:a6:df:16:
                    86:e0:d8:ff:40:dd:fb:d0:42:88:7f:a3:33:3a:2e:
                    5c:1e:41:11:81:63:ce:18:71:6b:2b:ec:a6:8a:b7:
                    31:5c:3a:6a:47:e0:c3:79:59:d6:20:1a:af:f2:6a:
                    98:aa:72:bc:57:4a:d2:4b:9d:bb:10:fc:b0:4c:41:
                    e5:ed:1d:3d:5e:28:9d:9c:cc:bf:b3:51:da:a7:47:
                    e5:84:53
                Exponent: 65537 (0x10001)
        X509v3 extensions:
            X509v3 Authority Key Identifier: 
                keyid:AD:BD:98:7A:34:B4:26:F7:FA:C4:26:54:EF:03:BD:E0:24:CB:54:1A

            X509v3 Subject Key Identifier: 
                BB:AF:7E:02:3D:FA:A6:F1:3C:84:8E:AD:EE:38:98:EC:D9:32:32:D4
            X509v3 Key Usage: critical
                Digital Signature, Certificate Sign, CRL Sign
            X509v3 Basic Constraints: critical
                CA:TRUE
            X509v3 Certificate Policies: 
                Policy: X509v3 Any Policy

            X509v3 CRL Distribution Points: 

                Full Name:
                  URI:http://crl.usertrust.com/AddTrustExternalCARoot.crl

            Authority Information Access: 
                OCSP - URI:http://ocsp.usertrust.com

    Signature Algorithm: sha384WithRSAEncryption
         64:bf:83:f1:5f:9a:85:d0:cd:b8:a1:29:57:0d:e8:5a:f7:d1:
         e9:3e:f2:76:04:6e:f1:52:70:bb:1e:3c:ff:4d:0d:74:6a:cc:
         81:82:25:d3:c3:a0:2a:5d:4c:f5:ba:8b:a1:6d:c4:54:09:75:
         c7:e3:27:0e:5d:84:79:37:40:13:77:f5:b4:ac:1c:d0:3b:ab:
         17:12:d6:ef:34:18:7e:2b:e9:79:d3:ab:57:45:0c:af:28:fa:
         d0:db:e5:50:95:88:bb:df:85:57:69:7d:92:d8:52:ca:73:81:
         bf:1c:f3:e6:b8:6e:66:11:05:b3:1e:94:2d:7f:91:95:92:59:
         f1:4c:ce:a3:91:71:4c:7c:47:0c:3b:0b:19:f6:a1:b1:6c:86:
         3e:5c:aa:c4:2e:82:cb:f9:07:96:ba:48:4d:90:f2:94:c8:a9:
         73:a2:eb:06:7b:23:9d:de:a2:f3:4d:55:9f:7a:61:45:98:18:
         68:c7:5e:40:6b:23:f5:79:7a:ef:8c:b5:6b:8b:b7:6f:46:f4:
         7b:f1:3d:4b:04:d8:93:80:59:5a:e0:41:24:1d:b2:8f:15:60:
         58:47:db:ef:6e:46:fd:15:f5:d9:5f:9a:b3:db:d8:b8:e4:40:
         b3:cd:97:39:ae:85:bb:1d:8e:bc:dc:87:9b:d1:a6:ef:f1:3b:
         6f:10:38:6f
-----BEGIN CERTIFICATE-----
MIIFdDCCBFygAwIBAgIQJ2buVutJ846r13Ci/ITeIjANBgkqhkiG9w0BAQwFADBv
MQswCQYDVQQGEwJTRTEUMBIGA1UEChMLQWRkVHJ1c3QgQUIxJjAkBgNVBAsTHUFk
ZFRydXN0IEV4dGVybmFsIFRUUCBOZXR3b3JrMSIwIAYDVQQDExlBZGRUcnVzdCBF
eHRlcm5hbCBDQSBSb290MB4XDTAwMDUzMDEwNDgzOFoXDTIwMDUzMDEwNDgzOFow
gYUxCzAJBgNVBAYTAkdCMRswGQYDVQQIExJHcmVhdGVyIE1hbmNoZXN0ZXIxEDAO
BgNVBAcTB1NhbGZvcmQxGjAYBgNVBAoTEUNPTU9ETyBDQSBMaW1pdGVkMSswKQYD
VQQDEyJDT01PRE8gUlNBIENlcnRpZmljYXRpb24gQXV0aG9yaXR5MIICIjANBgkq
hkiG9w0BAQEFAAOCAg8AMIICCgKCAgEAkehUktIKVrGsDSTdxc9EZ3SZKzejfSNw
AHG8U9/E+ioSj0t/EFa9n3Byt2F/yUsPF6c947AEYe7/EZfH9IY+Cvo+XPmT5jR6
2RRr55yzhaCCenavcZDX7P0N+pxs+t+wgvQUfvm+xKYvT3+Zf7X8Z0NyvQwA1onr
ayzT7Y+YHBSrfuXjbvzYqOSSJNpDa2K4Vf3qwbxstovzDo2a5JtsaZn4eEgwRdWt
4Q08RWD8MpZRJ7xnw8outmvqRsfHIKCxH2XeSAi6pE6p8oNGN4Tr6MyBSENnTnIq
m1y9TBsoilwie7SrmNnu4FGDwwlGTm0+mfqVF9p8M1dBPI1R7Qu2XK8sYxrfV8g/
vOldxJuvRZnio1oktLqpVj3Pb6r/SVi+8Kj/9Lit6Tf7urj0Czr56ENCHonYhMsT
8dm74YlguIwoVqwUHZwK53Hrzw7dPamWoUi9PPevtQ0iTMARgexWO/bTouJbt7IE
IlKVgJNp6I5MZfGRAy1wdALqi2cVKWlSArvX31BqVUa/oKMoYX9w0MOiqiwhqkfO
KJwGRXa/ghgntNWutMtQ5mv0TIZxMOmm3xaG4Nj/QN370EKIf6MzOi5cHkERgWPO
GHFrK+ymircxXDpqR+DDeVnWIBqv8mqYqnK8V0rSS527EPywTEHl7R09XiidnMy/
s1Hap0flhFMCAwEAAaOB9DCB8TAfBgNVHSMEGDAWgBStvZh6NLQm9/rEJlTvA73g
JMtUGjAdBgNVHQ4EFgQUu69+Aj36pvE8hI6t7jiY7NkyMtQwDgYDVR0PAQH/BAQD
AgGGMA8GA1UdEwEB/wQFMAMBAf8wEQYDVR0gBAowCDAGBgRVHSAAMEQGA1UdHwQ9
MDswOaA3oDWGM2h0dHA6Ly9jcmwudXNlcnRydXN0LmNvbS9BZGRUcnVzdEV4dGVy
bmFsQ0FSb290LmNybDA1BggrBgEFBQcBAQQpMCcwJQYIKwYBBQUHMAGGGWh0dHA6
Ly9vY3NwLnVzZXJ0cnVzdC5jb20wDQYJKoZIhvcNAQEMBQADggEBAGS/g/FfmoXQ
zbihKVcN6Fr30ek+8nYEbvFScLsePP9NDXRqzIGCJdPDoCpdTPW6i6FtxFQJdcfj
Jw5dhHk3QBN39bSsHNA7qxcS1u80GH4r6XnTq1dFDK8o+tDb5VCViLvfhVdpfZLY
Uspzgb8c8+a4bmYRBbMelC1/kZWSWfFMzqORcUx8Rww7Cxn2obFshj5cqsQugsv5
B5a6SE2Q8pTIqXOi6wZ7I53eovNNVZ96YUWYGGjHXkBrI/V5eu+MtWuLt29G9Hvx
PUsE2JOAWVrgQSQdso8VYFhH2+9uRv0V9dlfmrPb2LjkQLPNlzmuhbsdjrzch5vR
pu/xO28QOG8=
-----END CERTIFICATE-----

Certificate:
    Data:
        Version: 3 (0x2)
        Serial Number:
            2e:7c:87:cc:0e:93:4a:52:fe:94:fd:1c:b7:cd:34:af
    Signature Algorithm: sha384WithRSAEncryption
        Issuer: C=GB, ST=Greater Manchester, L=Salford, O=COMODO CA Limited, CN=COMODO RSA Certification Authority
        Validity
            Not Before: May  9 00:00:00 2013 GMT
            Not After : May  8 23:59:59 2028 GMT
        Subject: C=GB, ST=Greater Manchester, L=Salford, O=COMODO CA Limited, CN=COMODO RSA Code Signing CA
        Subject Public Key Info:
            Public Key Algorithm: rsaEncryption
                Public-Key: (2048 bit)
                Modulus:
                    00:a6:98:90:63:77:91:34:7f:8a:d1:dd:e9:67:31:
                    11:eb:cc:1e:fd:31:1d:b3:b9:62:57:3f:93:bc:5b:
                    e3:9f:1e:24:32:11:27:6b:bc:51:91:a7:cf:9e:9e:
                    25:b3:5f:81:a8:18:0f:1d:1e:20:30:0e:fb:61:7b:
                    86:09:b3:e3:fd:a2:68:9d:1c:2c:9d:bf:72:e3:e4:
                    75:a0:e5:35:23:8e:c9:8a:ee:1a:0c:64:c7:d8:42:
                    a1:7b:b5:52:03:4b:3a:b0:8e:23:4b:4b:63:e0:22:
                    94:37:7b:d5:79:90:0a:14:18:51:2c:e6:fe:c1:12:
                    f0:1c:3f:61:61:0a:8c:a2:dc:f6:c3:30:aa:cd:28:
                    18:75:48:c1:79:5a:08:cd:bb:8c:55:8c:f7:d4:76:
                    90:3a:33:46:50:73:98:5c:f4:85:4a:6b:0f:80:dd:
                    5e:d6:bd:fd:a9:2f:c0:25:f5:f9:78:d7:8d:5f:10:
                    c2:44:55:3c:90:3c:31:46:cb:70:ae:07:a9:0a:e3:
                    af:c1:01:6f:90:1a:23:e2:5f:38:db:c6:08:5d:47:
                    b3:83:41:f0:2e:00:37:14:b9:12:aa:79:92:52:cd:
                    87:0f:7b:d8:62:29:a4:7e:30:bd:1b:b5:8c:72:b4:
                    48:f2:e3:e8:21:f9:5e:4c:62:79:8b:02:06:9f:7f:
                    d5:0b
                Exponent: 65537 (0x10001)
        X509v3 extensions:
            X509v3 Authority Key Identifier: 
                keyid:BB:AF:7E:02:3D:FA:A6:F1:3C:84:8E:AD:EE:38:98:EC:D9:32:32:D4

            X509v3 Subject Key Identifier: 
                29:91:60:FF:8A:4D:FA:EB:F9:A6:6A:B8:CF:F9:E6:4B:BD:49:CE:12
            X509v3 Key Usage: critical
                Digital Signature, Certificate Sign, CRL Sign
            X509v3 Basic Constraints: critical
                CA:TRUE, pathlen:0
            X509v3 Extended Key Usage: 
                Code Signing
            X509v3 Certificate Policies: 
                Policy: X509v3 Any Policy

            X509v3 CRL Distribution Points: 

                Full Name:
                  URI:http://crl.comodoca.com/COMODORSACertificationAuthority.crl

            Authority Information Access: 
                CA Issuers - URI:http://crt.comodoca.com/COMODORSAAddTrustCA.crt
                OCSP - URI:http://ocsp.comodoca.com

    Signature Algorithm: sha384WithRSAEncryption
         02:3f:02:39:c3:ee:f8:ca:3b:89:de:0c:6d:4d:b1:f1:4e:92:
         4f:af:c2:38:2c:04:cc:c5:63:11:ab:09:63:af:ab:a2:d7:02:
         3f:cc:6f:19:c3:3d:d6:1a:08:94:ff:25:d8:a9:88:a7:2b:10:
         1a:e0:9b:b1:07:22:1a:51:1c:3a:d4:e1:e9:09:bf:e6:24:74:
         af:1e:7b:16:31:6e:23:ef:54:51:2d:52:02:e2:75:08:05:4c:
         f1:b7:51:e1:51:00:c6:87:f6:6c:ee:10:44:76:57:6a:f1:df:
         58:6b:21:aa:49:d4:7c:37:4e:bd:ff:b6:75:54:40:18:36:57:
         67:11:cd:4f:02:e4:fe:f3:da:fc:75:17:db:ec:b7:f7:65:09:
         23:49:1f:43:57:83:ea:7e:20:77:61:c8:4d:f2:bb:65:4d:a8:
         f7:85:45:07:af:7a:69:27:65:90:29:40:8b:df:7b:3a:51:39:
         8c:a8:1f:70:79:ad:6d:42:20:a2:cf:0c:6c:03:8c:4c:cd:73:
         07:94:e7:5a:8e:3a:04:ba:a2:a1:7c:1f:cb:63:3a:15:a7:d4:
         15:1b:a7:52:47:32:a9:f4:bf:64:47:d1:aa:1f:53:4e:32:30:
         73:c2:6f:b7:78:82:9d:5c:ff:46:bb:6b:22:1d:88:0b:f8:1b:
         aa:34:a6:fc:8c:f5:dd:7f:65:8c:8c:31:57:31:d0:36:ec:47:
         a1:cf:cb:8b:a8:ef:1c:18:58:c5:06:77:ca:4b:9b:51:af:4c:
         08:4a:7a:8f:e2:a3:52:e2:8e:8e:cc:26:e4:b2:d8:e5:38:c2:
         a8:ed:c6:81:9c:35:6b:a9:58:61:4a:0a:97:b4:4b:42:b6:55:
         9d:be:99:e7:70:6d:59:f8:6d:2a:0c:7f:19:60:5f:0c:9a:88:
         6c:30:ac:52:09:90:16:1b:ff:2b:9d:db:d0:20:ca:89:ea:28:
         7e:32:8e:19:df:7b:48:33:1e:d7:65:f8:ae:c9:f8:83:14:93:
         76:7d:64:d0:8e:ce:be:35:7d:ff:72:31:4d:9f:9e:bd:1e:6c:
         2f:a8:8f:0c:06:50:fb:8c:27:b3:76:c9:f4:e6:d7:c3:34:e2:
         8c:87:21:86:61:fe:bf:55:74:e1:21:77:03:0a:68:6c:bb:e4:
         c9:a9:e6:cf:59:25:eb:7c:ec:45:0e:79:66:68:e8:22:cd:b8:
         ef:98:85:4d:96:11:3c:09:8a:d0:7f:bc:28:28:13:fb:6a:ca:
         54:8d:92:5c:cd:c2:65:98:06:9e:ce:48:5b:d4:b5:37:93:46:
         41:7c:07:dd:cf:fa:43:ef:ba:67:61:ff:7d:49:e0:bb:30:7d:
         5c:80:e3:e6:16:39:4b:a7
-----BEGIN CERTIFICATE-----
MIIF4DCCA8igAwIBAgIQLnyHzA6TSlL+lP0ct800rzANBgkqhkiG9w0BAQwFADCB
hTELMAkGA1UEBhMCR0IxGzAZBgNVBAgTEkdyZWF0ZXIgTWFuY2hlc3RlcjEQMA4G
A1UEBxMHU2FsZm9yZDEaMBgGA1UEChMRQ09NT0RPIENBIExpbWl0ZWQxKzApBgNV
BAMTIkNPTU9ETyBSU0EgQ2VydGlmaWNhdGlvbiBBdXRob3JpdHkwHhcNMTMwNTA5
MDAwMDAwWhcNMjgwNTA4MjM1OTU5WjB9MQswCQYDVQQGEwJHQjEbMBkGA1UECBMS
R3JlYXRlciBNYW5jaGVzdGVyMRAwDgYDVQQHEwdTYWxmb3JkMRowGAYDVQQKExFD
T01PRE8gQ0EgTGltaXRlZDEjMCEGA1UEAxMaQ09NT0RPIFJTQSBDb2RlIFNpZ25p
bmcgQ0EwggEiMA0GCSqGSIb3DQEBAQUAA4IBDwAwggEKAoIBAQCmmJBjd5E0f4rR
3elnMRHrzB79MR2zuWJXP5O8W+OfHiQyESdrvFGRp8+eniWzX4GoGA8dHiAwDvth
e4YJs+P9omidHCydv3Lj5HWg5TUjjsmK7hoMZMfYQqF7tVIDSzqwjiNLS2PgIpQ3
e9V5kAoUGFEs5v7BEvAcP2FhCoyi3PbDMKrNKBh1SMF5WgjNu4xVjPfUdpA6M0ZQ
c5hc9IVKaw+A3V7Wvf2pL8Al9fl4141fEMJEVTyQPDFGy3CuB6kK46/BAW+QGiPi
XzjbxghdR7ODQfAuADcUuRKqeZJSzYcPe9hiKaR+ML0btYxytEjy4+gh+V5MYnmL
Agaff9ULAgMBAAGjggFRMIIBTTAfBgNVHSMEGDAWgBS7r34CPfqm8TyEjq3uOJjs
2TIy1DAdBgNVHQ4EFgQUKZFg/4pN+uv5pmq4z/nmS71JzhIwDgYDVR0PAQH/BAQD
AgGGMBIGA1UdEwEB/wQIMAYBAf8CAQAwEwYDVR0lBAwwCgYIKwYBBQUHAwMwEQYD
VR0gBAowCDAGBgRVHSAAMEwGA1UdHwRFMEMwQaA/oD2GO2h0dHA6Ly9jcmwuY29t
b2RvY2EuY29tL0NPTU9ET1JTQUNlcnRpZmljYXRpb25BdXRob3JpdHkuY3JsMHEG
CCsGAQUFBwEBBGUwYzA7BggrBgEFBQcwAoYvaHR0cDovL2NydC5jb21vZG9jYS5j
b20vQ09NT0RPUlNBQWRkVHJ1c3RDQS5jcnQwJAYIKwYBBQUHMAGGGGh0dHA6Ly9v
Y3NwLmNvbW9kb2NhLmNvbTANBgkqhkiG9w0BAQwFAAOCAgEAAj8COcPu+Mo7id4M
bU2x8U6ST6/COCwEzMVjEasJY6+rotcCP8xvGcM91hoIlP8l2KmIpysQGuCbsQci
GlEcOtTh6Qm/5iR0rx57FjFuI+9UUS1SAuJ1CAVM8bdR4VEAxof2bO4QRHZXavHf
WGshqknUfDdOvf+2dVRAGDZXZxHNTwLk/vPa/HUX2+y392UJI0kfQ1eD6n4gd2HI
TfK7ZU2o94VFB696aSdlkClAi997OlE5jKgfcHmtbUIgos8MbAOMTM1zB5TnWo46
BLqioXwfy2M6FafUFRunUkcyqfS/ZEfRqh9TTjIwc8Jvt3iCnVz/RrtrIh2IC/gb
qjSm/Iz13X9ljIwxVzHQNuxHoc/Li6jvHBhYxQZ3ykubUa9MCEp6j+KjUuKOjswm
5LLY5TjCqO3GgZw1a6lYYUoKl7RLQrZVnb6Z53BtWfhtKgx/GWBfDJqIbDCsUgmQ
Fhv/K53b0CDKieoofjKOGd97SDMe12X4rsn4gxSTdn1k0I7OvjV9/3IxTZ+evR5s
L6iPDAZQ+4wns3bJ9ObXwzTijIchhmH+v1V04SF3AwpobLvkyanmz1kl63zsRQ55
ZmjoIs2475iFTZYRPAmK0H+8KCgT+2rKVI2SXM3CZZgGns5IW9S1N5NGQXwH3c/6
Q++6Z2H/fUnguzB9XIDj5hY5S6c=
-----END CERTIFICATE-----

