Certificate:
    Data:
        Version: 3 (0x2)
        Serial Number:
            04:00:00:00:00:01:21:58:53:08:a2
    Signature Algorithm: sha256WithRSAEncryption
        Issuer: OU=GlobalSign Root CA - R3, O=GlobalSign, CN=GlobalSign
        Validity
            Not Before: Mar 18 10:00:00 2009 GMT
            Not After : Mar 18 10:00:00 2029 GMT
        Subject: OU=GlobalSign Root CA - R3, O=GlobalSign, CN=GlobalSign
        Subject Public Key Info:
            Public Key Algorithm: rsaEncryption
                Public-Key: (2048 bit)
                Modulus:
                    00:cc:25:76:90:79:06:78:22:16:f5:c0:83:b6:84:
                    ca:28:9e:fd:05:76:11:c5:ad:88:72:fc:46:02:43:
                    c7:b2:8a:9d:04:5f:24:cb:2e:4b:e1:60:82:46:e1:
                    52:ab:0c:81:47:70:6c:dd:64:d1:eb:f5:2c:a3:0f:
                    82:3d:0c:2b:ae:97:d7:b6:14:86:10:79:bb:3b:13:
                    80:77:8c:08:e1:49:d2:6a:62:2f:1f:5e:fa:96:68:
                    df:89:27:95:38:9f:06:d7:3e:c9:cb:26:59:0d:73:
                    de:b0:c8:e9:26:0e:83:15:c6:ef:5b:8b:d2:04:60:
                    ca:49:a6:28:f6:69:3b:f6:cb:c8:28:91:e5:9d:8a:
                    61:57:37:ac:74:14:dc:74:e0:3a:ee:72:2f:2e:9c:
                    fb:d0:bb:bf:f5:3d:00:e1:06:33:e8:82:2b:ae:53:
                    a6:3a:16:73:8c:dd:41:0e:20:3a:c0:b4:a7:a1:e9:
                    b2:4f:90:2e:32:60:e9:57:cb:b9:04:92:68:68:e5:
                    38:26:60:75:b2:9f:77:ff:91:14:ef:ae:20:49:fc:
                    ad:40:15:48:d1:02:31:61:19:5e:b8:97:ef:ad:77:
                    b7:64:9a:7a:bf:5f:c1:13:ef:9b:62:fb:0d:6c:e0:
                    54:69:16:a9:03:da:6e:e9:83:93:71:76:c6:69:85:
                    82:17
                Exponent: 65537 (0x10001)
        X509v3 extensions:
            X509v3 Key Usage: critical
                Certificate Sign, CRL Sign
            X509v3 Basic Constraints: critical
                CA:TRUE
            X509v3 Subject Key Identifier: 
                8F:F0:4B:7F:A8:2E:45:24:AE:4D:50:FA:63:9A:8B:DE:E2:DD:1B:BC
    Signature Algorithm: sha256WithRSAEncryption
         4b:40:db:c0:50:aa:fe:c8:0c:ef:f7:96:54:45:49:bb:96:00:
         09:41:ac:b3:13:86:86:28:07:33:ca:6b:e6:74:b9:ba:00:2d:
         ae:a4:0a:d3:f5:f1:f1:0f:8a:bf:73:67:4a:83:c7:44:7b:78:
         e0:af:6e:6c:6f:03:29:8e:33:39:45:c3:8e:e4:b9:57:6c:aa:
         fc:12:96:ec:53:c6:2d:e4:24:6c:b9:94:63:fb:dc:53:68:67:
         56:3e:83:b8:cf:35:21:c3:c9:68:fe:ce:da:c2:53:aa:cc:90:
         8a:e9:f0:5d:46:8c:95:dd:7a:58:28:1a:2f:1d:de:cd:00:37:
         41:8f:ed:44:6d:d7:53:28:97:7e:f3:67:04:1e:15:d7:8a:96:
         b4:d3:de:4c:27:a4:4c:1b:73:73:76:f4:17:99:c2:1f:7a:0e:
         e3:2d:08:ad:0a:1c:2c:ff:3c:ab:55:0e:0f:91:7e:36:eb:c3:
         57:49:be:e1:2e:2d:7c:60:8b:c3:41:51:13:23:9d:ce:f7:32:
         6b:94:01:a8:99:e7:2c:33:1f:3a:3b:25:d2:86:40:ce:3b:2c:
         86:78:c9:61:2f:14:ba:ee:db:55:6f:df:84:ee:05:09:4d:bd:
         28:d8:72:ce:d3:62:50:65:1e:eb:92:97:83:31:d9:b3:b5:ca:
         47:58:3f:5f
-----BEGIN CERTIFICATE-----
MIIDXzCCAkegAwIBAgILBAAAAAABIVhTCKIwDQYJKoZIhvcNAQELBQAwTDEgMB4G
A1UECxMXR2xvYmFsU2lnbiBSb290IENBIC0gUjMxEzARBgNVBAoTCkdsb2JhbFNp
Z24xEzARBgNVBAMTCkdsb2JhbFNpZ24wHhcNMDkwMzE4MTAwMDAwWhcNMjkwMzE4
MTAwMDAwWjBMMSAwHgYDVQQLExdHbG9iYWxTaWduIFJvb3QgQ0EgLSBSMzETMBEG
A1UEChMKR2xvYmFsU2lnbjETMBEGA1UEAxMKR2xvYmFsU2lnbjCCASIwDQYJKoZI
hvcNAQEBBQADggEPADCCAQoCggEBAMwldpB5BngiFvXAg7aEyiie/QV2EcWtiHL8
RgJDx7KKnQRfJMsuS+FggkbhUqsMgUdwbN1k0ev1LKMPgj0MK66X17YUhhB5uzsT
gHeMCOFJ0mpiLx9e+pZo34knlTifBtc+ycsmWQ1z3rDI6SYOgxXG71uL0gRgykmm
KPZpO/bLyCiR5Z2KYVc3rHQU3HTgOu5yLy6c+9C7v/U9AOEGM+iCK65TpjoWc4zd
QQ4gOsC0p6Hpsk+QLjJg6VfLuQSSaGjlOCZgdbKfd/+RFO+uIEn8rUAVSNECMWEZ
XriX7613t2Saer9fwRPvm2L7DWzgVGkWqQPabumDk3F2xmmFghcCAwEAAaNCMEAw
DgYDVR0PAQH/BAQDAgEGMA8GA1UdEwEB/wQFMAMBAf8wHQYDVR0OBBYEFI/wS3+o
LkUkrk1Q+mOai97i3Ru8MA0GCSqGSIb3DQEBCwUAA4IBAQBLQNvAUKr+yAzv95ZU
RUm7lgAJQayzE4aGKAczymvmdLm6AC2upArT9fHxD4q/c2dKg8dEe3jgr25sbwMp
jjM5RcOO5LlXbKr8EpbsU8Yt5CRsuZRj+9xTaGdWPoO4zzUhw8lo/s7awlOqzJCK
6fBdRoyV3XpYKBovHd7NADdBj+1EbddTKJd+82cEHhXXipa0095MJ6RMG3NzdvQX
mcIfeg7jLQitChws/zyrVQ4PkX4268NXSb7hLi18YIvDQVETI53O9zJrlAGomecs
Mx86OyXShkDOOyyGeMlhLxS67ttVb9+E7gUJTb0o2HLO02JQZR7rkpeDMdmztcpH
WD9f
-----END CERTIFICATE-----

Certificate:
    Data:
        Version: 3 (0x2)
        Serial Number:
            48:1b:6a:07:26:d2:e8:3f:26:02:d4:82:5a:cd
    Signature Algorithm: sha256WithRSAEncryption
        Issuer: OU=GlobalSign Root CA - R3, O=GlobalSign, CN=GlobalSign
        Validity
            Not Before: Jun 15 00:00:00 2016 GMT
            Not After : Jun 15 00:00:00 2024 GMT
        Subject: C=BE, O=GlobalSign nv-sa, CN=GlobalSign CodeSigning CA - SHA256 - G3
        Subject Public Key Info:
            Public Key Algorithm: rsaEncryption
                Public-Key: (2048 bit)
                Modulus:
                    00:8d:85:55:23:a9:1f:53:af:c9:ed:36:c2:29:b5:
                    6e:d8:f9:42:f5:21:8b:87:f0:43:a1:2f:c0:3f:97:
                    e3:18:47:d4:96:4e:88:ab:c6:63:e9:b6:49:15:85:
                    f1:d9:9b:7b:1b:fd:d8:4a:cc:6d:4e:86:40:17:cd:
                    7b:ba:47:28:b5:d6:14:40:0c:86:ee:1e:4b:33:f3:
                    2c:55:ee:21:8c:da:b6:c1:fe:b0:4e:3a:ae:51:9f:
                    a5:14:e3:10:e6:93:ca:fa:f9:5d:b1:90:87:ef:f8:
                    35:2d:fc:a2:5c:26:ee:7b:15:8b:1f:d9:c3:a1:97:
                    35:41:b3:30:fd:72:13:ad:91:97:3a:ce:72:9d:06:
                    0a:75:3c:1f:98:e3:cb:18:2f:8c:9f:08:4a:91:0a:
                    d9:d9:35:d9:83:92:76:62:5e:df:83:ae:e4:d6:01:
                    4e:cc:f3:3c:70:61:58:37:1f:14:e3:6a:a0:af:6b:
                    f4:d9:d2:6c:2c:19:30:5d:a0:6f:52:df:d1:9c:c9:
                    e0:0d:d9:75:11:65:96:d9:43:b4:a7:90:39:ae:47:
                    1c:54:cb:b1:95:6e:25:de:8e:f1:12:1c:f0:d7:6e:
                    e7:14:4d:b3:1a:65:d6:84:4a:57:ee:04:af:62:38:
                    c5:10:9b:43:8e:52:b8:3e:b6:ae:9e:2c:97:ff:8e:
                    74:ef
                Exponent: 65537 (0x10001)
        X509v3 extensions:
            X509v3 Key Usage: critical
                Certificate Sign, CRL Sign
            X509v3 Extended Key Usage: 
                Code Signing, OCSP Signing
            X509v3 Basic Constraints: critical
                CA:TRUE, pathlen:0
            X509v3 Subject Key Identifier: 
                0F:3A:E7:AC:94:91:74:2D:96:02:73:83:AD:9C:2E:49:3F:19:AA:54
            X509v3 Authority Key Identifier: 
                keyid:8F:F0:4B:7F:A8:2E:45:24:AE:4D:50:FA:63:9A:8B:DE:E2:DD:1B:BC

            Authority Information Access: 
                OCSP - URI:http://ocsp2.globalsign.com/rootr3

            X509v3 CRL Distribution Points: 

                Full Name:
                  URI:http://crl.globalsign.com/root-r3.crl

            X509v3 Certificate Policies: 
                Policy: 1.3.6.1.4.1.4146.1.50
                Policy: 2.23.140.1.4.1
                Policy: 1.3.6.1.4.1.4146.1.95
                  CPS: https://www.globalsign.com/repository/

    Signature Algorithm: sha256WithRSAEncryption
         15:84:28:0c:ed:a1:c3:19:82:db:63:27:41:d7:cc:63:7d:d6:
         bc:cf:36:9b:cf:d2:5d:4c:02:8b:58:1a:16:08:7a:b1:98:99:
         7f:d8:33:8a:5c:9e:62:0a:9a:ea:90:c2:c5:63:04:0b:e8:87:
         58:06:00:07:82:59:c3:a8:94:32:d9:e0:14:4d:a0:d5:23:e0:
         c7:dd:ba:f0:69:e2:4a:45:65:2d:4d:49:90:78:66:32:0e:b0:
         68:c0:b0:88:b0:8e:ed:5c:06:f8:5c:10:48:3f:23:73:ba:3b:
         53:84:52:80:cd:f0:b3:15:c8:11:0a:8b:05:78:46:59:08:d4:
         be:b7:ff:4b:f5:9c:6a:4c:9c:76:a2:11:85:45:8c:d4:37:ee:
         50:dd:e1:33:34:a9:a1:1f:3a:0b:f1:56:44:8a:6f:b3:33:d0:
         b1:8e:d1:0c:60:07:ee:32:c2:f0:24:6f:bf:af:fb:81:01:76:
         67:c4:a3:e8:e0:ab:dc:33:55:28:e3:67:47:3c:eb:6a:a4:df:
         94:e9:f4:a6:c0:81:d1:52:98:51:a6:d6:02:b7:3c:ea:4a:ef:
         d0:ba:65:d2:37:83:53:4b:7e:67:7c:8c:40:f6:07:1c:b0:af:
         04:06:dc:f8:6c:46:88:72:9c:eb:4e:9d:c3:b0:b9:54:a3:b9:
         4e:97:ca:14
-----BEGIN CERTIFICATE-----
MIIElDCCA3ygAwIBAgIOSBtqBybS6D8mAtSCWs0wDQYJKoZIhvcNAQELBQAwTDEg
MB4GA1UECxMXR2xvYmFsU2lnbiBSb290IENBIC0gUjMxEzARBgNVBAoTCkdsb2Jh
bFNpZ24xEzARBgNVBAMTCkdsb2JhbFNpZ24wHhcNMTYwNjE1MDAwMDAwWhcNMjQw
NjE1MDAwMDAwWjBaMQswCQYDVQQGEwJCRTEZMBcGA1UEChMQR2xvYmFsU2lnbiBu
di1zYTEwMC4GA1UEAxMnR2xvYmFsU2lnbiBDb2RlU2lnbmluZyBDQSAtIFNIQTI1
NiAtIEczMIIBIjANBgkqhkiG9w0BAQEFAAOCAQ8AMIIBCgKCAQEAjYVVI6kfU6/J
7TbCKbVu2PlC9SGLh/BDoS/AP5fjGEfUlk6Iq8Zj6bZJFYXx2Zt7G/3YSsxtToZA
F817ukcotdYUQAyG7h5LM/MsVe4hjNq2wf6wTjquUZ+lFOMQ5pPK+vldsZCH7/g1
LfyiXCbuexWLH9nDoZc1QbMw/XITrZGXOs5ynQYKdTwfmOPLGC+MnwhKkQrZ2TXZ
g5J2Yl7fg67k1gFOzPM8cGFYNx8U42qgr2v02dJsLBkwXaBvUt/RnMngDdl1EWWW
2UO0p5A5rkccVMuxlW4l3o7xEhzw127nFE2zGmXWhEpX7gSvYjjFEJtDjlK4Prau
niyX/4507wIDAQABo4IBZDCCAWAwDgYDVR0PAQH/BAQDAgEGMB0GA1UdJQQWMBQG
CCsGAQUFBwMDBggrBgEFBQcDCTASBgNVHRMBAf8ECDAGAQH/AgEAMB0GA1UdDgQW
BBQPOueslJF0LZYCc4OtnC5JPxmqVDAfBgNVHSMEGDAWgBSP8Et/qC5FJK5NUPpj
move4t0bvDA+BggrBgEFBQcBAQQyMDAwLgYIKwYBBQUHMAGGImh0dHA6Ly9vY3Nw
Mi5nbG9iYWxzaWduLmNvbS9yb290cjMwNgYDVR0fBC8wLTAroCmgJ4YlaHR0cDov
L2NybC5nbG9iYWxzaWduLmNvbS9yb290LXIzLmNybDBjBgNVHSAEXDBaMAsGCSsG
AQQBoDIBMjAIBgZngQwBBAEwQQYJKwYBBAGgMgFfMDQwMgYIKwYBBQUHAgEWJmh0
dHBzOi8vd3d3Lmdsb2JhbHNpZ24uY29tL3JlcG9zaXRvcnkvMA0GCSqGSIb3DQEB
CwUAA4IBAQAVhCgM7aHDGYLbYydB18xjfda8zzabz9JdTAKLWBoWCHqxmJl/2DOK
XJ5iCprqkMLFYwQL6IdYBgAHglnDqJQy2eAUTaDVI+DH3brwaeJKRWUtTUmQeGYy
DrBowLCIsI7tXAb4XBBIPyNzujtThFKAzfCzFcgRCosFeEZZCNS+t/9L9ZxqTJx2
ohGFRYzUN+5Q3eEzNKmhHzoL8VZEim+zM9CxjtEMYAfuMsLwJG+/r/uBAXZnxKPo
4KvcM1Uo42dHPOtqpN+U6fSmwIHRUphRptYCtzzqSu/QumXSN4NTS35nfIxA9gcc
sK8EBtz4bEaIcpzrTp3DsLlUo7lOl8oU
-----END CERTIFICATE-----

Certificate:
    Data:
        Version: 3 (0x2)
        Serial Number:
            78:24:30:8e:cf:37:cf:73:54:08:d8:d0
    Signature Algorithm: sha256WithRSAEncryption
        Issuer: C=BE, O=GlobalSign nv-sa, CN=GlobalSign CodeSigning CA - SHA256 - G3
        Validity
            Not Before: Oct 23 07:14:31 2017 GMT
            Not After : Oct 24 07:14:31 2018 GMT
        Subject: C=CN, ST=\xE6\xB1\x9F\xE8\x8B\x8F\xE7\x9C\x81, L=\xE6\xB7\xAE\xE5\xAE\x89\xE5\xB8\x82, O=Huai'an Qianfeng Network Technology Co., Ltd., CN=Huai'an Qianfeng Network Technology Co., Ltd.
        Subject Public Key Info:
            Public Key Algorithm: rsaEncryption
                Public-Key: (2048 bit)
                Modulus:
                    00:d4:fa:73:e9:f1:cd:75:cb:95:66:e6:76:67:7b:
                    74:90:25:3b:8c:95:8d:db:3c:ba:25:9a:f5:86:b1:
                    34:b3:e2:9e:5e:fc:01:6c:bd:e5:f4:df:d5:c9:a5:
                    39:b0:d6:f7:72:a5:8c:01:0f:a3:20:0b:c9:95:24:
                    6e:04:6a:f5:f9:31:2c:c6:01:17:cb:52:ec:08:30:
                    ad:a7:7c:d6:44:2c:69:11:39:2a:89:88:01:ab:0f:
                    61:c7:7a:14:64:f3:1a:f3:f5:c8:73:bc:a3:ca:04:
                    a6:ff:44:8a:83:15:9e:54:a4:e3:e6:1c:2b:e9:a3:
                    52:fe:6d:99:fc:f1:22:31:5d:3e:46:5e:e9:65:80:
                    d7:64:8f:fc:24:93:8a:7b:6e:75:75:0d:4f:ec:55:
                    85:8f:4c:a7:1d:b6:7e:7c:7f:0e:d1:e9:0d:e6:c2:
                    ee:de:57:37:99:cc:44:b4:a5:14:94:ed:2d:09:c5:
                    60:77:40:1e:5c:f6:71:da:b0:19:2c:a6:03:a2:c4:
                    86:17:b6:16:4b:d8:08:fb:2b:ea:d0:46:e7:9b:c7:
                    cf:1b:1d:3f:25:45:1c:ca:bf:26:23:9d:b1:5d:f7:
                    3f:08:93:72:96:f0:35:2b:e9:3f:e9:84:e0:17:d8:
                    2a:af:a3:b3:33:25:39:0a:b6:92:77:cb:7a:7c:24:
                    5a:b5
                Exponent: 65537 (0x10001)
        X509v3 extensions:
            X509v3 Key Usage: critical
                Digital Signature
            Authority Information Access: 
                CA Issuers - URI:http://secure.globalsign.com/cacert/gscodesignsha2g3ocsp.crt
                OCSP - URI:http://ocsp2.globalsign.com/gscodesignsha2g3

            X509v3 Certificate Policies: 
                Policy: 1.3.6.1.4.1.4146.1.50
                  CPS: https://www.globalsign.com/repository/
                Policy: 2.23.140.1.4.1

            X509v3 Basic Constraints: 
                CA:FALSE
            X509v3 CRL Distribution Points: 

                Full Name:
                  URI:http://crl.globalsign.com/gscodesignsha2g3.crl

            X509v3 Extended Key Usage: 
                Code Signing
            X509v3 Subject Key Identifier: 
                93:73:F3:86:FF:BB:CC:CC:B3:57:82:E8:82:BD:2B:EC:6E:DD:E8:D6
            X509v3 Authority Key Identifier: 
                keyid:0F:3A:E7:AC:94:91:74:2D:96:02:73:83:AD:9C:2E:49:3F:19:AA:54

    Signature Algorithm: sha256WithRSAEncryption
         8b:07:90:fb:e9:6d:d9:35:f1:1c:2a:a4:19:27:f1:f0:70:03:
         89:cd:e5:14:2d:49:6c:37:ea:0a:e0:05:1e:f5:c4:9e:9b:5d:
         1b:4a:46:55:99:3f:39:51:06:b3:59:c4:66:0e:bf:e3:0d:7c:
         c3:dc:e6:2b:d3:86:e2:4f:74:d3:5f:00:df:58:07:80:b8:4d:
         fa:5f:d1:85:04:a5:db:a4:39:1c:be:ad:75:66:76:52:58:98:
         f0:80:29:41:3e:67:04:79:e2:8b:98:e4:ac:b9:5d:77:2a:1a:
         83:d8:df:7b:6d:0f:d2:54:1a:fe:8f:99:a0:c6:d4:6d:c2:d5:
         53:a3:ee:2f:ca:72:8a:cf:98:5a:fd:cb:e2:cb:71:da:21:a2:
         0a:52:67:2b:0c:a7:a7:06:31:d4:5c:d7:f3:b0:ba:f4:33:e0:
         91:3c:8f:94:77:81:b0:e1:a2:01:55:85:d9:96:e2:40:63:05:
         c3:d9:77:1b:ed:f8:30:96:aa:fc:85:b2:1c:e9:68:21:54:ef:
         76:4f:7c:99:d2:ae:37:81:60:8f:35:fd:67:a0:8e:77:fe:ff:
         33:8c:f2:1f:46:27:f1:52:4f:26:67:0d:b8:a9:f7:fc:69:ee:
         37:7f:cd:9b:1e:1e:f4:6a:ab:2a:ce:47:0b:f1:0a:15:c4:6c:
         c1:ce:3c:4d
-----BEGIN CERTIFICATE-----
MIIFLDCCBBSgAwIBAgIMeCQwjs83z3NUCNjQMA0GCSqGSIb3DQEBCwUAMFoxCzAJ
BgNVBAYTAkJFMRkwFwYDVQQKExBHbG9iYWxTaWduIG52LXNhMTAwLgYDVQQDEydH
bG9iYWxTaWduIENvZGVTaWduaW5nIENBIC0gU0hBMjU2IC0gRzMwHhcNMTcxMDIz
MDcxNDMxWhcNMTgxMDI0MDcxNDMxWjCBpTELMAkGA1UEBhMCQ04xEjAQBgNVBAgM
Ceaxn+iLj+ecgTESMBAGA1UEBwwJ5reu5a6J5biCMTYwNAYDVQQKEy1IdWFpJ2Fu
IFFpYW5mZW5nIE5ldHdvcmsgVGVjaG5vbG9neSBDby4sIEx0ZC4xNjA0BgNVBAMT
LUh1YWknYW4gUWlhbmZlbmcgTmV0d29yayBUZWNobm9sb2d5IENvLiwgTHRkLjCC
ASIwDQYJKoZIhvcNAQEBBQADggEPADCCAQoCggEBANT6c+nxzXXLlWbmdmd7dJAl
O4yVjds8uiWa9YaxNLPinl78AWy95fTf1cmlObDW93KljAEPoyALyZUkbgRq9fkx
LMYBF8tS7Agwrad81kQsaRE5KomIAasPYcd6FGTzGvP1yHO8o8oEpv9EioMVnlSk
4+YcK+mjUv5tmfzxIjFdPkZe6WWA12SP/CSTintudXUNT+xVhY9Mpx22fnx/DtHp
DebC7t5XN5nMRLSlFJTtLQnFYHdAHlz2cdqwGSymA6LEhhe2FkvYCPsr6tBG55vH
zxsdPyVFHMq/JiOdsV33PwiTcpbwNSvpP+mE4BfYKq+jszMlOQq2knfLenwkWrUC
AwEAAaOCAaQwggGgMA4GA1UdDwEB/wQEAwIHgDCBlAYIKwYBBQUHAQEEgYcwgYQw
SAYIKwYBBQUHMAKGPGh0dHA6Ly9zZWN1cmUuZ2xvYmFsc2lnbi5jb20vY2FjZXJ0
L2dzY29kZXNpZ25zaGEyZzNvY3NwLmNydDA4BggrBgEFBQcwAYYsaHR0cDovL29j
c3AyLmdsb2JhbHNpZ24uY29tL2dzY29kZXNpZ25zaGEyZzMwVgYDVR0gBE8wTTBB
BgkrBgEEAaAyATIwNDAyBggrBgEFBQcCARYmaHR0cHM6Ly93d3cuZ2xvYmFsc2ln
bi5jb20vcmVwb3NpdG9yeS8wCAYGZ4EMAQQBMAkGA1UdEwQCMAAwPwYDVR0fBDgw
NjA0oDKgMIYuaHR0cDovL2NybC5nbG9iYWxzaWduLmNvbS9nc2NvZGVzaWduc2hh
MmczLmNybDATBgNVHSUEDDAKBggrBgEFBQcDAzAdBgNVHQ4EFgQUk3Pzhv+7zMyz
V4Logr0r7G7d6NYwHwYDVR0jBBgwFoAUDzrnrJSRdC2WAnODrZwuST8ZqlQwDQYJ
KoZIhvcNAQELBQADggEBAIsHkPvpbdk18RwqpBkn8fBwA4nN5RQtSWw36grgBR71
xJ6bXRtKRlWZPzlRBrNZxGYOv+MNfMPc5ivThuJPdNNfAN9YB4C4Tfpf0YUEpduk
ORy+rXVmdlJYmPCAKUE+ZwR54ouY5Ky5XXcqGoPY33ttD9JUGv6PmaDG1G3C1VOj
7i/KcorPmFr9y+LLcdohogpSZysMp6cGMdRc1/OwuvQz4JE8j5R3gbDhogFVhdmW
4kBjBcPZdxvt+DCWqvyFshzpaCFU73ZPfJnSrjeBYI81/Wegjnf+/zOM8h9GJ/FS
TyZnDbip9/xp7jd/zZseHvRqqyrORwvxChXEbMHOPE0=
-----END CERTIFICATE-----

Certificate:
    Data:
        Version: 3 (0x2)
        Serial Number:
            7b:05:b1:d4:49:68:51:44:f7:c9:89:d2:9c:19:9d:12
    Signature Algorithm: sha256WithRSAEncryption
        Issuer: C=US, O=VeriSign, Inc., OU=VeriSign Trust Network, OU=(c) 2008 VeriSign, Inc. - For authorized use only, CN=VeriSign Universal Root Certification Authority
        Validity
            Not Before: Jan 12 00:00:00 2016 GMT
            Not After : Jan 11 23:59:59 2031 GMT
        Subject: C=US, O=Symantec Corporation, OU=Symantec Trust Network, CN=Symantec SHA256 TimeStamping CA
        Subject Public Key Info:
            Public Key Algorithm: rsaEncryption
                Public-Key: (2048 bit)
                Modulus:
                    00:bb:59:9d:59:55:4f:9d:8c:72:5d:1a:81:a2:eb:
                    55:f3:b0:01:ad:3c:71:ac:32:8f:05:6b:86:9a:27:
                    00:32:97:6a:4d:c9:64:14:4b:29:bb:c2:d9:29:b9:
                    2e:ec:63:b3:e1:cf:3f:0b:56:90:f8:62:1b:7e:eb:
                    a6:07:e2:de:7f:5e:6d:40:38:d4:91:06:e7:41:7c:
                    79:1c:cb:cb:ad:1b:bf:d8:95:91:f3:f0:ee:6c:f8:
                    ad:96:39:2e:7f:c1:27:b8:78:39:c5:84:a5:ed:ed:
                    af:87:8e:ce:8d:c7:6d:ea:d2:98:b5:3a:1f:1e:39:
                    9d:c3:f4:9a:a8:f4:84:e1:c4:d1:7c:71:c6:06:29:
                    b4:3f:e4:83:0d:26:c3:7b:08:3e:4d:f9:0a:b7:33:
                    49:ff:ca:3b:d4:f5:b2:9b:4b:e1:88:99:1a:f5:c0:
                    e9:33:14:d6:df:c7:80:db:91:ee:fe:bc:92:57:72:
                    77:f4:cd:a8:cc:fe:09:f5:93:37:be:95:88:6a:c5:
                    dc:f4:b1:4b:d4:ce:e8:09:91:5f:b5:84:79:35:8a:
                    78:ac:19:32:8f:23:c1:32:41:1b:59:0e:a9:3e:b1:
                    cc:f9:d6:2b:ef:b7:d8:e4:d5:1d:6d:11:3a:92:f6:
                    93:c9:9c:e3:48:ee:bb:53:0e:d4:36:97:86:78:c5:
                    a1:37
                Exponent: 65537 (0x10001)
        X509v3 extensions:
            X509v3 Key Usage: critical
                Certificate Sign, CRL Sign
            X509v3 Basic Constraints: critical
                CA:TRUE, pathlen:0
            X509v3 Certificate Policies: 
                Policy: 2.16.840.1.113733.1.7.23.3
                  CPS: https://d.symcb.com/cps
                  User Notice:
                    Explicit Text: https://d.symcb.com/rpa

            Authority Information Access: 
                OCSP - URI:http://s.symcd.com

            X509v3 CRL Distribution Points: 

                Full Name:
                  URI:http://s.symcb.com/universal-root.crl

            X509v3 Extended Key Usage: 
                Time Stamping
            X509v3 Subject Alternative Name: 
                DirName:/CN=TimeStamp-2048-3
            X509v3 Subject Key Identifier: 
                AF:63:D6:CA:A3:4E:85:72:E0:A7:BC:41:F3:29:A2:38:7F:80:75:62
            X509v3 Authority Key Identifier: 
                keyid:B6:77:FA:69:48:47:9F:53:12:D5:C2:EA:07:32:76:07:D1:97:07:19

    Signature Algorithm: sha256WithRSAEncryption
         75:ea:b0:2d:d5:34:19:5c:32:45:fe:0e:e1:d4:4f:a6:78:c1:
         6f:d7:ea:dd:dc:4f:f3:a1:c8:81:88:f7:a7:8f:15:e6:40:29:
         ad:e6:5d:f4:a2:d9:56:64:84:71:30:2a:dd:1e:61:17:66:20:
         56:06:98:19:8d:5d:71:f2:f8:97:bc:09:fd:1c:91:47:c9:e2:
         e8:8d:03:fb:cc:90:2f:d6:0a:6c:4e:33:ec:d6:b4:93:c8:4c:
         90:63:48:39:40:21:c4:dd:d6:6e:89:98:3c:b5:98:97:e8:a9:
         06:b7:09:c9:8f:53:57:41:90:2f:e1:1e:4d:4e:dc:ca:10:78:
         6c:42:6e:f0:b6:c5:f8:61:5c:52:f5:4e:f6:6b:8d:f7:4a:7a:
         be:f3:cd:fd:03:d7:d9:f6:03:a8:0f:e3:53:f7:0a:75:ec:c6:
         75:2e:aa:66:85:04:99:b7:f8:06:57:e1:c6:0e:f6:e8:af:da:
         ec:9b:18:1f:aa:b9:e3:3a:00:bf:ce:8a:94:cb:01:db:9e:c7:
         38:bb:0f:52:ab:d1:e3:94:03:60:0a:4d:a0:fe:27:6d:14:32:
         fc:3f:97:40:e1:bf:99:89:db:e4:39:14:bd:da:e4:d3:c3:ea:
         2b:5a:b3:95:58:55:04:7d:c7:9a:ec:23:03:8d:85:2a:d2:ff:
         ae:a9:61:81
-----BEGIN CERTIFICATE-----
MIIFODCCBCCgAwIBAgIQewWx1EloUUT3yYnSnBmdEjANBgkqhkiG9w0BAQsFADCB
vTELMAkGA1UEBhMCVVMxFzAVBgNVBAoTDlZlcmlTaWduLCBJbmMuMR8wHQYDVQQL
ExZWZXJpU2lnbiBUcnVzdCBOZXR3b3JrMTowOAYDVQQLEzEoYykgMjAwOCBWZXJp
U2lnbiwgSW5jLiAtIEZvciBhdXRob3JpemVkIHVzZSBvbmx5MTgwNgYDVQQDEy9W
ZXJpU2lnbiBVbml2ZXJzYWwgUm9vdCBDZXJ0aWZpY2F0aW9uIEF1dGhvcml0eTAe
Fw0xNjAxMTIwMDAwMDBaFw0zMTAxMTEyMzU5NTlaMHcxCzAJBgNVBAYTAlVTMR0w
GwYDVQQKExRTeW1hbnRlYyBDb3Jwb3JhdGlvbjEfMB0GA1UECxMWU3ltYW50ZWMg
VHJ1c3QgTmV0d29yazEoMCYGA1UEAxMfU3ltYW50ZWMgU0hBMjU2IFRpbWVTdGFt
cGluZyBDQTCCASIwDQYJKoZIhvcNAQEBBQADggEPADCCAQoCggEBALtZnVlVT52M
cl0agaLrVfOwAa08cawyjwVrhponADKXak3JZBRLKbvC2Sm5Luxjs+HPPwtWkPhi
G37rpgfi3n9ebUA41JEG50F8eRzLy60bv9iVkfPw7mz4rZY5Ln/BJ7h4OcWEpe3t
r4eOzo3HberSmLU6Hx45ncP0mqj0hOHE0XxxxgYptD/kgw0mw3sIPk35CrczSf/K
O9T1sptL4YiZGvXA6TMU1t/HgNuR7v68kldyd/TNqMz+CfWTN76ViGrF3PSxS9TO
6AmRX7WEeTWKeKwZMo8jwTJBG1kOqT6xzPnWK++32OTVHW0ROpL2k8mc40juu1MO
1DaXhnjFoTcCAwEAAaOCAXcwggFzMA4GA1UdDwEB/wQEAwIBBjASBgNVHRMBAf8E
CDAGAQH/AgEAMGYGA1UdIARfMF0wWwYLYIZIAYb4RQEHFwMwTDAjBggrBgEFBQcC
ARYXaHR0cHM6Ly9kLnN5bWNiLmNvbS9jcHMwJQYIKwYBBQUHAgIwGRoXaHR0cHM6
Ly9kLnN5bWNiLmNvbS9ycGEwLgYIKwYBBQUHAQEEIjAgMB4GCCsGAQUFBzABhhJo
dHRwOi8vcy5zeW1jZC5jb20wNgYDVR0fBC8wLTAroCmgJ4YlaHR0cDovL3Muc3lt
Y2IuY29tL3VuaXZlcnNhbC1yb290LmNybDATBgNVHSUEDDAKBggrBgEFBQcDCDAo
BgNVHREEITAfpB0wGzEZMBcGA1UEAxMQVGltZVN0YW1wLTIwNDgtMzAdBgNVHQ4E
FgQUr2PWyqNOhXLgp7xB8ymiOH+AdWIwHwYDVR0jBBgwFoAUtnf6aUhHn1MS1cLq
BzJ2B9GXBxkwDQYJKoZIhvcNAQELBQADggEBAHXqsC3VNBlcMkX+DuHUT6Z4wW/X
6t3cT/OhyIGI96ePFeZAKa3mXfSi2VZkhHEwKt0eYRdmIFYGmBmNXXHy+Je8Cf0c
kUfJ4uiNA/vMkC/WCmxOM+zWtJPITJBjSDlAIcTd1m6JmDy1mJfoqQa3CcmPU1dB
kC/hHk1O3MoQeGxCbvC2xfhhXFL1TvZrjfdKer7zzf0D19n2A6gP41P3CnXsxnUu
qmaFBJm3+AZX4cYO9uiv2uybGB+queM6AL/OipTLAduexzi7D1Kr0eOUA2AKTaD+
J20UMvw/l0Dhv5mJ2+Q5FL3a5NPD6itas5VYVQR9x5rsIwONhSrS/66pYYE=
-----END CERTIFICATE-----

Certificate:
    Data:
        Version: 3 (0x2)
        Serial Number:
            54:58:f2:aa:d7:41:d6:44:bc:84:a9:7b:a0:96:52:e6
    Signature Algorithm: sha256WithRSAEncryption
        Issuer: C=US, O=Symantec Corporation, OU=Symantec Trust Network, CN=Symantec SHA256 TimeStamping CA
        Validity
            Not Before: Jan  2 00:00:00 2017 GMT
            Not After : Apr  1 23:59:59 2028 GMT
        Subject: C=US, O=Symantec Corporation, OU=Symantec Trust Network, CN=Symantec SHA256 TimeStamping Signer - G2
        Subject Public Key Info:
            Public Key Algorithm: rsaEncryption
                Public-Key: (2048 bit)
                Modulus:
                    00:99:f3:fc:d8:04:09:03:86:f9:d7:5c:a6:93:c0:
                    42:7c:ea:7c:63:cf:5d:00:e2:8e:f3:c0:90:df:8f:
                    29:f5:18:ea:94:b7:92:e5:d7:b0:a0:73:81:e8:e9:
                    0a:9b:4a:7c:01:ff:9d:8f:a4:39:a7:0e:ea:45:f4:
                    22:0c:3a:70:ed:39:45:8b:e4:c5:1b:5c:f0:45:68:
                    46:24:05:63:76:9b:1c:fc:9e:6c:2a:b1:56:e5:8a:
                    7f:52:71:ae:f2:35:d5:46:23:06:1c:cf:48:2d:1d:
                    b4:cd:b8:d9:76:23:8e:1c:ff:3e:bf:bb:06:5c:69:
                    07:a6:65:0e:f8:5e:ae:7d:2e:ed:4d:ae:35:ef:c9:
                    d7:00:42:fd:28:95:0e:9f:5d:72:42:09:bc:c3:da:
                    44:d2:ed:cc:47:84:e4:fc:ca:2d:ac:58:be:ae:f7:
                    ae:d9:44:0d:08:b7:c2:77:d6:1a:43:70:d1:6e:03:
                    de:52:92:c4:10:08:71:d9:ba:22:55:f2:1f:bc:ed:
                    9b:9d:3b:e2:5e:1d:4c:83:ff:97:0f:7b:0b:e7:55:
                    83:4e:d2:0d:eb:be:d7:ec:ae:6e:47:b9:9f:df:a5:
                    d6:51:bc:04:55:ed:ff:27:70:4c:c9:ed:2a:4b:13:
                    e1:b1:b9:4c:0f:c9:01:ee:55:65:5f:69:02:78:66:
                    cb:3f
                Exponent: 65537 (0x10001)
        X509v3 extensions:
            X509v3 Basic Constraints: critical
                CA:FALSE
            X509v3 Certificate Policies: 
                Policy: 2.16.840.1.113733.1.7.23.3
                  CPS: https://d.symcb.com/cps
                  User Notice:
                    Explicit Text: https://d.symcb.com/rpa

            X509v3 CRL Distribution Points: 

                Full Name:
                  URI:http://ts-crl.ws.symantec.com/sha256-tss-ca.crl

            X509v3 Extended Key Usage: critical
                Time Stamping
            X509v3 Key Usage: critical
                Digital Signature
            Authority Information Access: 
                OCSP - URI:http://ts-ocsp.ws.symantec.com
                CA Issuers - URI:http://ts-aia.ws.symantec.com/sha256-tss-ca.cer

            X509v3 Subject Alternative Name: 
                DirName:/CN=TimeStamp-2048-5
            X509v3 Subject Key Identifier: 
                09:B5:C1:FE:96:72:97:29:43:9A:C9:E0:02:BA:AE:F8:FD:2F:BA:F6
            X509v3 Authority Key Identifier: 
                keyid:AF:63:D6:CA:A3:4E:85:72:E0:A7:BC:41:F3:29:A2:38:7F:80:75:62

    Signature Algorithm: sha256WithRSAEncryption
         17:b3:0a:88:e9:5c:5a:5e:20:6b:3b:0a:15:b2:6c:c5:a9:8a:
         32:87:d3:b1:f4:1c:53:ae:85:be:3f:9b:ff:d7:bc:b7:94:85:
         b4:c7:52:7e:94:e8:bd:ed:61:b2:d4:a7:99:e4:c3:c9:93:c1:
         35:3d:0b:e8:68:0a:5d:56:98:bd:b1:22:3b:d1:44:7a:d7:bf:
         f0:6d:51:32:8a:d5:23:df:38:01:37:f6:e2:53:2b:7a:2b:11:
         8f:b7:4d:6c:7a:33:03:1b:7c:6b:09:94:17:bb:e4:db:58:d4:
         21:13:65:e7:ec:d1:25:ca:2c:75:9a:9c:7f:fc:c9:bb:2a:68:
         ab:c4:7d:b4:cf:a3:c9:6c:a7:d9:c4:00:9c:89:0a:77:91:f4:
         4d:a2:fb:31:3b:86:6e:f6:e6:1f:50:03:86:9b:bf:cb:42:ab:
         e6:76:9b:72:5a:11:01:8a:c6:ef:a5:6f:95:e7:dd:ae:ba:e6:
         22:65:f0:18:59:1b:11:c9:cd:80:b7:d8:97:47:1f:42:08:f8:
         ac:71:1f:b0:46:53:b3:d4:b2:d5:a3:ab:50:75:48:12:17:82:
         ad:cf:e0:41:4f:32:7e:cd:95:1c:bf:91:8a:08:3d:a4:a7:67:
         02:96:df:24:4c:a5:d0:41:c0:82:60:a3:8a:17:32:4b:d3:bc:
         cf:a4:b4:8c
-----BEGIN CERTIFICATE-----
MIIFSzCCBDOgAwIBAgIQVFjyqtdB1kS8hKl7oJZS5jANBgkqhkiG9w0BAQsFADB3
MQswCQYDVQQGEwJVUzEdMBsGA1UEChMUU3ltYW50ZWMgQ29ycG9yYXRpb24xHzAd
BgNVBAsTFlN5bWFudGVjIFRydXN0IE5ldHdvcmsxKDAmBgNVBAMTH1N5bWFudGVj
IFNIQTI1NiBUaW1lU3RhbXBpbmcgQ0EwHhcNMTcwMTAyMDAwMDAwWhcNMjgwNDAx
MjM1OTU5WjCBgDELMAkGA1UEBhMCVVMxHTAbBgNVBAoTFFN5bWFudGVjIENvcnBv
cmF0aW9uMR8wHQYDVQQLExZTeW1hbnRlYyBUcnVzdCBOZXR3b3JrMTEwLwYDVQQD
EyhTeW1hbnRlYyBTSEEyNTYgVGltZVN0YW1waW5nIFNpZ25lciAtIEcyMIIBIjAN
BgkqhkiG9w0BAQEFAAOCAQ8AMIIBCgKCAQEAmfP82AQJA4b511ymk8BCfOp8Y89d
AOKO88CQ348p9RjqlLeS5dewoHOB6OkKm0p8Af+dj6Q5pw7qRfQiDDpw7TlFi+TF
G1zwRWhGJAVjdpsc/J5sKrFW5Yp/UnGu8jXVRiMGHM9ILR20zbjZdiOOHP8+v7sG
XGkHpmUO+F6ufS7tTa4178nXAEL9KJUOn11yQgm8w9pE0u3MR4Tk/MotrFi+rveu
2UQNCLfCd9YaQ3DRbgPeUpLEEAhx2boiVfIfvO2bnTviXh1Mg/+XD3sL51WDTtIN
677X7K5uR7mf36XWUbwEVe3/J3BMye0qSxPhsblMD8kB7lVlX2kCeGbLPwIDAQAB
o4IBxzCCAcMwDAYDVR0TAQH/BAIwADBmBgNVHSAEXzBdMFsGC2CGSAGG+EUBBxcD
MEwwIwYIKwYBBQUHAgEWF2h0dHBzOi8vZC5zeW1jYi5jb20vY3BzMCUGCCsGAQUF
BwICMBkaF2h0dHBzOi8vZC5zeW1jYi5jb20vcnBhMEAGA1UdHwQ5MDcwNaAzoDGG
L2h0dHA6Ly90cy1jcmwud3Muc3ltYW50ZWMuY29tL3NoYTI1Ni10c3MtY2EuY3Js
MBYGA1UdJQEB/wQMMAoGCCsGAQUFBwMIMA4GA1UdDwEB/wQEAwIHgDB3BggrBgEF
BQcBAQRrMGkwKgYIKwYBBQUHMAGGHmh0dHA6Ly90cy1vY3NwLndzLnN5bWFudGVj
LmNvbTA7BggrBgEFBQcwAoYvaHR0cDovL3RzLWFpYS53cy5zeW1hbnRlYy5jb20v
c2hhMjU2LXRzcy1jYS5jZXIwKAYDVR0RBCEwH6QdMBsxGTAXBgNVBAMTEFRpbWVT
dGFtcC0yMDQ4LTUwHQYDVR0OBBYEFAm1wf6WcpcpQ5rJ4AK6rvj9L7r2MB8GA1Ud
IwQYMBaAFK9j1sqjToVy4Ke8QfMpojh/gHViMA0GCSqGSIb3DQEBCwUAA4IBAQAX
swqI6VxaXiBrOwoVsmzFqYoyh9Ox9BxTroW+P5v/17y3lIW0x1J+lOi97WGy1KeZ
5MPJk8E1PQvoaApdVpi9sSI70UR617/wbVEyitUj3zgBN/biUyt6KxGPt01sejMD
G3xrCZQXu+TbWNQhE2Xn7NElyix1mpx//Mm7KmirxH20z6PJbKfZxACciQp3kfRN
ovsxO4Zu9uYfUAOGm7/LQqvmdptyWhEBisbvpW+V592uuuYiZfAYWRsRyc2At9iX
Rx9CCPiscR+wRlOz1LLVo6tQdUgSF4Ktz+BBTzJ+zZUcv5GKCD2kp2cClt8kTKXQ
QcCCYKOKFzJL07zPpLSM
-----END CERTIFICATE-----

