Certificate:
    Data:
        Version: 3 (0x2)
        Serial Number:
            f7:51:94:6e:55:0a:1b:19:c4:9a:89:39:be:bd:e6:cb
    Signature Algorithm: sha256WithRSAEncryption
        Issuer: C=GB, ST=Greater Manchester, L=Salford, O=COMODO CA Limited, CN=COMODO RSA Code Signing CA
        Validity
            Not Before: Jan 25 00:00:00 2016 GMT
            Not After : May  4 23:59:59 2016 GMT
        Subject: C=AU/postalCode=6154, ST=WA, L=Myaree/street=PO Box 3173, O=Home Money Manager, OU=Secure Application Development, CN=Home Money Manager
        Subject Public Key Info:
            Public Key Algorithm: rsaEncryption
                Public-Key: (2048 bit)
                Modulus:
                    00:da:c7:48:3e:2d:b1:c7:0a:2c:26:57:6f:fa:98:
                    8c:e5:48:ec:b3:2a:8a:a9:60:2d:7c:09:ec:fc:d2:
                    95:0a:f7:00:ee:bb:e3:0d:ec:4a:3c:d8:0f:f2:09:
                    37:76:08:27:16:7d:15:43:06:9f:d0:fd:d6:ac:e2:
                    22:52:a1:32:53:02:88:fe:aa:24:66:ff:2b:28:1a:
                    a8:54:ad:84:63:0f:0f:88:f0:b5:d5:be:3c:16:ed:
                    dc:22:e2:f8:85:a8:5b:1f:07:98:81:ec:2f:c5:57:
                    d3:72:f2:a1:72:ca:f3:2f:03:80:c8:a8:5c:80:38:
                    ed:e9:b5:33:98:37:e8:74:19:ea:b3:51:f0:c2:45:
                    90:6c:15:8d:50:21:38:5c:f6:20:76:67:6a:1b:5f:
                    a0:cb:73:85:5f:e4:bf:d0:1d:2c:5a:ab:a4:c9:da:
                    9d:cb:c3:71:7d:73:41:1e:7c:dd:52:e2:7f:2a:c7:
                    87:fe:4e:30:33:c1:1a:ba:8d:fc:5c:2b:7c:9a:1c:
                    bb:d3:54:a2:69:62:b9:35:6e:0b:3f:7e:c7:72:2f:
                    ed:dd:28:85:32:12:d1:22:19:fc:19:2c:63:bc:a3:
                    4d:95:3a:83:6b:3d:e8:bf:6e:7f:80:6d:e9:70:cf:
                    2d:3b:80:11:72:3a:47:3e:09:2d:fc:d8:fb:f2:2e:
                    77:51
                Exponent: 65537 (0x10001)
        X509v3 extensions:
            X509v3 Authority Key Identifier: 
                keyid:29:91:60:FF:8A:4D:FA:EB:F9:A6:6A:B8:CF:F9:E6:4B:BD:49:CE:12

            X509v3 Subject Key Identifier: 
                81:F7:43:19:11:75:BB:F9:D9:08:F4:53:D7:15:E7:17:A7:05:3F:E4
            X509v3 Key Usage: critical
                Digital Signature
            X509v3 Basic Constraints: critical
                CA:FALSE
            X509v3 Extended Key Usage: 
                Code Signing
            Netscape Cert Type: 
                Object Signing
            X509v3 Certificate Policies: 
                Policy: 1.3.6.1.4.1.6449.1.2.1.3.2
                  CPS: https://secure.comodo.net/CPS

            X509v3 CRL Distribution Points: 

                Full Name:
                  URI:http://crl.comodoca.com/COMODORSACodeSigningCA.crl

            Authority Information Access: 
                CA Issuers - URI:http://crt.comodoca.com/COMODORSACodeSigningCA.crt
                OCSP - URI:http://ocsp.comodoca.com

    Signature Algorithm: sha256WithRSAEncryption
         90:5a:5e:9b:37:c4:e7:8e:26:68:eb:a5:9e:d9:84:aa:3e:c9:
         70:62:81:aa:c6:8a:fa:a4:6f:01:f0:e0:61:2f:e1:7d:e6:01:
         3f:0f:f9:fb:df:9f:d9:07:b0:e5:ac:4c:92:13:0a:b6:fc:41:
         59:87:fe:9d:82:1e:cd:d5:31:cb:24:62:c3:77:6d:b6:05:aa:
         11:a6:6a:a9:fd:de:1f:44:00:26:1a:90:7a:fd:dd:90:eb:58:
         aa:5c:d8:12:2b:63:27:80:03:37:1e:c1:30:6f:52:7c:a6:0a:
         9a:34:20:44:19:5d:18:b2:e4:db:f7:56:57:5d:91:19:91:f6:
         d9:5f:05:1a:0b:26:de:90:33:05:86:4a:45:f4:08:ac:99:1c:
         e7:23:98:96:65:8a:b2:ee:a3:4f:22:17:f6:fc:21:62:d4:d3:
         c7:4d:81:fb:0a:a1:de:f1:23:d4:4c:67:4a:96:fe:d6:70:69:
         f6:5e:7a:c5:10:5b:98:b8:82:f6:cd:46:1e:61:57:45:08:f8:
         8b:70:3f:a6:21:95:7f:5f:b8:b5:07:59:a4:ab:9e:9d:32:7d:
         c5:d1:f8:f9:b9:83:52:2c:b9:1a:4a:1f:ae:70:67:a9:1d:17:
         17:7d:ae:7a:c2:2c:36:2e:78:da:6a:a2:c3:15:21:9f:fa:16:
         33:d2:25:b3
-----BEGIN CERTIFICATE-----
MIIFSzCCBDOgAwIBAgIRAPdRlG5VChsZxJqJOb695sswDQYJKoZIhvcNAQELBQAw
fTELMAkGA1UEBhMCR0IxGzAZBgNVBAgTEkdyZWF0ZXIgTWFuY2hlc3RlcjEQMA4G
A1UEBxMHU2FsZm9yZDEaMBgGA1UEChMRQ09NT0RPIENBIExpbWl0ZWQxIzAhBgNV
BAMTGkNPTU9ETyBSU0EgQ29kZSBTaWduaW5nIENBMB4XDTE2MDEyNTAwMDAwMFoX
DTE2MDUwNDIzNTk1OVowgbMxCzAJBgNVBAYTAkFVMQ0wCwYDVQQRDAQ2MTU0MQsw
CQYDVQQIDAJXQTEPMA0GA1UEBwwGTXlhcmVlMRQwEgYDVQQJDAtQTyBCb3ggMzE3
MzEbMBkGA1UECgwSSG9tZSBNb25leSBNYW5hZ2VyMScwJQYDVQQLDB5TZWN1cmUg
QXBwbGljYXRpb24gRGV2ZWxvcG1lbnQxGzAZBgNVBAMMEkhvbWUgTW9uZXkgTWFu
YWdlcjCCASIwDQYJKoZIhvcNAQEBBQADggEPADCCAQoCggEBANrHSD4tsccKLCZX
b/qYjOVI7LMqiqlgLXwJ7PzSlQr3AO674w3sSjzYD/IJN3YIJxZ9FUMGn9D91qzi
IlKhMlMCiP6qJGb/KygaqFSthGMPD4jwtdW+PBbt3CLi+IWoWx8HmIHsL8VX03Ly
oXLK8y8DgMioXIA47em1M5g36HQZ6rNR8MJFkGwVjVAhOFz2IHZnahtfoMtzhV/k
v9AdLFqrpMnancvDcX1zQR583VLifyrHh/5OMDPBGrqN/FwrfJocu9NUomliuTVu
Cz9+x3Iv7d0ohTIS0SIZ/BksY7yjTZU6g2s96L9uf4Bt6XDPLTuAEXI6Rz4JLfzY
+/Iud1ECAwEAAaOCAY0wggGJMB8GA1UdIwQYMBaAFCmRYP+KTfrr+aZquM/55ku9
Sc4SMB0GA1UdDgQWBBSB90MZEXW7+dkI9FPXFecXpwU/5DAOBgNVHQ8BAf8EBAMC
B4AwDAYDVR0TAQH/BAIwADATBgNVHSUEDDAKBggrBgEFBQcDAzARBglghkgBhvhC
AQEEBAMCBBAwRgYDVR0gBD8wPTA7BgwrBgEEAbIxAQIBAwIwKzApBggrBgEFBQcC
ARYdaHR0cHM6Ly9zZWN1cmUuY29tb2RvLm5ldC9DUFMwQwYDVR0fBDwwOjA4oDag
NIYyaHR0cDovL2NybC5jb21vZG9jYS5jb20vQ09NT0RPUlNBQ29kZVNpZ25pbmdD
QS5jcmwwdAYIKwYBBQUHAQEEaDBmMD4GCCsGAQUFBzAChjJodHRwOi8vY3J0LmNv
bW9kb2NhLmNvbS9DT01PRE9SU0FDb2RlU2lnbmluZ0NBLmNydDAkBggrBgEFBQcw
AYYYaHR0cDovL29jc3AuY29tb2RvY2EuY29tMA0GCSqGSIb3DQEBCwUAA4IBAQCQ
Wl6bN8TnjiZo66We2YSqPslwYoGqxor6pG8B8OBhL+F95gE/D/n735/ZB7DlrEyS
Ewq2/EFZh/6dgh7N1THLJGLDd222BaoRpmqp/d4fRAAmGpB6/d2Q61iqXNgSK2Mn
gAM3HsEwb1J8pgqaNCBEGV0YsuTb91ZXXZEZkfbZXwUaCybekDMFhkpF9AismRzn
I5iWZYqy7qNPIhf2/CFi1NPHTYH7CqHe8SPUTGdKlv7WcGn2XnrFEFuYuIL2zUYe
YVdFCPiLcD+mIZV/X7i1B1mkq56dMn3F0fj5uYNSLLkaSh+ucGepHRcXfa56wiw2
LnjaaqLDFSGf+hYz0iWz
-----END CERTIFICATE-----

