Certificate:
    Data:
        Version: 3 (0x2)
        Serial Number:
            04:00:00:00:00:01:2f:4e:e1:52:d7
    Signature Algorithm: sha1WithRSAEncryption
        Issuer: C=BE, O=GlobalSign nv-sa, OU=Root CA, CN=GlobalSign Root CA
        Validity
            Not Before: Apr 13 10:00:00 2011 GMT
            Not After : Jan 28 12:00:00 2028 GMT
        Subject: C=BE, O=GlobalSign nv-sa, CN=GlobalSign Timestamping CA - G2
        Subject Public Key Info:
            Public Key Algorithm: rsaEncryption
                Public-Key: (2048 bit)
                Modulus:
                    00:94:ef:65:f8:b5:57:9f:a0:53:0d:34:06:eb:09:
                    1f:b7:47:18:6a:cb:f0:5b:e4:ff:27:a5:34:d1:f7:
                    89:1a:bf:9e:b1:cd:12:41:6e:66:d4:81:a0:85:8b:
                    64:5a:46:2f:99:a0:8d:77:b1:e2:bc:5c:dd:22:d7:
                    6a:67:d0:bb:e8:ca:74:de:8b:4f:0d:b0:52:e5:90:
                    5b:eb:47:0e:f1:e7:9f:9c:0b:90:65:3e:17:96:30:
                    45:72:6d:39:a1:17:36:ca:b9:a0:8c:1b:4f:08:19:
                    f6:81:31:ad:61:16:a4:62:e6:b4:40:9e:c3:fc:fb:
                    95:f6:fb:b5:2e:95:81:98:e0:ef:c5:eb:d8:02:59:
                    78:77:f7:aa:e3:52:6b:50:91:29:c5:fc:f7:cd:93:
                    65:d2:60:61:22:f2:06:fb:32:dd:16:51:fa:0e:fd:
                    8a:30:f0:17:09:a7:bb:f3:04:ae:ab:90:e7:6c:df:
                    7a:a9:f4:ef:c4:62:27:5f:6f:99:6d:38:74:aa:11:
                    8b:da:df:c7:14:4c:e9:85:b2:ec:c2:7d:4a:26:8f:
                    e7:56:ba:a6:e0:cf:92:53:80:74:f4:03:ec:68:b2:
                    60:bc:84:20:00:83:1b:a1:ee:b4:74:05:c1:29:8e:
                    62:d0:47:b1:fa:f0:53:cc:18:f9:2e:3b:f9:70:7e:
                    b4:25
                Exponent: 65537 (0x10001)
        X509v3 extensions:
            X509v3 Key Usage: critical
                Certificate Sign, CRL Sign
            X509v3 Basic Constraints: critical
                CA:TRUE, pathlen:0
            X509v3 Subject Key Identifier: 
                46:D8:3E:FF:DC:E3:BE:FF:83:E6:F4:85:9B:B0:DD:6A:D6:14:A9:C1
            X509v3 Certificate Policies: 
                Policy: X509v3 Any Policy
                  CPS: https://www.globalsign.com/repository/

            X509v3 CRL Distribution Points: 

                Full Name:
                  URI:http://crl.globalsign.net/root.crl

            X509v3 Authority Key Identifier: 
                keyid:60:7B:66:1A:45:0D:97:CA:89:50:2F:7D:04:CD:34:A8:FF:FC:FD:4B

    Signature Algorithm: sha1WithRSAEncryption
         4e:5e:56:90:1e:46:b4:d9:49:31:f3:bb:17:39:28:1b:c2:16:
         dd:fd:41:dc:09:05:04:9b:6f:b2:a2:9a:d6:99:2e:40:99:00:
         55:b5:ea:3f:a5:20:76:d3:86:34:d4:17:cc:55:3a:c7:82:ee:
         ef:a8:ba:bc:d8:06:9f:15:50:df:cd:16:7b:52:3a:02:d7:19:
         1a:fd:af:f0:78:5c:e0:4b:c5:18:df:3a:24:1e:da:ac:b8:a9:
         58:04:02:07:30:db:b0:12:5e:fe:31:be:f0:04:48:f4:f0:70:
         f8:3a:5e:56:83:cf:3d:fb:0d:bc:f4:c5:ed:97:9d:b9:d4:db:
         a5:27:84:e3:38:9b:8b:a7:35:86:44:20:a4:3b:6d:a4:6a:0b:
         a1:83:fd:28:eb:da:ef:28:f6:cc:88:5d:fb:0a:3b:00:ab:e0:
         21:eb:e2:2f:35:6c:0f:8e:34:45:97:eb:a2:f7:99:33:35:7e:
         cb:9a:8a:bb:45:4d:e7:3f:9f:c2:d9:8a:fa:65:b2:6e:c7:7e:
         65:ff:e8:92:e1:2c:31:a2:f7:b0:27:36:48:8f:26:6f:3b:ee:
         4d:76:1f:79:c3:e5:7f:96:35:bc:2d:0e:cc:01:b0:8e:7f:ff:
         51:80:80:a7:92:d4:b3:44:46:64:8c:87:4f:16:63:07:31:4b:
         63:b0:df:f3
-----BEGIN CERTIFICATE-----
MIIEFDCCAvygAwIBAgILBAAAAAABL07hUtcwDQYJKoZIhvcNAQEFBQAwVzELMAkG
A1UEBhMCQkUxGTAXBgNVBAoTEEdsb2JhbFNpZ24gbnYtc2ExEDAOBgNVBAsTB1Jv
b3QgQ0ExGzAZBgNVBAMTEkdsb2JhbFNpZ24gUm9vdCBDQTAeFw0xMTA0MTMxMDAw
MDBaFw0yODAxMjgxMjAwMDBaMFIxCzAJBgNVBAYTAkJFMRkwFwYDVQQKExBHbG9i
YWxTaWduIG52LXNhMSgwJgYDVQQDEx9HbG9iYWxTaWduIFRpbWVzdGFtcGluZyBD
QSAtIEcyMIIBIjANBgkqhkiG9w0BAQEFAAOCAQ8AMIIBCgKCAQEAlO9l+LVXn6BT
DTQG6wkft0cYasvwW+T/J6U00feJGr+esc0SQW5m1IGghYtkWkYvmaCNd7HivFzd
ItdqZ9C76Mp03otPDbBS5ZBb60cO8eefnAuQZT4XljBFcm05oRc2yrmgjBtPCBn2
gTGtYRakYua0QJ7D/PuV9vu1LpWBmODvxevYAll4d/eq41JrUJEpxfz3zZNl0mBh
IvIG+zLdFlH6Dv2KMPAXCae78wSuq5DnbN96qfTvxGInX2+ZbTh0qhGL2t/HFEzp
hbLswn1KJo/nVrqm4M+SU4B09APsaLJgvIQgAIMboe60dAXBKY5i0Eex+vBTzBj5
Ljv5cH60JQIDAQABo4HlMIHiMA4GA1UdDwEB/wQEAwIBBjASBgNVHRMBAf8ECDAG
AQH/AgEAMB0GA1UdDgQWBBRG2D7/3OO+/4Pm9IWbsN1q1hSpwTBHBgNVHSAEQDA+
MDwGBFUdIAAwNDAyBggrBgEFBQcCARYmaHR0cHM6Ly93d3cuZ2xvYmFsc2lnbi5j
b20vcmVwb3NpdG9yeS8wMwYDVR0fBCwwKjAooCagJIYiaHR0cDovL2NybC5nbG9i
YWxzaWduLm5ldC9yb290LmNybDAfBgNVHSMEGDAWgBRge2YaRQ2XyolQL30EzTSo
//z9SzANBgkqhkiG9w0BAQUFAAOCAQEATl5WkB5GtNlJMfO7FzkoG8IW3f1B3AkF
BJtvsqKa1pkuQJkAVbXqP6UgdtOGNNQXzFU6x4Lu76i6vNgGnxVQ380We1I6AtcZ
Gv2v8Hhc4EvFGN86JB7arLipWAQCBzDbsBJe/jG+8ARI9PBw+DpeVoPPPfsNvPTF
7ZedudTbpSeE4zibi6c1hkQgpDttpGoLoYP9KOva7yj2zIhd+wo7AKvgIeviLzVs
D440RZfroveZMzV+y5qKu0VN5z+fwtmK+mWybsd+Zf/okuEsMaL3sCc2SI8mbzvu
TXYfecPlf5Y1vC0OzAGwjn//UYCAp5LUs0RGZIyHTxZjBzFLY7Df8w==
-----END CERTIFICATE-----

Certificate:
    Data:
        Version: 3 (0x2)
        Serial Number:
            71:a0:b7:36:95:dd:b1:af:c2:3b:2b:9a:18:ee:54:cb
    Signature Algorithm: sha256WithRSAEncryption
        Issuer: C=US, O=thawte, Inc., OU=Certification Services Division, OU=(c) 2006 thawte, Inc. - For authorized use only, CN=thawte Primary Root CA
        Validity
            Not Before: Dec 10 00:00:00 2013 GMT
            Not After : Dec  9 23:59:59 2023 GMT
        Subject: C=US, O=thawte, Inc., CN=thawte SHA256 Code Signing CA
        Subject Public Key Info:
            Public Key Algorithm: rsaEncryption
                Public-Key: (2048 bit)
                Modulus:
                    00:9b:55:02:4c:17:05:e9:d0:66:c3:fc:28:ad:d3:
                    c0:fe:ef:e0:e9:7e:d4:1e:f6:aa:1b:91:46:fd:f5:
                    16:ed:98:07:53:fa:ba:87:1b:7d:9e:1f:01:27:ab:
                    b9:d2:67:ca:b7:10:25:53:f4:e3:be:9b:90:b8:ed:
                    23:5c:42:ef:64:25:58:e5:88:22:1a:be:f5:c7:ae:
                    f5:be:8a:b1:11:11:93:1a:22:a9:74:69:c1:74:b6:
                    68:87:a7:83:30:f9:64:f1:b1:e3:38:3e:f4:d6:c1:
                    fc:12:fe:73:57:17:35:57:8a:dd:50:8d:03:f8:66:
                    cd:ca:76:83:13:c8:d7:0e:71:1d:e4:63:c9:ba:17:
                    f8:d1:b9:e4:88:d2:2c:28:c8:21:20:0d:41:b7:0b:
                    e2:2f:c2:80:e6:88:7b:53:6c:c3:44:63:81:7f:68:
                    47:8c:2b:2a:cf:5b:f4:8c:49:61:ba:69:85:fd:6b:
                    00:78:05:26:69:13:30:80:38:4e:f1:5a:55:c9:c5:
                    50:d6:aa:38:89:47:43:5c:fe:4d:73:a5:49:c5:93:
                    69:fe:77:96:9a:af:f3:8c:0e:57:ba:33:d9:0e:c6:
                    42:d3:03:77:c4:bb:39:ad:91:f9:f3:f7:96:5c:3a:
                    64:a6:ed:27:57:c1:e8:40:f3:53:f2:be:29:34:fe:
                    5f:f9
                Exponent: 65537 (0x10001)
        X509v3 extensions:
            Authority Information Access: 
                OCSP - URI:http://t2.symcb.com

            X509v3 Basic Constraints: critical
                CA:TRUE, pathlen:0
            X509v3 CRL Distribution Points: 

                Full Name:
                  URI:http://t1.symcb.com/ThawtePCA.crl

            X509v3 Extended Key Usage: 
                TLS Web Client Authentication, Code Signing
            X509v3 Key Usage: critical
                Certificate Sign, CRL Sign
            X509v3 Subject Alternative Name: 
                DirName:/CN=SymantecPKI-1-568
            X509v3 Subject Key Identifier: 
                57:86:9B:54:B8:BE:A6:29:8A:E4:F6:C2:E2:13:18:89:85:CD:DC:B7
            X509v3 Authority Key Identifier: 
                keyid:7B:5B:45:CF:AF:CE:CB:7A:FD:31:92:1A:6A:B6:F3:46:EB:57:48:50

    Signature Algorithm: sha256WithRSAEncryption
         24:3b:f5:d7:a0:36:13:c7:43:fe:f0:09:87:68:d1:98:31:6e:
         12:e4:3f:1e:1f:96:7b:6b:4c:1e:87:9e:8b:c5:6c:a3:b1:0c:
         7b:50:92:d5:81:9c:b1:8f:2c:29:b7:ee:f9:91:05:b9:8e:41:
         f1:2c:f6:d0:59:2d:98:e0:b9:ea:80:01:47:40:95:b8:3d:9d:
         03:bd:79:bb:35:b6:ad:9c:4c:27:f6:67:45:10:c9:c5:bc:87:
         4e:55:7b:d2:87:bb:dd:dc:30:ef:c6:d4:6c:cc:99:35:6d:1c:
         e0:60:d3:cd:68:8f:29:59:4b:89:96:08:46:c9:8e:fc:75:4f:
         c5:dc:09:cc:4e:27:8b:44:cd:07:bc:ac:04:e0:b5:33:a5:87:
         9f:f4:dd:73:0c:91:ea:12:81:6f:e3:75:f0:1e:b5:93:6c:44:
         17:d5:3e:97:c9:bd:07:2c:56:77:1f:85:dd:46:e8:bf:de:2c:
         81:94:a3:f7:e5:b7:a7:c1:37:9f:75:ca:55:77:4d:5e:36:29:
         ca:85:d8:45:41:72:57:75:c0:79:5b:fa:34:10:06:6d:64:20:
         42:b7:3a:c8:1f:1d:46:64:02:5f:c6:47:be:f0:c4:3a:28:54:
         da:f6:1e:4f:9a:a2:19:43:a4:6f:49:f8:fc:5e:42:20:28:84:
         8b:47:20:6e
-----BEGIN CERTIFICATE-----
MIIEmTCCA4GgAwIBAgIQcaC3NpXdsa/COyuaGO5UyzANBgkqhkiG9w0BAQsFADCB
qTELMAkGA1UEBhMCVVMxFTATBgNVBAoTDHRoYXd0ZSwgSW5jLjEoMCYGA1UECxMf
Q2VydGlmaWNhdGlvbiBTZXJ2aWNlcyBEaXZpc2lvbjE4MDYGA1UECxMvKGMpIDIw
MDYgdGhhd3RlLCBJbmMuIC0gRm9yIGF1dGhvcml6ZWQgdXNlIG9ubHkxHzAdBgNV
BAMTFnRoYXd0ZSBQcmltYXJ5IFJvb3QgQ0EwHhcNMTMxMjEwMDAwMDAwWhcNMjMx
MjA5MjM1OTU5WjBMMQswCQYDVQQGEwJVUzEVMBMGA1UEChMMdGhhd3RlLCBJbmMu
MSYwJAYDVQQDEx10aGF3dGUgU0hBMjU2IENvZGUgU2lnbmluZyBDQTCCASIwDQYJ
KoZIhvcNAQEBBQADggEPADCCAQoCggEBAJtVAkwXBenQZsP8KK3TwP7v4Ol+1B72
qhuRRv31Fu2YB1P6uocbfZ4fASerudJnyrcQJVP0476bkLjtI1xC72QlWOWIIhq+
9ceu9b6KsRERkxoiqXRpwXS2aIengzD5ZPGx4zg+9NbB/BL+c1cXNVeK3VCNA/hm
zcp2gxPI1w5xHeRjyboX+NG55IjSLCjIISANQbcL4i/CgOaIe1Nsw0RjgX9oR4wr
Ks9b9IxJYbpphf1rAHgFJmkTMIA4TvFaVcnFUNaqOIlHQ1z+TXOlScWTaf53lpqv
84wOV7oz2Q7GQtMDd8S7Oa2R+fP3llw6ZKbtJ1fB6EDzU/K+KTT+X/kCAwEAAaOC
ARcwggETMC8GCCsGAQUFBwEBBCMwITAfBggrBgEFBQcwAYYTaHR0cDovL3QyLnN5
bWNiLmNvbTASBgNVHRMBAf8ECDAGAQH/AgEAMDIGA1UdHwQrMCkwJ6AloCOGIWh0
dHA6Ly90MS5zeW1jYi5jb20vVGhhd3RlUENBLmNybDAdBgNVHSUEFjAUBggrBgEF
BQcDAgYIKwYBBQUHAwMwDgYDVR0PAQH/BAQDAgEGMCkGA1UdEQQiMCCkHjAcMRow
GAYDVQQDExFTeW1hbnRlY1BLSS0xLTU2ODAdBgNVHQ4EFgQUV4abVLi+pimK5PbC
4hMYiYXN3LcwHwYDVR0jBBgwFoAUe1tFz6/Oy3r9MZIaarbzRutXSFAwDQYJKoZI
hvcNAQELBQADggEBACQ79degNhPHQ/7wCYdo0ZgxbhLkPx4flntrTB6HnovFbKOx
DHtQktWBnLGPLCm37vmRBbmOQfEs9tBZLZjgueqAAUdAlbg9nQO9ebs1tq2cTCf2
Z0UQycW8h05Ve9KHu93cMO/G1GzMmTVtHOBg081ojylZS4mWCEbJjvx1T8XcCcxO
J4tEzQe8rATgtTOlh5/03XMMkeoSgW/jdfAetZNsRBfVPpfJvQcsVncfhd1G6L/e
LIGUo/flt6fBN591ylV3TV42KcqF2EVBcld1wHlb+jQQBm1kIEK3OsgfHUZkAl/G
R77wxDooVNr2Hk+aohlDpG9J+PxeQiAohItHIG4=
-----END CERTIFICATE-----

Certificate:
    Data:
        Version: 3 (0x2)
        Serial Number:
            11:21:d6:99:a7:64:97:3e:f1:f8:42:7e:e9:19:cc:53:41:14
    Signature Algorithm: sha1WithRSAEncryption
        Issuer: C=BE, O=GlobalSign nv-sa, CN=GlobalSign Timestamping CA - G2
        Validity
            Not Before: May 24 00:00:00 2016 GMT
            Not After : Jun 24 00:00:00 2027 GMT
        Subject: C=SG, O=GMO GlobalSign Pte Ltd, CN=GlobalSign TSA for MS Authenticode - G2
        Subject Public Key Info:
            Public Key Algorithm: rsaEncryption
                Public-Key: (2048 bit)
                Modulus:
                    00:b0:17:ae:a2:d3:b6:04:30:56:1e:58:0f:b1:ed:
                    55:a4:d6:54:cb:d8:f6:73:3a:ec:5d:5e:ab:25:fd:
                    36:a5:fa:84:c3:61:40:c5:46:b5:59:52:3b:42:a2:
                    2e:5f:13:62:10:a9:5b:e6:73:d6:92:25:b1:7d:23:
                    e3:06:b3:87:3a:0e:43:f0:d7:00:89:53:a2:11:31:
                    52:28:6e:5d:40:72:3c:f2:09:77:a7:49:92:97:d4:
                    6c:90:a0:76:a7:fd:b8:dc:b3:9d:f2:07:60:2c:4f:
                    58:98:00:6b:d3:15:54:e0:fa:dd:ff:80:2c:5f:18:
                    a6:98:ff:d4:ab:ec:a1:45:59:b2:2e:6f:62:5d:e0:
                    d9:19:ac:8b:57:9c:a8:26:2b:d9:17:a5:10:d2:47:
                    08:1a:70:2c:33:8b:7f:68:80:2a:b5:a1:5d:6b:dd:
                    8d:02:02:29:03:aa:7c:37:bb:bb:29:4e:3d:53:93:
                    b3:a6:fa:8f:d2:58:93:15:4c:b9:2d:ab:80:a3:a3:
                    25:fb:af:f7:08:64:b0:7a:44:0f:5c:10:d7:5f:61:
                    37:aa:4e:6b:d3:d2:53:25:9d:82:73:fa:2c:f9:72:
                    b0:a9:19:39:2a:50:fa:a9:d0:3c:3a:ca:e8:5b:ef:
                    f5:5f:51:f4:f9:0a:d9:97:35:de:6a:85:e6:23:04:
                    42:af
                Exponent: 65537 (0x10001)
        X509v3 extensions:
            X509v3 Key Usage: critical
                Digital Signature
            X509v3 Certificate Policies: 
                Policy: 1.3.6.1.4.1.4146.1.30
                  CPS: https://www.globalsign.com/repository/

            X509v3 Basic Constraints: 
                CA:FALSE
            X509v3 Extended Key Usage: critical
                Time Stamping
            X509v3 CRL Distribution Points: 

                Full Name:
                  URI:http://crl.globalsign.com/gs/gstimestampingg2.crl

            Authority Information Access: 
                CA Issuers - URI:http://secure.globalsign.com/cacert/gstimestampingg2.crt

            X509v3 Subject Key Identifier: 
                D4:A2:84:4A:38:5A:18:7F:BA:4F:30:50:BD:9D:D5:7A:87:D6:09:F7
            X509v3 Authority Key Identifier: 
                keyid:46:D8:3E:FF:DC:E3:BE:FF:83:E6:F4:85:9B:B0:DD:6A:D6:14:A9:C1

    Signature Algorithm: sha1WithRSAEncryption
         8f:a9:1a:91:6d:04:a6:37:20:0e:83:96:de:23:d3:6b:6e:1f:
         6e:dd:64:3d:68:21:22:b5:f8:47:36:69:8e:e1:a5:45:c7:24:
         a2:22:b7:29:09:cc:54:5a:ae:c6:bc:cd:63:8e:b3:3d:50:48:
         e5:b4:cc:ae:cd:92:8d:9e:28:8b:13:4a:11:aa:bd:a3:ef:d3:
         b2:36:fc:b4:a1:72:bf:6d:97:63:79:8c:44:bc:70:2f:7e:f3:
         bc:dd:82:53:ab:1a:f6:eb:fa:1c:97:bc:b6:37:9c:a4:1c:30:
         bc:ab:bc:2d:47:36:df:92:20:03:e8:71:c6:58:f6:75:05:9a:
         34:f0:0b:59:5a:82:44:34:aa:80:e4:2f:84:f6:47:5d:96:c9:
         b6:ca:ca:9d:b7:a6:ba:e4:50:d3:d4:37:b8:ba:20:0e:d0:d3:
         92:2a:5b:c4:59:bb:a1:6d:db:3c:ce:44:9d:c1:38:2a:ad:e3:
         8d:bd:cd:09:77:1a:10:be:67:0a:02:36:64:88:b9:b3:1b:26:
         ee:e7:9e:60:c4:46:a8:bc:61:33:6c:cf:4e:b9:9c:b9:6a:f0:
         9f:37:fe:b5:3d:4f:9a:d3:4d:ff:de:20:8e:4e:97:a6:fd:9f:
         09:bc:4d:ca:18:76:c9:b0:4d:85:50:f2:80:d2:1d:06:f5:58:
         04:07:b1:18
-----BEGIN CERTIFICATE-----
MIIEnzCCA4egAwIBAgISESHWmadklz7x+EJ+6RnMU0EUMA0GCSqGSIb3DQEBBQUA
MFIxCzAJBgNVBAYTAkJFMRkwFwYDVQQKExBHbG9iYWxTaWduIG52LXNhMSgwJgYD
VQQDEx9HbG9iYWxTaWduIFRpbWVzdGFtcGluZyBDQSAtIEcyMB4XDTE2MDUyNDAw
MDAwMFoXDTI3MDYyNDAwMDAwMFowYDELMAkGA1UEBhMCU0cxHzAdBgNVBAoTFkdN
TyBHbG9iYWxTaWduIFB0ZSBMdGQxMDAuBgNVBAMTJ0dsb2JhbFNpZ24gVFNBIGZv
ciBNUyBBdXRoZW50aWNvZGUgLSBHMjCCASIwDQYJKoZIhvcNAQEBBQADggEPADCC
AQoCggEBALAXrqLTtgQwVh5YD7HtVaTWVMvY9nM67F1eqyX9NqX6hMNhQMVGtVlS
O0KiLl8TYhCpW+Zz1pIlsX0j4wazhzoOQ/DXAIlTohExUihuXUByPPIJd6dJkpfU
bJCgdqf9uNyznfIHYCxPWJgAa9MVVOD63f+ALF8Yppj/1KvsoUVZsi5vYl3g2Rms
i1ecqCYr2RelENJHCBpwLDOLf2iAKrWhXWvdjQICKQOqfDe7uylOPVOTs6b6j9JY
kxVMuS2rgKOjJfuv9whksHpED1wQ119hN6pOa9PSUyWdgnP6LPlysKkZOSpQ+qnQ
PDrK6Fvv9V9R9PkK2Zc13mqF5iMEQq8CAwEAAaOCAV8wggFbMA4GA1UdDwEB/wQE
AwIHgDBMBgNVHSAERTBDMEEGCSsGAQQBoDIBHjA0MDIGCCsGAQUFBwIBFiZodHRw
czovL3d3dy5nbG9iYWxzaWduLmNvbS9yZXBvc2l0b3J5LzAJBgNVHRMEAjAAMBYG
A1UdJQEB/wQMMAoGCCsGAQUFBwMIMEIGA1UdHwQ7MDkwN6A1oDOGMWh0dHA6Ly9j
cmwuZ2xvYmFsc2lnbi5jb20vZ3MvZ3N0aW1lc3RhbXBpbmdnMi5jcmwwVAYIKwYB
BQUHAQEESDBGMEQGCCsGAQUFBzAChjhodHRwOi8vc2VjdXJlLmdsb2JhbHNpZ24u
Y29tL2NhY2VydC9nc3RpbWVzdGFtcGluZ2cyLmNydDAdBgNVHQ4EFgQU1KKESjha
GH+6TzBQvZ3VeofWCfcwHwYDVR0jBBgwFoAURtg+/9zjvv+D5vSFm7DdatYUqcEw
DQYJKoZIhvcNAQEFBQADggEBAI+pGpFtBKY3IA6Dlt4j02tuH27dZD1oISK1+Ec2
aY7hpUXHJKIitykJzFRarsa8zWOOsz1QSOW0zK7Nko2eKIsTShGqvaPv07I2/LSh
cr9tl2N5jES8cC9+87zdglOrGvbr+hyXvLY3nKQcMLyrvC1HNt+SIAPoccZY9nUF
mjTwC1lagkQ0qoDkL4T2R12WybbKyp23prrkUNPUN7i6IA7Q05IqW8RZu6Ft2zzO
RJ3BOCqt4429zQl3GhC+ZwoCNmSIubMbJu7nnmDERqi8YTNsz065nLlq8J83/rU9
T5rTTf/eII5Ol6b9nwm8TcoYdsmwTYVQ8oDSHQb1WAQHsRg=
-----END CERTIFICATE-----

Certificate:
    Data:
        Version: 3 (0x2)
        Serial Number:
            33:2b:88:27:11:3a:f3:6f:fd:1f:32:93:e7:f1:61:75
    Signature Algorithm: sha256WithRSAEncryption
        Issuer: C=US, O=thawte, Inc., CN=thawte SHA256 Code Signing CA
        Validity
            Not Before: Jan 21 00:00:00 2016 GMT
            Not After : Nov 15 23:59:59 2016 GMT
        Subject: C=KR, ST=Seoul, L=Seongdong-gu, O=JNESS Inc., CN=JNESS Inc.
        Subject Public Key Info:
            Public Key Algorithm: rsaEncryption
                Public-Key: (2048 bit)
                Modulus:
                    00:f0:1f:6f:ee:15:52:53:0e:e5:c2:c9:81:52:de:
                    53:e1:0d:66:d6:67:79:36:c7:82:dd:75:0e:93:a5:
                    3a:2c:91:d0:a1:a8:92:54:99:f8:5e:24:d9:26:7c:
                    72:11:9a:35:c8:f2:c4:0e:85:c3:40:9d:9e:3e:8f:
                    2a:35:1c:92:58:8a:86:eb:bb:27:1d:b0:bb:ab:1a:
                    2c:c7:fe:56:03:8a:40:d6:08:95:75:a9:7d:ff:5e:
                    e8:64:a7:4a:9a:66:79:e9:a0:46:31:48:1d:d7:8e:
                    54:ef:9b:c5:aa:d2:04:51:41:5a:26:cd:2f:35:4d:
                    6e:bc:f9:98:e4:22:f3:c4:a3:17:1a:34:0e:5e:f9:
                    41:97:0b:a8:5b:0f:c6:a5:c0:21:56:d6:b9:d9:51:
                    d7:d9:d1:e9:a9:9b:e8:eb:f5:28:dd:50:48:e0:59:
                    41:09:09:32:dd:bc:ab:11:74:de:97:5a:c4:a0:4a:
                    ba:76:ff:be:48:d9:ef:8f:0d:88:ae:c5:f0:57:4b:
                    1a:59:2d:d3:a8:bb:85:34:2b:0f:1e:c1:8f:f3:a6:
                    92:b8:0c:16:9a:2e:d9:aa:ed:57:c5:61:18:d5:b8:
                    95:ad:a2:b2:c7:58:28:f2:da:8d:61:cc:41:5d:95:
                    cc:b4:5d:66:6f:3a:e6:fe:72:78:7c:35:8b:10:d3:
                    7d:c9
                Exponent: 65537 (0x10001)
        X509v3 extensions:
            X509v3 Basic Constraints: 
                CA:FALSE
            X509v3 Authority Key Identifier: 
                keyid:57:86:9B:54:B8:BE:A6:29:8A:E4:F6:C2:E2:13:18:89:85:CD:DC:B7

            X509v3 Subject Key Identifier: 
                37:A4:9F:CE:28:05:13:A2:58:23:0C:86:C3:77:C7:5D:84:62:FB:27
            X509v3 CRL Distribution Points: 

                Full Name:
                  URI:http://tl.symcb.com/tl.crl

            X509v3 Key Usage: critical
                Digital Signature
            X509v3 Extended Key Usage: 
                Code Signing, Microsoft Commercial Code Signing
            X509v3 Certificate Policies: 
                Policy: 2.16.840.1.113733.1.7.48.2
                  CPS: https://www.thawte.com/cps
                  User Notice:
                    Explicit Text: https://www.thawte.com/repository

            2.5.29.4: 
                0.0.0..
+.....7.......
            Authority Information Access: 
                OCSP - URI:http://tl.symcd.com
                CA Issuers - URI:http://tl.symcb.com/tl.crt

            Netscape Cert Type: 
                Object Signing
    Signature Algorithm: sha256WithRSAEncryption
         79:d1:e2:c9:d3:0d:2e:e0:f3:2a:da:bd:33:08:66:53:5c:68:
         3c:82:37:5d:19:20:06:ec:29:dc:41:2e:9d:c2:19:4e:99:1a:
         6a:5e:37:d8:63:99:b5:2f:e3:d7:aa:1a:2f:e3:c8:24:af:cc:
         1d:f9:40:0b:6b:9a:75:29:80:de:5b:4a:fb:dc:06:d4:ca:11:
         8a:12:43:d0:55:0c:b0:f1:62:82:8f:f2:40:95:b0:86:5f:cd:
         ca:be:05:ea:e5:f9:1a:72:51:11:26:62:2d:c8:13:17:f3:a6:
         84:44:9d:ca:63:8c:ca:67:fb:19:5a:dd:32:45:46:54:9a:61:
         84:91:9c:51:c1:d0:ca:bd:0b:d2:48:90:e4:1a:9f:bf:39:e9:
         8b:99:bc:24:6e:ab:fd:fb:d3:e6:13:7b:a4:d5:51:67:55:e0:
         85:f3:bd:dc:ec:63:97:4e:07:5b:7e:e0:d1:6a:a5:06:58:98:
         85:02:d7:8b:a0:81:70:99:e1:bd:26:21:7a:07:2a:16:dd:ff:
         be:6f:48:8e:06:df:cf:d8:cd:b9:f3:01:9f:40:83:15:f0:e4:
         20:09:70:8a:15:59:65:e5:9f:99:2a:aa:6d:cc:52:52:d9:7b:
         24:b1:10:6d:93:f2:be:b5:35:c9:bc:2c:55:49:53:de:7d:ad:
         0a:0f:19:f3
-----BEGIN CERTIFICATE-----
MIIE4zCCA8ugAwIBAgIQMyuIJxE682/9HzKT5/FhdTANBgkqhkiG9w0BAQsFADBM
MQswCQYDVQQGEwJVUzEVMBMGA1UEChMMdGhhd3RlLCBJbmMuMSYwJAYDVQQDEx10
aGF3dGUgU0hBMjU2IENvZGUgU2lnbmluZyBDQTAeFw0xNjAxMjEwMDAwMDBaFw0x
NjExMTUyMzU5NTlaMF4xCzAJBgNVBAYTAktSMQ4wDAYDVQQIDAVTZW91bDEVMBMG
A1UEBwwMU2Vvbmdkb25nLWd1MRMwEQYDVQQKDApKTkVTUyBJbmMuMRMwEQYDVQQD
DApKTkVTUyBJbmMuMIIBIjANBgkqhkiG9w0BAQEFAAOCAQ8AMIIBCgKCAQEA8B9v
7hVSUw7lwsmBUt5T4Q1m1md5NseC3XUOk6U6LJHQoaiSVJn4XiTZJnxyEZo1yPLE
DoXDQJ2ePo8qNRySWIqG67snHbC7qxosx/5WA4pA1giVdal9/17oZKdKmmZ56aBG
MUgd145U75vFqtIEUUFaJs0vNU1uvPmY5CLzxKMXGjQOXvlBlwuoWw/GpcAhVta5
2VHX2dHpqZvo6/Uo3VBI4FlBCQky3byrEXTel1rEoEq6dv++SNnvjw2IrsXwV0sa
WS3TqLuFNCsPHsGP86aSuAwWmi7Zqu1XxWEY1biVraKyx1go8tqNYcxBXZXMtF1m
bzrm/nJ4fDWLENN9yQIDAQABo4IBrTCCAakwCQYDVR0TBAIwADAfBgNVHSMEGDAW
gBRXhptUuL6mKYrk9sLiExiJhc3ctzAdBgNVHQ4EFgQUN6SfzigFE6JYIwyGw3fH
XYRi+ycwKwYDVR0fBCQwIjAgoB6gHIYaaHR0cDovL3RsLnN5bWNiLmNvbS90bC5j
cmwwDgYDVR0PAQH/BAQDAgeAMB8GA1UdJQQYMBYGCCsGAQUFBwMDBgorBgEEAYI3
AgEWMHMGA1UdIARsMGowaAYLYIZIAYb4RQEHMAIwWTAmBggrBgEFBQcCARYaaHR0
cHM6Ly93d3cudGhhd3RlLmNvbS9jcHMwLwYIKwYBBQUHAgIwIwwhaHR0cHM6Ly93
d3cudGhhd3RlLmNvbS9yZXBvc2l0b3J5MB0GA1UdBAQWMBQwDjAMBgorBgEEAYI3
AgEWAwIHgDBXBggrBgEFBQcBAQRLMEkwHwYIKwYBBQUHMAGGE2h0dHA6Ly90bC5z
eW1jZC5jb20wJgYIKwYBBQUHMAKGGmh0dHA6Ly90bC5zeW1jYi5jb20vdGwuY3J0
MBEGCWCGSAGG+EIBAQQEAwIEEDANBgkqhkiG9w0BAQsFAAOCAQEAedHiydMNLuDz
Ktq9MwhmU1xoPII3XRkgBuwp3EEuncIZTpkaal432GOZtS/j16oaL+PIJK/MHflA
C2uadSmA3ltK+9wG1MoRihJD0FUMsPFigo/yQJWwhl/Nyr4F6uX5GnJRESZiLcgT
F/OmhESdymOMymf7GVrdMkVGVJphhJGcUcHQyr0L0kiQ5Bqfvznpi5m8JG6r/fvT
5hN7pNVRZ1XghfO93Oxjl04HW37g0WqlBliYhQLXi6CBcJnhvSYhegcqFt3/vm9I
jgbfz9jNufMBn0CDFfDkIAlwihVZZeWfmSqqbcxSUtl7JLEQbZPyvrU1ybwsVUlT
3n2tCg8Z8w==
-----END CERTIFICATE-----

