Certificate:
    Data:
        Version: 3 (0x2)
        Serial Number:
            0b:c9:14:15:81:23:90:27:e6:b9:47:e7:10:dc:8a:15
    Signature Algorithm: sha1WithRSAEncryption
        Issuer: C=US, O=Thawte, Inc., CN=Thawte Code Signing CA - G2
        Validity
            Not Before: May 25 00:00:00 2012 GMT
            Not After : Jun 24 23:59:59 2013 GMT
        Subject: C=KR, ST=SEOUL, L=Gangseo gu, O=nia, CN=nia
        Subject Public Key Info:
            Public Key Algorithm: rsaEncryption
                Public-Key: (2048 bit)
                Modulus:
                    00:c9:e6:9f:35:b6:5c:1d:a6:bd:b2:fb:8b:b3:81:
                    60:35:df:80:3f:fd:56:7e:f9:9c:95:8a:45:34:a4:
                    ec:70:76:25:0e:1b:8b:bf:f6:71:2b:4f:83:36:b8:
                    25:be:08:09:62:55:6f:28:c2:1c:87:19:d5:34:99:
                    bd:bb:eb:86:49:86:d1:55:5d:17:fe:4b:ec:1b:87:
                    dd:24:ce:e9:d2:b1:86:8f:8f:d8:e3:8f:49:9f:22:
                    fd:68:c1:1d:af:ad:eb:94:3f:29:12:6d:34:48:06:
                    47:3b:f7:a7:fa:4d:6a:d5:bc:db:d2:10:cf:46:47:
                    c2:20:5f:c5:d4:5a:38:2c:e3:95:b8:74:4e:d4:be:
                    9d:20:96:bf:66:ba:57:6b:6f:19:cc:77:e2:ac:d1:
                    6f:a2:e4:fc:c4:1b:11:59:1f:37:68:80:c2:34:dd:
                    d8:38:ad:bb:c8:c3:86:63:6d:ea:76:08:04:c9:a2:
                    75:38:9c:c9:0b:d0:7f:0e:7e:81:0e:7a:92:51:a5:
                    0e:d2:ed:dc:f1:cb:0c:aa:4d:37:6e:88:39:ea:d7:
                    94:f3:2f:fc:b3:7e:63:49:f9:44:49:b2:70:dc:3e:
                    70:60:5a:d9:5d:c8:d3:96:7b:45:e0:31:db:9e:c9:
                    cd:fb:3a:ea:0f:50:34:33:de:fa:b7:d4:7c:53:4e:
                    19:f7
                Exponent: 65537 (0x10001)
        X509v3 extensions:
            X509v3 Basic Constraints: critical
                CA:FALSE
            X509v3 CRL Distribution Points: 

                Full Name:
                  URI:http://cs-g2-crl.thawte.com/ThawteCSG2.crl

            X509v3 Extended Key Usage: 
                Code Signing, Microsoft Commercial Code Signing
            2.5.29.4: 
                0.0.0..
+.....7.......
            Authority Information Access: 
                OCSP - URI:http://ocsp.thawte.com

            Netscape Cert Type: 
                Object Signing
    Signature Algorithm: sha1WithRSAEncryption
         21:d2:bf:17:b5:e3:74:04:7b:09:2d:b4:32:b9:15:d3:1b:27:
         26:6a:28:5c:06:c2:f4:2f:ab:aa:ad:80:b8:eb:f0:e0:be:06:
         6a:36:1c:a1:60:f5:10:d7:20:ca:1a:4e:fa:fe:99:fe:0c:2d:
         94:7a:ec:e9:48:09:db:1e:2b:e7:19:0a:a8:c0:66:8a:49:9f:
         c4:aa:fa:e2:37:73:52:83:8d:a0:b6:1c:e2:93:8e:94:5e:31:
         cf:05:1c:83:b1:4d:9c:a1:0c:a4:07:37:a2:7c:f6:b8:7d:dd:
         40:60:57:eb:06:7d:a0:27:68:1b:45:8a:7b:c8:be:f7:07:c8:
         f2:1f:90:82:73:74:b8:62:6a:9e:3f:62:2f:24:05:07:16:e6:
         d1:b1:2e:ed:a0:f9:49:90:14:97:b3:0c:28:ae:de:d8:01:49:
         4c:cc:a1:af:4d:20:79:23:b7:7b:76:a3:c6:5c:d2:2f:a8:25:
         17:5d:b1:b4:d5:4c:fd:5c:14:10:b2:f6:03:61:a2:e4:aa:8c:
         0e:f6:a7:66:27:f7:e8:d9:76:fa:6e:c4:56:a8:89:74:36:8d:
         e3:c2:ea:56:ce:bf:28:15:dd:4f:5c:9d:10:b7:e9:a3:97:98:
         45:86:83:a2:76:c8:62:42:a4:e4:25:f3:86:91:03:aa:63:34:
         09:ee:9b:2a
-----BEGIN CERTIFICATE-----
MIID+DCCAuCgAwIBAgIQC8kUFYEjkCfmuUfnENyKFTANBgkqhkiG9w0BAQUFADBK
MQswCQYDVQQGEwJVUzEVMBMGA1UEChMMVGhhd3RlLCBJbmMuMSQwIgYDVQQDExtU
aGF3dGUgQ29kZSBTaWduaW5nIENBIC0gRzIwHhcNMTIwNTI1MDAwMDAwWhcNMTMw
NjI0MjM1OTU5WjBOMQswCQYDVQQGEwJLUjEOMAwGA1UECBMFU0VPVUwxEzARBgNV
BAcUCkdhbmdzZW8gZ3UxDDAKBgNVBAoUA25pYTEMMAoGA1UEAxQDbmlhMIIBIjAN
BgkqhkiG9w0BAQEFAAOCAQ8AMIIBCgKCAQEAyeafNbZcHaa9svuLs4FgNd+AP/1W
fvmclYpFNKTscHYlDhuLv/ZxK0+DNrglvggJYlVvKMIchxnVNJm9u+uGSYbRVV0X
/kvsG4fdJM7p0rGGj4/Y449JnyL9aMEdr63rlD8pEm00SAZHO/en+k1q1bzb0hDP
RkfCIF/F1Fo4LOOVuHRO1L6dIJa/ZrpXa28ZzHfirNFvouT8xBsRWR83aIDCNN3Y
OK27yMOGY23qdggEyaJ1OJzJC9B/Dn6BDnqSUaUO0u3c8csMqk03bog56teU8y/8
s35jSflESbJw3D5wYFrZXcjTlntF4DHbnsnN+zrqD1A0M976t9R8U04Z9wIDAQAB
o4HVMIHSMAwGA1UdEwEB/wQCMAAwOwYDVR0fBDQwMjAwoC6gLIYqaHR0cDovL2Nz
LWcyLWNybC50aGF3dGUuY29tL1RoYXd0ZUNTRzIuY3JsMB8GA1UdJQQYMBYGCCsG
AQUFBwMDBgorBgEEAYI3AgEWMB0GA1UdBAQWMBQwDjAMBgorBgEEAYI3AgEWAwIH
gDAyBggrBgEFBQcBAQQmMCQwIgYIKwYBBQUHMAGGFmh0dHA6Ly9vY3NwLnRoYXd0
ZS5jb20wEQYJYIZIAYb4QgEBBAQDAgQQMA0GCSqGSIb3DQEBBQUAA4IBAQAh0r8X
teN0BHsJLbQyuRXTGycmaihcBsL0L6uqrYC46/DgvgZqNhyhYPUQ1yDKGk76/pn+
DC2UeuzpSAnbHivnGQqowGaKSZ/EqvriN3NSg42gthzik46UXjHPBRyDsU2coQyk
BzeifPa4fd1AYFfrBn2gJ2gbRYp7yL73B8jyH5CCc3S4YmqeP2IvJAUHFubRsS7t
oPlJkBSXswwort7YAUlMzKGvTSB5I7d7dqPGXNIvqCUXXbG01Uz9XBQQsvYDYaLk
qowO9qdmJ/fo2Xb6bsRWqIl0No3jwupWzr8oFd1PXJ0Qt+mjl5hFhoOidshiQqTk
JfOGkQOqYzQJ7psq
-----END CERTIFICATE-----

Certificate:
    Data:
        Version: 3 (0x2)
        Serial Number:
            34:4e:d5:57:20:d5:ed:ec:49:f4:2f:ce:37:db:2b:6d
    Signature Algorithm: sha1WithRSAEncryption
        Issuer: C=US, O=thawte, Inc., OU=Certification Services Division, OU=(c) 2006 thawte, Inc. - For authorized use only, CN=thawte Primary Root CA
        Validity
            Not Before: Nov 17 00:00:00 2006 GMT
            Not After : Jul 16 23:59:59 2036 GMT
        Subject: C=US, O=thawte, Inc., OU=Certification Services Division, OU=(c) 2006 thawte, Inc. - For authorized use only, CN=thawte Primary Root CA
        Subject Public Key Info:
            Public Key Algorithm: rsaEncryption
                Public-Key: (2048 bit)
                Modulus:
                    00:ac:a0:f0:fb:80:59:d4:9c:c7:a4:cf:9d:a1:59:
                    73:09:10:45:0c:0d:2c:6e:68:f1:6c:5b:48:68:49:
                    59:37:fc:0b:33:19:c2:77:7f:cc:10:2d:95:34:1c:
                    e6:eb:4d:09:a7:1c:d2:b8:c9:97:36:02:b7:89:d4:
                    24:5f:06:c0:cc:44:94:94:8d:02:62:6f:eb:5a:dd:
                    11:8d:28:9a:5c:84:90:10:7a:0d:bd:74:66:2f:6a:
                    38:a0:e2:d5:54:44:eb:1d:07:9f:07:ba:6f:ee:e9:
                    fd:4e:0b:29:f5:3e:84:a0:01:f1:9c:ab:f8:1c:7e:
                    89:a4:e8:a1:d8:71:65:0d:a3:51:7b:ee:bc:d2:22:
                    60:0d:b9:5b:9d:df:ba:fc:51:5b:0b:af:98:b2:e9:
                    2e:e9:04:e8:62:87:de:2b:c8:d7:4e:c1:4c:64:1e:
                    dd:cf:87:58:ba:4a:4f:ca:68:07:1d:1c:9d:4a:c6:
                    d5:2f:91:cc:7c:71:72:1c:c5:c0:67:eb:32:fd:c9:
                    92:5c:94:da:85:c0:9b:bf:53:7d:2b:09:f4:8c:9d:
                    91:1f:97:6a:52:cb:de:09:36:a4:77:d8:7b:87:50:
                    44:d5:3e:6e:29:69:fb:39:49:26:1e:09:a5:80:7b:
                    40:2d:eb:e8:27:85:c9:fe:61:fd:7e:e6:7c:97:1d:
                    d5:9d
                Exponent: 65537 (0x10001)
        X509v3 extensions:
            X509v3 Basic Constraints: critical
                CA:TRUE
            X509v3 Key Usage: critical
                Certificate Sign, CRL Sign
            X509v3 Subject Key Identifier: 
                7B:5B:45:CF:AF:CE:CB:7A:FD:31:92:1A:6A:B6:F3:46:EB:57:48:50
    Signature Algorithm: sha1WithRSAEncryption
         79:11:c0:4b:b3:91:b6:fc:f0:e9:67:d4:0d:6e:45:be:55:e8:
         93:d2:ce:03:3f:ed:da:25:b0:1d:57:cb:1e:3a:76:a0:4c:ec:
         50:76:e8:64:72:0c:a4:a9:f1:b8:8b:d6:d6:87:84:bb:32:e5:
         41:11:c0:77:d9:b3:60:9d:eb:1b:d5:d1:6e:44:44:a9:a6:01:
         ec:55:62:1d:77:b8:5c:8e:48:49:7c:9c:3b:57:11:ac:ad:73:
         37:8e:2f:78:5c:90:68:47:d9:60:60:e6:fc:07:3d:22:20:17:
         c4:f7:16:e9:c4:d8:72:f9:c8:73:7c:df:16:2f:15:a9:3e:fd:
         6a:27:b6:a1:eb:5a:ba:98:1f:d5:e3:4d:64:0a:9d:13:c8:61:
         ba:f5:39:1c:87:ba:b8:bd:7b:22:7f:f6:fe:ac:40:79:e5:ac:
         10:6f:3d:8f:1b:79:76:8b:c4:37:b3:21:18:84:e5:36:00:eb:
         63:20:99:b9:e9:fe:33:04:bb:41:c8:c1:02:f9:44:63:20:9e:
         81:ce:42:d3:d6:3f:2c:76:d3:63:9c:59:dd:8f:a6:e1:0e:a0:
         2e:41:f7:2e:95:47:cf:bc:fd:33:f3:f6:0b:61:7e:7e:91:2b:
         81:47:c2:27:30:ee:a7:10:5d:37:8f:5c:39:2b:e4:04:f0:7b:
         8d:56:8c:68
-----BEGIN CERTIFICATE-----
MIIEIDCCAwigAwIBAgIQNE7VVyDV7exJ9C/ON9srbTANBgkqhkiG9w0BAQUFADCB
qTELMAkGA1UEBhMCVVMxFTATBgNVBAoTDHRoYXd0ZSwgSW5jLjEoMCYGA1UECxMf
Q2VydGlmaWNhdGlvbiBTZXJ2aWNlcyBEaXZpc2lvbjE4MDYGA1UECxMvKGMpIDIw
MDYgdGhhd3RlLCBJbmMuIC0gRm9yIGF1dGhvcml6ZWQgdXNlIG9ubHkxHzAdBgNV
BAMTFnRoYXd0ZSBQcmltYXJ5IFJvb3QgQ0EwHhcNMDYxMTE3MDAwMDAwWhcNMzYw
NzE2MjM1OTU5WjCBqTELMAkGA1UEBhMCVVMxFTATBgNVBAoTDHRoYXd0ZSwgSW5j
LjEoMCYGA1UECxMfQ2VydGlmaWNhdGlvbiBTZXJ2aWNlcyBEaXZpc2lvbjE4MDYG
A1UECxMvKGMpIDIwMDYgdGhhd3RlLCBJbmMuIC0gRm9yIGF1dGhvcml6ZWQgdXNl
IG9ubHkxHzAdBgNVBAMTFnRoYXd0ZSBQcmltYXJ5IFJvb3QgQ0EwggEiMA0GCSqG
SIb3DQEBAQUAA4IBDwAwggEKAoIBAQCsoPD7gFnUnMekz52hWXMJEEUMDSxuaPFs
W0hoSVk3/AszGcJ3f8wQLZU0HObrTQmnHNK4yZc2AreJ1CRfBsDMRJSUjQJib+ta
3RGNKJpchJAQeg29dGYvajig4tVUROsdB58Hum/u6f1OCyn1PoSgAfGcq/gcfomk
6KHYcWUNo1F77rzSImANuVud37r8UVsLr5iy6S7pBOhih94ryNdOwUxkHt3Ph1i6
Sk/KaAcdHJ1KxtUvkcx8cXIcxcBn6zL9yZJclNqFwJu/U30rCfSMnZEfl2pSy94J
NqR32HuHUETVPm4pafs5SSYeCaWAe0At6+gnhcn+Yf1+5nyXHdWdAgMBAAGjQjBA
MA8GA1UdEwEB/wQFMAMBAf8wDgYDVR0PAQH/BAQDAgEGMB0GA1UdDgQWBBR7W0XP
r87Lev0xkhpqtvNG61dIUDANBgkqhkiG9w0BAQUFAAOCAQEAeRHAS7ORtvzw6WfU
DW5FvlXok9LOAz/t2iWwHVfLHjp2oEzsUHboZHIMpKnxuIvW1oeEuzLlQRHAd9mz
YJ3rG9XRbkREqaYB7FViHXe4XI5ISXycO1cRrK1zN44veFyQaEfZYGDm/Ac9IiAX
xPcW6cTYcvnIc3zfFi8VqT79aie2oetaupgf1eNNZAqdE8hhuvU5HIe6uL17In/2
/qxAeeWsEG89jxt5dovEN7MhGITlNgDrYyCZuen+MwS7QcjBAvlEYyCegc5C09Y/
LHbTY5xZ3Y+m4Q6gLkH3LpVHz7z9M/P2C2F+fpErgUfCJzDupxBdN49cOSvkBPB7
jVaMaA==
-----END CERTIFICATE-----

Certificate:
    Data:
        Version: 3 (0x2)
        Serial Number:
            47:97:4d:78:73:a5:bc:ab:0d:2f:b3:70:19:2f:ce:5e
    Signature Algorithm: sha1WithRSAEncryption
        Issuer: C=US, O=thawte, Inc., OU=Certification Services Division, OU=(c) 2006 thawte, Inc. - For authorized use only, CN=thawte Primary Root CA
        Validity
            Not Before: Feb  8 00:00:00 2010 GMT
            Not After : Feb  7 23:59:59 2020 GMT
        Subject: C=US, O=Thawte, Inc., CN=Thawte Code Signing CA - G2
        Subject Public Key Info:
            Public Key Algorithm: rsaEncryption
                Public-Key: (2048 bit)
                Modulus:
                    00:b7:8b:cf:75:5b:9f:25:da:7e:39:b0:93:db:38:
                    d3:a9:23:d0:82:fa:e9:24:7e:5c:0b:8e:83:f8:e6:
                    7a:59:e6:a3:c5:98:a7:99:d2:44:ff:00:a6:a5:39:
                    04:8a:da:29:88:ea:db:a2:f3:1c:99:15:26:c2:b1:
                    f4:fc:e1:0c:47:a9:09:11:06:0a:20:92:b9:c7:a0:
                    04:8c:5c:94:19:ab:5b:25:2c:1d:62:7e:70:0d:ce:
                    61:6c:dd:2b:82:c9:ce:5d:48:5f:f7:c2:be:bc:41:
                    23:1e:4f:29:5d:d7:4f:bc:f4:c5:2a:fc:63:e6:7c:
                    26:4e:99:a7:79:41:9e:10:4a:7a:79:c9:c6:86:f7:
                    86:95:d2:26:ce:3c:18:2a:d6:7c:ce:af:cd:ad:bb:
                    f7:82:2c:70:26:37:45:e5:0f:47:22:c6:01:28:bd:
                    2e:83:5c:6a:a4:47:c1:e7:d0:d8:6b:81:46:3f:21:
                    17:f5:07:c5:43:5a:a6:67:2c:b8:7b:60:11:b5:83:
                    ee:f5:74:0a:72:71:44:3d:58:fe:e8:1a:ab:38:c3:
                    59:db:7f:6e:38:7d:76:c7:72:69:98:36:96:57:d3:
                    66:1c:d2:54:91:04:2e:54:19:b0:dc:3d:b5:22:5e:
                    86:d5:2a:7e:20:df:5d:e6:7a:b1:65:fe:c5:02:4e:
                    31:2d
                Exponent: 65537 (0x10001)
        X509v3 extensions:
            X509v3 Basic Constraints: critical
                CA:TRUE, pathlen:0
            X509v3 CRL Distribution Points: 

                Full Name:
                  URI:http://crl.thawte.com/ThawtePCA.crl

            X509v3 Key Usage: critical
                Certificate Sign, CRL Sign
            Authority Information Access: 
                OCSP - URI:http://ocsp.thawte.com

            X509v3 Extended Key Usage: 
                TLS Web Client Authentication, Code Signing
            X509v3 Subject Alternative Name: 
                DirName:/CN=VeriSignMPKI-2-10
            X509v3 Subject Key Identifier: 
                D4:0D:65:3F:7A:BD:34:C6:FE:47:E7:4C:0D:C0:BD:F2:DE:15:AB:71
            X509v3 Authority Key Identifier: 
                keyid:7B:5B:45:CF:AF:CE:CB:7A:FD:31:92:1A:6A:B6:F3:46:EB:57:48:50

    Signature Algorithm: sha1WithRSAEncryption
         56:fe:53:5c:e1:c7:9e:bc:a7:ed:7e:53:6d:6a:14:4b:51:8c:
         40:5e:80:5f:aa:a4:e8:2f:ef:38:c8:04:c9:ca:3e:cf:df:3a:
         58:4e:b0:d4:b6:63:c5:29:57:fa:02:05:9a:45:4d:68:db:2a:
         1b:d4:34:3d:9f:00:c3:5a:cb:95:49:a5:6e:e1:b0:c5:fc:41:
         4d:41:4a:6f:d3:77:c8:d7:38:8d:e4:19:de:18:f3:1f:15:65:
         83:6d:45:0c:53:f9:0a:9a:2e:a5:5d:bf:6f:32:81:18:92:19:
         6a:55:00:ad:63:1c:52:06:7e:55:d9:29:68:ae:4a:7c:18:9a:
         79:88:6b:23:23:d8:27:38:2a:29:87:76:ca:fb:c7:b6:62:23:
         1f:ed:7a:56:4c:dd:9c:32:5b:f5:3d:0c:46:18:95:3b:2a:23:
         68:83:64:41:d9:00:6d:0f:19:24:15:68:72:bd:c5:71:67:6e:
         ac:4c:db:90:eb:51:a5:1a:62:07:d0:be:6a:00:47:3c:72:2f:
         ec:4f:61:3e:73:85:ce:5a:0a:b7:ba:c0:1c:13:75:e3:22:39:
         28:dd:6d:1d:09:46:9d:4f:ba:e8:40:81:91:c6:a4:ce:94:72:
         1b:01:cf:2a:6e:15:67:95:89:ae:7d:b7:b7:cd:f9:0a:3d:75:
         b6:6b:3c:25
-----BEGIN CERTIFICATE-----
MIIEnDCCA4SgAwIBAgIQR5dNeHOlvKsNL7NwGS/OXjANBgkqhkiG9w0BAQUFADCB
qTELMAkGA1UEBhMCVVMxFTATBgNVBAoTDHRoYXd0ZSwgSW5jLjEoMCYGA1UECxMf
Q2VydGlmaWNhdGlvbiBTZXJ2aWNlcyBEaXZpc2lvbjE4MDYGA1UECxMvKGMpIDIw
MDYgdGhhd3RlLCBJbmMuIC0gRm9yIGF1dGhvcml6ZWQgdXNlIG9ubHkxHzAdBgNV
BAMTFnRoYXd0ZSBQcmltYXJ5IFJvb3QgQ0EwHhcNMTAwMjA4MDAwMDAwWhcNMjAw
MjA3MjM1OTU5WjBKMQswCQYDVQQGEwJVUzEVMBMGA1UEChMMVGhhd3RlLCBJbmMu
MSQwIgYDVQQDExtUaGF3dGUgQ29kZSBTaWduaW5nIENBIC0gRzIwggEiMA0GCSqG
SIb3DQEBAQUAA4IBDwAwggEKAoIBAQC3i891W58l2n45sJPbONOpI9CC+ukkflwL
joP45npZ5qPFmKeZ0kT/AKalOQSK2imI6tui8xyZFSbCsfT84QxHqQkRBgogkrnH
oASMXJQZq1slLB1ifnANzmFs3SuCyc5dSF/3wr68QSMeTyld10+89MUq/GPmfCZO
mad5QZ4QSnp5ycaG94aV0ibOPBgq1nzOr82tu/eCLHAmN0XlD0cixgEovS6DXGqk
R8Hn0NhrgUY/IRf1B8VDWqZnLLh7YBG1g+71dApycUQ9WP7oGqs4w1nbf244fXbH
cmmYNpZX02Yc0lSRBC5UGbDcPbUiXobVKn4g313merFl/sUCTjEtAgMBAAGjggEc
MIIBGDASBgNVHRMBAf8ECDAGAQH/AgEAMDQGA1UdHwQtMCswKaAnoCWGI2h0dHA6
Ly9jcmwudGhhd3RlLmNvbS9UaGF3dGVQQ0EuY3JsMA4GA1UdDwEB/wQEAwIBBjAy
BggrBgEFBQcBAQQmMCQwIgYIKwYBBQUHMAGGFmh0dHA6Ly9vY3NwLnRoYXd0ZS5j
b20wHQYDVR0lBBYwFAYIKwYBBQUHAwIGCCsGAQUFBwMDMCkGA1UdEQQiMCCkHjAc
MRowGAYDVQQDExFWZXJpU2lnbk1QS0ktMi0xMDAdBgNVHQ4EFgQU1A1lP3q9NMb+
R+dMDcC98t4Vq3EwHwYDVR0jBBgwFoAUe1tFz6/Oy3r9MZIaarbzRutXSFAwDQYJ
KoZIhvcNAQEFBQADggEBAFb+U1zhx568p+1+U21qFEtRjEBegF+qpOgv7zjIBMnK
Ps/fOlhOsNS2Y8UpV/oCBZpFTWjbKhvUND2fAMNay5VJpW7hsMX8QU1BSm/Td8jX
OI3kGd4Y8x8VZYNtRQxT+QqaLqVdv28ygRiSGWpVAK1jHFIGflXZKWiuSnwYmnmI
ayMj2Cc4KimHdsr7x7ZiIx/telZM3ZwyW/U9DEYYlTsqI2iDZEHZAG0PGSQVaHK9
xXFnbqxM25DrUaUaYgfQvmoARzxyL+xPYT5zhc5aCre6wBwTdeMiOSjdbR0JRp1P
uuhAgZHGpM6UchsBzypuFWeVia59t7fN+Qo9dbZrPCU=
-----END CERTIFICATE-----

