Certificate:
    Data:
        Version: 3 (0x2)
        Serial Number: 7 (0x7)
    Signature Algorithm: sha256WithRSAEncryption
        Issuer: C=US, ST=Arizona, L=Scottsdale, O=Starfield Technologies, Inc., CN=Starfield Root Certificate Authority - G2
        Validity
            Not Before: May  3 07:00:00 2011 GMT
            Not After : May  3 07:00:00 2031 GMT
        Subject: C=US, ST=Arizona, L=Scottsdale, O=Starfield Technologies, Inc., OU=http://certs.starfieldtech.com/repository/, CN=Starfield Secure Certificate Authority - G2
        Subject Public Key Info:
            Public Key Algorithm: rsaEncryption
                Public-Key: (2048 bit)
                Modulus:
                    00:e5:90:66:4b:ec:f9:46:71:a9:20:83:be:e9:6c:
                    bf:4a:c9:48:69:81:75:4e:6d:24:f6:cb:17:13:f8:
                    b0:71:59:84:7a:6b:2b:85:a4:34:b5:16:e5:cb:cc:
                    e9:41:70:2c:a4:2e:d6:fa:32:7d:e1:a8:de:94:10:
                    ac:31:c1:c0:d8:6a:ff:59:27:ab:76:d6:fc:0b:74:
                    6b:b8:a7:ae:3f:c4:54:f4:b4:31:44:dd:93:56:8c:
                    a4:4c:5e:9b:89:cb:24:83:9b:e2:57:7d:b7:d8:12:
                    1f:c9:85:6d:f4:d1:80:f1:50:9b:87:ae:d4:0b:10:
                    05:fb:27:ba:28:6d:17:e9:0e:d6:4d:b9:39:55:06:
                    ff:0a:24:05:7e:2f:c6:1d:72:6c:d4:8b:29:8c:57:
                    7d:da:d9:eb:66:1a:d3:4f:a7:df:7f:52:c4:30:c5:
                    a5:c9:0e:02:c5:53:bf:77:38:68:06:24:c3:66:c8:
                    37:7e:30:1e:45:71:23:35:ff:90:d8:2a:9d:8d:e7:
                    b0:92:4d:3c:7f:2a:0a:93:dc:cd:16:46:65:f7:60:
                    84:8b:76:4b:91:27:73:14:92:e0:ea:ee:8f:16:ea:
                    8d:0e:3e:76:17:bf:7d:89:80:80:44:43:e7:2d:e0:
                    43:09:75:da:36:e8:ad:db:89:3a:f5:5d:12:8e:23:
                    04:83
                Exponent: 65537 (0x10001)
        X509v3 extensions:
            X509v3 Basic Constraints: critical
                CA:TRUE
            X509v3 Key Usage: critical
                Certificate Sign, CRL Sign
            X509v3 Subject Key Identifier: 
                25:45:81:68:50:26:38:3D:3B:2D:2C:BE:CD:6A:D9:B6:3D:B3:66:63
            X509v3 Authority Key Identifier: 
                keyid:7C:0C:32:1F:A7:D9:30:7F:C4:7D:68:A3:62:A8:A1:CE:AB:07:5B:27

            Authority Information Access: 
                OCSP - URI:http://ocsp.starfieldtech.com/

            X509v3 CRL Distribution Points: 

                Full Name:
                  URI:http://crl.starfieldtech.com/sfroot-g2.crl

            X509v3 Certificate Policies: 
                Policy: X509v3 Any Policy
                  CPS: https://certs.starfieldtech.com/repository/

    Signature Algorithm: sha256WithRSAEncryption
         56:65:ca:fe:f3:3f:0a:a8:93:8b:18:c7:de:43:69:13:34:20:
         be:4e:5f:78:a8:6b:9c:db:6a:4d:41:db:c1:13:ec:dc:31:00:
         22:5e:f7:00:9e:0c:e0:34:65:34:f9:b1:3a:4e:48:c8:12:81:
         88:5c:5b:3e:08:53:7a:f7:1a:64:df:b8:50:61:cc:53:51:40:
         29:4b:c2:f4:ae:3a:5f:e4:ca:ad:26:cc:4e:61:43:e5:fd:57:
         a6:37:70:ce:43:2b:b0:94:c3:92:e9:e1:5f:aa:10:49:b7:69:
         e4:e0:d0:1f:64:a4:2b:cd:1f:6f:a0:f8:84:24:18:ce:79:3d:
         a9:91:bf:54:18:13:89:99:54:11:0d:55:c5:26:0b:79:4f:5a:
         1c:6e:f9:63:db:14:80:a4:07:ab:fa:b2:a5:b9:88:dd:91:fe:
         65:3b:a4:a3:79:be:89:4d:e1:d0:b0:f4:c8:17:0c:0a:96:14:
         7c:09:b7:6c:e1:c2:d8:55:d4:18:a0:aa:41:69:70:24:a3:b9:
         ef:e9:5a:dc:3e:eb:94:4a:f0:b7:de:5f:0e:76:fa:fb:fb:69:
         03:45:40:50:ee:72:0c:a4:12:86:81:cd:13:d1:4e:c4:3c:ca:
         4e:0d:d2:26:f1:00:b7:b4:a6:a2:e1:6e:7a:81:fd:30:ac:7a:
         1f:c7:59:7b
-----BEGIN CERTIFICATE-----
MIIFADCCA+igAwIBAgIBBzANBgkqhkiG9w0BAQsFADCBjzELMAkGA1UEBhMCVVMx
EDAOBgNVBAgTB0FyaXpvbmExEzARBgNVBAcTClNjb3R0c2RhbGUxJTAjBgNVBAoT
HFN0YXJmaWVsZCBUZWNobm9sb2dpZXMsIEluYy4xMjAwBgNVBAMTKVN0YXJmaWVs
ZCBSb290IENlcnRpZmljYXRlIEF1dGhvcml0eSAtIEcyMB4XDTExMDUwMzA3MDAw
MFoXDTMxMDUwMzA3MDAwMFowgcYxCzAJBgNVBAYTAlVTMRAwDgYDVQQIEwdBcml6
b25hMRMwEQYDVQQHEwpTY290dHNkYWxlMSUwIwYDVQQKExxTdGFyZmllbGQgVGVj
aG5vbG9naWVzLCBJbmMuMTMwMQYDVQQLEypodHRwOi8vY2VydHMuc3RhcmZpZWxk
dGVjaC5jb20vcmVwb3NpdG9yeS8xNDAyBgNVBAMTK1N0YXJmaWVsZCBTZWN1cmUg
Q2VydGlmaWNhdGUgQXV0aG9yaXR5IC0gRzIwggEiMA0GCSqGSIb3DQEBAQUAA4IB
DwAwggEKAoIBAQDlkGZL7PlGcakgg77pbL9KyUhpgXVObST2yxcT+LBxWYR6ayuF
pDS1FuXLzOlBcCykLtb6Mn3hqN6UEKwxwcDYav9ZJ6t21vwLdGu4p64/xFT0tDFE
3ZNWjKRMXpuJyySDm+JXfbfYEh/JhW300YDxUJuHrtQLEAX7J7oobRfpDtZNuTlV
Bv8KJAV+L8YdcmzUiymMV33a2etmGtNPp99/UsQwxaXJDgLFU793OGgGJMNmyDd+
MB5FcSM1/5DYKp2N57CSTTx/KgqT3M0WRmX3YISLdkuRJ3MUkuDq7o8W6o0OPnYX
v32JgIBEQ+ct4EMJddo26K3biTr1XRKOIwSDAgMBAAGjggEsMIIBKDAPBgNVHRMB
Af8EBTADAQH/MA4GA1UdDwEB/wQEAwIBBjAdBgNVHQ4EFgQUJUWBaFAmOD07LSy+
zWrZtj2zZmMwHwYDVR0jBBgwFoAUfAwyH6fZMH/EfWijYqihzqsHWycwOgYIKwYB
BQUHAQEELjAsMCoGCCsGAQUFBzABhh5odHRwOi8vb2NzcC5zdGFyZmllbGR0ZWNo
LmNvbS8wOwYDVR0fBDQwMjAwoC6gLIYqaHR0cDovL2NybC5zdGFyZmllbGR0ZWNo
LmNvbS9zZnJvb3QtZzIuY3JsMEwGA1UdIARFMEMwQQYEVR0gADA5MDcGCCsGAQUF
BwIBFitodHRwczovL2NlcnRzLnN0YXJmaWVsZHRlY2guY29tL3JlcG9zaXRvcnkv
MA0GCSqGSIb3DQEBCwUAA4IBAQBWZcr+8z8KqJOLGMfeQ2kTNCC+Tl94qGuc22pN
QdvBE+zcMQAiXvcAngzgNGU0+bE6TkjIEoGIXFs+CFN69xpk37hQYcxTUUApS8L0
rjpf5MqtJsxOYUPl/VemN3DOQyuwlMOS6eFfqhBJt2nk4NAfZKQrzR9voPiEJBjO
eT2pkb9UGBOJmVQRDVXFJgt5T1ocbvlj2xSApAer+rKluYjdkf5lO6Sjeb6JTeHQ
sPTIFwwKlhR8Cbds4cLYVdQYoKpBaXAko7nv6VrcPuuUSvC33l8Odvr7+2kDRUBQ
7nIMpBKGgc0T0U7EPMpODdIm8QC3tKai4W56gf0wrHofx1l7
-----END CERTIFICATE-----

Certificate:
    Data:
        Version: 3 (0x2)
        Serial Number:
            a1:0d:17:47:21:d9:a7:55:98:a1:6f:f8:d7:ca:64:42
    Signature Algorithm: sha256WithRSAEncryption
        Issuer: C=GB, ST=Greater Manchester, L=Salford, O=COMODO CA Limited, CN=COMODO RSA Code Signing CA
        Validity
            Not Before: Feb 23 00:00:00 2018 GMT
            Not After : Feb 23 23:59:59 2019 GMT
        Subject: C=GB/postalCode=DT4 9BP, ST=Dorset, L=Weymouth/street=50a Williams Avenue, O=CYCOLOGY LTD, CN=CYCOLOGY LTD
        Subject Public Key Info:
            Public Key Algorithm: rsaEncryption
                Public-Key: (2048 bit)
                Modulus:
                    00:ba:8f:6c:a8:90:4f:f2:8a:e7:6f:56:9b:1c:f5:
                    25:ef:9a:b9:48:7d:72:9a:1c:2e:03:d6:1c:e8:bf:
                    87:68:e2:a7:2b:81:f5:73:ac:01:b1:06:d2:a6:d1:
                    82:18:48:26:cb:d1:86:09:7f:d5:8e:c9:be:21:1b:
                    f1:ef:65:50:b6:16:c9:73:0d:ee:f0:fd:0b:02:9a:
                    17:68:ad:6b:5a:31:d7:6e:c9:3c:52:e5:e0:1d:b6:
                    b3:08:3d:de:b9:29:b8:c3:e3:5a:ce:79:e0:e9:0b:
                    53:db:c5:12:da:3b:0b:81:21:5f:bf:6a:9b:af:45:
                    3b:f8:e7:a9:f0:0a:b5:b3:85:9b:2d:4a:a7:1d:07:
                    db:30:f8:6e:86:9a:70:24:ec:62:86:7b:a1:32:11:
                    73:fc:1d:d4:a0:83:cf:c4:6a:28:ad:75:10:b6:b1:
                    d3:ca:f4:7a:ee:69:4f:5e:ea:32:9f:03:39:26:2a:
                    73:c9:ef:9f:b1:c8:c6:ba:cd:dd:63:b4:8d:1f:12:
                    e8:c6:d3:eb:5b:fe:65:ca:11:d2:d9:f9:3a:de:22:
                    23:47:7b:e8:56:f1:79:5c:86:c3:3f:4d:f1:98:02:
                    aa:bc:dd:49:c1:b0:09:80:df:2e:e8:2d:d1:75:ba:
                    83:8a:38:43:ab:a1:0f:b3:fe:6c:85:f7:13:ee:08:
                    36:9f
                Exponent: 65537 (0x10001)
        X509v3 extensions:
            X509v3 Authority Key Identifier: 
                keyid:29:91:60:FF:8A:4D:FA:EB:F9:A6:6A:B8:CF:F9:E6:4B:BD:49:CE:12

            X509v3 Subject Key Identifier: 
                CA:C8:47:D6:62:E0:BA:CD:D9:5B:6F:01:2F:CB:CC:47:01:8F:E1:FE
            X509v3 Key Usage: critical
                Digital Signature
            X509v3 Basic Constraints: critical
                CA:FALSE
            X509v3 Extended Key Usage: 
                Code Signing
            Netscape Cert Type: 
                Object Signing
            X509v3 Certificate Policies: 
                Policy: 1.3.6.1.4.1.6449.1.2.1.3.2
                  CPS: https://secure.comodo.net/CPS

            X509v3 CRL Distribution Points: 

                Full Name:
                  URI:http://crl.comodoca.com/COMODORSACodeSigningCA.crl

            Authority Information Access: 
                CA Issuers - URI:http://crt.comodoca.com/COMODORSACodeSigningCA.crt
                OCSP - URI:http://ocsp.comodoca.com

    Signature Algorithm: sha256WithRSAEncryption
         99:fd:f9:5f:41:5d:3b:5f:0f:38:69:4a:c0:e4:93:08:67:62:
         31:7e:fe:f9:ad:38:45:d5:8b:e5:c2:74:b1:9c:20:ed:c6:11:
         56:a1:7f:b4:57:4f:d6:6a:c5:f6:d9:88:20:01:42:dc:d4:22:
         fa:08:a7:50:7e:30:f5:11:29:c1:d2:25:13:b3:65:95:75:30:
         81:84:fc:42:14:bf:1b:fb:52:3e:0b:f6:ad:06:8f:cf:52:07:
         3f:1e:1d:ea:85:cf:65:a9:b3:1a:2e:c0:d1:db:5b:2e:f5:60:
         b9:8a:c8:fe:cc:2a:af:6a:df:7e:69:36:21:14:79:fe:d4:d5:
         a3:55:08:25:b6:f8:98:cb:ac:dd:2e:48:f7:18:89:59:cc:98:
         3c:3c:1c:22:49:b2:c8:c9:bd:b2:2a:cf:68:d2:05:1f:71:5a:
         6d:95:17:a9:cb:4b:fd:92:17:28:a5:03:36:14:fc:5a:4e:d4:
         1b:e7:a0:52:3f:73:82:36:0d:a6:21:d1:b3:77:7d:92:10:d8:
         22:29:f0:73:c7:e8:0c:d3:cb:68:72:c8:26:27:1b:db:9a:89:
         fb:6a:ad:89:39:c7:7e:e7:07:de:90:8a:15:a9:8f:16:ff:ca:
         e2:ce:31:53:bf:4e:3a:70:0f:19:cf:91:b8:60:99:77:6d:87:
         0a:6c:0b:92
-----BEGIN CERTIFICATE-----
MIIFJzCCBA+gAwIBAgIRAKENF0ch2adVmKFv+NfKZEIwDQYJKoZIhvcNAQELBQAw
fTELMAkGA1UEBhMCR0IxGzAZBgNVBAgTEkdyZWF0ZXIgTWFuY2hlc3RlcjEQMA4G
A1UEBxMHU2FsZm9yZDEaMBgGA1UEChMRQ09NT0RPIENBIExpbWl0ZWQxIzAhBgNV
BAMTGkNPTU9ETyBSU0EgQ29kZSBTaWduaW5nIENBMB4XDTE4MDIyMzAwMDAwMFoX
DTE5MDIyMzIzNTk1OVowgY8xCzAJBgNVBAYTAkdCMRAwDgYDVQQRDAdEVDQgOUJQ
MQ8wDQYDVQQIDAZEb3JzZXQxETAPBgNVBAcMCFdleW1vdXRoMRwwGgYDVQQJDBM1
MGEgV2lsbGlhbXMgQXZlbnVlMRUwEwYDVQQKDAxDWUNPTE9HWSBMVEQxFTATBgNV
BAMMDENZQ09MT0dZIExURDCCASIwDQYJKoZIhvcNAQEBBQADggEPADCCAQoCggEB
ALqPbKiQT/KK529Wmxz1Je+auUh9cpocLgPWHOi/h2jipyuB9XOsAbEG0qbRghhI
JsvRhgl/1Y7JviEb8e9lULYWyXMN7vD9CwKaF2ita1ox127JPFLl4B22swg93rkp
uMPjWs554OkLU9vFEto7C4EhX79qm69FO/jnqfAKtbOFmy1Kpx0H2zD4boaacCTs
YoZ7oTIRc/wd1KCDz8RqKK11ELax08r0eu5pT17qMp8DOSYqc8nvn7HIxrrN3WO0
jR8S6MbT61v+ZcoR0tn5Ot4iI0d76FbxeVyGwz9N8ZgCqrzdScGwCYDfLugt0XW6
g4o4Q6uhD7P+bIX3E+4INp8CAwEAAaOCAY0wggGJMB8GA1UdIwQYMBaAFCmRYP+K
Tfrr+aZquM/55ku9Sc4SMB0GA1UdDgQWBBTKyEfWYuC6zdlbbwEvy8xHAY/h/jAO
BgNVHQ8BAf8EBAMCB4AwDAYDVR0TAQH/BAIwADATBgNVHSUEDDAKBggrBgEFBQcD
AzARBglghkgBhvhCAQEEBAMCBBAwRgYDVR0gBD8wPTA7BgwrBgEEAbIxAQIBAwIw
KzApBggrBgEFBQcCARYdaHR0cHM6Ly9zZWN1cmUuY29tb2RvLm5ldC9DUFMwQwYD
VR0fBDwwOjA4oDagNIYyaHR0cDovL2NybC5jb21vZG9jYS5jb20vQ09NT0RPUlNB
Q29kZVNpZ25pbmdDQS5jcmwwdAYIKwYBBQUHAQEEaDBmMD4GCCsGAQUFBzAChjJo
dHRwOi8vY3J0LmNvbW9kb2NhLmNvbS9DT01PRE9SU0FDb2RlU2lnbmluZ0NBLmNy
dDAkBggrBgEFBQcwAYYYaHR0cDovL29jc3AuY29tb2RvY2EuY29tMA0GCSqGSIb3
DQEBCwUAA4IBAQCZ/flfQV07Xw84aUrA5JMIZ2Ixfv75rThF1YvlwnSxnCDtxhFW
oX+0V0/WasX22YggAULc1CL6CKdQfjD1ESnB0iUTs2WVdTCBhPxCFL8b+1I+C/at
Bo/PUgc/Hh3qhc9lqbMaLsDR21su9WC5isj+zCqvat9+aTYhFHn+1NWjVQgltviY
y6zdLkj3GIlZzJg8PBwiSbLIyb2yKs9o0gUfcVptlRepy0v9khcopQM2FPxaTtQb
56BSP3OCNg2mIdGzd32SENgiKfBzx+gM08tocsgmJxvbmon7aq2JOcd+5wfekIoV
qY8W/8rizjFTv046cA8Zz5G4YJl3bYcKbAuS
-----END CERTIFICATE-----

Certificate:
    Data:
        Version: 3 (0x2)
        Serial Number:
            ef:95:c2:f4:80:e3:1b:93
    Signature Algorithm: sha256WithRSAEncryption
        Issuer: C=US, ST=Arizona, L=Scottsdale, O=Starfield Technologies, Inc., OU=http://certs.starfieldtech.com/repository/, CN=Starfield Secure Certificate Authority - G2
        Validity
            Not Before: Nov 14 07:00:00 2017 GMT
            Not After : Nov 14 07:00:00 2022 GMT
        Subject: C=US, ST=Arizona, L=Scottsdale, O=Starfield Technologies, LLC, CN=Starfield Timestamp Authority - G2
        Subject Public Key Info:
            Public Key Algorithm: rsaEncryption
                Public-Key: (2048 bit)
                Modulus:
                    00:e6:ef:7d:0a:bb:74:8f:c8:46:a1:b6:26:9f:c9:
                    38:52:31:2b:c6:54:5c:3a:26:10:6b:62:44:18:39:
                    c1:f5:d1:28:e2:11:14:56:2e:7d:c3:0f:9d:62:b1:
                    66:43:22:b9:31:99:37:72:ff:31:2d:da:6d:2a:7f:
                    6a:1d:1a:4e:ca:44:f7:8e:ec:e3:25:11:b7:86:4b:
                    80:9c:d7:51:fb:3a:fc:46:e9:54:80:0c:56:d8:4e:
                    4a:e0:19:11:1e:0e:01:71:3c:0f:16:cd:e6:89:60:
                    55:70:26:ae:e4:72:81:52:18:de:fd:ee:11:ce:a1:
                    8b:1d:fc:69:03:fe:2a:a7:12:33:5f:61:15:1c:29:
                    d6:87:f5:bf:d8:ce:3c:23:b5:ee:ae:6d:ae:48:7a:
                    99:6c:37:1d:1e:5d:65:3e:cf:2e:db:7d:fd:b5:41:
                    bd:47:43:43:f4:55:3b:98:09:bb:e2:44:99:27:84:
                    a3:99:29:21:ae:36:14:3d:08:50:f3:31:06:dc:6e:
                    c6:f2:c7:7f:a8:bf:f8:8c:68:81:a9:ec:d1:cd:96:
                    4f:f8:85:1d:6b:14:59:8c:c0:f4:53:fe:6d:76:dc:
                    9f:31:1a:9a:18:04:f3:cc:38:7c:a4:d7:96:c5:ff:
                    59:5a:47:79:00:af:77:e1:6e:3d:0e:42:85:0e:50:
                    52:01
                Exponent: 65537 (0x10001)
        X509v3 extensions:
            X509v3 Basic Constraints: critical
                CA:FALSE
            X509v3 Key Usage: critical
                Digital Signature, Non Repudiation
            X509v3 Extended Key Usage: critical
                Time Stamping
            X509v3 Subject Key Identifier: 
                9D:CF:1C:80:FE:0A:D6:A2:FC:58:18:3E:A7:D3:54:40:EE:D6:14:61
            X509v3 Authority Key Identifier: 
                keyid:25:45:81:68:50:26:38:3D:3B:2D:2C:BE:CD:6A:D9:B6:3D:B3:66:63

            Authority Information Access: 
                OCSP - URI:http://ocsp.starfieldtech.com/
                CA Issuers - URI:http://crl.starfieldtech.com/repository/sf_issuing_ca-g2.crt

            X509v3 CRL Distribution Points: 

                Full Name:
                  URI:http://crl.starfieldtech.com/repository/masterstarfield2issuing.crl

            X509v3 Certificate Policies: 
                Policy: 2.16.840.1.114414.1.7.23.2
                  CPS: http://crl.starfieldtech.com/repository/

    Signature Algorithm: sha256WithRSAEncryption
         52:46:81:f3:ca:56:63:9a:e4:15:18:1a:48:33:81:95:07:00:
         f0:d5:0b:10:34:a0:35:87:d0:4e:7e:95:00:74:0e:50:c7:82:
         fe:46:e8:ee:09:bb:67:6a:2f:d4:c0:25:f8:51:01:2d:22:f8:
         f6:97:c0:b3:96:6f:3f:f2:c5:97:3d:8e:90:8d:0d:b5:56:21:
         12:19:77:1c:d7:bd:1e:dd:39:2b:d1:3e:05:85:c5:6d:4c:b2:
         2a:79:d7:2b:3d:4d:05:76:c9:b5:40:c8:0f:82:8d:5c:2e:34:
         e0:0b:61:6a:d3:d9:98:50:04:4a:78:ee:56:ec:2d:16:a0:e1:
         5c:18:a7:27:55:91:b7:ca:6b:81:20:69:df:b4:57:44:87:42:
         b5:b1:c2:73:1a:8f:fe:cf:4f:e6:fc:5a:29:61:4f:14:d1:5c:
         d5:a5:c5:19:50:fb:dc:25:6b:94:aa:c2:7e:4f:c1:a7:de:27:
         0b:fa:78:64:ba:9c:a0:b4:d1:c4:4f:0d:0e:96:0c:2a:38:e9:
         58:4e:8e:49:af:e7:42:7e:a3:dd:e9:f4:b3:36:86:41:6e:a1:
         13:2b:47:93:b7:0f:c6:5c:83:58:db:69:be:2b:4c:34:fe:7f:
         e5:a7:e5:e6:27:f4:fc:1b:60:1e:de:e1:63:23:45:a7:f2:96:
         6e:44:dc:7a
-----BEGIN CERTIFICATE-----
MIIFfTCCBGWgAwIBAgIJAO+VwvSA4xuTMA0GCSqGSIb3DQEBCwUAMIHGMQswCQYD
VQQGEwJVUzEQMA4GA1UECBMHQXJpem9uYTETMBEGA1UEBxMKU2NvdHRzZGFsZTEl
MCMGA1UEChMcU3RhcmZpZWxkIFRlY2hub2xvZ2llcywgSW5jLjEzMDEGA1UECxMq
aHR0cDovL2NlcnRzLnN0YXJmaWVsZHRlY2guY29tL3JlcG9zaXRvcnkvMTQwMgYD
VQQDEytTdGFyZmllbGQgU2VjdXJlIENlcnRpZmljYXRlIEF1dGhvcml0eSAtIEcy
MB4XDTE3MTExNDA3MDAwMFoXDTIyMTExNDA3MDAwMFowgYcxCzAJBgNVBAYTAlVT
MRAwDgYDVQQIEwdBcml6b25hMRMwEQYDVQQHEwpTY290dHNkYWxlMSQwIgYDVQQK
ExtTdGFyZmllbGQgVGVjaG5vbG9naWVzLCBMTEMxKzApBgNVBAMTIlN0YXJmaWVs
ZCBUaW1lc3RhbXAgQXV0aG9yaXR5IC0gRzIwggEiMA0GCSqGSIb3DQEBAQUAA4IB
DwAwggEKAoIBAQDm730Ku3SPyEahtiafyThSMSvGVFw6JhBrYkQYOcH10SjiERRW
Ln3DD51isWZDIrkxmTdy/zEt2m0qf2odGk7KRPeO7OMlEbeGS4Cc11H7OvxG6VSA
DFbYTkrgGREeDgFxPA8WzeaJYFVwJq7kcoFSGN797hHOoYsd/GkD/iqnEjNfYRUc
KdaH9b/Yzjwjte6uba5IeplsNx0eXWU+zy7bff21Qb1HQ0P0VTuYCbviRJknhKOZ
KSGuNhQ9CFDzMQbcbsbyx3+ov/iMaIGp7NHNlk/4hR1rFFmMwPRT/m123J8xGpoY
BPPMOHyk15bF/1laR3kAr3fhbj0OQoUOUFIBAgMBAAGjggGpMIIBpTAMBgNVHRMB
Af8EAjAAMA4GA1UdDwEB/wQEAwIGwDAWBgNVHSUBAf8EDDAKBggrBgEFBQcDCDAd
BgNVHQ4EFgQUnc8cgP4K1qL8WBg+p9NUQO7WFGEwHwYDVR0jBBgwFoAUJUWBaFAm
OD07LSy+zWrZtj2zZmMwgYQGCCsGAQUFBwEBBHgwdjAqBggrBgEFBQcwAYYeaHR0
cDovL29jc3Auc3RhcmZpZWxkdGVjaC5jb20vMEgGCCsGAQUFBzAChjxodHRwOi8v
Y3JsLnN0YXJmaWVsZHRlY2guY29tL3JlcG9zaXRvcnkvc2ZfaXNzdWluZ19jYS1n
Mi5jcnQwVAYDVR0fBE0wSzBJoEegRYZDaHR0cDovL2NybC5zdGFyZmllbGR0ZWNo
LmNvbS9yZXBvc2l0b3J5L21hc3RlcnN0YXJmaWVsZDJpc3N1aW5nLmNybDBQBgNV
HSAESTBHMEUGC2CGSAGG/W4BBxcCMDYwNAYIKwYBBQUHAgEWKGh0dHA6Ly9jcmwu
c3RhcmZpZWxkdGVjaC5jb20vcmVwb3NpdG9yeS8wDQYJKoZIhvcNAQELBQADggEB
AFJGgfPKVmOa5BUYGkgzgZUHAPDVCxA0oDWH0E5+lQB0DlDHgv5G6O4Ju2dqL9TA
JfhRAS0i+PaXwLOWbz/yxZc9jpCNDbVWIRIZdxzXvR7dOSvRPgWFxW1Msip51ys9
TQV2ybVAyA+CjVwuNOALYWrT2ZhQBEp47lbsLRag4VwYpydVkbfKa4Egad+0V0SH
QrWxwnMaj/7PT+b8WilhTxTRXNWlxRlQ+9wla5Sqwn5PwafeJwv6eGS6nKC00cRP
DQ6WDCo46VhOjkmv50J+o93p9LM2hkFuoRMrR5O3D8Zcg1jbab4rTDT+f+Wn5eYn
9PwbYB7e4WMjRafylm5E3Ho=
-----END CERTIFICATE-----

Certificate:
    Data:
        Version: 3 (0x2)
        Serial Number:
            2e:7c:87:cc:0e:93:4a:52:fe:94:fd:1c:b7:cd:34:af
    Signature Algorithm: sha384WithRSAEncryption
        Issuer: C=GB, ST=Greater Manchester, L=Salford, O=COMODO CA Limited, CN=COMODO RSA Certification Authority
        Validity
            Not Before: May  9 00:00:00 2013 GMT
            Not After : May  8 23:59:59 2028 GMT
        Subject: C=GB, ST=Greater Manchester, L=Salford, O=COMODO CA Limited, CN=COMODO RSA Code Signing CA
        Subject Public Key Info:
            Public Key Algorithm: rsaEncryption
                Public-Key: (2048 bit)
                Modulus:
                    00:a6:98:90:63:77:91:34:7f:8a:d1:dd:e9:67:31:
                    11:eb:cc:1e:fd:31:1d:b3:b9:62:57:3f:93:bc:5b:
                    e3:9f:1e:24:32:11:27:6b:bc:51:91:a7:cf:9e:9e:
                    25:b3:5f:81:a8:18:0f:1d:1e:20:30:0e:fb:61:7b:
                    86:09:b3:e3:fd:a2:68:9d:1c:2c:9d:bf:72:e3:e4:
                    75:a0:e5:35:23:8e:c9:8a:ee:1a:0c:64:c7:d8:42:
                    a1:7b:b5:52:03:4b:3a:b0:8e:23:4b:4b:63:e0:22:
                    94:37:7b:d5:79:90:0a:14:18:51:2c:e6:fe:c1:12:
                    f0:1c:3f:61:61:0a:8c:a2:dc:f6:c3:30:aa:cd:28:
                    18:75:48:c1:79:5a:08:cd:bb:8c:55:8c:f7:d4:76:
                    90:3a:33:46:50:73:98:5c:f4:85:4a:6b:0f:80:dd:
                    5e:d6:bd:fd:a9:2f:c0:25:f5:f9:78:d7:8d:5f:10:
                    c2:44:55:3c:90:3c:31:46:cb:70:ae:07:a9:0a:e3:
                    af:c1:01:6f:90:1a:23:e2:5f:38:db:c6:08:5d:47:
                    b3:83:41:f0:2e:00:37:14:b9:12:aa:79:92:52:cd:
                    87:0f:7b:d8:62:29:a4:7e:30:bd:1b:b5:8c:72:b4:
                    48:f2:e3:e8:21:f9:5e:4c:62:79:8b:02:06:9f:7f:
                    d5:0b
                Exponent: 65537 (0x10001)
        X509v3 extensions:
            X509v3 Authority Key Identifier: 
                keyid:BB:AF:7E:02:3D:FA:A6:F1:3C:84:8E:AD:EE:38:98:EC:D9:32:32:D4

            X509v3 Subject Key Identifier: 
                29:91:60:FF:8A:4D:FA:EB:F9:A6:6A:B8:CF:F9:E6:4B:BD:49:CE:12
            X509v3 Key Usage: critical
                Digital Signature, Certificate Sign, CRL Sign
            X509v3 Basic Constraints: critical
                CA:TRUE, pathlen:0
            X509v3 Extended Key Usage: 
                Code Signing
            X509v3 Certificate Policies: 
                Policy: X509v3 Any Policy

            X509v3 CRL Distribution Points: 

                Full Name:
                  URI:http://crl.comodoca.com/COMODORSACertificationAuthority.crl

            Authority Information Access: 
                CA Issuers - URI:http://crt.comodoca.com/COMODORSAAddTrustCA.crt
                OCSP - URI:http://ocsp.comodoca.com

    Signature Algorithm: sha384WithRSAEncryption
         02:3f:02:39:c3:ee:f8:ca:3b:89:de:0c:6d:4d:b1:f1:4e:92:
         4f:af:c2:38:2c:04:cc:c5:63:11:ab:09:63:af:ab:a2:d7:02:
         3f:cc:6f:19:c3:3d:d6:1a:08:94:ff:25:d8:a9:88:a7:2b:10:
         1a:e0:9b:b1:07:22:1a:51:1c:3a:d4:e1:e9:09:bf:e6:24:74:
         af:1e:7b:16:31:6e:23:ef:54:51:2d:52:02:e2:75:08:05:4c:
         f1:b7:51:e1:51:00:c6:87:f6:6c:ee:10:44:76:57:6a:f1:df:
         58:6b:21:aa:49:d4:7c:37:4e:bd:ff:b6:75:54:40:18:36:57:
         67:11:cd:4f:02:e4:fe:f3:da:fc:75:17:db:ec:b7:f7:65:09:
         23:49:1f:43:57:83:ea:7e:20:77:61:c8:4d:f2:bb:65:4d:a8:
         f7:85:45:07:af:7a:69:27:65:90:29:40:8b:df:7b:3a:51:39:
         8c:a8:1f:70:79:ad:6d:42:20:a2:cf:0c:6c:03:8c:4c:cd:73:
         07:94:e7:5a:8e:3a:04:ba:a2:a1:7c:1f:cb:63:3a:15:a7:d4:
         15:1b:a7:52:47:32:a9:f4:bf:64:47:d1:aa:1f:53:4e:32:30:
         73:c2:6f:b7:78:82:9d:5c:ff:46:bb:6b:22:1d:88:0b:f8:1b:
         aa:34:a6:fc:8c:f5:dd:7f:65:8c:8c:31:57:31:d0:36:ec:47:
         a1:cf:cb:8b:a8:ef:1c:18:58:c5:06:77:ca:4b:9b:51:af:4c:
         08:4a:7a:8f:e2:a3:52:e2:8e:8e:cc:26:e4:b2:d8:e5:38:c2:
         a8:ed:c6:81:9c:35:6b:a9:58:61:4a:0a:97:b4:4b:42:b6:55:
         9d:be:99:e7:70:6d:59:f8:6d:2a:0c:7f:19:60:5f:0c:9a:88:
         6c:30:ac:52:09:90:16:1b:ff:2b:9d:db:d0:20:ca:89:ea:28:
         7e:32:8e:19:df:7b:48:33:1e:d7:65:f8:ae:c9:f8:83:14:93:
         76:7d:64:d0:8e:ce:be:35:7d:ff:72:31:4d:9f:9e:bd:1e:6c:
         2f:a8:8f:0c:06:50:fb:8c:27:b3:76:c9:f4:e6:d7:c3:34:e2:
         8c:87:21:86:61:fe:bf:55:74:e1:21:77:03:0a:68:6c:bb:e4:
         c9:a9:e6:cf:59:25:eb:7c:ec:45:0e:79:66:68:e8:22:cd:b8:
         ef:98:85:4d:96:11:3c:09:8a:d0:7f:bc:28:28:13:fb:6a:ca:
         54:8d:92:5c:cd:c2:65:98:06:9e:ce:48:5b:d4:b5:37:93:46:
         41:7c:07:dd:cf:fa:43:ef:ba:67:61:ff:7d:49:e0:bb:30:7d:
         5c:80:e3:e6:16:39:4b:a7
-----BEGIN CERTIFICATE-----
MIIF4DCCA8igAwIBAgIQLnyHzA6TSlL+lP0ct800rzANBgkqhkiG9w0BAQwFADCB
hTELMAkGA1UEBhMCR0IxGzAZBgNVBAgTEkdyZWF0ZXIgTWFuY2hlc3RlcjEQMA4G
A1UEBxMHU2FsZm9yZDEaMBgGA1UEChMRQ09NT0RPIENBIExpbWl0ZWQxKzApBgNV
BAMTIkNPTU9ETyBSU0EgQ2VydGlmaWNhdGlvbiBBdXRob3JpdHkwHhcNMTMwNTA5
MDAwMDAwWhcNMjgwNTA4MjM1OTU5WjB9MQswCQYDVQQGEwJHQjEbMBkGA1UECBMS
R3JlYXRlciBNYW5jaGVzdGVyMRAwDgYDVQQHEwdTYWxmb3JkMRowGAYDVQQKExFD
T01PRE8gQ0EgTGltaXRlZDEjMCEGA1UEAxMaQ09NT0RPIFJTQSBDb2RlIFNpZ25p
bmcgQ0EwggEiMA0GCSqGSIb3DQEBAQUAA4IBDwAwggEKAoIBAQCmmJBjd5E0f4rR
3elnMRHrzB79MR2zuWJXP5O8W+OfHiQyESdrvFGRp8+eniWzX4GoGA8dHiAwDvth
e4YJs+P9omidHCydv3Lj5HWg5TUjjsmK7hoMZMfYQqF7tVIDSzqwjiNLS2PgIpQ3
e9V5kAoUGFEs5v7BEvAcP2FhCoyi3PbDMKrNKBh1SMF5WgjNu4xVjPfUdpA6M0ZQ
c5hc9IVKaw+A3V7Wvf2pL8Al9fl4141fEMJEVTyQPDFGy3CuB6kK46/BAW+QGiPi
XzjbxghdR7ODQfAuADcUuRKqeZJSzYcPe9hiKaR+ML0btYxytEjy4+gh+V5MYnmL
Agaff9ULAgMBAAGjggFRMIIBTTAfBgNVHSMEGDAWgBS7r34CPfqm8TyEjq3uOJjs
2TIy1DAdBgNVHQ4EFgQUKZFg/4pN+uv5pmq4z/nmS71JzhIwDgYDVR0PAQH/BAQD
AgGGMBIGA1UdEwEB/wQIMAYBAf8CAQAwEwYDVR0lBAwwCgYIKwYBBQUHAwMwEQYD
VR0gBAowCDAGBgRVHSAAMEwGA1UdHwRFMEMwQaA/oD2GO2h0dHA6Ly9jcmwuY29t
b2RvY2EuY29tL0NPTU9ET1JTQUNlcnRpZmljYXRpb25BdXRob3JpdHkuY3JsMHEG
CCsGAQUFBwEBBGUwYzA7BggrBgEFBQcwAoYvaHR0cDovL2NydC5jb21vZG9jYS5j
b20vQ09NT0RPUlNBQWRkVHJ1c3RDQS5jcnQwJAYIKwYBBQUHMAGGGGh0dHA6Ly9v
Y3NwLmNvbW9kb2NhLmNvbTANBgkqhkiG9w0BAQwFAAOCAgEAAj8COcPu+Mo7id4M
bU2x8U6ST6/COCwEzMVjEasJY6+rotcCP8xvGcM91hoIlP8l2KmIpysQGuCbsQci
GlEcOtTh6Qm/5iR0rx57FjFuI+9UUS1SAuJ1CAVM8bdR4VEAxof2bO4QRHZXavHf
WGshqknUfDdOvf+2dVRAGDZXZxHNTwLk/vPa/HUX2+y392UJI0kfQ1eD6n4gd2HI
TfK7ZU2o94VFB696aSdlkClAi997OlE5jKgfcHmtbUIgos8MbAOMTM1zB5TnWo46
BLqioXwfy2M6FafUFRunUkcyqfS/ZEfRqh9TTjIwc8Jvt3iCnVz/RrtrIh2IC/gb
qjSm/Iz13X9ljIwxVzHQNuxHoc/Li6jvHBhYxQZ3ykubUa9MCEp6j+KjUuKOjswm
5LLY5TjCqO3GgZw1a6lYYUoKl7RLQrZVnb6Z53BtWfhtKgx/GWBfDJqIbDCsUgmQ
Fhv/K53b0CDKieoofjKOGd97SDMe12X4rsn4gxSTdn1k0I7OvjV9/3IxTZ+evR5s
L6iPDAZQ+4wns3bJ9ObXwzTijIchhmH+v1V04SF3AwpobLvkyanmz1kl63zsRQ55
ZmjoIs2475iFTZYRPAmK0H+8KCgT+2rKVI2SXM3CZZgGns5IW9S1N5NGQXwH3c/6
Q++6Z2H/fUnguzB9XIDj5hY5S6c=
-----END CERTIFICATE-----

