Certificate:
    Data:
        Version: 3 (0x2)
        Serial Number:
            16:88:f0:39:25:5e:63:8e:69:14:39:07:e6:33:0b
    Signature Algorithm: sha1WithRSAEncryption
        Issuer: C=US, ST=UT, L=Salt Lake City, O=The USERTRUST Network, OU=http://www.usertrust.com, CN=UTN-USERFirst-Object
        Validity
            Not Before: Dec 31 00:00:00 2015 GMT
            Not After : Jul  9 18:40:36 2019 GMT
        Subject: C=GB, ST=Greater Manchester, L=Salford, O=COMODO CA Limited, CN=COMODO SHA-1 Time Stamping Signer
        Subject Public Key Info:
            Public Key Algorithm: rsaEncryption
                Public-Key: (2048 bit)
                Modulus:
                    00:e9:e9:3d:df:d7:37:08:c9:1e:38:b2:52:53:42:
                    6d:22:f1:b1:c4:06:04:6b:9e:fd:82:74:50:43:7d:
                    c6:a0:bb:1f:4e:f9:02:71:26:b1:ef:43:d8:83:8c:
                    48:fc:e7:0f:97:7a:9a:eb:9c:de:a6:a3:0e:3b:1c:
                    44:18:75:8e:78:a5:17:69:fe:49:18:a4:e2:bb:5c:
                    4e:fe:8e:2a:54:7a:50:f0:d5:f6:cc:91:e7:99:79:
                    d7:de:79:94:d7:96:33:fe:0e:83:be:22:bf:63:16:
                    2c:a3:dd:28:1b:af:3d:ab:ea:97:d2:f1:bf:04:10:
                    e7:3d:48:45:fd:1f:68:65:c1:7f:59:99:69:c0:22:
                    31:0c:62:6e:a7:5c:65:01:21:b0:63:c4:22:18:27:
                    ee:e6:fc:d2:00:3d:47:2e:a8:b8:86:56:5d:04:dc:
                    13:17:25:6e:1c:df:44:0f:15:cd:b7:db:a5:57:76:
                    42:6f:00:68:82:99:d2:e3:c1:de:f0:8b:94:57:4c:
                    ec:08:90:22:21:ce:22:2b:98:0c:42:e6:42:93:94:
                    98:93:ef:fd:06:d9:3f:bc:5b:9b:54:3c:20:b1:ee:
                    6a:d6:47:7a:c5:ab:80:e9:30:9a:de:f1:a4:3f:55:
                    4d:0a:09:34:8a:75:29:d2:69:ad:97:0f:50:bf:f8:
                    ca:09
                Exponent: 65537 (0x10001)
        X509v3 extensions:
            X509v3 Authority Key Identifier: 
                keyid:DA:ED:64:74:14:9C:14:3C:AB:DD:99:A9:BD:5B:28:4D:8B:3C:C9:D8

            X509v3 Subject Key Identifier: 
                8E:6B:2D:33:6B:F4:33:A7:93:B3:13:9A:A5:E0:0A:F7:12:35:6A:88
            X509v3 Key Usage: critical
                Digital Signature, Non Repudiation
            X509v3 Basic Constraints: critical
                CA:FALSE
            X509v3 Extended Key Usage: critical
                Time Stamping
            X509v3 CRL Distribution Points: 

                Full Name:
                  URI:http://crl.usertrust.com/UTN-USERFirst-Object.crl

            Authority Information Access: 
                OCSP - URI:http://ocsp.usertrust.com

    Signature Algorithm: sha1WithRSAEncryption
         ba:33:24:40:40:8c:7c:db:58:9f:b3:60:98:b2:f5:c0:31:fe:
         eb:1f:6e:50:f6:0a:e0:e4:e6:81:ad:26:87:a2:df:fd:b3:da:
         f4:73:f3:00:fb:29:1b:89:1b:15:3e:db:6b:52:93:2b:c4:ac:
         39:81:d7:3c:67:57:9a:39:36:e0:28:08:9a:e3:39:4f:9b:89:
         09:7f:7b:c5:61:7f:59:89:32:25:0a:6a:ae:1a:3e:f0:a2:27:
         a8:b6:c3:b8:87:f7:16:04:48:41:3d:5c:d8:ec:9f:4d:20:31:
         04:d9:65:a1:ed:cd:69:07:53:16:3d:dd:36:02:0a:88:eb:40:
         e5:06:30:0b:b8:16:4b:dc:ef:bc:55:09:ff:c6:3e:12:2e:76:
         b3:dc:ce:42:ef:f9:76:57:e1:b7:0a:05:40:98:58:9a:5d:71:
         16:93:71:8c:65:81:ea:6f:f3:89:f7:fb:73:ad:b4:e7:bf:d9:
         8e:6f:aa:0b:4f:25:f3:b8:e1:d5:dd:75:98:68:81:f8:aa:c0:
         d1:80:c2:c4:c4:39:89:c1:f6:c9:9e:6c:d7:74:f9:d9:97:f8:
         4f:c2:9a:0a:cd:5e:8f:f8:19:e9:e0:a5:9f:c4:f0:92:21:e6:
         2d:79:25:c9:22:f9:c3:f0:3a:84:57:ad:3a:16:f4:63:94:10:
         1d:5d:d0:c6
-----BEGIN CERTIFICATE-----
MIIEmTCCA4GgAwIBAgIPFojwOSVeY45pFDkH5jMLMA0GCSqGSIb3DQEBBQUAMIGV
MQswCQYDVQQGEwJVUzELMAkGA1UECBMCVVQxFzAVBgNVBAcTDlNhbHQgTGFrZSBD
aXR5MR4wHAYDVQQKExVUaGUgVVNFUlRSVVNUIE5ldHdvcmsxITAfBgNVBAsTGGh0
dHA6Ly93d3cudXNlcnRydXN0LmNvbTEdMBsGA1UEAxMUVVROLVVTRVJGaXJzdC1P
YmplY3QwHhcNMTUxMjMxMDAwMDAwWhcNMTkwNzA5MTg0MDM2WjCBhDELMAkGA1UE
BhMCR0IxGzAZBgNVBAgTEkdyZWF0ZXIgTWFuY2hlc3RlcjEQMA4GA1UEBxMHU2Fs
Zm9yZDEaMBgGA1UEChMRQ09NT0RPIENBIExpbWl0ZWQxKjAoBgNVBAMTIUNPTU9E
TyBTSEEtMSBUaW1lIFN0YW1waW5nIFNpZ25lcjCCASIwDQYJKoZIhvcNAQEBBQAD
ggEPADCCAQoCggEBAOnpPd/XNwjJHjiyUlNCbSLxscQGBGue/YJ0UEN9xqC7H075
AnEmse9D2IOMSPznD5d6muuc3qajDjscRBh1jnilF2n+SRik4rtcTv6OKlR6UPDV
9syR55l51955lNeWM/4Og74iv2MWLKPdKBuvPavql9LxvwQQ5z1IRf0faGXBf1mZ
acAiMQxibqdcZQEhsGPEIhgn7ub80gA9Ry6ouIZWXQTcExclbhzfRA8VzbfbpVd2
Qm8AaIKZ0uPB3vCLlFdM7AiQIiHOIiuYDELmQpOUmJPv/QbZP7xbm1Q8ILHuatZH
esWrgOkwmt7xpD9VTQoJNIp1KdJprZcPUL/4ygkCAwEAAaOB9DCB8TAfBgNVHSME
GDAWgBTa7WR0FJwUPKvdmam9WyhNizzJ2DAdBgNVHQ4EFgQUjmstM2v0M6eTsxOa
peAK9xI1aogwDgYDVR0PAQH/BAQDAgbAMAwGA1UdEwEB/wQCMAAwFgYDVR0lAQH/
BAwwCgYIKwYBBQUHAwgwQgYDVR0fBDswOTA3oDWgM4YxaHR0cDovL2NybC51c2Vy
dHJ1c3QuY29tL1VUTi1VU0VSRmlyc3QtT2JqZWN0LmNybDA1BggrBgEFBQcBAQQp
MCcwJQYIKwYBBQUHMAGGGWh0dHA6Ly9vY3NwLnVzZXJ0cnVzdC5jb20wDQYJKoZI
hvcNAQEFBQADggEBALozJEBAjHzbWJ+zYJiy9cAx/usfblD2CuDk5oGtJoei3/2z
2vRz8wD7KRuJGxU+22tSkyvErDmB1zxnV5o5NuAoCJrjOU+biQl/e8Vhf1mJMiUK
aq4aPvCiJ6i2w7iH9xYESEE9XNjsn00gMQTZZaHtzWkHUxY93TYCCojrQOUGMAu4
Fkvc77xVCf/GPhIudrPczkLv+XZX4bcKBUCYWJpdcRaTcYxlgepv84n3+3OttOe/
2Y5vqgtPJfO44dXddZhogfiqwNGAwsTEOYnB9smebNd0+dmX+E/CmgrNXo/4Geng
pZ/E8JIh5i15Jcki+cPwOoRXrToW9GOUEB1d0MY=
-----END CERTIFICATE-----

Certificate:
    Data:
        Version: 3 (0x2)
        Serial Number:
            06:f4:a1:48:65:f1:9a:0b:0a:72:54:c5:38:51:f2:c5
    Signature Algorithm: sha256WithRSAEncryption
        Issuer: C=US, O=DigiCert Inc, OU=www.digicert.com, CN=DigiCert SHA2 High Assurance Code Signing CA
        Validity
            Not Before: Dec 24 00:00:00 2015 GMT
            Not After : Jan 25 12:00:00 2018 GMT
        Subject: C=US, ST=California, L=San Francisco, O=Hotger Corp., CN=Hotger Corp.
        Subject Public Key Info:
            Public Key Algorithm: rsaEncryption
                Public-Key: (2048 bit)
                Modulus:
                    00:aa:3c:e9:b8:09:b5:c7:b7:a4:78:58:ba:85:02:
                    fc:b0:5a:4f:0b:83:4d:c2:10:3a:48:07:8b:33:cf:
                    b2:82:5c:89:ed:06:61:e8:ca:20:4d:16:5b:86:f0:
                    d6:6b:89:1d:32:08:79:36:1f:ef:0d:90:2b:ce:40:
                    bc:8e:4c:67:5f:07:36:2c:05:f1:97:31:cc:a4:60:
                    7e:83:9a:9d:31:d6:3c:f2:fd:4c:c5:6b:71:86:65:
                    fa:12:82:55:28:36:4f:40:3b:51:65:e7:02:de:07:
                    d1:74:c1:27:24:78:18:bf:2c:25:fe:cf:2c:88:bd:
                    1a:99:42:ff:ba:61:43:08:87:84:5b:3f:7e:39:f8:
                    07:c8:4c:f9:cc:a0:7a:d4:64:65:d0:af:f7:2f:cf:
                    f2:a6:72:4c:ef:3f:92:3b:7a:3c:3b:d4:d7:8e:4c:
                    92:ff:06:78:5e:80:d9:9b:a7:af:bf:f1:62:54:fd:
                    0a:15:11:ec:81:b8:e2:fb:e2:d7:fd:5b:c4:d5:e0:
                    a6:e7:e8:cf:b0:64:a0:6f:e6:ac:7d:3c:40:2d:2d:
                    db:ba:d3:95:59:e1:a5:36:a8:0b:0a:d7:f2:77:67:
                    e3:c9:1a:65:ba:e1:47:ab:4d:fd:e9:8f:67:5d:89:
                    c9:a6:22:43:a4:96:1e:a1:81:da:b5:61:d8:e7:a3:
                    29:87
                Exponent: 65537 (0x10001)
        X509v3 extensions:
            X509v3 Authority Key Identifier: 
                keyid:67:9D:0F:20:09:0C:CC:8A:3A:E5:82:46:72:62:FC:F1:CC:90:E5:40

            X509v3 Subject Key Identifier: 
                5F:51:3D:B2:6A:4D:8A:2B:A4:79:2C:E1:F5:87:1E:29:0B:27:0F:4D
            X509v3 Key Usage: critical
                Digital Signature
            X509v3 Extended Key Usage: 
                Code Signing
            X509v3 CRL Distribution Points: 

                Full Name:
                  URI:http://crl3.digicert.com/sha2-ha-cs-g1.crl

                Full Name:
                  URI:http://crl4.digicert.com/sha2-ha-cs-g1.crl

            X509v3 Certificate Policies: 
                Policy: 2.16.840.1.114412.3.1
                  CPS: https://www.digicert.com/CPS
                Policy: 2.23.140.1.4.1

            Authority Information Access: 
                OCSP - URI:http://ocsp.digicert.com
                CA Issuers - URI:http://cacerts.digicert.com/DigiCertSHA2HighAssuranceCodeSigningCA.crt

            X509v3 Basic Constraints: critical
                CA:FALSE
    Signature Algorithm: sha256WithRSAEncryption
         03:8a:10:ea:58:95:5a:37:a6:f0:0f:65:e6:c6:a2:30:c4:5e:
         d1:e1:2c:19:d0:12:96:a0:1e:8b:08:72:fa:7c:08:ca:76:ee:
         cb:f6:c0:98:36:88:55:9f:fa:75:d3:ca:88:48:08:e7:2c:4d:
         7f:2d:e3:dd:6d:50:da:e7:33:fe:eb:9f:0d:05:8b:c7:05:b6:
         b9:d8:86:36:41:6e:ff:6f:47:38:dd:34:3b:80:ca:16:05:56:
         9d:61:06:e8:37:be:5f:fb:da:e4:4f:9e:37:18:22:c3:fa:f4:
         7a:d1:ab:c4:c6:05:3d:a6:cc:17:99:ef:48:43:7a:62:13:1d:
         0a:91:e1:fb:76:b3:ac:3f:48:19:0d:8d:80:6c:25:bc:32:31:
         55:44:d1:9c:1f:38:65:a3:c3:35:a7:45:3f:af:5a:72:f9:76:
         b8:76:be:b6:af:cd:19:a3:32:fb:a4:65:12:50:ef:64:9b:e6:
         c3:07:66:59:cf:f1:94:3b:79:96:b5:1c:f5:0a:08:e7:56:f2:
         40:b6:ed:a3:47:e5:d9:a9:7a:67:d9:69:3f:57:69:c6:71:8c:
         ea:94:aa:b0:c3:e1:b7:1b:4b:02:16:8b:41:41:0c:c3:00:f6:
         28:0f:ea:c4:95:81:15:b8:5c:c8:60:75:25:8e:ef:f4:59:5f:
         a4:0a:c4:53
-----BEGIN CERTIFICATE-----
MIIFKTCCBBGgAwIBAgIQBvShSGXxmgsKclTFOFHyxTANBgkqhkiG9w0BAQsFADB2
MQswCQYDVQQGEwJVUzEVMBMGA1UEChMMRGlnaUNlcnQgSW5jMRkwFwYDVQQLExB3
d3cuZGlnaWNlcnQuY29tMTUwMwYDVQQDEyxEaWdpQ2VydCBTSEEyIEhpZ2ggQXNz
dXJhbmNlIENvZGUgU2lnbmluZyBDQTAeFw0xNTEyMjQwMDAwMDBaFw0xODAxMjUx
MjAwMDBaMGgxCzAJBgNVBAYTAlVTMRMwEQYDVQQIEwpDYWxpZm9ybmlhMRYwFAYD
VQQHEw1TYW4gRnJhbmNpc2NvMRUwEwYDVQQKEwxIb3RnZXIgQ29ycC4xFTATBgNV
BAMTDEhvdGdlciBDb3JwLjCCASIwDQYJKoZIhvcNAQEBBQADggEPADCCAQoCggEB
AKo86bgJtce3pHhYuoUC/LBaTwuDTcIQOkgHizPPsoJcie0GYejKIE0WW4bw1muJ
HTIIeTYf7w2QK85AvI5MZ18HNiwF8ZcxzKRgfoOanTHWPPL9TMVrcYZl+hKCVSg2
T0A7UWXnAt4H0XTBJyR4GL8sJf7PLIi9GplC/7phQwiHhFs/fjn4B8hM+cygetRk
ZdCv9y/P8qZyTO8/kjt6PDvU145Mkv8GeF6A2Zunr7/xYlT9ChUR7IG44vvi1/1b
xNXgpufoz7BkoG/mrH08QC0t27rTlVnhpTaoCwrX8ndn48kaZbrhR6tN/emPZ12J
yaYiQ6SWHqGB2rVh2OejKYcCAwEAAaOCAb8wggG7MB8GA1UdIwQYMBaAFGedDyAJ
DMyKOuWCRnJi/PHMkOVAMB0GA1UdDgQWBBRfUT2yak2KK6R5LOH1hx4pCycPTTAO
BgNVHQ8BAf8EBAMCB4AwEwYDVR0lBAwwCgYIKwYBBQUHAwMwbQYDVR0fBGYwZDAw
oC6gLIYqaHR0cDovL2NybDMuZGlnaWNlcnQuY29tL3NoYTItaGEtY3MtZzEuY3Js
MDCgLqAshipodHRwOi8vY3JsNC5kaWdpY2VydC5jb20vc2hhMi1oYS1jcy1nMS5j
cmwwTAYDVR0gBEUwQzA3BglghkgBhv1sAwEwKjAoBggrBgEFBQcCARYcaHR0cHM6
Ly93d3cuZGlnaWNlcnQuY29tL0NQUzAIBgZngQwBBAEwgYgGCCsGAQUFBwEBBHww
ejAkBggrBgEFBQcwAYYYaHR0cDovL29jc3AuZGlnaWNlcnQuY29tMFIGCCsGAQUF
BzAChkZodHRwOi8vY2FjZXJ0cy5kaWdpY2VydC5jb20vRGlnaUNlcnRTSEEySGln
aEFzc3VyYW5jZUNvZGVTaWduaW5nQ0EuY3J0MAwGA1UdEwEB/wQCMAAwDQYJKoZI
hvcNAQELBQADggEBAAOKEOpYlVo3pvAPZebGojDEXtHhLBnQEpagHosIcvp8CMp2
7sv2wJg2iFWf+nXTyohICOcsTX8t491tUNrnM/7rnw0Fi8cFtrnYhjZBbv9vRzjd
NDuAyhYFVp1hBug3vl/72uRPnjcYIsP69HrRq8TGBT2mzBeZ70hDemITHQqR4ft2
s6w/SBkNjYBsJbwyMVVE0ZwfOGWjwzWnRT+vWnL5drh2vravzRmjMvukZRJQ72Sb
5sMHZlnP8ZQ7eZa1HPUKCOdW8kC27aNH5dmpemfZaT9XacZxjOqUqrDD4bcbSwIW
i0FBDMMA9igP6sSVgRW4XMhgdSWO7/RZX6QKxFM=
-----END CERTIFICATE-----

Certificate:
    Data:
        Version: 3 (0x2)
        Serial Number:
            0b:7e:10:90:3c:38:49:0f:fa:2f:67:9a:87:a1:a7:b9
    Signature Algorithm: sha256WithRSAEncryption
        Issuer: C=US, O=DigiCert Inc, OU=www.digicert.com, CN=DigiCert High Assurance EV Root CA
        Validity
            Not Before: Oct 22 12:00:00 2013 GMT
            Not After : Oct 22 12:00:00 2028 GMT
        Subject: C=US, O=DigiCert Inc, OU=www.digicert.com, CN=DigiCert SHA2 High Assurance Code Signing CA
        Subject Public Key Info:
            Public Key Algorithm: rsaEncryption
                Public-Key: (2048 bit)
                Modulus:
                    00:b4:4a:5e:7d:07:0f:41:de:c4:f5:76:16:36:bd:
                    71:ff:cf:3f:4f:73:4b:9c:d1:0d:fe:4a:cb:57:58:
                    5e:85:16:dd:02:15:54:99:f0:8f:3c:2f:4d:02:78:
                    10:68:c8:d8:35:4b:3f:c1:f7:67:ce:98:1c:ae:33:
                    b9:2d:1d:a4:0a:54:93:c4:85:a2:df:35:b1:f5:f1:
                    3c:a7:b3:34:fb:5d:48:c9:46:c9:62:44:bc:48:99:
                    eb:28:49:53:c3:3d:8f:c0:0e:de:35:98:e9:62:51:
                    df:3d:6b:40:61:ee:04:41:da:cf:a7:5c:56:96:d1:
                    f9:4c:b7:44:84:87:98:69:e5:82:b9:13:e6:55:bf:
                    c8:92:70:92:0a:31:6f:7f:8b:32:ab:cf:6b:5a:9f:
                    62:c4:3e:ee:be:ed:59:a4:53:7f:0b:f1:52:88:8a:
                    7b:0a:67:24:cb:90:cd:ec:d2:4d:34:4c:b0:e1:b5:
                    9f:9c:c6:f6:6f:2c:cd:e6:ca:53:74:01:9f:67:35:
                    de:38:49:2d:ce:ed:39:44:82:19:79:4e:1a:b2:b5:
                    fb:bb:78:f0:49:66:a7:cf:fa:5c:96:75:92:8b:1a:
                    72:d9:ff:50:92:53:cc:3e:c2:43:32:09:1a:86:13:
                    69:3c:fb:81:32:33:32:64:75:73:28:26:1d:08:30:
                    3b:07
                Exponent: 65537 (0x10001)
        X509v3 extensions:
            X509v3 Basic Constraints: critical
                CA:TRUE, pathlen:0
            X509v3 Key Usage: critical
                Digital Signature, Certificate Sign, CRL Sign
            X509v3 Extended Key Usage: 
                Code Signing
            Authority Information Access: 
                OCSP - URI:http://ocsp.digicert.com
                CA Issuers - URI:http://cacerts.digicert.com/DigiCertHighAssuranceEVRootCA.crt

            X509v3 CRL Distribution Points: 

                Full Name:
                  URI:http://crl4.digicert.com/DigiCertHighAssuranceEVRootCA.crl

                Full Name:
                  URI:http://crl3.digicert.com/DigiCertHighAssuranceEVRootCA.crl

            X509v3 Certificate Policies: 
                Policy: 2.16.840.1.114412.0.2.4
                  CPS: https://www.digicert.com/CPS
                Policy: 2.16.840.1.114412.3

            X509v3 Subject Key Identifier: 
                67:9D:0F:20:09:0C:CC:8A:3A:E5:82:46:72:62:FC:F1:CC:90:E5:40
            X509v3 Authority Key Identifier: 
                keyid:B1:3E:C3:69:03:F8:BF:47:01:D4:98:26:1A:08:02:EF:63:64:2B:C3

    Signature Algorithm: sha256WithRSAEncryption
         6a:0e:ff:7e:13:7c:06:a5:4b:c0:2e:8c:f9:53:64:09:e2:ba:
         58:91:30:50:ec:cc:9f:e1:d3:a8:2f:48:46:36:18:29:d0:78:
         28:5f:98:56:40:0f:1e:ba:bd:b1:3b:87:5c:dc:5b:d8:20:0d:
         ed:1a:16:4d:d5:11:24:21:4b:f1:27:69:90:13:eb:11:a1:01:
         da:fd:b5:4e:79:59:75:bd:38:2a:6a:c3:f6:8e:41:2b:8a:a2:
         8b:d7:2c:51:51:d9:9c:a0:c8:e3:4e:ba:6c:a8:47:d2:4e:d1:
         68:1f:8c:02:57:3b:b3:29:6a:8e:6a:20:2a:b9:f2:00:62:64:
         ba:c8:e9:00:f9:cc:a4:d4:ba:9a:35:d8:af:2c:65:6c:16:7c:
         58:21:de:4a:30:d0:fa:eb:24:5d:06:c9:9d:16:b7:ad:4a:45:
         d3:25:e2:0c:f0:40:aa:5c:4d:ac:7e:cd:06:82:b9:76:46:69:
         08:d8:32:b6:82:fe:e3:a9:58:34:43:1b:8e:67:67:97:3f:68:
         31:16:36:38:95:3e:87:f7:c7:c3:af:9d:7a:77:19:d9:de:93:
         b5:fd:6e:2b:fc:94:f9:3d:b7:4c:12:35:2c:30:be:e8:8d:9e:
         05:70:9a:48:13:f4:8c:d6:e7:1e:ac:38:e7:a8:f3:ad:0c:b7:
         7a:ec:67:ed
-----BEGIN CERTIFICATE-----
MIIFTzCCBDegAwIBAgIQC34QkDw4SQ/6L2eah6GnuTANBgkqhkiG9w0BAQsFADBs
MQswCQYDVQQGEwJVUzEVMBMGA1UEChMMRGlnaUNlcnQgSW5jMRkwFwYDVQQLExB3
d3cuZGlnaWNlcnQuY29tMSswKQYDVQQDEyJEaWdpQ2VydCBIaWdoIEFzc3VyYW5j
ZSBFViBSb290IENBMB4XDTEzMTAyMjEyMDAwMFoXDTI4MTAyMjEyMDAwMFowdjEL
MAkGA1UEBhMCVVMxFTATBgNVBAoTDERpZ2lDZXJ0IEluYzEZMBcGA1UECxMQd3d3
LmRpZ2ljZXJ0LmNvbTE1MDMGA1UEAxMsRGlnaUNlcnQgU0hBMiBIaWdoIEFzc3Vy
YW5jZSBDb2RlIFNpZ25pbmcgQ0EwggEiMA0GCSqGSIb3DQEBAQUAA4IBDwAwggEK
AoIBAQC0Sl59Bw9B3sT1dhY2vXH/zz9Pc0uc0Q3+SstXWF6FFt0CFVSZ8I88L00C
eBBoyNg1Sz/B92fOmByuM7ktHaQKVJPEhaLfNbH18TynszT7XUjJRsliRLxImeso
SVPDPY/ADt41mOliUd89a0Bh7gRB2s+nXFaW0flMt0SEh5hp5YK5E+ZVv8iScJIK
MW9/izKrz2tan2LEPu6+7VmkU38L8VKIinsKZyTLkM3s0k00TLDhtZ+cxvZvLM3m
ylN0AZ9nNd44SS3O7TlEghl5Thqytfu7ePBJZqfP+lyWdZKLGnLZ/1CSU8w+wkMy
CRqGE2k8+4EyMzJkdXMoJh0IMDsHAgMBAAGjggHhMIIB3TASBgNVHRMBAf8ECDAG
AQH/AgEAMA4GA1UdDwEB/wQEAwIBhjATBgNVHSUEDDAKBggrBgEFBQcDAzB/Bggr
BgEFBQcBAQRzMHEwJAYIKwYBBQUHMAGGGGh0dHA6Ly9vY3NwLmRpZ2ljZXJ0LmNv
bTBJBggrBgEFBQcwAoY9aHR0cDovL2NhY2VydHMuZGlnaWNlcnQuY29tL0RpZ2lD
ZXJ0SGlnaEFzc3VyYW5jZUVWUm9vdENBLmNydDCBjwYDVR0fBIGHMIGEMECgPqA8
hjpodHRwOi8vY3JsNC5kaWdpY2VydC5jb20vRGlnaUNlcnRIaWdoQXNzdXJhbmNl
RVZSb290Q0EuY3JsMECgPqA8hjpodHRwOi8vY3JsMy5kaWdpY2VydC5jb20vRGln
aUNlcnRIaWdoQXNzdXJhbmNlRVZSb290Q0EuY3JsME8GA1UdIARIMEYwOAYKYIZI
AYb9bAACBDAqMCgGCCsGAQUFBwIBFhxodHRwczovL3d3dy5kaWdpY2VydC5jb20v
Q1BTMAoGCGCGSAGG/WwDMB0GA1UdDgQWBBRnnQ8gCQzMijrlgkZyYvzxzJDlQDAf
BgNVHSMEGDAWgBSxPsNpA/i/RwHUmCYaCALvY2QrwzANBgkqhkiG9w0BAQsFAAOC
AQEAag7/fhN8BqVLwC6M+VNkCeK6WJEwUOzMn+HTqC9IRjYYKdB4KF+YVkAPHrq9
sTuHXNxb2CAN7RoWTdURJCFL8SdpkBPrEaEB2v21TnlZdb04KmrD9o5BK4qii9cs
UVHZnKDI4066bKhH0k7RaB+MAlc7sylqjmogKrnyAGJkusjpAPnMpNS6mjXYryxl
bBZ8WCHeSjDQ+uskXQbJnRa3rUpF0yXiDPBAqlxNrH7NBoK5dkZpCNgytoL+46lY
NEMbjmdnlz9oMRY2OJU+h/fHw6+dencZ2d6Ttf1uK/yU+T23TBI1LDC+6I2eBXCa
SBP0jNbnHqw456jzrQy3euxn7Q==
-----END CERTIFICATE-----

