Certificate:
    Data:
        Version: 3 (0x2)
        Serial Number:
            7e:93:eb:fb:7c:c6:4e:59:ea:4b:9a:77:d4:06:fc:3b
    Signature Algorithm: sha1WithRSAEncryption
        Issuer: C=ZA, ST=Western Cape, L=Durbanville, O=Thawte, OU=Thawte Certification, CN=Thawte Timestamping CA
        Validity
            Not Before: Dec 21 00:00:00 2012 GMT
            Not After : Dec 30 23:59:59 2020 GMT
        Subject: C=US, O=Symantec Corporation, CN=Symantec Time Stamping Services CA - G2
        Subject Public Key Info:
            Public Key Algorithm: rsaEncryption
                Public-Key: (2048 bit)
                Modulus:
                    00:b1:ac:b3:49:54:4b:97:1c:12:0a:d8:25:79:91:
                    22:57:2a:6f:dc:b8:26:c4:43:73:6b:c2:bf:2e:50:
                    5a:fb:14:c2:76:8e:43:01:25:43:b4:a1:e2:45:f4:
                    e8:b7:7b:c3:74:cc:22:d7:b4:94:00:02:f7:4d:ed:
                    bf:b4:b7:44:24:6b:cd:5f:45:3b:d1:44:ce:43:12:
                    73:17:82:8b:69:b4:2b:cb:99:1e:ac:72:1b:26:4d:
                    71:1f:b1:31:dd:fb:51:61:02:53:a6:aa:f5:49:2c:
                    05:78:45:a5:2f:89:ce:e7:99:e7:fe:8c:e2:57:3f:
                    3d:c6:92:dc:4a:f8:7b:33:e4:79:0a:fb:f0:75:88:
                    41:9c:ff:c5:03:51:99:aa:d7:6c:9f:93:69:87:65:
                    29:83:85:c2:60:14:c4:c8:c9:3b:14:da:c0:81:f0:
                    1f:0d:74:de:92:22:ab:ca:f7:fb:74:7c:27:e6:f7:
                    4a:1b:7f:a7:c3:9e:2d:ae:8a:ea:a6:e6:aa:27:16:
                    7d:61:f7:98:71:11:bc:e2:50:a1:4b:e5:5d:fa:e5:
                    0e:a7:2c:9f:aa:65:20:d3:d8:96:e8:c8:7c:a5:4e:
                    48:44:ff:19:e2:44:07:92:0b:d7:68:84:80:5d:6a:
                    78:64:45:cd:60:46:7e:54:c1:13:7c:c5:79:f1:c9:
                    c1:71
                Exponent: 65537 (0x10001)
        X509v3 extensions:
            X509v3 Subject Key Identifier: 
                5F:9A:F5:6E:5C:CC:CC:74:9A:D4:DD:7D:EF:3F:DB:EC:4C:80:2E:DD
            Authority Information Access: 
                OCSP - URI:http://ocsp.thawte.com

            X509v3 Basic Constraints: critical
                CA:TRUE, pathlen:0
            X509v3 CRL Distribution Points: 

                Full Name:
                  URI:http://crl.thawte.com/ThawteTimestampingCA.crl

            X509v3 Extended Key Usage: 
                Time Stamping
            X509v3 Key Usage: critical
                Certificate Sign, CRL Sign
            X509v3 Subject Alternative Name: 
                DirName:/CN=TimeStamp-2048-1
    Signature Algorithm: sha1WithRSAEncryption
         03:09:9b:8f:79:ef:7f:59:30:aa:ef:68:b5:fa:e3:09:1d:bb:
         4f:82:06:5d:37:5f:a6:52:9f:16:8d:ea:1c:92:09:44:6e:f5:
         6d:eb:58:7c:30:e8:f9:69:8d:23:73:0b:12:6f:47:a9:ae:39:
         11:f8:2a:b1:9b:b0:1a:c3:8e:eb:59:96:00:ad:ce:0c:4d:b2:
         d0:31:a6:08:5c:2a:7a:fc:e2:7a:1d:57:4c:a8:65:18:e9:79:
         40:62:25:96:6e:c7:c7:37:6a:83:21:08:8e:41:ea:dd:d9:57:
         3f:1d:77:49:87:2a:16:06:5e:a6:38:6a:22:12:a3:51:19:83:
         7e:b6
-----BEGIN CERTIFICATE-----
MIID7jCCA1egAwIBAgIQfpPr+3zGTlnqS5p31Ab8OzANBgkqhkiG9w0BAQUFADCB
izELMAkGA1UEBhMCWkExFTATBgNVBAgTDFdlc3Rlcm4gQ2FwZTEUMBIGA1UEBxML
RHVyYmFudmlsbGUxDzANBgNVBAoTBlRoYXd0ZTEdMBsGA1UECxMUVGhhd3RlIENl
cnRpZmljYXRpb24xHzAdBgNVBAMTFlRoYXd0ZSBUaW1lc3RhbXBpbmcgQ0EwHhcN
MTIxMjIxMDAwMDAwWhcNMjAxMjMwMjM1OTU5WjBeMQswCQYDVQQGEwJVUzEdMBsG
A1UEChMUU3ltYW50ZWMgQ29ycG9yYXRpb24xMDAuBgNVBAMTJ1N5bWFudGVjIFRp
bWUgU3RhbXBpbmcgU2VydmljZXMgQ0EgLSBHMjCCASIwDQYJKoZIhvcNAQEBBQAD
ggEPADCCAQoCggEBALGss0lUS5ccEgrYJXmRIlcqb9y4JsRDc2vCvy5QWvsUwnaO
QwElQ7Sh4kX06Ld7w3TMIte0lAAC903tv7S3RCRrzV9FO9FEzkMScxeCi2m0K8uZ
HqxyGyZNcR+xMd37UWECU6aq9UksBXhFpS+JzueZ5/6M4lc/PcaS3Er4ezPkeQr7
8HWIQZz/xQNRmarXbJ+TaYdlKYOFwmAUxMjJOxTawIHwHw103pIiq8r3+3R8J+b3
Sht/p8OeLa6K6qbmqicWfWH3mHERvOJQoUvlXfrlDqcsn6plINPYlujIfKVOSET/
GeJEB5IL12iEgF1qeGRFzWBGflTBE3zFefHJwXECAwEAAaOB+jCB9zAdBgNVHQ4E
FgQUX5r1blzMzHSa1N197z/b7EyALt0wMgYIKwYBBQUHAQEEJjAkMCIGCCsGAQUF
BzABhhZodHRwOi8vb2NzcC50aGF3dGUuY29tMBIGA1UdEwEB/wQIMAYBAf8CAQAw
PwYDVR0fBDgwNjA0oDKgMIYuaHR0cDovL2NybC50aGF3dGUuY29tL1RoYXd0ZVRp
bWVzdGFtcGluZ0NBLmNybDATBgNVHSUEDDAKBggrBgEFBQcDCDAOBgNVHQ8BAf8E
BAMCAQYwKAYDVR0RBCEwH6QdMBsxGTAXBgNVBAMTEFRpbWVTdGFtcC0yMDQ4LTEw
DQYJKoZIhvcNAQEFBQADgYEAAwmbj3nvf1kwqu9otfrjCR27T4IGXTdfplKfFo3q
HJIJRG71betYfDDo+WmNI3MLEm9Hqa45EfgqsZuwGsOO61mWAK3ODE2y0DGmCFwq
evzieh1XTKhlGOl5QGIllm7HxzdqgyEIjkHq3dlXPx13SYcqFgZepjhqIhKjURmD
frY=
-----END CERTIFICATE-----

Certificate:
    Data:
        Version: 3 (0x2)
        Serial Number:
            47:c3:0f:fe:fc:22:bb:28:0f:96:fe:a7:52:51
    Signature Algorithm: sha1WithRSAEncryption
        Issuer: C=BE, O=GlobalSign nv-sa, OU=Root CA, CN=GlobalSign Root CA
        Validity
            Not Before: Mar 16 00:00:00 2016 GMT
            Not After : Mar 16 00:00:00 2024 GMT
        Subject: C=BE, O=GlobalSign nv-sa, CN=GlobalSign CodeSigning CA - G3
        Subject Public Key Info:
            Public Key Algorithm: rsaEncryption
                Public-Key: (2048 bit)
                Modulus:
                    00:c6:a0:35:88:53:57:8b:f0:ec:ac:86:40:64:9b:
                    7e:4e:a7:4d:2a:4b:cf:30:4e:53:0b:80:87:f3:fc:
                    0d:1d:cd:5e:e2:aa:11:b8:cb:cc:19:8e:99:e2:13:
                    4b:be:76:5d:9f:91:47:57:5c:4d:aa:07:2d:45:55:
                    ee:a6:37:f4:b0:50:aa:36:36:25:3a:29:60:77:3e:
                    b1:71:f3:a4:44:e8:31:4a:a0:71:76:11:26:10:c5:
                    ab:87:ec:b0:59:09:8d:bc:32:ff:47:b3:77:02:52:
                    31:fe:bc:f8:67:5b:f1:7e:28:bc:82:c7:e9:fa:94:
                    de:68:ab:45:1c:a2:8b:b5:01:c6:ed:cb:85:d5:35:
                    b5:b7:18:13:ae:47:5f:6e:52:02:47:72:4a:6a:e7:
                    36:cf:5a:e2:44:ed:f1:d0:b6:08:3b:f7:49:ec:ff:
                    b7:39:3d:b9:92:ec:71:8f:39:c7:ed:88:53:48:85:
                    58:4b:3e:12:b9:00:48:41:56:bc:a3:52:3a:64:2c:
                    ae:3a:0c:29:a4:30:f7:c6:64:50:bd:fc:57:d0:1d:
                    05:0c:7b:cc:bc:43:6e:65:24:50:72:3f:b5:f3:e7:
                    e6:55:e1:49:78:b7:43:43:4a:a7:d8:1c:8e:c0:d2:
                    9b:dd:d3:d7:cc:b4:51:86:5f:31:c9:2c:34:66:38:
                    72:5b
                Exponent: 65537 (0x10001)
        X509v3 extensions:
            X509v3 Key Usage: critical
                Certificate Sign, CRL Sign
            X509v3 Extended Key Usage: 
                Code Signing, OCSP Signing
            X509v3 Basic Constraints: critical
                CA:TRUE, pathlen:0
            X509v3 Subject Key Identifier: 
                B3:D3:E6:D5:71:56:7D:39:58:B3:78:D2:2B:B8:F7:A1:1F:FD:4B:9B
            X509v3 Authority Key Identifier: 
                keyid:60:7B:66:1A:45:0D:97:CA:89:50:2F:7D:04:CD:34:A8:FF:FC:FD:4B

            Authority Information Access: 
                OCSP - URI:http://ocsp.globalsign.com/rootr1

            X509v3 CRL Distribution Points: 

                Full Name:
                  URI:http://crl.globalsign.com/root.crl

            X509v3 Certificate Policies: 
                Policy: 1.3.6.1.4.1.4146.1.50
                Policy: 1.3.6.1.4.1.4146.1.95
                  CPS: https://www.globalsign.com/repository/

    Signature Algorithm: sha1WithRSAEncryption
         3b:41:bb:c8:4f:56:11:82:b7:19:e3:d9:6d:c1:85:ae:9e:69:
         0e:c8:43:26:23:4b:8d:44:c8:e8:7d:5f:07:0e:53:41:d5:63:
         44:4a:89:0b:b8:74:ac:7d:b5:78:79:2f:84:26:e2:d7:f7:ba:
         d1:ae:2d:fd:69:cf:fa:7c:64:dc:24:16:2a:4a:da:c0:97:a9:
         bb:d5:dd:88:e7:a1:92:9a:0a:a5:f6:f7:ba:ce:85:d6:e4:e3:
         d4:55:de:ed:dc:3e:21:1f:1b:c8:77:88:cf:fc:65:fb:05:b4:
         8f:12:a6:30:d3:0d:66:98:2f:6c:2e:6f:85:18:7c:8f:f5:f6:
         fb:b1:ab:10:e1:83:27:08:85:b0:73:21:ba:5d:2c:ba:83:30:
         b7:39:84:dd:5d:b6:7f:d2:8b:b4:55:53:4c:42:a2:bc:4a:6c:
         78:39:5b:63:1c:a3:78:27:bf:be:34:83:6b:6d:7b:1e:60:fb:
         c2:9b:0d:88:ac:8c:72:54:6b:dc:3b:88:ba:81:52:5e:68:97:
         83:b8:ce:7f:a3:cd:f9:ea:2f:26:76:fa:cd:0b:06:ac:43:44:
         49:7b:f6:4c:94:42:b2:ab:cf:d5:42:d5:19:42:69:6e:61:86:
         64:c7:b3:7d:07:8b:db:e5:76:7b:6e:5f:65:a9:16:90:a2:ce:
         e4:ae:64:92
-----BEGIN CERTIFICATE-----
MIIEiDCCA3CgAwIBAgIOR8MP/vwiuygPlv6nUlEwDQYJKoZIhvcNAQEFBQAwVzEL
MAkGA1UEBhMCQkUxGTAXBgNVBAoTEEdsb2JhbFNpZ24gbnYtc2ExEDAOBgNVBAsT
B1Jvb3QgQ0ExGzAZBgNVBAMTEkdsb2JhbFNpZ24gUm9vdCBDQTAeFw0xNjAzMTYw
MDAwMDBaFw0yNDAzMTYwMDAwMDBaMFExCzAJBgNVBAYTAkJFMRkwFwYDVQQKExBH
bG9iYWxTaWduIG52LXNhMScwJQYDVQQDEx5HbG9iYWxTaWduIENvZGVTaWduaW5n
IENBIC0gRzMwggEiMA0GCSqGSIb3DQEBAQUAA4IBDwAwggEKAoIBAQDGoDWIU1eL
8OyshkBkm35Op00qS88wTlMLgIfz/A0dzV7iqhG4y8wZjpniE0u+dl2fkUdXXE2q
By1FVe6mN/SwUKo2NiU6KWB3PrFx86RE6DFKoHF2ESYQxauH7LBZCY28Mv9Hs3cC
UjH+vPhnW/F+KLyCx+n6lN5oq0Ucoou1Acbty4XVNbW3GBOuR19uUgJHckpq5zbP
WuJE7fHQtgg790ns/7c5PbmS7HGPOcftiFNIhVhLPhK5AEhBVryjUjpkLK46DCmk
MPfGZFC9/FfQHQUMe8y8Q25lJFByP7Xz5+ZV4Ul4t0NDSqfYHI7A0pvd09fMtFGG
XzHJLDRmOHJbAgMBAAGjggFWMIIBUjAOBgNVHQ8BAf8EBAMCAQYwHQYDVR0lBBYw
FAYIKwYBBQUHAwMGCCsGAQUFBwMJMBIGA1UdEwEB/wQIMAYBAf8CAQAwHQYDVR0O
BBYEFLPT5tVxVn05WLN40iu496Ef/UubMB8GA1UdIwQYMBaAFGB7ZhpFDZfKiVAv
fQTNNKj//P1LMD0GCCsGAQUFBwEBBDEwLzAtBggrBgEFBQcwAYYhaHR0cDovL29j
c3AuZ2xvYmFsc2lnbi5jb20vcm9vdHIxMDMGA1UdHwQsMCowKKAmoCSGImh0dHA6
Ly9jcmwuZ2xvYmFsc2lnbi5jb20vcm9vdC5jcmwwWQYDVR0gBFIwUDALBgkrBgEE
AaAyATIwQQYJKwYBBAGgMgFfMDQwMgYIKwYBBQUHAgEWJmh0dHBzOi8vd3d3Lmds
b2JhbHNpZ24uY29tL3JlcG9zaXRvcnkvMA0GCSqGSIb3DQEBBQUAA4IBAQA7QbvI
T1YRgrcZ49ltwYWunmkOyEMmI0uNRMjofV8HDlNB1WNESokLuHSsfbV4eS+EJuLX
97rRri39ac/6fGTcJBYqStrAl6m71d2I56GSmgql9ve6zoXW5OPUVd7t3D4hHxvI
d4jP/GX7BbSPEqYw0w1mmC9sLm+FGHyP9fb7sasQ4YMnCIWwcyG6XSy6gzC3OYTd
XbZ/0ou0VVNMQqK8Smx4OVtjHKN4J7++NINrbXseYPvCmw2IrIxyVGvcO4i6gVJe
aJeDuM5/o8356i8mdvrNCwasQ0RJe/ZMlEKyq8/VQtUZQmluYYZkx7N9B4vb5XZ7
bl9lqRaQos7krmSS
-----END CERTIFICATE-----

Certificate:
    Data:
        Version: 3 (0x2)
        Serial Number:
            0e:cf:f4:38:c8:fe:bf:35:6e:04:d8:6a:98:1b:1a:50
    Signature Algorithm: sha1WithRSAEncryption
        Issuer: C=US, O=Symantec Corporation, CN=Symantec Time Stamping Services CA - G2
        Validity
            Not Before: Oct 18 00:00:00 2012 GMT
            Not After : Dec 29 23:59:59 2020 GMT
        Subject: C=US, O=Symantec Corporation, CN=Symantec Time Stamping Services Signer - G4
        Subject Public Key Info:
            Public Key Algorithm: rsaEncryption
                Public-Key: (2048 bit)
                Modulus:
                    00:a2:63:0b:39:44:b8:bb:23:a7:44:49:bb:0e:ff:
                    a1:f0:61:0a:53:93:b0:98:db:ad:2c:0f:4a:c5:6e:
                    ff:86:3c:53:55:0f:15:ce:04:3f:2b:fd:a9:96:96:
                    d9:be:61:79:0b:5b:c9:4c:86:76:e5:e0:43:4b:22:
                    95:ee:c2:2b:43:c1:9f:d8:68:b4:8e:40:4f:ee:85:
                    38:b9:11:c5:23:f2:64:58:f0:15:32:6f:4e:57:a1:
                    ae:88:a4:02:d7:2a:1e:cd:4b:e1:dd:63:d5:17:89:
                    32:5b:b0:5e:99:5a:a8:9d:28:50:0e:17:ee:96:db:
                    61:3b:45:51:1d:cf:12:56:0b:92:47:fc:ab:ae:f6:
                    66:3d:47:ac:70:72:e7:92:e7:5f:cd:10:b9:c4:83:
                    64:94:19:bd:25:80:e1:e8:d2:22:a5:d0:ba:02:7a:
                    a1:77:93:5b:65:c3:ee:17:74:bc:41:86:2a:dc:08:
                    4c:8c:92:8c:91:2d:9e:77:44:1f:68:d6:a8:74:77:
                    db:0e:5b:32:8b:56:8b:33:bd:d9:63:c8:49:9d:3a:
                    c5:c5:ea:33:0b:d2:f1:a3:1b:f4:8b:be:d9:b3:57:
                    8b:3b:de:04:a7:7a:22:b2:24:ae:2e:c7:70:c5:be:
                    4e:83:26:08:fb:0b:bd:a9:4f:99:08:e1:10:28:72:
                    aa:cd
                Exponent: 65537 (0x10001)
        X509v3 extensions:
            X509v3 Basic Constraints: critical
                CA:FALSE
            X509v3 Extended Key Usage: critical
                Time Stamping
            X509v3 Key Usage: critical
                Digital Signature
            Authority Information Access: 
                OCSP - URI:http://ts-ocsp.ws.symantec.com
                CA Issuers - URI:http://ts-aia.ws.symantec.com/tss-ca-g2.cer

            X509v3 CRL Distribution Points: 

                Full Name:
                  URI:http://ts-crl.ws.symantec.com/tss-ca-g2.crl

            X509v3 Subject Alternative Name: 
                DirName:/CN=TimeStamp-2048-2
            X509v3 Subject Key Identifier: 
                46:C6:69:A3:0E:4A:14:1E:D5:4C:DA:52:63:17:3F:5E:36:BC:0D:E6
            X509v3 Authority Key Identifier: 
                keyid:5F:9A:F5:6E:5C:CC:CC:74:9A:D4:DD:7D:EF:3F:DB:EC:4C:80:2E:DD

    Signature Algorithm: sha1WithRSAEncryption
         78:3b:b4:91:2a:00:4c:f0:8f:62:30:37:78:a3:84:27:07:6f:
         18:b2:de:25:dc:a0:d4:94:03:aa:86:4e:25:9f:9a:40:03:1c:
         dd:ce:e3:79:cb:21:68:06:da:b6:32:b4:6d:bf:f4:2c:26:63:
         33:e4:49:64:6d:0d:e6:c3:67:0e:f7:05:a4:35:6c:7c:89:16:
         c6:e9:b2:df:b2:e9:dd:20:c6:71:0f:cd:95:74:dc:b6:5c:de:
         bd:37:1f:43:78:e6:78:b5:cd:28:04:20:a3:aa:f1:4b:c4:88:
         29:91:0e:80:d1:11:fc:dd:5c:76:6e:4f:5e:0e:45:46:41:6e:
         0d:b0:ea:38:9a:b1:3a:da:09:71:10:fc:1c:79:b4:80:7b:ac:
         69:f4:fd:9c:b6:0c:16:2b:f1:7f:5b:09:3d:9b:5b:e2:16:ca:
         13:81:6d:00:2e:38:0d:a8:29:8f:2c:e1:b2:f4:5a:a9:01:af:
         15:9c:2c:2f:49:1b:db:22:bb:c3:fe:78:94:51:c3:86:b1:82:
         88:5d:f0:3d:b4:51:a1:79:33:2b:2e:7b:b9:dc:20:09:13:71:
         eb:6a:19:5b:cf:e8:a5:30:57:2c:89:49:3f:b9:cf:7f:c9:bf:
         3e:22:68:63:53:9a:bd:69:74:ac:c5:1d:3c:7f:92:e0:c3:bc:
         1c:d8:04:75
-----BEGIN CERTIFICATE-----
MIIEozCCA4ugAwIBAgIQDs/0OMj+vzVuBNhqmBsaUDANBgkqhkiG9w0BAQUFADBe
MQswCQYDVQQGEwJVUzEdMBsGA1UEChMUU3ltYW50ZWMgQ29ycG9yYXRpb24xMDAu
BgNVBAMTJ1N5bWFudGVjIFRpbWUgU3RhbXBpbmcgU2VydmljZXMgQ0EgLSBHMjAe
Fw0xMjEwMTgwMDAwMDBaFw0yMDEyMjkyMzU5NTlaMGIxCzAJBgNVBAYTAlVTMR0w
GwYDVQQKExRTeW1hbnRlYyBDb3Jwb3JhdGlvbjE0MDIGA1UEAxMrU3ltYW50ZWMg
VGltZSBTdGFtcGluZyBTZXJ2aWNlcyBTaWduZXIgLSBHNDCCASIwDQYJKoZIhvcN
AQEBBQADggEPADCCAQoCggEBAKJjCzlEuLsjp0RJuw7/ofBhClOTsJjbrSwPSsVu
/4Y8U1UPFc4EPyv9qZaW2b5heQtbyUyGduXgQ0sile7CK0PBn9hotI5AT+6FOLkR
xSPyZFjwFTJvTlehroikAtcqHs1L4d1j1ReJMluwXplaqJ0oUA4X7pbbYTtFUR3P
ElYLkkf8q672Zj1HrHBy55LnX80QucSDZJQZvSWA4ejSIqXQugJ6oXeTW2XD7hd0
vEGGKtwITIySjJEtnndEH2jWqHR32w5bMotWizO92WPISZ06xcXqMwvS8aMb9Iu+
2bNXizveBKd6IrIkri7HcMW+ToMmCPsLvalPmQjhEChyqs0CAwEAAaOCAVcwggFT
MAwGA1UdEwEB/wQCMAAwFgYDVR0lAQH/BAwwCgYIKwYBBQUHAwgwDgYDVR0PAQH/
BAQDAgeAMHMGCCsGAQUFBwEBBGcwZTAqBggrBgEFBQcwAYYeaHR0cDovL3RzLW9j
c3Aud3Muc3ltYW50ZWMuY29tMDcGCCsGAQUFBzAChitodHRwOi8vdHMtYWlhLndz
LnN5bWFudGVjLmNvbS90c3MtY2EtZzIuY2VyMDwGA1UdHwQ1MDMwMaAvoC2GK2h0
dHA6Ly90cy1jcmwud3Muc3ltYW50ZWMuY29tL3Rzcy1jYS1nMi5jcmwwKAYDVR0R
BCEwH6QdMBsxGTAXBgNVBAMTEFRpbWVTdGFtcC0yMDQ4LTIwHQYDVR0OBBYEFEbG
aaMOShQe1UzaUmMXP142vA3mMB8GA1UdIwQYMBaAFF+a9W5czMx0mtTdfe8/2+xM
gC7dMA0GCSqGSIb3DQEBBQUAA4IBAQB4O7SRKgBM8I9iMDd4o4QnB28Yst4l3KDU
lAOqhk4ln5pAAxzdzuN5yyFoBtq2MrRtv/QsJmMz5ElkbQ3mw2cO9wWkNWx8iRbG
6bLfsundIMZxD82VdNy2XN69Nx9DeOZ4tc0oBCCjqvFLxIgpkQ6A0RH83Vx2bk9e
DkVGQW4NsOo4mrE62glxEPwcebSAe6xp9P2ctgwWK/F/Wwk9m1viFsoTgW0ALjgN
qCmPLOGy9FqpAa8VnCwvSRvbIrvD/niUUcOGsYKIXfA9tFGheTMrLnu53CAJE3Hr
ahlbz+ilMFcsiUk/uc9/yb8+ImhjU5q9aXSsxR08f5Lgw7wc2AR1
-----END CERTIFICATE-----

Certificate:
    Data:
        Version: 3 (0x2)
        Serial Number:
            08:a0:7c:13:e5:76:02:66:7f:fd:fd:87
    Signature Algorithm: sha1WithRSAEncryption
        Issuer: C=BE, O=GlobalSign nv-sa, CN=GlobalSign CodeSigning CA - G3
        Validity
            Not Before: May 19 10:08:05 2017 GMT
            Not After : Jun 26 12:36:12 2020 GMT
        Subject: C=RU, ST=Bryansk Oblast, L=Bryansk, O=NANO Security Ltd, CN=NANO Security Ltd
        Subject Public Key Info:
            Public Key Algorithm: rsaEncryption
                Public-Key: (2048 bit)
                Modulus:
                    00:d2:e0:f3:76:4c:58:fc:17:aa:e1:cb:5f:4f:1b:
                    ee:3e:c0:c8:c8:5d:fc:25:8d:27:bf:3b:cb:71:96:
                    f6:84:7c:2b:1d:fa:0b:c3:c1:26:a2:3d:f5:1e:78:
                    f7:71:b7:85:53:10:86:1b:8f:cc:eb:ee:95:a1:21:
                    fe:78:2a:5a:a5:d2:4a:15:05:04:37:d1:a8:00:9f:
                    3d:fd:1a:6e:68:9d:b3:4c:26:c2:fc:34:20:f3:a8:
                    32:c4:e1:93:32:39:a9:87:20:12:f1:f9:01:cc:b2:
                    47:98:43:72:46:32:b1:9d:e7:15:df:f1:ee:4c:1d:
                    77:7a:41:f2:ca:e2:b7:e2:fa:c9:d6:e0:54:e3:bf:
                    95:2a:69:07:a2:a5:53:73:df:c2:d4:e8:d5:59:76:
                    90:d5:1f:59:7f:61:42:25:67:e8:84:a2:2d:7d:7e:
                    78:0d:80:3a:93:19:98:3e:c2:36:03:9b:46:c5:d4:
                    9c:db:2b:01:5f:1c:ea:59:81:88:82:61:52:d3:cf:
                    48:65:3c:81:b4:0e:39:2f:63:aa:f0:f1:82:43:73:
                    25:89:0d:9f:f3:74:7a:56:5d:46:73:96:86:bd:88:
                    40:1b:a0:6d:20:b8:0c:9d:a3:2d:9e:92:83:6f:3c:
                    93:5e:7e:c6:23:9c:e1:ae:3b:31:89:37:88:d6:aa:
                    44:35
                Exponent: 65537 (0x10001)
        X509v3 extensions:
            X509v3 Key Usage: critical
                Digital Signature
            Authority Information Access: 
                CA Issuers - URI:http://secure.globalsign.com/cacert/gscodesigng3ocsp.crt
                OCSP - URI:http://ocsp2.globalsign.com/gscodesigng3

            X509v3 Certificate Policies: 
                Policy: 1.3.6.1.4.1.4146.1.50
                  CPS: https://www.globalsign.com/repository/
                Policy: 2.23.140.1.4.1

            X509v3 Basic Constraints: 
                CA:FALSE
            X509v3 CRL Distribution Points: 

                Full Name:
                  URI:http://crl.globalsign.com/gs/gscodesigng3.crl

            X509v3 Extended Key Usage: 
                Code Signing
            X509v3 Subject Key Identifier: 
                EF:0E:53:56:EC:6A:D9:1E:CF:4E:E8:3C:12:75:F9:61:BE:D0:7C:A2
            X509v3 Authority Key Identifier: 
                keyid:B3:D3:E6:D5:71:56:7D:39:58:B3:78:D2:2B:B8:F7:A1:1F:FD:4B:9B

    Signature Algorithm: sha1WithRSAEncryption
         ba:50:3a:36:bb:06:36:40:91:59:80:a0:dc:a6:85:e1:f6:79:
         a0:bb:ea:4b:a2:d5:8a:62:d7:5a:25:52:25:87:b8:73:02:09:
         71:98:4a:29:ed:8a:02:0d:e1:24:16:d3:1c:27:42:1f:16:8a:
         6d:3b:69:48:0a:a4:6a:35:ee:9e:47:3b:a4:c3:bb:9a:ae:39:
         19:76:09:cb:4e:c5:b1:8e:7a:f7:20:ea:68:7d:b3:52:d3:36:
         92:2b:86:a3:e4:5b:44:4f:ed:e2:d2:d8:dc:5e:12:fe:7d:a6:
         f7:a9:0e:94:77:38:04:bd:cf:92:0b:df:21:ce:85:43:7d:31:
         4d:2d:e9:0d:bc:27:4e:a2:d1:c5:ad:59:6e:50:ec:9c:95:f7:
         bf:de:66:9d:c7:b6:bd:1c:24:4a:b1:ca:fd:4a:66:3c:29:de:
         4f:ad:47:54:24:c6:54:56:e1:19:b3:7c:43:1b:2a:5e:4e:1b:
         4e:3c:94:47:e9:d9:e3:5c:28:60:4e:08:b0:f9:24:6a:04:a4:
         8a:56:97:3d:3d:d1:e7:37:bf:9f:3f:70:18:b5:18:4f:0d:2e:
         02:75:c3:7b:0f:c2:8d:46:a1:f1:77:a0:62:4c:a9:5d:12:c2:
         a3:7d:58:17:1e:96:04:91:6c:b3:02:34:7f:74:35:e6:ee:dc:
         af:d4:74:c8
-----BEGIN CERTIFICATE-----
MIIE4jCCA8qgAwIBAgIMCKB8E+V2AmZ//f2HMA0GCSqGSIb3DQEBBQUAMFExCzAJ
BgNVBAYTAkJFMRkwFwYDVQQKExBHbG9iYWxTaWduIG52LXNhMScwJQYDVQQDEx5H
bG9iYWxTaWduIENvZGVTaWduaW5nIENBIC0gRzMwHhcNMTcwNTE5MTAwODA1WhcN
MjAwNjI2MTIzNjEyWjBwMQswCQYDVQQGEwJSVTEXMBUGA1UECBMOQnJ5YW5zayBP
Ymxhc3QxEDAOBgNVBAcTB0JyeWFuc2sxGjAYBgNVBAoTEU5BTk8gU2VjdXJpdHkg
THRkMRowGAYDVQQDExFOQU5PIFNlY3VyaXR5IEx0ZDCCASIwDQYJKoZIhvcNAQEB
BQADggEPADCCAQoCggEBANLg83ZMWPwXquHLX08b7j7AyMhd/CWNJ787y3GW9oR8
Kx36C8PBJqI99R5493G3hVMQhhuPzOvulaEh/ngqWqXSShUFBDfRqACfPf0abmid
s0wmwvw0IPOoMsThkzI5qYcgEvH5AcyyR5hDckYysZ3nFd/x7kwdd3pB8srit+L6
ydbgVOO/lSppB6KlU3PfwtTo1Vl2kNUfWX9hQiVn6ISiLX1+eA2AOpMZmD7CNgOb
RsXUnNsrAV8c6lmBiIJhUtPPSGU8gbQOOS9jqvDxgkNzJYkNn/N0elZdRnOWhr2I
QBugbSC4DJ2jLZ6Sg288k15+xiOc4a47MYk3iNaqRDUCAwEAAaOCAZkwggGVMA4G
A1UdDwEB/wQEAwIHgDCBigYIKwYBBQUHAQEEfjB8MEQGCCsGAQUFBzAChjhodHRw
Oi8vc2VjdXJlLmdsb2JhbHNpZ24uY29tL2NhY2VydC9nc2NvZGVzaWduZzNvY3Nw
LmNydDA0BggrBgEFBQcwAYYoaHR0cDovL29jc3AyLmdsb2JhbHNpZ24uY29tL2dz
Y29kZXNpZ25nMzBWBgNVHSAETzBNMEEGCSsGAQQBoDIBMjA0MDIGCCsGAQUFBwIB
FiZodHRwczovL3d3dy5nbG9iYWxzaWduLmNvbS9yZXBvc2l0b3J5LzAIBgZngQwB
BAEwCQYDVR0TBAIwADA+BgNVHR8ENzA1MDOgMaAvhi1odHRwOi8vY3JsLmdsb2Jh
bHNpZ24uY29tL2dzL2dzY29kZXNpZ25nMy5jcmwwEwYDVR0lBAwwCgYIKwYBBQUH
AwMwHQYDVR0OBBYEFO8OU1bsatkez07oPBJ1+WG+0HyiMB8GA1UdIwQYMBaAFLPT
5tVxVn05WLN40iu496Ef/UubMA0GCSqGSIb3DQEBBQUAA4IBAQC6UDo2uwY2QJFZ
gKDcpoXh9nmgu+pLotWKYtdaJVIlh7hzAglxmEop7YoCDeEkFtMcJ0IfFoptO2lI
CqRqNe6eRzukw7uarjkZdgnLTsWxjnr3IOpofbNS0zaSK4aj5FtET+3i0tjcXhL+
fab3qQ6UdzgEvc+SC98hzoVDfTFNLekNvCdOotHFrVluUOyclfe/3madx7a9HCRK
scr9SmY8Kd5PrUdUJMZUVuEZs3xDGypeThtOPJRH6dnjXChgTgiw+SRqBKSKVpc9
PdHnN7+fP3AYtRhPDS4CdcN7D8KNRqHxd6BiTKldEsKjfVgXHpYEkWyzAjR/dDXm
7tyv1HTI
-----END CERTIFICATE-----

Certificate:
    Data:
        Version: 3 (0x2)
        Serial Number:
            61:29:15:27:00:00:00:00:00:2a
    Signature Algorithm: sha1WithRSAEncryption
        Issuer: C=US, ST=Washington, L=Redmond, O=Microsoft Corporation, CN=Microsoft Code Verification Root
        Validity
            Not Before: Apr 15 19:55:08 2011 GMT
            Not After : Apr 15 20:05:08 2021 GMT
        Subject: C=BE, O=GlobalSign nv-sa, OU=Root CA, CN=GlobalSign Root CA
        Subject Public Key Info:
            Public Key Algorithm: rsaEncryption
                Public-Key: (2048 bit)
                Modulus:
                    00:da:0e:e6:99:8d:ce:a3:e3:4f:8a:7e:fb:f1:8b:
                    83:25:6b:ea:48:1f:f1:2a:b0:b9:95:11:04:bd:f0:
                    63:d1:e2:67:66:cf:1c:dd:cf:1b:48:2b:ee:8d:89:
                    8e:9a:af:29:80:65:ab:e9:c7:2d:12:cb:ab:1c:4c:
                    70:07:a1:3d:0a:30:cd:15:8d:4f:f8:dd:d4:8c:50:
                    15:1c:ef:50:ee:c4:2e:f7:fc:e9:52:f2:91:7d:e0:
                    6d:d5:35:30:8e:5e:43:73:f2:41:e9:d5:6a:e3:b2:
                    89:3a:56:39:38:6f:06:3c:88:69:5b:2a:4d:c5:a7:
                    54:b8:6c:89:cc:9b:f9:3c:ca:e5:fd:89:f5:12:3c:
                    92:78:96:d6:dc:74:6e:93:44:61:d1:8d:c7:46:b2:
                    75:0e:86:e8:19:8a:d5:6d:6c:d5:78:16:95:a2:e9:
                    c8:0a:38:eb:f2:24:13:4f:73:54:93:13:85:3a:1b:
                    bc:1e:34:b5:8b:05:8c:b9:77:8b:b1:db:1f:20:91:
                    ab:09:53:6e:90:ce:7b:37:74:b9:70:47:91:22:51:
                    63:16:79:ae:b1:ae:41:26:08:c8:19:2b:d1:46:aa:
                    48:d6:64:2a:d7:83:34:ff:2c:2a:c1:6c:19:43:4a:
                    07:85:e7:d3:7c:f6:21:68:ef:ea:f2:52:9f:7f:93:
                    90:cf
                Exponent: 65537 (0x10001)
        X509v3 extensions:
            X509v3 Certificate Policies: 
                Policy: X509v3 Any Policy

            X509v3 Key Usage: 
                Digital Signature, Certificate Sign, CRL Sign
            X509v3 Basic Constraints: critical
                CA:TRUE
            X509v3 Subject Key Identifier: 
                60:7B:66:1A:45:0D:97:CA:89:50:2F:7D:04:CD:34:A8:FF:FC:FD:4B
            X509v3 Authority Key Identifier: 
                keyid:62:FB:0A:21:5B:7F:43:6E:11:DA:09:54:50:6B:F5:D2:96:71:F1:9E

            X509v3 CRL Distribution Points: 

                Full Name:
                  URI:http://crl.microsoft.com/pki/crl/products/MicrosoftCodeVerifRoot.crl

    Signature Algorithm: sha1WithRSAEncryption
         5f:f8:d0:65:74:6a:81:c6:a6:ca:5b:03:b6:91:4a:e8:4b:bd:
         ef:2b:a1:42:f0:ef:b4:a5:ad:cd:33:89:ec:0b:95:85:ac:62:
         50:11:08:aa:58:d2:5a:a0:83:10:e5:a6:33:7a:f2:5a:f2:c5:
         fe:78:7c:f0:9c:83:df:19:0a:d9:73:96:00:2d:d6:2c:cd:e9:
         14:d4:1d:9d:e8:3f:3c:1a:76:f7:90:4e:fb:01:35:0a:6c:93:
         13:a0:c3:56:eb:67:a0:e4:d1:7a:96:de:c2:67:f1:90:f8:0a:
         7b:f5:32:1b:94:ec:5f:75:1f:8d:1b:34:da:6c:58:a7:cb:2d:
         27:9e:22:26:b7:c9:aa:30:cc:07:77:b8:36:e3:82:01:b5:39:
         3c:cc:8d:d9:a7:5f:7f:23:b3:87:7f:db:57:98:91:8b:d7:ce:
         25:20:e3:9d:64:4f:dd:87:f7:2b:68:49:03:18:e0:a5:df:7c:
         5f:68:64:4d:36:83:8d:47:81:f2:e9:e0:a8:69:ab:fa:7b:16:
         3c:05:a4:49:ea:88:30:19:0a:6c:73:05:51:78:df:d4:1d:dd:
         3a:d4:7f:2d:e4:4e:54:be:83:43:1e:7a:74:33:b4:a4:eb:d7:
         70:73:bc:2a:02:98:89:66:ee:f6:bc:8f:74:93:78:e3:29:02:
         5a:5a:43:e2:58:ce:7c:cf:9a:ca:d2:36:89:3b:e2:5f:da:26:
         05:4e:c8:d4:e7:2c:91:0e:17:97:c5:be:ee:8b:13:11:23:23:
         29:4f:fa:83:d0:50:f6:ba:fa:d5:3d:b3:17:3d:f4:ff:03:4a:
         a3:25:dc:e6:75:61:d1:fa:35:08:6b:d6:27:44:d0:68:b7:8d:
         45:e0:eb:85:2c:c8:a1:5d:61:44:74:16:0e:59:58:ae:d2:b5:
         ee:a5:bc:d6:d7:07:6a:b6:29:78:fd:97:67:67:dd:8d:4f:17:
         94:4f:d2:ed:0c:af:97:24:37:c3:a2:9c:81:da:6b:e1:43:b6:
         57:7b:4c:ec:bf:79:13:19:e7:9f:e8:44:e9:47:81:b7:5e:70:
         1e:91:f8:3d:d1:7b:27:f5:0b:70:56:43:48:05:dd:a9:2f:ab:
         86:10:1d:0b:12:e3:1a:d0:4c:6e:75:de:d6:45:b3:0b:74:88:
         87:93:5c:56:4a:41:02:9a:f7:ae:b7:99:d8:b6:7f:88:fa:11:
         f2:45:7c:f4:d7:1b:91:c0:1c:f1:a0:fb:d4:08:0a:41:1a:14:
         2a:ce:f4:eb:34:48:6e:66:87:9e:d5:4b:7a:39:7f:bb:0e:3d:
         38:61:cf:73:57:06:e4:12:06:6b:d9:6b:53:08:cd:70:18:c2:
         2d:4f:97:46:91:bc:a9:f0
-----BEGIN CERTIFICATE-----
MIIFJjCCAw6gAwIBAgIKYSkVJwAAAAAAKjANBgkqhkiG9w0BAQUFADB/MQswCQYD
VQQGEwJVUzETMBEGA1UECBMKV2FzaGluZ3RvbjEQMA4GA1UEBxMHUmVkbW9uZDEe
MBwGA1UEChMVTWljcm9zb2Z0IENvcnBvcmF0aW9uMSkwJwYDVQQDEyBNaWNyb3Nv
ZnQgQ29kZSBWZXJpZmljYXRpb24gUm9vdDAeFw0xMTA0MTUxOTU1MDhaFw0yMTA0
MTUyMDA1MDhaMFcxCzAJBgNVBAYTAkJFMRkwFwYDVQQKExBHbG9iYWxTaWduIG52
LXNhMRAwDgYDVQQLEwdSb290IENBMRswGQYDVQQDExJHbG9iYWxTaWduIFJvb3Qg
Q0EwggEiMA0GCSqGSIb3DQEBAQUAA4IBDwAwggEKAoIBAQDaDuaZjc6j40+Kfvvx
i4Mla+pIH/EqsLmVEQS98GPR4mdmzxzdzxtIK+6NiY6arymAZavpxy0Sy6scTHAH
oT0KMM0VjU/43dSMUBUc71DuxC73/OlS8pF94G3VNTCOXkNz8kHp1Wrjsok6Vjk4
bwY8iGlbKk3Fp1S4bInMm/k8yuX9ifUSPJJ4ltbcdG6TRGHRjcdGsnUOhugZitVt
bNV4FpWi6cgKOOvyJBNPc1STE4U6G7weNLWLBYy5d4ux2x8gkasJU26Qzns3dLlw
R5EiUWMWea6xrkEmCMgZK9FGqkjWZCrXgzT/LCrBbBlDSgeF59N89iFo7+ryUp9/
k5DPAgMBAAGjgcswgcgwEQYDVR0gBAowCDAGBgRVHSAAMAsGA1UdDwQEAwIBhjAP
BgNVHRMBAf8EBTADAQH/MB0GA1UdDgQWBBRge2YaRQ2XyolQL30EzTSo//z9SzAf
BgNVHSMEGDAWgBRi+wohW39DbhHaCVRQa/XSlnHxnjBVBgNVHR8ETjBMMEqgSKBG
hkRodHRwOi8vY3JsLm1pY3Jvc29mdC5jb20vcGtpL2NybC9wcm9kdWN0cy9NaWNy
b3NvZnRDb2RlVmVyaWZSb290LmNybDANBgkqhkiG9w0BAQUFAAOCAgEAX/jQZXRq
gcamylsDtpFK6Eu97yuhQvDvtKWtzTOJ7AuVhaxiUBEIqljSWqCDEOWmM3ryWvLF
/nh88JyD3xkK2XOWAC3WLM3pFNQdneg/PBp295BO+wE1CmyTE6DDVutnoOTRepbe
wmfxkPgKe/UyG5TsX3UfjRs02mxYp8stJ54iJrfJqjDMB3e4NuOCAbU5PMyN2adf
fyOzh3/bV5iRi9fOJSDjnWRP3Yf3K2hJAxjgpd98X2hkTTaDjUeB8ungqGmr+nsW
PAWkSeqIMBkKbHMFUXjf1B3dOtR/LeROVL6DQx56dDO0pOvXcHO8KgKYiWbu9ryP
dJN44ykCWlpD4ljOfM+aytI2iTviX9omBU7I1OcskQ4Xl8W+7osTESMjKU/6g9BQ
9rr61T2zFz30/wNKoyXc5nVh0fo1CGvWJ0TQaLeNReDrhSzIoV1hRHQWDllYrtK1
7qW81tcHarYpeP2XZ2fdjU8XlE/S7QyvlyQ3w6Kcgdpr4UO2V3tM7L95Exnnn+hE
6UeBt15wHpH4PdF7J/ULcFZDSAXdqS+rhhAdCxLjGtBMbnXe1kWzC3SIh5NcVkpB
Apr3rreZ2LZ/iPoR8kV89NcbkcAc8aD71AgKQRoUKs706zRIbmaHntVLejl/uw49
OGHPc1cG5BIGa9lrUwjNcBjCLU+XRpG8qfA=
-----END CERTIFICATE-----

