Certificate:
    Data:
        Version: 3 (0x2)
        Serial Number:
            47:8a:8e:fb:59:e1:d8:3f:0c:e1:42:d2:a2:87:07:be
    Signature Algorithm: sha1WithRSAEncryption
        Issuer: C=US, ST=UT, L=Salt Lake City, O=The USERTRUST Network, OU=http://www.usertrust.com, CN=UTN-USERFirst-Object
        Validity
            Not Before: May 10 00:00:00 2010 GMT
            Not After : May 10 23:59:59 2015 GMT
        Subject: C=GB, ST=Greater Manchester, L=Salford, O=COMODO CA Limited, CN=COMODO Time Stamping Signer
        Subject Public Key Info:
            Public Key Algorithm: rsaEncryption
                Public-Key: (2048 bit)
                Modulus:
                    00:bc:35:a0:36:70:22:81:11:c3:b2:83:b9:d3:28:
                    c6:36:cd:25:6b:a9:7b:b2:1c:f6:9b:51:9c:ef:35:
                    f4:ed:08:8e:5e:38:08:f8:77:3c:0a:42:e0:f3:70:
                    dc:a3:d7:ca:f5:4c:0b:cf:ff:22:9c:0a:7e:68:d6:
                    09:a2:2a:84:7b:a6:9d:b4:a9:c1:33:e2:ef:1f:17:
                    48:ca:3a:cd:46:e6:c5:aa:77:bd:e3:77:9a:fa:47:
                    53:40:28:59:43:93:f1:a4:81:ea:ef:80:b5:4f:a7:
                    08:ce:ba:6e:bc:ca:76:0c:97:64:59:86:24:bb:3d:
                    82:90:a8:55:b1:92:d3:a0:a7:05:ac:9f:53:25:08:
                    10:47:99:cd:98:de:68:e5:b4:50:78:a3:af:01:cc:
                    59:43:58:e4:76:6e:7e:ac:c7:e2:9e:1f:4f:b0:47:
                    2d:c8:0c:a3:49:27:80:75:8c:bb:06:91:65:0f:90:
                    9b:f4:ba:d1:81:c8:5c:6a:ec:14:e9:25:09:bf:23:
                    16:f4:95:46:40:40:21:bb:83:96:fd:86:1f:7a:c8:
                    0d:10:8e:a2:f8:19:07:58:7f:9f:bd:37:02:60:f2:
                    a4:e9:9d:44:3f:30:05:e4:a7:70:99:51:9a:e8:17:
                    f1:55:ca:b2:61:89:65:46:a7:6a:f2:58:46:7e:aa:
                    a0:07
                Exponent: 65537 (0x10001)
        X509v3 extensions:
            X509v3 Authority Key Identifier: 
                keyid:DA:ED:64:74:14:9C:14:3C:AB:DD:99:A9:BD:5B:28:4D:8B:3C:C9:D8

            X509v3 Subject Key Identifier: 
                2E:2D:B0:0A:44:4A:D3:87:C0:02:07:CE:97:7D:50:62:20:FD:0F:83
            X509v3 Key Usage: critical
                Digital Signature, Non Repudiation
            X509v3 Basic Constraints: critical
                CA:FALSE
            X509v3 Extended Key Usage: critical
                Time Stamping
            X509v3 CRL Distribution Points: 

                Full Name:
                  URI:http://crl.usertrust.com/UTN-USERFirst-Object.crl

            Authority Information Access: 
                OCSP - URI:http://ocsp.usertrust.com

    Signature Algorithm: sha1WithRSAEncryption
         c8:fb:63:f8:0b:75:75:2c:3a:f1:f2:13:a7:2d:b6:a3:1a:9c:
         ad:01:07:d3:34:8e:77:e0:c2:6e:ae:02:5d:48:4f:a4:d2:21:
         b6:36:fd:2a:35:43:7c:6b:df:80:87:0b:15:f0:76:32:00:b4:
         ce:b5:67:a4:2f:2f:20:1b:9c:54:9e:83:3f:1f:5f:14:95:62:
         82:0f:22:41:22:1f:70:b3:f3:f7:42:de:6c:51:cd:4b:f8:21:
         ac:9b:3b:8c:b1:e5:e6:28:8f:ce:2a:8a:f9:aa:52:4d:8c:5b:
         77:ba:4d:5a:58:db:bb:6a:04:cc:52:1e:9d:e2:28:37:0e:bb:
         e7:0e:91:c7:f8:db:f1:81:98:eb:cd:37:b3:0e:ab:65:d3:62:
         ec:3a:a5:76:eb:13:a8:35:93:c9:2e:0a:01:ec:c0:e8:cc:3d:
         7e:b6:eb:e2:c1:ec:d3:14:92:82:66:87:50:dc:fd:50:97:ac:
         b3:4a:76:73:06:c4:86:11:3a:b3:5f:43:04:52:6f:ea:b3:d0:
         74:36:4c:ca:f1:1b:79:84:37:70:63:ad:74:b9:aa:0e:f3:98:
         b0:86:08:eb:db:e0:1f:8c:10:f2:39:64:9b:ae:4f:0a:2c:92:
         8a:4f:18:b5:91:e5:8d:1a:93:5f:1f:ae:f1:a6:f0:2e:97:d0:
         d2:f6:2b:3c
-----BEGIN CERTIFICATE-----
MIIEkzCCA3ugAwIBAgIQR4qO+1nh2D8M4ULSoocHvjANBgkqhkiG9w0BAQUFADCB
lTELMAkGA1UEBhMCVVMxCzAJBgNVBAgTAlVUMRcwFQYDVQQHEw5TYWx0IExha2Ug
Q2l0eTEeMBwGA1UEChMVVGhlIFVTRVJUUlVTVCBOZXR3b3JrMSEwHwYDVQQLExho
dHRwOi8vd3d3LnVzZXJ0cnVzdC5jb20xHTAbBgNVBAMTFFVUTi1VU0VSRmlyc3Qt
T2JqZWN0MB4XDTEwMDUxMDAwMDAwMFoXDTE1MDUxMDIzNTk1OVowfjELMAkGA1UE
BhMCR0IxGzAZBgNVBAgTEkdyZWF0ZXIgTWFuY2hlc3RlcjEQMA4GA1UEBxMHU2Fs
Zm9yZDEaMBgGA1UEChMRQ09NT0RPIENBIExpbWl0ZWQxJDAiBgNVBAMTG0NPTU9E
TyBUaW1lIFN0YW1waW5nIFNpZ25lcjCCASIwDQYJKoZIhvcNAQEBBQADggEPADCC
AQoCggEBALw1oDZwIoERw7KDudMoxjbNJWupe7Ic9ptRnO819O0Ijl44CPh3PApC
4PNw3KPXyvVMC8//IpwKfmjWCaIqhHumnbSpwTPi7x8XSMo6zUbmxap3veN3mvpH
U0AoWUOT8aSB6u+AtU+nCM66brzKdgyXZFmGJLs9gpCoVbGS06CnBayfUyUIEEeZ
zZjeaOW0UHijrwHMWUNY5HZufqzH4p4fT7BHLcgMo0kngHWMuwaRZQ+Qm/S60YHI
XGrsFOklCb8jFvSVRkBAIbuDlv2GH3rIDRCOovgZB1h/n703AmDypOmdRD8wBeSn
cJlRmugX8VXKsmGJZUanavJYRn6qoAcCAwEAAaOB9DCB8TAfBgNVHSMEGDAWgBTa
7WR0FJwUPKvdmam9WyhNizzJ2DAdBgNVHQ4EFgQULi2wCkRK04fAAgfOl31QYiD9
D4MwDgYDVR0PAQH/BAQDAgbAMAwGA1UdEwEB/wQCMAAwFgYDVR0lAQH/BAwwCgYI
KwYBBQUHAwgwQgYDVR0fBDswOTA3oDWgM4YxaHR0cDovL2NybC51c2VydHJ1c3Qu
Y29tL1VUTi1VU0VSRmlyc3QtT2JqZWN0LmNybDA1BggrBgEFBQcBAQQpMCcwJQYI
KwYBBQUHMAGGGWh0dHA6Ly9vY3NwLnVzZXJ0cnVzdC5jb20wDQYJKoZIhvcNAQEF
BQADggEBAMj7Y/gLdXUsOvHyE6cttqManK0BB9M0jnfgwm6uAl1IT6TSIbY2/So1
Q3xr34CHCxXwdjIAtM61Z6QvLyAbnFSegz8fXxSVYoIPIkEiH3Cz8/dC3mxRzUv4
IaybO4yx5eYoj84qivmqUk2MW3e6TVpY27tqBMxSHp3iKDcOu+cOkcf42/GBmOvN
N7MOq2XTYuw6pXbrE6g1k8kuCgHswOjMPX626+LB7NMUkoJmh1Dc/VCXrLNKdnMG
xIYROrNfQwRSb+qz0HQ2TMrxG3mEN3BjrXS5qg7zmLCGCOvb4B+MEPI5ZJuuTwos
kopPGLWR5Y0ak18frvGm8C6X0NL2Kzw=
-----END CERTIFICATE-----

Certificate:
    Data:
        Version: 3 (0x2)
        Serial Number: 36 (0x24)
    Signature Algorithm: sha1WithRSAEncryption
        Issuer: C=IL, O=StartCom Ltd., OU=Secure Digital Certificate Signing, CN=StartCom Certification Authority
        Validity
            Not Before: Oct 24 22:01:46 2007 GMT
            Not After : Oct 24 22:01:46 2017 GMT
        Subject: C=IL, O=StartCom Ltd., OU=Secure Digital Certificate Signing, CN=StartCom Class 2 Primary Intermediate Object CA
        Subject Public Key Info:
            Public Key Algorithm: rsaEncryption
                Public-Key: (2048 bit)
                Modulus:
                    00:ca:23:8b:22:35:1e:9a:a0:1b:3c:9d:49:d0:3f:
                    0c:97:38:16:29:ba:f8:7d:89:5b:45:58:ef:84:70:
                    ed:7e:11:4d:e9:14:31:ab:43:e3:4d:0c:51:81:6c:
                    f0:15:03:4a:24:27:54:e5:fb:4a:a0:ce:4d:e1:84:
                    a3:21:de:99:35:ab:dc:49:ae:bf:31:c5:67:84:30:
                    10:9b:ef:07:dc:75:a8:0f:4d:f4:35:53:b1:6e:38:
                    03:fc:88:77:1d:a5:77:ff:3f:75:e7:d9:e7:bf:2c:
                    50:11:c9:11:65:fa:49:07:62:9f:93:a6:87:a9:6d:
                    c9:9d:2b:d1:7b:e5:d5:65:2b:9f:0d:50:9e:fe:fb:
                    71:19:21:30:28:26:8d:ae:c2:dc:f6:96:e8:52:86:
                    08:0b:7a:32:cd:6a:14:4d:9e:b9:f9:cd:07:e2:96:
                    91:f1:cf:1e:2b:f9:82:f7:5e:26:06:8e:8d:d1:d4:
                    39:d7:6f:db:91:27:5a:79:8f:58:69:0a:46:b5:6f:
                    e1:fd:6f:c5:91:b4:11:4f:7b:02:a6:db:4b:56:52:
                    23:9e:4b:98:e2:bf:7e:ce:fa:a1:4e:83:e3:c5:c7:
                    c3:60:47:fe:5c:3f:15:1a:40:2a:95:ef:00:6b:c8:
                    50:f8:cd:6a:19:d4:23:03:27:bc:3b:36:d5:b9:43:
                    b0:ef
                Exponent: 65537 (0x10001)
        X509v3 extensions:
            X509v3 Basic Constraints: critical
                CA:TRUE
            X509v3 Key Usage: critical
                Certificate Sign, CRL Sign
            X509v3 Subject Key Identifier: 
                D0:4E:0F:40:99:6C:B8:4B:19:6F:3B:28:B8:E0:E3:88:07:34:AA:B7
            X509v3 Authority Key Identifier: 
                keyid:4E:0B:EF:1A:A4:40:5B:A5:17:69:87:30:CA:34:68:43:D0:41:AE:F2

            Authority Information Access: 
                CA Issuers - URI:http://www.startssl.com/sfsca.crt

            X509v3 CRL Distribution Points: 

                Full Name:
                  URI:http://www.startssl.com/sfsca.crl

                Full Name:
                  URI:http://crl.startssl.com/sfsca.crl

            X509v3 Certificate Policies: 
                Policy: 1.3.6.1.4.1.23223.1.2.1
                  CPS: http://www.startssl.com/policy.pdf
                  CPS: http://www.startssl.com/intermediate.pdf

            Netscape Cert Type: 
                Object Signing CA
            Netscape Comment: 
                StartCom Class 2 Primary Intermediate Object Signing Certificates
    Signature Algorithm: sha1WithRSAEncryption
         72:73:0b:03:75:5a:37:83:88:13:d9:78:41:3e:4e:12:d6:72:
         e4:f0:72:06:2b:77:a0:78:aa:42:98:15:11:0a:3b:0c:74:6c:
         8d:70:f9:1f:f2:32:4e:2b:e9:32:29:1a:69:e4:71:22:ff:79:
         6d:a4:5d:e2:1a:14:70:cc:03:8f:82:48:8c:2d:d6:03:d1:68:
         34:55:77:d5:23:25:8c:46:5a:eb:a1:bc:45:01:02:74:c4:92:
         b9:f8:1f:0d:8b:b5:5d:0f:9c:50:ac:61:0f:71:2d:2c:61:9c:
         14:68:e3:30:be:c4:42:fd:88:a2:5e:f8:d6:b1:2c:c9:c5:f0:
         21:77:2b:cb:17:a2:31:b5:36:4c:f8:bb:5f:77:a5:6f:04:0c:
         73:82:45:94:9e:01:cb:d1:61:07:3b:99:07:50:d5:da:c3:76:
         8a:b1:95:6c:2d:c6:ff:5f:92:d9:da:0f:0e:32:f5:09:a1:25:
         c1:16:bf:4f:4a:a4:ab:6b:ef:3f:15:20:af:20:28:0a:9a:54:
         14:a5:62:c3:9c:a8:19:80:be:cf:51:9a:7a:c5:96:88:fd:5e:
         14:a0:0b:d3:02:3b:22:04:af:2f:35:37:cb:55:69:ee:fb:18:
         6b:13:95:06:a6:6d:79:b1:53:59:11:ed:5e:30:ac:16:ba:d0:
         06:78:2d:d1:dd:f7:41:b4:11:23:99:b0:83:31:29:ed:72:7d:
         c6:ee:5d:e9:15:56:33:84:cf:45:4b:1d:f8:30:d9:a4:11:e6:
         f6:6b:33:be:2f:60:54:56:f6:64:6e:ea:45:15:c2:4a:ac:ac:
         e3:eb:bf:34:b0:4f:6d:78:bf:9b:f9:54:d3:47:0e:0d:04:e5:
         0b:f7:ae:c2:39:3d:1d:0b:51:ad:74:3f:ce:ab:01:25:2e:94:
         27:e7:8b:1b:0d:6a:39:f8:fe:1d:50:65:fd:94:29:7e:82:e4:
         ec:8a:16:95:14:2f:44:bd:6c:ee:88:ab:11:aa:8f:65:42:16:
         63:f8:2b:5e:af:6b:ea:30:ca:02:9d:cb:65:d2:90:a4:f3:a7:
         9e:88:2d:aa:55:38:7f:bf:e4:2e:31:09:86:ba:dc:f7:c9:ab:
         39:69:95:30:af:c1:b8:54:40:7d:0e:68:0d:43:27:56:60:b3:
         03:32:cc:8c:a7:c6:71:55:bf:88:c7:b0:e3:5c:9f:86:02:9b:
         c2:97:f3:9b:72:c1:af:56:6f:fa:91:01:81:c8:16:ea:89:d1:
         2d:20:27:dd:71:cc:d1:e3:6d:cf:e0:24:c4:7e:ab:45:fe:81:
         da:66:21:2c:41:06:2d:aa:47:f1:1d:40:30:0a:38:05:b5:45:
         39:94:79:91:77:0c:0b:0a
-----BEGIN CERTIFICATE-----
MIIGcDCCBFigAwIBAgIBJDANBgkqhkiG9w0BAQUFADB9MQswCQYDVQQGEwJJTDEW
MBQGA1UEChMNU3RhcnRDb20gTHRkLjErMCkGA1UECxMiU2VjdXJlIERpZ2l0YWwg
Q2VydGlmaWNhdGUgU2lnbmluZzEpMCcGA1UEAxMgU3RhcnRDb20gQ2VydGlmaWNh
dGlvbiBBdXRob3JpdHkwHhcNMDcxMDI0MjIwMTQ2WhcNMTcxMDI0MjIwMTQ2WjCB
jDELMAkGA1UEBhMCSUwxFjAUBgNVBAoTDVN0YXJ0Q29tIEx0ZC4xKzApBgNVBAsT
IlNlY3VyZSBEaWdpdGFsIENlcnRpZmljYXRlIFNpZ25pbmcxODA2BgNVBAMTL1N0
YXJ0Q29tIENsYXNzIDIgUHJpbWFyeSBJbnRlcm1lZGlhdGUgT2JqZWN0IENBMIIB
IjANBgkqhkiG9w0BAQEFAAOCAQ8AMIIBCgKCAQEAyiOLIjUemqAbPJ1J0D8MlzgW
Kbr4fYlbRVjvhHDtfhFN6RQxq0PjTQxRgWzwFQNKJCdU5ftKoM5N4YSjId6ZNavc
Sa6/McVnhDAQm+8H3HWoD030NVOxbjgD/Ih3HaV3/z9159nnvyxQEckRZfpJB2Kf
k6aHqW3JnSvRe+XVZSufDVCe/vtxGSEwKCaNrsLc9pboUoYIC3oyzWoUTZ65+c0H
4paR8c8eK/mC914mBo6N0dQ512/bkSdaeY9YaQpGtW/h/W/FkbQRT3sCpttLVlIj
nkuY4r9+zvqhToPjxcfDYEf+XD8VGkAqle8Aa8hQ+M1qGdQjAye8OzbVuUOw7wID
AQABo4IB6TCCAeUwDwYDVR0TAQH/BAUwAwEB/zAOBgNVHQ8BAf8EBAMCAQYwHQYD
VR0OBBYEFNBOD0CZbLhLGW87KLjg44gHNKq3MB8GA1UdIwQYMBaAFE4L7xqkQFul
F2mHMMo0aEPQQa7yMD0GCCsGAQUFBwEBBDEwLzAtBggrBgEFBQcwAoYhaHR0cDov
L3d3dy5zdGFydHNzbC5jb20vc2ZzY2EuY3J0MFsGA1UdHwRUMFIwJ6AloCOGIWh0
dHA6Ly93d3cuc3RhcnRzc2wuY29tL3Nmc2NhLmNybDAnoCWgI4YhaHR0cDovL2Ny
bC5zdGFydHNzbC5jb20vc2ZzY2EuY3JsMIGABgNVHSAEeTB3MHUGCysGAQQBgbU3
AQIBMGYwLgYIKwYBBQUHAgEWImh0dHA6Ly93d3cuc3RhcnRzc2wuY29tL3BvbGlj
eS5wZGYwNAYIKwYBBQUHAgEWKGh0dHA6Ly93d3cuc3RhcnRzc2wuY29tL2ludGVy
bWVkaWF0ZS5wZGYwEQYJYIZIAYb4QgEBBAQDAgABMFAGCWCGSAGG+EIBDQRDFkFT
dGFydENvbSBDbGFzcyAyIFByaW1hcnkgSW50ZXJtZWRpYXRlIE9iamVjdCBTaWdu
aW5nIENlcnRpZmljYXRlczANBgkqhkiG9w0BAQUFAAOCAgEAcnMLA3VaN4OIE9l4
QT5OEtZy5PByBit3oHiqQpgVEQo7DHRsjXD5H/IyTivpMikaaeRxIv95baRd4hoU
cMwDj4JIjC3WA9FoNFV31SMljEZa66G8RQECdMSSufgfDYu1XQ+cUKxhD3EtLGGc
FGjjML7EQv2Iol741rEsycXwIXcryxeiMbU2TPi7X3elbwQMc4JFlJ4By9FhBzuZ
B1DV2sN2irGVbC3G/1+S2doPDjL1CaElwRa/T0qkq2vvPxUgryAoCppUFKViw5yo
GYC+z1GaesWWiP1eFKAL0wI7IgSvLzU3y1Vp7vsYaxOVBqZtebFTWRHtXjCsFrrQ
Bngt0d33QbQRI5mwgzEp7XJ9xu5d6RVWM4TPRUsd+DDZpBHm9mszvi9gVFb2ZG7q
RRXCSqys4+u/NLBPbXi/m/lU00cODQTlC/euwjk9HQtRrXQ/zqsBJS6UJ+eLGw1q
Ofj+HVBl/ZQpfoLk7IoWlRQvRL1s7oirEaqPZUIWY/grXq9r6jDKAp3LZdKQpPOn
nogtqlU4f7/kLjEJhrrc98mrOWmVMK/BuFRAfQ5oDUMnVmCzAzLMjKfGcVW/iMew
41yfhgKbwpfzm3LBr1Zv+pEBgcgW6onRLSAn3XHM0eNtz+AkxH6rRf6B2mYhLEEG
LapH8R1AMAo4BbVFOZR5kXcMCwo=
-----END CERTIFICATE-----

Certificate:
    Data:
        Version: 3 (0x2)
        Serial Number: 2280 (0x8e8)
    Signature Algorithm: sha1WithRSAEncryption
        Issuer: C=IL, O=StartCom Ltd., OU=Secure Digital Certificate Signing, CN=StartCom Class 2 Primary Intermediate Object CA
        Validity
            Not Before: Feb 21 10:23:35 2013 GMT
            Not After : Feb 23 02:31:48 2015 GMT
        Subject: description=05hdlBY9aU5F8LhF, C=CA, ST=Ontario, L=Ottawa, O=Perception, CN=Perception/emailAddress=chris@cmfperception.com
        Subject Public Key Info:
            Public Key Algorithm: rsaEncryption
                Public-Key: (2048 bit)
                Modulus:
                    00:a1:2a:b1:b5:9f:cd:35:29:6c:b2:67:11:d8:31:
                    7f:01:43:93:f6:1f:16:9a:cb:e7:15:b1:20:7c:b8:
                    f2:5e:27:44:7d:ef:f9:f2:0b:2b:f6:ed:b4:00:08:
                    60:4e:5d:17:5f:e5:21:22:fe:db:22:6b:d1:5f:a2:
                    4a:c7:aa:f1:cd:41:ff:35:52:85:cc:9b:22:a0:31:
                    1f:21:06:a4:7b:aa:b6:66:00:7a:2a:c3:01:b7:b6:
                    ff:d2:7b:33:9f:7c:08:a0:db:fa:0e:44:8b:22:41:
                    ef:92:d1:8d:a4:b8:a2:dc:eb:57:36:9a:c5:0e:c8:
                    4a:4b:ee:09:7b:4c:d4:ac:47:44:49:27:4e:ae:4b:
                    b1:16:b1:4b:4f:4f:98:8a:9f:dc:80:fd:5f:5e:ed:
                    4b:9a:47:26:19:37:f4:7a:41:a5:18:52:d9:c9:01:
                    bc:c3:2f:99:1e:e3:72:12:9a:89:11:74:1a:b6:e2:
                    ce:da:46:70:1d:98:40:f8:02:bb:47:46:88:91:3e:
                    81:4c:ad:fc:76:c5:fe:bc:cd:5e:46:d8:8d:59:fa:
                    df:ba:33:b6:b5:5a:83:cc:42:b0:eb:69:44:5d:e4:
                    e2:d2:b8:f5:58:fd:aa:13:85:b6:7b:65:e3:27:74:
                    d5:22:85:a0:e5:59:7d:e2:fe:96:48:3e:65:1f:85:
                    22:89
                Exponent: 65537 (0x10001)
        X509v3 extensions:
            X509v3 Basic Constraints: 
                CA:FALSE
            X509v3 Key Usage: critical
                Digital Signature
            X509v3 Extended Key Usage: critical
                Code Signing, Microsoft Commercial Code Signing, 1.3.6.1.4.1.311.10.3.13
            X509v3 Subject Key Identifier: 
                31:9C:7C:B4:6C:81:E4:87:36:AF:8B:FA:63:99:48:2A:87:43:D0:50
            X509v3 Authority Key Identifier: 
                keyid:D0:4E:0F:40:99:6C:B8:4B:19:6F:3B:28:B8:E0:E3:88:07:34:AA:B7

            X509v3 Certificate Policies: 
                Policy: 1.3.6.1.4.1.23223.1.2.3
                  CPS: http://www.startssl.com/policy.pdf
                  User Notice:
                    Organization: StartCom Certification Authority
                    Number: 1
                    Explicit Text: This certificate was issued according to the Class 2 Validation requirements of the StartCom CA policy, reliance only for the intended purpose in compliance of the relying party obligations.

            X509v3 CRL Distribution Points: 

                Full Name:
                  URI:http://crl.startssl.com/crtc2-crl.crl

            Authority Information Access: 
                OCSP - URI:http://ocsp.startssl.com/sub/class2/code/ca
                CA Issuers - URI:http://aia.startssl.com/certs/sub.class2.code.ca.crt

            X509v3 Issuer Alternative Name: 
                URI:http://www.startssl.com/
    Signature Algorithm: sha1WithRSAEncryption
         8b:42:86:f5:b9:34:26:07:df:38:0a:41:a2:5c:25:6b:b5:1a:
         db:a8:b6:f4:fd:30:89:8a:21:46:f3:9f:c0:b1:00:4e:e7:f4:
         2b:62:c9:9d:d4:16:f8:1a:73:eb:f2:0c:0d:4f:01:a2:d7:6d:
         ea:71:7d:73:b0:a7:fb:4e:93:88:af:cd:83:da:3d:73:c4:32:
         de:75:e1:9d:77:b5:a7:4a:54:7e:58:89:11:4d:c8:b5:d1:bf:
         16:a7:47:c2:ce:00:3c:79:28:08:65:c1:e4:b7:46:57:28:59:
         b2:a4:8d:e5:29:30:c9:f5:d2:2c:f3:8d:01:3a:f3:0d:f1:17:
         73:2f:b3:65:e6:a1:46:24:b8:ab:5d:60:70:d5:62:8b:2a:1b:
         90:78:d6:82:3b:32:c3:de:bb:38:7d:4c:8e:f0:2c:0f:0f:90:
         19:7c:ba:c3:7b:3e:ef:02:54:ba:ad:25:84:0c:72:9a:d7:0a:
         0f:53:82:90:e5:d4:5f:43:23:ac:32:aa:03:8e:b4:24:3d:dc:
         66:0e:d4:ea:6c:14:b3:71:90:63:ff:9c:bb:16:f3:bb:49:29:
         33:41:31:6a:3c:fc:a9:dc:b4:3c:96:59:df:c3:3f:c0:2b:93:
         1b:28:1e:14:e8:65:dd:55:17:a5:5a:0b:83:04:65:fa:2e:ea:
         83:18:fe:09
-----BEGIN CERTIFICATE-----
MIIGcTCCBVmgAwIBAgICCOgwDQYJKoZIhvcNAQEFBQAwgYwxCzAJBgNVBAYTAklM
MRYwFAYDVQQKEw1TdGFydENvbSBMdGQuMSswKQYDVQQLEyJTZWN1cmUgRGlnaXRh
bCBDZXJ0aWZpY2F0ZSBTaWduaW5nMTgwNgYDVQQDEy9TdGFydENvbSBDbGFzcyAy
IFByaW1hcnkgSW50ZXJtZWRpYXRlIE9iamVjdCBDQTAeFw0xMzAyMjExMDIzMzVa
Fw0xNTAyMjMwMjMxNDhaMIGdMRkwFwYDVQQNExAwNWhkbEJZOWFVNUY4TGhGMQsw
CQYDVQQGEwJDQTEQMA4GA1UECBMHT250YXJpbzEPMA0GA1UEBxMGT3R0YXdhMRMw
EQYDVQQKEwpQZXJjZXB0aW9uMRMwEQYDVQQDEwpQZXJjZXB0aW9uMSYwJAYJKoZI
hvcNAQkBFhdjaHJpc0BjbWZwZXJjZXB0aW9uLmNvbTCCASIwDQYJKoZIhvcNAQEB
BQADggEPADCCAQoCggEBAKEqsbWfzTUpbLJnEdgxfwFDk/YfFprL5xWxIHy48l4n
RH3v+fILK/bttAAIYE5dF1/lISL+2yJr0V+iSseq8c1B/zVShcybIqAxHyEGpHuq
tmYAeirDAbe2/9J7M598CKDb+g5EiyJB75LRjaS4otzrVzaaxQ7ISkvuCXtM1KxH
REknTq5LsRaxS09PmIqf3ID9X17tS5pHJhk39HpBpRhS2ckBvMMvmR7jchKaiRF0
GrbiztpGcB2YQPgCu0dGiJE+gUyt/HbF/rzNXkbYjVn637oztrVag8xCsOtpRF3k
4tK49Vj9qhOFtntl4yd01SKFoOVZfeL+lkg+ZR+FIokCAwEAAaOCAsgwggLEMAkG
A1UdEwQCMAAwDgYDVR0PAQH/BAQDAgeAMC4GA1UdJQEB/wQkMCIGCCsGAQUFBwMD
BgorBgEEAYI3AgEWBgorBgEEAYI3CgMNMB0GA1UdDgQWBBQxnHy0bIHkhzavi/pj
mUgqh0PQUDAfBgNVHSMEGDAWgBTQTg9AmWy4SxlvOyi44OOIBzSqtzCCAUwGA1Ud
IASCAUMwggE/MIIBOwYLKwYBBAGBtTcBAgMwggEqMC4GCCsGAQUFBwIBFiJodHRw
Oi8vd3d3LnN0YXJ0c3NsLmNvbS9wb2xpY3kucGRmMIH3BggrBgEFBQcCAjCB6jAn
FiBTdGFydENvbSBDZXJ0aWZpY2F0aW9uIEF1dGhvcml0eTADAgEBGoG+VGhpcyBj
ZXJ0aWZpY2F0ZSB3YXMgaXNzdWVkIGFjY29yZGluZyB0byB0aGUgQ2xhc3MgMiBW
YWxpZGF0aW9uIHJlcXVpcmVtZW50cyBvZiB0aGUgU3RhcnRDb20gQ0EgcG9saWN5
LCByZWxpYW5jZSBvbmx5IGZvciB0aGUgaW50ZW5kZWQgcHVycG9zZSBpbiBjb21w
bGlhbmNlIG9mIHRoZSByZWx5aW5nIHBhcnR5IG9ibGlnYXRpb25zLjA2BgNVHR8E
LzAtMCugKaAnhiVodHRwOi8vY3JsLnN0YXJ0c3NsLmNvbS9jcnRjMi1jcmwuY3Js
MIGJBggrBgEFBQcBAQR9MHswNwYIKwYBBQUHMAGGK2h0dHA6Ly9vY3NwLnN0YXJ0
c3NsLmNvbS9zdWIvY2xhc3MyL2NvZGUvY2EwQAYIKwYBBQUHMAKGNGh0dHA6Ly9h
aWEuc3RhcnRzc2wuY29tL2NlcnRzL3N1Yi5jbGFzczIuY29kZS5jYS5jcnQwIwYD
VR0SBBwwGoYYaHR0cDovL3d3dy5zdGFydHNzbC5jb20vMA0GCSqGSIb3DQEBBQUA
A4IBAQCLQob1uTQmB984CkGiXCVrtRrbqLb0/TCJiiFG85/AsQBO5/QrYsmd1Bb4
GnPr8gwNTwGi123qcX1zsKf7TpOIr82D2j1zxDLedeGdd7WnSlR+WIkRTci10b8W
p0fCzgA8eSgIZcHkt0ZXKFmypI3lKTDJ9dIs840BOvMN8RdzL7Nl5qFGJLirXWBw
1WKLKhuQeNaCOzLD3rs4fUyO8CwPD5AZfLrDez7vAlS6rSWEDHKa1woPU4KQ5dRf
QyOsMqoDjrQkPdxmDtTqbBSzcZBj/5y7FvO7SSkzQTFqPPyp3LQ8llnfwz/AK5Mb
KB4U6GXdVRelWguDBGX6LuqDGP4J
-----END CERTIFICATE-----

