Certificate:
    Data:
        Version: 3 (0x2)
        Serial Number:
            0a:57:34:cb:bf:a1:f7:71:7d:f2:43:80:66:37:43:1f
    Signature Algorithm: sha256WithRSAEncryption
        Issuer: C=US, O=DigiCert Inc, OU=www.digicert.com, CN=DigiCert SHA2 Assured ID Code Signing CA
        Validity
            Not Before: Mar  9 00:00:00 2014 GMT
            Not After : Mar 13 12:00:00 2017 GMT
        Subject: C=US, ST=Florida, L=Sarasota, O=Syndicate LLC, OU=Technic Pack, CN=Syndicate LLC
        Subject Public Key Info:
            Public Key Algorithm: rsaEncryption
                Public-Key: (2048 bit)
                Modulus:
                    00:94:99:a2:71:3f:ec:8d:43:ad:4b:93:07:d1:8c:
                    70:af:38:fa:8e:76:00:5b:87:90:73:06:72:52:36:
                    60:e1:85:58:53:07:32:ee:27:7d:8f:ff:67:38:10:
                    4b:5f:04:81:9b:03:85:b7:94:e7:3a:5e:17:3b:0c:
                    50:c9:da:19:c1:35:4d:a7:bf:b1:67:0b:a1:27:81:
                    f4:22:3a:fc:2c:63:ad:ab:45:c1:16:59:d1:e3:5b:
                    41:b0:92:c6:71:ca:e5:4e:3b:fa:0e:7f:a6:be:0b:
                    72:73:4d:a9:b6:ad:5a:3c:af:fc:8c:41:4e:c3:7f:
                    24:bc:8d:e3:80:66:db:e5:5f:5a:ae:83:8f:99:58:
                    50:88:5f:3c:96:45:05:64:31:bf:0c:68:36:54:57:
                    7f:5b:fc:2b:a9:db:3c:5c:e0:75:74:d9:d8:c3:98:
                    f6:67:a4:87:a5:ee:e3:23:53:05:0f:3d:04:ce:ab:
                    12:e2:43:5c:d2:64:f2:90:c9:62:c9:42:d8:b3:4e:
                    16:a0:cc:b0:69:f5:88:c1:ad:9a:1f:ca:c6:f0:5d:
                    ec:c2:46:0a:a8:a8:f4:d6:aa:4b:37:07:cf:a9:2d:
                    db:f0:ad:93:60:87:27:e2:09:43:af:40:d0:18:da:
                    b3:63:82:b7:fa:95:a2:f4:63:7e:90:c3:5d:de:75:
                    5a:4d
                Exponent: 65537 (0x10001)
        X509v3 extensions:
            X509v3 Authority Key Identifier: 
                keyid:5A:C4:B9:7B:2A:0A:A3:A5:EA:71:03:C0:60:F9:2D:F6:65:75:0E:58

            X509v3 Subject Key Identifier: 
                D8:F0:48:4A:05:10:8A:24:C8:C5:24:91:05:88:73:2D:AB:60:0C:40
            X509v3 Key Usage: critical
                Digital Signature
            X509v3 Extended Key Usage: 
                Code Signing
            X509v3 CRL Distribution Points: 

                Full Name:
                  URI:http://crl3.digicert.com/sha2-assured-cs-g1.crl

                Full Name:
                  URI:http://crl4.digicert.com/sha2-assured-cs-g1.crl

            X509v3 Certificate Policies: 
                Policy: 2.16.840.1.114412.3.1
                  CPS: http://www.digicert.com/ssl-cps-repository.htm
                  User Notice:
                    Explicit Text: 

            Authority Information Access: 
                OCSP - URI:http://ocsp.digicert.com
                CA Issuers - URI:http://cacerts.digicert.com/DigiCertSHA2AssuredIDCodeSigningCA.crt

            X509v3 Basic Constraints: critical
                CA:FALSE
    Signature Algorithm: sha256WithRSAEncryption
         62:5b:7c:fe:74:27:99:ea:12:b8:d3:bc:b3:ec:70:47:c4:7b:
         ea:da:cf:fd:04:62:bf:7b:0a:77:3c:66:c0:60:ca:5d:1d:76:
         32:72:20:1f:ba:a5:ee:51:db:44:62:7e:78:e2:6a:5f:a9:f6:
         ac:75:84:c1:7f:18:ca:f2:0f:75:05:a0:a9:07:bf:99:dd:c5:
         1e:40:2c:16:63:f8:2f:0c:ad:8e:48:31:66:7c:b7:1f:3c:33:
         31:90:00:b1:37:17:81:9a:8a:82:87:40:9d:ef:53:ca:6a:cd:
         b5:fb:1a:35:5a:12:74:1b:a2:73:6b:d4:13:33:86:46:b2:fa:
         da:9b:93:9e:4f:8c:4e:df:f1:f0:6d:41:e7:13:e4:75:b3:ae:
         07:72:38:c7:89:cb:ca:72:76:65:80:92:92:85:52:e0:d7:44:
         a1:40:48:46:ff:4d:73:9f:eb:58:a5:8f:e2:11:22:05:49:f6:
         d5:17:f2:d7:35:4e:c0:b2:49:73:ba:51:77:9f:27:59:01:b6:
         50:e3:2c:a3:85:bb:25:f9:fe:71:9f:1a:a3:e2:81:7b:7e:32:
         11:c2:bf:7d:59:59:66:30:1a:d0:59:57:14:d3:90:df:4b:ee:
         a6:96:e4:80:b3:db:81:e6:fe:01:3a:e1:23:37:e4:c2:ae:89:
         1f:c3:c8:d6
-----BEGIN CERTIFICATE-----
MIIGtjCCBZ6gAwIBAgIQClc0y7+h93F98kOAZjdDHzANBgkqhkiG9w0BAQsFADBy
MQswCQYDVQQGEwJVUzEVMBMGA1UEChMMRGlnaUNlcnQgSW5jMRkwFwYDVQQLExB3
d3cuZGlnaWNlcnQuY29tMTEwLwYDVQQDEyhEaWdpQ2VydCBTSEEyIEFzc3VyZWQg
SUQgQ29kZSBTaWduaW5nIENBMB4XDTE0MDMwOTAwMDAwMFoXDTE3MDMxMzEyMDAw
MFoweTELMAkGA1UEBhMCVVMxEDAOBgNVBAgTB0Zsb3JpZGExETAPBgNVBAcTCFNh
cmFzb3RhMRYwFAYDVQQKEw1TeW5kaWNhdGUgTExDMRUwEwYDVQQLEwxUZWNobmlj
IFBhY2sxFjAUBgNVBAMTDVN5bmRpY2F0ZSBMTEMwggEiMA0GCSqGSIb3DQEBAQUA
A4IBDwAwggEKAoIBAQCUmaJxP+yNQ61LkwfRjHCvOPqOdgBbh5BzBnJSNmDhhVhT
BzLuJ32P/2c4EEtfBIGbA4W3lOc6Xhc7DFDJ2hnBNU2nv7FnC6EngfQiOvwsY62r
RcEWWdHjW0GwksZxyuVOO/oOf6a+C3JzTam2rVo8r/yMQU7DfyS8jeOAZtvlX1qu
g4+ZWFCIXzyWRQVkMb8MaDZUV39b/Cup2zxc4HV02djDmPZnpIel7uMjUwUPPQTO
qxLiQ1zSZPKQyWLJQtizThagzLBp9YjBrZofysbwXezCRgqoqPTWqks3B8+pLdvw
rZNghyfiCUOvQNAY2rNjgrf6laL0Y36Qw13edVpNAgMBAAGjggM/MIIDOzAfBgNV
HSMEGDAWgBRaxLl7KgqjpepxA8Bg+S32ZXUOWDAdBgNVHQ4EFgQU2PBISgUQiiTI
xSSRBYhzLatgDEAwDgYDVR0PAQH/BAQDAgeAMBMGA1UdJQQMMAoGCCsGAQUFBwMD
MHcGA1UdHwRwMG4wNaAzoDGGL2h0dHA6Ly9jcmwzLmRpZ2ljZXJ0LmNvbS9zaGEy
LWFzc3VyZWQtY3MtZzEuY3JsMDWgM6Axhi9odHRwOi8vY3JsNC5kaWdpY2VydC5j
b20vc2hhMi1hc3N1cmVkLWNzLWcxLmNybDCCAcQGA1UdIASCAbswggG3MIIBswYJ
YIZIAYb9bAMBMIIBpDA6BggrBgEFBQcCARYuaHR0cDovL3d3dy5kaWdpY2VydC5j
b20vc3NsLWNwcy1yZXBvc2l0b3J5Lmh0bTCCAWQGCCsGAQUFBwICMIIBVh6CAVIA
QQBuAHkAIAB1AHMAZQAgAG8AZgAgAHQAaABpAHMAIABDAGUAcgB0AGkAZgBpAGMA
YQB0AGUAIABjAG8AbgBzAHQAaQB0AHUAdABlAHMAIABhAGMAYwBlAHAAdABhAG4A
YwBlACAAbwBmACAAdABoAGUAIABEAGkAZwBpAEMAZQByAHQAIABDAFAALwBDAFAA
UwAgAGEAbgBkACAAdABoAGUAIABSAGUAbAB5AGkAbgBnACAAUABhAHIAdAB5ACAA
QQBnAHIAZQBlAG0AZQBuAHQAIAB3AGgAaQBjAGgAIABsAGkAbQBpAHQAIABsAGkA
YQBiAGkAbABpAHQAeQAgAGEAbgBkACAAYQByAGUAIABpAG4AYwBvAHIAcABvAHIA
YQB0AGUAZAAgAGgAZQByAGUAaQBuACAAYgB5ACAAcgBlAGYAZQByAGUAbgBjAGUA
LjCBhAYIKwYBBQUHAQEEeDB2MCQGCCsGAQUFBzABhhhodHRwOi8vb2NzcC5kaWdp
Y2VydC5jb20wTgYIKwYBBQUHMAKGQmh0dHA6Ly9jYWNlcnRzLmRpZ2ljZXJ0LmNv
bS9EaWdpQ2VydFNIQTJBc3N1cmVkSURDb2RlU2lnbmluZ0NBLmNydDAMBgNVHRMB
Af8EAjAAMA0GCSqGSIb3DQEBCwUAA4IBAQBiW3z+dCeZ6hK407yz7HBHxHvq2s/9
BGK/ewp3PGbAYMpdHXYyciAfuqXuUdtEYn544mpfqfasdYTBfxjK8g91BaCpB7+Z
3cUeQCwWY/gvDK2OSDFmfLcfPDMxkACxNxeBmoqCh0Cd71PKas21+xo1WhJ0G6Jz
a9QTM4ZGsvram5OeT4xO3/HwbUHnE+R1s64HcjjHicvKcnZlgJKShVLg10ShQEhG
/01zn+tYpY/iESIFSfbVF/LXNU7AsklzulF3nydZAbZQ4yyjhbsl+f5xnxqj4oF7
fjIRwr99WVlmMBrQWVcU05DfS+6mluSAs9uB5v4BOuEjN+TCrokfw8jW
-----END CERTIFICATE-----

Certificate:
    Data:
        Version: 3 (0x2)
        Serial Number:
            0c:e7:e0:e5:17:d8:46:fe:8f:e5:60:fc:1b:f0:30:39
    Signature Algorithm: sha1WithRSAEncryption
        Issuer: C=US, O=DigiCert Inc, OU=www.digicert.com, CN=DigiCert Assured ID Root CA
        Validity
            Not Before: Nov 10 00:00:00 2006 GMT
            Not After : Nov 10 00:00:00 2031 GMT
        Subject: C=US, O=DigiCert Inc, OU=www.digicert.com, CN=DigiCert Assured ID Root CA
        Subject Public Key Info:
            Public Key Algorithm: rsaEncryption
                Public-Key: (2048 bit)
                Modulus:
                    00:ad:0e:15:ce:e4:43:80:5c:b1:87:f3:b7:60:f9:
                    71:12:a5:ae:dc:26:94:88:aa:f4:ce:f5:20:39:28:
                    58:60:0c:f8:80:da:a9:15:95:32:61:3c:b5:b1:28:
                    84:8a:8a:dc:9f:0a:0c:83:17:7a:8f:90:ac:8a:e7:
                    79:53:5c:31:84:2a:f6:0f:98:32:36:76:cc:de:dd:
                    3c:a8:a2:ef:6a:fb:21:f2:52:61:df:9f:20:d7:1f:
                    e2:b1:d9:fe:18:64:d2:12:5b:5f:f9:58:18:35:bc:
                    47:cd:a1:36:f9:6b:7f:d4:b0:38:3e:c1:1b:c3:8c:
                    33:d9:d8:2f:18:fe:28:0f:b3:a7:83:d6:c3:6e:44:
                    c0:61:35:96:16:fe:59:9c:8b:76:6d:d7:f1:a2:4b:
                    0d:2b:ff:0b:72:da:9e:60:d0:8e:90:35:c6:78:55:
                    87:20:a1:cf:e5:6d:0a:c8:49:7c:31:98:33:6c:22:
                    e9:87:d0:32:5a:a2:ba:13:82:11:ed:39:17:9d:99:
                    3a:72:a1:e6:fa:a4:d9:d5:17:31:75:ae:85:7d:22:
                    ae:3f:01:46:86:f6:28:79:c8:b1:da:e4:57:17:c4:
                    7e:1c:0e:b0:b4:92:a6:56:b3:bd:b2:97:ed:aa:a7:
                    f0:b7:c5:a8:3f:95:16:d0:ff:a1:96:eb:08:5f:18:
                    77:4f
                Exponent: 65537 (0x10001)
        X509v3 extensions:
            X509v3 Key Usage: critical
                Digital Signature, Certificate Sign, CRL Sign
            X509v3 Basic Constraints: critical
                CA:TRUE
            X509v3 Subject Key Identifier: 
                45:EB:A2:AF:F4:92:CB:82:31:2D:51:8B:A7:A7:21:9D:F3:6D:C8:0F
            X509v3 Authority Key Identifier: 
                keyid:45:EB:A2:AF:F4:92:CB:82:31:2D:51:8B:A7:A7:21:9D:F3:6D:C8:0F

    Signature Algorithm: sha1WithRSAEncryption
         a2:0e:bc:df:e2:ed:f0:e3:72:73:7a:64:94:bf:f7:72:66:d8:
         32:e4:42:75:62:ae:87:eb:f2:d5:d9:de:56:b3:9f:cc:ce:14:
         28:b9:0d:97:60:5c:12:4c:58:e4:d3:3d:83:49:45:58:97:35:
         69:1a:a8:47:ea:56:c6:79:ab:12:d8:67:81:84:df:7f:09:3c:
         94:e6:b8:26:2c:20:bd:3d:b3:28:89:f7:5f:ff:22:e2:97:84:
         1f:e9:65:ef:87:e0:df:c1:67:49:b3:5d:eb:b2:09:2a:eb:26:
         ed:78:be:7d:3f:2b:f3:b7:26:35:6d:5f:89:01:b6:49:5b:9f:
         01:05:9b:ab:3d:25:c1:cc:b6:7f:c2:f1:6f:86:c6:fa:64:68:
         eb:81:2d:94:eb:42:b7:fa:8c:1e:dd:62:f1:be:50:67:b7:6c:
         bd:f3:f1:1f:6b:0c:36:07:16:7f:37:7c:a9:5b:6d:7a:f1:12:
         46:60:83:d7:27:04:be:4b:ce:97:be:c3:67:2a:68:11:df:80:
         e7:0c:33:66:bf:13:0d:14:6e:f3:7f:1f:63:10:1e:fa:8d:1b:
         25:6d:6c:8f:a5:b7:61:01:b1:d2:a3:26:a1:10:71:9d:ad:e2:
         c3:f9:c3:99:51:b7:2b:07:08:ce:2e:e6:50:b2:a7:fa:0a:45:
         2f:a2:f0:f2
-----BEGIN CERTIFICATE-----
MIIDtzCCAp+gAwIBAgIQDOfg5RfYRv6P5WD8G/AwOTANBgkqhkiG9w0BAQUFADBl
MQswCQYDVQQGEwJVUzEVMBMGA1UEChMMRGlnaUNlcnQgSW5jMRkwFwYDVQQLExB3
d3cuZGlnaWNlcnQuY29tMSQwIgYDVQQDExtEaWdpQ2VydCBBc3N1cmVkIElEIFJv
b3QgQ0EwHhcNMDYxMTEwMDAwMDAwWhcNMzExMTEwMDAwMDAwWjBlMQswCQYDVQQG
EwJVUzEVMBMGA1UEChMMRGlnaUNlcnQgSW5jMRkwFwYDVQQLExB3d3cuZGlnaWNl
cnQuY29tMSQwIgYDVQQDExtEaWdpQ2VydCBBc3N1cmVkIElEIFJvb3QgQ0EwggEi
MA0GCSqGSIb3DQEBAQUAA4IBDwAwggEKAoIBAQCtDhXO5EOAXLGH87dg+XESpa7c
JpSIqvTO9SA5KFhgDPiA2qkVlTJhPLWxKISKityfCgyDF3qPkKyK53lTXDGEKvYP
mDI2dsze3Tyoou9q+yHyUmHfnyDXH+Kx2f4YZNISW1/5WBg1vEfNoTb5a3/UsDg+
wRvDjDPZ2C8Y/igPs6eD1sNuRMBhNZYW/lmci3Zt1/GiSw0r/wty2p5g0I6QNcZ4
VYcgoc/lbQrISXwxmDNsIumH0DJaoroTghHtORedmTpyoeb6pNnVFzF1roV9Iq4/
AUaG9ih5yLHa5FcXxH4cDrC0kqZWs72yl+2qp/C3xag/lRbQ/6GW6whfGHdPAgMB
AAGjYzBhMA4GA1UdDwEB/wQEAwIBhjAPBgNVHRMBAf8EBTADAQH/MB0GA1UdDgQW
BBRF66Kv9JLLgjEtUYunpyGd823IDzAfBgNVHSMEGDAWgBRF66Kv9JLLgjEtUYun
pyGd823IDzANBgkqhkiG9w0BAQUFAAOCAQEAog683+Lt8ONyc3pklL/3cmbYMuRC
dWKuh+vy1dneVrOfzM4UKLkNl2BcEkxY5NM9g0lFWJc1aRqoR+pWxnmrEthngYTf
fwk8lOa4JiwgvT2zKIn3X/8i4peEH+ll74fg38FnSbNd67IJKusm7Xi+fT8r87cm
NW1fiQG2SVufAQWbqz0lwcy2f8Lxb4bG+mRo64EtlOtCt/qMHt1i8b5QZ7dsvfPx
H2sMNgcWfzd8qVttevESRmCD1ycEvkvOl77DZypoEd+A5wwzZr8TDRRu838fYxAe
+o0bJW1sj6W3YQGx0qMmoRBxna3iw/nDmVG3KwcIzi7mULKn+gpFL6Lw8g==
-----END CERTIFICATE-----

Certificate:
    Data:
        Version: 3 (0x2)
        Serial Number:
            04:09:18:1b:5f:d5:bb:66:75:53:43:b5:6f:95:50:08
    Signature Algorithm: sha256WithRSAEncryption
        Issuer: C=US, O=DigiCert Inc, OU=www.digicert.com, CN=DigiCert Assured ID Root CA
        Validity
            Not Before: Oct 22 12:00:00 2013 GMT
            Not After : Oct 22 12:00:00 2028 GMT
        Subject: C=US, O=DigiCert Inc, OU=www.digicert.com, CN=DigiCert SHA2 Assured ID Code Signing CA
        Subject Public Key Info:
            Public Key Algorithm: rsaEncryption
                Public-Key: (2048 bit)
                Modulus:
                    00:f8:d3:b3:1c:7f:0e:11:af:67:77:07:d3:0b:31:
                    49:19:cf:d0:fb:45:99:b1:3a:db:44:f5:7f:e5:a8:
                    9d:db:32:d7:71:ea:76:9d:05:2e:b7:8f:fa:92:43:
                    c0:a5:f9:89:d4:37:19:d7:b6:aa:f0:9c:86:a5:d8:
                    25:ac:0e:79:28:3a:7e:e9:d1:67:d3:c6:fb:29:27:
                    c7:d3:7b:23:94:e4:91:23:96:90:77:82:f9:a1:84:
                    23:66:12:54:33:50:74:b1:28:26:bb:24:69:c2:c2:
                    52:f2:14:67:8a:89:45:d4:2d:a1:a3:e9:88:2c:20:
                    95:ae:1c:4a:87:08:df:0c:f5:e2:4d:60:18:be:aa:
                    c4:b2:ae:70:31:66:33:71:3e:ac:70:a2:ab:ce:7f:
                    e9:7c:cb:92:a1:e5:3b:31:1c:cf:ea:f2:0a:e4:57:
                    bb:4a:b5:e9:74:e6:2b:fe:6c:cb:7e:74:39:36:0d:
                    90:ef:e4:b5:4e:a4:a9:ea:6a:0a:ab:84:f3:ac:67:
                    4e:b5:c4:f7:8c:d1:20:25:23:eb:08:64:3e:52:96:
                    c1:f2:0f:12:f4:c5:8e:0f:c1:a2:e8:2c:51:f7:73:
                    bc:bd:85:b1:62:83:73:41:82:07:e4:38:8b:6a:73:
                    20:d0:0f:64:73:3c:9e:9f:a6:33:a9:fd:19:df:25:
                    93:d1
                Exponent: 65537 (0x10001)
        X509v3 extensions:
            X509v3 Basic Constraints: critical
                CA:TRUE, pathlen:0
            X509v3 Key Usage: critical
                Digital Signature, Certificate Sign, CRL Sign
            X509v3 Extended Key Usage: 
                Code Signing
            Authority Information Access: 
                OCSP - URI:http://ocsp.digicert.com
                CA Issuers - URI:http://cacerts.digicert.com/DigiCertAssuredIDRootCA.crt

            X509v3 CRL Distribution Points: 

                Full Name:
                  URI:http://crl4.digicert.com/DigiCertAssuredIDRootCA.crl

                Full Name:
                  URI:http://crl3.digicert.com/DigiCertAssuredIDRootCA.crl

            X509v3 Certificate Policies: 
                Policy: 2.16.840.1.114412.0.2.4
                  CPS: https://www.digicert.com/CPS
                Policy: 2.16.840.1.114412.3

            X509v3 Subject Key Identifier: 
                5A:C4:B9:7B:2A:0A:A3:A5:EA:71:03:C0:60:F9:2D:F6:65:75:0E:58
            X509v3 Authority Key Identifier: 
                keyid:45:EB:A2:AF:F4:92:CB:82:31:2D:51:8B:A7:A7:21:9D:F3:6D:C8:0F

    Signature Algorithm: sha256WithRSAEncryption
         3e:ec:0d:5a:24:b3:f3:22:d1:15:c8:2c:7c:25:29:76:a8:1d:
         5d:1c:2d:3a:1a:c4:ef:30:61:d7:7e:0b:60:fd:c3:3d:0f:c4:
         af:8b:fd:ef:2a:df:20:55:37:b0:e1:f6:d1:92:75:0f:51:b4:
         6e:a5:8e:5a:e2:5e:24:81:4e:10:a4:ee:3f:71:8e:63:0e:13:
         4b:ad:d7:5f:44:79:f3:36:14:06:8a:f7:9c:46:4e:5c:ff:90:
         b1:1b:07:0e:91:15:fb:ba:af:b5:51:c2:8d:24:ae:24:c6:c7:
         27:2a:a1:29:28:1a:3a:71:28:02:3c:2e:91:a3:c0:25:11:e2:
         9c:14:47:a1:7a:68:68:af:9b:a7:5c:20:5c:d9:71:b1:0c:8f:
         bb:a8:f8:c5:12:68:9f:cf:40:cb:40:44:a5:13:f0:e6:64:0c:
         25:08:42:32:b2:36:8a:24:02:fe:2f:72:7e:1c:d7:49:45:96:
         e8:59:1d:e9:fa:74:64:6b:b2:eb:66:43:da:b3:b0:8c:d5:e9:
         0d:dd:f6:01:20:ce:99:31:63:3d:08:1a:18:b3:81:9b:4f:c6:
         93:10:06:fc:07:81:fa:8b:da:f9:82:49:f7:62:6e:a1:53:fa:
         12:94:18:85:2e:92:91:ea:68:6c:44:32:b2:66:a1:e7:18:a4:
         9a:64:51:ef
-----BEGIN CERTIFICATE-----
MIIFMDCCBBigAwIBAgIQBAkYG1/Vu2Z1U0O1b5VQCDANBgkqhkiG9w0BAQsFADBl
MQswCQYDVQQGEwJVUzEVMBMGA1UEChMMRGlnaUNlcnQgSW5jMRkwFwYDVQQLExB3
d3cuZGlnaWNlcnQuY29tMSQwIgYDVQQDExtEaWdpQ2VydCBBc3N1cmVkIElEIFJv
b3QgQ0EwHhcNMTMxMDIyMTIwMDAwWhcNMjgxMDIyMTIwMDAwWjByMQswCQYDVQQG
EwJVUzEVMBMGA1UEChMMRGlnaUNlcnQgSW5jMRkwFwYDVQQLExB3d3cuZGlnaWNl
cnQuY29tMTEwLwYDVQQDEyhEaWdpQ2VydCBTSEEyIEFzc3VyZWQgSUQgQ29kZSBT
aWduaW5nIENBMIIBIjANBgkqhkiG9w0BAQEFAAOCAQ8AMIIBCgKCAQEA+NOzHH8O
Ea9ndwfTCzFJGc/Q+0WZsTrbRPV/5aid2zLXcep2nQUut4/6kkPApfmJ1DcZ17aq
8JyGpdglrA55KDp+6dFn08b7KSfH03sjlOSRI5aQd4L5oYQjZhJUM1B0sSgmuyRp
wsJS8hRniolF1C2ho+mILCCVrhxKhwjfDPXiTWAYvqrEsq5wMWYzcT6scKKrzn/p
fMuSoeU7MRzP6vIK5Fe7SrXpdOYr/mzLfnQ5Ng2Q7+S1TqSp6moKq4TzrGdOtcT3
jNEgJSPrCGQ+UpbB8g8S9MWOD8Gi6CxR93O8vYWxYoNzQYIH5DiLanMg0A9kczye
n6Yzqf0Z3yWT0QIDAQABo4IBzTCCAckwEgYDVR0TAQH/BAgwBgEB/wIBADAOBgNV
HQ8BAf8EBAMCAYYwEwYDVR0lBAwwCgYIKwYBBQUHAwMweQYIKwYBBQUHAQEEbTBr
MCQGCCsGAQUFBzABhhhodHRwOi8vb2NzcC5kaWdpY2VydC5jb20wQwYIKwYBBQUH
MAKGN2h0dHA6Ly9jYWNlcnRzLmRpZ2ljZXJ0LmNvbS9EaWdpQ2VydEFzc3VyZWRJ
RFJvb3RDQS5jcnQwgYEGA1UdHwR6MHgwOqA4oDaGNGh0dHA6Ly9jcmw0LmRpZ2lj
ZXJ0LmNvbS9EaWdpQ2VydEFzc3VyZWRJRFJvb3RDQS5jcmwwOqA4oDaGNGh0dHA6
Ly9jcmwzLmRpZ2ljZXJ0LmNvbS9EaWdpQ2VydEFzc3VyZWRJRFJvb3RDQS5jcmww
TwYDVR0gBEgwRjA4BgpghkgBhv1sAAIEMCowKAYIKwYBBQUHAgEWHGh0dHBzOi8v
d3d3LmRpZ2ljZXJ0LmNvbS9DUFMwCgYIYIZIAYb9bAMwHQYDVR0OBBYEFFrEuXsq
CqOl6nEDwGD5LfZldQ5YMB8GA1UdIwQYMBaAFEXroq/0ksuCMS1Ri6enIZ3zbcgP
MA0GCSqGSIb3DQEBCwUAA4IBAQA+7A1aJLPzItEVyCx8JSl2qB1dHC06GsTvMGHX
fgtg/cM9D8Svi/3vKt8gVTew4fbRknUPUbRupY5a4l4kgU4QpO4/cY5jDhNLrddf
RHnzNhQGivecRk5c/5CxGwcOkRX7uq+1UcKNJK4kxscnKqEpKBo6cSgCPC6Ro8Al
EeKcFEehemhor5unXCBc2XGxDI+7qPjFEmifz0DLQESlE/DmZAwlCEIysjaKJAL+
L3J+HNdJRZboWR3p+nRka7LrZkPas7CM1ekN3fYBIM6ZMWM9CBoYs4GbT8aTEAb8
B4H6i9r5gkn3Ym6hU/oSlBiFLpKR6mhsRDKyZqHnGKSaZFHv
-----END CERTIFICATE-----

Certificate:
    Data:
        Version: 3 (0x2)
        Serial Number:
            04:00:00:00:00:01:2f:4e:e1:52:d7
    Signature Algorithm: sha1WithRSAEncryption
        Issuer: C=BE, O=GlobalSign nv-sa, OU=Root CA, CN=GlobalSign Root CA
        Validity
            Not Before: Apr 13 10:00:00 2011 GMT
            Not After : Jan 28 12:00:00 2028 GMT
        Subject: C=BE, O=GlobalSign nv-sa, CN=GlobalSign Timestamping CA - G2
        Subject Public Key Info:
            Public Key Algorithm: rsaEncryption
                Public-Key: (2048 bit)
                Modulus:
                    00:94:ef:65:f8:b5:57:9f:a0:53:0d:34:06:eb:09:
                    1f:b7:47:18:6a:cb:f0:5b:e4:ff:27:a5:34:d1:f7:
                    89:1a:bf:9e:b1:cd:12:41:6e:66:d4:81:a0:85:8b:
                    64:5a:46:2f:99:a0:8d:77:b1:e2:bc:5c:dd:22:d7:
                    6a:67:d0:bb:e8:ca:74:de:8b:4f:0d:b0:52:e5:90:
                    5b:eb:47:0e:f1:e7:9f:9c:0b:90:65:3e:17:96:30:
                    45:72:6d:39:a1:17:36:ca:b9:a0:8c:1b:4f:08:19:
                    f6:81:31:ad:61:16:a4:62:e6:b4:40:9e:c3:fc:fb:
                    95:f6:fb:b5:2e:95:81:98:e0:ef:c5:eb:d8:02:59:
                    78:77:f7:aa:e3:52:6b:50:91:29:c5:fc:f7:cd:93:
                    65:d2:60:61:22:f2:06:fb:32:dd:16:51:fa:0e:fd:
                    8a:30:f0:17:09:a7:bb:f3:04:ae:ab:90:e7:6c:df:
                    7a:a9:f4:ef:c4:62:27:5f:6f:99:6d:38:74:aa:11:
                    8b:da:df:c7:14:4c:e9:85:b2:ec:c2:7d:4a:26:8f:
                    e7:56:ba:a6:e0:cf:92:53:80:74:f4:03:ec:68:b2:
                    60:bc:84:20:00:83:1b:a1:ee:b4:74:05:c1:29:8e:
                    62:d0:47:b1:fa:f0:53:cc:18:f9:2e:3b:f9:70:7e:
                    b4:25
                Exponent: 65537 (0x10001)
        X509v3 extensions:
            X509v3 Key Usage: critical
                Certificate Sign, CRL Sign
            X509v3 Basic Constraints: critical
                CA:TRUE, pathlen:0
            X509v3 Subject Key Identifier: 
                46:D8:3E:FF:DC:E3:BE:FF:83:E6:F4:85:9B:B0:DD:6A:D6:14:A9:C1
            X509v3 Certificate Policies: 
                Policy: X509v3 Any Policy
                  CPS: https://www.globalsign.com/repository/

            X509v3 CRL Distribution Points: 

                Full Name:
                  URI:http://crl.globalsign.net/root.crl

            X509v3 Authority Key Identifier: 
                keyid:60:7B:66:1A:45:0D:97:CA:89:50:2F:7D:04:CD:34:A8:FF:FC:FD:4B

    Signature Algorithm: sha1WithRSAEncryption
         4e:5e:56:90:1e:46:b4:d9:49:31:f3:bb:17:39:28:1b:c2:16:
         dd:fd:41:dc:09:05:04:9b:6f:b2:a2:9a:d6:99:2e:40:99:00:
         55:b5:ea:3f:a5:20:76:d3:86:34:d4:17:cc:55:3a:c7:82:ee:
         ef:a8:ba:bc:d8:06:9f:15:50:df:cd:16:7b:52:3a:02:d7:19:
         1a:fd:af:f0:78:5c:e0:4b:c5:18:df:3a:24:1e:da:ac:b8:a9:
         58:04:02:07:30:db:b0:12:5e:fe:31:be:f0:04:48:f4:f0:70:
         f8:3a:5e:56:83:cf:3d:fb:0d:bc:f4:c5:ed:97:9d:b9:d4:db:
         a5:27:84:e3:38:9b:8b:a7:35:86:44:20:a4:3b:6d:a4:6a:0b:
         a1:83:fd:28:eb:da:ef:28:f6:cc:88:5d:fb:0a:3b:00:ab:e0:
         21:eb:e2:2f:35:6c:0f:8e:34:45:97:eb:a2:f7:99:33:35:7e:
         cb:9a:8a:bb:45:4d:e7:3f:9f:c2:d9:8a:fa:65:b2:6e:c7:7e:
         65:ff:e8:92:e1:2c:31:a2:f7:b0:27:36:48:8f:26:6f:3b:ee:
         4d:76:1f:79:c3:e5:7f:96:35:bc:2d:0e:cc:01:b0:8e:7f:ff:
         51:80:80:a7:92:d4:b3:44:46:64:8c:87:4f:16:63:07:31:4b:
         63:b0:df:f3
-----BEGIN CERTIFICATE-----
MIIEFDCCAvygAwIBAgILBAAAAAABL07hUtcwDQYJKoZIhvcNAQEFBQAwVzELMAkG
A1UEBhMCQkUxGTAXBgNVBAoTEEdsb2JhbFNpZ24gbnYtc2ExEDAOBgNVBAsTB1Jv
b3QgQ0ExGzAZBgNVBAMTEkdsb2JhbFNpZ24gUm9vdCBDQTAeFw0xMTA0MTMxMDAw
MDBaFw0yODAxMjgxMjAwMDBaMFIxCzAJBgNVBAYTAkJFMRkwFwYDVQQKExBHbG9i
YWxTaWduIG52LXNhMSgwJgYDVQQDEx9HbG9iYWxTaWduIFRpbWVzdGFtcGluZyBD
QSAtIEcyMIIBIjANBgkqhkiG9w0BAQEFAAOCAQ8AMIIBCgKCAQEAlO9l+LVXn6BT
DTQG6wkft0cYasvwW+T/J6U00feJGr+esc0SQW5m1IGghYtkWkYvmaCNd7HivFzd
ItdqZ9C76Mp03otPDbBS5ZBb60cO8eefnAuQZT4XljBFcm05oRc2yrmgjBtPCBn2
gTGtYRakYua0QJ7D/PuV9vu1LpWBmODvxevYAll4d/eq41JrUJEpxfz3zZNl0mBh
IvIG+zLdFlH6Dv2KMPAXCae78wSuq5DnbN96qfTvxGInX2+ZbTh0qhGL2t/HFEzp
hbLswn1KJo/nVrqm4M+SU4B09APsaLJgvIQgAIMboe60dAXBKY5i0Eex+vBTzBj5
Ljv5cH60JQIDAQABo4HlMIHiMA4GA1UdDwEB/wQEAwIBBjASBgNVHRMBAf8ECDAG
AQH/AgEAMB0GA1UdDgQWBBRG2D7/3OO+/4Pm9IWbsN1q1hSpwTBHBgNVHSAEQDA+
MDwGBFUdIAAwNDAyBggrBgEFBQcCARYmaHR0cHM6Ly93d3cuZ2xvYmFsc2lnbi5j
b20vcmVwb3NpdG9yeS8wMwYDVR0fBCwwKjAooCagJIYiaHR0cDovL2NybC5nbG9i
YWxzaWduLm5ldC9yb290LmNybDAfBgNVHSMEGDAWgBRge2YaRQ2XyolQL30EzTSo
//z9SzANBgkqhkiG9w0BAQUFAAOCAQEATl5WkB5GtNlJMfO7FzkoG8IW3f1B3AkF
BJtvsqKa1pkuQJkAVbXqP6UgdtOGNNQXzFU6x4Lu76i6vNgGnxVQ380We1I6AtcZ
Gv2v8Hhc4EvFGN86JB7arLipWAQCBzDbsBJe/jG+8ARI9PBw+DpeVoPPPfsNvPTF
7ZedudTbpSeE4zibi6c1hkQgpDttpGoLoYP9KOva7yj2zIhd+wo7AKvgIeviLzVs
D440RZfroveZMzV+y5qKu0VN5z+fwtmK+mWybsd+Zf/okuEsMaL3sCc2SI8mbzvu
TXYfecPlf5Y1vC0OzAGwjn//UYCAp5LUs0RGZIyHTxZjBzFLY7Df8w==
-----END CERTIFICATE-----

Certificate:
    Data:
        Version: 3 (0x2)
        Serial Number:
            11:21:06:a0:81:d3:3f:d8:7a:e5:82:4c:c1:6b:52:09:4e:03
    Signature Algorithm: sha1WithRSAEncryption
        Issuer: C=BE, O=GlobalSign nv-sa, CN=GlobalSign Timestamping CA - G2
        Validity
            Not Before: Feb  3 00:00:00 2015 GMT
            Not After : Mar  3 00:00:00 2026 GMT
        Subject: C=SG, O=GMO GlobalSign Pte Ltd, CN=GlobalSign TSA for MS Authenticode - G2
        Subject Public Key Info:
            Public Key Algorithm: rsaEncryption
                Public-Key: (2048 bit)
                Modulus:
                    00:b0:17:ae:a2:d3:b6:04:30:56:1e:58:0f:b1:ed:
                    55:a4:d6:54:cb:d8:f6:73:3a:ec:5d:5e:ab:25:fd:
                    36:a5:fa:84:c3:61:40:c5:46:b5:59:52:3b:42:a2:
                    2e:5f:13:62:10:a9:5b:e6:73:d6:92:25:b1:7d:23:
                    e3:06:b3:87:3a:0e:43:f0:d7:00:89:53:a2:11:31:
                    52:28:6e:5d:40:72:3c:f2:09:77:a7:49:92:97:d4:
                    6c:90:a0:76:a7:fd:b8:dc:b3:9d:f2:07:60:2c:4f:
                    58:98:00:6b:d3:15:54:e0:fa:dd:ff:80:2c:5f:18:
                    a6:98:ff:d4:ab:ec:a1:45:59:b2:2e:6f:62:5d:e0:
                    d9:19:ac:8b:57:9c:a8:26:2b:d9:17:a5:10:d2:47:
                    08:1a:70:2c:33:8b:7f:68:80:2a:b5:a1:5d:6b:dd:
                    8d:02:02:29:03:aa:7c:37:bb:bb:29:4e:3d:53:93:
                    b3:a6:fa:8f:d2:58:93:15:4c:b9:2d:ab:80:a3:a3:
                    25:fb:af:f7:08:64:b0:7a:44:0f:5c:10:d7:5f:61:
                    37:aa:4e:6b:d3:d2:53:25:9d:82:73:fa:2c:f9:72:
                    b0:a9:19:39:2a:50:fa:a9:d0:3c:3a:ca:e8:5b:ef:
                    f5:5f:51:f4:f9:0a:d9:97:35:de:6a:85:e6:23:04:
                    42:af
                Exponent: 65537 (0x10001)
        X509v3 extensions:
            X509v3 Key Usage: critical
                Digital Signature
            X509v3 Certificate Policies: 
                Policy: 1.3.6.1.4.1.4146.1.30
                  CPS: https://www.globalsign.com/repository/

            X509v3 Basic Constraints: 
                CA:FALSE
            X509v3 Extended Key Usage: critical
                Time Stamping
            X509v3 CRL Distribution Points: 

                Full Name:
                  URI:http://crl.globalsign.com/gs/gstimestampingg2.crl

            Authority Information Access: 
                CA Issuers - URI:http://secure.globalsign.com/cacert/gstimestampingg2.crt

            X509v3 Subject Key Identifier: 
                D4:A2:84:4A:38:5A:18:7F:BA:4F:30:50:BD:9D:D5:7A:87:D6:09:F7
            X509v3 Authority Key Identifier: 
                keyid:46:D8:3E:FF:DC:E3:BE:FF:83:E6:F4:85:9B:B0:DD:6A:D6:14:A9:C1

    Signature Algorithm: sha1WithRSAEncryption
         80:32:dc:07:8d:1c:a0:9c:9d:3c:2a:e8:3d:21:8b:59:a1:4d:
         7e:cc:44:ce:03:be:7e:aa:bc:c4:e6:7b:73:bb:4b:f1:88:da:
         90:4e:75:37:28:38:63:b9:d7:2b:0f:54:a9:56:ce:77:39:97:
         30:73:cd:9b:d9:d9:05:45:1c:8d:a4:b8:03:5d:4f:d9:1c:2e:
         98:e0:e9:88:e6:ec:d7:05:7e:56:2a:7b:f7:16:5b:a3:ad:8f:
         97:25:12:84:1b:b2:5c:63:4a:0a:d2:ef:10:54:47:82:84:35:
         69:28:9c:0c:e4:1f:14:16:24:fa:75:dc:74:72:6e:4e:ca:e3:
         6a:43:af:cf:7d:36:48:d1:bd:e9:06:91:2c:2f:a6:c8:71:fd:
         cf:bd:d8:9d:21:98:fc:af:db:de:22:8c:af:a7:f3:77:ef:9d:
         dc:a3:70:4b:44:1a:f0:78:85:1e:f2:a5:8c:39:b5:dc:88:1c:
         37:ed:ad:14:f5:07:0b:26:bd:be:6d:02:5e:b1:b8:b0:58:6c:
         85:3a:0d:f6:ff:5a:27:0c:c5:de:53:e7:54:3c:56:4c:c9:4e:
         4c:30:f6:f2:5c:fb:1a:8c:c2:82:be:ad:59:91:f6:1b:4d:55:
         7b:cf:5b:01:dc:fd:7a:d3:6f:23:5c:32:47:9b:01:f3:c1:51:
         14:46:8a:9b
-----BEGIN CERTIFICATE-----
MIIEnzCCA4egAwIBAgISESEGoIHTP9h65YJMwWtSCU4DMA0GCSqGSIb3DQEBBQUA
MFIxCzAJBgNVBAYTAkJFMRkwFwYDVQQKExBHbG9iYWxTaWduIG52LXNhMSgwJgYD
VQQDEx9HbG9iYWxTaWduIFRpbWVzdGFtcGluZyBDQSAtIEcyMB4XDTE1MDIwMzAw
MDAwMFoXDTI2MDMwMzAwMDAwMFowYDELMAkGA1UEBhMCU0cxHzAdBgNVBAoTFkdN
TyBHbG9iYWxTaWduIFB0ZSBMdGQxMDAuBgNVBAMTJ0dsb2JhbFNpZ24gVFNBIGZv
ciBNUyBBdXRoZW50aWNvZGUgLSBHMjCCASIwDQYJKoZIhvcNAQEBBQADggEPADCC
AQoCggEBALAXrqLTtgQwVh5YD7HtVaTWVMvY9nM67F1eqyX9NqX6hMNhQMVGtVlS
O0KiLl8TYhCpW+Zz1pIlsX0j4wazhzoOQ/DXAIlTohExUihuXUByPPIJd6dJkpfU
bJCgdqf9uNyznfIHYCxPWJgAa9MVVOD63f+ALF8Yppj/1KvsoUVZsi5vYl3g2Rms
i1ecqCYr2RelENJHCBpwLDOLf2iAKrWhXWvdjQICKQOqfDe7uylOPVOTs6b6j9JY
kxVMuS2rgKOjJfuv9whksHpED1wQ119hN6pOa9PSUyWdgnP6LPlysKkZOSpQ+qnQ
PDrK6Fvv9V9R9PkK2Zc13mqF5iMEQq8CAwEAAaOCAV8wggFbMA4GA1UdDwEB/wQE
AwIHgDBMBgNVHSAERTBDMEEGCSsGAQQBoDIBHjA0MDIGCCsGAQUFBwIBFiZodHRw
czovL3d3dy5nbG9iYWxzaWduLmNvbS9yZXBvc2l0b3J5LzAJBgNVHRMEAjAAMBYG
A1UdJQEB/wQMMAoGCCsGAQUFBwMIMEIGA1UdHwQ7MDkwN6A1oDOGMWh0dHA6Ly9j
cmwuZ2xvYmFsc2lnbi5jb20vZ3MvZ3N0aW1lc3RhbXBpbmdnMi5jcmwwVAYIKwYB
BQUHAQEESDBGMEQGCCsGAQUFBzAChjhodHRwOi8vc2VjdXJlLmdsb2JhbHNpZ24u
Y29tL2NhY2VydC9nc3RpbWVzdGFtcGluZ2cyLmNydDAdBgNVHQ4EFgQU1KKESjha
GH+6TzBQvZ3VeofWCfcwHwYDVR0jBBgwFoAURtg+/9zjvv+D5vSFm7DdatYUqcEw
DQYJKoZIhvcNAQEFBQADggEBAIAy3AeNHKCcnTwq6D0hi1mhTX7MRM4Dvn6qvMTm
e3O7S/GI2pBOdTcoOGO51ysPVKlWznc5lzBzzZvZ2QVFHI2kuANdT9kcLpjg6Yjm
7NcFflYqe/cWW6Otj5clEoQbslxjSgrS7xBUR4KENWkonAzkHxQWJPp13HRybk7K
42pDr899NkjRvekGkSwvpshx/c+92J0hmPyv294ijK+n83fvndyjcEtEGvB4hR7y
pYw5tdyIHDftrRT1Bwsmvb5tAl6xuLBYbIU6Dfb/WicMxd5T51Q8VkzJTkww9vJc
+xqMwoK+rVmR9htNVXvPWwHc/XrTbyNcMkebAfPBURRGips=
-----END CERTIFICATE-----

