Certificate:
    Data:
        Version: 3 (0x2)
        Serial Number:
            31:5b:47:d3:7a:76:91:6e:33:e3:3a:d5:9f:6c:52:c6
    Signature Algorithm: sha1WithRSAEncryption
        Issuer: C=CN, O=WoSign CA Limited, CN=WoSign Class 3 Code Signing CA
        Validity
            Not Before: May  5 05:33:52 2016 GMT
            Not After : Jun  5 05:33:52 2019 GMT
        Subject: C=CN, ST=\xE5\x9B\x9B\xE5\xB7\x9D\xE7\x9C\x81, L=\xE6\x88\x90\xE9\x83\xBD\xE5\xB8\x82, O=\xE5\x9B\x9B\xE5\xB7\x9D\xE8\xBF\x85\xE6\xB8\xB8\xE7\xBD\x91\xE7\xBB\x9C\xE7\xA7\x91\xE6\x8A\x80\xE8\x82\xA1\xE4\xBB\xBD\xE6\x9C\x89\xE9\x99\x90\xE5\x85\xAC\xE5\x8F\xB8/emailAddress=tech@xunyou.com, CN=\xE5\x9B\x9B\xE5\xB7\x9D\xE8\xBF\x85\xE6\xB8\xB8\xE7\xBD\x91\xE7\xBB\x9C\xE7\xA7\x91\xE6\x8A\x80\xE8\x82\xA1\xE4\xBB\xBD\xE6\x9C\x89\xE9\x99\x90\xE5\x85\xAC\xE5\x8F\xB8
        Subject Public Key Info:
            Public Key Algorithm: rsaEncryption
                Public-Key: (2048 bit)
                Modulus:
                    00:a9:cb:9e:5e:96:6f:c0:38:f5:5c:3d:ad:9f:0d:
                    2d:f4:44:d9:30:3e:76:47:fa:51:ed:a1:e4:d8:99:
                    18:47:4c:19:76:a4:75:49:dc:ef:67:c7:5e:c6:4a:
                    4a:4c:86:65:a7:56:b4:11:6a:70:18:41:5f:b0:52:
                    18:df:a6:00:fc:f9:fc:15:ec:03:1f:c8:eb:1f:7c:
                    14:2e:c7:d0:c0:43:61:f7:c4:18:a3:6a:3d:d2:40:
                    2b:83:03:1d:f5:3b:ff:0c:e1:bc:e2:5f:55:0c:03:
                    e3:ca:be:ac:6c:a1:88:1a:88:04:59:d2:cc:7c:84:
                    e3:c2:6b:2e:52:5d:27:15:97:cf:2b:25:28:3a:87:
                    fa:c3:e7:e1:14:91:5d:7c:d1:91:9f:48:f8:8e:10:
                    cd:e2:e1:92:0d:f7:93:27:57:27:3e:3d:61:1c:84:
                    15:9e:3b:b4:f4:0f:6b:cb:ee:cd:bb:d5:18:ec:e8:
                    fa:c7:01:e6:45:95:b6:be:69:de:6f:a1:95:55:78:
                    6d:56:44:7f:ad:bc:2a:42:b1:cd:26:98:54:55:73:
                    eb:d7:55:2b:1d:68:a5:da:ca:95:ff:ba:67:3e:8f:
                    58:e9:41:8a:16:db:d3:1a:21:3b:4a:55:1f:b7:2f:
                    8d:de:ad:7e:5b:e8:01:1d:e0:55:9f:76:97:f8:3f:
                    db:f1
                Exponent: 65537 (0x10001)
        X509v3 extensions:
            X509v3 Key Usage: critical
                Digital Signature
            X509v3 Extended Key Usage: 
                Code Signing, 1.3.6.1.4.1.311.61.1.1
            X509v3 Basic Constraints: 
                CA:FALSE
            X509v3 Subject Key Identifier: 
                F5:CB:3E:27:49:83:C4:A5:32:8E:94:C0:AB:B3:6A:BF:AF:8C:25:D0
            X509v3 Authority Key Identifier: 
                keyid:F5:02:AA:4B:D3:E0:1A:8E:77:50:D6:1A:BB:EB:DF:B9:83:70:B0:4E

            Authority Information Access: 
                OCSP - URI:http://ocsp1.wosign.com/class3/code/ca1
                CA Issuers - URI:http://aia1.wosign.com/class3.code.ca1.cer

            X509v3 CRL Distribution Points: 

                Full Name:
                  URI:http://crls1.wosign.com/ca1-code-3.crl

            X509v3 Certificate Policies: 
                Policy: 2.23.140.1.4.1
                Policy: 1.3.6.1.4.1.36305.1.1.2
                  CPS: http://www.wosign.com/policy/

    Signature Algorithm: sha1WithRSAEncryption
         57:80:b9:b7:d9:b1:3f:a8:68:82:87:ca:ca:c4:ef:b3:ea:70:
         e6:cd:dd:b8:d7:45:f2:31:3d:3b:55:27:b5:5b:45:64:ed:d4:
         6f:b7:dc:f0:d3:bb:b8:b1:c8:3e:84:77:fb:a3:cc:bc:62:b6:
         de:0e:f1:8e:c2:71:9f:d4:fa:f9:07:d7:6b:91:33:f7:0c:e1:
         41:80:5f:f1:0c:12:23:c7:f9:76:ed:0e:a2:c6:29:15:de:e2:
         4e:4b:06:76:90:0a:68:73:a8:84:15:84:7b:e2:a7:a2:d1:6a:
         d8:d9:95:0b:17:31:fe:b5:b8:06:0d:5c:76:c7:cf:80:61:fc:
         db:3e:0e:97:0b:af:54:08:94:ca:09:53:fc:20:b0:98:6e:7b:
         96:f7:8a:04:e1:7a:86:7a:6c:ab:6a:d2:e1:72:f9:85:95:f7:
         ff:4f:82:8c:30:7c:b6:5e:11:48:e9:36:1b:35:54:f9:c9:8e:
         da:b9:4e:31:ef:cf:a5:ce:e0:d1:9d:78:dd:2e:dc:f4:2b:94:
         b5:a0:7e:50:9d:3b:0c:11:8e:3d:7a:13:a3:95:0a:ac:51:17:
         d6:b8:31:35:8c:b7:40:84:b1:05:e8:ab:4f:1a:ce:38:35:fb:
         bb:2e:70:66:04:ce:c3:7e:08:53:39:da:5b:1d:17:b7:a7:3f:
         76:90:db:b3
-----BEGIN CERTIFICATE-----
MIIFJTCCBA2gAwIBAgIQMVtH03p2kW4z4zrVn2xSxjANBgkqhkiG9w0BAQUFADBS
MQswCQYDVQQGEwJDTjEaMBgGA1UEChMRV29TaWduIENBIExpbWl0ZWQxJzAlBgNV
BAMTHldvU2lnbiBDbGFzcyAzIENvZGUgU2lnbmluZyBDQTAeFw0xNjA1MDUwNTMz
NTJaFw0xOTA2MDUwNTMzNTJaMIG/MQswCQYDVQQGEwJDTjESMBAGA1UECAwJ5Zub
5bed55yBMRIwEAYDVQQHDAnmiJDpg73luIIxMzAxBgNVBAoMKuWbm+W3nei/hea4
uOe9kee7nOenkeaKgOiCoeS7veaciemZkOWFrOWPuDEeMBwGCSqGSIb3DQEJARYP
dGVjaEB4dW55b3UuY29tMTMwMQYDVQQDDCrlm5vlt53ov4XmuLjnvZHnu5znp5Hm
ioDogqHku73mnInpmZDlhazlj7gwggEiMA0GCSqGSIb3DQEBAQUAA4IBDwAwggEK
AoIBAQCpy55elm/AOPVcPa2fDS30RNkwPnZH+lHtoeTYmRhHTBl2pHVJ3O9nx17G
SkpMhmWnVrQRanAYQV+wUhjfpgD8+fwV7AMfyOsffBQux9DAQ2H3xBijaj3SQCuD
Ax31O/8M4bziX1UMA+PKvqxsoYgaiARZ0sx8hOPCay5SXScVl88rJSg6h/rD5+EU
kV180ZGfSPiOEM3i4ZIN95MnVyc+PWEchBWeO7T0D2vL7s271Rjs6PrHAeZFlba+
ad5voZVVeG1WRH+tvCpCsc0mmFRVc+vXVSsdaKXaypX/umc+j1jpQYoW29MaITtK
VR+3L43erX5b6AEd4FWfdpf4P9vxAgMBAAGjggGHMIIBgzAOBgNVHQ8BAf8EBAMC
B4AwHwYDVR0lBBgwFgYIKwYBBQUHAwMGCisGAQQBgjc9AQEwCQYDVR0TBAIwADAd
BgNVHQ4EFgQU9cs+J0mDxKUyjpTAq7Nqv6+MJdAwHwYDVR0jBBgwFoAU9QKqS9Pg
Go53UNYau+vfuYNwsE4wewYIKwYBBQUHAQEEbzBtMDMGCCsGAQUFBzABhidodHRw
Oi8vb2NzcDEud29zaWduLmNvbS9jbGFzczMvY29kZS9jYTEwNgYIKwYBBQUHMAKG
Kmh0dHA6Ly9haWExLndvc2lnbi5jb20vY2xhc3MzLmNvZGUuY2ExLmNlcjA3BgNV
HR8EMDAuMCygKqAohiZodHRwOi8vY3JsczEud29zaWduLmNvbS9jYTEtY29kZS0z
LmNybDBPBgNVHSAESDBGMAgGBmeBDAEEATA6BgsrBgEEAYKbUQEBAjArMCkGCCsG
AQUFBwIBFh1odHRwOi8vd3d3Lndvc2lnbi5jb20vcG9saWN5LzANBgkqhkiG9w0B
AQUFAAOCAQEAV4C5t9mxP6hogofKysTvs+pw5s3duNdF8jE9O1UntVtFZO3Ub7fc
8NO7uLHIPoR3+6PMvGK23g7xjsJxn9T6+QfXa5Ez9wzhQYBf8QwSI8f5du0OosYp
Fd7iTksGdpAKaHOohBWEe+KnotFq2NmVCxcx/rW4Bg1cdsfPgGH82z4OlwuvVAiU
yglT/CCwmG57lveKBOF6hnpsq2rS4XL5hZX3/0+CjDB8tl4RSOk2GzVU+cmO2rlO
Me/Ppc7g0Z143S7c9CuUtaB+UJ07DBGOPXoTo5UKrFEX1rgxNYy3QISxBeirTxrO
ODX7uy5wZgTOw34IUznaWx0Xt6c/dpDbsw==
-----END CERTIFICATE-----

Certificate:
    Data:
        Version: 3 (0x2)
        Serial Number: 426637479 (0x196df8a7)
    Signature Algorithm: sha1WithRSAEncryption
        Issuer: C=CN, O=WoSign eCommerce Services Limited, CN=Certification Authority of WoSign
        Validity
            Not Before: Aug  8 01:00:01 2012 GMT
            Not After : Aug  8 01:00:01 2027 GMT
        Subject: C=CN, O=WoSign eCommerce Services Limited, CN=WoSign Class 3 Code Signing CA
        Subject Public Key Info:
            Public Key Algorithm: rsaEncryption
                Public-Key: (2048 bit)
                Modulus:
                    00:d1:49:a4:48:63:b9:dd:28:60:6a:d9:17:0d:01:
                    c0:b2:58:86:4e:26:08:44:af:5f:37:84:25:44:45:
                    65:33:46:a3:8a:9f:f6:99:51:ce:d9:43:a4:7a:0e:
                    d6:f1:bf:91:24:ca:d4:24:11:01:5d:a3:3f:f3:d4:
                    9d:6f:d6:99:b1:89:ce:6a:c1:65:a1:f0:df:a3:3a:
                    93:90:80:21:2c:ba:2e:c1:67:31:1e:6b:55:38:85:
                    a8:50:47:6a:49:c4:a5:0b:0c:4b:39:35:8f:80:9d:
                    95:8c:e2:0d:63:55:6d:d6:8d:c4:3e:99:31:03:ea:
                    42:00:1c:b0:16:61:36:80:f5:df:65:3f:e2:9f:8e:
                    ec:3d:49:1b:36:e8:ea:93:d9:83:35:46:18:a5:a4:
                    16:5e:34:68:71:b7:61:5b:3a:5e:40:e2:7f:c8:e6:
                    05:85:8d:c6:db:21:ca:20:3e:2d:00:15:55:8a:7a:
                    ca:dc:90:0a:5a:92:06:90:06:d6:6c:04:2c:8c:d5:
                    9b:0e:b2:d4:a7:e3:30:bf:4e:b8:67:c1:69:c6:70:
                    34:46:6c:66:ab:f2:ff:5f:35:da:13:3f:79:19:19:
                    99:c2:3f:57:db:5a:40:fd:53:bd:08:63:d7:c9:79:
                    cf:d3:b4:a2:09:e0:3f:55:c1:2b:1b:9f:37:fb:e1:
                    b3:ad
                Exponent: 65537 (0x10001)
        X509v3 extensions:
            X509v3 Basic Constraints: critical
                CA:TRUE, pathlen:0
            X509v3 Key Usage: critical
                Certificate Sign, CRL Sign
            X509v3 Subject Key Identifier: 
                F5:02:AA:4B:D3:E0:1A:8E:77:50:D6:1A:BB:EB:DF:B9:83:70:B0:4E
            X509v3 Authority Key Identifier: 
                keyid:E1:66:CF:0E:D1:F1:B3:4B:B7:06:20:14:FE:87:12:D5:F6:FE:FB:3E

            Authority Information Access: 
                OCSP - URI:http://ocsp.wosign.com/ca
                CA Issuers - URI:http://aia.wosign.com/class3-code.cer

            X509v3 CRL Distribution Points: 

                Full Name:
                  URI:http://crls.wosign.com/ca.crl

            X509v3 Certificate Policies: 
                Policy: 1.3.6.1.4.1.36305.1.1.0
                  CPS: http://www.wosign.com/policy/

    Signature Algorithm: sha1WithRSAEncryption
         86:e8:28:c9:b2:85:04:10:1c:44:4a:ea:63:78:84:4a:4e:0f:
         2e:c7:1f:c3:43:af:70:74:20:b0:40:94:e0:79:4c:4d:d7:ae:
         92:e9:1b:56:7e:55:ce:b8:11:57:13:db:a7:c2:98:70:41:f2:
         f8:df:93:b9:90:5f:df:9b:b9:11:57:d6:2b:a3:c9:bc:95:5c:
         74:02:59:51:63:73:dc:dd:9e:06:fd:1f:23:32:59:d8:39:9c:
         e1:39:e3:44:da:f6:17:9d:cc:8d:fb:41:34:53:ff:42:97:60:
         0f:67:21:e4:c6:94:e2:38:fb:4f:e8:05:32:0f:25:a6:c2:ea:
         44:ff:7c:2c:7a:cc:7d:59:97:d0:2d:85:5f:ab:54:79:0d:cd:
         57:b4:47:ae:72:07:30:1c:d5:d9:69:c8:f7:c4:9f:a4:bd:24:
         05:f2:0b:95:b8:b4:05:41:29:ff:ca:bd:c3:17:12:93:81:50:
         c3:e0:b0:5d:59:fa:6e:b5:58:6e:cd:10:6b:da:96:34:0d:8b:
         17:38:cd:0f:3f:1f:91:07:c1:d1:a8:5a:4a:e8:64:c6:f0:88:
         c8:60:9e:c8:e8:ba:fc:cb:c1:d8:0a:94:bc:fc:07:3c:98:10:
         94:bd:b3:ee:3f:ab:d4:4b:e1:ba:a3:ac:37:3e:22:76:c3:92:
         80:8b:49:77:9c:36:30:88:59:7c:15:3d:e9:24:28:ba:05:26:
         fe:9f:68:0c:c6:a9:e8:3b:1b:f8:79:00:1d:f4:24:70:48:88:
         d1:0a:ed:a2:f2:b7:c3:d4:c5:86:14:53:62:8a:b4:ec:81:b4:
         ab:d3:81:98:95:54:e9:80:60:8f:20:ce:c7:bf:e3:24:7c:20:
         34:58:f0:7f:2e:75:87:b9:14:72:9b:67:a6:67:2b:2f:02:a3:
         48:5d:10:95:07:b7:2a:d5:67:e5:4f:11:43:4e:8b:c1:45:fe:
         ec:f4:ab:15:1b:a2:72:ab:74:ac:f7:c2:12:12:18:b5:6c:dd:
         a1:f5:62:00:26:0c:c5:44:8e:14:40:81:c8:01:d7:5a:50:e8:
         61:04:85:55:69:5b:80:88:8c:d5:d6:68:d0:a0:4c:93:2b:c8:
         4e:da:8a:87:8c:64:09:12:a7:1d:e9:15:33:a6:63:fb:eb:66:
         2d:b5:95:2c:e4:f1:6f:bf:e8:06:58:dc:95:f6:88:21:12:43:
         a6:36:58:cf:13:3a:70:8e:72:0f:d8:a2:2f:68:ae:c9:ab:ea:
         b0:08:7b:de:f8:14:1b:79:bf:4c:ef:24:16:c9:d6:26:31:cc:
         11:a3:6f:5d:6d:a6:75:d1:43:57:71:c2:0f:bb:14:63:1c:3c:
         7b:90:1a:5a:c2:f8:28:21
-----BEGIN CERTIFICATE-----
MIIFkDCCA3igAwIBAgIEGW34pzANBgkqhkiG9w0BAQUFADBlMQswCQYDVQQGEwJD
TjEqMCgGA1UEChMhV29TaWduIGVDb21tZXJjZSBTZXJ2aWNlcyBMaW1pdGVkMSow
KAYDVQQDEyFDZXJ0aWZpY2F0aW9uIEF1dGhvcml0eSBvZiBXb1NpZ24wHhcNMTIw
ODA4MDEwMDAxWhcNMjcwODA4MDEwMDAxWjBiMQswCQYDVQQGEwJDTjEqMCgGA1UE
ChMhV29TaWduIGVDb21tZXJjZSBTZXJ2aWNlcyBMaW1pdGVkMScwJQYDVQQDEx5X
b1NpZ24gQ2xhc3MgMyBDb2RlIFNpZ25pbmcgQ0EwggEiMA0GCSqGSIb3DQEBAQUA
A4IBDwAwggEKAoIBAQDRSaRIY7ndKGBq2RcNAcCyWIZOJghEr183hCVERWUzRqOK
n/aZUc7ZQ6R6Dtbxv5EkytQkEQFdoz/z1J1v1pmxic5qwWWh8N+jOpOQgCEsui7B
ZzEea1U4hahQR2pJxKULDEs5NY+AnZWM4g1jVW3WjcQ+mTED6kIAHLAWYTaA9d9l
P+Kfjuw9SRs26OqT2YM1RhilpBZeNGhxt2FbOl5A4n/I5gWFjcbbIcogPi0AFVWK
esrckApakgaQBtZsBCyM1ZsOstSn4zC/TrhnwWnGcDRGbGar8v9fNdoTP3kZGZnC
P1fbWkD9U70IY9fJec/TtKIJ4D9VwSsbnzf74bOtAgMBAAGjggFJMIIBRTASBgNV
HRMBAf8ECDAGAQH/AgEAMA4GA1UdDwEB/wQEAwIBBjAdBgNVHQ4EFgQU9QKqS9Pg
Go53UNYau+vfuYNwsE4wHwYDVR0jBBgwFoAU4WbPDtHxs0u3BiAU/ocS1fb++z4w
aAYIKwYBBQUHAQEEXDBaMCUGCCsGAQUFBzABhhlodHRwOi8vb2NzcC53b3NpZ24u
Y29tL2NhMDEGCCsGAQUFBzAChiVodHRwOi8vYWlhLndvc2lnbi5jb20vY2xhc3Mz
LWNvZGUuY2VyMC4GA1UdHwQnMCUwI6AhoB+GHWh0dHA6Ly9jcmxzLndvc2lnbi5j
b20vY2EuY3JsMEUGA1UdIAQ+MDwwOgYLKwYBBAGCm1EBAQAwKzApBggrBgEFBQcC
ARYdaHR0cDovL3d3dy53b3NpZ24uY29tL3BvbGljeS8wDQYJKoZIhvcNAQEFBQAD
ggIBAIboKMmyhQQQHERK6mN4hEpODy7HH8NDr3B0ILBAlOB5TE3XrpLpG1Z+Vc64
EVcT26fCmHBB8vjfk7mQX9+buRFX1iujybyVXHQCWVFjc9zdngb9HyMyWdg5nOE5
40Ta9hedzI37QTRT/0KXYA9nIeTGlOI4+0/oBTIPJabC6kT/fCx6zH1Zl9AthV+r
VHkNzVe0R65yBzAc1dlpyPfEn6S9JAXyC5W4tAVBKf/KvcMXEpOBUMPgsF1Z+m61
WG7NEGvaljQNixc4zQ8/H5EHwdGoWkroZMbwiMhgnsjouvzLwdgKlLz8BzyYEJS9
s+4/q9RL4bqjrDc+InbDkoCLSXecNjCIWXwVPekkKLoFJv6faAzGqeg7G/h5AB30
JHBIiNEK7aLyt8PUxYYUU2KKtOyBtKvTgZiVVOmAYI8gzse/4yR8IDRY8H8udYe5
FHKbZ6ZnKy8Co0hdEJUHtyrVZ+VPEUNOi8FF/uz0qxUbonKrdKz3whISGLVs3aH1
YgAmDMVEjhRAgcgB11pQ6GEEhVVpW4CIjNXWaNCgTJMryE7aioeMZAkSpx3pFTOm
Y/vrZi21lSzk8W+/6AZY3JX2iCESQ6Y2WM8TOnCOcg/Yoi9orsmr6rAIe974FBt5
v0zvJBbJ1iYxzBGjb11tpnXRQ1dxwg+7FGMcPHuQGlrC+Cgh
-----END CERTIFICATE-----

