Certificate:
    Data:
        Version: 3 (0x2)
        Serial Number:
            04:00:00:00:00:01:2f:4e:e1:52:d7
    Signature Algorithm: sha1WithRSAEncryption
        Issuer: C=BE, O=GlobalSign nv-sa, OU=Root CA, CN=GlobalSign Root CA
        Validity
            Not Before: Apr 13 10:00:00 2011 GMT
            Not After : Jan 28 12:00:00 2028 GMT
        Subject: C=BE, O=GlobalSign nv-sa, CN=GlobalSign Timestamping CA - G2
        Subject Public Key Info:
            Public Key Algorithm: rsaEncryption
                Public-Key: (2048 bit)
                Modulus:
                    00:94:ef:65:f8:b5:57:9f:a0:53:0d:34:06:eb:09:
                    1f:b7:47:18:6a:cb:f0:5b:e4:ff:27:a5:34:d1:f7:
                    89:1a:bf:9e:b1:cd:12:41:6e:66:d4:81:a0:85:8b:
                    64:5a:46:2f:99:a0:8d:77:b1:e2:bc:5c:dd:22:d7:
                    6a:67:d0:bb:e8:ca:74:de:8b:4f:0d:b0:52:e5:90:
                    5b:eb:47:0e:f1:e7:9f:9c:0b:90:65:3e:17:96:30:
                    45:72:6d:39:a1:17:36:ca:b9:a0:8c:1b:4f:08:19:
                    f6:81:31:ad:61:16:a4:62:e6:b4:40:9e:c3:fc:fb:
                    95:f6:fb:b5:2e:95:81:98:e0:ef:c5:eb:d8:02:59:
                    78:77:f7:aa:e3:52:6b:50:91:29:c5:fc:f7:cd:93:
                    65:d2:60:61:22:f2:06:fb:32:dd:16:51:fa:0e:fd:
                    8a:30:f0:17:09:a7:bb:f3:04:ae:ab:90:e7:6c:df:
                    7a:a9:f4:ef:c4:62:27:5f:6f:99:6d:38:74:aa:11:
                    8b:da:df:c7:14:4c:e9:85:b2:ec:c2:7d:4a:26:8f:
                    e7:56:ba:a6:e0:cf:92:53:80:74:f4:03:ec:68:b2:
                    60:bc:84:20:00:83:1b:a1:ee:b4:74:05:c1:29:8e:
                    62:d0:47:b1:fa:f0:53:cc:18:f9:2e:3b:f9:70:7e:
                    b4:25
                Exponent: 65537 (0x10001)
        X509v3 extensions:
            X509v3 Key Usage: critical
                Certificate Sign, CRL Sign
            X509v3 Basic Constraints: critical
                CA:TRUE, pathlen:0
            X509v3 Subject Key Identifier: 
                46:D8:3E:FF:DC:E3:BE:FF:83:E6:F4:85:9B:B0:DD:6A:D6:14:A9:C1
            X509v3 Certificate Policies: 
                Policy: X509v3 Any Policy
                  CPS: https://www.globalsign.com/repository/

            X509v3 CRL Distribution Points: 

                Full Name:
                  URI:http://crl.globalsign.net/root.crl

            X509v3 Authority Key Identifier: 
                keyid:60:7B:66:1A:45:0D:97:CA:89:50:2F:7D:04:CD:34:A8:FF:FC:FD:4B

    Signature Algorithm: sha1WithRSAEncryption
         4e:5e:56:90:1e:46:b4:d9:49:31:f3:bb:17:39:28:1b:c2:16:
         dd:fd:41:dc:09:05:04:9b:6f:b2:a2:9a:d6:99:2e:40:99:00:
         55:b5:ea:3f:a5:20:76:d3:86:34:d4:17:cc:55:3a:c7:82:ee:
         ef:a8:ba:bc:d8:06:9f:15:50:df:cd:16:7b:52:3a:02:d7:19:
         1a:fd:af:f0:78:5c:e0:4b:c5:18:df:3a:24:1e:da:ac:b8:a9:
         58:04:02:07:30:db:b0:12:5e:fe:31:be:f0:04:48:f4:f0:70:
         f8:3a:5e:56:83:cf:3d:fb:0d:bc:f4:c5:ed:97:9d:b9:d4:db:
         a5:27:84:e3:38:9b:8b:a7:35:86:44:20:a4:3b:6d:a4:6a:0b:
         a1:83:fd:28:eb:da:ef:28:f6:cc:88:5d:fb:0a:3b:00:ab:e0:
         21:eb:e2:2f:35:6c:0f:8e:34:45:97:eb:a2:f7:99:33:35:7e:
         cb:9a:8a:bb:45:4d:e7:3f:9f:c2:d9:8a:fa:65:b2:6e:c7:7e:
         65:ff:e8:92:e1:2c:31:a2:f7:b0:27:36:48:8f:26:6f:3b:ee:
         4d:76:1f:79:c3:e5:7f:96:35:bc:2d:0e:cc:01:b0:8e:7f:ff:
         51:80:80:a7:92:d4:b3:44:46:64:8c:87:4f:16:63:07:31:4b:
         63:b0:df:f3
-----BEGIN CERTIFICATE-----
MIIEFDCCAvygAwIBAgILBAAAAAABL07hUtcwDQYJKoZIhvcNAQEFBQAwVzELMAkG
A1UEBhMCQkUxGTAXBgNVBAoTEEdsb2JhbFNpZ24gbnYtc2ExEDAOBgNVBAsTB1Jv
b3QgQ0ExGzAZBgNVBAMTEkdsb2JhbFNpZ24gUm9vdCBDQTAeFw0xMTA0MTMxMDAw
MDBaFw0yODAxMjgxMjAwMDBaMFIxCzAJBgNVBAYTAkJFMRkwFwYDVQQKExBHbG9i
YWxTaWduIG52LXNhMSgwJgYDVQQDEx9HbG9iYWxTaWduIFRpbWVzdGFtcGluZyBD
QSAtIEcyMIIBIjANBgkqhkiG9w0BAQEFAAOCAQ8AMIIBCgKCAQEAlO9l+LVXn6BT
DTQG6wkft0cYasvwW+T/J6U00feJGr+esc0SQW5m1IGghYtkWkYvmaCNd7HivFzd
ItdqZ9C76Mp03otPDbBS5ZBb60cO8eefnAuQZT4XljBFcm05oRc2yrmgjBtPCBn2
gTGtYRakYua0QJ7D/PuV9vu1LpWBmODvxevYAll4d/eq41JrUJEpxfz3zZNl0mBh
IvIG+zLdFlH6Dv2KMPAXCae78wSuq5DnbN96qfTvxGInX2+ZbTh0qhGL2t/HFEzp
hbLswn1KJo/nVrqm4M+SU4B09APsaLJgvIQgAIMboe60dAXBKY5i0Eex+vBTzBj5
Ljv5cH60JQIDAQABo4HlMIHiMA4GA1UdDwEB/wQEAwIBBjASBgNVHRMBAf8ECDAG
AQH/AgEAMB0GA1UdDgQWBBRG2D7/3OO+/4Pm9IWbsN1q1hSpwTBHBgNVHSAEQDA+
MDwGBFUdIAAwNDAyBggrBgEFBQcCARYmaHR0cHM6Ly93d3cuZ2xvYmFsc2lnbi5j
b20vcmVwb3NpdG9yeS8wMwYDVR0fBCwwKjAooCagJIYiaHR0cDovL2NybC5nbG9i
YWxzaWduLm5ldC9yb290LmNybDAfBgNVHSMEGDAWgBRge2YaRQ2XyolQL30EzTSo
//z9SzANBgkqhkiG9w0BAQUFAAOCAQEATl5WkB5GtNlJMfO7FzkoG8IW3f1B3AkF
BJtvsqKa1pkuQJkAVbXqP6UgdtOGNNQXzFU6x4Lu76i6vNgGnxVQ380We1I6AtcZ
Gv2v8Hhc4EvFGN86JB7arLipWAQCBzDbsBJe/jG+8ARI9PBw+DpeVoPPPfsNvPTF
7ZedudTbpSeE4zibi6c1hkQgpDttpGoLoYP9KOva7yj2zIhd+wo7AKvgIeviLzVs
D440RZfroveZMzV+y5qKu0VN5z+fwtmK+mWybsd+Zf/okuEsMaL3sCc2SI8mbzvu
TXYfecPlf5Y1vC0OzAGwjn//UYCAp5LUs0RGZIyHTxZjBzFLY7Df8w==
-----END CERTIFICATE-----

Certificate:
    Data:
        Version: 3 (0x2)
        Serial Number:
            11:21:d6:99:a7:64:97:3e:f1:f8:42:7e:e9:19:cc:53:41:14
    Signature Algorithm: sha1WithRSAEncryption
        Issuer: C=BE, O=GlobalSign nv-sa, CN=GlobalSign Timestamping CA - G2
        Validity
            Not Before: May 24 00:00:00 2016 GMT
            Not After : Jun 24 00:00:00 2027 GMT
        Subject: C=SG, O=GMO GlobalSign Pte Ltd, CN=GlobalSign TSA for MS Authenticode - G2
        Subject Public Key Info:
            Public Key Algorithm: rsaEncryption
                Public-Key: (2048 bit)
                Modulus:
                    00:b0:17:ae:a2:d3:b6:04:30:56:1e:58:0f:b1:ed:
                    55:a4:d6:54:cb:d8:f6:73:3a:ec:5d:5e:ab:25:fd:
                    36:a5:fa:84:c3:61:40:c5:46:b5:59:52:3b:42:a2:
                    2e:5f:13:62:10:a9:5b:e6:73:d6:92:25:b1:7d:23:
                    e3:06:b3:87:3a:0e:43:f0:d7:00:89:53:a2:11:31:
                    52:28:6e:5d:40:72:3c:f2:09:77:a7:49:92:97:d4:
                    6c:90:a0:76:a7:fd:b8:dc:b3:9d:f2:07:60:2c:4f:
                    58:98:00:6b:d3:15:54:e0:fa:dd:ff:80:2c:5f:18:
                    a6:98:ff:d4:ab:ec:a1:45:59:b2:2e:6f:62:5d:e0:
                    d9:19:ac:8b:57:9c:a8:26:2b:d9:17:a5:10:d2:47:
                    08:1a:70:2c:33:8b:7f:68:80:2a:b5:a1:5d:6b:dd:
                    8d:02:02:29:03:aa:7c:37:bb:bb:29:4e:3d:53:93:
                    b3:a6:fa:8f:d2:58:93:15:4c:b9:2d:ab:80:a3:a3:
                    25:fb:af:f7:08:64:b0:7a:44:0f:5c:10:d7:5f:61:
                    37:aa:4e:6b:d3:d2:53:25:9d:82:73:fa:2c:f9:72:
                    b0:a9:19:39:2a:50:fa:a9:d0:3c:3a:ca:e8:5b:ef:
                    f5:5f:51:f4:f9:0a:d9:97:35:de:6a:85:e6:23:04:
                    42:af
                Exponent: 65537 (0x10001)
        X509v3 extensions:
            X509v3 Key Usage: critical
                Digital Signature
            X509v3 Certificate Policies: 
                Policy: 1.3.6.1.4.1.4146.1.30
                  CPS: https://www.globalsign.com/repository/

            X509v3 Basic Constraints: 
                CA:FALSE
            X509v3 Extended Key Usage: critical
                Time Stamping
            X509v3 CRL Distribution Points: 

                Full Name:
                  URI:http://crl.globalsign.com/gs/gstimestampingg2.crl

            Authority Information Access: 
                CA Issuers - URI:http://secure.globalsign.com/cacert/gstimestampingg2.crt

            X509v3 Subject Key Identifier: 
                D4:A2:84:4A:38:5A:18:7F:BA:4F:30:50:BD:9D:D5:7A:87:D6:09:F7
            X509v3 Authority Key Identifier: 
                keyid:46:D8:3E:FF:DC:E3:BE:FF:83:E6:F4:85:9B:B0:DD:6A:D6:14:A9:C1

    Signature Algorithm: sha1WithRSAEncryption
         8f:a9:1a:91:6d:04:a6:37:20:0e:83:96:de:23:d3:6b:6e:1f:
         6e:dd:64:3d:68:21:22:b5:f8:47:36:69:8e:e1:a5:45:c7:24:
         a2:22:b7:29:09:cc:54:5a:ae:c6:bc:cd:63:8e:b3:3d:50:48:
         e5:b4:cc:ae:cd:92:8d:9e:28:8b:13:4a:11:aa:bd:a3:ef:d3:
         b2:36:fc:b4:a1:72:bf:6d:97:63:79:8c:44:bc:70:2f:7e:f3:
         bc:dd:82:53:ab:1a:f6:eb:fa:1c:97:bc:b6:37:9c:a4:1c:30:
         bc:ab:bc:2d:47:36:df:92:20:03:e8:71:c6:58:f6:75:05:9a:
         34:f0:0b:59:5a:82:44:34:aa:80:e4:2f:84:f6:47:5d:96:c9:
         b6:ca:ca:9d:b7:a6:ba:e4:50:d3:d4:37:b8:ba:20:0e:d0:d3:
         92:2a:5b:c4:59:bb:a1:6d:db:3c:ce:44:9d:c1:38:2a:ad:e3:
         8d:bd:cd:09:77:1a:10:be:67:0a:02:36:64:88:b9:b3:1b:26:
         ee:e7:9e:60:c4:46:a8:bc:61:33:6c:cf:4e:b9:9c:b9:6a:f0:
         9f:37:fe:b5:3d:4f:9a:d3:4d:ff:de:20:8e:4e:97:a6:fd:9f:
         09:bc:4d:ca:18:76:c9:b0:4d:85:50:f2:80:d2:1d:06:f5:58:
         04:07:b1:18
-----BEGIN CERTIFICATE-----
MIIEnzCCA4egAwIBAgISESHWmadklz7x+EJ+6RnMU0EUMA0GCSqGSIb3DQEBBQUA
MFIxCzAJBgNVBAYTAkJFMRkwFwYDVQQKExBHbG9iYWxTaWduIG52LXNhMSgwJgYD
VQQDEx9HbG9iYWxTaWduIFRpbWVzdGFtcGluZyBDQSAtIEcyMB4XDTE2MDUyNDAw
MDAwMFoXDTI3MDYyNDAwMDAwMFowYDELMAkGA1UEBhMCU0cxHzAdBgNVBAoTFkdN
TyBHbG9iYWxTaWduIFB0ZSBMdGQxMDAuBgNVBAMTJ0dsb2JhbFNpZ24gVFNBIGZv
ciBNUyBBdXRoZW50aWNvZGUgLSBHMjCCASIwDQYJKoZIhvcNAQEBBQADggEPADCC
AQoCggEBALAXrqLTtgQwVh5YD7HtVaTWVMvY9nM67F1eqyX9NqX6hMNhQMVGtVlS
O0KiLl8TYhCpW+Zz1pIlsX0j4wazhzoOQ/DXAIlTohExUihuXUByPPIJd6dJkpfU
bJCgdqf9uNyznfIHYCxPWJgAa9MVVOD63f+ALF8Yppj/1KvsoUVZsi5vYl3g2Rms
i1ecqCYr2RelENJHCBpwLDOLf2iAKrWhXWvdjQICKQOqfDe7uylOPVOTs6b6j9JY
kxVMuS2rgKOjJfuv9whksHpED1wQ119hN6pOa9PSUyWdgnP6LPlysKkZOSpQ+qnQ
PDrK6Fvv9V9R9PkK2Zc13mqF5iMEQq8CAwEAAaOCAV8wggFbMA4GA1UdDwEB/wQE
AwIHgDBMBgNVHSAERTBDMEEGCSsGAQQBoDIBHjA0MDIGCCsGAQUFBwIBFiZodHRw
czovL3d3dy5nbG9iYWxzaWduLmNvbS9yZXBvc2l0b3J5LzAJBgNVHRMEAjAAMBYG
A1UdJQEB/wQMMAoGCCsGAQUFBwMIMEIGA1UdHwQ7MDkwN6A1oDOGMWh0dHA6Ly9j
cmwuZ2xvYmFsc2lnbi5jb20vZ3MvZ3N0aW1lc3RhbXBpbmdnMi5jcmwwVAYIKwYB
BQUHAQEESDBGMEQGCCsGAQUFBzAChjhodHRwOi8vc2VjdXJlLmdsb2JhbHNpZ24u
Y29tL2NhY2VydC9nc3RpbWVzdGFtcGluZ2cyLmNydDAdBgNVHQ4EFgQU1KKESjha
GH+6TzBQvZ3VeofWCfcwHwYDVR0jBBgwFoAURtg+/9zjvv+D5vSFm7DdatYUqcEw
DQYJKoZIhvcNAQEFBQADggEBAI+pGpFtBKY3IA6Dlt4j02tuH27dZD1oISK1+Ec2
aY7hpUXHJKIitykJzFRarsa8zWOOsz1QSOW0zK7Nko2eKIsTShGqvaPv07I2/LSh
cr9tl2N5jES8cC9+87zdglOrGvbr+hyXvLY3nKQcMLyrvC1HNt+SIAPoccZY9nUF
mjTwC1lagkQ0qoDkL4T2R12WybbKyp23prrkUNPUN7i6IA7Q05IqW8RZu6Ft2zzO
RJ3BOCqt4429zQl3GhC+ZwoCNmSIubMbJu7nnmDERqi8YTNsz065nLlq8J83/rU9
T5rTTf/eII5Ol6b9nwm8TcoYdsmwTYVQ8oDSHQb1WAQHsRg=
-----END CERTIFICATE-----

Certificate:
    Data:
        Version: 3 (0x2)
        Serial Number:
            b4:69:0d:f4:e5:27:98:84:8c:4f:89:a2:89:e6:c6:17
    Signature Algorithm: sha256WithRSAEncryption
        Issuer: C=GB, ST=Greater Manchester, L=Salford, O=COMODO CA Limited, CN=COMODO RSA Code Signing CA
        Validity
            Not Before: Feb 23 00:00:00 2018 GMT
            Not After : Feb 23 23:59:59 2019 GMT
        Subject: C=GB/postalCode=WC2H 9JQ, ST=London, L=London/street=71-75 Shelton Street, Covent Garden, O=Clevercyber Ltd, CN=Clevercyber Ltd
        Subject Public Key Info:
            Public Key Algorithm: rsaEncryption
                Public-Key: (2048 bit)
                Modulus:
                    00:b7:12:90:72:da:4a:09:69:7c:85:f1:d6:07:1d:
                    17:07:29:55:4c:67:1e:e4:aa:51:d1:06:dc:4c:ac:
                    9c:27:1f:97:67:d8:4e:6b:2e:e5:c2:52:f6:e6:03:
                    b5:99:2b:78:14:37:65:61:e8:2c:50:1f:1f:ef:7f:
                    45:0e:c9:c5:5a:fe:4d:5a:47:e9:1a:4c:72:ac:cd:
                    1e:91:2e:f6:e0:07:00:cb:85:84:32:54:48:ea:48:
                    44:29:7e:e5:0f:e4:10:49:79:dd:41:d0:6a:ba:a6:
                    64:66:d9:8b:24:1e:19:e5:56:26:d8:8e:65:90:47:
                    07:98:2c:fb:dc:53:73:ce:1e:6f:06:84:ce:89:49:
                    c6:f9:43:1e:df:3c:83:42:69:00:52:e3:77:3b:6c:
                    5b:1c:15:d2:86:ee:f4:59:95:61:aa:af:f0:09:68:
                    1c:9f:03:8b:57:7a:dd:7d:0d:92:1d:ca:03:9f:f4:
                    9e:62:0a:6c:57:91:3e:d6:49:2f:7c:9f:4b:c9:b3:
                    f1:77:9e:30:9b:3f:99:38:82:b3:d3:7f:59:34:5a:
                    03:4d:f8:af:26:bd:72:c3:12:7e:79:af:32:e2:64:
                    a3:d5:b4:85:ce:78:44:f6:fd:9b:53:97:3b:47:e7:
                    c0:c7:fe:ce:ed:f5:4c:82:9a:06:95:05:e0:79:58:
                    92:09
                Exponent: 65537 (0x10001)
        X509v3 extensions:
            X509v3 Authority Key Identifier: 
                keyid:29:91:60:FF:8A:4D:FA:EB:F9:A6:6A:B8:CF:F9:E6:4B:BD:49:CE:12

            X509v3 Subject Key Identifier: 
                30:39:C2:BA:54:AE:9C:0B:86:9F:DC:F2:1D:1A:70:B2:5D:0D:3A:7E
            X509v3 Key Usage: critical
                Digital Signature
            X509v3 Basic Constraints: critical
                CA:FALSE
            X509v3 Extended Key Usage: 
                Code Signing
            Netscape Cert Type: 
                Object Signing
            X509v3 Certificate Policies: 
                Policy: 1.3.6.1.4.1.6449.1.2.1.3.2
                  CPS: https://secure.comodo.net/CPS

            X509v3 CRL Distribution Points: 

                Full Name:
                  URI:http://crl.comodoca.com/COMODORSACodeSigningCA.crl

            Authority Information Access: 
                CA Issuers - URI:http://crt.comodoca.com/COMODORSACodeSigningCA.crt
                OCSP - URI:http://ocsp.comodoca.com

    Signature Algorithm: sha256WithRSAEncryption
         32:83:8f:be:3e:c9:9c:5d:50:c4:0e:f2:ad:b0:60:a6:fb:34:
         fc:a6:1e:2f:97:56:d3:eb:46:0f:8b:4d:f0:32:6d:5c:2c:8b:
         a9:45:f1:d0:a8:16:2d:65:a7:9a:5f:00:25:ea:91:e5:05:d4:
         03:a7:9e:63:47:44:eb:9a:5f:6f:82:b0:16:48:4a:92:a6:71:
         05:33:1d:0e:78:70:fe:10:b2:01:a7:07:7f:20:f7:9d:10:6d:
         91:e6:2d:c9:51:c0:6b:a8:3b:51:e8:fe:23:09:33:69:93:26:
         7f:23:2a:6b:67:36:82:9b:05:9e:3d:36:4d:ba:a3:04:9c:1f:
         25:fd:2c:64:9f:ec:ee:d9:20:e8:24:d5:0c:5a:31:d1:4e:52:
         b3:f5:e7:67:66:ac:1a:ca:bc:3b:b0:9f:97:20:9e:08:32:c9:
         96:d5:3b:eb:1e:04:f7:79:7e:d6:39:b7:a8:39:bf:78:2f:5e:
         d4:0f:0e:7f:18:7f:a3:79:97:ec:8a:ce:03:de:e3:60:05:07:
         e6:ff:0f:e4:c3:77:4c:a8:55:20:21:53:0d:f3:83:a5:9f:58:
         e9:43:ae:3a:6f:47:48:39:49:8f:ca:2d:d3:1f:e4:94:e6:cb:
         a6:a9:7f:00:d9:a7:96:5a:69:cd:39:1b:2d:9b:93:ae:08:d4:
         20:cf:26:6f
-----BEGIN CERTIFICATE-----
MIIFPDCCBCSgAwIBAgIRALRpDfTlJ5iEjE+JoonmxhcwDQYJKoZIhvcNAQELBQAw
fTELMAkGA1UEBhMCR0IxGzAZBgNVBAgTEkdyZWF0ZXIgTWFuY2hlc3RlcjEQMA4G
A1UEBxMHU2FsZm9yZDEaMBgGA1UEChMRQ09NT0RPIENBIExpbWl0ZWQxIzAhBgNV
BAMTGkNPTU9ETyBSU0EgQ29kZSBTaWduaW5nIENBMB4XDTE4MDIyMzAwMDAwMFoX
DTE5MDIyMzIzNTk1OVowgaQxCzAJBgNVBAYTAkdCMREwDwYDVQQRDAhXQzJIIDlK
UTEPMA0GA1UECAwGTG9uZG9uMQ8wDQYDVQQHDAZMb25kb24xLDAqBgNVBAkMIzcx
LTc1IFNoZWx0b24gU3RyZWV0LCBDb3ZlbnQgR2FyZGVuMRgwFgYDVQQKDA9DbGV2
ZXJjeWJlciBMdGQxGDAWBgNVBAMMD0NsZXZlcmN5YmVyIEx0ZDCCASIwDQYJKoZI
hvcNAQEBBQADggEPADCCAQoCggEBALcSkHLaSglpfIXx1gcdFwcpVUxnHuSqUdEG
3EysnCcfl2fYTmsu5cJS9uYDtZkreBQ3ZWHoLFAfH+9/RQ7JxVr+TVpH6RpMcqzN
HpEu9uAHAMuFhDJUSOpIRCl+5Q/kEEl53UHQarqmZGbZiyQeGeVWJtiOZZBHB5gs
+9xTc84ebwaEzolJxvlDHt88g0JpAFLjdztsWxwV0obu9FmVYaqv8AloHJ8Di1d6
3X0Nkh3KA5/0nmIKbFeRPtZJL3yfS8mz8XeeMJs/mTiCs9N/WTRaA034rya9csMS
fnmvMuJko9W0hc54RPb9m1OXO0fnwMf+zu31TIKaBpUF4HlYkgkCAwEAAaOCAY0w
ggGJMB8GA1UdIwQYMBaAFCmRYP+KTfrr+aZquM/55ku9Sc4SMB0GA1UdDgQWBBQw
OcK6VK6cC4af3PIdGnCyXQ06fjAOBgNVHQ8BAf8EBAMCB4AwDAYDVR0TAQH/BAIw
ADATBgNVHSUEDDAKBggrBgEFBQcDAzARBglghkgBhvhCAQEEBAMCBBAwRgYDVR0g
BD8wPTA7BgwrBgEEAbIxAQIBAwIwKzApBggrBgEFBQcCARYdaHR0cHM6Ly9zZWN1
cmUuY29tb2RvLm5ldC9DUFMwQwYDVR0fBDwwOjA4oDagNIYyaHR0cDovL2NybC5j
b21vZG9jYS5jb20vQ09NT0RPUlNBQ29kZVNpZ25pbmdDQS5jcmwwdAYIKwYBBQUH
AQEEaDBmMD4GCCsGAQUFBzAChjJodHRwOi8vY3J0LmNvbW9kb2NhLmNvbS9DT01P
RE9SU0FDb2RlU2lnbmluZ0NBLmNydDAkBggrBgEFBQcwAYYYaHR0cDovL29jc3Au
Y29tb2RvY2EuY29tMA0GCSqGSIb3DQEBCwUAA4IBAQAyg4++PsmcXVDEDvKtsGCm
+zT8ph4vl1bT60YPi03wMm1cLIupRfHQqBYtZaeaXwAl6pHlBdQDp55jR0Trml9v
grAWSEqSpnEFMx0OeHD+ELIBpwd/IPedEG2R5i3JUcBrqDtR6P4jCTNpkyZ/Iypr
ZzaCmwWePTZNuqMEnB8l/Sxkn+zu2SDoJNUMWjHRTlKz9ednZqwayrw7sJ+XIJ4I
MsmW1TvrHgT3eX7WObeoOb94L17UDw5/GH+jeZfsis4D3uNgBQfm/w/kw3dMqFUg
IVMN84Oln1jpQ646b0dIOUmPyi3TH+SU5sumqX8A2aeWWmnNORstm5OuCNQgzyZv
-----END CERTIFICATE-----

Certificate:
    Data:
        Version: 3 (0x2)
        Serial Number:
            2e:7c:87:cc:0e:93:4a:52:fe:94:fd:1c:b7:cd:34:af
    Signature Algorithm: sha384WithRSAEncryption
        Issuer: C=GB, ST=Greater Manchester, L=Salford, O=COMODO CA Limited, CN=COMODO RSA Certification Authority
        Validity
            Not Before: May  9 00:00:00 2013 GMT
            Not After : May  8 23:59:59 2028 GMT
        Subject: C=GB, ST=Greater Manchester, L=Salford, O=COMODO CA Limited, CN=COMODO RSA Code Signing CA
        Subject Public Key Info:
            Public Key Algorithm: rsaEncryption
                Public-Key: (2048 bit)
                Modulus:
                    00:a6:98:90:63:77:91:34:7f:8a:d1:dd:e9:67:31:
                    11:eb:cc:1e:fd:31:1d:b3:b9:62:57:3f:93:bc:5b:
                    e3:9f:1e:24:32:11:27:6b:bc:51:91:a7:cf:9e:9e:
                    25:b3:5f:81:a8:18:0f:1d:1e:20:30:0e:fb:61:7b:
                    86:09:b3:e3:fd:a2:68:9d:1c:2c:9d:bf:72:e3:e4:
                    75:a0:e5:35:23:8e:c9:8a:ee:1a:0c:64:c7:d8:42:
                    a1:7b:b5:52:03:4b:3a:b0:8e:23:4b:4b:63:e0:22:
                    94:37:7b:d5:79:90:0a:14:18:51:2c:e6:fe:c1:12:
                    f0:1c:3f:61:61:0a:8c:a2:dc:f6:c3:30:aa:cd:28:
                    18:75:48:c1:79:5a:08:cd:bb:8c:55:8c:f7:d4:76:
                    90:3a:33:46:50:73:98:5c:f4:85:4a:6b:0f:80:dd:
                    5e:d6:bd:fd:a9:2f:c0:25:f5:f9:78:d7:8d:5f:10:
                    c2:44:55:3c:90:3c:31:46:cb:70:ae:07:a9:0a:e3:
                    af:c1:01:6f:90:1a:23:e2:5f:38:db:c6:08:5d:47:
                    b3:83:41:f0:2e:00:37:14:b9:12:aa:79:92:52:cd:
                    87:0f:7b:d8:62:29:a4:7e:30:bd:1b:b5:8c:72:b4:
                    48:f2:e3:e8:21:f9:5e:4c:62:79:8b:02:06:9f:7f:
                    d5:0b
                Exponent: 65537 (0x10001)
        X509v3 extensions:
            X509v3 Authority Key Identifier: 
                keyid:BB:AF:7E:02:3D:FA:A6:F1:3C:84:8E:AD:EE:38:98:EC:D9:32:32:D4

            X509v3 Subject Key Identifier: 
                29:91:60:FF:8A:4D:FA:EB:F9:A6:6A:B8:CF:F9:E6:4B:BD:49:CE:12
            X509v3 Key Usage: critical
                Digital Signature, Certificate Sign, CRL Sign
            X509v3 Basic Constraints: critical
                CA:TRUE, pathlen:0
            X509v3 Extended Key Usage: 
                Code Signing
            X509v3 Certificate Policies: 
                Policy: X509v3 Any Policy

            X509v3 CRL Distribution Points: 

                Full Name:
                  URI:http://crl.comodoca.com/COMODORSACertificationAuthority.crl

            Authority Information Access: 
                CA Issuers - URI:http://crt.comodoca.com/COMODORSAAddTrustCA.crt
                OCSP - URI:http://ocsp.comodoca.com

    Signature Algorithm: sha384WithRSAEncryption
         02:3f:02:39:c3:ee:f8:ca:3b:89:de:0c:6d:4d:b1:f1:4e:92:
         4f:af:c2:38:2c:04:cc:c5:63:11:ab:09:63:af:ab:a2:d7:02:
         3f:cc:6f:19:c3:3d:d6:1a:08:94:ff:25:d8:a9:88:a7:2b:10:
         1a:e0:9b:b1:07:22:1a:51:1c:3a:d4:e1:e9:09:bf:e6:24:74:
         af:1e:7b:16:31:6e:23:ef:54:51:2d:52:02:e2:75:08:05:4c:
         f1:b7:51:e1:51:00:c6:87:f6:6c:ee:10:44:76:57:6a:f1:df:
         58:6b:21:aa:49:d4:7c:37:4e:bd:ff:b6:75:54:40:18:36:57:
         67:11:cd:4f:02:e4:fe:f3:da:fc:75:17:db:ec:b7:f7:65:09:
         23:49:1f:43:57:83:ea:7e:20:77:61:c8:4d:f2:bb:65:4d:a8:
         f7:85:45:07:af:7a:69:27:65:90:29:40:8b:df:7b:3a:51:39:
         8c:a8:1f:70:79:ad:6d:42:20:a2:cf:0c:6c:03:8c:4c:cd:73:
         07:94:e7:5a:8e:3a:04:ba:a2:a1:7c:1f:cb:63:3a:15:a7:d4:
         15:1b:a7:52:47:32:a9:f4:bf:64:47:d1:aa:1f:53:4e:32:30:
         73:c2:6f:b7:78:82:9d:5c:ff:46:bb:6b:22:1d:88:0b:f8:1b:
         aa:34:a6:fc:8c:f5:dd:7f:65:8c:8c:31:57:31:d0:36:ec:47:
         a1:cf:cb:8b:a8:ef:1c:18:58:c5:06:77:ca:4b:9b:51:af:4c:
         08:4a:7a:8f:e2:a3:52:e2:8e:8e:cc:26:e4:b2:d8:e5:38:c2:
         a8:ed:c6:81:9c:35:6b:a9:58:61:4a:0a:97:b4:4b:42:b6:55:
         9d:be:99:e7:70:6d:59:f8:6d:2a:0c:7f:19:60:5f:0c:9a:88:
         6c:30:ac:52:09:90:16:1b:ff:2b:9d:db:d0:20:ca:89:ea:28:
         7e:32:8e:19:df:7b:48:33:1e:d7:65:f8:ae:c9:f8:83:14:93:
         76:7d:64:d0:8e:ce:be:35:7d:ff:72:31:4d:9f:9e:bd:1e:6c:
         2f:a8:8f:0c:06:50:fb:8c:27:b3:76:c9:f4:e6:d7:c3:34:e2:
         8c:87:21:86:61:fe:bf:55:74:e1:21:77:03:0a:68:6c:bb:e4:
         c9:a9:e6:cf:59:25:eb:7c:ec:45:0e:79:66:68:e8:22:cd:b8:
         ef:98:85:4d:96:11:3c:09:8a:d0:7f:bc:28:28:13:fb:6a:ca:
         54:8d:92:5c:cd:c2:65:98:06:9e:ce:48:5b:d4:b5:37:93:46:
         41:7c:07:dd:cf:fa:43:ef:ba:67:61:ff:7d:49:e0:bb:30:7d:
         5c:80:e3:e6:16:39:4b:a7
-----BEGIN CERTIFICATE-----
MIIF4DCCA8igAwIBAgIQLnyHzA6TSlL+lP0ct800rzANBgkqhkiG9w0BAQwFADCB
hTELMAkGA1UEBhMCR0IxGzAZBgNVBAgTEkdyZWF0ZXIgTWFuY2hlc3RlcjEQMA4G
A1UEBxMHU2FsZm9yZDEaMBgGA1UEChMRQ09NT0RPIENBIExpbWl0ZWQxKzApBgNV
BAMTIkNPTU9ETyBSU0EgQ2VydGlmaWNhdGlvbiBBdXRob3JpdHkwHhcNMTMwNTA5
MDAwMDAwWhcNMjgwNTA4MjM1OTU5WjB9MQswCQYDVQQGEwJHQjEbMBkGA1UECBMS
R3JlYXRlciBNYW5jaGVzdGVyMRAwDgYDVQQHEwdTYWxmb3JkMRowGAYDVQQKExFD
T01PRE8gQ0EgTGltaXRlZDEjMCEGA1UEAxMaQ09NT0RPIFJTQSBDb2RlIFNpZ25p
bmcgQ0EwggEiMA0GCSqGSIb3DQEBAQUAA4IBDwAwggEKAoIBAQCmmJBjd5E0f4rR
3elnMRHrzB79MR2zuWJXP5O8W+OfHiQyESdrvFGRp8+eniWzX4GoGA8dHiAwDvth
e4YJs+P9omidHCydv3Lj5HWg5TUjjsmK7hoMZMfYQqF7tVIDSzqwjiNLS2PgIpQ3
e9V5kAoUGFEs5v7BEvAcP2FhCoyi3PbDMKrNKBh1SMF5WgjNu4xVjPfUdpA6M0ZQ
c5hc9IVKaw+A3V7Wvf2pL8Al9fl4141fEMJEVTyQPDFGy3CuB6kK46/BAW+QGiPi
XzjbxghdR7ODQfAuADcUuRKqeZJSzYcPe9hiKaR+ML0btYxytEjy4+gh+V5MYnmL
Agaff9ULAgMBAAGjggFRMIIBTTAfBgNVHSMEGDAWgBS7r34CPfqm8TyEjq3uOJjs
2TIy1DAdBgNVHQ4EFgQUKZFg/4pN+uv5pmq4z/nmS71JzhIwDgYDVR0PAQH/BAQD
AgGGMBIGA1UdEwEB/wQIMAYBAf8CAQAwEwYDVR0lBAwwCgYIKwYBBQUHAwMwEQYD
VR0gBAowCDAGBgRVHSAAMEwGA1UdHwRFMEMwQaA/oD2GO2h0dHA6Ly9jcmwuY29t
b2RvY2EuY29tL0NPTU9ET1JTQUNlcnRpZmljYXRpb25BdXRob3JpdHkuY3JsMHEG
CCsGAQUFBwEBBGUwYzA7BggrBgEFBQcwAoYvaHR0cDovL2NydC5jb21vZG9jYS5j
b20vQ09NT0RPUlNBQWRkVHJ1c3RDQS5jcnQwJAYIKwYBBQUHMAGGGGh0dHA6Ly9v
Y3NwLmNvbW9kb2NhLmNvbTANBgkqhkiG9w0BAQwFAAOCAgEAAj8COcPu+Mo7id4M
bU2x8U6ST6/COCwEzMVjEasJY6+rotcCP8xvGcM91hoIlP8l2KmIpysQGuCbsQci
GlEcOtTh6Qm/5iR0rx57FjFuI+9UUS1SAuJ1CAVM8bdR4VEAxof2bO4QRHZXavHf
WGshqknUfDdOvf+2dVRAGDZXZxHNTwLk/vPa/HUX2+y392UJI0kfQ1eD6n4gd2HI
TfK7ZU2o94VFB696aSdlkClAi997OlE5jKgfcHmtbUIgos8MbAOMTM1zB5TnWo46
BLqioXwfy2M6FafUFRunUkcyqfS/ZEfRqh9TTjIwc8Jvt3iCnVz/RrtrIh2IC/gb
qjSm/Iz13X9ljIwxVzHQNuxHoc/Li6jvHBhYxQZ3ykubUa9MCEp6j+KjUuKOjswm
5LLY5TjCqO3GgZw1a6lYYUoKl7RLQrZVnb6Z53BtWfhtKgx/GWBfDJqIbDCsUgmQ
Fhv/K53b0CDKieoofjKOGd97SDMe12X4rsn4gxSTdn1k0I7OvjV9/3IxTZ+evR5s
L6iPDAZQ+4wns3bJ9ObXwzTijIchhmH+v1V04SF3AwpobLvkyanmz1kl63zsRQ55
ZmjoIs2475iFTZYRPAmK0H+8KCgT+2rKVI2SXM3CZZgGns5IW9S1N5NGQXwH3c/6
Q++6Z2H/fUnguzB9XIDj5hY5S6c=
-----END CERTIFICATE-----

