Certificate:
    Data:
        Version: 3 (0x2)
        Serial Number:
            02:06:f8:3d:3f:af:4c:d9:c6:0f:23:24:85:7c:2e:0d
    Signature Algorithm: sha256WithRSAEncryption
        Issuer: C=US, O=DigiCert Inc, OU=www.digicert.com, CN=DigiCert EV Code Signing CA (SHA2)
        Validity
            Not Before: Sep 12 00:00:00 2017 GMT
            Not After : Sep  4 12:00:00 2019 GMT
        Subject: businessCategory=Private Organization/jurisdictionC=US/jurisdictionST=Delaware/serialNumber=2748129, C=US, ST=California, L=San Jose, O=Adobe Systems Incorporated, OU=LiveCycle, Connect, Scene7, CN=Adobe Systems Incorporated
        Subject Public Key Info:
            Public Key Algorithm: rsaEncryption
                Public-Key: (2048 bit)
                Modulus:
                    00:aa:e0:2f:37:fd:50:b9:e5:32:6f:1f:43:ea:19:
                    8e:13:32:da:7e:4c:f5:2c:a1:76:51:f0:e0:0b:80:
                    5b:e0:7c:fb:2f:b3:cb:68:6f:ef:dd:41:53:94:c2:
                    2a:88:4d:cc:48:e5:6c:65:1c:a4:1f:d6:77:bc:59:
                    d9:f0:11:8c:a6:c9:04:df:34:cb:ce:ea:e7:61:87:
                    fa:7e:7c:25:b8:a7:36:23:2c:14:0e:d3:83:99:3a:
                    82:01:51:68:e0:2e:ca:2d:cf:c6:d1:c4:12:7f:85:
                    e9:2c:b1:cd:46:74:e4:88:6a:ba:5c:dc:7c:b8:5e:
                    0f:96:7d:b3:f4:37:17:96:11:42:bd:1b:f6:7f:79:
                    02:a7:30:be:78:83:03:5a:19:af:2a:9c:51:98:0e:
                    4b:6f:7c:65:83:a7:e7:8e:72:5f:45:39:c2:c5:67:
                    8a:80:d4:90:dd:fc:09:ec:d1:ef:b0:f9:46:14:63:
                    af:26:83:58:b7:4f:03:1d:e3:df:a8:47:0e:ad:f4:
                    3a:85:b7:b2:54:30:fc:06:45:aa:83:09:a2:b2:18:
                    25:c6:b0:e2:5f:f3:75:9a:58:30:a5:ce:dd:f9:4d:
                    21:f6:0f:a5:d5:60:9e:cc:56:7a:41:2c:c8:7a:bb:
                    84:4f:e9:ec:e7:5c:de:3d:d3:f7:1c:db:26:2a:bb:
                    30:f7
                Exponent: 65537 (0x10001)
        X509v3 extensions:
            X509v3 Authority Key Identifier: 
                keyid:8F:E8:7E:F0:6D:32:6A:00:05:23:C7:70:97:6A:3A:90:FF:6B:EA:D4

            X509v3 Subject Key Identifier: 
                19:E3:60:72:E1:62:57:73:A6:ED:DD:96:1A:82:8C:34:18:61:53:7A
            X509v3 Subject Alternative Name: 
                othername:<unsupported>
            X509v3 Key Usage: critical
                Digital Signature
            X509v3 Extended Key Usage: 
                Code Signing
            X509v3 CRL Distribution Points: 

                Full Name:
                  URI:http://crl3.digicert.com/EVCodeSigningSHA2-g1.crl

                Full Name:
                  URI:http://crl4.digicert.com/EVCodeSigningSHA2-g1.crl

            X509v3 Certificate Policies: 
                Policy: 2.16.840.1.114412.3.2
                  CPS: https://www.digicert.com/CPS
                Policy: 2.23.140.1.3

            Authority Information Access: 
                OCSP - URI:http://ocsp.digicert.com
                CA Issuers - URI:http://cacerts.digicert.com/DigiCertEVCodeSigningCA-SHA2.crt

            X509v3 Basic Constraints: critical
                CA:FALSE
    Signature Algorithm: sha256WithRSAEncryption
         0f:f9:6d:a6:a1:fc:98:f5:3a:72:2b:2e:24:f2:be:a7:7b:89:
         ff:33:bb:36:81:67:af:f4:b7:d6:54:ea:43:0c:bf:bc:09:90:
         70:bc:fe:ea:0d:49:8c:dd:c5:1d:76:82:0b:4d:6b:5b:76:55:
         4e:ca:9e:f4:55:c0:5c:41:4d:1b:69:d4:19:c1:30:7e:3a:17:
         e0:3b:46:07:42:f3:ce:f4:c4:54:a8:04:e1:15:f5:5d:25:13:
         29:2a:c4:08:90:8e:35:de:f1:cd:f7:5b:24:31:b1:77:7f:c5:
         9f:97:c2:2f:a2:01:4d:17:da:cb:d6:61:85:b0:8b:c6:56:6c:
         ae:9e:d4:31:c7:ce:ca:c5:0f:5c:db:e6:6c:62:3b:5d:19:99:
         c7:d7:90:00:e4:67:40:c3:c2:31:c8:f9:fe:a8:7f:93:06:72:
         32:39:53:e1:6d:c7:4f:6b:fe:91:08:d9:bc:3b:cc:43:19:ef:
         ae:ff:a7:a7:75:63:13:5a:d1:57:9b:06:f2:17:f8:f8:37:bf:
         c1:bf:3d:be:e0:6a:ec:ae:ec:3b:81:6e:60:fd:be:97:dc:db:
         7e:39:02:86:1d:f3:db:ea:39:bb:fa:af:e3:28:5b:1f:5b:ae:
         ee:3e:4c:e0:a2:c6:d6:bd:3c:9c:d9:42:24:34:0a:5b:74:1e:
         c5:c8:7a:e7
-----BEGIN CERTIFICATE-----
MIIF8DCCBNigAwIBAgIQAgb4PT+vTNnGDyMkhXwuDTANBgkqhkiG9w0BAQsFADBs
MQswCQYDVQQGEwJVUzEVMBMGA1UEChMMRGlnaUNlcnQgSW5jMRkwFwYDVQQLExB3
d3cuZGlnaWNlcnQuY29tMSswKQYDVQQDEyJEaWdpQ2VydCBFViBDb2RlIFNpZ25p
bmcgQ0EgKFNIQTIpMB4XDTE3MDkxMjAwMDAwMFoXDTE5MDkwNDEyMDAwMFowggEF
MR0wGwYDVQQPDBRQcml2YXRlIE9yZ2FuaXphdGlvbjETMBEGCysGAQQBgjc8AgED
EwJVUzEZMBcGCysGAQQBgjc8AgECEwhEZWxhd2FyZTEQMA4GA1UEBRMHMjc0ODEy
OTELMAkGA1UEBhMCVVMxEzARBgNVBAgTCkNhbGlmb3JuaWExETAPBgNVBAcTCFNh
biBKb3NlMSMwIQYDVQQKExpBZG9iZSBTeXN0ZW1zIEluY29ycG9yYXRlZDEjMCEG
A1UECxMaTGl2ZUN5Y2xlLCBDb25uZWN0LCBTY2VuZTcxIzAhBgNVBAMTGkFkb2Jl
IFN5c3RlbXMgSW5jb3Jwb3JhdGVkMIIBIjANBgkqhkiG9w0BAQEFAAOCAQ8AMIIB
CgKCAQEAquAvN/1QueUybx9D6hmOEzLafkz1LKF2UfDgC4Bb4Hz7L7PLaG/v3UFT
lMIqiE3MSOVsZRykH9Z3vFnZ8BGMpskE3zTLzurnYYf6fnwluKc2IywUDtODmTqC
AVFo4C7KLc/G0cQSf4XpLLHNRnTkiGq6XNx8uF4Pln2z9DcXlhFCvRv2f3kCpzC+
eIMDWhmvKpxRmA5Lb3xlg6fnjnJfRTnCxWeKgNSQ3fwJ7NHvsPlGFGOvJoNYt08D
HePfqEcOrfQ6hbeyVDD8BkWqgwmishglxrDiX/N1mlgwpc7d+U0h9g+l1WCezFZ6
QSzIeruET+ns51zePdP3HNsmKrsw9wIDAQABo4IB8TCCAe0wHwYDVR0jBBgwFoAU
j+h+8G0yagAFI8dwl2o6kP9r6tQwHQYDVR0OBBYEFBnjYHLhYldzpu3dlhqCjDQY
YVN6MC4GA1UdEQQnMCWgIwYIKwYBBQUHCAOgFzAVDBNVUy1ERUxBV0FSRS0yNzQ4
MTI5MA4GA1UdDwEB/wQEAwIHgDATBgNVHSUEDDAKBggrBgEFBQcDAzB7BgNVHR8E
dDByMDegNaAzhjFodHRwOi8vY3JsMy5kaWdpY2VydC5jb20vRVZDb2RlU2lnbmlu
Z1NIQTItZzEuY3JsMDegNaAzhjFodHRwOi8vY3JsNC5kaWdpY2VydC5jb20vRVZD
b2RlU2lnbmluZ1NIQTItZzEuY3JsMEsGA1UdIAREMEIwNwYJYIZIAYb9bAMCMCow
KAYIKwYBBQUHAgEWHGh0dHBzOi8vd3d3LmRpZ2ljZXJ0LmNvbS9DUFMwBwYFZ4EM
AQMwfgYIKwYBBQUHAQEEcjBwMCQGCCsGAQUFBzABhhhodHRwOi8vb2NzcC5kaWdp
Y2VydC5jb20wSAYIKwYBBQUHMAKGPGh0dHA6Ly9jYWNlcnRzLmRpZ2ljZXJ0LmNv
bS9EaWdpQ2VydEVWQ29kZVNpZ25pbmdDQS1TSEEyLmNydDAMBgNVHRMBAf8EAjAA
MA0GCSqGSIb3DQEBCwUAA4IBAQAP+W2mofyY9TpyKy4k8r6ne4n/M7s2gWev9LfW
VOpDDL+8CZBwvP7qDUmM3cUddoILTWtbdlVOyp70VcBcQU0badQZwTB+OhfgO0YH
QvPO9MRUqAThFfVdJRMpKsQIkI413vHN91skMbF3f8Wfl8IvogFNF9rL1mGFsIvG
VmyuntQxx87KxQ9c2+ZsYjtdGZnH15AA5GdAw8IxyPn+qH+TBnIyOVPhbcdPa/6R
CNm8O8xDGe+u/6endWMTWtFXmwbyF/j4N7/Bvz2+4Grsruw7gW5g/b6X3Nt+OQKG
HfPb6jm7+q/jKFsfW67uPkzgosbWvTyc2UIkNApbdB7FyHrn
-----END CERTIFICATE-----

Certificate:
    Data:
        Version: 3 (0x2)
        Serial Number:
            03:f1:b4:e1:5f:3a:82:f1:14:96:78:b3:d7:d8:47:5c
    Signature Algorithm: sha256WithRSAEncryption
        Issuer: C=US, O=DigiCert Inc, OU=www.digicert.com, CN=DigiCert High Assurance EV Root CA
        Validity
            Not Before: Apr 18 12:00:00 2012 GMT
            Not After : Apr 18 12:00:00 2027 GMT
        Subject: C=US, O=DigiCert Inc, OU=www.digicert.com, CN=DigiCert EV Code Signing CA (SHA2)
        Subject Public Key Info:
            Public Key Algorithm: rsaEncryption
                Public-Key: (2048 bit)
                Modulus:
                    00:a7:53:fa:0f:b2:b5:13:f1:64:cf:84:80:fc:ae:
                    80:35:d1:b6:d7:c7:a3:2c:ac:1a:2c:ac:f1:84:ac:
                    3a:35:12:3a:92:91:ba:57:e4:c4:c9:f3:2f:a8:48:
                    3c:b7:d6:6e:dc:97:22:ba:51:79:61:af:43:2f:0d:
                    b7:9b:b4:49:31:ae:44:58:3e:a4:a1:96:a7:87:4f:
                    23:7e:c3:6c:65:24:90:55:3e:a1:ca:23:7c:c5:42:
                    e9:c4:7a:62:45:9b:7d:de:63:74:cb:9e:63:25:f8:
                    84:9a:9a:ad:45:4f:ae:7d:1f:c8:13:cb:75:9b:c9:
                    e1:e1:8a:f8:0b:0c:98:f4:ca:3e:d0:45:aa:7a:1e:
                    a5:58:93:36:34:be:2b:2e:2b:31:58:66:b4:32:10:
                    9f:9d:f0:52:a1:ef:e8:3e:d3:76:f2:40:5a:dc:fa:
                    6a:3d:1b:4b:ad:76:b0:8c:5c:ee:36:ba:83:ea:30:
                    a8:4c:de:f1:0b:2a:58:41:88:ae:00:89:ab:03:d1:
                    16:82:20:22:76:eb:5e:54:38:12:62:e1:d2:70:24:
                    db:ed:1f:70:d2:64:09:80:2d:e2:b6:9d:ce:1f:f2:
                    bb:21:f3:6c:db:d8:b3:19:7b:8a:50:9f:ef:ec:36:
                    0a:5c:9a:b7:4a:d3:08:a0:39:79:fd:dd:bf:3d:3a:
                    09:25
                Exponent: 65537 (0x10001)
        X509v3 extensions:
            X509v3 Basic Constraints: critical
                CA:TRUE, pathlen:0
            X509v3 Key Usage: critical
                Digital Signature, Certificate Sign, CRL Sign
            X509v3 Extended Key Usage: 
                Code Signing
            Authority Information Access: 
                OCSP - URI:http://ocsp.digicert.com
                CA Issuers - URI:http://cacerts.digicert.com/DigiCertHighAssuranceEVRootCA.crt

            X509v3 CRL Distribution Points: 

                Full Name:
                  URI:http://crl3.digicert.com/DigiCertHighAssuranceEVRootCA.crl

                Full Name:
                  URI:http://crl4.digicert.com/DigiCertHighAssuranceEVRootCA.crl

            X509v3 Certificate Policies: 
                Policy: 2.16.840.1.114412.3.2
                  CPS: http://www.digicert.com/ssl-cps-repository.htm
                  User Notice:
                    Explicit Text: 

            X509v3 Subject Key Identifier: 
                8F:E8:7E:F0:6D:32:6A:00:05:23:C7:70:97:6A:3A:90:FF:6B:EA:D4
            X509v3 Authority Key Identifier: 
                keyid:B1:3E:C3:69:03:F8:BF:47:01:D4:98:26:1A:08:02:EF:63:64:2B:C3

    Signature Algorithm: sha256WithRSAEncryption
         19:33:4a:0c:81:33:37:db:ad:36:c9:e4:c9:3a:bb:b5:1b:2e:
         7a:a2:e2:f4:43:42:17:9e:bf:4e:a1:4d:e1:b1:db:e9:81:dd:
         9f:01:f2:e4:88:d5:e9:fe:09:fd:21:c1:ec:5d:80:d2:f0:d6:
         c1:43:c2:fe:77:2b:db:f9:d7:91:33:ce:6c:d5:b2:19:3b:e6:
         2e:d6:c9:93:4f:88:40:8e:cd:e1:f5:7e:f1:0f:c6:59:56:72:
         e8:eb:6a:41:bd:1c:d5:46:d5:7c:49:ca:66:38:15:c1:bf:e0:
         91:70:77:87:dc:c9:8d:31:c9:0c:29:a2:33:ed:8d:e2:87:cd:
         89:8d:3f:1b:ff:d5:e0:1a:97:8b:7c:da:6d:fb:a8:c6:b2:3a:
         66:6b:7b:01:b3:cd:d8:a6:34:ec:12:01:ab:95:58:a5:c4:53:
         57:a8:60:e6:e7:02:12:a0:b9:23:64:a2:4d:bb:7c:81:25:64:
         21:be:cf:ee:42:18:43:97:bb:a5:37:06:af:4d:ff:26:a5:4d:
         61:4b:ec:46:41:b8:65:ce:b8:79:9e:08:96:0b:81:8c:8a:3b:
         8f:c7:99:8c:a3:2a:6e:98:6d:5e:61:c6:96:b7:8a:b9:61:2d:
         93:b8:eb:0e:04:43:d7:f5:fe:a6:f0:62:d4:99:6a:a5:c1:c1:
         f0:64:94:80
-----BEGIN CERTIFICATE-----
MIIGvDCCBaSgAwIBAgIQA/G04V86gvEUlniz19hHXDANBgkqhkiG9w0BAQsFADBs
MQswCQYDVQQGEwJVUzEVMBMGA1UEChMMRGlnaUNlcnQgSW5jMRkwFwYDVQQLExB3
d3cuZGlnaWNlcnQuY29tMSswKQYDVQQDEyJEaWdpQ2VydCBIaWdoIEFzc3VyYW5j
ZSBFViBSb290IENBMB4XDTEyMDQxODEyMDAwMFoXDTI3MDQxODEyMDAwMFowbDEL
MAkGA1UEBhMCVVMxFTATBgNVBAoTDERpZ2lDZXJ0IEluYzEZMBcGA1UECxMQd3d3
LmRpZ2ljZXJ0LmNvbTErMCkGA1UEAxMiRGlnaUNlcnQgRVYgQ29kZSBTaWduaW5n
IENBIChTSEEyKTCCASIwDQYJKoZIhvcNAQEBBQADggEPADCCAQoCggEBAKdT+g+y
tRPxZM+EgPyugDXRttfHoyysGiys8YSsOjUSOpKRulfkxMnzL6hIPLfWbtyXIrpR
eWGvQy8Nt5u0STGuRFg+pKGWp4dPI37DbGUkkFU+ocojfMVC6cR6YkWbfd5jdMue
YyX4hJqarUVPrn0fyBPLdZvJ4eGK+AsMmPTKPtBFqnoepViTNjS+Ky4rMVhmtDIQ
n53wUqHv6D7TdvJAWtz6aj0bS612sIxc7ja6g+owqEze8QsqWEGIrgCJqwPRFoIg
InbrXlQ4EmLh0nAk2+0fcNJkCYAt4radzh/yuyHzbNvYsxl7ilCf7+w2Clyat0rT
CKA5ef3dvz06CSUCAwEAAaOCA1gwggNUMBIGA1UdEwEB/wQIMAYBAf8CAQAwDgYD
VR0PAQH/BAQDAgGGMBMGA1UdJQQMMAoGCCsGAQUFBwMDMH8GCCsGAQUFBwEBBHMw
cTAkBggrBgEFBQcwAYYYaHR0cDovL29jc3AuZGlnaWNlcnQuY29tMEkGCCsGAQUF
BzAChj1odHRwOi8vY2FjZXJ0cy5kaWdpY2VydC5jb20vRGlnaUNlcnRIaWdoQXNz
dXJhbmNlRVZSb290Q0EuY3J0MIGPBgNVHR8EgYcwgYQwQKA+oDyGOmh0dHA6Ly9j
cmwzLmRpZ2ljZXJ0LmNvbS9EaWdpQ2VydEhpZ2hBc3N1cmFuY2VFVlJvb3RDQS5j
cmwwQKA+oDyGOmh0dHA6Ly9jcmw0LmRpZ2ljZXJ0LmNvbS9EaWdpQ2VydEhpZ2hB
c3N1cmFuY2VFVlJvb3RDQS5jcmwwggHEBgNVHSAEggG7MIIBtzCCAbMGCWCGSAGG
/WwDAjCCAaQwOgYIKwYBBQUHAgEWLmh0dHA6Ly93d3cuZGlnaWNlcnQuY29tL3Nz
bC1jcHMtcmVwb3NpdG9yeS5odG0wggFkBggrBgEFBQcCAjCCAVYeggFSAEEAbgB5
ACAAdQBzAGUAIABvAGYAIAB0AGgAaQBzACAAQwBlAHIAdABpAGYAaQBjAGEAdABl
ACAAYwBvAG4AcwB0AGkAdAB1AHQAZQBzACAAYQBjAGMAZQBwAHQAYQBuAGMAZQAg
AG8AZgAgAHQAaABlACAARABpAGcAaQBDAGUAcgB0ACAAQwBQAC8AQwBQAFMAIABh
AG4AZAAgAHQAaABlACAAUgBlAGwAeQBpAG4AZwAgAFAAYQByAHQAeQAgAEEAZwBy
AGUAZQBtAGUAbgB0ACAAdwBoAGkAYwBoACAAbABpAG0AaQB0ACAAbABpAGEAYgBp
AGwAaQB0AHkAIABhAG4AZAAgAGEAcgBlACAAaQBuAGMAbwByAHAAbwByAGEAdABl
AGQAIABoAGUAcgBlAGkAbgAgAGIAeQAgAHIAZQBmAGUAcgBlAG4AYwBlAC4wHQYD
VR0OBBYEFI/ofvBtMmoABSPHcJdqOpD/a+rUMB8GA1UdIwQYMBaAFLE+w2kD+L9H
AdSYJhoIAu9jZCvDMA0GCSqGSIb3DQEBCwUAA4IBAQAZM0oMgTM32602yeTJOru1
Gy56ouL0Q0IXnr9OoU3hsdvpgd2fAfLkiNXp/gn9IcHsXYDS8NbBQ8L+dyvb+deR
M85s1bIZO+Yu1smTT4hAjs3h9X7xD8ZZVnLo62pBvRzVRtV8ScpmOBXBv+CRcHeH
3MmNMckMKaIz7Y3ih82JjT8b/9XgGpeLfNpt+6jGsjpma3sBs83YpjTsEgGrlVil
xFNXqGDm5wISoLkjZKJNu3yBJWQhvs/uQhhDl7ulNwavTf8mpU1hS+xGQbhlzrh5
ngiWC4GMijuPx5mMoypumG1eYcaWt4q5YS2TuOsOBEPX9f6m8GLUmWqlwcHwZJSA
-----END CERTIFICATE-----

