Certificate:
    Data:
        Version: 3 (0x2)
        Serial Number:
            03:01:9a:02:3a:ff:58:b1:6b:d6:d5:ea:e6:17:f0:66
    Signature Algorithm: sha1WithRSAEncryption
        Issuer: C=US, O=DigiCert Inc, OU=www.digicert.com, CN=DigiCert Assured ID CA-1
        Validity
            Not Before: Oct 22 00:00:00 2014 GMT
            Not After : Oct 22 00:00:00 2024 GMT
        Subject: C=US, O=DigiCert, CN=DigiCert Timestamp Responder
        Subject Public Key Info:
            Public Key Algorithm: rsaEncryption
                Public-Key: (2048 bit)
                Modulus:
                    00:a3:64:5d:fc:7c:b3:e0:82:35:e0:e0:f6:c6:2a:
                    e6:49:75:3b:cc:6e:e0:53:a9:9f:1f:64:59:e6:7c:
                    6b:7f:6b:8c:9d:55:f8:92:e3:9e:d5:5a:63:5b:02:
                    49:50:d9:83:ce:6f:66:ee:dd:cb:85:e9:5f:a5:f9:
                    d4:87:74:88:44:3b:19:c9:e5:f5:91:9f:c6:14:39:
                    ac:24:ea:a8:4b:2c:91:89:cc:5e:28:f4:64:b6:50:
                    b7:f5:12:b3:73:96:0a:67:a3:be:61:9f:ae:f3:fd:
                    12:78:75:0e:a6:5b:14:fd:45:23:8e:86:44:55:7d:
                    18:86:05:8c:55:87:79:48:46:f7:ca:0e:8d:a7:de:
                    4e:5f:e2:a8:b6:2d:59:02:61:88:61:72:18:68:b9:
                    b8:7c:ee:e6:e7:34:2f:31:77:81:30:1f:bb:36:01:
                    8d:ef:27:e3:f7:9a:f0:4c:31:64:8d:e3:eb:fa:19:
                    87:a8:7e:cf:ec:8c:0c:36:5b:7a:c1:7a:b8:78:c7:
                    c9:06:2e:46:10:c8:8d:e8:04:60:db:bc:73:74:fa:
                    4e:d8:fe:aa:40:f1:b2:ce:70:46:83:e9:da:40:a1:
                    59:3a:d9:15:09:57:99:56:30:93:f3:c9:61:cc:d0:
                    08:cc:6b:ec:62:42:91:ac:02:c0:ef:a4:f0:89:11:
                    8f:77
                Exponent: 65537 (0x10001)
        X509v3 extensions:
            X509v3 Key Usage: critical
                Digital Signature
            X509v3 Basic Constraints: critical
                CA:FALSE
            X509v3 Extended Key Usage: critical
                Time Stamping
            X509v3 Certificate Policies: 
                Policy: 2.16.840.1.114412.7.1
                  CPS: https://www.digicert.com/CPS
                  User Notice:
                    Explicit Text: 
                Policy: 2.16.840.1.114412.3.21

            X509v3 Authority Key Identifier: 
                keyid:15:00:12:2B:13:98:B2:99:07:ED:1E:DF:A2:BE:57:0D:2B:67:02:CD

            X509v3 Subject Key Identifier: 
                61:5A:4D:24:B6:49:32:9D:4A:2A:79:1A:83:4B:F4:1E:89:C1:CA:7D
            X509v3 CRL Distribution Points: 

                Full Name:
                  URI:http://crl3.digicert.com/DigiCertAssuredIDCA-1.crl

                Full Name:
                  URI:http://crl4.digicert.com/DigiCertAssuredIDCA-1.crl

            Authority Information Access: 
                OCSP - URI:http://ocsp.digicert.com
                CA Issuers - URI:http://cacerts.digicert.com/DigiCertAssuredIDCA-1.crt

    Signature Algorithm: sha1WithRSAEncryption
         9d:25:7e:1b:33:4d:b2:26:81:5c:9b:86:ce:23:20:0f:80:87:
         e5:88:ff:ff:b1:d4:6a:2c:31:ed:3a:17:19:71:17:cd:a9:1b:
         bc:5a:16:39:00:9d:e3:6c:84:e4:5a:40:fb:de:06:01:8c:37:
         fa:9b:b1:9d:24:7e:fe:20:a4:57:ad:5b:b7:9a:b0:60:26:ea:
         69:57:21:5d:34:2f:1f:71:b0:83:94:19:05:6b:35:90:10:a0:
         7b:97:c7:f6:3f:e7:e2:11:41:a6:bd:62:d9:f0:27:3d:38:1d:
         28:6f:3a:52:09:f0:ec:70:62:d3:62:4b:b0:e0:73:a6:92:c0:
         d3:8e:31:d8:2f:e3:6d:17:13:06:ee:e4:03:b6:14:ab:f3:8f:
         43:a7:71:9d:21:dd:14:ca:15:5d:92:41:da:f9:0f:81:d1:99:
         74:0d:26:c4:0e:7f:1b:b5:f5:a0:f1:c6:77:06:28:15:e9:d8:
         93:e5:55:16:f0:bb:0a:ab:1c:db:5c:48:27:66:c8:a3:8b:0a:
         1c:e5:95:da:ae:c4:2e:59:a0:61:dd:da:f3:6d:a2:61:e9:8a:
         0b:6d:ec:12:18:bd:f7:55:54:40:03:92:2b:6b:c2:51:c2:0a:
         48:af:b0:d4:6e:e0:f4:14:0a:3a:1b:e3:8f:3d:ca:af:6a:8d:
         7b:dc:d8:44
-----BEGIN CERTIFICATE-----
MIIGajCCBVKgAwIBAgIQAwGaAjr/WLFr1tXq5hfwZjANBgkqhkiG9w0BAQUFADBi
MQswCQYDVQQGEwJVUzEVMBMGA1UEChMMRGlnaUNlcnQgSW5jMRkwFwYDVQQLExB3
d3cuZGlnaWNlcnQuY29tMSEwHwYDVQQDExhEaWdpQ2VydCBBc3N1cmVkIElEIENB
LTEwHhcNMTQxMDIyMDAwMDAwWhcNMjQxMDIyMDAwMDAwWjBHMQswCQYDVQQGEwJV
UzERMA8GA1UEChMIRGlnaUNlcnQxJTAjBgNVBAMTHERpZ2lDZXJ0IFRpbWVzdGFt
cCBSZXNwb25kZXIwggEiMA0GCSqGSIb3DQEBAQUAA4IBDwAwggEKAoIBAQCjZF38
fLPggjXg4PbGKuZJdTvMbuBTqZ8fZFnmfGt/a4ydVfiS457VWmNbAklQ2YPOb2bu
3cuF6V+l+dSHdIhEOxnJ5fWRn8YUOawk6qhLLJGJzF4o9GS2ULf1ErNzlgpno75h
n67z/RJ4dQ6mWxT9RSOOhkRVfRiGBYxVh3lIRvfKDo2n3k5f4qi2LVkCYYhhchho
ubh87ubnNC8xd4EwH7s2AY3vJ+P3mvBMMWSN4+v6GYeofs/sjAw2W3rBerh4x8kG
LkYQyI3oBGDbvHN0+k7Y/qpA8bLOcEaD6dpAoVk62RUJV5lWMJPzyWHM0AjMa+xi
QpGsAsDvpPCJEY93AgMBAAGjggM1MIIDMTAOBgNVHQ8BAf8EBAMCB4AwDAYDVR0T
AQH/BAIwADAWBgNVHSUBAf8EDDAKBggrBgEFBQcDCDCCAb8GA1UdIASCAbYwggGy
MIIBoQYJYIZIAYb9bAcBMIIBkjAoBggrBgEFBQcCARYcaHR0cHM6Ly93d3cuZGln
aWNlcnQuY29tL0NQUzCCAWQGCCsGAQUFBwICMIIBVh6CAVIAQQBuAHkAIAB1AHMA
ZQAgAG8AZgAgAHQAaABpAHMAIABDAGUAcgB0AGkAZgBpAGMAYQB0AGUAIABjAG8A
bgBzAHQAaQB0AHUAdABlAHMAIABhAGMAYwBlAHAAdABhAG4AYwBlACAAbwBmACAA
dABoAGUAIABEAGkAZwBpAEMAZQByAHQAIABDAFAALwBDAFAAUwAgAGEAbgBkACAA
dABoAGUAIABSAGUAbAB5AGkAbgBnACAAUABhAHIAdAB5ACAAQQBnAHIAZQBlAG0A
ZQBuAHQAIAB3AGgAaQBjAGgAIABsAGkAbQBpAHQAIABsAGkAYQBiAGkAbABpAHQA
eQAgAGEAbgBkACAAYQByAGUAIABpAG4AYwBvAHIAcABvAHIAYQB0AGUAZAAgAGgA
ZQByAGUAaQBuACAAYgB5ACAAcgBlAGYAZQByAGUAbgBjAGUALjALBglghkgBhv1s
AxUwHwYDVR0jBBgwFoAUFQASKxOYspkH7R7for5XDStnAs0wHQYDVR0OBBYEFGFa
TSS2STKdSip5GoNL9B6Jwcp9MH0GA1UdHwR2MHQwOKA2oDSGMmh0dHA6Ly9jcmwz
LmRpZ2ljZXJ0LmNvbS9EaWdpQ2VydEFzc3VyZWRJRENBLTEuY3JsMDigNqA0hjJo
dHRwOi8vY3JsNC5kaWdpY2VydC5jb20vRGlnaUNlcnRBc3N1cmVkSURDQS0xLmNy
bDB3BggrBgEFBQcBAQRrMGkwJAYIKwYBBQUHMAGGGGh0dHA6Ly9vY3NwLmRpZ2lj
ZXJ0LmNvbTBBBggrBgEFBQcwAoY1aHR0cDovL2NhY2VydHMuZGlnaWNlcnQuY29t
L0RpZ2lDZXJ0QXNzdXJlZElEQ0EtMS5jcnQwDQYJKoZIhvcNAQEFBQADggEBAJ0l
fhszTbImgVybhs4jIA+Ah+WI//+x1GosMe06FxlxF82pG7xaFjkAneNshORaQPve
BgGMN/qbsZ0kfv4gpFetW7easGAm6mlXIV00Lx9xsIOUGQVrNZAQoHuXx/Y/5+IR
Qaa9YtnwJz04HShvOlIJ8OxwYtNiS7Dgc6aSwNOOMdgv420XEwbu5AO2FKvzj0On
cZ0h3RTKFV2SQdr5D4HRmXQNJsQOfxu19aDxxncGKBXp2JPlVRbwuwqrHNtcSCdm
yKOLChzlldquxC5ZoGHd2vNtomHpigtt7BIYvfdVVEADkitrwlHCCkivsNRu4PQU
Cjob4489yq9qjXvc2EQ=
-----END CERTIFICATE-----

Certificate:
    Data:
        Version: 3 (0x2)
        Serial Number:
            0f:a8:49:06:15:d7:00:a0:be:21:76:fd:c5:ec:6d:bd
    Signature Algorithm: sha1WithRSAEncryption
        Issuer: C=US, O=DigiCert Inc, OU=www.digicert.com, CN=DigiCert Assured ID Root CA
        Validity
            Not Before: Feb 11 12:00:00 2011 GMT
            Not After : Feb 10 12:00:00 2026 GMT
        Subject: C=US, O=DigiCert Inc, OU=www.digicert.com, CN=DigiCert Assured ID Code Signing CA-1
        Subject Public Key Info:
            Public Key Algorithm: rsaEncryption
                Public-Key: (2048 bit)
                Modulus:
                    00:9c:7c:f9:a0:8f:0a:ca:89:4b:53:9a:3c:ec:19:
                    22:7f:0c:cb:f7:48:44:d0:3f:22:6e:9a:4f:fa:ce:
                    df:c6:d3:24:91:ff:a8:52:93:e7:72:f8:f1:46:86:
                    94:c5:ab:17:f4:78:7f:cb:7a:be:90:26:1c:7c:53:
                    2f:e5:83:e7:bb:6a:05:28:cc:a0:17:11:4b:18:20:
                    f3:b7:bd:f2:dc:cb:b8:86:40:45:1f:4f:f9:39:98:
                    d3:3b:eb:6f:69:a4:5c:01:2e:b1:66:e9:a6:b8:dc:
                    06:de:ae:8d:62:fe:44:27:82:a9:03:c3:fe:e6:26:
                    0b:93:49:71:e5:38:6d:4e:fe:80:5c:67:77:b5:d5:
                    6f:66:64:94:6b:bb:88:49:68:d8:d1:f4:7e:21:c1:
                    e6:c5:1e:c9:e0:96:b8:09:95:f9:4b:9e:ae:cc:31:
                    bd:6a:5a:42:a7:c4:05:47:7d:60:2b:d9:a1:5d:bd:
                    fb:56:93:ef:1b:fc:72:f9:df:3e:32:fd:dd:2a:2c:
                    32:46:da:5e:63:bc:d0:b8:cb:4c:10:35:fc:50:5f:
                    ac:43:44:7c:fe:84:44:50:b4:8c:2a:3d:74:0c:f4:
                    7a:8b:72:4b:e0:56:b5:13:b6:63:e9:3f:4e:49:23:
                    e7:06:16:f0:25:ab:01:f8:28:41:e6:c7:d4:64:3b:
                    5d:ab
                Exponent: 65537 (0x10001)
        X509v3 extensions:
            X509v3 Key Usage: critical
                Digital Signature, Certificate Sign, CRL Sign
            X509v3 Extended Key Usage: 
                Code Signing
            X509v3 Certificate Policies: 
                Policy: 2.16.840.1.114412.3
                  CPS: http://www.digicert.com/ssl-cps-repository.htm
                  User Notice:
                    Explicit Text: 

            X509v3 Basic Constraints: critical
                CA:TRUE, pathlen:0
            Authority Information Access: 
                OCSP - URI:http://ocsp.digicert.com
                CA Issuers - URI:http://cacerts.digicert.com/DigiCertAssuredIDRootCA.crt

            X509v3 CRL Distribution Points: 

                Full Name:
                  URI:http://crl3.digicert.com/DigiCertAssuredIDRootCA.crl

                Full Name:
                  URI:http://crl4.digicert.com/DigiCertAssuredIDRootCA.crl

            X509v3 Subject Key Identifier: 
                7B:68:CE:29:AA:C0:17:BE:49:7A:E1:E5:3F:D6:A7:F7:45:8F:35:32
            X509v3 Authority Key Identifier: 
                keyid:45:EB:A2:AF:F4:92:CB:82:31:2D:51:8B:A7:A7:21:9D:F3:6D:C8:0F

    Signature Algorithm: sha1WithRSAEncryption
         7b:72:1d:64:ff:88:c8:3a:c1:b7:e9:e7:a9:c4:87:bb:db:94:
         92:d7:90:59:33:fa:2b:87:de:a8:5b:80:25:3f:13:8f:9b:83:
         1b:7c:43:c4:e6:8c:df:39:3e:c3:15:ec:b0:da:3b:21:25:7b:
         24:c1:72:5d:b8:47:91:81:13:46:fa:9c:3f:6a:51:38:de:b4:
         25:cb:f0:ab:df:c5:28:01:54:79:10:46:24:d1:38:0f:26:a1:
         61:90:4d:ba:bd:28:e6:3f:f1:c4:aa:9b:f6:da:35:53:4f:c9:
         f2:3d:d3:6c:dc:23:ed:aa:a0:4d:67:09:f3:3a:80:3d:3c:fb:
         36:4c:90:e7:76:a4:dd:f2:3a:bf:56:35:2f:a2:4c:65:e8:e0:
         d4:da:d1:c7:c8:91:6a:2d:23:4f:37:3b:19:94:18:d4:d5:9c:
         10:3c:d5:b1:1c:19:ff:8f:c8:6b:9b:9e:f8:ae:9c:99:96:78:
         d1:cd:9c:51:15:5b:42:26:72:5a:8d:0a:4a:23:92:40:e8:86:
         de:22:c2:93:3a:d4:9b:68:a6:df:29:7f:06:b9:3c:0e:bd:9f:
         c4:86:9c:82:47:42:71:32:86:09:99:72:09:79:4b:9d:71:69:
         f5:41:ff:7f:39:77:64:f1:84:8d:be:8b:1e:b2:7d:68:a3:a5:
         90:b1:0c:ff
-----BEGIN CERTIFICATE-----
MIIGozCCBYugAwIBAgIQD6hJBhXXAKC+IXb9xextvTANBgkqhkiG9w0BAQUFADBl
MQswCQYDVQQGEwJVUzEVMBMGA1UEChMMRGlnaUNlcnQgSW5jMRkwFwYDVQQLExB3
d3cuZGlnaWNlcnQuY29tMSQwIgYDVQQDExtEaWdpQ2VydCBBc3N1cmVkIElEIFJv
b3QgQ0EwHhcNMTEwMjExMTIwMDAwWhcNMjYwMjEwMTIwMDAwWjBvMQswCQYDVQQG
EwJVUzEVMBMGA1UEChMMRGlnaUNlcnQgSW5jMRkwFwYDVQQLExB3d3cuZGlnaWNl
cnQuY29tMS4wLAYDVQQDEyVEaWdpQ2VydCBBc3N1cmVkIElEIENvZGUgU2lnbmlu
ZyBDQS0xMIIBIjANBgkqhkiG9w0BAQEFAAOCAQ8AMIIBCgKCAQEAnHz5oI8KyolL
U5o87BkifwzL90hE0D8ibppP+s7fxtMkkf+oUpPncvjxRoaUxasX9Hh/y3q+kCYc
fFMv5YPnu2oFKMygFxFLGCDzt73y3Mu4hkBFH0/5OZjTO+tvaaRcAS6xZummuNwG
3q6NYv5EJ4KpA8P+5iYLk0lx5ThtTv6AXGd3tdVvZmSUa7uISWjY0fR+IcHmxR7J
4Ja4CZX5S56uzDG9alpCp8QFR31gK9mhXb37VpPvG/xy+d8+Mv3dKiwyRtpeY7zQ
uMtMEDX8UF+sQ0R8/oREULSMKj10DPR6i3JL4Fa1E7Zj6T9OSSPnBhbwJasB+ChB
5sfUZDtdqwIDAQABo4IDQzCCAz8wDgYDVR0PAQH/BAQDAgGGMBMGA1UdJQQMMAoG
CCsGAQUFBwMDMIIBwwYDVR0gBIIBujCCAbYwggGyBghghkgBhv1sAzCCAaQwOgYI
KwYBBQUHAgEWLmh0dHA6Ly93d3cuZGlnaWNlcnQuY29tL3NzbC1jcHMtcmVwb3Np
dG9yeS5odG0wggFkBggrBgEFBQcCAjCCAVYeggFSAEEAbgB5ACAAdQBzAGUAIABv
AGYAIAB0AGgAaQBzACAAQwBlAHIAdABpAGYAaQBjAGEAdABlACAAYwBvAG4AcwB0
AGkAdAB1AHQAZQBzACAAYQBjAGMAZQBwAHQAYQBuAGMAZQAgAG8AZgAgAHQAaABl
ACAARABpAGcAaQBDAGUAcgB0ACAAQwBQAC8AQwBQAFMAIABhAG4AZAAgAHQAaABl
ACAAUgBlAGwAeQBpAG4AZwAgAFAAYQByAHQAeQAgAEEAZwByAGUAZQBtAGUAbgB0
ACAAdwBoAGkAYwBoACAAbABpAG0AaQB0ACAAbABpAGEAYgBpAGwAaQB0AHkAIABh
AG4AZAAgAGEAcgBlACAAaQBuAGMAbwByAHAAbwByAGEAdABlAGQAIABoAGUAcgBl
AGkAbgAgAGIAeQAgAHIAZQBmAGUAcgBlAG4AYwBlAC4wEgYDVR0TAQH/BAgwBgEB
/wIBADB5BggrBgEFBQcBAQRtMGswJAYIKwYBBQUHMAGGGGh0dHA6Ly9vY3NwLmRp
Z2ljZXJ0LmNvbTBDBggrBgEFBQcwAoY3aHR0cDovL2NhY2VydHMuZGlnaWNlcnQu
Y29tL0RpZ2lDZXJ0QXNzdXJlZElEUm9vdENBLmNydDCBgQYDVR0fBHoweDA6oDig
NoY0aHR0cDovL2NybDMuZGlnaWNlcnQuY29tL0RpZ2lDZXJ0QXNzdXJlZElEUm9v
dENBLmNybDA6oDigNoY0aHR0cDovL2NybDQuZGlnaWNlcnQuY29tL0RpZ2lDZXJ0
QXNzdXJlZElEUm9vdENBLmNybDAdBgNVHQ4EFgQUe2jOKarAF75JeuHlP9an90WP
NTIwHwYDVR0jBBgwFoAUReuir/SSy4IxLVGLp6chnfNtyA8wDQYJKoZIhvcNAQEF
BQADggEBAHtyHWT/iMg6wbfp56nEh7vblJLXkFkz+iuH3qhbgCU/E4+bgxt8Q8Tm
jN85PsMV7LDaOyEleyTBcl24R5GBE0b6nD9qUTjetCXL8KvfxSgBVHkQRiTROA8m
oWGQTbq9KOY/8cSqm/baNVNPyfI902zcI+2qoE1nCfM6gD08+zZMkOd2pN3yOr9W
NS+iTGXo4NTa0cfIkWotI083OxmUGNTVnBA81bEcGf+PyGubnviunJmWeNHNnFEV
W0ImclqNCkojkkDoht4iwpM61Jtopt8pfwa5PA69n8SGnIJHQnEyhgmZcgl5S51x
afVB/385d2TxhI2+ix6yfWijpZCxDP8=
-----END CERTIFICATE-----

Certificate:
    Data:
        Version: 3 (0x2)
        Serial Number:
            04:d5:4d:c0:a2:01:6b:26:3e:ee:b2:55:d3:21:05:6e
    Signature Algorithm: sha1WithRSAEncryption
        Issuer: C=US, O=DigiCert Inc, OU=www.digicert.com, CN=DigiCert Assured ID Code Signing CA-1
        Validity
            Not Before: Aug 13 00:00:00 2013 GMT
            Not After : Sep  2 12:00:00 2016 GMT
        Subject: C=US, ST=California, L=Pleasanton, O=OpenVPN Technologies, Inc., CN=OpenVPN Technologies, Inc.
        Subject Public Key Info:
            Public Key Algorithm: rsaEncryption
                Public-Key: (2048 bit)
                Modulus:
                    00:a1:04:62:09:91:50:b2:57:5b:c0:37:61:47:01:
                    c2:92:ba:96:e9:82:70:fd:b0:6e:1d:1f:40:34:3e:
                    72:0e:25:9d:6f:9f:df:59:bc:b9:36:5f:8c:ea:69:
                    68:9a:ed:7a:43:54:59:1d:b7:55:09:82:6a:d7:1a:
                    b3:f0:0c:b1:8e:d1:11:57:ef:fc:5e:b3:bf:57:30:
                    b3:3b:5b:a7:6f:d7:3f:3f:d7:f1:b2:25:64:10:22:
                    3a:7f:8f:5f:52:b6:fb:8b:31:a9:79:cc:50:f8:31:
                    88:0f:c8:37:c8:11:68:e7:4d:d4:f5:73:68:ef:55:
                    a1:db:e4:80:a8:15:12:8e:0d:94:4d:4d:70:be:02:
                    ed:65:ef:e4:86:a0:20:f5:0d:fd:fe:6d:2a:0d:fa:
                    b3:ff:98:85:fd:b1:bc:39:b7:9b:b0:a3:81:83:e4:
                    2d:55:7a:60:da:66:88:3c:33:07:c2:08:65:5d:a1:
                    a4:3e:eb:23:93:ea:10:b2:00:f5:5d:df:d6:6d:a4:
                    7e:ae:91:1e:eb:e4:31:13:c7:aa:fd:f8:e1:3d:2f:
                    ef:26:04:ea:c2:e3:73:90:21:81:6b:32:3d:c9:ef:
                    0f:84:11:a1:a7:92:10:23:ff:3c:d7:f1:f4:d4:30:
                    7f:6a:d1:38:16:d4:7b:93:82:3c:96:83:06:93:15:
                    08:8d
                Exponent: 65537 (0x10001)
        X509v3 extensions:
            X509v3 Authority Key Identifier: 
                keyid:7B:68:CE:29:AA:C0:17:BE:49:7A:E1:E5:3F:D6:A7:F7:45:8F:35:32

            X509v3 Subject Key Identifier: 
                9A:FE:50:CC:7C:72:3E:76:B4:9C:03:6A:97:A8:8C:81:35:CB:66:51
            X509v3 Key Usage: critical
                Digital Signature
            X509v3 Extended Key Usage: 
                Code Signing
            X509v3 CRL Distribution Points: 

                Full Name:
                  URI:http://crl3.digicert.com/assured-cs-2011a.crl

                Full Name:
                  URI:http://crl4.digicert.com/assured-cs-2011a.crl

            X509v3 Certificate Policies: 
                Policy: 2.16.840.1.114412.3.1
                  CPS: http://www.digicert.com/ssl-cps-repository.htm
                  User Notice:
                    Explicit Text: 

            Authority Information Access: 
                OCSP - URI:http://ocsp.digicert.com
                CA Issuers - URI:http://cacerts.digicert.com/DigiCertAssuredIDCodeSigningCA-1.crt

            X509v3 Basic Constraints: critical
                CA:FALSE
    Signature Algorithm: sha1WithRSAEncryption
         35:d3:e4:02:ab:7e:93:e4:c8:4f:74:47:5c:24:03:fb:af:99:
         33:5b:eb:29:ae:f7:6c:0c:ba:df:9e:ed:47:6e:26:ae:26:aa:
         5e:87:bb:55:e8:51:92:6d:2d:b9:86:d6:74:ef:d7:1a:be:7e:
         cd:c4:b5:7c:98:d6:5b:86:27:25:bd:09:e4:66:94:9c:3c:f6:
         8c:b4:06:31:d7:34:ee:94:8e:4a:7e:5c:84:9e:df:97:57:53:
         0a:17:e8:5c:91:e3:db:c6:1e:31:a5:d3:0b:72:50:e8:33:16:
         c2:37:28:cc:3f:c0:c7:21:f6:17:80:a9:f8:54:2b:57:51:31:
         65:24:26:be:91:88:5d:97:56:31:3e:ff:30:87:55:b6:0c:cf:
         6a:de:5f:7b:d7:e3:26:90:a5:1c:0b:47:0a:3b:fe:9d:be:da:
         d7:4b:53:53:49:ff:46:9b:aa:3e:4d:74:1d:7d:b0:11:50:1f:
         80:af:dc:41:38:a3:45:c3:6e:78:71:06:81:be:9d:5b:2b:d4:
         56:20:bf:ad:df:8e:4e:bd:58:e0:82:02:96:f5:c4:0c:06:fc:
         48:db:18:7f:f4:9f:ca:f4:89:86:6f:da:e7:c4:d7:22:4e:35:
         48:ba:c3:84:a5:e7:b5:91:75:c8:fd:6a:66:7f:a6:ee:38:38:
         80:2c:e9:be
-----BEGIN CERTIFICATE-----
MIIGtjCCBZ6gAwIBAgIQBNVNwKIBayY+7rJV0yEFbjANBgkqhkiG9w0BAQUFADBv
MQswCQYDVQQGEwJVUzEVMBMGA1UEChMMRGlnaUNlcnQgSW5jMRkwFwYDVQQLExB3
d3cuZGlnaWNlcnQuY29tMS4wLAYDVQQDEyVEaWdpQ2VydCBBc3N1cmVkIElEIENv
ZGUgU2lnbmluZyBDQS0xMB4XDTEzMDgxMzAwMDAwMFoXDTE2MDkwMjEyMDAwMFow
gYExCzAJBgNVBAYTAlVTMRMwEQYDVQQIEwpDYWxpZm9ybmlhMRMwEQYDVQQHEwpQ
bGVhc2FudG9uMSMwIQYDVQQKExpPcGVuVlBOIFRlY2hub2xvZ2llcywgSW5jLjEj
MCEGA1UEAxMaT3BlblZQTiBUZWNobm9sb2dpZXMsIEluYy4wggEiMA0GCSqGSIb3
DQEBAQUAA4IBDwAwggEKAoIBAQChBGIJkVCyV1vAN2FHAcKSupbpgnD9sG4dH0A0
PnIOJZ1vn99ZvLk2X4zqaWia7XpDVFkdt1UJgmrXGrPwDLGO0RFX7/xes79XMLM7
W6dv1z8/1/GyJWQQIjp/j19StvuLMal5zFD4MYgPyDfIEWjnTdT1c2jvVaHb5ICo
FRKODZRNTXC+Au1l7+SGoCD1Df3+bSoN+rP/mIX9sbw5t5uwo4GD5C1VemDaZog8
MwfCCGVdoaQ+6yOT6hCyAPVd39ZtpH6ukR7r5DETx6r9+OE9L+8mBOrC43OQIYFr
Mj3J7w+EEaGnkhAj/zzX8fTUMH9q0TgW1HuTgjyWgwaTFQiNAgMBAAGjggM5MIID
NTAfBgNVHSMEGDAWgBR7aM4pqsAXvkl64eU/1qf3RY81MjAdBgNVHQ4EFgQUmv5Q
zHxyPna0nANql6iMgTXLZlEwDgYDVR0PAQH/BAQDAgeAMBMGA1UdJQQMMAoGCCsG
AQUFBwMDMHMGA1UdHwRsMGowM6AxoC+GLWh0dHA6Ly9jcmwzLmRpZ2ljZXJ0LmNv
bS9hc3N1cmVkLWNzLTIwMTFhLmNybDAzoDGgL4YtaHR0cDovL2NybDQuZGlnaWNl
cnQuY29tL2Fzc3VyZWQtY3MtMjAxMWEuY3JsMIIBxAYDVR0gBIIBuzCCAbcwggGz
BglghkgBhv1sAwEwggGkMDoGCCsGAQUFBwIBFi5odHRwOi8vd3d3LmRpZ2ljZXJ0
LmNvbS9zc2wtY3BzLXJlcG9zaXRvcnkuaHRtMIIBZAYIKwYBBQUHAgIwggFWHoIB
UgBBAG4AeQAgAHUAcwBlACAAbwBmACAAdABoAGkAcwAgAEMAZQByAHQAaQBmAGkA
YwBhAHQAZQAgAGMAbwBuAHMAdABpAHQAdQB0AGUAcwAgAGEAYwBjAGUAcAB0AGEA
bgBjAGUAIABvAGYAIAB0AGgAZQAgAEQAaQBnAGkAQwBlAHIAdAAgAEMAUAAvAEMA
UABTACAAYQBuAGQAIAB0AGgAZQAgAFIAZQBsAHkAaQBuAGcAIABQAGEAcgB0AHkA
IABBAGcAcgBlAGUAbQBlAG4AdAAgAHcAaABpAGMAaAAgAGwAaQBtAGkAdAAgAGwA
aQBhAGIAaQBsAGkAdAB5ACAAYQBuAGQAIABhAHIAZQAgAGkAbgBjAG8AcgBwAG8A
cgBhAHQAZQBkACAAaABlAHIAZQBpAG4AIABiAHkAIAByAGUAZgBlAHIAZQBuAGMA
ZQAuMIGCBggrBgEFBQcBAQR2MHQwJAYIKwYBBQUHMAGGGGh0dHA6Ly9vY3NwLmRp
Z2ljZXJ0LmNvbTBMBggrBgEFBQcwAoZAaHR0cDovL2NhY2VydHMuZGlnaWNlcnQu
Y29tL0RpZ2lDZXJ0QXNzdXJlZElEQ29kZVNpZ25pbmdDQS0xLmNydDAMBgNVHRMB
Af8EAjAAMA0GCSqGSIb3DQEBBQUAA4IBAQA10+QCq36T5MhPdEdcJAP7r5kzW+sp
rvdsDLrfnu1HbiauJqpeh7tV6FGSbS25htZ079cavn7NxLV8mNZbhiclvQnkZpSc
PPaMtAYx1zTulI5KflyEnt+XV1MKF+hckePbxh4xpdMLclDoMxbCNyjMP8DHIfYX
gKn4VCtXUTFlJCa+kYhdl1YxPv8wh1W2DM9q3l971+MmkKUcC0cKO/6dvtrXS1NT
Sf9Gm6o+TXQdfbARUB+Ar9xBOKNFw254cQaBvp1bK9RWIL+t345OvVjgggKW9cQM
BvxI2xh/9J/K9ImGb9rnxNciTjVIusOEpee1kXXI/Wpmf6buODiALOm+
-----END CERTIFICATE-----

Certificate:
    Data:
        Version: 3 (0x2)
        Serial Number:
            06:fd:f9:03:96:03:ad:ea:00:0a:eb:3f:27:bb:ba:1b
    Signature Algorithm: sha1WithRSAEncryption
        Issuer: C=US, O=DigiCert Inc, OU=www.digicert.com, CN=DigiCert Assured ID Root CA
        Validity
            Not Before: Nov 10 00:00:00 2006 GMT
            Not After : Nov 10 00:00:00 2021 GMT
        Subject: C=US, O=DigiCert Inc, OU=www.digicert.com, CN=DigiCert Assured ID CA-1
        Subject Public Key Info:
            Public Key Algorithm: rsaEncryption
                Public-Key: (2048 bit)
                Modulus:
                    00:e8:82:2d:99:f9:ca:c2:42:95:a5:80:73:40:70:
                    d2:9e:56:54:5c:a9:c4:d2:41:06:8f:c9:33:fc:4d:
                    45:91:5c:81:9f:ed:2c:9c:f8:16:59:df:9e:b5:24:
                    15:c2:98:b9:b4:77:49:dc:89:c4:0a:da:af:cb:5e:
                    6b:ed:ad:b0:71:31:eb:cf:3a:40:0c:46:4d:93:ec:
                    8b:7a:36:08:03:ab:0c:34:fe:18:49:82:fe:c7:c7:
                    31:48:80:7c:1e:a2:0f:92:0e:50:c9:c6:87:eb:36:
                    3f:d8:30:c3:ff:a6:f7:fb:a2:cd:6f:73:23:fe:ac:
                    56:05:90:f0:32:21:16:89:c6:70:88:f9:05:97:7d:
                    a3:c7:43:dd:02:e8:3b:3d:ed:b1:41:a3:ed:3f:be:
                    db:95:48:c4:ee:1e:b3:f2:bc:0c:2b:99:d0:c6:5d:
                    12:42:81:e1:83:6e:82:73:3f:26:4b:14:90:ae:59:
                    66:0a:c4:8d:be:d2:ce:06:ae:ad:84:6f:48:84:9b:
                    4f:40:b9:f1:4c:f2:af:98:fb:f6:ce:40:5d:5c:f6:
                    a8:f1:2f:af:ec:89:22:f2:6b:18:65:b1:c1:73:ad:
                    d7:f1:d8:cf:1e:0a:74:5c:42:b8:68:7e:b7:d5:77:
                    0a:27:56:7c:0f:62:a4:3f:32:14:60:95:fd:07:04:
                    a2:09
                Exponent: 65537 (0x10001)
        X509v3 extensions:
            X509v3 Key Usage: critical
                Digital Signature, Certificate Sign, CRL Sign
            X509v3 Extended Key Usage: 
                TLS Web Server Authentication, TLS Web Client Authentication, Code Signing, E-mail Protection, Time Stamping
            X509v3 Certificate Policies: 
                Policy: 2.16.840.1.114412.0.1.4
                  CPS: http://www.digicert.com/ssl-cps-repository.htm
                  User Notice:
                    Explicit Text: 
                Policy: 2.16.840.1.114412.3.21

            X509v3 Basic Constraints: critical
                CA:TRUE, pathlen:0
            Authority Information Access: 
                OCSP - URI:http://ocsp.digicert.com
                CA Issuers - URI:http://cacerts.digicert.com/DigiCertAssuredIDRootCA.crt

            X509v3 CRL Distribution Points: 

                Full Name:
                  URI:http://crl3.digicert.com/DigiCertAssuredIDRootCA.crl

                Full Name:
                  URI:http://crl4.digicert.com/DigiCertAssuredIDRootCA.crl

            X509v3 Subject Key Identifier: 
                15:00:12:2B:13:98:B2:99:07:ED:1E:DF:A2:BE:57:0D:2B:67:02:CD
            X509v3 Authority Key Identifier: 
                keyid:45:EB:A2:AF:F4:92:CB:82:31:2D:51:8B:A7:A7:21:9D:F3:6D:C8:0F

    Signature Algorithm: sha1WithRSAEncryption
         46:50:3e:c9:b7:28:24:a7:38:1d:b6:5b:29:af:52:cf:52:e9:
         31:47:ab:56:5c:7b:d5:0d:0b:41:b3:ef:ec:75:1f:74:38:f2:
         b2:5c:61:a2:9c:95:c3:50:e4:82:b9:23:d1:ba:3a:86:72:ad:
         38:78:ac:75:5d:17:17:34:72:47:85:94:56:d1:eb:bb:36:84:
         77:cc:24:a5:f3:04:19:55:a9:e7:e3:e7:ab:62:cd:fb:8b:2d:
         90:c2:c0:d2:b5:94:bd:5e:4f:b1:05:d2:0e:3d:1a:a9:14:5b:
         a6:86:31:62:a8:a8:33:e4:9b:39:a7:c4:f5:ce:1d:78:76:94:
         25:73:e4:2a:ab:cf:9c:76:4b:ed:5f:c2:4b:16:e4:4b:70:4c:
         00:89:1e:fc:c5:79:bc:4c:12:57:fe:5f:e1:1e:bc:02:5d:a8:
         fe:fb:07:38:4f:0d:c6:5d:91:b9:0f:67:45:cd:d6:83:ed:e7:
         92:0d:8d:b1:69:8c:4f:fb:59:e0:23:0f:d2:aa:ae:00:7c:ee:
         9c:42:0e:cf:91:d7:27:b7:16:ee:0f:c3:bd:7c:0a:a0:ee:2c:
         08:55:85:22:b8:eb:18:1a:4d:fc:2a:21:ad:49:31:83:47:95:
         77:71:dc:b1:1b:4b:4b:1c:10:9c:77:14:c1:9d:4f:2f:5a:95:
         08:29:10:26
-----BEGIN CERTIFICATE-----
MIIGzTCCBbWgAwIBAgIQBv35A5YDreoACus/J7u6GzANBgkqhkiG9w0BAQUFADBl
MQswCQYDVQQGEwJVUzEVMBMGA1UEChMMRGlnaUNlcnQgSW5jMRkwFwYDVQQLExB3
d3cuZGlnaWNlcnQuY29tMSQwIgYDVQQDExtEaWdpQ2VydCBBc3N1cmVkIElEIFJv
b3QgQ0EwHhcNMDYxMTEwMDAwMDAwWhcNMjExMTEwMDAwMDAwWjBiMQswCQYDVQQG
EwJVUzEVMBMGA1UEChMMRGlnaUNlcnQgSW5jMRkwFwYDVQQLExB3d3cuZGlnaWNl
cnQuY29tMSEwHwYDVQQDExhEaWdpQ2VydCBBc3N1cmVkIElEIENBLTEwggEiMA0G
CSqGSIb3DQEBAQUAA4IBDwAwggEKAoIBAQDogi2Z+crCQpWlgHNAcNKeVlRcqcTS
QQaPyTP8TUWRXIGf7Syc+BZZ3561JBXCmLm0d0ncicQK2q/LXmvtrbBxMevPOkAM
Rk2T7It6NggDqww0/hhJgv7HxzFIgHweog+SDlDJxofrNj/YMMP/pvf7os1vcyP+
rFYFkPAyIRaJxnCI+QWXfaPHQ90C6Ds97bFBo+0/vtuVSMTuHrPyvAwrmdDGXRJC
geGDboJzPyZLFJCuWWYKxI2+0s4Grq2Eb0iEm09AufFM8q+Y+/bOQF1c9qjxL6/s
iSLyaxhlscFzrdfx2M8eCnRcQrhofrfVdwonVnwPYqQ/MhRglf0HBKIJAgMBAAGj
ggN6MIIDdjAOBgNVHQ8BAf8EBAMCAYYwOwYDVR0lBDQwMgYIKwYBBQUHAwEGCCsG
AQUFBwMCBggrBgEFBQcDAwYIKwYBBQUHAwQGCCsGAQUFBwMIMIIB0gYDVR0gBIIB
yTCCAcUwggG0BgpghkgBhv1sAAEEMIIBpDA6BggrBgEFBQcCARYuaHR0cDovL3d3
dy5kaWdpY2VydC5jb20vc3NsLWNwcy1yZXBvc2l0b3J5Lmh0bTCCAWQGCCsGAQUF
BwICMIIBVh6CAVIAQQBuAHkAIAB1AHMAZQAgAG8AZgAgAHQAaABpAHMAIABDAGUA
cgB0AGkAZgBpAGMAYQB0AGUAIABjAG8AbgBzAHQAaQB0AHUAdABlAHMAIABhAGMA
YwBlAHAAdABhAG4AYwBlACAAbwBmACAAdABoAGUAIABEAGkAZwBpAEMAZQByAHQA
IABDAFAALwBDAFAAUwAgAGEAbgBkACAAdABoAGUAIABSAGUAbAB5AGkAbgBnACAA
UABhAHIAdAB5ACAAQQBnAHIAZQBlAG0AZQBuAHQAIAB3AGgAaQBjAGgAIABsAGkA
bQBpAHQAIABsAGkAYQBiAGkAbABpAHQAeQAgAGEAbgBkACAAYQByAGUAIABpAG4A
YwBvAHIAcABvAHIAYQB0AGUAZAAgAGgAZQByAGUAaQBuACAAYgB5ACAAcgBlAGYA
ZQByAGUAbgBjAGUALjALBglghkgBhv1sAxUwEgYDVR0TAQH/BAgwBgEB/wIBADB5
BggrBgEFBQcBAQRtMGswJAYIKwYBBQUHMAGGGGh0dHA6Ly9vY3NwLmRpZ2ljZXJ0
LmNvbTBDBggrBgEFBQcwAoY3aHR0cDovL2NhY2VydHMuZGlnaWNlcnQuY29tL0Rp
Z2lDZXJ0QXNzdXJlZElEUm9vdENBLmNydDCBgQYDVR0fBHoweDA6oDigNoY0aHR0
cDovL2NybDMuZGlnaWNlcnQuY29tL0RpZ2lDZXJ0QXNzdXJlZElEUm9vdENBLmNy
bDA6oDigNoY0aHR0cDovL2NybDQuZGlnaWNlcnQuY29tL0RpZ2lDZXJ0QXNzdXJl
ZElEUm9vdENBLmNybDAdBgNVHQ4EFgQUFQASKxOYspkH7R7for5XDStnAs0wHwYD
VR0jBBgwFoAUReuir/SSy4IxLVGLp6chnfNtyA8wDQYJKoZIhvcNAQEFBQADggEB
AEZQPsm3KCSnOB22WymvUs9S6TFHq1Zce9UNC0Gz7+x1H3Q48rJcYaKclcNQ5IK5
I9G6OoZyrTh4rHVdFxc0ckeFlFbR67s2hHfMJKXzBBlVqefj56tizfuLLZDCwNK1
lL1eT7EF0g49GqkUW6aGMWKoqDPkmzmnxPXOHXh2lCVz5Cqrz5x2S+1fwksW5Etw
TACJHvzFebxMElf+X+EevAJdqP77BzhPDcZdkbkPZ0XN1oPt55INjbFpjE/7WeAj
D9KqrgB87pxCDs+R1ye3Fu4Pw718CqDuLAhVhSK46xgaTfwqIa1JMYNHlXdx3LEb
S0scEJx3FMGdTy9alQgpECY=
-----END CERTIFICATE-----

