Certificate:
    Data:
        Version: 3 (0x2)
        Serial Number:
            19:1a:32:cb:75:9c:97:b8:cf:ac:11:8d:d5:12:7f:49
    Signature Algorithm: sha256WithRSAEncryption
        Issuer: C=US, O=VeriSign, Inc., OU=VeriSign Trust Network, OU=(c) 2006 VeriSign, Inc. - For authorized use only, CN=VeriSign Class 3 Public Primary Certification Authority - G5
        Validity
            Not Before: Mar  4 00:00:00 2014 GMT
            Not After : Mar  3 23:59:59 2024 GMT
        Subject: C=US, O=Symantec Corporation, OU=Symantec Trust Network, CN=Symantec Class 3 Extended Validation Code Signing CA - G2
        Subject Public Key Info:
            Public Key Algorithm: rsaEncryption
                Public-Key: (2048 bit)
                Modulus:
                    00:d0:18:02:ee:ed:a2:8d:08:58:63:0f:26:d7:dd:
                    22:7b:88:f6:e4:c7:ec:3b:26:18:78:d3:c7:a4:20:
                    53:8d:83:7c:a5:3f:7e:a5:c8:2b:47:df:0d:f5:a6:
                    d9:c3:1d:25:93:60:cf:7c:dc:ea:03:2c:be:78:7f:
                    5c:48:6d:a7:02:d9:49:f8:a1:eb:eb:9a:61:7c:9f:
                    c0:26:d6:dc:15:d8:b8:10:7c:20:ba:5e:f4:28:f6:
                    a8:ea:a7:5c:7c:c6:9c:90:90:34:3c:b6:22:ac:fe:
                    ba:0c:3a:1e:d6:5e:84:b6:5b:f0:a3:81:70:78:8a:
                    8d:46:52:7b:fc:db:49:f3:29:13:11:74:4f:8d:16:
                    b3:c2:e3:a0:2d:c7:03:04:9d:cc:c3:72:e1:0e:0c:
                    fb:02:8e:f1:26:17:7b:6e:ae:f8:b7:33:8b:a6:61:
                    4b:45:df:f2:25:44:c7:f7:b0:98:23:36:dc:28:79:
                    0a:e8:9b:72:88:a8:d8:e8:ae:7b:7f:0a:64:45:a5:
                    f0:57:92:9a:77:06:45:1e:eb:9f:e8:66:f3:7a:7d:
                    92:81:5f:00:2d:1e:b8:f6:56:13:5a:62:0d:b7:47:
                    a1:8f:72:ef:83:5e:82:e0:94:98:e1:ac:a5:ad:86:
                    37:e0:a7:d3:ba:b1:3e:7a:eb:45:a8:f1:c1:44:7d:
                    e2:03
                Exponent: 65537 (0x10001)
        X509v3 extensions:
            X509v3 Basic Constraints: critical
                CA:TRUE, pathlen:0
            X509v3 CRL Distribution Points: 

                Full Name:
                  URI:http://s.symcb.com/pca3-g5.crl

            X509v3 Extended Key Usage: critical
                Code Signing
            X509v3 Key Usage: critical
                Certificate Sign, CRL Sign
            Authority Information Access: 
                OCSP - URI:http://s.symcd.com

            X509v3 Certificate Policies: 
                Policy: X509v3 Any Policy
                  CPS: https://d.symcb.com/cps
                  User Notice:
                    Explicit Text: https://d.symcb.com/rpa

            X509v3 Subject Alternative Name: 
                DirName:/CN=SymantecPKI-1-629
            X509v3 Subject Key Identifier: 
                16:66:DE:4A:34:E3:50:A7:11:86:03:B1:6C:A9:C6:AC:CD:59:6E:9B
            X509v3 Authority Key Identifier: 
                keyid:7F:D3:65:A7:C2:DD:EC:BB:F0:30:09:F3:43:39:FA:02:AF:33:31:33

    Signature Algorithm: sha256WithRSAEncryption
         3f:5b:19:f3:fa:13:d5:75:38:2a:5a:ee:9f:5a:a0:4c:a9:1d:
         c5:cc:94:ee:de:15:fe:f5:10:6e:a4:1b:a5:64:83:54:18:58:
         c4:0b:28:a1:85:c3:4e:74:e5:ff:89:7c:fe:d5:ed:3c:ba:71:
         9f:56:02:26:8f:16:2a:88:fe:b0:a3:27:22:ce:4b:e2:38:8e:
         00:a6:3a:86:5f:9d:e5:3e:a8:de:64:49:41:74:41:21:fd:07:
         c8:84:17:da:1d:65:30:82:cb:26:4f:39:d6:04:27:a4:81:b1:
         4b:49:c3:23:8b:7e:02:32:18:27:b7:ab:0b:f3:18:72:b6:a4:
         ee:67:06:6f:38:a6:58:8d:e0:f1:7e:5d:a4:60:c6:a8:e5:50:
         5f:e0:e8:ba:e2:8f:99:58:b6:b5:a0:a8:76:f1:a2:f1:1c:88:
         41:72:7e:52:97:9b:0a:36:99:8d:50:f7:01:eb:3c:e7:f0:22:
         6a:e5:35:8c:63:36:8a:1a:b1:d9:67:66:5f:97:1a:ef:a8:20:
         9d:f0:2f:ba:6c:ce:d9:94:85:00:f1:58:f1:7d:c9:7c:22:b5:
         07:5d:02:c6:e6:0b:bf:ab:93:93:ff:27:18:8e:33:36:7e:57:
         34:f1:c3:af:04:c1:84:f1:56:b3:e8:87:83:36:f8:d3:0a:31:
         dc:6e:2c:6d
-----BEGIN CERTIFICATE-----
MIIFVjCCBD6gAwIBAgIQGRoyy3Wcl7jPrBGN1RJ/STANBgkqhkiG9w0BAQsFADCB
yjELMAkGA1UEBhMCVVMxFzAVBgNVBAoTDlZlcmlTaWduLCBJbmMuMR8wHQYDVQQL
ExZWZXJpU2lnbiBUcnVzdCBOZXR3b3JrMTowOAYDVQQLEzEoYykgMjAwNiBWZXJp
U2lnbiwgSW5jLiAtIEZvciBhdXRob3JpemVkIHVzZSBvbmx5MUUwQwYDVQQDEzxW
ZXJpU2lnbiBDbGFzcyAzIFB1YmxpYyBQcmltYXJ5IENlcnRpZmljYXRpb24gQXV0
aG9yaXR5IC0gRzUwHhcNMTQwMzA0MDAwMDAwWhcNMjQwMzAzMjM1OTU5WjCBkTEL
MAkGA1UEBhMCVVMxHTAbBgNVBAoTFFN5bWFudGVjIENvcnBvcmF0aW9uMR8wHQYD
VQQLExZTeW1hbnRlYyBUcnVzdCBOZXR3b3JrMUIwQAYDVQQDEzlTeW1hbnRlYyBD
bGFzcyAzIEV4dGVuZGVkIFZhbGlkYXRpb24gQ29kZSBTaWduaW5nIENBIC0gRzIw
ggEiMA0GCSqGSIb3DQEBAQUAA4IBDwAwggEKAoIBAQDQGALu7aKNCFhjDybX3SJ7
iPbkx+w7Jhh408ekIFONg3ylP36lyCtH3w31ptnDHSWTYM983OoDLL54f1xIbacC
2Un4oevrmmF8n8Am1twV2LgQfCC6XvQo9qjqp1x8xpyQkDQ8tiKs/roMOh7WXoS2
W/CjgXB4io1GUnv820nzKRMRdE+NFrPC46AtxwMEnczDcuEODPsCjvEmF3turvi3
M4umYUtF3/IlRMf3sJgjNtwoeQrom3KIqNjornt/CmRFpfBXkpp3BkUe65/oZvN6
fZKBXwAtHrj2VhNaYg23R6GPcu+DXoLglJjhrKWthjfgp9O6sT5660Wo8cFEfeID
AgMBAAGjggFtMIIBaTASBgNVHRMBAf8ECDAGAQH/AgEAMC8GA1UdHwQoMCYwJKAi
oCCGHmh0dHA6Ly9zLnN5bWNiLmNvbS9wY2EzLWc1LmNybDAWBgNVHSUBAf8EDDAK
BggrBgEFBQcDAzAOBgNVHQ8BAf8EBAMCAQYwLgYIKwYBBQUHAQEEIjAgMB4GCCsG
AQUFBzABhhJodHRwOi8vcy5zeW1jZC5jb20wXwYDVR0gBFgwVjBUBgRVHSAAMEww
IwYIKwYBBQUHAgEWF2h0dHBzOi8vZC5zeW1jYi5jb20vY3BzMCUGCCsGAQUFBwIC
MBkaF2h0dHBzOi8vZC5zeW1jYi5jb20vcnBhMCkGA1UdEQQiMCCkHjAcMRowGAYD
VQQDExFTeW1hbnRlY1BLSS0xLTYyOTAdBgNVHQ4EFgQUFmbeSjTjUKcRhgOxbKnG
rM1ZbpswHwYDVR0jBBgwFoAUf9Nlp8Ld7LvwMAnzQzn6Aq8zMTMwDQYJKoZIhvcN
AQELBQADggEBAD9bGfP6E9V1OCpa7p9aoEypHcXMlO7eFf71EG6kG6Vkg1QYWMQL
KKGFw0505f+JfP7V7Ty6cZ9WAiaPFiqI/rCjJyLOS+I4jgCmOoZfneU+qN5kSUF0
QSH9B8iEF9odZTCCyyZPOdYEJ6SBsUtJwyOLfgIyGCe3qwvzGHK2pO5nBm84pliN
4PF+XaRgxqjlUF/g6Lrij5lYtrWgqHbxovEciEFyflKXmwo2mY1Q9wHrPOfwImrl
NYxjNooasdlnZl+XGu+oIJ3wL7psztmUhQDxWPF9yXwitQddAsbmC7+rk5P/JxiO
MzZ+VzTxw68EwYTxVrPoh4M2+NMKMdxuLG0=
-----END CERTIFICATE-----

Certificate:
    Data:
        Version: 3 (0x2)
        Serial Number:
            33:fd:c5:52:d0:52:00:3c:04:dd:b5:0d:92:00:12:0f
    Signature Algorithm: sha256WithRSAEncryption
        Issuer: C=US, O=Symantec Corporation, OU=Symantec Trust Network, CN=Symantec Class 3 Extended Validation Code Signing CA - G2
        Validity
            Not Before: Jan 13 00:00:00 2016 GMT
            Not After : Dec 31 23:59:59 2018 GMT
        Subject: jurisdictionC=KR/businessCategory=Private Organization/serialNumber=101-81-47345, C=KR, ST=Seoul, L=Jung-gu, O=MarkAny Inc., CN=MarkAny Inc.
        Subject Public Key Info:
            Public Key Algorithm: rsaEncryption
                Public-Key: (2048 bit)
                Modulus:
                    00:c7:4b:bd:c1:7b:c7:5e:fa:5c:2f:a1:e6:02:cc:
                    80:eb:3e:09:d9:75:2d:63:67:36:3e:84:2b:d2:22:
                    a0:db:d3:97:7f:ae:ed:91:ed:32:05:63:a2:d6:5c:
                    73:69:73:7d:ad:b2:65:d6:c1:9b:8c:f1:2b:3d:7a:
                    5c:b8:c3:ac:37:d0:dd:8d:d4:13:d6:85:1e:90:6c:
                    e7:57:b1:61:5f:6b:79:e8:46:db:ab:df:2a:90:01:
                    8c:36:3b:8d:61:ab:30:7e:01:64:f2:f6:e6:33:a3:
                    c4:8c:c9:54:f3:33:a8:a2:f7:5e:fa:6b:64:e5:6f:
                    fc:0f:57:4a:7f:d9:ce:ad:b7:de:5f:1f:c2:d7:76:
                    58:5d:84:b6:9b:68:de:95:9b:7a:77:8c:5e:88:94:
                    dc:12:42:1a:24:8d:e6:bb:7d:77:08:8b:d1:05:e7:
                    9b:c4:dc:f8:32:01:77:03:01:6d:29:f4:c6:ec:65:
                    7e:a4:01:28:30:d2:10:d8:ef:9a:68:c6:a2:b0:94:
                    b3:b3:15:30:c1:45:7d:7d:9b:3e:ca:da:e4:f7:d7:
                    50:8e:aa:b3:8f:68:8f:67:09:b7:7c:af:d8:bc:c3:
                    be:c5:83:3a:a8:3b:25:cc:d0:b9:28:93:b9:e8:0b:
                    1e:87:2b:f9:6e:7b:cc:72:f2:6d:4f:fd:2d:f0:ba:
                    a3:81
                Exponent: 65537 (0x10001)
        X509v3 extensions:
            X509v3 Subject Alternative Name: 
                othername:<unsupported>
            X509v3 Basic Constraints: 
                CA:FALSE
            X509v3 Key Usage: critical
                Digital Signature
            X509v3 CRL Distribution Points: 

                Full Name:
                  URI:http://sw.symcb.com/sw.crl

            X509v3 Certificate Policies: 
                Policy: 2.16.840.1.113733.1.7.23.6
                  CPS: https://d.symcb.com/cps
                  User Notice:
                    Explicit Text: https://d.symcb.com/rpa

            X509v3 Extended Key Usage: critical
                Code Signing
            X509v3 Authority Key Identifier: 
                keyid:16:66:DE:4A:34:E3:50:A7:11:86:03:B1:6C:A9:C6:AC:CD:59:6E:9B

            X509v3 Subject Key Identifier: 
                12:FA:59:6B:4B:49:9E:C3:0F:80:B9:38:CC:FE:9F:0E:91:F8:79:24
            Authority Information Access: 
                OCSP - URI:http://sw.symcd.com
                CA Issuers - URI:http://sw1.symcb.com/sw.crt

    Signature Algorithm: sha256WithRSAEncryption
         37:cf:12:6b:85:57:9e:2b:3f:56:ab:de:17:83:5c:61:c5:4b:
         7b:f1:18:62:74:20:d4:38:01:5d:a9:54:c7:e7:c9:82:8a:ee:
         9e:33:66:8c:db:06:72:b6:f1:0e:52:36:2a:7f:e1:ed:4b:50:
         39:44:bc:82:f7:cb:6d:13:fa:c3:04:02:46:02:03:7a:ba:1e:
         dc:ea:c9:5d:9c:c8:11:f6:74:2e:5d:1d:60:14:1e:b5:d8:c8:
         86:e5:fb:84:7a:76:cb:f8:9c:ba:f3:4c:2d:9f:11:c6:16:d9:
         61:d0:ea:4d:da:29:97:49:6b:47:3e:63:24:db:9e:7d:f1:cb:
         ab:c8:16:65:92:3d:4b:24:ae:4f:7f:e6:92:f9:c9:7c:6a:f8:
         38:cb:ed:8c:4a:f9:b4:3a:d4:29:dc:70:21:60:7f:cf:df:93:
         9f:28:5c:df:6c:86:c7:54:29:f0:5e:56:8a:c7:37:cf:91:ad:
         c9:27:40:97:38:59:d1:16:02:8f:42:23:4e:15:1a:d5:4d:47:
         10:b2:8b:91:c0:88:7e:b1:65:78:dc:20:44:35:c7:0c:79:18:
         6c:6d:2a:06:52:a9:fd:d5:a0:4d:5f:a6:75:46:74:bb:15:18:
         f1:94:0e:2e:ed:61:aa:89:44:f8:87:46:b0:be:50:b7:99:45:
         59:26:f5:2d
-----BEGIN CERTIFICATE-----
MIIFWTCCBEGgAwIBAgIQM/3FUtBSADwE3bUNkgASDzANBgkqhkiG9w0BAQsFADCB
kTELMAkGA1UEBhMCVVMxHTAbBgNVBAoTFFN5bWFudGVjIENvcnBvcmF0aW9uMR8w
HQYDVQQLExZTeW1hbnRlYyBUcnVzdCBOZXR3b3JrMUIwQAYDVQQDEzlTeW1hbnRl
YyBDbGFzcyAzIEV4dGVuZGVkIFZhbGlkYXRpb24gQ29kZSBTaWduaW5nIENBIC0g
RzIwHhcNMTYwMTEzMDAwMDAwWhcNMTgxMjMxMjM1OTU5WjCBqDETMBEGCysGAQQB
gjc8AgEDEwJLUjEdMBsGA1UEDxMUUHJpdmF0ZSBPcmdhbml6YXRpb24xFTATBgNV
BAUTDDEwMS04MS00NzM0NTELMAkGA1UEBhMCS1IxDjAMBgNVBAgMBVNlb3VsMRAw
DgYDVQQHDAdKdW5nLWd1MRUwEwYDVQQKDAxNYXJrQW55IEluYy4xFTATBgNVBAMU
DE1hcmtBbnkgSW5jLjCCASIwDQYJKoZIhvcNAQEBBQADggEPADCCAQoCggEBAMdL
vcF7x176XC+h5gLMgOs+Cdl1LWNnNj6EK9IioNvTl3+u7ZHtMgVjotZcc2lzfa2y
ZdbBm4zxKz16XLjDrDfQ3Y3UE9aFHpBs51exYV9reehG26vfKpABjDY7jWGrMH4B
ZPL25jOjxIzJVPMzqKL3XvprZOVv/A9XSn/Zzq233l8fwtd2WF2Etpto3pWbeneM
XoiU3BJCGiSN5rt9dwiL0QXnm8Tc+DIBdwMBbSn0xuxlfqQBKDDSENjvmmjGorCU
s7MVMMFFfX2bPsra5PfXUI6qs49oj2cJt3yv2LzDvsWDOqg7JczQuSiTuegLHocr
+W57zHLybU/9LfC6o4ECAwEAAaOCAZIwggGOMCoGA1UdEQQjMCGgHwYIKwYBBQUH
CAOgEzARDA9LUi0xMDEtODEtNDczNDUwCQYDVR0TBAIwADAOBgNVHQ8BAf8EBAMC
B4AwKwYDVR0fBCQwIjAgoB6gHIYaaHR0cDovL3N3LnN5bWNiLmNvbS9zdy5jcmww
ZgYDVR0gBF8wXTBbBgtghkgBhvhFAQcXBjBMMCMGCCsGAQUFBwIBFhdodHRwczov
L2Quc3ltY2IuY29tL2NwczAlBggrBgEFBQcCAjAZDBdodHRwczovL2Quc3ltY2Iu
Y29tL3JwYTAWBgNVHSUBAf8EDDAKBggrBgEFBQcDAzAfBgNVHSMEGDAWgBQWZt5K
NONQpxGGA7FsqcaszVlumzAdBgNVHQ4EFgQUEvpZa0tJnsMPgLk4zP6fDpH4eSQw
WAYIKwYBBQUHAQEETDBKMB8GCCsGAQUFBzABhhNodHRwOi8vc3cuc3ltY2QuY29t
MCcGCCsGAQUFBzAChhtodHRwOi8vc3cxLnN5bWNiLmNvbS9zdy5jcnQwDQYJKoZI
hvcNAQELBQADggEBADfPEmuFV54rP1ar3heDXGHFS3vxGGJ0INQ4AV2pVMfnyYKK
7p4zZozbBnK28Q5SNip/4e1LUDlEvIL3y20T+sMEAkYCA3q6HtzqyV2cyBH2dC5d
HWAUHrXYyIbl+4R6dsv4nLrzTC2fEcYW2WHQ6k3aKZdJa0c+YyTbnn3xy6vIFmWS
PUskrk9/5pL5yXxq+DjL7YxK+bQ61CnccCFgf8/fk58oXN9shsdUKfBeVorHN8+R
rcknQJc4WdEWAo9CI04VGtVNRxCyi5HAiH6xZXjcIEQ1xwx5GGxtKgZSqf3VoE1f
pnVGdLsVGPGUDi7tYaqJRPiHRrC+ULeZRVkm9S0=
-----END CERTIFICATE-----

