Certificate:
    Data:
        Version: 3 (0x2)
        Serial Number:
            02:ac:5c:26:6a:0b:40:9b:8f:0b:79:f2:ae:46:25:77
    Signature Algorithm: sha1WithRSAEncryption
        Issuer: C=US, O=DigiCert Inc, OU=www.digicert.com, CN=DigiCert High Assurance EV Root CA
        Validity
            Not Before: Nov 10 00:00:00 2006 GMT
            Not After : Nov 10 00:00:00 2031 GMT
        Subject: C=US, O=DigiCert Inc, OU=www.digicert.com, CN=DigiCert High Assurance EV Root CA
        Subject Public Key Info:
            Public Key Algorithm: rsaEncryption
                Public-Key: (2048 bit)
                Modulus:
                    00:c6:cc:e5:73:e6:fb:d4:bb:e5:2d:2d:32:a6:df:
                    e5:81:3f:c9:cd:25:49:b6:71:2a:c3:d5:94:34:67:
                    a2:0a:1c:b0:5f:69:a6:40:b1:c4:b7:b2:8f:d0:98:
                    a4:a9:41:59:3a:d3:dc:94:d6:3c:db:74:38:a4:4a:
                    cc:4d:25:82:f7:4a:a5:53:12:38:ee:f3:49:6d:71:
                    91:7e:63:b6:ab:a6:5f:c3:a4:84:f8:4f:62:51:be:
                    f8:c5:ec:db:38:92:e3:06:e5:08:91:0c:c4:28:41:
                    55:fb:cb:5a:89:15:7e:71:e8:35:bf:4d:72:09:3d:
                    be:3a:38:50:5b:77:31:1b:8d:b3:c7:24:45:9a:a7:
                    ac:6d:00:14:5a:04:b7:ba:13:eb:51:0a:98:41:41:
                    22:4e:65:61:87:81:41:50:a6:79:5c:89:de:19:4a:
                    57:d5:2e:e6:5d:1c:53:2c:7e:98:cd:1a:06:16:a4:
                    68:73:d0:34:04:13:5c:a1:71:d3:5a:7c:55:db:5e:
                    64:e1:37:87:30:56:04:e5:11:b4:29:80:12:f1:79:
                    39:88:a2:02:11:7c:27:66:b7:88:b7:78:f2:ca:0a:
                    a8:38:ab:0a:64:c2:bf:66:5d:95:84:c1:a1:25:1e:
                    87:5d:1a:50:0b:20:12:cc:41:bb:6e:0b:51:38:b8:
                    4b:cb
                Exponent: 65537 (0x10001)
        X509v3 extensions:
            X509v3 Key Usage: critical
                Digital Signature, Certificate Sign, CRL Sign
            X509v3 Basic Constraints: critical
                CA:TRUE
            X509v3 Subject Key Identifier: 
                B1:3E:C3:69:03:F8:BF:47:01:D4:98:26:1A:08:02:EF:63:64:2B:C3
            X509v3 Authority Key Identifier: 
                keyid:B1:3E:C3:69:03:F8:BF:47:01:D4:98:26:1A:08:02:EF:63:64:2B:C3

    Signature Algorithm: sha1WithRSAEncryption
         1c:1a:06:97:dc:d7:9c:9f:3c:88:66:06:08:57:21:db:21:47:
         f8:2a:67:aa:bf:18:32:76:40:10:57:c1:8a:f3:7a:d9:11:65:
         8e:35:fa:9e:fc:45:b5:9e:d9:4c:31:4b:b8:91:e8:43:2c:8e:
         b3:78:ce:db:e3:53:79:71:d6:e5:21:94:01:da:55:87:9a:24:
         64:f6:8a:66:cc:de:9c:37:cd:a8:34:b1:69:9b:23:c8:9e:78:
         22:2b:70:43:e3:55:47:31:61:19:ef:58:c5:85:2f:4e:30:f6:
         a0:31:16:23:c8:e7:e2:65:16:33:cb:bf:1a:1b:a0:3d:f8:ca:
         5e:8b:31:8b:60:08:89:2d:0c:06:5c:52:b7:c4:f9:0a:98:d1:
         15:5f:9f:12:be:7c:36:63:38:bd:44:a4:7f:e4:26:2b:0a:c4:
         97:69:0d:e9:8c:e2:c0:10:57:b8:c8:76:12:91:55:f2:48:69:
         d8:bc:2a:02:5b:0f:44:d4:20:31:db:f4:ba:70:26:5d:90:60:
         9e:bc:4b:17:09:2f:b4:cb:1e:43:68:c9:07:27:c1:d2:5c:f7:
         ea:21:b9:68:12:9c:3c:9c:bf:9e:fc:80:5c:9b:63:cd:ec:47:
         aa:25:27:67:a0:37:f3:00:82:7d:54:d7:a9:f8:e9:2e:13:a3:
         77:e8:1f:4a
-----BEGIN CERTIFICATE-----
MIIDxTCCAq2gAwIBAgIQAqxcJmoLQJuPC3nyrkYldzANBgkqhkiG9w0BAQUFADBs
MQswCQYDVQQGEwJVUzEVMBMGA1UEChMMRGlnaUNlcnQgSW5jMRkwFwYDVQQLExB3
d3cuZGlnaWNlcnQuY29tMSswKQYDVQQDEyJEaWdpQ2VydCBIaWdoIEFzc3VyYW5j
ZSBFViBSb290IENBMB4XDTA2MTExMDAwMDAwMFoXDTMxMTExMDAwMDAwMFowbDEL
MAkGA1UEBhMCVVMxFTATBgNVBAoTDERpZ2lDZXJ0IEluYzEZMBcGA1UECxMQd3d3
LmRpZ2ljZXJ0LmNvbTErMCkGA1UEAxMiRGlnaUNlcnQgSGlnaCBBc3N1cmFuY2Ug
RVYgUm9vdCBDQTCCASIwDQYJKoZIhvcNAQEBBQADggEPADCCAQoCggEBAMbM5XPm
+9S75S0tMqbf5YE/yc0lSbZxKsPVlDRnogocsF9ppkCxxLeyj9CYpKlBWTrT3JTW
PNt0OKRKzE0lgvdKpVMSOO7zSW1xkX5jtqumX8OkhPhPYlG++MXs2ziS4wblCJEM
xChBVfvLWokVfnHoNb9Ncgk9vjo4UFt3MRuNs8ckRZqnrG0AFFoEt7oT61EKmEFB
Ik5lYYeBQVCmeVyJ3hlKV9Uu5l0cUyx+mM0aBhakaHPQNAQTXKFx01p8VdteZOE3
hzBWBOURtCmAEvF5OYiiAhF8J2a3iLd48soKqDirCmTCv2ZdlYTBoSUeh10aUAsg
EsxBu24LUTi4S8sCAwEAAaNjMGEwDgYDVR0PAQH/BAQDAgGGMA8GA1UdEwEB/wQF
MAMBAf8wHQYDVR0OBBYEFLE+w2kD+L9HAdSYJhoIAu9jZCvDMB8GA1UdIwQYMBaA
FLE+w2kD+L9HAdSYJhoIAu9jZCvDMA0GCSqGSIb3DQEBBQUAA4IBAQAcGgaX3Nec
nzyIZgYIVyHbIUf4KmeqvxgydkAQV8GK83rZEWWONfqe/EW1ntlMMUu4kehDLI6z
eM7b41N5cdblIZQB2lWHmiRk9opmzN6cN82oNLFpmyPInngiK3BD41VHMWEZ71jF
hS9OMPagMRYjyOfiZRYzy78aG6A9+MpeizGLYAiJLQwGXFK3xPkKmNEVX58Svnw2
Yzi9RKR/5CYrCsSXaQ3pjOLAEFe4yHYSkVXySGnYvCoCWw9E1CAx2/S6cCZdkGCe
vEsXCS+0yx5DaMkHJ8HSXPfqIbloEpw8nL+e/IBcm2PN7EeqJSdnoDfzAIJ9VNep
+OkuE6N36B9K
-----END CERTIFICATE-----

Certificate:
    Data:
        Version: 3 (0x2)
        Serial Number:
            0e:d4:fa:40:a0:e5:ab:22:c8:94:26:c0:f3:34:e9:57
    Signature Algorithm: sha256WithRSAEncryption
        Issuer: C=US, O=DigiCert Inc, OU=www.digicert.com, CN=DigiCert EV Code Signing CA (SHA2)
        Validity
            Not Before: Aug 28 00:00:00 2017 GMT
            Not After : Oct  4 12:00:00 2018 GMT
        Subject: jurisdictionC=IN/businessCategory=Private Organization/serialNumber=U72200KA2003PTC032151, C=IN, L=Bangalore, O=Versacor Offshore Software Private Limited, CN=Versacor Offshore Software Private Limited
        Subject Public Key Info:
            Public Key Algorithm: rsaEncryption
                Public-Key: (2048 bit)
                Modulus:
                    00:ba:05:e6:1e:98:40:5f:5e:ac:11:5a:9e:1b:e2:
                    23:c2:41:c0:43:52:2a:86:42:e1:4e:df:d4:41:94:
                    b1:3a:b3:c2:1d:b5:14:3d:0e:db:82:2e:3e:83:5e:
                    33:58:1d:34:ff:17:e9:7c:27:a6:0b:76:69:30:a0:
                    02:34:22:7f:0d:ff:be:60:73:f9:d4:04:f7:16:cd:
                    98:1f:62:fd:15:4f:48:04:2b:53:7d:59:58:18:ee:
                    6e:9d:d4:82:9e:70:e1:06:7b:ad:d0:19:68:62:67:
                    46:3a:53:47:3b:55:df:55:a5:77:a0:07:d1:b2:bd:
                    b6:cb:0d:a9:ef:1f:36:8a:ae:ee:ea:0d:6b:01:2a:
                    c3:50:14:41:b0:68:64:29:c0:ab:bd:29:5c:3e:7c:
                    e6:45:d7:c3:73:80:87:00:ac:49:b8:45:f3:52:a0:
                    c2:57:db:6b:a0:66:3e:c1:b6:38:15:a0:d3:8d:76:
                    a9:21:83:28:4f:19:91:00:49:28:df:5f:77:46:0b:
                    f6:5b:73:e0:53:18:d5:31:61:5d:a8:c2:2f:77:18:
                    a9:1f:bc:ef:b0:10:04:f1:51:ba:71:6f:d8:08:a6:
                    4d:4e:a4:fe:b4:24:32:ee:7c:0c:cd:48:e0:e5:13:
                    71:c8:d6:02:5f:54:a6:ba:79:67:05:19:3b:8d:4c:
                    21:ed
                Exponent: 65537 (0x10001)
        X509v3 extensions:
            X509v3 Authority Key Identifier: 
                keyid:8F:E8:7E:F0:6D:32:6A:00:05:23:C7:70:97:6A:3A:90:FF:6B:EA:D4

            X509v3 Subject Key Identifier: 
                CA:A5:BB:8E:94:C1:10:3A:57:2D:A9:4B:B4:AE:7A:30:13:B8:C3:87
            X509v3 Subject Alternative Name: 
                othername:<unsupported>
            X509v3 Key Usage: critical
                Digital Signature
            X509v3 Extended Key Usage: 
                Code Signing
            X509v3 CRL Distribution Points: 

                Full Name:
                  URI:http://crl3.digicert.com/EVCodeSigningSHA2-g1.crl

                Full Name:
                  URI:http://crl4.digicert.com/EVCodeSigningSHA2-g1.crl

            X509v3 Certificate Policies: 
                Policy: 2.16.840.1.114412.3.2
                  CPS: https://www.digicert.com/CPS
                Policy: 2.23.140.1.3

            Authority Information Access: 
                OCSP - URI:http://ocsp.digicert.com
                CA Issuers - URI:http://cacerts.digicert.com/DigiCertEVCodeSigningCA-SHA2.crt

            X509v3 Basic Constraints: critical
                CA:FALSE
    Signature Algorithm: sha256WithRSAEncryption
         87:84:44:33:a4:9a:ac:6a:40:50:be:b3:97:5c:94:53:1c:a4:
         1c:28:a6:18:75:63:87:fb:4e:4d:ad:4d:dd:5e:3a:87:4d:4b:
         dc:d9:55:8b:19:dc:46:fb:7a:b3:6b:20:dc:37:c7:f2:6b:d1:
         38:bf:f9:88:dc:56:d0:52:aa:cc:87:cb:e1:f5:9d:87:54:19:
         96:41:b1:0e:11:95:ec:de:37:7a:bb:2b:7b:f4:4b:d8:3b:14:
         cb:56:d7:8e:93:76:c3:57:5f:d2:41:e0:de:a6:cf:db:2e:a2:
         44:07:b9:53:44:d6:58:b3:0e:af:57:50:f2:60:49:5d:89:8c:
         a8:3b:a2:8c:c3:73:22:c4:7e:b4:53:a0:89:b8:f4:e4:25:3c:
         a2:e4:3e:73:8c:01:cc:0d:51:07:f9:7b:e3:52:de:67:7b:7a:
         b3:64:8a:78:c4:e6:39:43:d2:95:11:4c:1c:51:1e:14:35:de:
         1f:8f:ab:b8:87:aa:db:dc:6e:2c:d9:c0:2a:80:9a:7f:fe:ed:
         b1:df:b0:cd:a5:99:ce:09:44:b6:5e:74:d7:1d:00:cb:b0:30:
         c9:96:bd:fa:df:ed:e2:0b:06:0d:e3:46:c0:55:a3:87:f0:c4:
         48:9f:32:d6:cd:51:56:6a:d1:c9:4c:0e:4e:e7:2a:0a:65:76:
         2e:4a:14:1a
-----BEGIN CERTIFICATE-----
MIIFzjCCBLagAwIBAgIQDtT6QKDlqyLIlCbA8zTpVzANBgkqhkiG9w0BAQsFADBs
MQswCQYDVQQGEwJVUzEVMBMGA1UEChMMRGlnaUNlcnQgSW5jMRkwFwYDVQQLExB3
d3cuZGlnaWNlcnQuY29tMSswKQYDVQQDEyJEaWdpQ2VydCBFViBDb2RlIFNpZ25p
bmcgQ0EgKFNIQTIpMB4XDTE3MDgyODAwMDAwMFoXDTE4MTAwNDEyMDAwMFowgd8x
EzARBgsrBgEEAYI3PAIBAxMCSU4xHTAbBgNVBA8MFFByaXZhdGUgT3JnYW5pemF0
aW9uMR4wHAYDVQQFExVVNzIyMDBLQTIwMDNQVEMwMzIxNTExCzAJBgNVBAYTAklO
MRIwEAYDVQQHEwlCYW5nYWxvcmUxMzAxBgNVBAoTKlZlcnNhY29yIE9mZnNob3Jl
IFNvZnR3YXJlIFByaXZhdGUgTGltaXRlZDEzMDEGA1UEAxMqVmVyc2Fjb3IgT2Zm
c2hvcmUgU29mdHdhcmUgUHJpdmF0ZSBMaW1pdGVkMIIBIjANBgkqhkiG9w0BAQEF
AAOCAQ8AMIIBCgKCAQEAugXmHphAX16sEVqeG+IjwkHAQ1IqhkLhTt/UQZSxOrPC
HbUUPQ7bgi4+g14zWB00/xfpfCemC3ZpMKACNCJ/Df++YHP51AT3Fs2YH2L9FU9I
BCtTfVlYGO5undSCnnDhBnut0BloYmdGOlNHO1XfVaV3oAfRsr22yw2p7x82iq7u
6g1rASrDUBRBsGhkKcCrvSlcPnzmRdfDc4CHAKxJuEXzUqDCV9troGY+wbY4FaDT
jXapIYMoTxmRAEko3193Rgv2W3PgUxjVMWFdqMIvdxipH7zvsBAE8VG6cW/YCKZN
TqT+tCQy7nwMzUjg5RNxyNYCX1SmunlnBRk7jUwh7QIDAQABo4IB9jCCAfIwHwYD
VR0jBBgwFoAUj+h+8G0yagAFI8dwl2o6kP9r6tQwHQYDVR0OBBYEFMqlu46UwRA6
Vy2pS7SuejATuMOHMDMGA1UdEQQsMCqgKAYIKwYBBQUHCAOgHDAaDBhJTi1VNzIy
MDBLQTIwMDNQVEMwMzIxNTEwDgYDVR0PAQH/BAQDAgeAMBMGA1UdJQQMMAoGCCsG
AQUFBwMDMHsGA1UdHwR0MHIwN6A1oDOGMWh0dHA6Ly9jcmwzLmRpZ2ljZXJ0LmNv
bS9FVkNvZGVTaWduaW5nU0hBMi1nMS5jcmwwN6A1oDOGMWh0dHA6Ly9jcmw0LmRp
Z2ljZXJ0LmNvbS9FVkNvZGVTaWduaW5nU0hBMi1nMS5jcmwwSwYDVR0gBEQwQjA3
BglghkgBhv1sAwIwKjAoBggrBgEFBQcCARYcaHR0cHM6Ly93d3cuZGlnaWNlcnQu
Y29tL0NQUzAHBgVngQwBAzB+BggrBgEFBQcBAQRyMHAwJAYIKwYBBQUHMAGGGGh0
dHA6Ly9vY3NwLmRpZ2ljZXJ0LmNvbTBIBggrBgEFBQcwAoY8aHR0cDovL2NhY2Vy
dHMuZGlnaWNlcnQuY29tL0RpZ2lDZXJ0RVZDb2RlU2lnbmluZ0NBLVNIQTIuY3J0
MAwGA1UdEwEB/wQCMAAwDQYJKoZIhvcNAQELBQADggEBAIeERDOkmqxqQFC+s5dc
lFMcpBwophh1Y4f7Tk2tTd1eOodNS9zZVYsZ3Eb7erNrINw3x/Jr0Ti/+YjcVtBS
qsyHy+H1nYdUGZZBsQ4RlezeN3q7K3v0S9g7FMtW146TdsNXX9JB4N6mz9suokQH
uVNE1lizDq9XUPJgSV2JjKg7oozDcyLEfrRToIm49OQlPKLkPnOMAcwNUQf5e+NS
3md7erNkinjE5jlD0pURTBxRHhQ13h+Pq7iHqtvcbizZwCqAmn/+7bHfsM2lmc4J
RLZedNcdAMuwMMmWvfrf7eILBg3jRsBVo4fwxEifMtbNUVZq0clMDk7nKgpldi5K
FBo=
-----END CERTIFICATE-----

Certificate:
    Data:
        Version: 3 (0x2)
        Serial Number:
            03:01:9a:02:3a:ff:58:b1:6b:d6:d5:ea:e6:17:f0:66
    Signature Algorithm: sha1WithRSAEncryption
        Issuer: C=US, O=DigiCert Inc, OU=www.digicert.com, CN=DigiCert Assured ID CA-1
        Validity
            Not Before: Oct 22 00:00:00 2014 GMT
            Not After : Oct 22 00:00:00 2024 GMT
        Subject: C=US, O=DigiCert, CN=DigiCert Timestamp Responder
        Subject Public Key Info:
            Public Key Algorithm: rsaEncryption
                Public-Key: (2048 bit)
                Modulus:
                    00:a3:64:5d:fc:7c:b3:e0:82:35:e0:e0:f6:c6:2a:
                    e6:49:75:3b:cc:6e:e0:53:a9:9f:1f:64:59:e6:7c:
                    6b:7f:6b:8c:9d:55:f8:92:e3:9e:d5:5a:63:5b:02:
                    49:50:d9:83:ce:6f:66:ee:dd:cb:85:e9:5f:a5:f9:
                    d4:87:74:88:44:3b:19:c9:e5:f5:91:9f:c6:14:39:
                    ac:24:ea:a8:4b:2c:91:89:cc:5e:28:f4:64:b6:50:
                    b7:f5:12:b3:73:96:0a:67:a3:be:61:9f:ae:f3:fd:
                    12:78:75:0e:a6:5b:14:fd:45:23:8e:86:44:55:7d:
                    18:86:05:8c:55:87:79:48:46:f7:ca:0e:8d:a7:de:
                    4e:5f:e2:a8:b6:2d:59:02:61:88:61:72:18:68:b9:
                    b8:7c:ee:e6:e7:34:2f:31:77:81:30:1f:bb:36:01:
                    8d:ef:27:e3:f7:9a:f0:4c:31:64:8d:e3:eb:fa:19:
                    87:a8:7e:cf:ec:8c:0c:36:5b:7a:c1:7a:b8:78:c7:
                    c9:06:2e:46:10:c8:8d:e8:04:60:db:bc:73:74:fa:
                    4e:d8:fe:aa:40:f1:b2:ce:70:46:83:e9:da:40:a1:
                    59:3a:d9:15:09:57:99:56:30:93:f3:c9:61:cc:d0:
                    08:cc:6b:ec:62:42:91:ac:02:c0:ef:a4:f0:89:11:
                    8f:77
                Exponent: 65537 (0x10001)
        X509v3 extensions:
            X509v3 Key Usage: critical
                Digital Signature
            X509v3 Basic Constraints: critical
                CA:FALSE
            X509v3 Extended Key Usage: critical
                Time Stamping
            X509v3 Certificate Policies: 
                Policy: 2.16.840.1.114412.7.1
                  CPS: https://www.digicert.com/CPS
                  User Notice:
                    Explicit Text: 
                Policy: 2.16.840.1.114412.3.21

            X509v3 Authority Key Identifier: 
                keyid:15:00:12:2B:13:98:B2:99:07:ED:1E:DF:A2:BE:57:0D:2B:67:02:CD

            X509v3 Subject Key Identifier: 
                61:5A:4D:24:B6:49:32:9D:4A:2A:79:1A:83:4B:F4:1E:89:C1:CA:7D
            X509v3 CRL Distribution Points: 

                Full Name:
                  URI:http://crl3.digicert.com/DigiCertAssuredIDCA-1.crl

                Full Name:
                  URI:http://crl4.digicert.com/DigiCertAssuredIDCA-1.crl

            Authority Information Access: 
                OCSP - URI:http://ocsp.digicert.com
                CA Issuers - URI:http://cacerts.digicert.com/DigiCertAssuredIDCA-1.crt

    Signature Algorithm: sha1WithRSAEncryption
         9d:25:7e:1b:33:4d:b2:26:81:5c:9b:86:ce:23:20:0f:80:87:
         e5:88:ff:ff:b1:d4:6a:2c:31:ed:3a:17:19:71:17:cd:a9:1b:
         bc:5a:16:39:00:9d:e3:6c:84:e4:5a:40:fb:de:06:01:8c:37:
         fa:9b:b1:9d:24:7e:fe:20:a4:57:ad:5b:b7:9a:b0:60:26:ea:
         69:57:21:5d:34:2f:1f:71:b0:83:94:19:05:6b:35:90:10:a0:
         7b:97:c7:f6:3f:e7:e2:11:41:a6:bd:62:d9:f0:27:3d:38:1d:
         28:6f:3a:52:09:f0:ec:70:62:d3:62:4b:b0:e0:73:a6:92:c0:
         d3:8e:31:d8:2f:e3:6d:17:13:06:ee:e4:03:b6:14:ab:f3:8f:
         43:a7:71:9d:21:dd:14:ca:15:5d:92:41:da:f9:0f:81:d1:99:
         74:0d:26:c4:0e:7f:1b:b5:f5:a0:f1:c6:77:06:28:15:e9:d8:
         93:e5:55:16:f0:bb:0a:ab:1c:db:5c:48:27:66:c8:a3:8b:0a:
         1c:e5:95:da:ae:c4:2e:59:a0:61:dd:da:f3:6d:a2:61:e9:8a:
         0b:6d:ec:12:18:bd:f7:55:54:40:03:92:2b:6b:c2:51:c2:0a:
         48:af:b0:d4:6e:e0:f4:14:0a:3a:1b:e3:8f:3d:ca:af:6a:8d:
         7b:dc:d8:44
-----BEGIN CERTIFICATE-----
MIIGajCCBVKgAwIBAgIQAwGaAjr/WLFr1tXq5hfwZjANBgkqhkiG9w0BAQUFADBi
MQswCQYDVQQGEwJVUzEVMBMGA1UEChMMRGlnaUNlcnQgSW5jMRkwFwYDVQQLExB3
d3cuZGlnaWNlcnQuY29tMSEwHwYDVQQDExhEaWdpQ2VydCBBc3N1cmVkIElEIENB
LTEwHhcNMTQxMDIyMDAwMDAwWhcNMjQxMDIyMDAwMDAwWjBHMQswCQYDVQQGEwJV
UzERMA8GA1UEChMIRGlnaUNlcnQxJTAjBgNVBAMTHERpZ2lDZXJ0IFRpbWVzdGFt
cCBSZXNwb25kZXIwggEiMA0GCSqGSIb3DQEBAQUAA4IBDwAwggEKAoIBAQCjZF38
fLPggjXg4PbGKuZJdTvMbuBTqZ8fZFnmfGt/a4ydVfiS457VWmNbAklQ2YPOb2bu
3cuF6V+l+dSHdIhEOxnJ5fWRn8YUOawk6qhLLJGJzF4o9GS2ULf1ErNzlgpno75h
n67z/RJ4dQ6mWxT9RSOOhkRVfRiGBYxVh3lIRvfKDo2n3k5f4qi2LVkCYYhhchho
ubh87ubnNC8xd4EwH7s2AY3vJ+P3mvBMMWSN4+v6GYeofs/sjAw2W3rBerh4x8kG
LkYQyI3oBGDbvHN0+k7Y/qpA8bLOcEaD6dpAoVk62RUJV5lWMJPzyWHM0AjMa+xi
QpGsAsDvpPCJEY93AgMBAAGjggM1MIIDMTAOBgNVHQ8BAf8EBAMCB4AwDAYDVR0T
AQH/BAIwADAWBgNVHSUBAf8EDDAKBggrBgEFBQcDCDCCAb8GA1UdIASCAbYwggGy
MIIBoQYJYIZIAYb9bAcBMIIBkjAoBggrBgEFBQcCARYcaHR0cHM6Ly93d3cuZGln
aWNlcnQuY29tL0NQUzCCAWQGCCsGAQUFBwICMIIBVh6CAVIAQQBuAHkAIAB1AHMA
ZQAgAG8AZgAgAHQAaABpAHMAIABDAGUAcgB0AGkAZgBpAGMAYQB0AGUAIABjAG8A
bgBzAHQAaQB0AHUAdABlAHMAIABhAGMAYwBlAHAAdABhAG4AYwBlACAAbwBmACAA
dABoAGUAIABEAGkAZwBpAEMAZQByAHQAIABDAFAALwBDAFAAUwAgAGEAbgBkACAA
dABoAGUAIABSAGUAbAB5AGkAbgBnACAAUABhAHIAdAB5ACAAQQBnAHIAZQBlAG0A
ZQBuAHQAIAB3AGgAaQBjAGgAIABsAGkAbQBpAHQAIABsAGkAYQBiAGkAbABpAHQA
eQAgAGEAbgBkACAAYQByAGUAIABpAG4AYwBvAHIAcABvAHIAYQB0AGUAZAAgAGgA
ZQByAGUAaQBuACAAYgB5ACAAcgBlAGYAZQByAGUAbgBjAGUALjALBglghkgBhv1s
AxUwHwYDVR0jBBgwFoAUFQASKxOYspkH7R7for5XDStnAs0wHQYDVR0OBBYEFGFa
TSS2STKdSip5GoNL9B6Jwcp9MH0GA1UdHwR2MHQwOKA2oDSGMmh0dHA6Ly9jcmwz
LmRpZ2ljZXJ0LmNvbS9EaWdpQ2VydEFzc3VyZWRJRENBLTEuY3JsMDigNqA0hjJo
dHRwOi8vY3JsNC5kaWdpY2VydC5jb20vRGlnaUNlcnRBc3N1cmVkSURDQS0xLmNy
bDB3BggrBgEFBQcBAQRrMGkwJAYIKwYBBQUHMAGGGGh0dHA6Ly9vY3NwLmRpZ2lj
ZXJ0LmNvbTBBBggrBgEFBQcwAoY1aHR0cDovL2NhY2VydHMuZGlnaWNlcnQuY29t
L0RpZ2lDZXJ0QXNzdXJlZElEQ0EtMS5jcnQwDQYJKoZIhvcNAQEFBQADggEBAJ0l
fhszTbImgVybhs4jIA+Ah+WI//+x1GosMe06FxlxF82pG7xaFjkAneNshORaQPve
BgGMN/qbsZ0kfv4gpFetW7easGAm6mlXIV00Lx9xsIOUGQVrNZAQoHuXx/Y/5+IR
Qaa9YtnwJz04HShvOlIJ8OxwYtNiS7Dgc6aSwNOOMdgv420XEwbu5AO2FKvzj0On
cZ0h3RTKFV2SQdr5D4HRmXQNJsQOfxu19aDxxncGKBXp2JPlVRbwuwqrHNtcSCdm
yKOLChzlldquxC5ZoGHd2vNtomHpigtt7BIYvfdVVEADkitrwlHCCkivsNRu4PQU
Cjob4489yq9qjXvc2EQ=
-----END CERTIFICATE-----

Certificate:
    Data:
        Version: 3 (0x2)
        Serial Number:
            03:f1:b4:e1:5f:3a:82:f1:14:96:78:b3:d7:d8:47:5c
    Signature Algorithm: sha256WithRSAEncryption
        Issuer: C=US, O=DigiCert Inc, OU=www.digicert.com, CN=DigiCert High Assurance EV Root CA
        Validity
            Not Before: Apr 18 12:00:00 2012 GMT
            Not After : Apr 18 12:00:00 2027 GMT
        Subject: C=US, O=DigiCert Inc, OU=www.digicert.com, CN=DigiCert EV Code Signing CA (SHA2)
        Subject Public Key Info:
            Public Key Algorithm: rsaEncryption
                Public-Key: (2048 bit)
                Modulus:
                    00:a7:53:fa:0f:b2:b5:13:f1:64:cf:84:80:fc:ae:
                    80:35:d1:b6:d7:c7:a3:2c:ac:1a:2c:ac:f1:84:ac:
                    3a:35:12:3a:92:91:ba:57:e4:c4:c9:f3:2f:a8:48:
                    3c:b7:d6:6e:dc:97:22:ba:51:79:61:af:43:2f:0d:
                    b7:9b:b4:49:31:ae:44:58:3e:a4:a1:96:a7:87:4f:
                    23:7e:c3:6c:65:24:90:55:3e:a1:ca:23:7c:c5:42:
                    e9:c4:7a:62:45:9b:7d:de:63:74:cb:9e:63:25:f8:
                    84:9a:9a:ad:45:4f:ae:7d:1f:c8:13:cb:75:9b:c9:
                    e1:e1:8a:f8:0b:0c:98:f4:ca:3e:d0:45:aa:7a:1e:
                    a5:58:93:36:34:be:2b:2e:2b:31:58:66:b4:32:10:
                    9f:9d:f0:52:a1:ef:e8:3e:d3:76:f2:40:5a:dc:fa:
                    6a:3d:1b:4b:ad:76:b0:8c:5c:ee:36:ba:83:ea:30:
                    a8:4c:de:f1:0b:2a:58:41:88:ae:00:89:ab:03:d1:
                    16:82:20:22:76:eb:5e:54:38:12:62:e1:d2:70:24:
                    db:ed:1f:70:d2:64:09:80:2d:e2:b6:9d:ce:1f:f2:
                    bb:21:f3:6c:db:d8:b3:19:7b:8a:50:9f:ef:ec:36:
                    0a:5c:9a:b7:4a:d3:08:a0:39:79:fd:dd:bf:3d:3a:
                    09:25
                Exponent: 65537 (0x10001)
        X509v3 extensions:
            X509v3 Basic Constraints: critical
                CA:TRUE, pathlen:0
            X509v3 Key Usage: critical
                Digital Signature, Certificate Sign, CRL Sign
            X509v3 Extended Key Usage: 
                Code Signing
            Authority Information Access: 
                OCSP - URI:http://ocsp.digicert.com
                CA Issuers - URI:http://cacerts.digicert.com/DigiCertHighAssuranceEVRootCA.crt

            X509v3 CRL Distribution Points: 

                Full Name:
                  URI:http://crl3.digicert.com/DigiCertHighAssuranceEVRootCA.crl

                Full Name:
                  URI:http://crl4.digicert.com/DigiCertHighAssuranceEVRootCA.crl

            X509v3 Certificate Policies: 
                Policy: 2.16.840.1.114412.3.2
                  CPS: http://www.digicert.com/ssl-cps-repository.htm
                  User Notice:
                    Explicit Text: 

            X509v3 Subject Key Identifier: 
                8F:E8:7E:F0:6D:32:6A:00:05:23:C7:70:97:6A:3A:90:FF:6B:EA:D4
            X509v3 Authority Key Identifier: 
                keyid:B1:3E:C3:69:03:F8:BF:47:01:D4:98:26:1A:08:02:EF:63:64:2B:C3

    Signature Algorithm: sha256WithRSAEncryption
         19:33:4a:0c:81:33:37:db:ad:36:c9:e4:c9:3a:bb:b5:1b:2e:
         7a:a2:e2:f4:43:42:17:9e:bf:4e:a1:4d:e1:b1:db:e9:81:dd:
         9f:01:f2:e4:88:d5:e9:fe:09:fd:21:c1:ec:5d:80:d2:f0:d6:
         c1:43:c2:fe:77:2b:db:f9:d7:91:33:ce:6c:d5:b2:19:3b:e6:
         2e:d6:c9:93:4f:88:40:8e:cd:e1:f5:7e:f1:0f:c6:59:56:72:
         e8:eb:6a:41:bd:1c:d5:46:d5:7c:49:ca:66:38:15:c1:bf:e0:
         91:70:77:87:dc:c9:8d:31:c9:0c:29:a2:33:ed:8d:e2:87:cd:
         89:8d:3f:1b:ff:d5:e0:1a:97:8b:7c:da:6d:fb:a8:c6:b2:3a:
         66:6b:7b:01:b3:cd:d8:a6:34:ec:12:01:ab:95:58:a5:c4:53:
         57:a8:60:e6:e7:02:12:a0:b9:23:64:a2:4d:bb:7c:81:25:64:
         21:be:cf:ee:42:18:43:97:bb:a5:37:06:af:4d:ff:26:a5:4d:
         61:4b:ec:46:41:b8:65:ce:b8:79:9e:08:96:0b:81:8c:8a:3b:
         8f:c7:99:8c:a3:2a:6e:98:6d:5e:61:c6:96:b7:8a:b9:61:2d:
         93:b8:eb:0e:04:43:d7:f5:fe:a6:f0:62:d4:99:6a:a5:c1:c1:
         f0:64:94:80
-----BEGIN CERTIFICATE-----
MIIGvDCCBaSgAwIBAgIQA/G04V86gvEUlniz19hHXDANBgkqhkiG9w0BAQsFADBs
MQswCQYDVQQGEwJVUzEVMBMGA1UEChMMRGlnaUNlcnQgSW5jMRkwFwYDVQQLExB3
d3cuZGlnaWNlcnQuY29tMSswKQYDVQQDEyJEaWdpQ2VydCBIaWdoIEFzc3VyYW5j
ZSBFViBSb290IENBMB4XDTEyMDQxODEyMDAwMFoXDTI3MDQxODEyMDAwMFowbDEL
MAkGA1UEBhMCVVMxFTATBgNVBAoTDERpZ2lDZXJ0IEluYzEZMBcGA1UECxMQd3d3
LmRpZ2ljZXJ0LmNvbTErMCkGA1UEAxMiRGlnaUNlcnQgRVYgQ29kZSBTaWduaW5n
IENBIChTSEEyKTCCASIwDQYJKoZIhvcNAQEBBQADggEPADCCAQoCggEBAKdT+g+y
tRPxZM+EgPyugDXRttfHoyysGiys8YSsOjUSOpKRulfkxMnzL6hIPLfWbtyXIrpR
eWGvQy8Nt5u0STGuRFg+pKGWp4dPI37DbGUkkFU+ocojfMVC6cR6YkWbfd5jdMue
YyX4hJqarUVPrn0fyBPLdZvJ4eGK+AsMmPTKPtBFqnoepViTNjS+Ky4rMVhmtDIQ
n53wUqHv6D7TdvJAWtz6aj0bS612sIxc7ja6g+owqEze8QsqWEGIrgCJqwPRFoIg
InbrXlQ4EmLh0nAk2+0fcNJkCYAt4radzh/yuyHzbNvYsxl7ilCf7+w2Clyat0rT
CKA5ef3dvz06CSUCAwEAAaOCA1gwggNUMBIGA1UdEwEB/wQIMAYBAf8CAQAwDgYD
VR0PAQH/BAQDAgGGMBMGA1UdJQQMMAoGCCsGAQUFBwMDMH8GCCsGAQUFBwEBBHMw
cTAkBggrBgEFBQcwAYYYaHR0cDovL29jc3AuZGlnaWNlcnQuY29tMEkGCCsGAQUF
BzAChj1odHRwOi8vY2FjZXJ0cy5kaWdpY2VydC5jb20vRGlnaUNlcnRIaWdoQXNz
dXJhbmNlRVZSb290Q0EuY3J0MIGPBgNVHR8EgYcwgYQwQKA+oDyGOmh0dHA6Ly9j
cmwzLmRpZ2ljZXJ0LmNvbS9EaWdpQ2VydEhpZ2hBc3N1cmFuY2VFVlJvb3RDQS5j
cmwwQKA+oDyGOmh0dHA6Ly9jcmw0LmRpZ2ljZXJ0LmNvbS9EaWdpQ2VydEhpZ2hB
c3N1cmFuY2VFVlJvb3RDQS5jcmwwggHEBgNVHSAEggG7MIIBtzCCAbMGCWCGSAGG
/WwDAjCCAaQwOgYIKwYBBQUHAgEWLmh0dHA6Ly93d3cuZGlnaWNlcnQuY29tL3Nz
bC1jcHMtcmVwb3NpdG9yeS5odG0wggFkBggrBgEFBQcCAjCCAVYeggFSAEEAbgB5
ACAAdQBzAGUAIABvAGYAIAB0AGgAaQBzACAAQwBlAHIAdABpAGYAaQBjAGEAdABl
ACAAYwBvAG4AcwB0AGkAdAB1AHQAZQBzACAAYQBjAGMAZQBwAHQAYQBuAGMAZQAg
AG8AZgAgAHQAaABlACAARABpAGcAaQBDAGUAcgB0ACAAQwBQAC8AQwBQAFMAIABh
AG4AZAAgAHQAaABlACAAUgBlAGwAeQBpAG4AZwAgAFAAYQByAHQAeQAgAEEAZwBy
AGUAZQBtAGUAbgB0ACAAdwBoAGkAYwBoACAAbABpAG0AaQB0ACAAbABpAGEAYgBp
AGwAaQB0AHkAIABhAG4AZAAgAGEAcgBlACAAaQBuAGMAbwByAHAAbwByAGEAdABl
AGQAIABoAGUAcgBlAGkAbgAgAGIAeQAgAHIAZQBmAGUAcgBlAG4AYwBlAC4wHQYD
VR0OBBYEFI/ofvBtMmoABSPHcJdqOpD/a+rUMB8GA1UdIwQYMBaAFLE+w2kD+L9H
AdSYJhoIAu9jZCvDMA0GCSqGSIb3DQEBCwUAA4IBAQAZM0oMgTM32602yeTJOru1
Gy56ouL0Q0IXnr9OoU3hsdvpgd2fAfLkiNXp/gn9IcHsXYDS8NbBQ8L+dyvb+deR
M85s1bIZO+Yu1smTT4hAjs3h9X7xD8ZZVnLo62pBvRzVRtV8ScpmOBXBv+CRcHeH
3MmNMckMKaIz7Y3ih82JjT8b/9XgGpeLfNpt+6jGsjpma3sBs83YpjTsEgGrlVil
xFNXqGDm5wISoLkjZKJNu3yBJWQhvs/uQhhDl7ulNwavTf8mpU1hS+xGQbhlzrh5
ngiWC4GMijuPx5mMoypumG1eYcaWt4q5YS2TuOsOBEPX9f6m8GLUmWqlwcHwZJSA
-----END CERTIFICATE-----

Certificate:
    Data:
        Version: 3 (0x2)
        Serial Number:
            06:fd:f9:03:96:03:ad:ea:00:0a:eb:3f:27:bb:ba:1b
    Signature Algorithm: sha1WithRSAEncryption
        Issuer: C=US, O=DigiCert Inc, OU=www.digicert.com, CN=DigiCert Assured ID Root CA
        Validity
            Not Before: Nov 10 00:00:00 2006 GMT
            Not After : Nov 10 00:00:00 2021 GMT
        Subject: C=US, O=DigiCert Inc, OU=www.digicert.com, CN=DigiCert Assured ID CA-1
        Subject Public Key Info:
            Public Key Algorithm: rsaEncryption
                Public-Key: (2048 bit)
                Modulus:
                    00:e8:82:2d:99:f9:ca:c2:42:95:a5:80:73:40:70:
                    d2:9e:56:54:5c:a9:c4:d2:41:06:8f:c9:33:fc:4d:
                    45:91:5c:81:9f:ed:2c:9c:f8:16:59:df:9e:b5:24:
                    15:c2:98:b9:b4:77:49:dc:89:c4:0a:da:af:cb:5e:
                    6b:ed:ad:b0:71:31:eb:cf:3a:40:0c:46:4d:93:ec:
                    8b:7a:36:08:03:ab:0c:34:fe:18:49:82:fe:c7:c7:
                    31:48:80:7c:1e:a2:0f:92:0e:50:c9:c6:87:eb:36:
                    3f:d8:30:c3:ff:a6:f7:fb:a2:cd:6f:73:23:fe:ac:
                    56:05:90:f0:32:21:16:89:c6:70:88:f9:05:97:7d:
                    a3:c7:43:dd:02:e8:3b:3d:ed:b1:41:a3:ed:3f:be:
                    db:95:48:c4:ee:1e:b3:f2:bc:0c:2b:99:d0:c6:5d:
                    12:42:81:e1:83:6e:82:73:3f:26:4b:14:90:ae:59:
                    66:0a:c4:8d:be:d2:ce:06:ae:ad:84:6f:48:84:9b:
                    4f:40:b9:f1:4c:f2:af:98:fb:f6:ce:40:5d:5c:f6:
                    a8:f1:2f:af:ec:89:22:f2:6b:18:65:b1:c1:73:ad:
                    d7:f1:d8:cf:1e:0a:74:5c:42:b8:68:7e:b7:d5:77:
                    0a:27:56:7c:0f:62:a4:3f:32:14:60:95:fd:07:04:
                    a2:09
                Exponent: 65537 (0x10001)
        X509v3 extensions:
            X509v3 Key Usage: critical
                Digital Signature, Certificate Sign, CRL Sign
            X509v3 Extended Key Usage: 
                TLS Web Server Authentication, TLS Web Client Authentication, Code Signing, E-mail Protection, Time Stamping
            X509v3 Certificate Policies: 
                Policy: 2.16.840.1.114412.0.1.4
                  CPS: http://www.digicert.com/ssl-cps-repository.htm
                  User Notice:
                    Explicit Text: 
                Policy: 2.16.840.1.114412.3.21

            X509v3 Basic Constraints: critical
                CA:TRUE, pathlen:0
            Authority Information Access: 
                OCSP - URI:http://ocsp.digicert.com
                CA Issuers - URI:http://cacerts.digicert.com/DigiCertAssuredIDRootCA.crt

            X509v3 CRL Distribution Points: 

                Full Name:
                  URI:http://crl3.digicert.com/DigiCertAssuredIDRootCA.crl

                Full Name:
                  URI:http://crl4.digicert.com/DigiCertAssuredIDRootCA.crl

            X509v3 Subject Key Identifier: 
                15:00:12:2B:13:98:B2:99:07:ED:1E:DF:A2:BE:57:0D:2B:67:02:CD
            X509v3 Authority Key Identifier: 
                keyid:45:EB:A2:AF:F4:92:CB:82:31:2D:51:8B:A7:A7:21:9D:F3:6D:C8:0F

    Signature Algorithm: sha1WithRSAEncryption
         46:50:3e:c9:b7:28:24:a7:38:1d:b6:5b:29:af:52:cf:52:e9:
         31:47:ab:56:5c:7b:d5:0d:0b:41:b3:ef:ec:75:1f:74:38:f2:
         b2:5c:61:a2:9c:95:c3:50:e4:82:b9:23:d1:ba:3a:86:72:ad:
         38:78:ac:75:5d:17:17:34:72:47:85:94:56:d1:eb:bb:36:84:
         77:cc:24:a5:f3:04:19:55:a9:e7:e3:e7:ab:62:cd:fb:8b:2d:
         90:c2:c0:d2:b5:94:bd:5e:4f:b1:05:d2:0e:3d:1a:a9:14:5b:
         a6:86:31:62:a8:a8:33:e4:9b:39:a7:c4:f5:ce:1d:78:76:94:
         25:73:e4:2a:ab:cf:9c:76:4b:ed:5f:c2:4b:16:e4:4b:70:4c:
         00:89:1e:fc:c5:79:bc:4c:12:57:fe:5f:e1:1e:bc:02:5d:a8:
         fe:fb:07:38:4f:0d:c6:5d:91:b9:0f:67:45:cd:d6:83:ed:e7:
         92:0d:8d:b1:69:8c:4f:fb:59:e0:23:0f:d2:aa:ae:00:7c:ee:
         9c:42:0e:cf:91:d7:27:b7:16:ee:0f:c3:bd:7c:0a:a0:ee:2c:
         08:55:85:22:b8:eb:18:1a:4d:fc:2a:21:ad:49:31:83:47:95:
         77:71:dc:b1:1b:4b:4b:1c:10:9c:77:14:c1:9d:4f:2f:5a:95:
         08:29:10:26
-----BEGIN CERTIFICATE-----
MIIGzTCCBbWgAwIBAgIQBv35A5YDreoACus/J7u6GzANBgkqhkiG9w0BAQUFADBl
MQswCQYDVQQGEwJVUzEVMBMGA1UEChMMRGlnaUNlcnQgSW5jMRkwFwYDVQQLExB3
d3cuZGlnaWNlcnQuY29tMSQwIgYDVQQDExtEaWdpQ2VydCBBc3N1cmVkIElEIFJv
b3QgQ0EwHhcNMDYxMTEwMDAwMDAwWhcNMjExMTEwMDAwMDAwWjBiMQswCQYDVQQG
EwJVUzEVMBMGA1UEChMMRGlnaUNlcnQgSW5jMRkwFwYDVQQLExB3d3cuZGlnaWNl
cnQuY29tMSEwHwYDVQQDExhEaWdpQ2VydCBBc3N1cmVkIElEIENBLTEwggEiMA0G
CSqGSIb3DQEBAQUAA4IBDwAwggEKAoIBAQDogi2Z+crCQpWlgHNAcNKeVlRcqcTS
QQaPyTP8TUWRXIGf7Syc+BZZ3561JBXCmLm0d0ncicQK2q/LXmvtrbBxMevPOkAM
Rk2T7It6NggDqww0/hhJgv7HxzFIgHweog+SDlDJxofrNj/YMMP/pvf7os1vcyP+
rFYFkPAyIRaJxnCI+QWXfaPHQ90C6Ds97bFBo+0/vtuVSMTuHrPyvAwrmdDGXRJC
geGDboJzPyZLFJCuWWYKxI2+0s4Grq2Eb0iEm09AufFM8q+Y+/bOQF1c9qjxL6/s
iSLyaxhlscFzrdfx2M8eCnRcQrhofrfVdwonVnwPYqQ/MhRglf0HBKIJAgMBAAGj
ggN6MIIDdjAOBgNVHQ8BAf8EBAMCAYYwOwYDVR0lBDQwMgYIKwYBBQUHAwEGCCsG
AQUFBwMCBggrBgEFBQcDAwYIKwYBBQUHAwQGCCsGAQUFBwMIMIIB0gYDVR0gBIIB
yTCCAcUwggG0BgpghkgBhv1sAAEEMIIBpDA6BggrBgEFBQcCARYuaHR0cDovL3d3
dy5kaWdpY2VydC5jb20vc3NsLWNwcy1yZXBvc2l0b3J5Lmh0bTCCAWQGCCsGAQUF
BwICMIIBVh6CAVIAQQBuAHkAIAB1AHMAZQAgAG8AZgAgAHQAaABpAHMAIABDAGUA
cgB0AGkAZgBpAGMAYQB0AGUAIABjAG8AbgBzAHQAaQB0AHUAdABlAHMAIABhAGMA
YwBlAHAAdABhAG4AYwBlACAAbwBmACAAdABoAGUAIABEAGkAZwBpAEMAZQByAHQA
IABDAFAALwBDAFAAUwAgAGEAbgBkACAAdABoAGUAIABSAGUAbAB5AGkAbgBnACAA
UABhAHIAdAB5ACAAQQBnAHIAZQBlAG0AZQBuAHQAIAB3AGgAaQBjAGgAIABsAGkA
bQBpAHQAIABsAGkAYQBiAGkAbABpAHQAeQAgAGEAbgBkACAAYQByAGUAIABpAG4A
YwBvAHIAcABvAHIAYQB0AGUAZAAgAGgAZQByAGUAaQBuACAAYgB5ACAAcgBlAGYA
ZQByAGUAbgBjAGUALjALBglghkgBhv1sAxUwEgYDVR0TAQH/BAgwBgEB/wIBADB5
BggrBgEFBQcBAQRtMGswJAYIKwYBBQUHMAGGGGh0dHA6Ly9vY3NwLmRpZ2ljZXJ0
LmNvbTBDBggrBgEFBQcwAoY3aHR0cDovL2NhY2VydHMuZGlnaWNlcnQuY29tL0Rp
Z2lDZXJ0QXNzdXJlZElEUm9vdENBLmNydDCBgQYDVR0fBHoweDA6oDigNoY0aHR0
cDovL2NybDMuZGlnaWNlcnQuY29tL0RpZ2lDZXJ0QXNzdXJlZElEUm9vdENBLmNy
bDA6oDigNoY0aHR0cDovL2NybDQuZGlnaWNlcnQuY29tL0RpZ2lDZXJ0QXNzdXJl
ZElEUm9vdENBLmNybDAdBgNVHQ4EFgQUFQASKxOYspkH7R7for5XDStnAs0wHwYD
VR0jBBgwFoAUReuir/SSy4IxLVGLp6chnfNtyA8wDQYJKoZIhvcNAQEFBQADggEB
AEZQPsm3KCSnOB22WymvUs9S6TFHq1Zce9UNC0Gz7+x1H3Q48rJcYaKclcNQ5IK5
I9G6OoZyrTh4rHVdFxc0ckeFlFbR67s2hHfMJKXzBBlVqefj56tizfuLLZDCwNK1
lL1eT7EF0g49GqkUW6aGMWKoqDPkmzmnxPXOHXh2lCVz5Cqrz5x2S+1fwksW5Etw
TACJHvzFebxMElf+X+EevAJdqP77BzhPDcZdkbkPZ0XN1oPt55INjbFpjE/7WeAj
D9KqrgB87pxCDs+R1ye3Fu4Pw718CqDuLAhVhSK46xgaTfwqIa1JMYNHlXdx3LEb
S0scEJx3FMGdTy9alQgpECY=
-----END CERTIFICATE-----

