Certificate:
    Data:
        Version: 3 (0x2)
        Serial Number:
            7e:93:eb:fb:7c:c6:4e:59:ea:4b:9a:77:d4:06:fc:3b
    Signature Algorithm: sha1WithRSAEncryption
        Issuer: C=ZA, ST=Western Cape, L=Durbanville, O=Thawte, OU=Thawte Certification, CN=Thawte Timestamping CA
        Validity
            Not Before: Dec 21 00:00:00 2012 GMT
            Not After : Dec 30 23:59:59 2020 GMT
        Subject: C=US, O=Symantec Corporation, CN=Symantec Time Stamping Services CA - G2
        Subject Public Key Info:
            Public Key Algorithm: rsaEncryption
                Public-Key: (2048 bit)
                Modulus:
                    00:b1:ac:b3:49:54:4b:97:1c:12:0a:d8:25:79:91:
                    22:57:2a:6f:dc:b8:26:c4:43:73:6b:c2:bf:2e:50:
                    5a:fb:14:c2:76:8e:43:01:25:43:b4:a1:e2:45:f4:
                    e8:b7:7b:c3:74:cc:22:d7:b4:94:00:02:f7:4d:ed:
                    bf:b4:b7:44:24:6b:cd:5f:45:3b:d1:44:ce:43:12:
                    73:17:82:8b:69:b4:2b:cb:99:1e:ac:72:1b:26:4d:
                    71:1f:b1:31:dd:fb:51:61:02:53:a6:aa:f5:49:2c:
                    05:78:45:a5:2f:89:ce:e7:99:e7:fe:8c:e2:57:3f:
                    3d:c6:92:dc:4a:f8:7b:33:e4:79:0a:fb:f0:75:88:
                    41:9c:ff:c5:03:51:99:aa:d7:6c:9f:93:69:87:65:
                    29:83:85:c2:60:14:c4:c8:c9:3b:14:da:c0:81:f0:
                    1f:0d:74:de:92:22:ab:ca:f7:fb:74:7c:27:e6:f7:
                    4a:1b:7f:a7:c3:9e:2d:ae:8a:ea:a6:e6:aa:27:16:
                    7d:61:f7:98:71:11:bc:e2:50:a1:4b:e5:5d:fa:e5:
                    0e:a7:2c:9f:aa:65:20:d3:d8:96:e8:c8:7c:a5:4e:
                    48:44:ff:19:e2:44:07:92:0b:d7:68:84:80:5d:6a:
                    78:64:45:cd:60:46:7e:54:c1:13:7c:c5:79:f1:c9:
                    c1:71
                Exponent: 65537 (0x10001)
        X509v3 extensions:
            X509v3 Subject Key Identifier: 
                5F:9A:F5:6E:5C:CC:CC:74:9A:D4:DD:7D:EF:3F:DB:EC:4C:80:2E:DD
            Authority Information Access: 
                OCSP - URI:http://ocsp.thawte.com

            X509v3 Basic Constraints: critical
                CA:TRUE, pathlen:0
            X509v3 CRL Distribution Points: 

                Full Name:
                  URI:http://crl.thawte.com/ThawteTimestampingCA.crl

            X509v3 Extended Key Usage: 
                Time Stamping
            X509v3 Key Usage: critical
                Certificate Sign, CRL Sign
            X509v3 Subject Alternative Name: 
                DirName:/CN=TimeStamp-2048-1
    Signature Algorithm: sha1WithRSAEncryption
         03:09:9b:8f:79:ef:7f:59:30:aa:ef:68:b5:fa:e3:09:1d:bb:
         4f:82:06:5d:37:5f:a6:52:9f:16:8d:ea:1c:92:09:44:6e:f5:
         6d:eb:58:7c:30:e8:f9:69:8d:23:73:0b:12:6f:47:a9:ae:39:
         11:f8:2a:b1:9b:b0:1a:c3:8e:eb:59:96:00:ad:ce:0c:4d:b2:
         d0:31:a6:08:5c:2a:7a:fc:e2:7a:1d:57:4c:a8:65:18:e9:79:
         40:62:25:96:6e:c7:c7:37:6a:83:21:08:8e:41:ea:dd:d9:57:
         3f:1d:77:49:87:2a:16:06:5e:a6:38:6a:22:12:a3:51:19:83:
         7e:b6
-----BEGIN CERTIFICATE-----
MIID7jCCA1egAwIBAgIQfpPr+3zGTlnqS5p31Ab8OzANBgkqhkiG9w0BAQUFADCB
izELMAkGA1UEBhMCWkExFTATBgNVBAgTDFdlc3Rlcm4gQ2FwZTEUMBIGA1UEBxML
RHVyYmFudmlsbGUxDzANBgNVBAoTBlRoYXd0ZTEdMBsGA1UECxMUVGhhd3RlIENl
cnRpZmljYXRpb24xHzAdBgNVBAMTFlRoYXd0ZSBUaW1lc3RhbXBpbmcgQ0EwHhcN
MTIxMjIxMDAwMDAwWhcNMjAxMjMwMjM1OTU5WjBeMQswCQYDVQQGEwJVUzEdMBsG
A1UEChMUU3ltYW50ZWMgQ29ycG9yYXRpb24xMDAuBgNVBAMTJ1N5bWFudGVjIFRp
bWUgU3RhbXBpbmcgU2VydmljZXMgQ0EgLSBHMjCCASIwDQYJKoZIhvcNAQEBBQAD
ggEPADCCAQoCggEBALGss0lUS5ccEgrYJXmRIlcqb9y4JsRDc2vCvy5QWvsUwnaO
QwElQ7Sh4kX06Ld7w3TMIte0lAAC903tv7S3RCRrzV9FO9FEzkMScxeCi2m0K8uZ
HqxyGyZNcR+xMd37UWECU6aq9UksBXhFpS+JzueZ5/6M4lc/PcaS3Er4ezPkeQr7
8HWIQZz/xQNRmarXbJ+TaYdlKYOFwmAUxMjJOxTawIHwHw103pIiq8r3+3R8J+b3
Sht/p8OeLa6K6qbmqicWfWH3mHERvOJQoUvlXfrlDqcsn6plINPYlujIfKVOSET/
GeJEB5IL12iEgF1qeGRFzWBGflTBE3zFefHJwXECAwEAAaOB+jCB9zAdBgNVHQ4E
FgQUX5r1blzMzHSa1N197z/b7EyALt0wMgYIKwYBBQUHAQEEJjAkMCIGCCsGAQUF
BzABhhZodHRwOi8vb2NzcC50aGF3dGUuY29tMBIGA1UdEwEB/wQIMAYBAf8CAQAw
PwYDVR0fBDgwNjA0oDKgMIYuaHR0cDovL2NybC50aGF3dGUuY29tL1RoYXd0ZVRp
bWVzdGFtcGluZ0NBLmNybDATBgNVHSUEDDAKBggrBgEFBQcDCDAOBgNVHQ8BAf8E
BAMCAQYwKAYDVR0RBCEwH6QdMBsxGTAXBgNVBAMTEFRpbWVTdGFtcC0yMDQ4LTEw
DQYJKoZIhvcNAQEFBQADgYEAAwmbj3nvf1kwqu9otfrjCR27T4IGXTdfplKfFo3q
HJIJRG71betYfDDo+WmNI3MLEm9Hqa45EfgqsZuwGsOO61mWAK3ODE2y0DGmCFwq
evzieh1XTKhlGOl5QGIllm7HxzdqgyEIjkHq3dlXPx13SYcqFgZepjhqIhKjURmD
frY=
-----END CERTIFICATE-----

Certificate:
    Data:
        Version: 3 (0x2)
        Serial Number:
            0e:cf:f4:38:c8:fe:bf:35:6e:04:d8:6a:98:1b:1a:50
    Signature Algorithm: sha1WithRSAEncryption
        Issuer: C=US, O=Symantec Corporation, CN=Symantec Time Stamping Services CA - G2
        Validity
            Not Before: Oct 18 00:00:00 2012 GMT
            Not After : Dec 29 23:59:59 2020 GMT
        Subject: C=US, O=Symantec Corporation, CN=Symantec Time Stamping Services Signer - G4
        Subject Public Key Info:
            Public Key Algorithm: rsaEncryption
                Public-Key: (2048 bit)
                Modulus:
                    00:a2:63:0b:39:44:b8:bb:23:a7:44:49:bb:0e:ff:
                    a1:f0:61:0a:53:93:b0:98:db:ad:2c:0f:4a:c5:6e:
                    ff:86:3c:53:55:0f:15:ce:04:3f:2b:fd:a9:96:96:
                    d9:be:61:79:0b:5b:c9:4c:86:76:e5:e0:43:4b:22:
                    95:ee:c2:2b:43:c1:9f:d8:68:b4:8e:40:4f:ee:85:
                    38:b9:11:c5:23:f2:64:58:f0:15:32:6f:4e:57:a1:
                    ae:88:a4:02:d7:2a:1e:cd:4b:e1:dd:63:d5:17:89:
                    32:5b:b0:5e:99:5a:a8:9d:28:50:0e:17:ee:96:db:
                    61:3b:45:51:1d:cf:12:56:0b:92:47:fc:ab:ae:f6:
                    66:3d:47:ac:70:72:e7:92:e7:5f:cd:10:b9:c4:83:
                    64:94:19:bd:25:80:e1:e8:d2:22:a5:d0:ba:02:7a:
                    a1:77:93:5b:65:c3:ee:17:74:bc:41:86:2a:dc:08:
                    4c:8c:92:8c:91:2d:9e:77:44:1f:68:d6:a8:74:77:
                    db:0e:5b:32:8b:56:8b:33:bd:d9:63:c8:49:9d:3a:
                    c5:c5:ea:33:0b:d2:f1:a3:1b:f4:8b:be:d9:b3:57:
                    8b:3b:de:04:a7:7a:22:b2:24:ae:2e:c7:70:c5:be:
                    4e:83:26:08:fb:0b:bd:a9:4f:99:08:e1:10:28:72:
                    aa:cd
                Exponent: 65537 (0x10001)
        X509v3 extensions:
            X509v3 Basic Constraints: critical
                CA:FALSE
            X509v3 Extended Key Usage: critical
                Time Stamping
            X509v3 Key Usage: critical
                Digital Signature
            Authority Information Access: 
                OCSP - URI:http://ts-ocsp.ws.symantec.com
                CA Issuers - URI:http://ts-aia.ws.symantec.com/tss-ca-g2.cer

            X509v3 CRL Distribution Points: 

                Full Name:
                  URI:http://ts-crl.ws.symantec.com/tss-ca-g2.crl

            X509v3 Subject Alternative Name: 
                DirName:/CN=TimeStamp-2048-2
            X509v3 Subject Key Identifier: 
                46:C6:69:A3:0E:4A:14:1E:D5:4C:DA:52:63:17:3F:5E:36:BC:0D:E6
            X509v3 Authority Key Identifier: 
                keyid:5F:9A:F5:6E:5C:CC:CC:74:9A:D4:DD:7D:EF:3F:DB:EC:4C:80:2E:DD

    Signature Algorithm: sha1WithRSAEncryption
         78:3b:b4:91:2a:00:4c:f0:8f:62:30:37:78:a3:84:27:07:6f:
         18:b2:de:25:dc:a0:d4:94:03:aa:86:4e:25:9f:9a:40:03:1c:
         dd:ce:e3:79:cb:21:68:06:da:b6:32:b4:6d:bf:f4:2c:26:63:
         33:e4:49:64:6d:0d:e6:c3:67:0e:f7:05:a4:35:6c:7c:89:16:
         c6:e9:b2:df:b2:e9:dd:20:c6:71:0f:cd:95:74:dc:b6:5c:de:
         bd:37:1f:43:78:e6:78:b5:cd:28:04:20:a3:aa:f1:4b:c4:88:
         29:91:0e:80:d1:11:fc:dd:5c:76:6e:4f:5e:0e:45:46:41:6e:
         0d:b0:ea:38:9a:b1:3a:da:09:71:10:fc:1c:79:b4:80:7b:ac:
         69:f4:fd:9c:b6:0c:16:2b:f1:7f:5b:09:3d:9b:5b:e2:16:ca:
         13:81:6d:00:2e:38:0d:a8:29:8f:2c:e1:b2:f4:5a:a9:01:af:
         15:9c:2c:2f:49:1b:db:22:bb:c3:fe:78:94:51:c3:86:b1:82:
         88:5d:f0:3d:b4:51:a1:79:33:2b:2e:7b:b9:dc:20:09:13:71:
         eb:6a:19:5b:cf:e8:a5:30:57:2c:89:49:3f:b9:cf:7f:c9:bf:
         3e:22:68:63:53:9a:bd:69:74:ac:c5:1d:3c:7f:92:e0:c3:bc:
         1c:d8:04:75
-----BEGIN CERTIFICATE-----
MIIEozCCA4ugAwIBAgIQDs/0OMj+vzVuBNhqmBsaUDANBgkqhkiG9w0BAQUFADBe
MQswCQYDVQQGEwJVUzEdMBsGA1UEChMUU3ltYW50ZWMgQ29ycG9yYXRpb24xMDAu
BgNVBAMTJ1N5bWFudGVjIFRpbWUgU3RhbXBpbmcgU2VydmljZXMgQ0EgLSBHMjAe
Fw0xMjEwMTgwMDAwMDBaFw0yMDEyMjkyMzU5NTlaMGIxCzAJBgNVBAYTAlVTMR0w
GwYDVQQKExRTeW1hbnRlYyBDb3Jwb3JhdGlvbjE0MDIGA1UEAxMrU3ltYW50ZWMg
VGltZSBTdGFtcGluZyBTZXJ2aWNlcyBTaWduZXIgLSBHNDCCASIwDQYJKoZIhvcN
AQEBBQADggEPADCCAQoCggEBAKJjCzlEuLsjp0RJuw7/ofBhClOTsJjbrSwPSsVu
/4Y8U1UPFc4EPyv9qZaW2b5heQtbyUyGduXgQ0sile7CK0PBn9hotI5AT+6FOLkR
xSPyZFjwFTJvTlehroikAtcqHs1L4d1j1ReJMluwXplaqJ0oUA4X7pbbYTtFUR3P
ElYLkkf8q672Zj1HrHBy55LnX80QucSDZJQZvSWA4ejSIqXQugJ6oXeTW2XD7hd0
vEGGKtwITIySjJEtnndEH2jWqHR32w5bMotWizO92WPISZ06xcXqMwvS8aMb9Iu+
2bNXizveBKd6IrIkri7HcMW+ToMmCPsLvalPmQjhEChyqs0CAwEAAaOCAVcwggFT
MAwGA1UdEwEB/wQCMAAwFgYDVR0lAQH/BAwwCgYIKwYBBQUHAwgwDgYDVR0PAQH/
BAQDAgeAMHMGCCsGAQUFBwEBBGcwZTAqBggrBgEFBQcwAYYeaHR0cDovL3RzLW9j
c3Aud3Muc3ltYW50ZWMuY29tMDcGCCsGAQUFBzAChitodHRwOi8vdHMtYWlhLndz
LnN5bWFudGVjLmNvbS90c3MtY2EtZzIuY2VyMDwGA1UdHwQ1MDMwMaAvoC2GK2h0
dHA6Ly90cy1jcmwud3Muc3ltYW50ZWMuY29tL3Rzcy1jYS1nMi5jcmwwKAYDVR0R
BCEwH6QdMBsxGTAXBgNVBAMTEFRpbWVTdGFtcC0yMDQ4LTIwHQYDVR0OBBYEFEbG
aaMOShQe1UzaUmMXP142vA3mMB8GA1UdIwQYMBaAFF+a9W5czMx0mtTdfe8/2+xM
gC7dMA0GCSqGSIb3DQEBBQUAA4IBAQB4O7SRKgBM8I9iMDd4o4QnB28Yst4l3KDU
lAOqhk4ln5pAAxzdzuN5yyFoBtq2MrRtv/QsJmMz5ElkbQ3mw2cO9wWkNWx8iRbG
6bLfsundIMZxD82VdNy2XN69Nx9DeOZ4tc0oBCCjqvFLxIgpkQ6A0RH83Vx2bk9e
DkVGQW4NsOo4mrE62glxEPwcebSAe6xp9P2ctgwWK/F/Wwk9m1viFsoTgW0ALjgN
qCmPLOGy9FqpAa8VnCwvSRvbIrvD/niUUcOGsYKIXfA9tFGheTMrLnu53CAJE3Hr
ahlbz+ilMFcsiUk/uc9/yb8+ImhjU5q9aXSsxR08f5Lgw7wc2AR1
-----END CERTIFICATE-----

Certificate:
    Data:
        Version: 3 (0x2)
        Serial Number:
            4d:62:90:e5:8c:54:f0:f1:eb:17:34:1a:13:10:e6:a4
    Signature Algorithm: sha1WithRSAEncryption
        Issuer: C=US, O=VeriSign, Inc., OU=Class 3 Public Primary Certification Authority
        Validity
            Not Before: Sep 30 00:00:00 2010 GMT
            Not After : Jan  1 23:59:59 2014 GMT
        Subject: C=US, O=VeriSign, Inc., OU=VeriSign Trust Network, OU=Terms of use at https://www.verisign.com/rpa (c)10, CN=VeriSign Class 3 Code Signing 2010 CA
        Subject Public Key Info:
            Public Key Algorithm: rsaEncryption
                Public-Key: (2048 bit)
                Modulus:
                    00:f5:23:4b:5e:a5:d7:8a:bb:32:e9:d4:57:f7:ef:
                    e4:c7:26:7e:ad:19:98:fe:a8:9d:7d:94:f6:36:6b:
                    10:d7:75:81:30:7f:04:68:7f:cb:2b:75:1e:cd:1d:
                    08:8c:df:69:94:a7:37:a3:9c:7b:80:e0:99:e1:ee:
                    37:4d:5f:ce:3b:14:ee:86:d4:d0:f5:27:35:bc:25:
                    0b:38:a7:8c:63:9d:17:a3:08:a5:ab:b0:fb:cd:6a:
                    62:82:4c:d5:21:da:1b:d9:f1:e3:84:3b:8a:2a:4f:
                    85:5b:90:01:4f:c9:a7:76:10:7f:27:03:7c:be:ae:
                    7e:7d:c1:dd:f9:05:bc:1b:48:9c:69:e7:c0:a4:3c:
                    3c:41:00:3e:df:96:e5:c5:e4:94:71:d6:55:01:c7:
                    00:26:4a:40:3c:b5:a1:26:a9:0c:a7:6d:80:8e:90:
                    25:7b:cf:bf:3f:1c:eb:2f:96:fa:e5:87:77:c6:b5:
                    56:b2:7a:3b:54:30:53:1b:df:62:34:ff:1e:d1:f4:
                    5a:93:28:85:e5:4c:17:4e:7e:5b:fd:a4:93:99:7f:
                    df:cd:ef:a4:75:ef:ef:15:f6:47:e7:f8:19:72:d8:
                    2e:34:1a:a6:b4:a7:4c:7e:bd:bb:4f:0c:3d:57:f1:
                    30:d6:a6:36:8e:d6:80:76:d7:19:2e:a5:cd:7e:34:
                    2d:89
                Exponent: 65537 (0x10001)
        X509v3 extensions:
            X509v3 Basic Constraints: critical
                CA:TRUE, pathlen:0
            X509v3 Certificate Policies: 
                Policy: 2.16.840.1.113733.1.7.23.3
                  CPS: https://www.verisign.com/cps
                  User Notice:
                    Explicit Text: https://www.verisign.com/rpa

            X509v3 Key Usage: critical
                Certificate Sign, CRL Sign
            1.3.6.1.5.5.7.1.12: 
                0_.].[0Y0W0U..image/gif0!0.0...+..............k...j.H.,{..0%.#http://logo.verisign.com/vslogo.gif
            X509v3 Extended Key Usage: 
                TLS Web Client Authentication, Code Signing
            X509v3 Subject Alternative Name: 
                DirName:/CN=VeriSignMPKI-2-8
            X509v3 Subject Key Identifier: 
                CF:99:A9:EA:7B:26:F4:4B:C9:8E:8F:D7:F0:05:26:EF:E3:D2:A7:9D
            X509v3 CRL Distribution Points: 

                Full Name:
                  URI:http://crl.verisign.com/pca3.crl

    Signature Algorithm: sha1WithRSAEncryption
         ae:dd:21:1d:5f:8f:80:7a:d2:52:09:ea:db:6e:d2:5d:8b:e8:
         c2:1b:69:04:be:51:a5:01:0e:59:fa:37:d1:74:a3:ee:dc:ed:
         89:74:2b:62:d5:a6:bf:4f:ad:36:17:54:f0:13:e0:a3:45:d2:
         4c:26:cb:e2:6d:a2:1f:d0:1e:7a:07:0f:b6:b3:7b:6f:50:68:
         a2:e9:31:b3:b7:99:7d:80:70:a0:a7:de:0b:1e:a4:ff:f3:4d:
         81:1b:dd:20:c9:1c:c4:af:cf:f1:8f:fa:d9:da:95:f0:ec:dc:
         5c:bf:e8:8c:5a:3e:7a:b0:a3:eb:59:43:74:11:e0:9b:1a:6a:
         f3:6f
-----BEGIN CERTIFICATE-----
MIIEwzCCBCygAwIBAgIQTWKQ5YxU8PHrFzQaExDmpDANBgkqhkiG9w0BAQUFADBf
MQswCQYDVQQGEwJVUzEXMBUGA1UEChMOVmVyaVNpZ24sIEluYy4xNzA1BgNVBAsT
LkNsYXNzIDMgUHVibGljIFByaW1hcnkgQ2VydGlmaWNhdGlvbiBBdXRob3JpdHkw
HhcNMTAwOTMwMDAwMDAwWhcNMTQwMTAxMjM1OTU5WjCBtDELMAkGA1UEBhMCVVMx
FzAVBgNVBAoTDlZlcmlTaWduLCBJbmMuMR8wHQYDVQQLExZWZXJpU2lnbiBUcnVz
dCBOZXR3b3JrMTswOQYDVQQLEzJUZXJtcyBvZiB1c2UgYXQgaHR0cHM6Ly93d3cu
dmVyaXNpZ24uY29tL3JwYSAoYykxMDEuMCwGA1UEAxMlVmVyaVNpZ24gQ2xhc3Mg
MyBDb2RlIFNpZ25pbmcgMjAxMCBDQTCCASIwDQYJKoZIhvcNAQEBBQADggEPADCC
AQoCggEBAPUjS16l14q7MunUV/fv5Mcmfq0ZmP6onX2U9jZrENd1gTB/BGh/yyt1
Hs0dCIzfaZSnN6Oce4DgmeHuN01fzjsU7obU0PUnNbwlCzinjGOdF6MIpauw+81q
YoJM1SHaG9nx44Q7iipPhVuQAU/Jp3YQfycDfL6ufn3B3fkFvBtInGnnwKQ8PEEA
Pt+W5cXklHHWVQHHACZKQDy1oSapDKdtgI6QJXvPvz8c6y+W+uWHd8a1VrJ6O1Qw
UxvfYjT/HtH0WpMoheVMF05+W/2kk5l/383vpHXv7xX2R+f4GXLYLjQaprSnTH69
u08MPVfxMNamNo7WgHbXGS6lzX40LYkCAwEAAaOCAaQwggGgMBIGA1UdEwEB/wQI
MAYBAf8CAQAwcAYDVR0gBGkwZzBlBgtghkgBhvhFAQcXAzBWMCgGCCsGAQUFBwIB
FhxodHRwczovL3d3dy52ZXJpc2lnbi5jb20vY3BzMCoGCCsGAQUFBwICMB4aHGh0
dHBzOi8vd3d3LnZlcmlzaWduLmNvbS9ycGEwDgYDVR0PAQH/BAQDAgEGMG0GCCsG
AQUFBwEMBGEwX6FdoFswWTBXMFUWCWltYWdlL2dpZjAhMB8wBwYFKw4DAhoEFI/l
0xqGrI2Oa8PPgGrUSBgsexkuMCUWI2h0dHA6Ly9sb2dvLnZlcmlzaWduLmNvbS92
c2xvZ28uZ2lmMB0GA1UdJQQWMBQGCCsGAQUFBwMCBggrBgEFBQcDAzAoBgNVHREE
ITAfpB0wGzEZMBcGA1UEAxMQVmVyaVNpZ25NUEtJLTItODAdBgNVHQ4EFgQUz5mp
6nsm9EvJjo/X8AUm7+PSp50wMQYDVR0fBCowKDAmoCSgIoYgaHR0cDovL2NybC52
ZXJpc2lnbi5jb20vcGNhMy5jcmwwDQYJKoZIhvcNAQEFBQADgYEArt0hHV+PgHrS
Ugnq227SXYvowhtpBL5RpQEOWfo30XSj7tztiXQrYtWmv0+tNhdU8BPgo0XSTCbL
4m2iH9AeegcPtrN7b1Booukxs7eZfYBwoKfeCx6k//NNgRvdIMkcxK/P8Y/62dqV
8OzcXL/ojFo+erCj61lDdBHgmxpq828=
-----END CERTIFICATE-----

Certificate:
    Data:
        Version: 3 (0x2)
        Serial Number:
            53:8e:4b:92:bd:f7:4e:f5:bc:1d:02:5b:2d:4f:22:c6
    Signature Algorithm: sha1WithRSAEncryption
        Issuer: C=US, O=VeriSign, Inc., OU=VeriSign Trust Network, OU=Terms of use at https://www.verisign.com/rpa (c)10, CN=VeriSign Class 3 Code Signing 2010 CA
        Validity
            Not Before: Dec 28 00:00:00 2010 GMT
            Not After : Dec 27 23:59:59 2013 GMT
        Subject: C=CN, ST=beijing, L=beijing, O=BEIJING QIYI CENTURY SCIENCE&TECHNOLOGY CO.,LTD., OU=Digital ID Class 3 - Microsoft Software Validation v2, CN=BEIJING QIYI CENTURY SCIENCE&TECHNOLOGY CO.,LTD.
        Subject Public Key Info:
            Public Key Algorithm: rsaEncryption
                Public-Key: (2048 bit)
                Modulus:
                    00:a5:51:de:27:98:cc:f3:d0:d3:03:15:6e:58:67:
                    7d:c5:48:69:f7:db:ea:f1:43:e0:dc:3a:39:19:19:
                    67:43:a3:5b:3a:63:34:ff:5c:93:08:be:19:ab:b5:
                    39:28:07:24:ea:43:b0:ab:c5:8f:d6:f6:12:a7:87:
                    ff:19:f7:de:34:42:35:f1:9d:e1:b4:8a:dc:5e:75:
                    02:c6:96:0c:9f:7a:28:fb:df:17:48:b1:a9:ed:88:
                    f9:8a:1b:12:87:93:0c:b9:de:a7:fc:aa:96:38:2e:
                    2b:57:0a:ca:15:95:09:af:0d:6a:de:a5:9d:a4:30:
                    4e:6a:12:93:86:8b:b3:2f:77:10:3c:9d:57:48:9c:
                    e4:89:e9:a8:e5:77:60:de:f1:c2:9c:ba:1c:d7:72:
                    f2:c1:68:7a:9f:81:76:09:14:df:71:17:fc:10:41:
                    ae:64:22:c0:f2:39:65:36:21:79:2c:e6:0b:64:31:
                    c2:f4:2c:c3:e4:88:ad:c3:68:9d:77:ef:e4:59:60:
                    cf:b0:4a:ca:20:90:af:94:6c:b8:bf:f9:85:90:bd:
                    ba:97:98:6a:51:4a:7b:2d:af:83:7c:9e:54:0f:1f:
                    48:75:20:57:38:aa:75:99:81:f1:b1:58:10:f7:5e:
                    c5:f4:a4:60:27:c8:49:fa:e1:6e:1c:df:25:fb:b3:
                    b3:25
                Exponent: 65537 (0x10001)
        X509v3 extensions:
            X509v3 Basic Constraints: 
                CA:FALSE
            X509v3 Key Usage: critical
                Digital Signature
            X509v3 CRL Distribution Points: 

                Full Name:
                  URI:http://csc3-2010-crl.verisign.com/CSC3-2010.crl

            X509v3 Certificate Policies: 
                Policy: 2.16.840.1.113733.1.7.23.3
                  CPS: https://www.verisign.com/rpa

            X509v3 Extended Key Usage: 
                Code Signing
            Authority Information Access: 
                OCSP - URI:http://ocsp.verisign.com
                CA Issuers - URI:http://csc3-2010-aia.verisign.com/CSC3-2010.cer

            X509v3 Authority Key Identifier: 
                keyid:CF:99:A9:EA:7B:26:F4:4B:C9:8E:8F:D7:F0:05:26:EF:E3:D2:A7:9D

            Netscape Cert Type: 
                Object Signing
            1.3.6.1.4.1.311.2.1.27: 
                0.......
    Signature Algorithm: sha1WithRSAEncryption
         e4:7b:96:e0:de:4b:13:91:a4:0d:d0:35:49:c8:27:3f:0a:26:
         eb:ea:cc:df:1e:a7:3f:82:6a:da:c9:9c:c5:df:bb:3a:55:d7:
         fd:0c:c6:fa:f5:80:94:fd:82:e8:62:e5:ed:25:be:90:87:85:
         ca:f7:9d:6c:31:ce:90:72:ae:a4:3b:0e:f5:00:a8:f3:d8:b3:
         5e:34:39:45:90:30:83:23:92:bf:53:1d:7a:9e:2d:5a:a9:2e:
         17:d5:5d:8b:a2:0c:87:a0:59:2d:4e:bb:38:8a:3e:d3:3c:d7:
         98:29:d7:39:b2:fd:dc:e6:4d:f1:c3:83:63:cc:03:a7:a7:8e:
         ba:58:08:38:42:b9:fc:7d:4f:37:27:7d:86:58:0d:99:51:b7:
         22:2c:1b:cb:6a:3f:2d:5f:16:29:5f:cf:9c:12:6f:e5:68:3d:
         9d:45:f1:80:e6:4c:03:c1:b9:f9:03:d0:31:e4:d6:f9:79:cf:
         f0:05:b5:3a:8f:1f:2c:d9:83:72:75:28:db:07:77:00:c2:5c:
         93:bc:53:40:a1:e9:cc:c5:fa:15:ee:c1:40:5d:c7:ff:d9:9e:
         42:44:6d:2a:fc:91:fa:a8:39:42:d4:ed:0a:af:32:a1:00:d3:
         84:8d:9f:d1:e6:2b:09:ca:0b:c2:3e:fd:b0:6a:96:52:8f:54:
         ad:18:cb:f5
-----BEGIN CERTIFICATE-----
MIIFpDCCBIygAwIBAgIQU45Lkr33TvW8HQJbLU8ixjANBgkqhkiG9w0BAQUFADCB
tDELMAkGA1UEBhMCVVMxFzAVBgNVBAoTDlZlcmlTaWduLCBJbmMuMR8wHQYDVQQL
ExZWZXJpU2lnbiBUcnVzdCBOZXR3b3JrMTswOQYDVQQLEzJUZXJtcyBvZiB1c2Ug
YXQgaHR0cHM6Ly93d3cudmVyaXNpZ24uY29tL3JwYSAoYykxMDEuMCwGA1UEAxMl
VmVyaVNpZ24gQ2xhc3MgMyBDb2RlIFNpZ25pbmcgMjAxMCBDQTAeFw0xMDEyMjgw
MDAwMDBaFw0xMzEyMjcyMzU5NTlaMIHnMQswCQYDVQQGEwJDTjEQMA4GA1UECBMH
YmVpamluZzEQMA4GA1UEBxMHYmVpamluZzE5MDcGA1UEChQwQkVJSklORyBRSVlJ
IENFTlRVUlkgU0NJRU5DRSZURUNITk9MT0dZIENPLixMVEQuMT4wPAYDVQQLEzVE
aWdpdGFsIElEIENsYXNzIDMgLSBNaWNyb3NvZnQgU29mdHdhcmUgVmFsaWRhdGlv
biB2MjE5MDcGA1UEAxQwQkVJSklORyBRSVlJIENFTlRVUlkgU0NJRU5DRSZURUNI
Tk9MT0dZIENPLixMVEQuMIIBIjANBgkqhkiG9w0BAQEFAAOCAQ8AMIIBCgKCAQEA
pVHeJ5jM89DTAxVuWGd9xUhp99vq8UPg3Do5GRlnQ6NbOmM0/1yTCL4Zq7U5KAck
6kOwq8WP1vYSp4f/GffeNEI18Z3htIrcXnUCxpYMn3oo+98XSLGp7Yj5ihsSh5MM
ud6n/KqWOC4rVwrKFZUJrw1q3qWdpDBOahKThouzL3cQPJ1XSJzkiemo5Xdg3vHC
nLoc13LywWh6n4F2CRTfcRf8EEGuZCLA8jllNiF5LOYLZDHC9CzD5Iitw2idd+/k
WWDPsErKIJCvlGy4v/mFkL26l5hqUUp7La+DfJ5UDx9IdSBXOKp1mYHxsVgQ917F
9KRgJ8hJ+uFuHN8l+7OzJQIDAQABo4IBezCCAXcwCQYDVR0TBAIwADAOBgNVHQ8B
Af8EBAMCB4AwQAYDVR0fBDkwNzA1oDOgMYYvaHR0cDovL2NzYzMtMjAxMC1jcmwu
dmVyaXNpZ24uY29tL0NTQzMtMjAxMC5jcmwwRAYDVR0gBD0wOzA5BgtghkgBhvhF
AQcXAzAqMCgGCCsGAQUFBwIBFhxodHRwczovL3d3dy52ZXJpc2lnbi5jb20vcnBh
MBMGA1UdJQQMMAoGCCsGAQUFBwMDMHEGCCsGAQUFBwEBBGUwYzAkBggrBgEFBQcw
AYYYaHR0cDovL29jc3AudmVyaXNpZ24uY29tMDsGCCsGAQUFBzAChi9odHRwOi8v
Y3NjMy0yMDEwLWFpYS52ZXJpc2lnbi5jb20vQ1NDMy0yMDEwLmNlcjAfBgNVHSME
GDAWgBTPmanqeyb0S8mOj9fwBSbv49KnnTARBglghkgBhvhCAQEEBAMCBBAwFgYK
KwYBBAGCNwIBGwQIMAYBAQABAf8wDQYJKoZIhvcNAQEFBQADggEBAOR7luDeSxOR
pA3QNUnIJz8KJuvqzN8epz+CatrJnMXfuzpV1/0Mxvr1gJT9guhi5e0lvpCHhcr3
nWwxzpByrqQ7DvUAqPPYs140OUWQMIMjkr9THXqeLVqpLhfVXYuiDIegWS1OuziK
PtM815gp1zmy/dzmTfHDg2PMA6enjrpYCDhCufx9TzcnfYZYDZlRtyIsG8tqPy1f
Filfz5wSb+VoPZ1F8YDmTAPBufkD0DHk1vl5z/AFtTqPHyzZg3J1KNsHdwDCXJO8
U0Ch6czF+hXuwUBdx//ZnkJEbSr8kfqoOULU7QqvMqEA04SNn9HmKwnKC8I+/bBq
llKPVK0Yy/U=
-----END CERTIFICATE-----

