Certificate:
    Data:
        Version: 3 (0x2)
        Serial Number:
            05:5f:93:7a:9d:f7:3d:fd:90:ba:98:89:e4:c5:0a:11
    Signature Algorithm: sha256WithRSAEncryption
        Issuer: C=US, O=DigiCert Inc, OU=www.digicert.com, CN=DigiCert SHA2 High Assurance Code Signing CA
        Validity
            Not Before: Jan 25 00:00:00 2016 GMT
            Not After : Jan 29 12:00:00 2019 GMT
        Subject: C=FR, ST=Ile-de-France, L=Saint Cloud, O=Notepad++, CN=Notepad++
        Subject Public Key Info:
            Public Key Algorithm: rsaEncryption
                Public-Key: (2048 bit)
                Modulus:
                    00:d4:fb:62:56:e7:12:16:fa:e2:0b:1f:97:33:74:
                    f9:10:74:70:96:80:f7:e1:e3:04:ce:5c:e5:20:f3:
                    85:36:ab:cb:ee:27:be:98:63:64:78:c7:ac:3a:77:
                    7d:86:52:eb:23:5e:c7:f7:41:61:b8:23:68:28:ba:
                    d7:5c:50:42:64:50:55:76:05:30:b0:f0:f8:56:44:
                    cb:c4:1e:36:ba:80:82:42:46:d4:51:40:d0:6a:71:
                    4c:71:dd:ff:bb:e4:19:5d:17:b1:b6:4a:d6:cd:36:
                    4f:06:ea:5c:8c:da:cd:ef:7b:32:4a:57:dc:35:59:
                    df:66:50:ff:79:25:3c:59:89:66:50:25:d1:2f:22:
                    c7:cf:86:9f:69:06:c8:94:63:70:4d:b4:3c:36:fa:
                    a9:0a:19:4d:db:ae:b7:cb:ca:3f:c0:2e:46:bc:dd:
                    bd:16:8d:99:19:6c:1e:13:34:4b:c0:7e:88:cd:32:
                    31:f0:b2:86:d7:70:e6:1b:25:fc:6f:b2:7c:00:d3:
                    0e:b2:7d:12:f4:b5:ab:37:4d:b6:b4:fc:e2:19:89:
                    4e:eb:e1:fb:74:16:5b:b7:40:31:95:5c:ab:3a:d8:
                    d6:73:7f:22:91:01:71:1a:74:d7:bb:3a:db:4f:56:
                    27:88:ee:5e:3a:56:f9:4f:d6:20:8a:3f:27:3e:8d:
                    93:39
                Exponent: 65537 (0x10001)
        X509v3 extensions:
            X509v3 Authority Key Identifier: 
                keyid:67:9D:0F:20:09:0C:CC:8A:3A:E5:82:46:72:62:FC:F1:CC:90:E5:40

            X509v3 Subject Key Identifier: 
                42:C4:C5:84:6B:B6:75:C7:4E:2B:2C:90:C6:9A:B4:43:66:40:10:93
            X509v3 Key Usage: critical
                Digital Signature
            X509v3 Extended Key Usage: 
                Code Signing
            X509v3 CRL Distribution Points: 

                Full Name:
                  URI:http://crl3.digicert.com/sha2-ha-cs-g1.crl

                Full Name:
                  URI:http://crl4.digicert.com/sha2-ha-cs-g1.crl

            X509v3 Certificate Policies: 
                Policy: 2.16.840.1.114412.3.1
                  CPS: https://www.digicert.com/CPS
                Policy: 2.23.140.1.4.1

            Authority Information Access: 
                OCSP - URI:http://ocsp.digicert.com
                CA Issuers - URI:http://cacerts.digicert.com/DigiCertSHA2HighAssuranceCodeSigningCA.crt

            X509v3 Basic Constraints: critical
                CA:FALSE
    Signature Algorithm: sha256WithRSAEncryption
         66:7c:3d:ce:6a:8c:0b:68:d0:a3:53:08:04:8e:0e:46:c1:2a:
         e9:f2:b2:1b:37:67:03:01:6c:5a:64:81:e6:b5:83:89:4b:ba:
         b0:21:9b:86:ea:96:4f:9e:55:4c:5f:0a:da:34:5d:ae:b9:cb:
         23:aa:bc:fa:28:6d:f0:a7:f1:37:01:f3:df:ae:9d:e5:1e:8e:
         b8:a7:ed:4d:2a:0e:38:a8:62:24:57:af:3d:03:78:60:3e:f3:
         fa:a9:e4:35:cb:79:6a:03:6a:3c:be:ad:b6:21:52:64:05:74:
         ba:09:e3:81:fc:e3:50:a8:33:f3:1f:4c:99:47:1f:2d:35:6a:
         32:4f:0b:67:65:d3:86:e8:f2:57:03:0a:cd:63:7b:b3:d8:01:
         dd:9a:f2:a8:f0:eb:5f:3e:c9:a2:b4:ed:2c:1a:87:26:1a:3a:
         50:dc:45:e3:f7:28:4b:01:82:0d:c5:09:88:89:24:5e:3a:fb:
         96:d5:5e:21:cf:bd:24:1c:9b:2a:14:a8:83:a6:df:a9:43:60:
         ef:fe:3c:b5:9f:82:f0:71:d0:61:1e:1f:63:32:a4:f3:ad:03:
         7d:86:5b:08:1c:3a:23:a1:4d:ac:9f:c2:7e:77:4e:37:ca:fc:
         05:d2:e4:6d:ea:ec:a3:bf:fa:e5:6d:d9:c2:a8:f3:ef:b7:44:
         2a:81:0e:63
-----BEGIN CERTIFICATE-----
MIIFJDCCBAygAwIBAgIQBV+Tep33Pf2QupiJ5MUKETANBgkqhkiG9w0BAQsFADB2
MQswCQYDVQQGEwJVUzEVMBMGA1UEChMMRGlnaUNlcnQgSW5jMRkwFwYDVQQLExB3
d3cuZGlnaWNlcnQuY29tMTUwMwYDVQQDEyxEaWdpQ2VydCBTSEEyIEhpZ2ggQXNz
dXJhbmNlIENvZGUgU2lnbmluZyBDQTAeFw0xNjAxMjUwMDAwMDBaFw0xOTAxMjkx
MjAwMDBaMGMxCzAJBgNVBAYTAkZSMRYwFAYDVQQIEw1JbGUtZGUtRnJhbmNlMRQw
EgYDVQQHEwtTYWludCBDbG91ZDESMBAGA1UEChMJTm90ZXBhZCsrMRIwEAYDVQQD
EwlOb3RlcGFkKyswggEiMA0GCSqGSIb3DQEBAQUAA4IBDwAwggEKAoIBAQDU+2JW
5xIW+uILH5czdPkQdHCWgPfh4wTOXOUg84U2q8vuJ76YY2R4x6w6d32GUusjXsf3
QWG4I2goutdcUEJkUFV2BTCw8PhWRMvEHja6gIJCRtRRQNBqcUxx3f+75BldF7G2
StbNNk8G6lyM2s3vezJKV9w1Wd9mUP95JTxZiWZQJdEvIsfPhp9pBsiUY3BNtDw2
+qkKGU3brrfLyj/ALka83b0WjZkZbB4TNEvAfojNMjHwsobXcOYbJfxvsnwA0w6y
fRL0tas3Tba0/OIZiU7r4ft0Flu3QDGVXKs62NZzfyKRAXEadNe7OttPVieI7l46
VvlP1iCKPyc+jZM5AgMBAAGjggG/MIIBuzAfBgNVHSMEGDAWgBRnnQ8gCQzMijrl
gkZyYvzxzJDlQDAdBgNVHQ4EFgQUQsTFhGu2dcdOKyyQxpq0Q2ZAEJMwDgYDVR0P
AQH/BAQDAgeAMBMGA1UdJQQMMAoGCCsGAQUFBwMDMG0GA1UdHwRmMGQwMKAuoCyG
Kmh0dHA6Ly9jcmwzLmRpZ2ljZXJ0LmNvbS9zaGEyLWhhLWNzLWcxLmNybDAwoC6g
LIYqaHR0cDovL2NybDQuZGlnaWNlcnQuY29tL3NoYTItaGEtY3MtZzEuY3JsMEwG
A1UdIARFMEMwNwYJYIZIAYb9bAMBMCowKAYIKwYBBQUHAgEWHGh0dHBzOi8vd3d3
LmRpZ2ljZXJ0LmNvbS9DUFMwCAYGZ4EMAQQBMIGIBggrBgEFBQcBAQR8MHowJAYI
KwYBBQUHMAGGGGh0dHA6Ly9vY3NwLmRpZ2ljZXJ0LmNvbTBSBggrBgEFBQcwAoZG
aHR0cDovL2NhY2VydHMuZGlnaWNlcnQuY29tL0RpZ2lDZXJ0U0hBMkhpZ2hBc3N1
cmFuY2VDb2RlU2lnbmluZ0NBLmNydDAMBgNVHRMBAf8EAjAAMA0GCSqGSIb3DQEB
CwUAA4IBAQBmfD3OaowLaNCjUwgEjg5GwSrp8rIbN2cDAWxaZIHmtYOJS7qwIZuG
6pZPnlVMXwraNF2uucsjqrz6KG3wp/E3AfPfrp3lHo64p+1NKg44qGIkV689A3hg
PvP6qeQ1y3lqA2o8vq22IVJkBXS6CeOB/ONQqDPzH0yZRx8tNWoyTwtnZdOG6PJX
AwrNY3uz2AHdmvKo8OtfPsmitO0sGocmGjpQ3EXj9yhLAYINxQmIiSReOvuW1V4h
z70kHJsqFKiDpt+pQ2Dv/jy1n4LwcdBhHh9jMqTzrQN9hlsIHDojoU2sn8J+d043
yvwF0uRt6uyjv/rlbdnCqPPvt0QqgQ5j
-----END CERTIFICATE-----

Certificate:
    Data:
        Version: 3 (0x2)
        Serial Number:
            0b:7e:10:90:3c:38:49:0f:fa:2f:67:9a:87:a1:a7:b9
    Signature Algorithm: sha256WithRSAEncryption
        Issuer: C=US, O=DigiCert Inc, OU=www.digicert.com, CN=DigiCert High Assurance EV Root CA
        Validity
            Not Before: Oct 22 12:00:00 2013 GMT
            Not After : Oct 22 12:00:00 2028 GMT
        Subject: C=US, O=DigiCert Inc, OU=www.digicert.com, CN=DigiCert SHA2 High Assurance Code Signing CA
        Subject Public Key Info:
            Public Key Algorithm: rsaEncryption
                Public-Key: (2048 bit)
                Modulus:
                    00:b4:4a:5e:7d:07:0f:41:de:c4:f5:76:16:36:bd:
                    71:ff:cf:3f:4f:73:4b:9c:d1:0d:fe:4a:cb:57:58:
                    5e:85:16:dd:02:15:54:99:f0:8f:3c:2f:4d:02:78:
                    10:68:c8:d8:35:4b:3f:c1:f7:67:ce:98:1c:ae:33:
                    b9:2d:1d:a4:0a:54:93:c4:85:a2:df:35:b1:f5:f1:
                    3c:a7:b3:34:fb:5d:48:c9:46:c9:62:44:bc:48:99:
                    eb:28:49:53:c3:3d:8f:c0:0e:de:35:98:e9:62:51:
                    df:3d:6b:40:61:ee:04:41:da:cf:a7:5c:56:96:d1:
                    f9:4c:b7:44:84:87:98:69:e5:82:b9:13:e6:55:bf:
                    c8:92:70:92:0a:31:6f:7f:8b:32:ab:cf:6b:5a:9f:
                    62:c4:3e:ee:be:ed:59:a4:53:7f:0b:f1:52:88:8a:
                    7b:0a:67:24:cb:90:cd:ec:d2:4d:34:4c:b0:e1:b5:
                    9f:9c:c6:f6:6f:2c:cd:e6:ca:53:74:01:9f:67:35:
                    de:38:49:2d:ce:ed:39:44:82:19:79:4e:1a:b2:b5:
                    fb:bb:78:f0:49:66:a7:cf:fa:5c:96:75:92:8b:1a:
                    72:d9:ff:50:92:53:cc:3e:c2:43:32:09:1a:86:13:
                    69:3c:fb:81:32:33:32:64:75:73:28:26:1d:08:30:
                    3b:07
                Exponent: 65537 (0x10001)
        X509v3 extensions:
            X509v3 Basic Constraints: critical
                CA:TRUE, pathlen:0
            X509v3 Key Usage: critical
                Digital Signature, Certificate Sign, CRL Sign
            X509v3 Extended Key Usage: 
                Code Signing
            Authority Information Access: 
                OCSP - URI:http://ocsp.digicert.com
                CA Issuers - URI:http://cacerts.digicert.com/DigiCertHighAssuranceEVRootCA.crt

            X509v3 CRL Distribution Points: 

                Full Name:
                  URI:http://crl4.digicert.com/DigiCertHighAssuranceEVRootCA.crl

                Full Name:
                  URI:http://crl3.digicert.com/DigiCertHighAssuranceEVRootCA.crl

            X509v3 Certificate Policies: 
                Policy: 2.16.840.1.114412.0.2.4
                  CPS: https://www.digicert.com/CPS
                Policy: 2.16.840.1.114412.3

            X509v3 Subject Key Identifier: 
                67:9D:0F:20:09:0C:CC:8A:3A:E5:82:46:72:62:FC:F1:CC:90:E5:40
            X509v3 Authority Key Identifier: 
                keyid:B1:3E:C3:69:03:F8:BF:47:01:D4:98:26:1A:08:02:EF:63:64:2B:C3

    Signature Algorithm: sha256WithRSAEncryption
         6a:0e:ff:7e:13:7c:06:a5:4b:c0:2e:8c:f9:53:64:09:e2:ba:
         58:91:30:50:ec:cc:9f:e1:d3:a8:2f:48:46:36:18:29:d0:78:
         28:5f:98:56:40:0f:1e:ba:bd:b1:3b:87:5c:dc:5b:d8:20:0d:
         ed:1a:16:4d:d5:11:24:21:4b:f1:27:69:90:13:eb:11:a1:01:
         da:fd:b5:4e:79:59:75:bd:38:2a:6a:c3:f6:8e:41:2b:8a:a2:
         8b:d7:2c:51:51:d9:9c:a0:c8:e3:4e:ba:6c:a8:47:d2:4e:d1:
         68:1f:8c:02:57:3b:b3:29:6a:8e:6a:20:2a:b9:f2:00:62:64:
         ba:c8:e9:00:f9:cc:a4:d4:ba:9a:35:d8:af:2c:65:6c:16:7c:
         58:21:de:4a:30:d0:fa:eb:24:5d:06:c9:9d:16:b7:ad:4a:45:
         d3:25:e2:0c:f0:40:aa:5c:4d:ac:7e:cd:06:82:b9:76:46:69:
         08:d8:32:b6:82:fe:e3:a9:58:34:43:1b:8e:67:67:97:3f:68:
         31:16:36:38:95:3e:87:f7:c7:c3:af:9d:7a:77:19:d9:de:93:
         b5:fd:6e:2b:fc:94:f9:3d:b7:4c:12:35:2c:30:be:e8:8d:9e:
         05:70:9a:48:13:f4:8c:d6:e7:1e:ac:38:e7:a8:f3:ad:0c:b7:
         7a:ec:67:ed
-----BEGIN CERTIFICATE-----
MIIFTzCCBDegAwIBAgIQC34QkDw4SQ/6L2eah6GnuTANBgkqhkiG9w0BAQsFADBs
MQswCQYDVQQGEwJVUzEVMBMGA1UEChMMRGlnaUNlcnQgSW5jMRkwFwYDVQQLExB3
d3cuZGlnaWNlcnQuY29tMSswKQYDVQQDEyJEaWdpQ2VydCBIaWdoIEFzc3VyYW5j
ZSBFViBSb290IENBMB4XDTEzMTAyMjEyMDAwMFoXDTI4MTAyMjEyMDAwMFowdjEL
MAkGA1UEBhMCVVMxFTATBgNVBAoTDERpZ2lDZXJ0IEluYzEZMBcGA1UECxMQd3d3
LmRpZ2ljZXJ0LmNvbTE1MDMGA1UEAxMsRGlnaUNlcnQgU0hBMiBIaWdoIEFzc3Vy
YW5jZSBDb2RlIFNpZ25pbmcgQ0EwggEiMA0GCSqGSIb3DQEBAQUAA4IBDwAwggEK
AoIBAQC0Sl59Bw9B3sT1dhY2vXH/zz9Pc0uc0Q3+SstXWF6FFt0CFVSZ8I88L00C
eBBoyNg1Sz/B92fOmByuM7ktHaQKVJPEhaLfNbH18TynszT7XUjJRsliRLxImeso
SVPDPY/ADt41mOliUd89a0Bh7gRB2s+nXFaW0flMt0SEh5hp5YK5E+ZVv8iScJIK
MW9/izKrz2tan2LEPu6+7VmkU38L8VKIinsKZyTLkM3s0k00TLDhtZ+cxvZvLM3m
ylN0AZ9nNd44SS3O7TlEghl5Thqytfu7ePBJZqfP+lyWdZKLGnLZ/1CSU8w+wkMy
CRqGE2k8+4EyMzJkdXMoJh0IMDsHAgMBAAGjggHhMIIB3TASBgNVHRMBAf8ECDAG
AQH/AgEAMA4GA1UdDwEB/wQEAwIBhjATBgNVHSUEDDAKBggrBgEFBQcDAzB/Bggr
BgEFBQcBAQRzMHEwJAYIKwYBBQUHMAGGGGh0dHA6Ly9vY3NwLmRpZ2ljZXJ0LmNv
bTBJBggrBgEFBQcwAoY9aHR0cDovL2NhY2VydHMuZGlnaWNlcnQuY29tL0RpZ2lD
ZXJ0SGlnaEFzc3VyYW5jZUVWUm9vdENBLmNydDCBjwYDVR0fBIGHMIGEMECgPqA8
hjpodHRwOi8vY3JsNC5kaWdpY2VydC5jb20vRGlnaUNlcnRIaWdoQXNzdXJhbmNl
RVZSb290Q0EuY3JsMECgPqA8hjpodHRwOi8vY3JsMy5kaWdpY2VydC5jb20vRGln
aUNlcnRIaWdoQXNzdXJhbmNlRVZSb290Q0EuY3JsME8GA1UdIARIMEYwOAYKYIZI
AYb9bAACBDAqMCgGCCsGAQUFBwIBFhxodHRwczovL3d3dy5kaWdpY2VydC5jb20v
Q1BTMAoGCGCGSAGG/WwDMB0GA1UdDgQWBBRnnQ8gCQzMijrlgkZyYvzxzJDlQDAf
BgNVHSMEGDAWgBSxPsNpA/i/RwHUmCYaCALvY2QrwzANBgkqhkiG9w0BAQsFAAOC
AQEAag7/fhN8BqVLwC6M+VNkCeK6WJEwUOzMn+HTqC9IRjYYKdB4KF+YVkAPHrq9
sTuHXNxb2CAN7RoWTdURJCFL8SdpkBPrEaEB2v21TnlZdb04KmrD9o5BK4qii9cs
UVHZnKDI4066bKhH0k7RaB+MAlc7sylqjmogKrnyAGJkusjpAPnMpNS6mjXYryxl
bBZ8WCHeSjDQ+uskXQbJnRa3rUpF0yXiDPBAqlxNrH7NBoK5dkZpCNgytoL+46lY
NEMbjmdnlz9oMRY2OJU+h/fHw6+dencZ2d6Ttf1uK/yU+T23TBI1LDC+6I2eBXCa
SBP0jNbnHqw456jzrQy3euxn7Q==
-----END CERTIFICATE-----

Certificate:
    Data:
        Version: 3 (0x2)
        Serial Number:
            03:01:9a:02:3a:ff:58:b1:6b:d6:d5:ea:e6:17:f0:66
    Signature Algorithm: sha1WithRSAEncryption
        Issuer: C=US, O=DigiCert Inc, OU=www.digicert.com, CN=DigiCert Assured ID CA-1
        Validity
            Not Before: Oct 22 00:00:00 2014 GMT
            Not After : Oct 22 00:00:00 2024 GMT
        Subject: C=US, O=DigiCert, CN=DigiCert Timestamp Responder
        Subject Public Key Info:
            Public Key Algorithm: rsaEncryption
                Public-Key: (2048 bit)
                Modulus:
                    00:a3:64:5d:fc:7c:b3:e0:82:35:e0:e0:f6:c6:2a:
                    e6:49:75:3b:cc:6e:e0:53:a9:9f:1f:64:59:e6:7c:
                    6b:7f:6b:8c:9d:55:f8:92:e3:9e:d5:5a:63:5b:02:
                    49:50:d9:83:ce:6f:66:ee:dd:cb:85:e9:5f:a5:f9:
                    d4:87:74:88:44:3b:19:c9:e5:f5:91:9f:c6:14:39:
                    ac:24:ea:a8:4b:2c:91:89:cc:5e:28:f4:64:b6:50:
                    b7:f5:12:b3:73:96:0a:67:a3:be:61:9f:ae:f3:fd:
                    12:78:75:0e:a6:5b:14:fd:45:23:8e:86:44:55:7d:
                    18:86:05:8c:55:87:79:48:46:f7:ca:0e:8d:a7:de:
                    4e:5f:e2:a8:b6:2d:59:02:61:88:61:72:18:68:b9:
                    b8:7c:ee:e6:e7:34:2f:31:77:81:30:1f:bb:36:01:
                    8d:ef:27:e3:f7:9a:f0:4c:31:64:8d:e3:eb:fa:19:
                    87:a8:7e:cf:ec:8c:0c:36:5b:7a:c1:7a:b8:78:c7:
                    c9:06:2e:46:10:c8:8d:e8:04:60:db:bc:73:74:fa:
                    4e:d8:fe:aa:40:f1:b2:ce:70:46:83:e9:da:40:a1:
                    59:3a:d9:15:09:57:99:56:30:93:f3:c9:61:cc:d0:
                    08:cc:6b:ec:62:42:91:ac:02:c0:ef:a4:f0:89:11:
                    8f:77
                Exponent: 65537 (0x10001)
        X509v3 extensions:
            X509v3 Key Usage: critical
                Digital Signature
            X509v3 Basic Constraints: critical
                CA:FALSE
            X509v3 Extended Key Usage: critical
                Time Stamping
            X509v3 Certificate Policies: 
                Policy: 2.16.840.1.114412.7.1
                  CPS: https://www.digicert.com/CPS
                  User Notice:
                    Explicit Text: 
                Policy: 2.16.840.1.114412.3.21

            X509v3 Authority Key Identifier: 
                keyid:15:00:12:2B:13:98:B2:99:07:ED:1E:DF:A2:BE:57:0D:2B:67:02:CD

            X509v3 Subject Key Identifier: 
                61:5A:4D:24:B6:49:32:9D:4A:2A:79:1A:83:4B:F4:1E:89:C1:CA:7D
            X509v3 CRL Distribution Points: 

                Full Name:
                  URI:http://crl3.digicert.com/DigiCertAssuredIDCA-1.crl

                Full Name:
                  URI:http://crl4.digicert.com/DigiCertAssuredIDCA-1.crl

            Authority Information Access: 
                OCSP - URI:http://ocsp.digicert.com
                CA Issuers - URI:http://cacerts.digicert.com/DigiCertAssuredIDCA-1.crt

    Signature Algorithm: sha1WithRSAEncryption
         9d:25:7e:1b:33:4d:b2:26:81:5c:9b:86:ce:23:20:0f:80:87:
         e5:88:ff:ff:b1:d4:6a:2c:31:ed:3a:17:19:71:17:cd:a9:1b:
         bc:5a:16:39:00:9d:e3:6c:84:e4:5a:40:fb:de:06:01:8c:37:
         fa:9b:b1:9d:24:7e:fe:20:a4:57:ad:5b:b7:9a:b0:60:26:ea:
         69:57:21:5d:34:2f:1f:71:b0:83:94:19:05:6b:35:90:10:a0:
         7b:97:c7:f6:3f:e7:e2:11:41:a6:bd:62:d9:f0:27:3d:38:1d:
         28:6f:3a:52:09:f0:ec:70:62:d3:62:4b:b0:e0:73:a6:92:c0:
         d3:8e:31:d8:2f:e3:6d:17:13:06:ee:e4:03:b6:14:ab:f3:8f:
         43:a7:71:9d:21:dd:14:ca:15:5d:92:41:da:f9:0f:81:d1:99:
         74:0d:26:c4:0e:7f:1b:b5:f5:a0:f1:c6:77:06:28:15:e9:d8:
         93:e5:55:16:f0:bb:0a:ab:1c:db:5c:48:27:66:c8:a3:8b:0a:
         1c:e5:95:da:ae:c4:2e:59:a0:61:dd:da:f3:6d:a2:61:e9:8a:
         0b:6d:ec:12:18:bd:f7:55:54:40:03:92:2b:6b:c2:51:c2:0a:
         48:af:b0:d4:6e:e0:f4:14:0a:3a:1b:e3:8f:3d:ca:af:6a:8d:
         7b:dc:d8:44
-----BEGIN CERTIFICATE-----
MIIGajCCBVKgAwIBAgIQAwGaAjr/WLFr1tXq5hfwZjANBgkqhkiG9w0BAQUFADBi
MQswCQYDVQQGEwJVUzEVMBMGA1UEChMMRGlnaUNlcnQgSW5jMRkwFwYDVQQLExB3
d3cuZGlnaWNlcnQuY29tMSEwHwYDVQQDExhEaWdpQ2VydCBBc3N1cmVkIElEIENB
LTEwHhcNMTQxMDIyMDAwMDAwWhcNMjQxMDIyMDAwMDAwWjBHMQswCQYDVQQGEwJV
UzERMA8GA1UEChMIRGlnaUNlcnQxJTAjBgNVBAMTHERpZ2lDZXJ0IFRpbWVzdGFt
cCBSZXNwb25kZXIwggEiMA0GCSqGSIb3DQEBAQUAA4IBDwAwggEKAoIBAQCjZF38
fLPggjXg4PbGKuZJdTvMbuBTqZ8fZFnmfGt/a4ydVfiS457VWmNbAklQ2YPOb2bu
3cuF6V+l+dSHdIhEOxnJ5fWRn8YUOawk6qhLLJGJzF4o9GS2ULf1ErNzlgpno75h
n67z/RJ4dQ6mWxT9RSOOhkRVfRiGBYxVh3lIRvfKDo2n3k5f4qi2LVkCYYhhchho
ubh87ubnNC8xd4EwH7s2AY3vJ+P3mvBMMWSN4+v6GYeofs/sjAw2W3rBerh4x8kG
LkYQyI3oBGDbvHN0+k7Y/qpA8bLOcEaD6dpAoVk62RUJV5lWMJPzyWHM0AjMa+xi
QpGsAsDvpPCJEY93AgMBAAGjggM1MIIDMTAOBgNVHQ8BAf8EBAMCB4AwDAYDVR0T
AQH/BAIwADAWBgNVHSUBAf8EDDAKBggrBgEFBQcDCDCCAb8GA1UdIASCAbYwggGy
MIIBoQYJYIZIAYb9bAcBMIIBkjAoBggrBgEFBQcCARYcaHR0cHM6Ly93d3cuZGln
aWNlcnQuY29tL0NQUzCCAWQGCCsGAQUFBwICMIIBVh6CAVIAQQBuAHkAIAB1AHMA
ZQAgAG8AZgAgAHQAaABpAHMAIABDAGUAcgB0AGkAZgBpAGMAYQB0AGUAIABjAG8A
bgBzAHQAaQB0AHUAdABlAHMAIABhAGMAYwBlAHAAdABhAG4AYwBlACAAbwBmACAA
dABoAGUAIABEAGkAZwBpAEMAZQByAHQAIABDAFAALwBDAFAAUwAgAGEAbgBkACAA
dABoAGUAIABSAGUAbAB5AGkAbgBnACAAUABhAHIAdAB5ACAAQQBnAHIAZQBlAG0A
ZQBuAHQAIAB3AGgAaQBjAGgAIABsAGkAbQBpAHQAIABsAGkAYQBiAGkAbABpAHQA
eQAgAGEAbgBkACAAYQByAGUAIABpAG4AYwBvAHIAcABvAHIAYQB0AGUAZAAgAGgA
ZQByAGUAaQBuACAAYgB5ACAAcgBlAGYAZQByAGUAbgBjAGUALjALBglghkgBhv1s
AxUwHwYDVR0jBBgwFoAUFQASKxOYspkH7R7for5XDStnAs0wHQYDVR0OBBYEFGFa
TSS2STKdSip5GoNL9B6Jwcp9MH0GA1UdHwR2MHQwOKA2oDSGMmh0dHA6Ly9jcmwz
LmRpZ2ljZXJ0LmNvbS9EaWdpQ2VydEFzc3VyZWRJRENBLTEuY3JsMDigNqA0hjJo
dHRwOi8vY3JsNC5kaWdpY2VydC5jb20vRGlnaUNlcnRBc3N1cmVkSURDQS0xLmNy
bDB3BggrBgEFBQcBAQRrMGkwJAYIKwYBBQUHMAGGGGh0dHA6Ly9vY3NwLmRpZ2lj
ZXJ0LmNvbTBBBggrBgEFBQcwAoY1aHR0cDovL2NhY2VydHMuZGlnaWNlcnQuY29t
L0RpZ2lDZXJ0QXNzdXJlZElEQ0EtMS5jcnQwDQYJKoZIhvcNAQEFBQADggEBAJ0l
fhszTbImgVybhs4jIA+Ah+WI//+x1GosMe06FxlxF82pG7xaFjkAneNshORaQPve
BgGMN/qbsZ0kfv4gpFetW7easGAm6mlXIV00Lx9xsIOUGQVrNZAQoHuXx/Y/5+IR
Qaa9YtnwJz04HShvOlIJ8OxwYtNiS7Dgc6aSwNOOMdgv420XEwbu5AO2FKvzj0On
cZ0h3RTKFV2SQdr5D4HRmXQNJsQOfxu19aDxxncGKBXp2JPlVRbwuwqrHNtcSCdm
yKOLChzlldquxC5ZoGHd2vNtomHpigtt7BIYvfdVVEADkitrwlHCCkivsNRu4PQU
Cjob4489yq9qjXvc2EQ=
-----END CERTIFICATE-----

Certificate:
    Data:
        Version: 3 (0x2)
        Serial Number:
            06:fd:f9:03:96:03:ad:ea:00:0a:eb:3f:27:bb:ba:1b
    Signature Algorithm: sha1WithRSAEncryption
        Issuer: C=US, O=DigiCert Inc, OU=www.digicert.com, CN=DigiCert Assured ID Root CA
        Validity
            Not Before: Nov 10 00:00:00 2006 GMT
            Not After : Nov 10 00:00:00 2021 GMT
        Subject: C=US, O=DigiCert Inc, OU=www.digicert.com, CN=DigiCert Assured ID CA-1
        Subject Public Key Info:
            Public Key Algorithm: rsaEncryption
                Public-Key: (2048 bit)
                Modulus:
                    00:e8:82:2d:99:f9:ca:c2:42:95:a5:80:73:40:70:
                    d2:9e:56:54:5c:a9:c4:d2:41:06:8f:c9:33:fc:4d:
                    45:91:5c:81:9f:ed:2c:9c:f8:16:59:df:9e:b5:24:
                    15:c2:98:b9:b4:77:49:dc:89:c4:0a:da:af:cb:5e:
                    6b:ed:ad:b0:71:31:eb:cf:3a:40:0c:46:4d:93:ec:
                    8b:7a:36:08:03:ab:0c:34:fe:18:49:82:fe:c7:c7:
                    31:48:80:7c:1e:a2:0f:92:0e:50:c9:c6:87:eb:36:
                    3f:d8:30:c3:ff:a6:f7:fb:a2:cd:6f:73:23:fe:ac:
                    56:05:90:f0:32:21:16:89:c6:70:88:f9:05:97:7d:
                    a3:c7:43:dd:02:e8:3b:3d:ed:b1:41:a3:ed:3f:be:
                    db:95:48:c4:ee:1e:b3:f2:bc:0c:2b:99:d0:c6:5d:
                    12:42:81:e1:83:6e:82:73:3f:26:4b:14:90:ae:59:
                    66:0a:c4:8d:be:d2:ce:06:ae:ad:84:6f:48:84:9b:
                    4f:40:b9:f1:4c:f2:af:98:fb:f6:ce:40:5d:5c:f6:
                    a8:f1:2f:af:ec:89:22:f2:6b:18:65:b1:c1:73:ad:
                    d7:f1:d8:cf:1e:0a:74:5c:42:b8:68:7e:b7:d5:77:
                    0a:27:56:7c:0f:62:a4:3f:32:14:60:95:fd:07:04:
                    a2:09
                Exponent: 65537 (0x10001)
        X509v3 extensions:
            X509v3 Key Usage: critical
                Digital Signature, Certificate Sign, CRL Sign
            X509v3 Extended Key Usage: 
                TLS Web Server Authentication, TLS Web Client Authentication, Code Signing, E-mail Protection, Time Stamping
            X509v3 Certificate Policies: 
                Policy: 2.16.840.1.114412.0.1.4
                  CPS: http://www.digicert.com/ssl-cps-repository.htm
                  User Notice:
                    Explicit Text: 
                Policy: 2.16.840.1.114412.3.21

            X509v3 Basic Constraints: critical
                CA:TRUE, pathlen:0
            Authority Information Access: 
                OCSP - URI:http://ocsp.digicert.com
                CA Issuers - URI:http://cacerts.digicert.com/DigiCertAssuredIDRootCA.crt

            X509v3 CRL Distribution Points: 

                Full Name:
                  URI:http://crl3.digicert.com/DigiCertAssuredIDRootCA.crl

                Full Name:
                  URI:http://crl4.digicert.com/DigiCertAssuredIDRootCA.crl

            X509v3 Subject Key Identifier: 
                15:00:12:2B:13:98:B2:99:07:ED:1E:DF:A2:BE:57:0D:2B:67:02:CD
            X509v3 Authority Key Identifier: 
                keyid:45:EB:A2:AF:F4:92:CB:82:31:2D:51:8B:A7:A7:21:9D:F3:6D:C8:0F

    Signature Algorithm: sha1WithRSAEncryption
         46:50:3e:c9:b7:28:24:a7:38:1d:b6:5b:29:af:52:cf:52:e9:
         31:47:ab:56:5c:7b:d5:0d:0b:41:b3:ef:ec:75:1f:74:38:f2:
         b2:5c:61:a2:9c:95:c3:50:e4:82:b9:23:d1:ba:3a:86:72:ad:
         38:78:ac:75:5d:17:17:34:72:47:85:94:56:d1:eb:bb:36:84:
         77:cc:24:a5:f3:04:19:55:a9:e7:e3:e7:ab:62:cd:fb:8b:2d:
         90:c2:c0:d2:b5:94:bd:5e:4f:b1:05:d2:0e:3d:1a:a9:14:5b:
         a6:86:31:62:a8:a8:33:e4:9b:39:a7:c4:f5:ce:1d:78:76:94:
         25:73:e4:2a:ab:cf:9c:76:4b:ed:5f:c2:4b:16:e4:4b:70:4c:
         00:89:1e:fc:c5:79:bc:4c:12:57:fe:5f:e1:1e:bc:02:5d:a8:
         fe:fb:07:38:4f:0d:c6:5d:91:b9:0f:67:45:cd:d6:83:ed:e7:
         92:0d:8d:b1:69:8c:4f:fb:59:e0:23:0f:d2:aa:ae:00:7c:ee:
         9c:42:0e:cf:91:d7:27:b7:16:ee:0f:c3:bd:7c:0a:a0:ee:2c:
         08:55:85:22:b8:eb:18:1a:4d:fc:2a:21:ad:49:31:83:47:95:
         77:71:dc:b1:1b:4b:4b:1c:10:9c:77:14:c1:9d:4f:2f:5a:95:
         08:29:10:26
-----BEGIN CERTIFICATE-----
MIIGzTCCBbWgAwIBAgIQBv35A5YDreoACus/J7u6GzANBgkqhkiG9w0BAQUFADBl
MQswCQYDVQQGEwJVUzEVMBMGA1UEChMMRGlnaUNlcnQgSW5jMRkwFwYDVQQLExB3
d3cuZGlnaWNlcnQuY29tMSQwIgYDVQQDExtEaWdpQ2VydCBBc3N1cmVkIElEIFJv
b3QgQ0EwHhcNMDYxMTEwMDAwMDAwWhcNMjExMTEwMDAwMDAwWjBiMQswCQYDVQQG
EwJVUzEVMBMGA1UEChMMRGlnaUNlcnQgSW5jMRkwFwYDVQQLExB3d3cuZGlnaWNl
cnQuY29tMSEwHwYDVQQDExhEaWdpQ2VydCBBc3N1cmVkIElEIENBLTEwggEiMA0G
CSqGSIb3DQEBAQUAA4IBDwAwggEKAoIBAQDogi2Z+crCQpWlgHNAcNKeVlRcqcTS
QQaPyTP8TUWRXIGf7Syc+BZZ3561JBXCmLm0d0ncicQK2q/LXmvtrbBxMevPOkAM
Rk2T7It6NggDqww0/hhJgv7HxzFIgHweog+SDlDJxofrNj/YMMP/pvf7os1vcyP+
rFYFkPAyIRaJxnCI+QWXfaPHQ90C6Ds97bFBo+0/vtuVSMTuHrPyvAwrmdDGXRJC
geGDboJzPyZLFJCuWWYKxI2+0s4Grq2Eb0iEm09AufFM8q+Y+/bOQF1c9qjxL6/s
iSLyaxhlscFzrdfx2M8eCnRcQrhofrfVdwonVnwPYqQ/MhRglf0HBKIJAgMBAAGj
ggN6MIIDdjAOBgNVHQ8BAf8EBAMCAYYwOwYDVR0lBDQwMgYIKwYBBQUHAwEGCCsG
AQUFBwMCBggrBgEFBQcDAwYIKwYBBQUHAwQGCCsGAQUFBwMIMIIB0gYDVR0gBIIB
yTCCAcUwggG0BgpghkgBhv1sAAEEMIIBpDA6BggrBgEFBQcCARYuaHR0cDovL3d3
dy5kaWdpY2VydC5jb20vc3NsLWNwcy1yZXBvc2l0b3J5Lmh0bTCCAWQGCCsGAQUF
BwICMIIBVh6CAVIAQQBuAHkAIAB1AHMAZQAgAG8AZgAgAHQAaABpAHMAIABDAGUA
cgB0AGkAZgBpAGMAYQB0AGUAIABjAG8AbgBzAHQAaQB0AHUAdABlAHMAIABhAGMA
YwBlAHAAdABhAG4AYwBlACAAbwBmACAAdABoAGUAIABEAGkAZwBpAEMAZQByAHQA
IABDAFAALwBDAFAAUwAgAGEAbgBkACAAdABoAGUAIABSAGUAbAB5AGkAbgBnACAA
UABhAHIAdAB5ACAAQQBnAHIAZQBlAG0AZQBuAHQAIAB3AGgAaQBjAGgAIABsAGkA
bQBpAHQAIABsAGkAYQBiAGkAbABpAHQAeQAgAGEAbgBkACAAYQByAGUAIABpAG4A
YwBvAHIAcABvAHIAYQB0AGUAZAAgAGgAZQByAGUAaQBuACAAYgB5ACAAcgBlAGYA
ZQByAGUAbgBjAGUALjALBglghkgBhv1sAxUwEgYDVR0TAQH/BAgwBgEB/wIBADB5
BggrBgEFBQcBAQRtMGswJAYIKwYBBQUHMAGGGGh0dHA6Ly9vY3NwLmRpZ2ljZXJ0
LmNvbTBDBggrBgEFBQcwAoY3aHR0cDovL2NhY2VydHMuZGlnaWNlcnQuY29tL0Rp
Z2lDZXJ0QXNzdXJlZElEUm9vdENBLmNydDCBgQYDVR0fBHoweDA6oDigNoY0aHR0
cDovL2NybDMuZGlnaWNlcnQuY29tL0RpZ2lDZXJ0QXNzdXJlZElEUm9vdENBLmNy
bDA6oDigNoY0aHR0cDovL2NybDQuZGlnaWNlcnQuY29tL0RpZ2lDZXJ0QXNzdXJl
ZElEUm9vdENBLmNybDAdBgNVHQ4EFgQUFQASKxOYspkH7R7for5XDStnAs0wHwYD
VR0jBBgwFoAUReuir/SSy4IxLVGLp6chnfNtyA8wDQYJKoZIhvcNAQEFBQADggEB
AEZQPsm3KCSnOB22WymvUs9S6TFHq1Zce9UNC0Gz7+x1H3Q48rJcYaKclcNQ5IK5
I9G6OoZyrTh4rHVdFxc0ckeFlFbR67s2hHfMJKXzBBlVqefj56tizfuLLZDCwNK1
lL1eT7EF0g49GqkUW6aGMWKoqDPkmzmnxPXOHXh2lCVz5Cqrz5x2S+1fwksW5Etw
TACJHvzFebxMElf+X+EevAJdqP77BzhPDcZdkbkPZ0XN1oPt55INjbFpjE/7WeAj
D9KqrgB87pxCDs+R1ye3Fu4Pw718CqDuLAhVhSK46xgaTfwqIa1JMYNHlXdx3LEb
S0scEJx3FMGdTy9alQgpECY=
-----END CERTIFICATE-----

