Certificate:
    Data:
        Version: 3 (0x2)
        Serial Number:
            01:96:49:e2:26:70:33:0f:a6:1a:b5:7c:2d:b7:f7:8e
    Signature Algorithm: sha256WithRSAEncryption
        Issuer: C=US, O=thawte, Inc., CN=thawte SHA256 Code Signing CA
        Validity
            Not Before: Feb 21 00:00:00 2017 GMT
            Not After : Apr 22 23:59:59 2018 GMT
        Subject: C=PL, ST=Warszawa, L=Warszawa, O=One System Care Sp. Zo.o., OU=IT Division, CN=One System Care Sp. Zo.o.
        Subject Public Key Info:
            Public Key Algorithm: rsaEncryption
                Public-Key: (2048 bit)
                Modulus:
                    00:a8:71:be:b2:cd:fa:9a:c4:96:0f:20:59:8b:9f:
                    60:22:12:68:e5:42:65:b1:0d:c7:15:74:63:05:e4:
                    d7:11:86:e2:4a:9a:07:6d:4c:00:c8:40:9a:98:df:
                    d1:ba:1c:1b:a2:ab:e2:91:02:ee:81:e5:d6:c0:4e:
                    7f:75:8f:37:c5:89:a7:b7:19:1a:17:6d:2a:3f:b9:
                    76:6b:5f:90:e1:4b:de:9b:a8:c7:b6:74:5a:b0:41:
                    fb:78:08:95:43:78:91:6a:66:f4:39:fa:f4:8e:a3:
                    53:fa:72:0e:dc:4a:4b:5f:cf:a7:3d:09:8d:35:98:
                    c4:ed:d3:87:29:58:b6:a1:11:b1:64:22:5c:f5:58:
                    39:b0:9b:4d:8d:28:b0:a1:a1:f6:a3:a7:48:0f:8f:
                    54:29:2d:27:2a:63:1f:d4:48:97:87:c1:e9:83:1a:
                    22:e5:59:d0:9c:78:43:54:67:3e:a5:4f:ca:66:39:
                    05:2d:55:b8:52:74:a7:c2:a0:be:3b:4a:22:7a:33:
                    a6:3e:3c:a2:15:5d:c6:79:bd:50:ad:f4:eb:0d:e4:
                    1a:0f:9a:a2:74:98:73:66:7c:82:b3:36:02:b3:29:
                    ce:e4:22:ed:5e:4e:4c:6d:ab:6b:08:8a:e9:00:1d:
                    45:da:cf:b2:b2:c2:b5:c5:de:df:5f:67:c7:ad:13:
                    f4:55
                Exponent: 65537 (0x10001)
        X509v3 extensions:
            X509v3 Basic Constraints: 
                CA:FALSE
            X509v3 Authority Key Identifier: 
                keyid:57:86:9B:54:B8:BE:A6:29:8A:E4:F6:C2:E2:13:18:89:85:CD:DC:B7

            X509v3 Subject Key Identifier: 
                DE:13:4D:B6:66:93:50:0E:8A:47:C8:B0:F0:14:55:1D:D0:C9:F0:B5
            X509v3 CRL Distribution Points: 

                Full Name:
                  URI:http://tl.symcb.com/tl.crl

            X509v3 Key Usage: critical
                Digital Signature
            X509v3 Extended Key Usage: 
                Code Signing
            X509v3 Certificate Policies: 
                Policy: 2.23.140.1.4.1
                  CPS: https://www.thawte.com/cps
                  User Notice:
                    Explicit Text: https://www.thawte.com/repository

            Authority Information Access: 
                OCSP - URI:http://tl.symcd.com
                CA Issuers - URI:http://tl.symcb.com/tl.crt

    Signature Algorithm: sha256WithRSAEncryption
         5b:22:69:89:39:fd:e8:1a:fe:c7:02:06:97:2e:8b:c5:97:76:
         a5:da:3f:b2:1e:3e:40:a4:b5:a3:d3:8c:11:95:30:8a:08:4b:
         0e:8d:6d:d0:62:ec:2d:78:c6:bd:06:7d:ef:21:38:4f:e5:7d:
         c1:dd:cc:32:ff:f8:14:f1:4e:51:78:e1:89:e9:6f:4e:71:b7:
         27:c6:a7:2d:e8:1e:e9:d1:87:a1:24:15:c9:2d:8d:a4:cf:00:
         fa:1d:b2:a8:96:a4:df:af:0f:4a:2f:c3:83:2b:77:aa:ea:08:
         e3:bd:ac:79:1f:6f:a9:e3:7d:62:5d:3e:5b:a0:95:06:56:1f:
         4b:38:1c:e7:f2:9f:d0:ed:fb:9c:2e:91:5d:66:37:fa:4f:2b:
         2f:7f:e7:45:2e:1a:23:42:9b:ef:4c:13:2e:47:f5:97:82:f1:
         35:bc:d0:4a:02:72:c2:e1:10:a2:12:d8:eb:02:a8:11:0b:aa:
         d5:c0:1a:51:9f:cf:dc:86:67:43:90:ad:2f:1a:ac:47:5d:4f:
         b4:c0:85:a9:fa:8d:c7:a3:f3:f6:35:74:fc:15:a2:47:04:e9:
         bb:0b:c2:01:03:02:67:55:cc:a4:51:03:8f:4a:29:34:a5:1f:
         77:e5:17:f4:a2:ea:c6:eb:60:51:61:ae:bc:49:2b:a8:82:cf:
         04:ac:d8:f9
-----BEGIN CERTIFICATE-----
MIIE1DCCA7ygAwIBAgIQAZZJ4iZwMw+mGrV8Lbf3jjANBgkqhkiG9w0BAQsFADBM
MQswCQYDVQQGEwJVUzEVMBMGA1UEChMMdGhhd3RlLCBJbmMuMSYwJAYDVQQDEx10
aGF3dGUgU0hBMjU2IENvZGUgU2lnbmluZyBDQTAeFw0xNzAyMjEwMDAwMDBaFw0x
ODA0MjIyMzU5NTlaMIGRMQswCQYDVQQGEwJQTDERMA8GA1UECAwIV2Fyc3phd2Ex
ETAPBgNVBAcMCFdhcnN6YXdhMSIwIAYDVQQKDBlPbmUgU3lzdGVtIENhcmUgU3Au
IFpvLm8uMRQwEgYDVQQLDAtJVCBEaXZpc2lvbjEiMCAGA1UEAwwZT25lIFN5c3Rl
bSBDYXJlIFNwLiBaby5vLjCCASIwDQYJKoZIhvcNAQEBBQADggEPADCCAQoCggEB
AKhxvrLN+prElg8gWYufYCISaOVCZbENxxV0YwXk1xGG4kqaB21MAMhAmpjf0boc
G6Kr4pEC7oHl1sBOf3WPN8WJp7cZGhdtKj+5dmtfkOFL3puox7Z0WrBB+3gIlUN4
kWpm9Dn69I6jU/pyDtxKS1/Ppz0JjTWYxO3ThylYtqERsWQiXPVYObCbTY0osKGh
9qOnSA+PVCktJypjH9RIl4fB6YMaIuVZ0Jx4Q1RnPqVPymY5BS1VuFJ0p8KgvjtK
Inozpj48ohVdxnm9UK306w3kGg+aonSYc2Z8grM2ArMpzuQi7V5OTG2rawiK6QAd
RdrPsrLCtcXe319nx60T9FUCAwEAAaOCAWowggFmMAkGA1UdEwQCMAAwHwYDVR0j
BBgwFoAUV4abVLi+pimK5PbC4hMYiYXN3LcwHQYDVR0OBBYEFN4TTbZmk1AOikfI
sPAUVR3QyfC1MCsGA1UdHwQkMCIwIKAeoByGGmh0dHA6Ly90bC5zeW1jYi5jb20v
dGwuY3JsMA4GA1UdDwEB/wQEAwIHgDATBgNVHSUEDDAKBggrBgEFBQcDAzBuBgNV
HSAEZzBlMGMGBmeBDAEEATBZMCYGCCsGAQUFBwIBFhpodHRwczovL3d3dy50aGF3
dGUuY29tL2NwczAvBggrBgEFBQcCAjAjDCFodHRwczovL3d3dy50aGF3dGUuY29t
L3JlcG9zaXRvcnkwVwYIKwYBBQUHAQEESzBJMB8GCCsGAQUFBzABhhNodHRwOi8v
dGwuc3ltY2QuY29tMCYGCCsGAQUFBzAChhpodHRwOi8vdGwuc3ltY2IuY29tL3Rs
LmNydDANBgkqhkiG9w0BAQsFAAOCAQEAWyJpiTn96Br+xwIGly6LxZd2pdo/sh4+
QKS1o9OMEZUwighLDo1t0GLsLXjGvQZ97yE4T+V9wd3MMv/4FPFOUXjhielvTnG3
J8anLege6dGHoSQVyS2NpM8A+h2yqJak368PSi/Dgyt3quoI472seR9vqeN9Yl0+
W6CVBlYfSzgc5/Kf0O37nC6RXWY3+k8rL3/nRS4aI0Kb70wTLkf1l4LxNbzQSgJy
wuEQohLY6wKoEQuq1cAaUZ/P3IZnQ5CtLxqsR11PtMCFqfqNx6Pz9jV0/BWiRwTp
uwvCAQMCZ1XMpFEDj0opNKUfd+UX9KLqxutgUWGuvEkrqILPBKzY+Q==
-----END CERTIFICATE-----

