Certificate:
    Data:
        Version: 3 (0x2)
        Serial Number:
            18:30:b3:85:ac:6f:10:9b:74:94:e6:20:70:d5:67:d5
    Signature Algorithm: sha256WithRSAEncryption
        Issuer: C=CN, O=WoSign CA Limited, CN=WoSign Class 3 Code Signing CA G2
        Validity
            Not Before: Jun 30 00:34:35 2016 GMT
            Not After : Jul 30 00:34:35 2017 GMT
        Subject: C=CN, ST=\xE5\xAE\x89\xE5\xBE\xBD\xE7\x9C\x81, L=\xE8\x8A\x9C\xE6\xB9\x96\xE5\xB8\x82, O=\xE5\xAE\x89\xE5\xBE\xBD\xE5\xB0\x9A\xE8\xB6\xA3\xE7\x8E\xA9\xE7\xBD\x91\xE7\xBB\x9C\xE7\xA7\x91\xE6\x8A\x80\xE6\x9C\x89\xE9\x99\x90\xE5\x85\xAC\xE5\x8F\xB8, CN=\xE5\xAE\x89\xE5\xBE\xBD\xE5\xB0\x9A\xE8\xB6\xA3\xE7\x8E\xA9\xE7\xBD\x91\xE7\xBB\x9C\xE7\xA7\x91\xE6\x8A\x80\xE6\x9C\x89\xE9\x99\x90\xE5\x85\xAC\xE5\x8F\xB8
        Subject Public Key Info:
            Public Key Algorithm: rsaEncryption
                Public-Key: (2048 bit)
                Modulus:
                    00:d2:ec:95:b1:24:18:c5:0c:9d:a1:21:25:0c:5c:
                    3f:ab:18:00:79:7f:cc:e9:0c:7c:6b:fa:b6:1a:bd:
                    90:7d:37:89:a1:00:ed:9f:ce:a1:93:70:59:d4:77:
                    07:5a:3c:32:3a:e9:c1:8b:08:73:49:ee:9e:0d:f0:
                    a8:fd:0a:ef:4c:2d:75:4a:22:ca:22:63:5e:9b:6a:
                    f8:75:7d:5f:5b:f4:1c:69:db:f5:99:3a:67:c9:ef:
                    49:b7:db:2f:01:40:5a:3d:88:50:ef:70:99:08:ac:
                    92:c5:c0:1f:30:df:5b:c3:4f:2d:5e:4b:d3:ad:d9:
                    41:ec:d5:56:8f:e4:fb:94:57:c9:31:be:a8:69:c4:
                    6e:c0:be:27:e6:c9:31:e8:ae:d4:ce:a8:0a:82:9b:
                    35:92:ee:cd:fe:6b:96:c5:c3:76:5a:28:6b:0e:5e:
                    41:2d:51:41:14:c6:fe:b8:1d:c3:55:4a:3a:df:6a:
                    b1:68:e3:e0:16:5a:53:96:eb:f7:35:5e:ac:e1:91:
                    5a:d2:ca:4d:e2:07:f7:27:35:80:c6:fc:fe:a4:3e:
                    3c:43:d8:1b:d2:fc:0c:04:14:08:ad:8e:ea:b4:76:
                    c4:46:c4:c8:7e:97:5c:f2:8d:5a:c3:e4:df:71:a9:
                    3c:7a:0b:32:4b:9b:9f:6f:79:11:5a:4a:f2:b7:dd:
                    97:dd
                Exponent: 65537 (0x10001)
        X509v3 extensions:
            X509v3 Key Usage: critical
                Digital Signature
            X509v3 Extended Key Usage: 
                Code Signing, 1.3.6.1.4.1.311.61.1.1
            X509v3 Basic Constraints: 
                CA:FALSE
            X509v3 Subject Key Identifier: 
                A3:DF:F9:E2:59:C1:56:27:6C:89:29:4E:13:86:91:13:64:32:D4:E8
            X509v3 Authority Key Identifier: 
                keyid:AE:94:18:AE:18:3B:ED:FC:76:EE:3A:95:55:73:F8:F4:B8:84:2E:01

            Authority Information Access: 
                OCSP - URI:http://ocsp1.wosign.com/ca6/code3
                CA Issuers - URI:http://aia1.wosign.com/ca6.code3.cer

            X509v3 CRL Distribution Points: 

                Full Name:
                  URI:http://crls1.wosign.com/ca6-code3.crl

            X509v3 Certificate Policies: 
                Policy: 2.23.140.1.4.1
                Policy: 1.3.6.1.4.1.36305.1.1.2
                  CPS: http://www.wosign.com/policy/

    Signature Algorithm: sha256WithRSAEncryption
         8e:66:1c:2a:7d:90:2d:90:06:a3:ee:c3:cf:c3:45:54:d8:a2:
         6a:62:16:b6:ce:1f:db:e3:15:d3:b9:e8:02:ea:8e:aa:d3:d6:
         92:ae:72:98:f3:34:e6:bc:7e:99:f6:f5:63:6a:8f:f1:85:b1:
         8f:a4:6c:dd:de:4b:76:da:18:16:d0:b1:47:59:07:1d:7e:94:
         7d:53:75:62:1d:13:88:6c:47:43:f2:14:85:43:5a:52:dc:32:
         85:3c:dd:6e:94:29:c0:1d:f2:51:8f:e0:f8:2a:af:f2:6f:c8:
         55:19:de:4d:a2:f8:7e:88:cb:0d:ac:77:2d:a1:60:26:df:58:
         c0:5b:73:2a:50:78:6e:b4:0a:c2:b2:9a:89:7b:b3:a1:2b:74:
         b1:77:0b:61:b9:7c:67:35:88:dd:be:74:42:d4:31:33:a5:3e:
         d5:0f:8f:35:fb:d1:44:68:35:2d:e1:3d:39:2f:50:cc:7e:7e:
         62:27:3a:b0:bc:9b:7a:12:8d:b2:ed:0a:92:1f:88:75:85:20:
         3e:9a:fe:d8:1d:89:8f:a0:81:46:de:2c:02:3c:e5:64:9a:59:
         db:53:dc:d6:90:70:39:ec:6f:b5:31:43:25:76:f9:b1:87:33:
         99:83:c3:b4:2a:d3:48:23:b7:fc:5f:c2:2f:8e:69:c4:f5:18:
         c8:e9:e1:c8
-----BEGIN CERTIFICATE-----
MIIE9TCCA92gAwIBAgIQGDCzhaxvEJt0lOYgcNVn1TANBgkqhkiG9w0BAQsFADBV
MQswCQYDVQQGEwJDTjEaMBgGA1UEChMRV29TaWduIENBIExpbWl0ZWQxKjAoBgNV
BAMTIVdvU2lnbiBDbGFzcyAzIENvZGUgU2lnbmluZyBDQSBHMjAeFw0xNjA2MzAw
MDM0MzVaFw0xNzA3MzAwMDM0MzVaMIGZMQswCQYDVQQGEwJDTjESMBAGA1UECAwJ
5a6J5b6955yBMRIwEAYDVQQHDAnoipzmuZbluIIxMDAuBgNVBAoMJ+WuieW+veWw
mui2o+eOqee9kee7nOenkeaKgOaciemZkOWFrOWPuDEwMC4GA1UEAwwn5a6J5b69
5bCa6Laj546p572R57uc56eR5oqA5pyJ6ZmQ5YWs5Y+4MIIBIjANBgkqhkiG9w0B
AQEFAAOCAQ8AMIIBCgKCAQEA0uyVsSQYxQydoSElDFw/qxgAeX/M6Qx8a/q2Gr2Q
fTeJoQDtn86hk3BZ1HcHWjwyOunBiwhzSe6eDfCo/QrvTC11SiLKImNem2r4dX1f
W/Qcadv1mTpnye9Jt9svAUBaPYhQ73CZCKySxcAfMN9bw08tXkvTrdlB7NVWj+T7
lFfJMb6oacRuwL4n5skx6K7UzqgKgps1ku7N/muWxcN2WihrDl5BLVFBFMb+uB3D
VUo632qxaOPgFlpTluv3NV6s4ZFa0spN4gf3JzWAxvz+pD48Q9gb0vwMBBQIrY7q
tHbERsTIfpdc8o1aw+Tfcak8egsyS5ufb3kRWkryt92X3QIDAQABo4IBejCCAXYw
DgYDVR0PAQH/BAQDAgeAMB8GA1UdJQQYMBYGCCsGAQUFBwMDBgorBgEEAYI3PQEB
MAkGA1UdEwQCMAAwHQYDVR0OBBYEFKPf+eJZwVYnbIkpThOGkRNkMtToMB8GA1Ud
IwQYMBaAFK6UGK4YO+38du46lVVz+PS4hC4BMG8GCCsGAQUFBwEBBGMwYTAtBggr
BgEFBQcwAYYhaHR0cDovL29jc3AxLndvc2lnbi5jb20vY2E2L2NvZGUzMDAGCCsG
AQUFBzAChiRodHRwOi8vYWlhMS53b3NpZ24uY29tL2NhNi5jb2RlMy5jZXIwNgYD
VR0fBC8wLTAroCmgJ4YlaHR0cDovL2NybHMxLndvc2lnbi5jb20vY2E2LWNvZGUz
LmNybDBPBgNVHSAESDBGMAgGBmeBDAEEATA6BgsrBgEEAYKbUQEBAjArMCkGCCsG
AQUFBwIBFh1odHRwOi8vd3d3Lndvc2lnbi5jb20vcG9saWN5LzANBgkqhkiG9w0B
AQsFAAOCAQEAjmYcKn2QLZAGo+7Dz8NFVNiiamIWts4f2+MV07noAuqOqtPWkq5y
mPM05rx+mfb1Y2qP8YWxj6Rs3d5LdtoYFtCxR1kHHX6UfVN1Yh0TiGxHQ/IUhUNa
UtwyhTzdbpQpwB3yUY/g+Cqv8m/IVRneTaL4fojLDax3LaFgJt9YwFtzKlB4brQK
wrKaiXuzoSt0sXcLYbl8ZzWI3b50QtQxM6U+1Q+PNfvRRGg1LeE9OS9QzH5+Yic6
sLybehKNsu0Kkh+IdYUgPpr+2B2Jj6CBRt4sAjzlZJpZ21Pc1pBwOexvtTFDJXb5
sYczmYPDtCrTSCO3/F/CL45pxPUYyOnhyA==
-----END CERTIFICATE-----

Certificate:
    Data:
        Version: 3 (0x2)
        Serial Number:
            25:1f:5d:98:81:82:17:2e:3c:41:9e:01:4f:b0:40:4c
    Signature Algorithm: sha1WithRSAEncryption
        Issuer: C=CN, O=WoSign CA Limited, CN=Certification Authority of WoSign
        Validity
            Not Before: Aug  8 01:00:05 2009 GMT
            Not After : Aug  8 01:00:05 2024 GMT
        Subject: C=CN, O=WoSign CA Limited, CN=WoSign Time Stamping Signer
        Subject Public Key Info:
            Public Key Algorithm: rsaEncryption
                Public-Key: (2048 bit)
                Modulus:
                    00:a5:d0:68:ba:82:cb:db:a7:6d:55:b9:31:a7:da:
                    f4:9c:6b:03:54:4f:a2:1c:ef:1c:b5:96:44:1f:56:
                    41:3f:61:b0:03:59:4b:82:0e:db:15:c8:d0:cc:e0:
                    87:c6:09:75:8a:84:e3:ed:97:c2:c8:92:34:c0:f1:
                    64:53:60:51:34:48:90:b1:4f:89:69:f5:2e:a0:2a:
                    16:54:2f:c0:37:58:ff:35:52:1b:52:08:cf:b9:ec:
                    5a:27:52:5a:83:eb:68:b1:b9:f8:b2:a9:08:f3:4f:
                    ab:17:0f:2e:bd:4f:e5:12:8a:bf:7c:b7:e7:65:32:
                    3b:83:41:02:22:3a:24:3b:6a:a3:3c:af:eb:79:42:
                    17:56:74:c8:61:63:dd:8c:2f:3e:ef:3a:a3:47:52:
                    04:3b:00:18:ae:26:71:e0:7a:04:8d:75:82:2d:65:
                    4e:c1:b8:f2:8c:de:0f:63:03:d4:c3:52:60:72:8c:
                    88:cc:6f:96:d5:c7:7d:29:db:26:04:9e:a2:b4:bf:
                    5a:b5:6e:f2:46:0f:29:81:c5:c0:4f:a6:87:8c:7c:
                    21:07:54:1f:50:f0:42:5c:55:7c:cf:44:2e:41:3d:
                    18:8d:5f:d9:68:e6:47:91:8f:cf:dc:7d:90:60:ff:
                    cb:48:e4:61:5e:4f:73:45:0d:c8:34:89:03:d5:fe:
                    0b:c3
                Exponent: 65537 (0x10001)
        X509v3 extensions:
            X509v3 Key Usage: critical
                Digital Signature, Non Repudiation
            X509v3 Extended Key Usage: critical
                Time Stamping
            X509v3 Basic Constraints: critical
                CA:FALSE
            X509v3 CRL Distribution Points: 

                Full Name:
                  URI:http://crls1.wosign.com/ca1.crl

            Authority Information Access: 
                OCSP - URI:http://ocsp1.wosign.com/ca1
                CA Issuers - URI:http://aia1.wosign.com/ca1-tsa.cer

            X509v3 Subject Key Identifier: 
                DF:6E:12:D5:0C:54:2E:5A:14:CA:DE:03:DE:AB:4E:D4:98:0C:46:B5
            X509v3 Authority Key Identifier: 
                keyid:E1:66:CF:0E:D1:F1:B3:4B:B7:06:20:14:FE:87:12:D5:F6:FE:FB:3E

    Signature Algorithm: sha1WithRSAEncryption
         7c:98:2f:bb:c3:d2:ae:c2:2a:8f:a6:97:76:56:86:32:c4:cd:
         36:68:8b:ec:d7:80:1a:31:79:b0:5e:56:b9:69:eb:b9:0b:32:
         a9:83:26:dc:77:5d:7a:56:b2:46:a0:7d:15:d6:6d:f9:ac:f8:
         35:73:78:36:02:60:22:20:1c:ef:18:8f:7e:66:b2:4f:e7:71:
         93:5a:2b:e6:e5:8d:3d:5d:2e:27:4b:46:cb:1d:04:f3:0b:8c:
         3f:13:a8:0d:d4:cd:e8:28:e8:2a:9c:55:c8:e3:ff:9d:a9:22:
         49:6e:e8:e7:88:92:37:57:80:60:44:18:27:43:58:18:04:6d:
         86:c0:65:47:05:57:55:50:91:e6:73:50:ee:3f:10:a9:8f:05:
         2f:da:68:11:53:6e:1f:ad:98:f3:76:3e:85:d0:57:a3:cf:e4:
         c1:1a:4c:64:06:a6:44:ab:4e:1e:e2:4b:d5:a4:6d:71:f8:6b:
         cb:66:13:a6:47:1f:21:2a:a1:ae:4c:89:a4:7d:28:77:17:4f:
         88:8d:b1:d1:5d:b1:c4:93:5a:bf:22:92:6c:ab:67:82:68:ed:
         d7:21:cb:63:bc:93:c4:17:8e:87:19:25:ad:17:54:b4:79:d2:
         a5:93:73:bc:7c:bb:e4:80:0f:8f:cc:aa:0a:d0:e4:93:75:aa:
         6c:cf:49:7d:75:ec:82:28:5c:73:f0:42:bf:9e:a6:13:2e:de:
         6c:ee:80:03:a6:ee:88:36:a0:1b:b2:82:e8:3d:bb:a6:1a:d5:
         11:ae:0a:0b:62:d6:51:36:97:23:17:52:26:ed:f1:c5:b6:21:
         75:39:15:07:e0:42:f1:2a:89:04:77:66:ad:14:04:d2:c7:d4:
         7c:4f:6c:dd:4e:dc:ed:8e:a9:f6:86:17:e7:e1:59:66:bb:d0:
         7a:d0:94:42:eb:af:c1:54:ca:e2:1a:a4:a9:b6:a5:d4:81:ca:
         15:26:fa:6f:b4:df:78:10:04:8c:48:18:bc:28:59:66:9a:b8:
         18:f1:d9:5e:5b:82:ff:fe:11:d7:d4:04:36:30:9f:51:1d:3c:
         c8:64:40:75:7c:d8:35:83:ef:b1:e5:28:76:0a:05:3d:e9:b8:
         1e:70:50:3a:60:e2:a5:01:88:88:9c:04:cc:6a:f2:15:85:d1:
         0c:b7:4a:6d:93:4e:82:ca:29:e9:75:0b:42:e4:3a:47:24:08:
         6d:80:5c:e6:6a:67:2c:b6:13:08:c9:4f:d8:66:53:b9:b6:7f:
         e2:ea:39:95:6f:71:77:96:03:af:b9:e3:cc:e3:a1:b9:f1:01:
         c6:6e:be:fc:97:5c:b2:d1:f1:7b:fb:33:c6:65:ea:e6:18:f9:
         ab:3a:27:1a:2d:20:6b:e6
-----BEGIN CERTIFICATE-----
MIIFRTCCAy2gAwIBAgIQJR9dmIGCFy48QZ4BT7BATDANBgkqhkiG9w0BAQUFADBV
MQswCQYDVQQGEwJDTjEaMBgGA1UEChMRV29TaWduIENBIExpbWl0ZWQxKjAoBgNV
BAMTIUNlcnRpZmljYXRpb24gQXV0aG9yaXR5IG9mIFdvU2lnbjAeFw0wOTA4MDgw
MTAwMDVaFw0yNDA4MDgwMTAwMDVaME8xCzAJBgNVBAYTAkNOMRowGAYDVQQKExFX
b1NpZ24gQ0EgTGltaXRlZDEkMCIGA1UEAxMbV29TaWduIFRpbWUgU3RhbXBpbmcg
U2lnbmVyMIIBIjANBgkqhkiG9w0BAQEFAAOCAQ8AMIIBCgKCAQEApdBouoLL26dt
Vbkxp9r0nGsDVE+iHO8ctZZEH1ZBP2GwA1lLgg7bFcjQzOCHxgl1ioTj7ZfCyJI0
wPFkU2BRNEiQsU+JafUuoCoWVC/AN1j/NVIbUgjPuexaJ1Jag+tosbn4sqkI80+r
Fw8uvU/lEoq/fLfnZTI7g0ECIjokO2qjPK/reUIXVnTIYWPdjC8+7zqjR1IEOwAY
riZx4HoEjXWCLWVOwbjyjN4PYwPUw1JgcoyIzG+W1cd9KdsmBJ6itL9atW7yRg8p
gcXAT6aHjHwhB1QfUPBCXFV8z0QuQT0YjV/ZaOZHkY/P3H2QYP/LSORhXk9zRQ3I
NIkD1f4LwwIDAQABo4IBFTCCAREwDgYDVR0PAQH/BAQDAgbAMBYGA1UdJQEB/wQM
MAoGCCsGAQUFBwMIMAwGA1UdEwEB/wQCMAAwMAYDVR0fBCkwJzAloCOgIYYfaHR0
cDovL2NybHMxLndvc2lnbi5jb20vY2ExLmNybDBnBggrBgEFBQcBAQRbMFkwJwYI
KwYBBQUHMAGGG2h0dHA6Ly9vY3NwMS53b3NpZ24uY29tL2NhMTAuBggrBgEFBQcw
AoYiaHR0cDovL2FpYTEud29zaWduLmNvbS9jYTEtdHNhLmNlcjAdBgNVHQ4EFgQU
324S1QxULloUyt4D3qtO1JgMRrUwHwYDVR0jBBgwFoAU4WbPDtHxs0u3BiAU/ocS
1fb++z4wDQYJKoZIhvcNAQEFBQADggIBAHyYL7vD0q7CKo+ml3ZWhjLEzTZoi+zX
gBoxebBeVrlp67kLMqmDJtx3XXpWskagfRXWbfms+DVzeDYCYCIgHO8Yj35msk/n
cZNaK+bljT1dLidLRssdBPMLjD8TqA3Uzego6CqcVcjj/52pIklu6OeIkjdXgGBE
GCdDWBgEbYbAZUcFV1VQkeZzUO4/EKmPBS/aaBFTbh+tmPN2PoXQV6PP5MEaTGQG
pkSrTh7iS9WkbXH4a8tmE6ZHHyEqoa5MiaR9KHcXT4iNsdFdscSTWr8ikmyrZ4Jo
7dchy2O8k8QXjocZJa0XVLR50qWTc7x8u+SAD4/MqgrQ5JN1qmzPSX117IIoXHPw
Qr+ephMu3mzugAOm7og2oBuygug9u6Ya1RGuCgti1lE2lyMXUibt8cW2IXU5FQfg
QvEqiQR3Zq0UBNLH1HxPbN1O3O2OqfaGF+fhWWa70HrQlELrr8FUyuIapKm2pdSB
yhUm+m+033gQBIxIGLwoWWaauBjx2V5bgv/+EdfUBDYwn1EdPMhkQHV82DWD77Hl
KHYKBT3puB5wUDpg4qUBiIicBMxq8hWF0Qy3Sm2TToLKKel1C0LkOkckCG2AXOZq
Zyy2EwjJT9hmU7m2f+LqOZVvcXeWA6+548zjobnxAcZuvvyXXLLR8Xv7M8Zl6uYY
+as6JxotIGvm
-----END CERTIFICATE-----

Certificate:
    Data:
        Version: 3 (0x2)
        Serial Number:
            5e:68:d6:11:71:94:63:50:56:00:68:f3:3e:c9:c5:91
    Signature Algorithm: sha1WithRSAEncryption
        Issuer: C=CN, O=WoSign CA Limited, CN=Certification Authority of WoSign
        Validity
            Not Before: Aug  8 01:00:01 2009 GMT
            Not After : Aug  8 01:00:01 2039 GMT
        Subject: C=CN, O=WoSign CA Limited, CN=Certification Authority of WoSign
        Subject Public Key Info:
            Public Key Algorithm: rsaEncryption
                Public-Key: (4096 bit)
                Modulus:
                    00:bd:ca:8d:ac:b8:91:15:56:97:7b:6b:5c:7a:c2:
                    de:6b:d9:a1:b0:c3:10:23:fa:a7:a1:b2:cc:31:fa:
                    3e:d9:a6:29:6f:16:3d:e0:6b:f8:b8:40:5f:db:39:
                    a8:00:7a:8b:a0:4d:54:7d:c2:22:78:fc:8e:09:b8:
                    a8:85:d7:cc:95:97:4b:74:d8:9e:7e:f0:00:e4:0e:
                    89:ae:49:28:44:1a:10:99:32:0f:25:88:53:a4:0d:
                    b3:0f:12:08:16:0b:03:71:27:1c:7f:e1:db:d2:fd:
                    67:68:c4:05:5d:0a:0e:5d:70:d7:d8:97:a0:bc:53:
                    41:9a:91:8d:f4:9e:36:66:7a:7e:56:c1:90:5f:e6:
                    b1:68:20:36:a4:8c:24:2c:2c:47:0b:59:76:66:30:
                    b5:be:de:ed:8f:f8:9d:d3:bb:01:30:e6:f2:f3:0e:
                    e0:2c:92:80:f3:85:f9:28:8a:b4:54:2e:9a:ed:f7:
                    76:fc:15:68:16:eb:4a:6c:eb:2e:12:8f:d4:cf:fe:
                    0c:c7:5c:1d:0b:7e:05:32:be:5e:b0:09:2a:42:d5:
                    c9:4e:90:b3:59:0d:bb:7a:7e:cd:d5:08:5a:b4:7f:
                    d8:1c:69:11:f9:27:0f:7b:06:af:54:83:18:7b:e1:
                    dd:54:7a:51:68:6e:77:fc:c6:bf:52:4a:66:46:a1:
                    b2:67:1a:bb:a3:4f:77:a0:be:5d:ff:fc:56:0b:43:
                    72:77:90:ca:9e:f9:f2:39:f5:0d:a9:f4:ea:d7:e7:
                    b3:10:2f:30:42:37:21:cc:30:70:c9:86:98:0f:cc:
                    58:4d:83:bb:7d:e5:1a:a5:37:8d:b6:ac:32:97:00:
                    3a:63:71:24:1e:9e:37:c4:ff:74:d4:37:c0:e2:fe:
                    88:46:60:11:dd:08:3f:50:36:ab:b8:7a:a4:95:62:
                    6a:6e:b0:ca:6a:21:5a:69:f3:f3:fb:1d:70:39:95:
                    f3:a7:6e:a6:81:89:a1:88:c5:3b:71:ca:a3:52:ee:
                    83:bb:fd:a0:77:f4:e4:6f:e7:42:db:6d:4a:99:8a:
                    34:48:bc:17:dc:e4:80:08:22:b6:f2:31:c0:3f:04:
                    3e:eb:9f:20:79:d6:b8:06:64:64:02:31:d7:a9:cd:
                    52:fb:84:45:69:09:00:2a:dc:55:8b:c4:06:46:4b:
                    c0:4a:1d:09:5b:39:28:fd:a9:ab:ce:00:f9:2e:48:
                    4b:26:e6:30:4c:a5:58:ca:b4:44:82:4f:e7:91:1e:
                    33:c3:b0:93:ff:11:fc:81:d2:ca:1f:71:29:dd:76:
                    4f:92:25:af:1d:81:b7:0f:2f:8c:c3:06:cc:2f:27:
                    a3:4a:e4:0e:99:ba:7c:1e:45:1f:7f:aa:19:45:96:
                    fd:fc:3d
                Exponent: 65537 (0x10001)
        X509v3 extensions:
            X509v3 Key Usage: critical
                Certificate Sign, CRL Sign
            X509v3 Basic Constraints: critical
                CA:TRUE
            X509v3 Subject Key Identifier: 
                E1:66:CF:0E:D1:F1:B3:4B:B7:06:20:14:FE:87:12:D5:F6:FE:FB:3E
    Signature Algorithm: sha1WithRSAEncryption
         a8:cb:72:40:b2:76:c1:7e:7b:fc:ad:64:e3:32:7b:cc:3c:b6:
         5d:46:d3:f5:2c:e2:70:5d:c8:2e:d8:06:7d:98:d1:0b:21:a0:
         89:59:24:01:9d:f9:af:09:7d:0a:23:82:34:d5:fc:7c:72:99:
         b9:a3:d7:54:f4:ea:52:70:0e:c5:f5:d6:3b:e1:3a:09:32:e6:
         21:39:93:bd:b3:15:ea:4f:6a:f4:f5:8b:3f:2f:7c:8d:58:2e:
         c5:e1:39:a0:3e:c7:3d:4a:73:9e:40:7a:c0:2b:61:a9:67:c9:
         f3:24:b9:b3:6d:55:2c:5a:1d:9e:25:72:ce:0b:ad:aa:c7:55:
         62:0b:be:fb:63:b3:61:44:23:a3:cb:e1:1a:0e:f7:9a:06:4d:
         de:d4:23:4e:21:96:5b:39:5b:57:1d:2f:5d:08:5e:09:79:ff:
         7c:97:b5:4d:83:ae:0d:d6:e6:a3:79:e0:33:d0:99:96:02:30:
         a7:3e:ff:d2:a3:43:3f:05:5a:06:ea:44:02:da:7c:f8:48:d0:
         33:a9:f9:07:c7:95:e1:f5:3e:f5:5d:71:ba:f2:95:a9:74:88:
         61:59:e3:bf:ca:5a:13:ba:72:b4:8c:5d:36:87:e9:a6:c5:3c:
         13:bf:de:d0:44:26:ee:b7:ec:2e:70:fa:d7:9d:b7:ac:e5:c5:
         40:5a:e6:d7:6c:7b:2c:c3:56:9b:47:cd:0b:ce:fa:1b:b4:21:
         d7:b7:66:b8:f4:25:30:8b:5c:0d:b9:ea:67:b2:f4:6d:ae:d5:
         a1:9e:4f:d8:9f:e9:27:02:b0:1d:06:d6:8f:e3:fb:48:12:9f:
         7f:11:a1:10:3e:4c:51:3a:96:b0:d1:13:f1:c7:d8:26:ae:3a:
         ca:91:c4:69:9d:df:01:29:64:51:6f:68:da:14:ec:08:41:97:
         90:8d:d0:b2:80:f2:cf:c2:3d:bf:91:68:c5:80:67:1e:c4:60:
         13:55:d5:61:99:57:7c:ba:95:0f:61:49:3a:ca:75:bc:c9:0a:
         93:3f:67:0e:12:f2:28:e2:31:1b:c0:57:16:df:08:7c:19:c1:
         7e:0f:1f:85:1e:0a:36:7c:5b:7e:27:bc:7a:bf:e0:db:f4:da:
         52:bd:de:0c:54:70:31:91:43:95:c8:bc:f0:3e:dd:09:7e:30:
         64:50:ed:7f:01:a4:33:67:4d:68:4f:be:15:ef:b0:f6:02:11:
         a2:1b:13:25:3a:dc:c2:59:f1:e3:5c:46:bb:67:2c:02:46:ea:
         1e:48:a6:e6:5b:d9:b5:bc:51:a2:92:96:db:aa:c6:37:22:a6:
         fe:cc:20:74:a3:2d:a9:2e:6b:cb:c0:82:11:21:b5:93:79:ee:
         44:86:be:d7:1e:e4:1e:fb
-----BEGIN CERTIFICATE-----
MIIFdjCCA16gAwIBAgIQXmjWEXGUY1BWAGjzPsnFkTANBgkqhkiG9w0BAQUFADBV
MQswCQYDVQQGEwJDTjEaMBgGA1UEChMRV29TaWduIENBIExpbWl0ZWQxKjAoBgNV
BAMTIUNlcnRpZmljYXRpb24gQXV0aG9yaXR5IG9mIFdvU2lnbjAeFw0wOTA4MDgw
MTAwMDFaFw0zOTA4MDgwMTAwMDFaMFUxCzAJBgNVBAYTAkNOMRowGAYDVQQKExFX
b1NpZ24gQ0EgTGltaXRlZDEqMCgGA1UEAxMhQ2VydGlmaWNhdGlvbiBBdXRob3Jp
dHkgb2YgV29TaWduMIICIjANBgkqhkiG9w0BAQEFAAOCAg8AMIICCgKCAgEAvcqN
rLiRFVaXe2tcesLea9mhsMMQI/qnobLMMfo+2aYpbxY94Gv4uEBf2zmoAHqLoE1U
fcIiePyOCbiohdfMlZdLdNiefvAA5A6JrkkoRBoQmTIPJYhTpA2zDxIIFgsDcScc
f+Hb0v1naMQFXQoOXXDX2JegvFNBmpGN9J42Znp+VsGQX+axaCA2pIwkLCxHC1l2
ZjC1vt7tj/id07sBMOby8w7gLJKA84X5KIq0VC6a7fd2/BVoFutKbOsuEo/Uz/4M
x1wdC34FMr5esAkqQtXJTpCzWQ27en7N1QhatH/YHGkR+ScPewavVIMYe+HdVHpR
aG53/Ma/UkpmRqGyZxq7o093oL5d//xWC0Nyd5DKnvnyOfUNqfTq1+ezEC8wQjch
zDBwyYaYD8xYTYO7feUapTeNtqwylwA6Y3EkHp43xP901DfA4v6IRmAR3Qg/UDar
uHqklWJqbrDKaiFaafPz+x1wOZXzp26mgYmhiMU7ccqjUu6Du/2gd/Tkb+dC221K
mYo0SLwX3OSACCK28jHAPwQ+658geda4BmRkAjHXqc1S+4RFaQkAKtxVi8QGRkvA
Sh0JWzko/amrzgD5LkhLJuYwTKVYyrREgk/nkR4zw7CT/xH8gdLKH3Ep3XZPkiWv
HYG3Dy+MwwbMLyejSuQOmbp8HkUff6oZRZb9/D0CAwEAAaNCMEAwDgYDVR0PAQH/
BAQDAgEGMA8GA1UdEwEB/wQFMAMBAf8wHQYDVR0OBBYEFOFmzw7R8bNLtwYgFP6H
EtX2/vs+MA0GCSqGSIb3DQEBBQUAA4ICAQCoy3JAsnbBfnv8rWTjMnvMPLZdRtP1
LOJwXcgu2AZ9mNELIaCJWSQBnfmvCX0KI4I01fx8cpm5o9dU9OpScA7F9dY74ToJ
MuYhOZO9sxXqT2r09Ys/L3yNWC7F4TmgPsc9SnOeQHrAK2GpZ8nzJLmzbVUsWh2e
JXLOC62qx1ViC777Y7NhRCOjy+EaDveaBk3e1CNOIZZbOVtXHS9dCF4Jef98l7VN
g64N1uajeeAz0JmWAjCnPv/So0M/BVoG6kQC2nz4SNAzqfkHx5Xh9T71XXG68pWp
dIhhWeO/yloTunK0jF02h+mmxTwTv97QRCbut+wucPrXnbes5cVAWubXbHssw1ab
R80LzvobtCHXt2a49CUwi1wNuepnsvRtrtWhnk/Yn+knArAdBtaP4/tIEp9/EaEQ
PkxROpaw0RPxx9gmrjrKkcRpnd8BKWRRb2jaFOwIQZeQjdCygPLPwj2/kWjFgGce
xGATVdVhmVd8upUPYUk6ynW8yQqTP2cOEvIo4jEbwFcW3wh8GcF+Dx+FHgo2fFt+
J7x6v+Db9NpSvd4MVHAxkUOVyLzwPt0JfjBkUO1/AaQzZ01oT74V77D2AhGiGxMl
OtzCWfHjXEa7ZywCRuoeSKbmW9m1vFGikpbbqsY3Iqb+zCB0oy2pLmvLwIIRIbWT
ee5Ehr7XHuQe+w==
-----END CERTIFICATE-----

Certificate:
    Data:
        Version: 3 (0x2)
        Serial Number:
            37:a6:0e:92:5f:23:f8:0c:fd:cd:97:65:92:98:c3:54
    Signature Algorithm: sha256WithRSAEncryption
        Issuer: C=CN, O=WoSign CA Limited, CN=Certification Authority of WoSign
        Validity
            Not Before: Nov  8 00:58:58 2014 GMT
            Not After : Nov  8 00:58:58 2029 GMT
        Subject: C=CN, O=WoSign CA Limited, CN=WoSign Class 3 Code Signing CA G2
        Subject Public Key Info:
            Public Key Algorithm: rsaEncryption
                Public-Key: (2048 bit)
                Modulus:
                    00:9d:33:e2:aa:da:28:f0:f0:31:9b:ba:34:c7:52:
                    d5:a2:99:74:30:d5:54:2d:76:0d:eb:42:e1:78:df:
                    3f:9c:4f:f4:c6:f9:9d:bb:a4:a4:bf:2c:b7:66:09:
                    f4:8c:0d:31:32:53:ae:ae:fd:a7:30:b0:26:3b:bb:
                    03:dd:a1:d3:fd:fa:54:19:ce:26:2d:d4:ce:41:d8:
                    b8:50:4b:1b:5a:44:c3:3e:c9:47:5e:a0:0e:eb:1e:
                    48:f7:ca:c5:01:2f:8f:a3:2b:ca:71:fa:e4:4c:7f:
                    ed:ff:4d:31:09:1b:74:42:97:98:6b:e9:7f:3d:ef:
                    3b:03:51:99:e7:bb:6c:15:71:3c:57:b7:19:3b:54:
                    bb:02:f9:03:f1:a1:b8:17:25:88:34:88:87:45:69:
                    58:4a:b2:62:a9:5c:37:7f:1d:3c:99:54:8c:08:f9:
                    19:04:da:85:25:b9:be:ca:61:f6:00:57:40:d6:3a:
                    f4:ec:69:b2:e3:66:05:b9:3c:f4:33:05:3f:3e:d3:
                    46:44:ef:e8:e3:6f:d9:35:3c:f1:d2:8c:7b:ed:90:
                    1c:e3:d2:31:e4:85:7f:af:6e:ee:9a:40:60:a3:47:
                    68:62:6f:aa:f8:ad:9e:a4:ee:f5:b7:32:de:b6:5d:
                    79:54:18:a4:58:18:0b:02:1f:36:a1:1c:90:d7:01:
                    20:8d
                Exponent: 65537 (0x10001)
        X509v3 extensions:
            X509v3 Key Usage: critical
                Certificate Sign, CRL Sign
            X509v3 Extended Key Usage: 
                Code Signing, Microsoft Commercial Code Signing
            X509v3 Basic Constraints: critical
                CA:TRUE, pathlen:0
            X509v3 CRL Distribution Points: 

                Full Name:
                  URI:http://crls1.wosign.com/ca1.crl

            Authority Information Access: 
                OCSP - URI:http://ocsp1.wosign.com/ca1
                CA Issuers - URI:http://aia1.wosign.com/ca1g2-code3.cer

            X509v3 Subject Key Identifier: 
                AE:94:18:AE:18:3B:ED:FC:76:EE:3A:95:55:73:F8:F4:B8:84:2E:01
            X509v3 Authority Key Identifier: 
                keyid:E1:66:CF:0E:D1:F1:B3:4B:B7:06:20:14:FE:87:12:D5:F6:FE:FB:3E

            X509v3 Certificate Policies: 
                Policy: 1.3.6.1.4.1.36305.6.3.3.1
                  CPS: http://www.wosign.com/policy/

    Signature Algorithm: sha256WithRSAEncryption
         1c:89:89:7f:e3:4a:fa:b3:73:d9:0a:97:ea:21:22:91:46:5f:
         9f:6f:eb:14:c4:84:04:ae:6c:e6:53:31:54:dc:c2:27:b3:25:
         1c:52:b9:f4:8a:bc:a8:1f:1e:5c:a2:9e:68:20:f2:81:72:f1:
         28:5b:8d:0d:ab:00:69:ed:cb:66:91:24:8c:da:33:c4:ee:99:
         10:14:26:71:1d:64:57:92:09:5b:44:69:df:c9:b8:a8:72:70:
         d4:75:de:02:e8:5b:a5:63:5a:17:dd:23:9d:66:6b:27:bd:18:
         d6:13:9e:cb:ad:c7:7f:01:22:81:a8:e3:92:aa:c0:b4:d5:fc:
         e6:6a:20:3f:cb:f4:ea:8e:04:aa:ba:81:d2:28:9b:de:1f:b4:
         27:3b:fa:c6:67:a4:f7:93:a0:19:a4:e3:24:b8:43:9b:eb:62:
         4b:e9:bb:8f:8a:a0:3e:7f:1b:9c:81:34:e2:5e:4a:a7:df:d6:
         28:cb:e7:99:06:35:91:34:c0:07:7d:b8:fb:ec:eb:d0:65:01:
         f5:a0:a6:f3:e4:32:41:bf:b8:1b:36:c7:16:8b:a9:80:f1:4e:
         0f:a8:3d:95:5b:69:58:96:a0:f7:90:ff:3a:42:bc:48:de:a5:
         0f:60:c2:3f:c7:bf:3e:8d:23:7e:64:68:07:22:0e:ad:8a:55:
         b2:92:c4:e8:09:0a:b3:71:80:67:09:c7:8d:b2:c5:fa:a5:ce:
         5b:61:cc:be:47:3d:55:4f:f0:89:1a:6b:e3:4d:1e:e7:dd:d3:
         04:d7:38:d0:37:dc:3a:96:f6:4c:71:f3:a6:41:12:28:24:2b:
         3f:fe:aa:11:1e:36:1e:d8:ed:54:32:e3:ab:79:43:41:e3:70:
         05:12:98:73:33:a6:b7:40:72:4f:78:19:94:f3:7d:29:a3:0a:
         c3:aa:71:67:a1:63:05:d4:e6:97:c2:56:d2:b6:e4:82:41:b0:
         26:f6:f3:e7:38:49:93:61:1b:92:0e:61:70:72:99:96:75:5d:
         b7:0b:cc:ab:28:ec:bc:17:76:14:0b:dc:f9:f3:d3:4f:39:e7:
         bb:57:dd:0f:36:44:bb:30:eb:c9:b4:3e:5a:72:f3:d2:45:46:
         89:76:c9:ce:a8:aa:16:c0:90:0f:19:09:c0:86:44:93:2c:56:
         63:fc:3f:64:7b:7c:b3:0b:11:8b:7a:9a:61:2c:81:fd:b5:2a:
         21:4e:f6:a7:e2:3f:3f:cb:72:f6:57:d9:83:9b:09:bf:78:85:
         91:16:d6:35:de:95:37:bf:b0:87:e3:7f:96:ba:d6:c6:92:3d:
         05:ed:b1:66:aa:0c:72:fd:d0:f1:d1:7a:22:a0:64:38:3c:27:
         40:c4:8b:88:81:7b:db:75
-----BEGIN CERTIFICATE-----
MIIFpjCCA46gAwIBAgIQN6YOkl8j+Az9zZdlkpjDVDANBgkqhkiG9w0BAQsFADBV
MQswCQYDVQQGEwJDTjEaMBgGA1UEChMRV29TaWduIENBIExpbWl0ZWQxKjAoBgNV
BAMTIUNlcnRpZmljYXRpb24gQXV0aG9yaXR5IG9mIFdvU2lnbjAeFw0xNDExMDgw
MDU4NThaFw0yOTExMDgwMDU4NThaMFUxCzAJBgNVBAYTAkNOMRowGAYDVQQKExFX
b1NpZ24gQ0EgTGltaXRlZDEqMCgGA1UEAxMhV29TaWduIENsYXNzIDMgQ29kZSBT
aWduaW5nIENBIEcyMIIBIjANBgkqhkiG9w0BAQEFAAOCAQ8AMIIBCgKCAQEAnTPi
qtoo8PAxm7o0x1LVopl0MNVULXYN60LheN8/nE/0xvmdu6Skvyy3Zgn0jA0xMlOu
rv2nMLAmO7sD3aHT/fpUGc4mLdTOQdi4UEsbWkTDPslHXqAO6x5I98rFAS+PoyvK
cfrkTH/t/00xCRt0QpeYa+l/Pe87A1GZ57tsFXE8V7cZO1S7AvkD8aG4FyWINIiH
RWlYSrJiqVw3fx08mVSMCPkZBNqFJbm+ymH2AFdA1jr07Gmy42YFuTz0MwU/PtNG
RO/o42/ZNTzx0ox77ZAc49Ix5IV/r27umkBgo0doYm+q+K2epO71tzLetl15VBik
WBgLAh82oRyQ1wEgjQIDAQABo4IBcDCCAWwwDgYDVR0PAQH/BAQDAgEGMB8GA1Ud
JQQYMBYGCCsGAQUFBwMDBgorBgEEAYI3AgEWMBIGA1UdEwEB/wQIMAYBAf8CAQAw
MAYDVR0fBCkwJzAloCOgIYYfaHR0cDovL2NybHMxLndvc2lnbi5jb20vY2ExLmNy
bDBrBggrBgEFBQcBAQRfMF0wJwYIKwYBBQUHMAGGG2h0dHA6Ly9vY3NwMS53b3Np
Z24uY29tL2NhMTAyBggrBgEFBQcwAoYmaHR0cDovL2FpYTEud29zaWduLmNvbS9j
YTFnMi1jb2RlMy5jZXIwHQYDVR0OBBYEFK6UGK4YO+38du46lVVz+PS4hC4BMB8G
A1UdIwQYMBaAFOFmzw7R8bNLtwYgFP6HEtX2/vs+MEYGA1UdIAQ/MD0wOwYMKwYB
BAGCm1EGAwMBMCswKQYIKwYBBQUHAgEWHWh0dHA6Ly93d3cud29zaWduLmNvbS9w
b2xpY3kvMA0GCSqGSIb3DQEBCwUAA4ICAQAciYl/40r6s3PZCpfqISKRRl+fb+sU
xIQErmzmUzFU3MInsyUcUrn0iryoHx5cop5oIPKBcvEoW40NqwBp7ctmkSSM2jPE
7pkQFCZxHWRXkglbRGnfybiocnDUdd4C6FulY1oX3SOdZmsnvRjWE57Lrcd/ASKB
qOOSqsC01fzmaiA/y/TqjgSquoHSKJveH7QnO/rGZ6T3k6AZpOMkuEOb62JL6buP
iqA+fxucgTTiXkqn39Yoy+eZBjWRNMAHfbj77OvQZQH1oKbz5DJBv7gbNscWi6mA
8U4PqD2VW2lYlqD3kP86QrxI3qUPYMI/x78+jSN+ZGgHIg6tilWyksToCQqzcYBn
CceNssX6pc5bYcy+Rz1VT/CJGmvjTR7n3dME1zjQN9w6lvZMcfOmQRIoJCs//qoR
HjYe2O1UMuOreUNB43AFEphzM6a3QHJPeBmU830powrDqnFnoWMF1OaXwlbStuSC
QbAm9vPnOEmTYRuSDmFwcpmWdV23C8yrKOy8F3YUC9z589NPOee7V90PNkS7MOvJ
tD5acvPSRUaJdsnOqKoWwJAPGQnAhkSTLFZj/D9ke3yzCxGLepphLIH9tSohTvan
4j8/y3L2V9mDmwm/eIWRFtY13pU3v7CH43+WutbGkj0F7bFmqgxy/dDx0XoioGQ4
PCdAxIuIgXvbdQ==
-----END CERTIFICATE-----

