Certificate:
    Data:
        Version: 3 (0x2)
        Serial Number:
            22:5b:1a:b5:88:95:06:d3:96:43:d7:36:d1:5f:e2:0d
    Signature Algorithm: sha256WithRSAEncryption
        Issuer: C=US, O=Symantec Corporation, OU=Symantec Trust Network, CN=Symantec Class 3 SHA256 Code Signing CA
        Validity
            Not Before: Mar  4 00:00:00 2016 GMT
            Not After : Mar  4 23:59:59 2018 GMT
        Subject: C=CY, ST=Limassol, L=Limassol, O=ZAXAR LTD, CN=ZAXAR LTD
        Subject Public Key Info:
            Public Key Algorithm: rsaEncryption
                Public-Key: (2048 bit)
                Modulus:
                    00:c3:a3:50:40:50:73:8f:52:c2:20:b1:94:91:21:
                    4d:4a:7c:95:b5:c0:d6:6c:db:a5:47:25:d3:ec:da:
                    ad:92:3d:c3:e4:a5:c4:2d:a6:40:13:89:0f:5c:4d:
                    40:20:18:1f:a2:e9:91:a6:b7:e6:99:ac:c5:aa:90:
                    6e:c9:50:2d:6f:f0:4a:23:d6:8e:f5:3b:be:af:9e:
                    8b:b0:35:27:0f:ad:93:a8:11:29:4d:d9:e8:c7:f5:
                    44:2d:f7:37:1c:a8:a8:94:8f:2c:0c:7d:e5:f0:9d:
                    af:e0:35:a9:f2:53:af:1e:e9:e8:58:17:ad:15:4d:
                    12:8e:e2:66:4e:dd:15:09:e6:c2:52:56:b5:28:4f:
                    7a:df:8c:71:94:4a:96:08:23:d7:fe:33:38:94:cf:
                    c5:5d:18:77:16:93:9f:42:fb:b0:1c:35:4d:bc:1e:
                    da:da:e2:fc:3b:95:eb:4a:6e:6d:d1:5e:17:81:8a:
                    bf:3f:86:c8:ab:b5:17:7b:1e:05:8b:a9:e9:13:69:
                    8f:25:c0:d5:db:ce:46:7d:d9:7d:b7:10:e0:80:ee:
                    9e:aa:bb:b6:eb:d5:f3:9d:78:d7:1d:9b:ee:3d:a3:
                    11:11:c9:2f:2b:bb:21:f2:33:5f:84:63:7a:e2:7d:
                    1b:d2:bb:05:1d:78:53:da:3d:84:cc:db:dc:df:d2:
                    d3:21
                Exponent: 65537 (0x10001)
        X509v3 extensions:
            X509v3 Basic Constraints: 
                CA:FALSE
            X509v3 Key Usage: critical
                Digital Signature
            X509v3 CRL Distribution Points: 

                Full Name:
                  URI:http://sv.symcb.com/sv.crl

            X509v3 Certificate Policies: 
                Policy: 2.16.840.1.113733.1.7.23.3
                  CPS: https://d.symcb.com/cps
                  User Notice:
                    Explicit Text: https://d.symcb.com/rpa

            X509v3 Extended Key Usage: 
                Code Signing
            Authority Information Access: 
                OCSP - URI:http://sv.symcd.com
                CA Issuers - URI:http://sv.symcb.com/sv.crt

            X509v3 Authority Key Identifier: 
                keyid:96:3B:53:F0:79:33:97:AF:7D:83:EF:2E:2B:CC:CA:B7:86:1E:72:66

            X509v3 Subject Key Identifier: 
                9F:37:6C:60:8D:30:83:DE:BC:40:30:8E:74:E8:0F:26:C3:DA:87:0F
    Signature Algorithm: sha256WithRSAEncryption
         69:fa:d9:7e:d5:44:b2:17:6f:e7:d4:d8:e3:95:69:88:c8:b7:
         b1:e2:23:db:bf:80:09:de:77:70:83:0a:c0:65:05:ed:6b:de:
         80:57:d6:a8:11:92:a4:b9:81:de:9e:2c:4a:9e:cf:4e:ed:1d:
         05:ea:98:4e:f7:f7:b3:58:5d:fe:2a:63:26:63:48:b0:19:f8:
         ef:7c:3d:22:20:51:01:62:65:ab:f8:05:85:4d:37:a2:d2:11:
         16:c7:fa:c3:f6:81:2c:9c:e9:83:9b:11:fc:91:b5:c8:6d:c8:
         6c:fc:40:29:6c:9a:03:a3:a6:0c:88:91:31:fe:0a:21:a7:0a:
         19:94:0f:d1:2a:bc:56:d5:50:e2:c0:13:c0:dd:92:0d:ce:c5:
         1b:e2:05:4b:e2:9f:8d:05:3c:31:08:04:46:73:55:49:28:57:
         dc:b9:7f:09:5b:7d:c5:75:69:45:6e:60:2e:ab:14:8e:80:3b:
         15:d3:f6:bf:05:46:bf:d5:17:36:e3:c9:9b:19:46:05:34:65:
         ca:c9:a9:aa:45:b5:9d:81:2d:58:67:00:b1:cf:d7:d8:6b:b0:
         dd:ec:94:e0:31:c0:5f:2b:84:ab:82:29:60:72:ed:f0:91:9f:
         3e:05:b7:ab:36:84:43:ea:25:d8:64:8a:1a:a4:f9:77:d2:09:
         27:93:0e:dc
-----BEGIN CERTIFICATE-----
MIIEyDCCA7CgAwIBAgIQIlsatYiVBtOWQ9c20V/iDTANBgkqhkiG9w0BAQsFADB/
MQswCQYDVQQGEwJVUzEdMBsGA1UEChMUU3ltYW50ZWMgQ29ycG9yYXRpb24xHzAd
BgNVBAsTFlN5bWFudGVjIFRydXN0IE5ldHdvcmsxMDAuBgNVBAMTJ1N5bWFudGVj
IENsYXNzIDMgU0hBMjU2IENvZGUgU2lnbmluZyBDQTAeFw0xNjAzMDQwMDAwMDBa
Fw0xODAzMDQyMzU5NTlaMFsxCzAJBgNVBAYTAkNZMREwDwYDVQQIEwhMaW1hc3Nv
bDERMA8GA1UEBxMITGltYXNzb2wxEjAQBgNVBAoUCVpBWEFSIExURDESMBAGA1UE
AxQJWkFYQVIgTFREMIIBIjANBgkqhkiG9w0BAQEFAAOCAQ8AMIIBCgKCAQEAw6NQ
QFBzj1LCILGUkSFNSnyVtcDWbNulRyXT7Nqtkj3D5KXELaZAE4kPXE1AIBgfoumR
prfmmazFqpBuyVAtb/BKI9aO9Tu+r56LsDUnD62TqBEpTdnox/VELfc3HKiolI8s
DH3l8J2v4DWp8lOvHunoWBetFU0SjuJmTt0VCebCUla1KE9634xxlEqWCCPX/jM4
lM/FXRh3FpOfQvuwHDVNvB7a2uL8O5XrSm5t0V4XgYq/P4bIq7UXex4Fi6npE2mP
JcDV285Gfdl9txDggO6eqru269XznXjXHZvuPaMREckvK7sh8jNfhGN64n0b0rsF
HXhT2j2EzNvc39LTIQIDAQABo4IBYjCCAV4wCQYDVR0TBAIwADAOBgNVHQ8BAf8E
BAMCB4AwKwYDVR0fBCQwIjAgoB6gHIYaaHR0cDovL3N2LnN5bWNiLmNvbS9zdi5j
cmwwZgYDVR0gBF8wXTBbBgtghkgBhvhFAQcXAzBMMCMGCCsGAQUFBwIBFhdodHRw
czovL2Quc3ltY2IuY29tL2NwczAlBggrBgEFBQcCAjAZDBdodHRwczovL2Quc3lt
Y2IuY29tL3JwYTATBgNVHSUEDDAKBggrBgEFBQcDAzBXBggrBgEFBQcBAQRLMEkw
HwYIKwYBBQUHMAGGE2h0dHA6Ly9zdi5zeW1jZC5jb20wJgYIKwYBBQUHMAKGGmh0
dHA6Ly9zdi5zeW1jYi5jb20vc3YuY3J0MB8GA1UdIwQYMBaAFJY7U/B5M5evfYPv
LivMyreGHnJmMB0GA1UdDgQWBBSfN2xgjTCD3rxAMI506A8mw9qHDzANBgkqhkiG
9w0BAQsFAAOCAQEAafrZftVEshdv59TY45VpiMi3seIj27+ACd53cIMKwGUF7Wve
gFfWqBGSpLmB3p4sSp7PTu0dBeqYTvf3s1hd/ipjJmNIsBn473w9IiBRAWJlq/gF
hU03otIRFsf6w/aBLJzpg5sR/JG1yG3IbPxAKWyaA6OmDIiRMf4KIacKGZQP0Sq8
VtVQ4sATwN2SDc7FG+IFS+KfjQU8MQgERnNVSShX3Ll/CVt9xXVpRW5gLqsUjoA7
FdP2vwVGv9UXNuPJmxlGBTRlysmpqkW1nYEtWGcAsc/X2Guw3eyU4DHAXyuEq4Ip
YHLt8JGfPgW3qzaEQ+ol2GSKGqT5d9IJJ5MO3A==
-----END CERTIFICATE-----

Certificate:
    Data:
        Version: 3 (0x2)
        Serial Number:
            3d:78:d7:f9:76:49:60:b2:61:7d:f4:f0:1e:ca:86:2a
    Signature Algorithm: sha256WithRSAEncryption
        Issuer: C=US, O=VeriSign, Inc., OU=VeriSign Trust Network, OU=(c) 2006 VeriSign, Inc. - For authorized use only, CN=VeriSign Class 3 Public Primary Certification Authority - G5
        Validity
            Not Before: Dec 10 00:00:00 2013 GMT
            Not After : Dec  9 23:59:59 2023 GMT
        Subject: C=US, O=Symantec Corporation, OU=Symantec Trust Network, CN=Symantec Class 3 SHA256 Code Signing CA
        Subject Public Key Info:
            Public Key Algorithm: rsaEncryption
                Public-Key: (2048 bit)
                Modulus:
                    00:97:83:1e:00:16:af:2c:b1:d2:08:c4:d7:68:93:
                    51:60:1e:71:f6:e2:47:b4:db:58:4d:23:62:6a:b4:
                    bf:5a:1b:51:f7:a3:0d:18:77:68:bb:d8:36:ab:2f:
                    21:50:da:9e:f3:e7:5f:27:4e:0b:c2:97:c8:09:70:
                    93:a9:da:5c:0d:4e:a4:0d:91:a0:b4:ec:14:ce:91:
                    72:54:2e:ce:a3:db:44:e9:52:1b:3f:41:3c:ca:4a:
                    e4:aa:c0:e8:39:ab:53:cc:21:d0:cc:cf:7f:9b:e6:
                    c2:cc:58:6a:82:15:ee:3d:36:cf:1c:c5:97:07:24:
                    8e:f1:7b:be:31:2d:3d:6e:dc:b5:99:42:9f:4b:61:
                    95:5f:1c:70:ee:17:7d:db:8b:e5:61:89:78:c7:68:
                    1b:af:11:78:1a:98:ae:c4:55:47:53:d9:b3:32:d6:
                    a1:0e:46:40:c5:97:92:8a:d1:53:a7:99:5b:85:35:
                    57:d3:ea:93:62:61:20:0a:c7:30:77:24:11:4d:62:
                    83:b6:ba:7b:68:82:31:ee:65:ca:df:f9:d5:8d:b2:
                    35:dc:8c:2b:6f:6a:72:5c:60:84:9c:f2:0c:94:5e:
                    c0:56:52:00:48:cc:d3:f8:a5:7d:de:2f:d7:13:e4:
                    38:a8:84:d5:46:b8:13:86:c2:1b:9d:ea:5a:38:dd:
                    9b:db
                Exponent: 65537 (0x10001)
        X509v3 extensions:
            Authority Information Access: 
                OCSP - URI:http://s2.symcb.com

            X509v3 Basic Constraints: critical
                CA:TRUE, pathlen:0
            X509v3 Certificate Policies: 
                Policy: 2.16.840.1.113733.1.7.23.3
                  CPS: http://www.symauth.com/cps
                  User Notice:
                    Explicit Text: http://www.symauth.com/rpa

            X509v3 CRL Distribution Points: 

                Full Name:
                  URI:http://s1.symcb.com/pca3-g5.crl

            X509v3 Extended Key Usage: 
                TLS Web Client Authentication, Code Signing
            X509v3 Key Usage: critical
                Certificate Sign, CRL Sign
            X509v3 Subject Alternative Name: 
                DirName:/CN=SymantecPKI-1-567
            X509v3 Subject Key Identifier: 
                96:3B:53:F0:79:33:97:AF:7D:83:EF:2E:2B:CC:CA:B7:86:1E:72:66
            X509v3 Authority Key Identifier: 
                keyid:7F:D3:65:A7:C2:DD:EC:BB:F0:30:09:F3:43:39:FA:02:AF:33:31:33

    Signature Algorithm: sha256WithRSAEncryption
         13:85:1a:1e:69:a9:37:f7:a0:bd:a4:af:7e:1d:61:53:fe:9d:
         8c:5e:0c:a6:75:1e:78:17:23:dd:fd:ec:1a:03:55:39:fb:71:
         95:c7:65:5a:a7:8e:30:d2:44:5a:61:db:70:6f:da:21:05:c2:
         2e:73:ba:49:f1:d1:93:fe:5d:c9:cd:5e:03:e0:89:9e:3f:74:
         1e:d7:f7:38:8b:a9:d6:cf:bb:35:2f:33:58:a8:92:56:d1:c8:
         4d:3b:82:e6:79:84:16:fc:28:b0:b1:47:f3:1d:a2:3e:ee:87:
         d9:a6:7f:a4:56:a5:3f:ad:84:2e:29:de:7c:bc:a8:aa:a3:3d:
         04:01:ea:ba:93:a2:0e:50:22:29:17:4c:87:e4:3a:11:5f:d6:
         a4:25:89:9b:05:6b:2f:b4:c9:01:4c:27:7b:0b:ac:19:05:22:
         a0:60:15:3f:da:c9:fb:4d:4c:8f:fb:72:67:77:fd:27:94:c7:
         ba:35:0e:88:49:fe:8d:fd:28:af:4a:12:bd:0d:b3:97:05:de:
         44:0c:15:fa:36:2b:03:dc:c1:50:01:f1:a1:11:5d:14:e5:e2:
         bd:27:4b:54:be:2b:84:5e:0f:a6:c3:74:05:0a:ef:97:c3:89:
         22:b1:1f:77:f3:bd:cd:43:d4:f1:4c:a9:3f:b5:8b:84:af:64:
         f2:d0:14:21
-----BEGIN CERTIFICATE-----
MIIFWTCCBEGgAwIBAgIQPXjX+XZJYLJhffTwHsqGKjANBgkqhkiG9w0BAQsFADCB
yjELMAkGA1UEBhMCVVMxFzAVBgNVBAoTDlZlcmlTaWduLCBJbmMuMR8wHQYDVQQL
ExZWZXJpU2lnbiBUcnVzdCBOZXR3b3JrMTowOAYDVQQLEzEoYykgMjAwNiBWZXJp
U2lnbiwgSW5jLiAtIEZvciBhdXRob3JpemVkIHVzZSBvbmx5MUUwQwYDVQQDEzxW
ZXJpU2lnbiBDbGFzcyAzIFB1YmxpYyBQcmltYXJ5IENlcnRpZmljYXRpb24gQXV0
aG9yaXR5IC0gRzUwHhcNMTMxMjEwMDAwMDAwWhcNMjMxMjA5MjM1OTU5WjB/MQsw
CQYDVQQGEwJVUzEdMBsGA1UEChMUU3ltYW50ZWMgQ29ycG9yYXRpb24xHzAdBgNV
BAsTFlN5bWFudGVjIFRydXN0IE5ldHdvcmsxMDAuBgNVBAMTJ1N5bWFudGVjIENs
YXNzIDMgU0hBMjU2IENvZGUgU2lnbmluZyBDQTCCASIwDQYJKoZIhvcNAQEBBQAD
ggEPADCCAQoCggEBAJeDHgAWryyx0gjE12iTUWAecfbiR7TbWE0jYmq0v1obUfej
DRh3aLvYNqsvIVDanvPnXydOC8KXyAlwk6naXA1OpA2RoLTsFM6RclQuzqPbROlS
Gz9BPMpK5KrA6DmrU8wh0MzPf5vmwsxYaoIV7j02zxzFlwckjvF7vjEtPW7ctZlC
n0thlV8ccO4XfduL5WGJeMdoG68ReBqYrsRVR1PZszLWoQ5GQMWXkorRU6eZW4U1
V9Pqk2JhIArHMHckEU1ig7a6e2iCMe5lyt/51Y2yNdyMK29qclxghJzyDJRewFZS
AEjM0/ilfd4v1xPkOKiE1Ua4E4bCG53qWjjdm9sCAwEAAaOCAYMwggF/MC8GCCsG
AQUFBwEBBCMwITAfBggrBgEFBQcwAYYTaHR0cDovL3MyLnN5bWNiLmNvbTASBgNV
HRMBAf8ECDAGAQH/AgEAMGwGA1UdIARlMGMwYQYLYIZIAYb4RQEHFwMwUjAmBggr
BgEFBQcCARYaaHR0cDovL3d3dy5zeW1hdXRoLmNvbS9jcHMwKAYIKwYBBQUHAgIw
HBoaaHR0cDovL3d3dy5zeW1hdXRoLmNvbS9ycGEwMAYDVR0fBCkwJzAloCOgIYYf
aHR0cDovL3MxLnN5bWNiLmNvbS9wY2EzLWc1LmNybDAdBgNVHSUEFjAUBggrBgEF
BQcDAgYIKwYBBQUHAwMwDgYDVR0PAQH/BAQDAgEGMCkGA1UdEQQiMCCkHjAcMRow
GAYDVQQDExFTeW1hbnRlY1BLSS0xLTU2NzAdBgNVHQ4EFgQUljtT8Hkzl699g+8u
K8zKt4YecmYwHwYDVR0jBBgwFoAUf9Nlp8Ld7LvwMAnzQzn6Aq8zMTMwDQYJKoZI
hvcNAQELBQADggEBABOFGh5pqTf3oL2kr34dYVP+nYxeDKZ1HngXI9397BoDVTn7
cZXHZVqnjjDSRFph23Bv2iEFwi5zuknx0ZP+XcnNXgPgiZ4/dB7X9ziLqdbPuzUv
M1ioklbRyE07guZ5hBb8KLCxR/Mdoj7uh9mmf6RWpT+thC4p3ny8qKqjPQQB6rqT
og5QIikXTIfkOhFf1qQliZsFay+0yQFMJ3sLrBkFIqBgFT/ayftNTI/7cmd3/SeU
x7o1DohJ/o39KK9KEr0Ns5cF3kQMFfo2KwPcwVAB8aERXRTl4r0nS1S+K4ReD6bD
dAUK75fDiSKxH3fzvc1D1PFMqT+1i4SvZPLQFCE=
-----END CERTIFICATE-----

