Certificate:
    Data:
        Version: 3 (0x2)
        Serial Number:
            5d:2e:0b:ab:a3:21:94:6b:44:d1:a9:05:71:81:d4:e1
    Signature Algorithm: sha1WithRSAEncryption
        Issuer: C=CN, O=WoSign CA Limited, CN=WoSign Class 3 Code Signing CA
        Validity
            Not Before: Jun  9 07:38:09 2015 GMT
            Not After : Jun  9 08:18:00 2016 GMT
        Subject: C=CN, ST=\xE5\xB9\xBF\xE4\xB8\x9C\xE7\x9C\x81, L=\xE5\xB9\xBF\xE5\xB7\x9E\xE5\xB8\x82, O=\xE5\xAE\x89\xE5\xBE\xBD\xE5\xB0\x9A\xE8\xB6\xA3\xE7\x8E\xA9\xE7\xBD\x91\xE7\xBB\x9C\xE7\xA7\x91\xE6\x8A\x80\xE6\x9C\x89\xE9\x99\x90\xE5\x85\xAC\xE5\x8F\xB8\xE5\xB9\xBF\xE5\xB7\x9E\xE5\x88\x86\xE5\x85\xAC\xE5\x8F\xB8, CN=\xE5\xAE\x89\xE5\xBE\xBD\xE5\xB0\x9A\xE8\xB6\xA3\xE7\x8E\xA9\xE7\xBD\x91\xE7\xBB\x9C\xE7\xA7\x91\xE6\x8A\x80\xE6\x9C\x89\xE9\x99\x90\xE5\x85\xAC\xE5\x8F\xB8\xE5\xB9\xBF\xE5\xB7\x9E\xE5\x88\x86\xE5\x85\xAC\xE5\x8F\xB8
        Subject Public Key Info:
            Public Key Algorithm: rsaEncryption
                Public-Key: (2048 bit)
                Modulus:
                    00:a2:b3:07:e2:7e:a3:11:2a:fc:37:fc:fa:d1:f7:
                    54:bb:6d:36:85:9b:bc:58:8f:bc:f5:5d:cf:31:35:
                    33:b0:7d:ee:0d:1f:bb:55:9d:b4:66:68:35:97:02:
                    02:fc:24:d2:70:d7:92:62:6b:49:71:bb:e7:00:ac:
                    e6:01:1f:f7:ce:89:89:f0:df:8c:be:47:10:11:d9:
                    3c:42:c3:c0:2c:07:fa:f4:0a:64:39:bc:4a:3e:8b:
                    7a:e0:a4:a5:51:81:27:48:70:95:a5:5e:fb:19:f2:
                    4d:19:e4:fe:92:b2:e9:7e:a1:a2:45:9e:b5:e2:66:
                    d7:25:8c:b1:1f:6b:5a:71:f1:68:7f:c0:88:0d:dd:
                    00:7b:fd:3b:2f:93:7a:46:21:ad:53:41:d0:f6:ef:
                    ae:7e:25:3d:50:c6:22:df:01:7a:ba:c5:7a:63:ed:
                    e9:d5:5c:74:98:7e:64:ba:2e:3b:13:d5:e3:5f:64:
                    d2:43:c3:2b:5b:a4:58:4d:72:b5:f7:23:e4:7f:a5:
                    fd:a2:97:0c:d4:c6:84:9a:db:3e:65:13:e6:a5:f2:
                    d1:df:66:a0:26:d7:be:47:7a:c2:0a:f6:01:be:07:
                    8a:ab:dd:05:a4:64:df:51:96:51:05:80:d9:fc:83:
                    e4:b7:28:90:5d:10:46:ac:07:e4:df:65:dc:dd:17:
                    ea:8d
                Exponent: 65537 (0x10001)
        X509v3 extensions:
            X509v3 Key Usage: critical
                Digital Signature
            X509v3 Extended Key Usage: 
                Code Signing
            X509v3 Basic Constraints: 
                CA:FALSE
            X509v3 Subject Key Identifier: 
                DA:F9:25:3A:BE:9A:F3:A1:E0:1A:94:ED:32:8F:A3:49:03:F5:FA:6A
            X509v3 Authority Key Identifier: 
                keyid:F5:02:AA:4B:D3:E0:1A:8E:77:50:D6:1A:BB:EB:DF:B9:83:70:B0:4E

            Authority Information Access: 
                OCSP - URI:http://ocsp1.wosign.com/class3/code/ca1
                CA Issuers - URI:http://aia1.wosign.com/class3.code.ca1.cer

            X509v3 CRL Distribution Points: 

                Full Name:
                  URI:http://crls1.wosign.com/ca1-code-3.crl

            X509v3 Certificate Policies: 
                Policy: 2.23.140.1.2.2
                Policy: 1.3.6.1.4.1.36305.1.3.3
                  CPS: http://www.wosign.com/policy/

    Signature Algorithm: sha1WithRSAEncryption
         64:f0:96:a2:86:7b:07:2d:4d:44:92:bd:54:86:cc:75:df:da:
         e0:99:c0:35:6d:bd:7c:01:94:e9:15:44:cf:33:0d:88:d5:2a:
         dd:0d:72:63:fb:90:3a:dc:a6:06:5c:69:a1:94:4f:19:6a:fe:
         f6:5e:a1:2f:8f:1c:79:0a:c6:9f:cf:fd:63:1f:84:8f:26:3a:
         3d:3d:d8:74:48:78:d8:22:54:46:7c:b6:ce:13:c8:1a:62:63:
         1e:d1:42:19:2f:ad:d1:1f:93:c4:ee:e2:17:a7:b0:45:e9:59:
         e7:01:fb:0c:c0:70:c9:04:49:c0:8c:87:6f:84:81:8d:f8:9c:
         12:57:89:9b:20:97:ab:32:66:2a:f0:ba:82:f8:77:48:29:5e:
         23:dd:67:6d:b3:e3:fc:14:b3:2c:13:bc:9c:43:1a:b6:f9:f7:
         28:e9:f3:98:50:b0:1a:f0:e7:17:fa:d7:da:df:e4:09:1c:a4:
         ef:4f:0a:a5:ec:96:04:1f:aa:1e:6a:88:af:eb:e0:99:51:27:
         14:3f:bd:18:72:43:19:7d:f8:3c:68:b2:44:c1:02:92:f4:33:
         3a:a1:0f:f1:60:fb:31:51:ee:79:dc:e9:36:d3:3e:6d:c8:ce:
         a0:1e:0d:ff:e7:24:c5:7d:dd:92:00:d8:58:f6:24:93:72:65:
         24:e0:c7:c9
-----BEGIN CERTIFICATE-----
MIIFETCCA/mgAwIBAgIQXS4Lq6MhlGtE0akFcYHU4TANBgkqhkiG9w0BAQUFADBS
MQswCQYDVQQGEwJDTjEaMBgGA1UEChMRV29TaWduIENBIExpbWl0ZWQxJzAlBgNV
BAMTHldvU2lnbiBDbGFzcyAzIENvZGUgU2lnbmluZyBDQTAeFw0xNTA2MDkwNzM4
MDlaFw0xNjA2MDkwODE4MDBaMIG3MQswCQYDVQQGEwJDTjESMBAGA1UECAwJ5bm/
5Lic55yBMRIwEAYDVQQHDAnlub/lt57luIIxPzA9BgNVBAoMNuWuieW+veWwmui2
o+eOqee9kee7nOenkeaKgOaciemZkOWFrOWPuOW5v+W3nuWIhuWFrOWPuDE/MD0G
A1UEAww25a6J5b695bCa6Laj546p572R57uc56eR5oqA5pyJ6ZmQ5YWs5Y+45bm/
5bee5YiG5YWs5Y+4MIIBIjANBgkqhkiG9w0BAQEFAAOCAQ8AMIIBCgKCAQEAorMH
4n6jESr8N/z60fdUu202hZu8WI+89V3PMTUzsH3uDR+7VZ20Zmg1lwIC/CTScNeS
YmtJcbvnAKzmAR/3zomJ8N+MvkcQEdk8QsPALAf69ApkObxKPot64KSlUYEnSHCV
pV77GfJNGeT+krLpfqGiRZ614mbXJYyxH2tacfFof8CIDd0Ae/07L5N6RiGtU0HQ
9u+ufiU9UMYi3wF6usV6Y+3p1Vx0mH5kui47E9XjX2TSQ8MrW6RYTXK19yPkf6X9
opcM1MaEmts+ZRPmpfLR32agJte+R3rCCvYBvgeKq90FpGTfUZZRBYDZ/IPktyiQ
XRBGrAfk32Xc3RfqjQIDAQABo4IBezCCAXcwDgYDVR0PAQH/BAQDAgeAMBMGA1Ud
JQQMMAoGCCsGAQUFBwMDMAkGA1UdEwQCMAAwHQYDVR0OBBYEFNr5JTq+mvOh4BqU
7TKPo0kD9fpqMB8GA1UdIwQYMBaAFPUCqkvT4BqOd1DWGrvr37mDcLBOMHsGCCsG
AQUFBwEBBG8wbTAzBggrBgEFBQcwAYYnaHR0cDovL29jc3AxLndvc2lnbi5jb20v
Y2xhc3MzL2NvZGUvY2ExMDYGCCsGAQUFBzAChipodHRwOi8vYWlhMS53b3NpZ24u
Y29tL2NsYXNzMy5jb2RlLmNhMS5jZXIwNwYDVR0fBDAwLjAsoCqgKIYmaHR0cDov
L2NybHMxLndvc2lnbi5jb20vY2ExLWNvZGUtMy5jcmwwTwYDVR0gBEgwRjAIBgZn
gQwBAgIwOgYLKwYBBAGCm1EBAwMwKzApBggrBgEFBQcCARYdaHR0cDovL3d3dy53
b3NpZ24uY29tL3BvbGljeS8wDQYJKoZIhvcNAQEFBQADggEBAGTwlqKGewctTUSS
vVSGzHXf2uCZwDVtvXwBlOkVRM8zDYjVKt0NcmP7kDrcpgZcaaGUTxlq/vZeoS+P
HHkKxp/P/WMfhI8mOj092HRIeNgiVEZ8ts4TyBpiYx7RQhkvrdEfk8Tu4hensEXp
WecB+wzAcMkEScCMh2+EgY34nBJXiZsgl6syZirwuoL4d0gpXiPdZ22z4/wUsywT
vJxDGrb59yjp85hQsBrw5xf619rf5AkcpO9PCqXslgQfqh5qiK/r4JlRJxQ/vRhy
Qxl9+DxoskTBApL0MzqhD/Fg+zFR7nnc6TbTPm3IzqAeDf/nJMV93ZIA2Fj2JJNy
ZSTgx8k=
-----END CERTIFICATE-----

Certificate:
    Data:
        Version: 3 (0x2)
        Serial Number:
            25:1f:5d:98:81:82:17:2e:3c:41:9e:01:4f:b0:40:4c
    Signature Algorithm: sha1WithRSAEncryption
        Issuer: C=CN, O=WoSign CA Limited, CN=Certification Authority of WoSign
        Validity
            Not Before: Aug  8 01:00:05 2009 GMT
            Not After : Aug  8 01:00:05 2024 GMT
        Subject: C=CN, O=WoSign CA Limited, CN=WoSign Time Stamping Signer
        Subject Public Key Info:
            Public Key Algorithm: rsaEncryption
                Public-Key: (2048 bit)
                Modulus:
                    00:a5:d0:68:ba:82:cb:db:a7:6d:55:b9:31:a7:da:
                    f4:9c:6b:03:54:4f:a2:1c:ef:1c:b5:96:44:1f:56:
                    41:3f:61:b0:03:59:4b:82:0e:db:15:c8:d0:cc:e0:
                    87:c6:09:75:8a:84:e3:ed:97:c2:c8:92:34:c0:f1:
                    64:53:60:51:34:48:90:b1:4f:89:69:f5:2e:a0:2a:
                    16:54:2f:c0:37:58:ff:35:52:1b:52:08:cf:b9:ec:
                    5a:27:52:5a:83:eb:68:b1:b9:f8:b2:a9:08:f3:4f:
                    ab:17:0f:2e:bd:4f:e5:12:8a:bf:7c:b7:e7:65:32:
                    3b:83:41:02:22:3a:24:3b:6a:a3:3c:af:eb:79:42:
                    17:56:74:c8:61:63:dd:8c:2f:3e:ef:3a:a3:47:52:
                    04:3b:00:18:ae:26:71:e0:7a:04:8d:75:82:2d:65:
                    4e:c1:b8:f2:8c:de:0f:63:03:d4:c3:52:60:72:8c:
                    88:cc:6f:96:d5:c7:7d:29:db:26:04:9e:a2:b4:bf:
                    5a:b5:6e:f2:46:0f:29:81:c5:c0:4f:a6:87:8c:7c:
                    21:07:54:1f:50:f0:42:5c:55:7c:cf:44:2e:41:3d:
                    18:8d:5f:d9:68:e6:47:91:8f:cf:dc:7d:90:60:ff:
                    cb:48:e4:61:5e:4f:73:45:0d:c8:34:89:03:d5:fe:
                    0b:c3
                Exponent: 65537 (0x10001)
        X509v3 extensions:
            X509v3 Key Usage: critical
                Digital Signature, Non Repudiation
            X509v3 Extended Key Usage: critical
                Time Stamping
            X509v3 Basic Constraints: critical
                CA:FALSE
            X509v3 CRL Distribution Points: 

                Full Name:
                  URI:http://crls1.wosign.com/ca1.crl

            Authority Information Access: 
                OCSP - URI:http://ocsp1.wosign.com/ca1
                CA Issuers - URI:http://aia1.wosign.com/ca1-tsa.cer

            X509v3 Subject Key Identifier: 
                DF:6E:12:D5:0C:54:2E:5A:14:CA:DE:03:DE:AB:4E:D4:98:0C:46:B5
            X509v3 Authority Key Identifier: 
                keyid:E1:66:CF:0E:D1:F1:B3:4B:B7:06:20:14:FE:87:12:D5:F6:FE:FB:3E

    Signature Algorithm: sha1WithRSAEncryption
         7c:98:2f:bb:c3:d2:ae:c2:2a:8f:a6:97:76:56:86:32:c4:cd:
         36:68:8b:ec:d7:80:1a:31:79:b0:5e:56:b9:69:eb:b9:0b:32:
         a9:83:26:dc:77:5d:7a:56:b2:46:a0:7d:15:d6:6d:f9:ac:f8:
         35:73:78:36:02:60:22:20:1c:ef:18:8f:7e:66:b2:4f:e7:71:
         93:5a:2b:e6:e5:8d:3d:5d:2e:27:4b:46:cb:1d:04:f3:0b:8c:
         3f:13:a8:0d:d4:cd:e8:28:e8:2a:9c:55:c8:e3:ff:9d:a9:22:
         49:6e:e8:e7:88:92:37:57:80:60:44:18:27:43:58:18:04:6d:
         86:c0:65:47:05:57:55:50:91:e6:73:50:ee:3f:10:a9:8f:05:
         2f:da:68:11:53:6e:1f:ad:98:f3:76:3e:85:d0:57:a3:cf:e4:
         c1:1a:4c:64:06:a6:44:ab:4e:1e:e2:4b:d5:a4:6d:71:f8:6b:
         cb:66:13:a6:47:1f:21:2a:a1:ae:4c:89:a4:7d:28:77:17:4f:
         88:8d:b1:d1:5d:b1:c4:93:5a:bf:22:92:6c:ab:67:82:68:ed:
         d7:21:cb:63:bc:93:c4:17:8e:87:19:25:ad:17:54:b4:79:d2:
         a5:93:73:bc:7c:bb:e4:80:0f:8f:cc:aa:0a:d0:e4:93:75:aa:
         6c:cf:49:7d:75:ec:82:28:5c:73:f0:42:bf:9e:a6:13:2e:de:
         6c:ee:80:03:a6:ee:88:36:a0:1b:b2:82:e8:3d:bb:a6:1a:d5:
         11:ae:0a:0b:62:d6:51:36:97:23:17:52:26:ed:f1:c5:b6:21:
         75:39:15:07:e0:42:f1:2a:89:04:77:66:ad:14:04:d2:c7:d4:
         7c:4f:6c:dd:4e:dc:ed:8e:a9:f6:86:17:e7:e1:59:66:bb:d0:
         7a:d0:94:42:eb:af:c1:54:ca:e2:1a:a4:a9:b6:a5:d4:81:ca:
         15:26:fa:6f:b4:df:78:10:04:8c:48:18:bc:28:59:66:9a:b8:
         18:f1:d9:5e:5b:82:ff:fe:11:d7:d4:04:36:30:9f:51:1d:3c:
         c8:64:40:75:7c:d8:35:83:ef:b1:e5:28:76:0a:05:3d:e9:b8:
         1e:70:50:3a:60:e2:a5:01:88:88:9c:04:cc:6a:f2:15:85:d1:
         0c:b7:4a:6d:93:4e:82:ca:29:e9:75:0b:42:e4:3a:47:24:08:
         6d:80:5c:e6:6a:67:2c:b6:13:08:c9:4f:d8:66:53:b9:b6:7f:
         e2:ea:39:95:6f:71:77:96:03:af:b9:e3:cc:e3:a1:b9:f1:01:
         c6:6e:be:fc:97:5c:b2:d1:f1:7b:fb:33:c6:65:ea:e6:18:f9:
         ab:3a:27:1a:2d:20:6b:e6
-----BEGIN CERTIFICATE-----
MIIFRTCCAy2gAwIBAgIQJR9dmIGCFy48QZ4BT7BATDANBgkqhkiG9w0BAQUFADBV
MQswCQYDVQQGEwJDTjEaMBgGA1UEChMRV29TaWduIENBIExpbWl0ZWQxKjAoBgNV
BAMTIUNlcnRpZmljYXRpb24gQXV0aG9yaXR5IG9mIFdvU2lnbjAeFw0wOTA4MDgw
MTAwMDVaFw0yNDA4MDgwMTAwMDVaME8xCzAJBgNVBAYTAkNOMRowGAYDVQQKExFX
b1NpZ24gQ0EgTGltaXRlZDEkMCIGA1UEAxMbV29TaWduIFRpbWUgU3RhbXBpbmcg
U2lnbmVyMIIBIjANBgkqhkiG9w0BAQEFAAOCAQ8AMIIBCgKCAQEApdBouoLL26dt
Vbkxp9r0nGsDVE+iHO8ctZZEH1ZBP2GwA1lLgg7bFcjQzOCHxgl1ioTj7ZfCyJI0
wPFkU2BRNEiQsU+JafUuoCoWVC/AN1j/NVIbUgjPuexaJ1Jag+tosbn4sqkI80+r
Fw8uvU/lEoq/fLfnZTI7g0ECIjokO2qjPK/reUIXVnTIYWPdjC8+7zqjR1IEOwAY
riZx4HoEjXWCLWVOwbjyjN4PYwPUw1JgcoyIzG+W1cd9KdsmBJ6itL9atW7yRg8p
gcXAT6aHjHwhB1QfUPBCXFV8z0QuQT0YjV/ZaOZHkY/P3H2QYP/LSORhXk9zRQ3I
NIkD1f4LwwIDAQABo4IBFTCCAREwDgYDVR0PAQH/BAQDAgbAMBYGA1UdJQEB/wQM
MAoGCCsGAQUFBwMIMAwGA1UdEwEB/wQCMAAwMAYDVR0fBCkwJzAloCOgIYYfaHR0
cDovL2NybHMxLndvc2lnbi5jb20vY2ExLmNybDBnBggrBgEFBQcBAQRbMFkwJwYI
KwYBBQUHMAGGG2h0dHA6Ly9vY3NwMS53b3NpZ24uY29tL2NhMTAuBggrBgEFBQcw
AoYiaHR0cDovL2FpYTEud29zaWduLmNvbS9jYTEtdHNhLmNlcjAdBgNVHQ4EFgQU
324S1QxULloUyt4D3qtO1JgMRrUwHwYDVR0jBBgwFoAU4WbPDtHxs0u3BiAU/ocS
1fb++z4wDQYJKoZIhvcNAQEFBQADggIBAHyYL7vD0q7CKo+ml3ZWhjLEzTZoi+zX
gBoxebBeVrlp67kLMqmDJtx3XXpWskagfRXWbfms+DVzeDYCYCIgHO8Yj35msk/n
cZNaK+bljT1dLidLRssdBPMLjD8TqA3Uzego6CqcVcjj/52pIklu6OeIkjdXgGBE
GCdDWBgEbYbAZUcFV1VQkeZzUO4/EKmPBS/aaBFTbh+tmPN2PoXQV6PP5MEaTGQG
pkSrTh7iS9WkbXH4a8tmE6ZHHyEqoa5MiaR9KHcXT4iNsdFdscSTWr8ikmyrZ4Jo
7dchy2O8k8QXjocZJa0XVLR50qWTc7x8u+SAD4/MqgrQ5JN1qmzPSX117IIoXHPw
Qr+ephMu3mzugAOm7og2oBuygug9u6Ya1RGuCgti1lE2lyMXUibt8cW2IXU5FQfg
QvEqiQR3Zq0UBNLH1HxPbN1O3O2OqfaGF+fhWWa70HrQlELrr8FUyuIapKm2pdSB
yhUm+m+033gQBIxIGLwoWWaauBjx2V5bgv/+EdfUBDYwn1EdPMhkQHV82DWD77Hl
KHYKBT3puB5wUDpg4qUBiIicBMxq8hWF0Qy3Sm2TToLKKel1C0LkOkckCG2AXOZq
Zyy2EwjJT9hmU7m2f+LqOZVvcXeWA6+548zjobnxAcZuvvyXXLLR8Xv7M8Zl6uYY
+as6JxotIGvm
-----END CERTIFICATE-----

Certificate:
    Data:
        Version: 3 (0x2)
        Serial Number: 426637479 (0x196df8a7)
    Signature Algorithm: sha1WithRSAEncryption
        Issuer: C=CN, O=WoSign eCommerce Services Limited, CN=Certification Authority of WoSign
        Validity
            Not Before: Aug  8 01:00:01 2012 GMT
            Not After : Aug  8 01:00:01 2027 GMT
        Subject: C=CN, O=WoSign eCommerce Services Limited, CN=WoSign Class 3 Code Signing CA
        Subject Public Key Info:
            Public Key Algorithm: rsaEncryption
                Public-Key: (2048 bit)
                Modulus:
                    00:d1:49:a4:48:63:b9:dd:28:60:6a:d9:17:0d:01:
                    c0:b2:58:86:4e:26:08:44:af:5f:37:84:25:44:45:
                    65:33:46:a3:8a:9f:f6:99:51:ce:d9:43:a4:7a:0e:
                    d6:f1:bf:91:24:ca:d4:24:11:01:5d:a3:3f:f3:d4:
                    9d:6f:d6:99:b1:89:ce:6a:c1:65:a1:f0:df:a3:3a:
                    93:90:80:21:2c:ba:2e:c1:67:31:1e:6b:55:38:85:
                    a8:50:47:6a:49:c4:a5:0b:0c:4b:39:35:8f:80:9d:
                    95:8c:e2:0d:63:55:6d:d6:8d:c4:3e:99:31:03:ea:
                    42:00:1c:b0:16:61:36:80:f5:df:65:3f:e2:9f:8e:
                    ec:3d:49:1b:36:e8:ea:93:d9:83:35:46:18:a5:a4:
                    16:5e:34:68:71:b7:61:5b:3a:5e:40:e2:7f:c8:e6:
                    05:85:8d:c6:db:21:ca:20:3e:2d:00:15:55:8a:7a:
                    ca:dc:90:0a:5a:92:06:90:06:d6:6c:04:2c:8c:d5:
                    9b:0e:b2:d4:a7:e3:30:bf:4e:b8:67:c1:69:c6:70:
                    34:46:6c:66:ab:f2:ff:5f:35:da:13:3f:79:19:19:
                    99:c2:3f:57:db:5a:40:fd:53:bd:08:63:d7:c9:79:
                    cf:d3:b4:a2:09:e0:3f:55:c1:2b:1b:9f:37:fb:e1:
                    b3:ad
                Exponent: 65537 (0x10001)
        X509v3 extensions:
            X509v3 Basic Constraints: critical
                CA:TRUE, pathlen:0
            X509v3 Key Usage: critical
                Certificate Sign, CRL Sign
            X509v3 Subject Key Identifier: 
                F5:02:AA:4B:D3:E0:1A:8E:77:50:D6:1A:BB:EB:DF:B9:83:70:B0:4E
            X509v3 Authority Key Identifier: 
                keyid:E1:66:CF:0E:D1:F1:B3:4B:B7:06:20:14:FE:87:12:D5:F6:FE:FB:3E

            Authority Information Access: 
                OCSP - URI:http://ocsp.wosign.com/ca
                CA Issuers - URI:http://aia.wosign.com/class3-code.cer

            X509v3 CRL Distribution Points: 

                Full Name:
                  URI:http://crls.wosign.com/ca.crl

            X509v3 Certificate Policies: 
                Policy: 1.3.6.1.4.1.36305.1.1.0
                  CPS: http://www.wosign.com/policy/

    Signature Algorithm: sha1WithRSAEncryption
         86:e8:28:c9:b2:85:04:10:1c:44:4a:ea:63:78:84:4a:4e:0f:
         2e:c7:1f:c3:43:af:70:74:20:b0:40:94:e0:79:4c:4d:d7:ae:
         92:e9:1b:56:7e:55:ce:b8:11:57:13:db:a7:c2:98:70:41:f2:
         f8:df:93:b9:90:5f:df:9b:b9:11:57:d6:2b:a3:c9:bc:95:5c:
         74:02:59:51:63:73:dc:dd:9e:06:fd:1f:23:32:59:d8:39:9c:
         e1:39:e3:44:da:f6:17:9d:cc:8d:fb:41:34:53:ff:42:97:60:
         0f:67:21:e4:c6:94:e2:38:fb:4f:e8:05:32:0f:25:a6:c2:ea:
         44:ff:7c:2c:7a:cc:7d:59:97:d0:2d:85:5f:ab:54:79:0d:cd:
         57:b4:47:ae:72:07:30:1c:d5:d9:69:c8:f7:c4:9f:a4:bd:24:
         05:f2:0b:95:b8:b4:05:41:29:ff:ca:bd:c3:17:12:93:81:50:
         c3:e0:b0:5d:59:fa:6e:b5:58:6e:cd:10:6b:da:96:34:0d:8b:
         17:38:cd:0f:3f:1f:91:07:c1:d1:a8:5a:4a:e8:64:c6:f0:88:
         c8:60:9e:c8:e8:ba:fc:cb:c1:d8:0a:94:bc:fc:07:3c:98:10:
         94:bd:b3:ee:3f:ab:d4:4b:e1:ba:a3:ac:37:3e:22:76:c3:92:
         80:8b:49:77:9c:36:30:88:59:7c:15:3d:e9:24:28:ba:05:26:
         fe:9f:68:0c:c6:a9:e8:3b:1b:f8:79:00:1d:f4:24:70:48:88:
         d1:0a:ed:a2:f2:b7:c3:d4:c5:86:14:53:62:8a:b4:ec:81:b4:
         ab:d3:81:98:95:54:e9:80:60:8f:20:ce:c7:bf:e3:24:7c:20:
         34:58:f0:7f:2e:75:87:b9:14:72:9b:67:a6:67:2b:2f:02:a3:
         48:5d:10:95:07:b7:2a:d5:67:e5:4f:11:43:4e:8b:c1:45:fe:
         ec:f4:ab:15:1b:a2:72:ab:74:ac:f7:c2:12:12:18:b5:6c:dd:
         a1:f5:62:00:26:0c:c5:44:8e:14:40:81:c8:01:d7:5a:50:e8:
         61:04:85:55:69:5b:80:88:8c:d5:d6:68:d0:a0:4c:93:2b:c8:
         4e:da:8a:87:8c:64:09:12:a7:1d:e9:15:33:a6:63:fb:eb:66:
         2d:b5:95:2c:e4:f1:6f:bf:e8:06:58:dc:95:f6:88:21:12:43:
         a6:36:58:cf:13:3a:70:8e:72:0f:d8:a2:2f:68:ae:c9:ab:ea:
         b0:08:7b:de:f8:14:1b:79:bf:4c:ef:24:16:c9:d6:26:31:cc:
         11:a3:6f:5d:6d:a6:75:d1:43:57:71:c2:0f:bb:14:63:1c:3c:
         7b:90:1a:5a:c2:f8:28:21
-----BEGIN CERTIFICATE-----
MIIFkDCCA3igAwIBAgIEGW34pzANBgkqhkiG9w0BAQUFADBlMQswCQYDVQQGEwJD
TjEqMCgGA1UEChMhV29TaWduIGVDb21tZXJjZSBTZXJ2aWNlcyBMaW1pdGVkMSow
KAYDVQQDEyFDZXJ0aWZpY2F0aW9uIEF1dGhvcml0eSBvZiBXb1NpZ24wHhcNMTIw
ODA4MDEwMDAxWhcNMjcwODA4MDEwMDAxWjBiMQswCQYDVQQGEwJDTjEqMCgGA1UE
ChMhV29TaWduIGVDb21tZXJjZSBTZXJ2aWNlcyBMaW1pdGVkMScwJQYDVQQDEx5X
b1NpZ24gQ2xhc3MgMyBDb2RlIFNpZ25pbmcgQ0EwggEiMA0GCSqGSIb3DQEBAQUA
A4IBDwAwggEKAoIBAQDRSaRIY7ndKGBq2RcNAcCyWIZOJghEr183hCVERWUzRqOK
n/aZUc7ZQ6R6Dtbxv5EkytQkEQFdoz/z1J1v1pmxic5qwWWh8N+jOpOQgCEsui7B
ZzEea1U4hahQR2pJxKULDEs5NY+AnZWM4g1jVW3WjcQ+mTED6kIAHLAWYTaA9d9l
P+Kfjuw9SRs26OqT2YM1RhilpBZeNGhxt2FbOl5A4n/I5gWFjcbbIcogPi0AFVWK
esrckApakgaQBtZsBCyM1ZsOstSn4zC/TrhnwWnGcDRGbGar8v9fNdoTP3kZGZnC
P1fbWkD9U70IY9fJec/TtKIJ4D9VwSsbnzf74bOtAgMBAAGjggFJMIIBRTASBgNV
HRMBAf8ECDAGAQH/AgEAMA4GA1UdDwEB/wQEAwIBBjAdBgNVHQ4EFgQU9QKqS9Pg
Go53UNYau+vfuYNwsE4wHwYDVR0jBBgwFoAU4WbPDtHxs0u3BiAU/ocS1fb++z4w
aAYIKwYBBQUHAQEEXDBaMCUGCCsGAQUFBzABhhlodHRwOi8vb2NzcC53b3NpZ24u
Y29tL2NhMDEGCCsGAQUFBzAChiVodHRwOi8vYWlhLndvc2lnbi5jb20vY2xhc3Mz
LWNvZGUuY2VyMC4GA1UdHwQnMCUwI6AhoB+GHWh0dHA6Ly9jcmxzLndvc2lnbi5j
b20vY2EuY3JsMEUGA1UdIAQ+MDwwOgYLKwYBBAGCm1EBAQAwKzApBggrBgEFBQcC
ARYdaHR0cDovL3d3dy53b3NpZ24uY29tL3BvbGljeS8wDQYJKoZIhvcNAQEFBQAD
ggIBAIboKMmyhQQQHERK6mN4hEpODy7HH8NDr3B0ILBAlOB5TE3XrpLpG1Z+Vc64
EVcT26fCmHBB8vjfk7mQX9+buRFX1iujybyVXHQCWVFjc9zdngb9HyMyWdg5nOE5
40Ta9hedzI37QTRT/0KXYA9nIeTGlOI4+0/oBTIPJabC6kT/fCx6zH1Zl9AthV+r
VHkNzVe0R65yBzAc1dlpyPfEn6S9JAXyC5W4tAVBKf/KvcMXEpOBUMPgsF1Z+m61
WG7NEGvaljQNixc4zQ8/H5EHwdGoWkroZMbwiMhgnsjouvzLwdgKlLz8BzyYEJS9
s+4/q9RL4bqjrDc+InbDkoCLSXecNjCIWXwVPekkKLoFJv6faAzGqeg7G/h5AB30
JHBIiNEK7aLyt8PUxYYUU2KKtOyBtKvTgZiVVOmAYI8gzse/4yR8IDRY8H8udYe5
FHKbZ6ZnKy8Co0hdEJUHtyrVZ+VPEUNOi8FF/uz0qxUbonKrdKz3whISGLVs3aH1
YgAmDMVEjhRAgcgB11pQ6GEEhVVpW4CIjNXWaNCgTJMryE7aioeMZAkSpx3pFTOm
Y/vrZi21lSzk8W+/6AZY3JX2iCESQ6Y2WM8TOnCOcg/Yoi9orsmr6rAIe974FBt5
v0zvJBbJ1iYxzBGjb11tpnXRQ1dxwg+7FGMcPHuQGlrC+Cgh
-----END CERTIFICATE-----

Certificate:
    Data:
        Version: 3 (0x2)
        Serial Number: 61 (0x3d)
    Signature Algorithm: sha1WithRSAEncryption
        Issuer: C=IL, O=StartCom Ltd., OU=Secure Digital Certificate Signing, CN=StartCom Certification Authority
        Validity
            Not Before: Mar  1 01:00:01 2011 GMT
            Not After : Mar  1 01:00:01 2016 GMT
        Subject: C=CN, O=WoSign eCommerce Services Limited, CN=Certification Authority of WoSign
        Subject Public Key Info:
            Public Key Algorithm: rsaEncryption
                Public-Key: (4096 bit)
                Modulus:
                    00:bd:ca:8d:ac:b8:91:15:56:97:7b:6b:5c:7a:c2:
                    de:6b:d9:a1:b0:c3:10:23:fa:a7:a1:b2:cc:31:fa:
                    3e:d9:a6:29:6f:16:3d:e0:6b:f8:b8:40:5f:db:39:
                    a8:00:7a:8b:a0:4d:54:7d:c2:22:78:fc:8e:09:b8:
                    a8:85:d7:cc:95:97:4b:74:d8:9e:7e:f0:00:e4:0e:
                    89:ae:49:28:44:1a:10:99:32:0f:25:88:53:a4:0d:
                    b3:0f:12:08:16:0b:03:71:27:1c:7f:e1:db:d2:fd:
                    67:68:c4:05:5d:0a:0e:5d:70:d7:d8:97:a0:bc:53:
                    41:9a:91:8d:f4:9e:36:66:7a:7e:56:c1:90:5f:e6:
                    b1:68:20:36:a4:8c:24:2c:2c:47:0b:59:76:66:30:
                    b5:be:de:ed:8f:f8:9d:d3:bb:01:30:e6:f2:f3:0e:
                    e0:2c:92:80:f3:85:f9:28:8a:b4:54:2e:9a:ed:f7:
                    76:fc:15:68:16:eb:4a:6c:eb:2e:12:8f:d4:cf:fe:
                    0c:c7:5c:1d:0b:7e:05:32:be:5e:b0:09:2a:42:d5:
                    c9:4e:90:b3:59:0d:bb:7a:7e:cd:d5:08:5a:b4:7f:
                    d8:1c:69:11:f9:27:0f:7b:06:af:54:83:18:7b:e1:
                    dd:54:7a:51:68:6e:77:fc:c6:bf:52:4a:66:46:a1:
                    b2:67:1a:bb:a3:4f:77:a0:be:5d:ff:fc:56:0b:43:
                    72:77:90:ca:9e:f9:f2:39:f5:0d:a9:f4:ea:d7:e7:
                    b3:10:2f:30:42:37:21:cc:30:70:c9:86:98:0f:cc:
                    58:4d:83:bb:7d:e5:1a:a5:37:8d:b6:ac:32:97:00:
                    3a:63:71:24:1e:9e:37:c4:ff:74:d4:37:c0:e2:fe:
                    88:46:60:11:dd:08:3f:50:36:ab:b8:7a:a4:95:62:
                    6a:6e:b0:ca:6a:21:5a:69:f3:f3:fb:1d:70:39:95:
                    f3:a7:6e:a6:81:89:a1:88:c5:3b:71:ca:a3:52:ee:
                    83:bb:fd:a0:77:f4:e4:6f:e7:42:db:6d:4a:99:8a:
                    34:48:bc:17:dc:e4:80:08:22:b6:f2:31:c0:3f:04:
                    3e:eb:9f:20:79:d6:b8:06:64:64:02:31:d7:a9:cd:
                    52:fb:84:45:69:09:00:2a:dc:55:8b:c4:06:46:4b:
                    c0:4a:1d:09:5b:39:28:fd:a9:ab:ce:00:f9:2e:48:
                    4b:26:e6:30:4c:a5:58:ca:b4:44:82:4f:e7:91:1e:
                    33:c3:b0:93:ff:11:fc:81:d2:ca:1f:71:29:dd:76:
                    4f:92:25:af:1d:81:b7:0f:2f:8c:c3:06:cc:2f:27:
                    a3:4a:e4:0e:99:ba:7c:1e:45:1f:7f:aa:19:45:96:
                    fd:fc:3d
                Exponent: 65537 (0x10001)
        X509v3 extensions:
            X509v3 Basic Constraints: critical
                CA:TRUE, pathlen:2
            X509v3 Key Usage: critical
                Certificate Sign, CRL Sign
            X509v3 Subject Key Identifier: 
                E1:66:CF:0E:D1:F1:B3:4B:B7:06:20:14:FE:87:12:D5:F6:FE:FB:3E
            X509v3 Authority Key Identifier: 
                keyid:4E:0B:EF:1A:A4:40:5B:A5:17:69:87:30:CA:34:68:43:D0:41:AE:F2

            Authority Information Access: 
                OCSP - URI:http://ocsp.startssl.com/ca
                CA Issuers - URI:http://aia.startssl.com/certs/ca.crt

            X509v3 CRL Distribution Points: 

                Full Name:
                  URI:http://crl.startssl.com/sfsca.crl

    Signature Algorithm: sha1WithRSAEncryption
         39:d0:c2:56:05:6d:c4:a1:32:f8:bf:c6:55:e0:6a:4d:82:99:
         dd:27:68:6d:69:15:dc:ff:7e:eb:51:bd:b6:b7:a6:3d:85:ff:
         82:15:5c:6a:0b:c1:05:6b:8a:4d:1a:3e:ba:77:7f:93:db:86:
         13:bb:ca:d9:1c:9e:20:60:38:46:5f:9a:c9:fb:ac:01:e4:5b:
         18:48:dd:e0:70:ac:5d:51:ba:e9:c2:7d:73:4f:c2:ff:3a:ba:
         21:9b:3e:e0:a6:a3:4d:f9:db:b4:15:26:53:6c:1a:c0:af:31:
         89:09:ce:fc:f0:72:e8:8a:2e:c0:89:07:f7:e8:86:1c:b3:b0:
         ff:22:c5:a6:64:2b:24:4e:f6:c2:b1:c3:d4:18:26:f2:66:46:
         9b:f2:38:97:58:ee:af:05:cb:bd:42:f2:d5:73:62:7a:0b:a8:
         a9:3e:ee:74:25:e7:a8:58:ef:59:eb:7f:48:ed:1a:dd:ba:7b:
         ce:0c:08:7b:20:b1:88:04:df:7f:7e:f2:ed:81:5a:a3:68:18:
         9f:ce:75:38:30:21:95:34:5d:64:e0:9e:52:2a:50:f7:3a:25:
         53:6f:da:39:e8:f3:b7:be:6f:5d:96:12:1b:b1:f1:c0:ef:63:
         0e:b5:ab:64:9c:4e:28:d5:47:a1:d2:e4:03:4b:ff:f6:6a:14:
         56:1b:09:87:c5:ce:23:95:e2:25:70:c4:50:67:c2:e4:29:a1:
         8c:10:7f:7b:d7:3b:5e:c3:d3:fc:71:a1:d1:07:d1:e2:12:5a:
         74:6c:2c:d7:f1:0d:87:21:ea:c3:cb:e0:46:90:41:2b:23:e0:
         02:c4:20:d9:ef:8e:f6:76:c9:e6:67:0d:1c:27:ca:c1:e9:a5:
         3d:f1:11:4c:fc:8b:a3:52:44:f0:90:39:94:6c:f0:48:2f:c1:
         e9:54:92:66:bb:57:35:1f:2f:62:39:55:aa:f0:93:bb:23:b1:
         b4:68:51:89:81:2d:0f:bb:ec:60:1c:de:d9:dc:c9:e4:6e:91:
         af:9c:6d:84:5e:1a:13:48:8d:c1:db:da:d2:7f:80:72:11:e2:
         5a:32:e3:16:0b:73:5e:9b:8c:54:47:c3:b9:cf:6c:88:a4:4e:
         c2:b3:fa:1e:d3:14:5d:6d:5a:ae:7f:a1:70:ad:ca:24:d6:4f:
         88:e1:14:33:44:0e:91:0b:e0:2f:56:ae:b4:92:86:ee:e4:3e:
         e2:65:a9:c2:2d:a8:2b:51:41:61:23:0e:d1:dc:6b:4f:1c:4d:
         57:e7:53:b0:5d:6a:93:c4:00:a2:09:19:ee:e6:2c:1e:d1:6f:
         34:c3:6c:07:dc:12:91:b3:bf:9d:26:15:35:24:7b:36:db:be:
         23:8c:53:3e:21:6b:85:f8
-----BEGIN CERTIFICATE-----
MIIGZjCCBE6gAwIBAgIBPTANBgkqhkiG9w0BAQUFADB9MQswCQYDVQQGEwJJTDEW
MBQGA1UEChMNU3RhcnRDb20gTHRkLjErMCkGA1UECxMiU2VjdXJlIERpZ2l0YWwg
Q2VydGlmaWNhdGUgU2lnbmluZzEpMCcGA1UEAxMgU3RhcnRDb20gQ2VydGlmaWNh
dGlvbiBBdXRob3JpdHkwHhcNMTEwMzAxMDEwMDAxWhcNMTYwMzAxMDEwMDAxWjBl
MQswCQYDVQQGEwJDTjEqMCgGA1UEChMhV29TaWduIGVDb21tZXJjZSBTZXJ2aWNl
cyBMaW1pdGVkMSowKAYDVQQDEyFDZXJ0aWZpY2F0aW9uIEF1dGhvcml0eSBvZiBX
b1NpZ24wggIiMA0GCSqGSIb3DQEBAQUAA4ICDwAwggIKAoICAQC9yo2suJEVVpd7
a1x6wt5r2aGwwxAj+qehsswx+j7ZpilvFj3ga/i4QF/bOagAeougTVR9wiJ4/I4J
uKiF18yVl0t02J5+8ADkDomuSShEGhCZMg8liFOkDbMPEggWCwNxJxx/4dvS/Wdo
xAVdCg5dcNfYl6C8U0GakY30njZmen5WwZBf5rFoIDakjCQsLEcLWXZmMLW+3u2P
+J3TuwEw5vLzDuAskoDzhfkoirRULprt93b8FWgW60ps6y4Sj9TP/gzHXB0LfgUy
vl6wCSpC1clOkLNZDbt6fs3VCFq0f9gcaRH5Jw97Bq9Ugxh74d1UelFobnf8xr9S
SmZGobJnGrujT3egvl3//FYLQ3J3kMqe+fI59Q2p9OrX57MQLzBCNyHMMHDJhpgP
zFhNg7t95RqlN422rDKXADpjcSQenjfE/3TUN8Di/ohGYBHdCD9QNqu4eqSVYmpu
sMpqIVpp8/P7HXA5lfOnbqaBiaGIxTtxyqNS7oO7/aB39ORv50LbbUqZijRIvBfc
5IAIIrbyMcA/BD7rnyB51rgGZGQCMdepzVL7hEVpCQAq3FWLxAZGS8BKHQlbOSj9
qavOAPkuSEsm5jBMpVjKtESCT+eRHjPDsJP/EfyB0sofcSnddk+SJa8dgbcPL4zD
BswvJ6NK5A6ZunweRR9/qhlFlv38PQIDAQABo4IBBzCCAQMwEgYDVR0TAQH/BAgw
BgEB/wIBAjAOBgNVHQ8BAf8EBAMCAQYwHQYDVR0OBBYEFOFmzw7R8bNLtwYgFP6H
EtX2/vs+MB8GA1UdIwQYMBaAFE4L7xqkQFulF2mHMMo0aEPQQa7yMGkGCCsGAQUF
BwEBBF0wWzAnBggrBgEFBQcwAYYbaHR0cDovL29jc3Auc3RhcnRzc2wuY29tL2Nh
MDAGCCsGAQUFBzAChiRodHRwOi8vYWlhLnN0YXJ0c3NsLmNvbS9jZXJ0cy9jYS5j
cnQwMgYDVR0fBCswKTAnoCWgI4YhaHR0cDovL2NybC5zdGFydHNzbC5jb20vc2Zz
Y2EuY3JsMA0GCSqGSIb3DQEBBQUAA4ICAQA50MJWBW3EoTL4v8ZV4GpNgpndJ2ht
aRXc/37rUb22t6Y9hf+CFVxqC8EFa4pNGj66d3+T24YTu8rZHJ4gYDhGX5rJ+6wB
5FsYSN3gcKxdUbrpwn1zT8L/Orohmz7gpqNN+du0FSZTbBrArzGJCc788HLoii7A
iQf36IYcs7D/IsWmZCskTvbCscPUGCbyZkab8jiXWO6vBcu9QvLVc2J6C6ipPu50
JeeoWO9Z639I7RrdunvODAh7ILGIBN9/fvLtgVqjaBifznU4MCGVNF1k4J5SKlD3
OiVTb9o56PO3vm9dlhIbsfHA72MOtatknE4o1Ueh0uQDS//2ahRWGwmHxc4jleIl
cMRQZ8LkKaGMEH971ztew9P8caHRB9HiElp0bCzX8Q2HIerDy+BGkEErI+ACxCDZ
7472dsnmZw0cJ8rB6aU98RFM/IujUkTwkDmUbPBIL8HpVJJmu1c1Hy9iOVWq8JO7
I7G0aFGJgS0Pu+xgHN7Z3MnkbpGvnG2EXhoTSI3B29rSf4ByEeJaMuMWC3Nem4xU
R8O5z2yIpE7Cs/oe0xRdbVquf6Fwrcok1k+I4RQzRA6RC+AvVq60kobu5D7iZanC
LagrUUFhIw7R3GtPHE1X51OwXWqTxACiCRnu5iwe0W80w2wH3BKRs7+dJhU1JHs2
274jjFM+IWuF+A==
-----END CERTIFICATE-----

