Certificate:
    Data:
        Version: 3 (0x2)
        Serial Number:
            04:00:00:00:00:01:25:07:1d:f9:af
    Signature Algorithm: sha256WithRSAEncryption
        Issuer: C=BE, O=GlobalSign nv-sa, OU=Root CA, CN=GlobalSign Root CA
        Validity
            Not Before: Nov 18 10:00:00 2009 GMT
            Not After : Mar 18 10:00:00 2019 GMT
        Subject: OU=GlobalSign Root CA - R3, O=GlobalSign, CN=GlobalSign
        Subject Public Key Info:
            Public Key Algorithm: rsaEncryption
                Public-Key: (2048 bit)
                Modulus:
                    00:cc:25:76:90:79:06:78:22:16:f5:c0:83:b6:84:
                    ca:28:9e:fd:05:76:11:c5:ad:88:72:fc:46:02:43:
                    c7:b2:8a:9d:04:5f:24:cb:2e:4b:e1:60:82:46:e1:
                    52:ab:0c:81:47:70:6c:dd:64:d1:eb:f5:2c:a3:0f:
                    82:3d:0c:2b:ae:97:d7:b6:14:86:10:79:bb:3b:13:
                    80:77:8c:08:e1:49:d2:6a:62:2f:1f:5e:fa:96:68:
                    df:89:27:95:38:9f:06:d7:3e:c9:cb:26:59:0d:73:
                    de:b0:c8:e9:26:0e:83:15:c6:ef:5b:8b:d2:04:60:
                    ca:49:a6:28:f6:69:3b:f6:cb:c8:28:91:e5:9d:8a:
                    61:57:37:ac:74:14:dc:74:e0:3a:ee:72:2f:2e:9c:
                    fb:d0:bb:bf:f5:3d:00:e1:06:33:e8:82:2b:ae:53:
                    a6:3a:16:73:8c:dd:41:0e:20:3a:c0:b4:a7:a1:e9:
                    b2:4f:90:2e:32:60:e9:57:cb:b9:04:92:68:68:e5:
                    38:26:60:75:b2:9f:77:ff:91:14:ef:ae:20:49:fc:
                    ad:40:15:48:d1:02:31:61:19:5e:b8:97:ef:ad:77:
                    b7:64:9a:7a:bf:5f:c1:13:ef:9b:62:fb:0d:6c:e0:
                    54:69:16:a9:03:da:6e:e9:83:93:71:76:c6:69:85:
                    82:17
                Exponent: 65537 (0x10001)
        X509v3 extensions:
            X509v3 Key Usage: critical
                Certificate Sign, CRL Sign
            X509v3 Basic Constraints: critical
                CA:TRUE
            X509v3 Subject Key Identifier: 
                8F:F0:4B:7F:A8:2E:45:24:AE:4D:50:FA:63:9A:8B:DE:E2:DD:1B:BC
            X509v3 Certificate Policies: 
                Policy: X509v3 Any Policy
                  CPS: http://www.globalsign.net/repository/

            X509v3 CRL Distribution Points: 

                Full Name:
                  URI:http://crl.globalsign.net/root.crl

            Authority Information Access: 
                OCSP - URI:http://ocsp.globalsign.com/ExtendedSSLSHA256CACross

            X509v3 Authority Key Identifier: 
                keyid:60:7B:66:1A:45:0D:97:CA:89:50:2F:7D:04:CD:34:A8:FF:FC:FD:4B

    Signature Algorithm: sha256WithRSAEncryption
         42:52:a9:7e:a2:cf:5b:3b:cb:4b:dd:ba:f8:57:59:d3:24:a4:
         77:72:ef:62:44:37:82:ed:06:ee:04:d5:16:5f:24:a3:14:dc:
         6c:54:05:6a:b0:9b:3d:da:81:39:da:ad:28:db:95:6f:81:83:
         f5:cd:62:b1:45:24:b1:dd:29:e5:08:54:95:95:8c:f0:1d:06:
         5f:1a:d6:46:3f:13:40:17:48:11:16:9b:47:4d:d1:3a:b5:0f:
         57:1c:92:30:d0:f8:b2:25:3b:0a:cd:f6:87:f9:c7:b2:57:d3:
         3f:7d:a5:8c:14:ce:9c:a8:c7:9f:46:93:da:59:fa:79:5d:65:
         20:35:44:5a:4f:c1:90:9d:c1:54:92:56:dc:34:c8:f5:c1:03:
         d0:5d:c0:59:48:9c:00:fc:95:a0:f1:d1:76:f7:16:36:c8:13:
         92:7f:2d:2b:c0:b8:80:f1:26:26:1f:41:4d:52:bf:1e:97:bb:
         01:82:08:e7:15:f6:c1:d5:34:2a:cc:f5:e4:c3:87:7a:57:81:
         e1:d6:d7:42:86:62:01:77:e2:a9:c4:7a:86:f4:04:38:7a:07:
         6a:7d:00:ec:73:f7:a8:0b:34:78:c5:9e:b3:ef:b8:38:40:0e:
         8c:33:53:c8:75:ec:5f:3e:ea:75:5e:ff:82:0e:74:15:dc:19:
         05:f3:ba:31
-----BEGIN CERTIFICATE-----
MIIEXTCCA0WgAwIBAgILBAAAAAABJQcd+a8wDQYJKoZIhvcNAQELBQAwVzELMAkG
A1UEBhMCQkUxGTAXBgNVBAoTEEdsb2JhbFNpZ24gbnYtc2ExEDAOBgNVBAsTB1Jv
b3QgQ0ExGzAZBgNVBAMTEkdsb2JhbFNpZ24gUm9vdCBDQTAeFw0wOTExMTgxMDAw
MDBaFw0xOTAzMTgxMDAwMDBaMEwxIDAeBgNVBAsTF0dsb2JhbFNpZ24gUm9vdCBD
QSAtIFIzMRMwEQYDVQQKEwpHbG9iYWxTaWduMRMwEQYDVQQDEwpHbG9iYWxTaWdu
MIIBIjANBgkqhkiG9w0BAQEFAAOCAQ8AMIIBCgKCAQEAzCV2kHkGeCIW9cCDtoTK
KJ79BXYRxa2IcvxGAkPHsoqdBF8kyy5L4WCCRuFSqwyBR3Bs3WTR6/Usow+CPQwr
rpfXthSGEHm7OxOAd4wI4UnSamIvH176lmjfiSeVOJ8G1z7JyyZZDXPesMjpJg6D
FcbvW4vSBGDKSaYo9mk79svIKJHlnYphVzesdBTcdOA67nIvLpz70Lu/9T0A4QYz
6IIrrlOmOhZzjN1BDiA6wLSnoemyT5AuMmDpV8u5BJJoaOU4JmB1sp93/5EU764g
SfytQBVI0QIxYRleuJfvrXe3ZJp6v1/BE++bYvsNbOBUaRapA9pu6YOTcXbGaYWC
FwIDAQABo4IBMzCCAS8wDgYDVR0PAQH/BAQDAgEGMA8GA1UdEwEB/wQFMAMBAf8w
HQYDVR0OBBYEFI/wS3+oLkUkrk1Q+mOai97i3Ru8MEYGA1UdIAQ/MD0wOwYEVR0g
ADAzMDEGCCsGAQUFBwIBFiVodHRwOi8vd3d3Lmdsb2JhbHNpZ24ubmV0L3JlcG9z
aXRvcnkvMDMGA1UdHwQsMCowKKAmoCSGImh0dHA6Ly9jcmwuZ2xvYmFsc2lnbi5u
ZXQvcm9vdC5jcmwwTwYIKwYBBQUHAQEEQzBBMD8GCCsGAQUFBzABhjNodHRwOi8v
b2NzcC5nbG9iYWxzaWduLmNvbS9FeHRlbmRlZFNTTFNIQTI1NkNBQ3Jvc3MwHwYD
VR0jBBgwFoAUYHtmGkUNl8qJUC99BM00qP/8/UswDQYJKoZIhvcNAQELBQADggEB
AEJSqX6iz1s7y0vduvhXWdMkpHdy72JEN4LtBu4E1RZfJKMU3GxUBWqwmz3agTna
rSjblW+Bg/XNYrFFJLHdKeUIVJWVjPAdBl8a1kY/E0AXSBEWm0dN0Tq1D1cckjDQ
+LIlOwrN9of5x7JX0z99pYwUzpyox59Gk9pZ+nldZSA1RFpPwZCdwVSSVtw0yPXB
A9BdwFlInAD8laDx0Xb3FjbIE5J/LSvAuIDxJiYfQU1Svx6XuwGCCOcV9sHVNCrM
9eTDh3pXgeHW10KGYgF34qnEeob0BDh6B2p9AOxz96gLNHjFnrPvuDhADowzU8h1
7F8+6nVe/4IOdBXcGQXzujE=
-----END CERTIFICATE-----

Certificate:
    Data:
        Version: 3 (0x2)
        Serial Number:
            48:1b:6a:07:a9:42:4c:1e:aa:fe:f3:cd:f1:0f
    Signature Algorithm: sha256WithRSAEncryption
        Issuer: OU=GlobalSign Root CA - R3, O=GlobalSign, CN=GlobalSign
        Validity
            Not Before: Jun 15 00:00:00 2016 GMT
            Not After : Jun 15 00:00:00 2024 GMT
        Subject: C=BE, O=GlobalSign nv-sa, CN=GlobalSign Extended Validation CodeSigning CA - SHA256 - G3
        Subject Public Key Info:
            Public Key Algorithm: rsaEncryption
                Public-Key: (2048 bit)
                Modulus:
                    00:d9:b7:ba:25:ad:94:f3:5b:be:41:06:1c:53:ca:
                    0c:10:8c:51:41:59:33:79:64:f4:57:9d:e4:d5:25:
                    c4:ec:50:84:58:98:72:79:40:e2:2f:78:d4:92:ea:
                    26:0e:9e:ae:95:7c:fb:c4:fd:71:44:dd:8c:5f:b7:
                    23:8b:5e:bb:f4:fc:4b:cb:23:3d:c3:76:03:f5:d1:
                    8c:45:bc:71:75:1d:8b:d2:89:89:be:e3:51:3d:c6:
                    c8:8a:b2:31:35:07:6e:b9:f5:ba:6a:0d:f4:10:9f:
                    ae:d5:62:49:28:7b:ec:57:ba:ab:32:7c:b1:7d:d2:
                    a2:56:06:36:ee:b0:ef:d0:6a:ae:ea:ab:1f:d6:0d:
                    9f:7c:96:fb:ad:70:99:2d:5d:95:f0:80:d0:79:46:
                    ec:55:3a:cc:d3:38:fb:04:07:a8:07:75:82:82:e0:
                    d0:7e:77:b8:8f:eb:d2:28:fc:ae:6d:14:68:41:7f:
                    76:43:d7:48:ba:60:44:e1:b7:72:e8:d0:f0:20:03:
                    7b:da:da:b4:06:75:c7:b2:03:de:f8:94:c6:68:8f:
                    5e:7b:9e:9b:9d:36:e0:ce:d2:6b:c6:c6:6b:e9:14:
                    22:b5:71:7e:b6:8f:5a:1f:db:e7:6e:f4:42:10:90:
                    68:e6:2b:45:10:4f:73:ba:2c:d7:c5:31:6a:72:dd:
                    63:73
                Exponent: 65537 (0x10001)
        X509v3 extensions:
            X509v3 Key Usage: critical
                Certificate Sign, CRL Sign
            X509v3 Extended Key Usage: 
                Code Signing, OCSP Signing
            X509v3 Basic Constraints: critical
                CA:TRUE, pathlen:0
            X509v3 Subject Key Identifier: 
                DC:2C:58:2C:2A:6F:35:2D:9F:79:95:A8:48:5D:C4:6D:3E:53:BF:B9
            X509v3 Authority Key Identifier: 
                keyid:8F:F0:4B:7F:A8:2E:45:24:AE:4D:50:FA:63:9A:8B:DE:E2:DD:1B:BC

            Authority Information Access: 
                OCSP - URI:http://ocsp2.globalsign.com/rootr3

            X509v3 CRL Distribution Points: 

                Full Name:
                  URI:http://crl.globalsign.com/root-r3.crl

            X509v3 Certificate Policies: 
                Policy: 1.3.6.1.4.1.4146.1.2
                Policy: 2.23.140.1.3
                Policy: 1.3.6.1.4.1.4146.1.95
                  CPS: https://www.globalsign.com/repository/

    Signature Algorithm: sha256WithRSAEncryption
         76:09:c4:cc:2f:d9:ef:1e:4b:a9:f8:57:f3:40:39:21:ca:4c:
         3c:1d:9e:29:2b:20:d4:2b:44:d2:88:ce:1a:0d:05:cf:83:81:
         bb:eb:69:bc:31:8d:2a:c4:c7:44:cc:60:60:94:1c:cf:a1:e1:
         02:24:0e:ad:5b:be:2c:c2:27:1e:67:b7:e8:28:1f:32:51:e3:
         39:f3:98:df:b8:9f:2e:8b:2a:b4:7b:0a:03:bc:bd:36:04:8f:
         c9:d0:9c:4f:a3:02:27:99:b0:f0:45:e9:34:df:e4:3a:a3:b7:
         06:37:d8:6f:2a:79:90:d4:d4:4e:58:71:ec:53:a9:61:98:f7:
         39:69:e0:12:9c:57:58:72:86:27:29:a5:1d:e5:32:f3:2b:99:
         97:5a:bf:2b:b0:3c:b4:06:ea:0e:64:ec:b7:cd:65:80:24:17:
         c2:d9:37:f5:b1:26:10:35:47:7b:9a:02:ba:54:a2:45:93:ff:
         79:bf:1a:8c:c5:9f:b5:9f:df:78:e7:6b:50:f1:47:94:69:4b:
         24:b8:da:05:e8:0c:9d:4f:06:ec:4a:31:20:7e:4f:5d:86:84:
         2f:35:a3:cd:9c:c1:84:57:1f:1f:ad:c0:e2:a4:b1:ef:29:6b:
         21:97:a6:d4:fe:ed:03:37:b0:fc:f5:8d:2a:bc:dc:84:83:e3:
         de:c3:e7:5f
-----BEGIN CERTIFICATE-----
MIIEpzCCA4+gAwIBAgIOSBtqB6lCTB6q/vPN8Q8wDQYJKoZIhvcNAQELBQAwTDEg
MB4GA1UECxMXR2xvYmFsU2lnbiBSb290IENBIC0gUjMxEzARBgNVBAoTCkdsb2Jh
bFNpZ24xEzARBgNVBAMTCkdsb2JhbFNpZ24wHhcNMTYwNjE1MDAwMDAwWhcNMjQw
NjE1MDAwMDAwWjBuMQswCQYDVQQGEwJCRTEZMBcGA1UEChMQR2xvYmFsU2lnbiBu
di1zYTFEMEIGA1UEAxM7R2xvYmFsU2lnbiBFeHRlbmRlZCBWYWxpZGF0aW9uIENv
ZGVTaWduaW5nIENBIC0gU0hBMjU2IC0gRzMwggEiMA0GCSqGSIb3DQEBAQUAA4IB
DwAwggEKAoIBAQDZt7olrZTzW75BBhxTygwQjFFBWTN5ZPRXneTVJcTsUIRYmHJ5
QOIveNSS6iYOnq6VfPvE/XFE3YxftyOLXrv0/EvLIz3DdgP10YxFvHF1HYvSiYm+
41E9xsiKsjE1B2659bpqDfQQn67VYkkoe+xXuqsyfLF90qJWBjbusO/Qaq7qqx/W
DZ98lvutcJktXZXwgNB5RuxVOszTOPsEB6gHdYKC4NB+d7iP69Io/K5tFGhBf3ZD
10i6YETht3Lo0PAgA3va2rQGdceyA974lMZoj157npudNuDO0mvGxmvpFCK1cX62
j1of2+du9EIQkGjmK0UQT3O6LNfFMWpy3WNzAgMBAAGjggFjMIIBXzAOBgNVHQ8B
Af8EBAMCAQYwHQYDVR0lBBYwFAYIKwYBBQUHAwMGCCsGAQUFBwMJMBIGA1UdEwEB
/wQIMAYBAf8CAQAwHQYDVR0OBBYEFNwsWCwqbzUtn3mVqEhdxG0+U7+5MB8GA1Ud
IwQYMBaAFI/wS3+oLkUkrk1Q+mOai97i3Ru8MD4GCCsGAQUFBwEBBDIwMDAuBggr
BgEFBQcwAYYiaHR0cDovL29jc3AyLmdsb2JhbHNpZ24uY29tL3Jvb3RyMzA2BgNV
HR8ELzAtMCugKaAnhiVodHRwOi8vY3JsLmdsb2JhbHNpZ24uY29tL3Jvb3QtcjMu
Y3JsMGIGA1UdIARbMFkwCwYJKwYBBAGgMgECMAcGBWeBDAEDMEEGCSsGAQQBoDIB
XzA0MDIGCCsGAQUFBwIBFiZodHRwczovL3d3dy5nbG9iYWxzaWduLmNvbS9yZXBv
c2l0b3J5LzANBgkqhkiG9w0BAQsFAAOCAQEAdgnEzC/Z7x5LqfhX80A5IcpMPB2e
KSsg1CtE0ojOGg0Fz4OBu+tpvDGNKsTHRMxgYJQcz6HhAiQOrVu+LMInHme36Cgf
MlHjOfOY37ifLosqtHsKA7y9NgSPydCcT6MCJ5mw8EXpNN/kOqO3BjfYbyp5kNTU
Tlhx7FOpYZj3OWngEpxXWHKGJymlHeUy8yuZl1q/K7A8tAbqDmTst81lgCQXwtk3
9bEmEDVHe5oCulSiRZP/eb8ajMWftZ/feOdrUPFHlGlLJLjaBegMnU8G7EoxIH5P
XYaELzWjzZzBhFcfH63A4qSx7ylrIZem1P7tAzew/PWNKrzchIPj3sPnXw==
-----END CERTIFICATE-----

Certificate:
    Data:
        Version: 3 (0x2)
        Serial Number:
            4e:39:05:4d:52:08:3c:85:2b:89:f6:94
    Signature Algorithm: sha256WithRSAEncryption
        Issuer: C=BE, O=GlobalSign nv-sa, CN=GlobalSign Extended Validation CodeSigning CA - SHA256 - G3
        Validity
            Not Before: Mar 21 16:44:28 2017 GMT
            Not After : Mar 22 16:44:28 2018 GMT
        Subject: businessCategory=Private Organization/serialNumber=1156196030110/jurisdictionC=RU/jurisdictionST=Rostovskaya Oblast, C=RU, ST=Rostovskaya Oblast, L=Rostov-on-Don/street=Dneprovski 124b-75, O=oTweak Software, LLC, CN=oTweak Software, LLC
        Subject Public Key Info:
            Public Key Algorithm: rsaEncryption
                Public-Key: (2048 bit)
                Modulus:
                    00:b5:7d:97:49:db:4a:cc:de:51:01:45:0e:df:7d:
                    56:98:b5:4a:6c:3f:c9:2b:8b:fa:b7:24:e7:4e:65:
                    f9:22:e9:37:e9:28:43:b2:90:29:22:b1:b6:5c:2b:
                    c8:27:d8:66:b1:38:16:2a:ed:47:93:a7:06:0a:85:
                    76:fc:39:0b:9f:18:69:2c:31:f1:60:f6:e8:8c:07:
                    c0:3e:12:ad:29:c3:6f:85:75:6b:f8:7f:33:aa:9a:
                    2f:62:c6:3d:84:f8:00:5f:e5:bf:ac:c7:6d:39:e8:
                    03:5c:6e:48:eb:44:ab:7b:c3:68:e6:17:28:23:cb:
                    57:3a:05:fe:c5:ea:7f:27:cd:10:f0:7c:cc:75:d2:
                    d5:1d:ac:54:3a:54:70:71:0c:cc:d2:62:c9:35:5d:
                    fb:6b:6a:eb:c4:7e:41:f6:b5:3e:36:9a:12:7b:56:
                    b7:34:58:ef:95:a5:c8:5b:25:cf:af:d4:92:b7:6b:
                    34:9f:99:57:49:f9:fe:be:f0:a3:99:8d:79:90:31:
                    34:7e:70:6a:71:4d:71:86:22:fa:f6:18:a0:9e:38:
                    44:2f:ac:11:1f:2e:38:10:21:9b:ac:51:7d:e0:7f:
                    b5:cc:5c:80:7e:00:cb:35:af:02:df:bf:ee:87:50:
                    c0:63:ad:33:67:96:a1:93:c4:31:16:d0:e5:1f:cc:
                    64:31
                Exponent: 65537 (0x10001)
        X509v3 extensions:
            X509v3 Key Usage: critical
                Digital Signature
            Authority Information Access: 
                CA Issuers - URI:http://secure.globalsign.com/cacert/gsextendcodesignsha2g3ocsp.crt
                OCSP - URI:http://ocsp2.globalsign.com/gsextendcodesignsha2g3

            X509v3 Certificate Policies: 
                Policy: 1.3.6.1.4.1.4146.1.2
                  CPS: https://www.globalsign.com/repository/
                Policy: 2.23.140.1.3

            X509v3 Basic Constraints: 
                CA:FALSE
            X509v3 CRL Distribution Points: 

                Full Name:
                  URI:http://crl.globalsign.com/gsextendcodesignsha2g3.crl

            X509v3 Extended Key Usage: 
                Code Signing
            X509v3 Subject Key Identifier: 
                CD:10:1D:0E:3C:A0:B5:0C:05:A1:49:21:BA:35:73:2A:0A:C0:1E:BF
            X509v3 Authority Key Identifier: 
                keyid:DC:2C:58:2C:2A:6F:35:2D:9F:79:95:A8:48:5D:C4:6D:3E:53:BF:B9

    Signature Algorithm: sha256WithRSAEncryption
         4a:52:57:15:52:27:17:45:81:87:96:32:6a:18:db:8a:48:0c:
         68:75:56:66:62:f3:23:45:dc:33:11:d1:5c:eb:73:1f:52:04:
         b0:5f:ff:5f:d2:0a:ba:e9:e0:03:07:42:7a:4b:ff:6e:e2:e5:
         89:a1:33:18:55:ca:b7:21:b1:51:ef:80:36:a2:39:3d:70:9d:
         8f:96:5d:76:0d:e8:32:25:f7:ab:8e:cd:02:62:13:95:ca:a8:
         2d:df:4b:29:d0:ad:5f:63:51:45:f9:6d:c4:bc:0e:21:03:a4:
         2f:a7:2e:a3:2a:81:62:48:f7:da:bf:2b:72:8c:23:09:dd:17:
         1f:8f:47:61:2d:1e:fa:fb:68:67:ce:b6:5f:b5:de:42:ed:88:
         f6:99:c6:df:59:59:fc:15:10:f4:e3:a3:29:47:9f:dc:6f:94:
         9b:54:ae:36:ed:63:18:4f:91:38:d4:aa:ed:81:85:f5:50:61:
         0c:65:54:18:56:f9:bf:ff:f1:c1:3d:fd:75:7a:d4:88:8a:bf:
         4d:8b:74:83:c2:87:48:f7:1f:ed:c6:09:b1:cc:87:77:16:d1:
         a1:05:5c:f1:49:d7:6b:61:b6:f5:49:46:e3:c5:6d:1c:82:46:
         91:14:a7:75:96:2d:de:72:95:92:71:52:7a:83:29:22:7a:1d:
         65:b7:67:9c
-----BEGIN CERTIFICATE-----
MIIFuzCCBKOgAwIBAgIMTjkFTVIIPIUrifaUMA0GCSqGSIb3DQEBCwUAMG4xCzAJ
BgNVBAYTAkJFMRkwFwYDVQQKExBHbG9iYWxTaWduIG52LXNhMUQwQgYDVQQDEztH
bG9iYWxTaWduIEV4dGVuZGVkIFZhbGlkYXRpb24gQ29kZVNpZ25pbmcgQ0EgLSBT
SEEyNTYgLSBHMzAeFw0xNzAzMjExNjQ0MjhaFw0xODAzMjIxNjQ0MjhaMIIBDjEd
MBsGA1UEDwwUUHJpdmF0ZSBPcmdhbml6YXRpb24xFjAUBgNVBAUTDTExNTYxOTYw
MzAxMTAxEzARBgsrBgEEAYI3PAIBAxMCUlUxIzAhBgsrBgEEAYI3PAIBAhMSUm9z
dG92c2theWEgT2JsYXN0MQswCQYDVQQGEwJSVTEbMBkGA1UECBMSUm9zdG92c2th
eWEgT2JsYXN0MRYwFAYDVQQHEw1Sb3N0b3Ytb24tRG9uMRswGQYDVQQJExJEbmVw
cm92c2tpIDEyNGItNzUxHTAbBgNVBAoTFG9Ud2VhayBTb2Z0d2FyZSwgTExDMR0w
GwYDVQQDExRvVHdlYWsgU29mdHdhcmUsIExMQzCCASIwDQYJKoZIhvcNAQEBBQAD
ggEPADCCAQoCggEBALV9l0nbSszeUQFFDt99Vpi1Smw/ySuL+rck505l+SLpN+ko
Q7KQKSKxtlwryCfYZrE4FirtR5OnBgqFdvw5C58YaSwx8WD26IwHwD4SrSnDb4V1
a/h/M6qaL2LGPYT4AF/lv6zHbTnoA1xuSOtEq3vDaOYXKCPLVzoF/sXqfyfNEPB8
zHXS1R2sVDpUcHEMzNJiyTVd+2tq68R+Qfa1PjaaEntWtzRY75WlyFslz6/Ukrdr
NJ+ZV0n5/r7wo5mNeZAxNH5wanFNcYYi+vYYoJ44RC+sER8uOBAhm6xRfeB/tcxc
gH4AyzWvAt+/7odQwGOtM2eWoZPEMRbQ5R/MZDECAwEAAaOCAbUwggGxMA4GA1Ud
DwEB/wQEAwIHgDCBoAYIKwYBBQUHAQEEgZMwgZAwTgYIKwYBBQUHMAKGQmh0dHA6
Ly9zZWN1cmUuZ2xvYmFsc2lnbi5jb20vY2FjZXJ0L2dzZXh0ZW5kY29kZXNpZ25z
aGEyZzNvY3NwLmNydDA+BggrBgEFBQcwAYYyaHR0cDovL29jc3AyLmdsb2JhbHNp
Z24uY29tL2dzZXh0ZW5kY29kZXNpZ25zaGEyZzMwVQYDVR0gBE4wTDBBBgkrBgEE
AaAyAQIwNDAyBggrBgEFBQcCARYmaHR0cHM6Ly93d3cuZ2xvYmFsc2lnbi5jb20v
cmVwb3NpdG9yeS8wBwYFZ4EMAQMwCQYDVR0TBAIwADBFBgNVHR8EPjA8MDqgOKA2
hjRodHRwOi8vY3JsLmdsb2JhbHNpZ24uY29tL2dzZXh0ZW5kY29kZXNpZ25zaGEy
ZzMuY3JsMBMGA1UdJQQMMAoGCCsGAQUFBwMDMB0GA1UdDgQWBBTNEB0OPKC1DAWh
SSG6NXMqCsAevzAfBgNVHSMEGDAWgBTcLFgsKm81LZ95lahIXcRtPlO/uTANBgkq
hkiG9w0BAQsFAAOCAQEASlJXFVInF0WBh5YyahjbikgMaHVWZmLzI0XcMxHRXOtz
H1IEsF//X9IKuungAwdCekv/buLliaEzGFXKtyGxUe+ANqI5PXCdj5Zddg3oMiX3
q47NAmITlcqoLd9LKdCtX2NRRfltxLwOIQOkL6cuoyqBYkj32r8rcowjCd0XH49H
YS0e+vtoZ862X7XeQu2I9pnG31lZ/BUQ9OOjKUef3G+Um1SuNu1jGE+RONSq7YGF
9VBhDGVUGFb5v//xwT39dXrUiIq/TYt0g8KHSPcf7cYJscyHdxbRoQVc8UnXa2G2
9UlG48VtHIJGkRSndZYt3nKVknFSeoMpInodZbdnnA==
-----END CERTIFICATE-----

