Certificate:
    Data:
        Version: 3 (0x2)
        Serial Number:
            d9:e6:81:0b:6e:c6:e7:bc:2f:37:50:1d:f2:63:56:a6
    Signature Algorithm: sha256WithRSAEncryption
        Issuer: C=GB, ST=Greater Manchester, L=Salford, O=COMODO CA Limited, CN=COMODO RSA Code Signing CA
        Validity
            Not Before: Apr  5 00:00:00 2017 GMT
            Not After : Apr  5 23:59:59 2018 GMT
        Subject: C=GB/postalCode=GU16 6NE, ST=Surrey, L=Camberley/street=17 Henley Drive Frimley Green, O=Redloop Consulting Limited, OU=Administration, CN=Redloop Consulting Limited
        Subject Public Key Info:
            Public Key Algorithm: rsaEncryption
                Public-Key: (2048 bit)
                Modulus:
                    00:d3:99:42:9c:6c:31:27:9d:3d:83:7f:9b:7a:11:
                    0d:bb:32:04:2f:23:95:64:13:f7:b5:9c:aa:33:0f:
                    73:f6:48:6a:eb:0c:0b:d0:86:d2:83:41:65:04:88:
                    4d:a0:e4:95:03:3f:a2:f0:8b:55:9f:1f:3f:e3:4b:
                    aa:48:18:56:88:68:c5:80:8b:e7:a6:f0:bf:93:f8:
                    01:67:0e:a6:a0:66:20:fb:87:04:60:0f:80:80:2c:
                    2c:74:13:11:b9:56:e9:86:e3:19:5f:47:70:a4:33:
                    08:24:63:05:77:ea:1a:08:fc:37:29:51:7a:35:13:
                    bc:1c:eb:14:23:04:4c:46:aa:7d:2e:f1:15:f0:06:
                    3c:2c:78:80:83:44:cd:f4:13:35:72:60:66:84:cd:
                    e2:48:a2:87:a3:08:4a:b6:77:e2:dc:92:46:00:ff:
                    70:d2:a4:31:7d:84:b8:8e:8d:95:44:5c:1c:52:0d:
                    c0:78:f9:3f:d8:c4:22:f3:96:3b:a4:fd:45:d2:29:
                    5b:e8:d8:87:88:f0:a5:51:10:6b:39:c7:01:0f:27:
                    86:64:a5:db:9c:94:a6:48:b7:2d:e7:02:53:75:67:
                    5e:82:2f:25:6d:dc:e7:c7:79:ba:42:a0:dd:af:48:
                    d9:51:0a:5f:06:70:3c:ce:d4:f1:bd:73:94:64:6d:
                    1f:b7
                Exponent: 65537 (0x10001)
        X509v3 extensions:
            X509v3 Authority Key Identifier: 
                keyid:29:91:60:FF:8A:4D:FA:EB:F9:A6:6A:B8:CF:F9:E6:4B:BD:49:CE:12

            X509v3 Subject Key Identifier: 
                FA:77:B3:9B:31:45:CF:AB:23:38:4E:70:36:F0:04:27:CF:FA:9B:4B
            X509v3 Key Usage: critical
                Digital Signature
            X509v3 Basic Constraints: critical
                CA:FALSE
            X509v3 Extended Key Usage: 
                Code Signing
            Netscape Cert Type: 
                Object Signing
            X509v3 Certificate Policies: 
                Policy: 1.3.6.1.4.1.6449.1.2.1.3.2
                  CPS: https://secure.comodo.net/CPS

            X509v3 CRL Distribution Points: 

                Full Name:
                  URI:http://crl.comodoca.com/COMODORSACodeSigningCA.crl

            Authority Information Access: 
                CA Issuers - URI:http://crt.comodoca.com/COMODORSACodeSigningCA.crt
                OCSP - URI:http://ocsp.comodoca.com

    Signature Algorithm: sha256WithRSAEncryption
         76:8a:85:c3:78:ff:8d:bb:fd:c3:02:5c:5d:41:5d:b3:87:5e:
         32:2f:a2:0a:a7:d6:1b:26:c8:ac:66:74:fe:98:a7:08:2e:f2:
         d5:5e:c7:33:62:09:b3:d8:43:bc:af:91:4d:06:a0:4b:c6:6f:
         5e:ed:65:56:bc:aa:cb:f8:f1:c7:56:68:00:21:2a:ff:e8:0c:
         75:8c:07:80:cb:19:a6:67:de:ee:a5:0e:57:ae:c3:63:6c:c1:
         3a:cf:67:2b:7c:05:28:5d:6b:cf:07:42:1b:78:73:5a:f7:97:
         27:ee:00:70:d3:c8:7c:4b:04:9a:50:48:77:af:63:6a:70:0c:
         ab:1b:00:a2:84:98:db:b0:67:d8:64:af:56:70:aa:96:20:1a:
         0a:97:66:c5:d7:45:ae:b0:b4:bb:de:fa:f9:6c:63:ca:f4:fc:
         38:26:34:68:98:08:88:41:63:97:19:4c:34:84:2d:73:e9:21:
         f1:74:03:80:a1:38:13:0d:c2:24:4e:5a:dd:4a:e8:87:08:e9:
         32:9d:96:b3:bb:62:c5:3e:ae:7d:9f:96:aa:34:ff:a6:a4:48:
         b4:19:3a:49:ee:2b:cf:fe:08:cb:fa:ac:91:8a:a7:fe:52:5b:
         1f:bc:49:e1:1a:15:3a:52:07:b6:c9:d4:94:3c:05:1f:bf:ab:
         43:d0:42:0d
-----BEGIN CERTIFICATE-----
MIIFaDCCBFCgAwIBAgIRANnmgQtuxue8LzdQHfJjVqYwDQYJKoZIhvcNAQELBQAw
fTELMAkGA1UEBhMCR0IxGzAZBgNVBAgTEkdyZWF0ZXIgTWFuY2hlc3RlcjEQMA4G
A1UEBxMHU2FsZm9yZDEaMBgGA1UEChMRQ09NT0RPIENBIExpbWl0ZWQxIzAhBgNV
BAMTGkNPTU9ETyBSU0EgQ29kZSBTaWduaW5nIENBMB4XDTE3MDQwNTAwMDAwMFoX
DTE4MDQwNTIzNTk1OVowgdAxCzAJBgNVBAYTAkdCMREwDwYDVQQRDAhHVTE2IDZO
RTEPMA0GA1UECAwGU3VycmV5MRIwEAYDVQQHDAlDYW1iZXJsZXkxJjAkBgNVBAkM
HTE3IEhlbmxleSBEcml2ZSBGcmltbGV5IEdyZWVuMSMwIQYDVQQKDBpSZWRsb29w
IENvbnN1bHRpbmcgTGltaXRlZDEXMBUGA1UECwwOQWRtaW5pc3RyYXRpb24xIzAh
BgNVBAMMGlJlZGxvb3AgQ29uc3VsdGluZyBMaW1pdGVkMIIBIjANBgkqhkiG9w0B
AQEFAAOCAQ8AMIIBCgKCAQEA05lCnGwxJ509g3+behENuzIELyOVZBP3tZyqMw9z
9khq6wwL0IbSg0FlBIhNoOSVAz+i8ItVnx8/40uqSBhWiGjFgIvnpvC/k/gBZw6m
oGYg+4cEYA+AgCwsdBMRuVbphuMZX0dwpDMIJGMFd+oaCPw3KVF6NRO8HOsUIwRM
Rqp9LvEV8AY8LHiAg0TN9BM1cmBmhM3iSKKHowhKtnfi3JJGAP9w0qQxfYS4jo2V
RFwcUg3AePk/2MQi85Y7pP1F0ilb6NiHiPClURBrOccBDyeGZKXbnJSmSLct5wJT
dWdegi8lbdznx3m6QqDdr0jZUQpfBnA8ztTxvXOUZG0ftwIDAQABo4IBjTCCAYkw
HwYDVR0jBBgwFoAUKZFg/4pN+uv5pmq4z/nmS71JzhIwHQYDVR0OBBYEFPp3s5sx
Rc+rIzhOcDbwBCfP+ptLMA4GA1UdDwEB/wQEAwIHgDAMBgNVHRMBAf8EAjAAMBMG
A1UdJQQMMAoGCCsGAQUFBwMDMBEGCWCGSAGG+EIBAQQEAwIEEDBGBgNVHSAEPzA9
MDsGDCsGAQQBsjEBAgEDAjArMCkGCCsGAQUFBwIBFh1odHRwczovL3NlY3VyZS5j
b21vZG8ubmV0L0NQUzBDBgNVHR8EPDA6MDigNqA0hjJodHRwOi8vY3JsLmNvbW9k
b2NhLmNvbS9DT01PRE9SU0FDb2RlU2lnbmluZ0NBLmNybDB0BggrBgEFBQcBAQRo
MGYwPgYIKwYBBQUHMAKGMmh0dHA6Ly9jcnQuY29tb2RvY2EuY29tL0NPTU9ET1JT
QUNvZGVTaWduaW5nQ0EuY3J0MCQGCCsGAQUFBzABhhhodHRwOi8vb2NzcC5jb21v
ZG9jYS5jb20wDQYJKoZIhvcNAQELBQADggEBAHaKhcN4/427/cMCXF1BXbOHXjIv
ogqn1hsmyKxmdP6Ypwgu8tVexzNiCbPYQ7yvkU0GoEvGb17tZVa8qsv48cdWaAAh
Kv/oDHWMB4DLGaZn3u6lDleuw2NswTrPZyt8BShda88HQht4c1r3lyfuAHDTyHxL
BJpQSHevY2pwDKsbAKKEmNuwZ9hkr1ZwqpYgGgqXZsXXRa6wtLve+vlsY8r0/Dgm
NGiYCIhBY5cZTDSELXPpIfF0A4ChOBMNwiROWt1K6IcI6TKdlrO7YsU+rn2flqo0
/6akSLQZOknuK8/+CMv6rJGKp/5SWx+8SeEaFTpSB7bJ1JQ8BR+/q0PQQg0=
-----END CERTIFICATE-----

Certificate:
    Data:
        Version: 3 (0x2)
        Serial Number:
            2e:7c:87:cc:0e:93:4a:52:fe:94:fd:1c:b7:cd:34:af
    Signature Algorithm: sha384WithRSAEncryption
        Issuer: C=GB, ST=Greater Manchester, L=Salford, O=COMODO CA Limited, CN=COMODO RSA Certification Authority
        Validity
            Not Before: May  9 00:00:00 2013 GMT
            Not After : May  8 23:59:59 2028 GMT
        Subject: C=GB, ST=Greater Manchester, L=Salford, O=COMODO CA Limited, CN=COMODO RSA Code Signing CA
        Subject Public Key Info:
            Public Key Algorithm: rsaEncryption
                Public-Key: (2048 bit)
                Modulus:
                    00:a6:98:90:63:77:91:34:7f:8a:d1:dd:e9:67:31:
                    11:eb:cc:1e:fd:31:1d:b3:b9:62:57:3f:93:bc:5b:
                    e3:9f:1e:24:32:11:27:6b:bc:51:91:a7:cf:9e:9e:
                    25:b3:5f:81:a8:18:0f:1d:1e:20:30:0e:fb:61:7b:
                    86:09:b3:e3:fd:a2:68:9d:1c:2c:9d:bf:72:e3:e4:
                    75:a0:e5:35:23:8e:c9:8a:ee:1a:0c:64:c7:d8:42:
                    a1:7b:b5:52:03:4b:3a:b0:8e:23:4b:4b:63:e0:22:
                    94:37:7b:d5:79:90:0a:14:18:51:2c:e6:fe:c1:12:
                    f0:1c:3f:61:61:0a:8c:a2:dc:f6:c3:30:aa:cd:28:
                    18:75:48:c1:79:5a:08:cd:bb:8c:55:8c:f7:d4:76:
                    90:3a:33:46:50:73:98:5c:f4:85:4a:6b:0f:80:dd:
                    5e:d6:bd:fd:a9:2f:c0:25:f5:f9:78:d7:8d:5f:10:
                    c2:44:55:3c:90:3c:31:46:cb:70:ae:07:a9:0a:e3:
                    af:c1:01:6f:90:1a:23:e2:5f:38:db:c6:08:5d:47:
                    b3:83:41:f0:2e:00:37:14:b9:12:aa:79:92:52:cd:
                    87:0f:7b:d8:62:29:a4:7e:30:bd:1b:b5:8c:72:b4:
                    48:f2:e3:e8:21:f9:5e:4c:62:79:8b:02:06:9f:7f:
                    d5:0b
                Exponent: 65537 (0x10001)
        X509v3 extensions:
            X509v3 Authority Key Identifier: 
                keyid:BB:AF:7E:02:3D:FA:A6:F1:3C:84:8E:AD:EE:38:98:EC:D9:32:32:D4

            X509v3 Subject Key Identifier: 
                29:91:60:FF:8A:4D:FA:EB:F9:A6:6A:B8:CF:F9:E6:4B:BD:49:CE:12
            X509v3 Key Usage: critical
                Digital Signature, Certificate Sign, CRL Sign
            X509v3 Basic Constraints: critical
                CA:TRUE, pathlen:0
            X509v3 Extended Key Usage: 
                Code Signing
            X509v3 Certificate Policies: 
                Policy: X509v3 Any Policy

            X509v3 CRL Distribution Points: 

                Full Name:
                  URI:http://crl.comodoca.com/COMODORSACertificationAuthority.crl

            Authority Information Access: 
                CA Issuers - URI:http://crt.comodoca.com/COMODORSAAddTrustCA.crt
                OCSP - URI:http://ocsp.comodoca.com

    Signature Algorithm: sha384WithRSAEncryption
         02:3f:02:39:c3:ee:f8:ca:3b:89:de:0c:6d:4d:b1:f1:4e:92:
         4f:af:c2:38:2c:04:cc:c5:63:11:ab:09:63:af:ab:a2:d7:02:
         3f:cc:6f:19:c3:3d:d6:1a:08:94:ff:25:d8:a9:88:a7:2b:10:
         1a:e0:9b:b1:07:22:1a:51:1c:3a:d4:e1:e9:09:bf:e6:24:74:
         af:1e:7b:16:31:6e:23:ef:54:51:2d:52:02:e2:75:08:05:4c:
         f1:b7:51:e1:51:00:c6:87:f6:6c:ee:10:44:76:57:6a:f1:df:
         58:6b:21:aa:49:d4:7c:37:4e:bd:ff:b6:75:54:40:18:36:57:
         67:11:cd:4f:02:e4:fe:f3:da:fc:75:17:db:ec:b7:f7:65:09:
         23:49:1f:43:57:83:ea:7e:20:77:61:c8:4d:f2:bb:65:4d:a8:
         f7:85:45:07:af:7a:69:27:65:90:29:40:8b:df:7b:3a:51:39:
         8c:a8:1f:70:79:ad:6d:42:20:a2:cf:0c:6c:03:8c:4c:cd:73:
         07:94:e7:5a:8e:3a:04:ba:a2:a1:7c:1f:cb:63:3a:15:a7:d4:
         15:1b:a7:52:47:32:a9:f4:bf:64:47:d1:aa:1f:53:4e:32:30:
         73:c2:6f:b7:78:82:9d:5c:ff:46:bb:6b:22:1d:88:0b:f8:1b:
         aa:34:a6:fc:8c:f5:dd:7f:65:8c:8c:31:57:31:d0:36:ec:47:
         a1:cf:cb:8b:a8:ef:1c:18:58:c5:06:77:ca:4b:9b:51:af:4c:
         08:4a:7a:8f:e2:a3:52:e2:8e:8e:cc:26:e4:b2:d8:e5:38:c2:
         a8:ed:c6:81:9c:35:6b:a9:58:61:4a:0a:97:b4:4b:42:b6:55:
         9d:be:99:e7:70:6d:59:f8:6d:2a:0c:7f:19:60:5f:0c:9a:88:
         6c:30:ac:52:09:90:16:1b:ff:2b:9d:db:d0:20:ca:89:ea:28:
         7e:32:8e:19:df:7b:48:33:1e:d7:65:f8:ae:c9:f8:83:14:93:
         76:7d:64:d0:8e:ce:be:35:7d:ff:72:31:4d:9f:9e:bd:1e:6c:
         2f:a8:8f:0c:06:50:fb:8c:27:b3:76:c9:f4:e6:d7:c3:34:e2:
         8c:87:21:86:61:fe:bf:55:74:e1:21:77:03:0a:68:6c:bb:e4:
         c9:a9:e6:cf:59:25:eb:7c:ec:45:0e:79:66:68:e8:22:cd:b8:
         ef:98:85:4d:96:11:3c:09:8a:d0:7f:bc:28:28:13:fb:6a:ca:
         54:8d:92:5c:cd:c2:65:98:06:9e:ce:48:5b:d4:b5:37:93:46:
         41:7c:07:dd:cf:fa:43:ef:ba:67:61:ff:7d:49:e0:bb:30:7d:
         5c:80:e3:e6:16:39:4b:a7
-----BEGIN CERTIFICATE-----
MIIF4DCCA8igAwIBAgIQLnyHzA6TSlL+lP0ct800rzANBgkqhkiG9w0BAQwFADCB
hTELMAkGA1UEBhMCR0IxGzAZBgNVBAgTEkdyZWF0ZXIgTWFuY2hlc3RlcjEQMA4G
A1UEBxMHU2FsZm9yZDEaMBgGA1UEChMRQ09NT0RPIENBIExpbWl0ZWQxKzApBgNV
BAMTIkNPTU9ETyBSU0EgQ2VydGlmaWNhdGlvbiBBdXRob3JpdHkwHhcNMTMwNTA5
MDAwMDAwWhcNMjgwNTA4MjM1OTU5WjB9MQswCQYDVQQGEwJHQjEbMBkGA1UECBMS
R3JlYXRlciBNYW5jaGVzdGVyMRAwDgYDVQQHEwdTYWxmb3JkMRowGAYDVQQKExFD
T01PRE8gQ0EgTGltaXRlZDEjMCEGA1UEAxMaQ09NT0RPIFJTQSBDb2RlIFNpZ25p
bmcgQ0EwggEiMA0GCSqGSIb3DQEBAQUAA4IBDwAwggEKAoIBAQCmmJBjd5E0f4rR
3elnMRHrzB79MR2zuWJXP5O8W+OfHiQyESdrvFGRp8+eniWzX4GoGA8dHiAwDvth
e4YJs+P9omidHCydv3Lj5HWg5TUjjsmK7hoMZMfYQqF7tVIDSzqwjiNLS2PgIpQ3
e9V5kAoUGFEs5v7BEvAcP2FhCoyi3PbDMKrNKBh1SMF5WgjNu4xVjPfUdpA6M0ZQ
c5hc9IVKaw+A3V7Wvf2pL8Al9fl4141fEMJEVTyQPDFGy3CuB6kK46/BAW+QGiPi
XzjbxghdR7ODQfAuADcUuRKqeZJSzYcPe9hiKaR+ML0btYxytEjy4+gh+V5MYnmL
Agaff9ULAgMBAAGjggFRMIIBTTAfBgNVHSMEGDAWgBS7r34CPfqm8TyEjq3uOJjs
2TIy1DAdBgNVHQ4EFgQUKZFg/4pN+uv5pmq4z/nmS71JzhIwDgYDVR0PAQH/BAQD
AgGGMBIGA1UdEwEB/wQIMAYBAf8CAQAwEwYDVR0lBAwwCgYIKwYBBQUHAwMwEQYD
VR0gBAowCDAGBgRVHSAAMEwGA1UdHwRFMEMwQaA/oD2GO2h0dHA6Ly9jcmwuY29t
b2RvY2EuY29tL0NPTU9ET1JTQUNlcnRpZmljYXRpb25BdXRob3JpdHkuY3JsMHEG
CCsGAQUFBwEBBGUwYzA7BggrBgEFBQcwAoYvaHR0cDovL2NydC5jb21vZG9jYS5j
b20vQ09NT0RPUlNBQWRkVHJ1c3RDQS5jcnQwJAYIKwYBBQUHMAGGGGh0dHA6Ly9v
Y3NwLmNvbW9kb2NhLmNvbTANBgkqhkiG9w0BAQwFAAOCAgEAAj8COcPu+Mo7id4M
bU2x8U6ST6/COCwEzMVjEasJY6+rotcCP8xvGcM91hoIlP8l2KmIpysQGuCbsQci
GlEcOtTh6Qm/5iR0rx57FjFuI+9UUS1SAuJ1CAVM8bdR4VEAxof2bO4QRHZXavHf
WGshqknUfDdOvf+2dVRAGDZXZxHNTwLk/vPa/HUX2+y392UJI0kfQ1eD6n4gd2HI
TfK7ZU2o94VFB696aSdlkClAi997OlE5jKgfcHmtbUIgos8MbAOMTM1zB5TnWo46
BLqioXwfy2M6FafUFRunUkcyqfS/ZEfRqh9TTjIwc8Jvt3iCnVz/RrtrIh2IC/gb
qjSm/Iz13X9ljIwxVzHQNuxHoc/Li6jvHBhYxQZ3ykubUa9MCEp6j+KjUuKOjswm
5LLY5TjCqO3GgZw1a6lYYUoKl7RLQrZVnb6Z53BtWfhtKgx/GWBfDJqIbDCsUgmQ
Fhv/K53b0CDKieoofjKOGd97SDMe12X4rsn4gxSTdn1k0I7OvjV9/3IxTZ+evR5s
L6iPDAZQ+4wns3bJ9ObXwzTijIchhmH+v1V04SF3AwpobLvkyanmz1kl63zsRQ55
ZmjoIs2475iFTZYRPAmK0H+8KCgT+2rKVI2SXM3CZZgGns5IW9S1N5NGQXwH3c/6
Q++6Z2H/fUnguzB9XIDj5hY5S6c=
-----END CERTIFICATE-----

